    3788: 00 20 08 90  	adrp	x0, 0x10403000 <_ZNK18ChiFeature2Generic31OnPopulateConfigurationSettingsEP24ChiFeature2RequestObjectPK21ChiFeature2IdentifierP11ChiMetadata+0x1b78>
    b71c: 28 29 20 54  	b.hi	0x4bc40 <_ZN18ChiFeature2GenericD2Ev+0x5de0>
   12b8c: 64 2e 20 54  	b.mi	0x53158 <_ZN9Semaphore7DestroyEv+0x3480>
   19940: e8 1d 01 94  	bl	0x610e0 <_ZN7android8hardware11hidl_stringC1EPKc@plt>
   19980: d8 1d 01 94  	bl	0x610e0 <_ZN7android8hardware11hidl_stringC1EPKc@plt>
   199ac: cd 1d 01 94  	bl	0x610e0 <_ZN7android8hardware11hidl_stringC1EPKc@plt>
   199d8: c2 1d 01 94  	bl	0x610e0 <_ZN7android8hardware11hidl_stringC1EPKc@plt>
   19a04: b7 1d 01 94  	bl	0x610e0 <_ZN7android8hardware11hidl_stringC1EPKc@plt>
   19a30: ac 1d 01 94  	bl	0x610e0 <_ZN7android8hardware11hidl_stringC1EPKc@plt>
   19a60: a0 1d 01 94  	bl	0x610e0 <_ZN7android8hardware11hidl_stringC1EPKc@plt>
   19a8c: 95 1d 01 94  	bl	0x610e0 <_ZN7android8hardware11hidl_stringC1EPKc@plt>
   19ab8: 8a 1d 01 94  	bl	0x610e0 <_ZN7android8hardware11hidl_stringC1EPKc@plt>
   19ae4: 7f 1d 01 94  	bl	0x610e0 <_ZN7android8hardware11hidl_stringC1EPKc@plt>
   19b10: 74 1d 01 94  	bl	0x610e0 <_ZN7android8hardware11hidl_stringC1EPKc@plt>
   19b3c: 69 1d 01 94  	bl	0x610e0 <_ZN7android8hardware11hidl_stringC1EPKc@plt>
   19b68: 5e 1d 01 94  	bl	0x610e0 <_ZN7android8hardware11hidl_stringC1EPKc@plt>
   19b94: 53 1d 01 94  	bl	0x610e0 <_ZN7android8hardware11hidl_stringC1EPKc@plt>
   19bc0: 48 1d 01 94  	bl	0x610e0 <_ZN7android8hardware11hidl_stringC1EPKc@plt>
   19bec: 3d 1d 01 94  	bl	0x610e0 <_ZN7android8hardware11hidl_stringC1EPKc@plt>
   19c18: 32 1d 01 94  	bl	0x610e0 <_ZN7android8hardware11hidl_stringC1EPKc@plt>
   19c44: 27 1d 01 94  	bl	0x610e0 <_ZN7android8hardware11hidl_stringC1EPKc@plt>
   19c70: 1c 1d 01 94  	bl	0x610e0 <_ZN7android8hardware11hidl_stringC1EPKc@plt>
   19c9c: 11 1d 01 94  	bl	0x610e0 <_ZN7android8hardware11hidl_stringC1EPKc@plt>
   19cc8: 06 1d 01 94  	bl	0x610e0 <_ZN7android8hardware11hidl_stringC1EPKc@plt>
   1a24c: b1 1b 01 94  	bl	0x61110 <_ZN7android8hardware11hidl_stringC1ERKNSt3__112basic_stringIcNS2_11char_traitsIcEENS2_9allocatorIcEEEE@plt>
   1a278: a6 1b 01 94  	bl	0x61110 <_ZN7android8hardware11hidl_stringC1ERKNSt3__112basic_stringIcNS2_11char_traitsIcEENS2_9allocatorIcEEEE@plt>
   1a2a4: 9b 1b 01 94  	bl	0x61110 <_ZN7android8hardware11hidl_stringC1ERKNSt3__112basic_stringIcNS2_11char_traitsIcEENS2_9allocatorIcEEEE@plt>
   1a2d0: 90 1b 01 94  	bl	0x61110 <_ZN7android8hardware11hidl_stringC1ERKNSt3__112basic_stringIcNS2_11char_traitsIcEENS2_9allocatorIcEEEE@plt>
   1a2fc: 85 1b 01 94  	bl	0x61110 <_ZN7android8hardware11hidl_stringC1ERKNSt3__112basic_stringIcNS2_11char_traitsIcEENS2_9allocatorIcEEEE@plt>
   1a328: 7a 1b 01 94  	bl	0x61110 <_ZN7android8hardware11hidl_stringC1ERKNSt3__112basic_stringIcNS2_11char_traitsIcEENS2_9allocatorIcEEEE@plt>
   1a354: 6f 1b 01 94  	bl	0x61110 <_ZN7android8hardware11hidl_stringC1ERKNSt3__112basic_stringIcNS2_11char_traitsIcEENS2_9allocatorIcEEEE@plt>
   1a380: 64 1b 01 94  	bl	0x61110 <_ZN7android8hardware11hidl_stringC1ERKNSt3__112basic_stringIcNS2_11char_traitsIcEENS2_9allocatorIcEEEE@plt>
   1a3ac: 59 1b 01 94  	bl	0x61110 <_ZN7android8hardware11hidl_stringC1ERKNSt3__112basic_stringIcNS2_11char_traitsIcEENS2_9allocatorIcEEEE@plt>
   1a3d8: 4e 1b 01 94  	bl	0x61110 <_ZN7android8hardware11hidl_stringC1ERKNSt3__112basic_stringIcNS2_11char_traitsIcEENS2_9allocatorIcEEEE@plt>
   1a404: 43 1b 01 94  	bl	0x61110 <_ZN7android8hardware11hidl_stringC1ERKNSt3__112basic_stringIcNS2_11char_traitsIcEENS2_9allocatorIcEEEE@plt>
   1a430: 38 1b 01 94  	bl	0x61110 <_ZN7android8hardware11hidl_stringC1ERKNSt3__112basic_stringIcNS2_11char_traitsIcEENS2_9allocatorIcEEEE@plt>
   1a45c: 2d 1b 01 94  	bl	0x61110 <_ZN7android8hardware11hidl_stringC1ERKNSt3__112basic_stringIcNS2_11char_traitsIcEENS2_9allocatorIcEEEE@plt>
   1a488: 22 1b 01 94  	bl	0x61110 <_ZN7android8hardware11hidl_stringC1ERKNSt3__112basic_stringIcNS2_11char_traitsIcEENS2_9allocatorIcEEEE@plt>
   1a4b4: 17 1b 01 94  	bl	0x61110 <_ZN7android8hardware11hidl_stringC1ERKNSt3__112basic_stringIcNS2_11char_traitsIcEENS2_9allocatorIcEEEE@plt>
   1a4e0: 0c 1b 01 94  	bl	0x61110 <_ZN7android8hardware11hidl_stringC1ERKNSt3__112basic_stringIcNS2_11char_traitsIcEENS2_9allocatorIcEEEE@plt>
   1a50c: 01 1b 01 94  	bl	0x61110 <_ZN7android8hardware11hidl_stringC1ERKNSt3__112basic_stringIcNS2_11char_traitsIcEENS2_9allocatorIcEEEE@plt>
   1a538: f6 1a 01 94  	bl	0x61110 <_ZN7android8hardware11hidl_stringC1ERKNSt3__112basic_stringIcNS2_11char_traitsIcEENS2_9allocatorIcEEEE@plt>
   1a564: eb 1a 01 94  	bl	0x61110 <_ZN7android8hardware11hidl_stringC1ERKNSt3__112basic_stringIcNS2_11char_traitsIcEENS2_9allocatorIcEEEE@plt>
   1a590: e0 1a 01 94  	bl	0x61110 <_ZN7android8hardware11hidl_stringC1ERKNSt3__112basic_stringIcNS2_11char_traitsIcEENS2_9allocatorIcEEEE@plt>
   1a5bc: d5 1a 01 94  	bl	0x61110 <_ZN7android8hardware11hidl_stringC1ERKNSt3__112basic_stringIcNS2_11char_traitsIcEENS2_9allocatorIcEEEE@plt>
   1a5e8: ca 1a 01 94  	bl	0x61110 <_ZN7android8hardware11hidl_stringC1ERKNSt3__112basic_stringIcNS2_11char_traitsIcEENS2_9allocatorIcEEEE@plt>
   1a614: bf 1a 01 94  	bl	0x61110 <_ZN7android8hardware11hidl_stringC1ERKNSt3__112basic_stringIcNS2_11char_traitsIcEENS2_9allocatorIcEEEE@plt>
   1a640: b4 1a 01 94  	bl	0x61110 <_ZN7android8hardware11hidl_stringC1ERKNSt3__112basic_stringIcNS2_11char_traitsIcEENS2_9allocatorIcEEEE@plt>
   1a66c: a9 1a 01 94  	bl	0x61110 <_ZN7android8hardware11hidl_stringC1ERKNSt3__112basic_stringIcNS2_11char_traitsIcEENS2_9allocatorIcEEEE@plt>
   1a698: 9e 1a 01 94  	bl	0x61110 <_ZN7android8hardware11hidl_stringC1ERKNSt3__112basic_stringIcNS2_11char_traitsIcEENS2_9allocatorIcEEEE@plt>
   1a6c0: 98 1a 01 94  	bl	0x61120 <_ZNSt3__112basic_stringIcNS_11char_traitsIcEENS_9allocatorIcEEEC1ERKS5_@plt>
   1a6ec: 8d 1a 01 94  	bl	0x61120 <_ZNSt3__112basic_stringIcNS_11char_traitsIcEENS_9allocatorIcEEEC1ERKS5_@plt>
   1a718: 82 1a 01 94  	bl	0x61120 <_ZNSt3__112basic_stringIcNS_11char_traitsIcEENS_9allocatorIcEEEC1ERKS5_@plt>
   1a744: 77 1a 01 94  	bl	0x61120 <_ZNSt3__112basic_stringIcNS_11char_traitsIcEENS_9allocatorIcEEEC1ERKS5_@plt>
   1ca50: a4 11 01 94  	bl	0x610e0 <_ZN7android8hardware11hidl_stringC1EPKc@plt>
   1ca8c: 95 11 01 94  	bl	0x610e0 <_ZN7android8hardware11hidl_stringC1EPKc@plt>
   1cab8: 8a 11 01 94  	bl	0x610e0 <_ZN7android8hardware11hidl_stringC1EPKc@plt>
   1cae4: 7f 11 01 94  	bl	0x610e0 <_ZN7android8hardware11hidl_stringC1EPKc@plt>
   1cb10: 74 11 01 94  	bl	0x610e0 <_ZN7android8hardware11hidl_stringC1EPKc@plt>
   1cb3c: 69 11 01 94  	bl	0x610e0 <_ZN7android8hardware11hidl_stringC1EPKc@plt>
   1cb68: 5e 11 01 94  	bl	0x610e0 <_ZN7android8hardware11hidl_stringC1EPKc@plt>
   1cb94: 53 11 01 94  	bl	0x610e0 <_ZN7android8hardware11hidl_stringC1EPKc@plt>
   1cbc0: 48 11 01 94  	bl	0x610e0 <_ZN7android8hardware11hidl_stringC1EPKc@plt>
   1cbec: 3d 11 01 94  	bl	0x610e0 <_ZN7android8hardware11hidl_stringC1EPKc@plt>
   1cc18: 32 11 01 94  	bl	0x610e0 <_ZN7android8hardware11hidl_stringC1EPKc@plt>
   1cc44: 27 11 01 94  	bl	0x610e0 <_ZN7android8hardware11hidl_stringC1EPKc@plt>
   1cc70: 1c 11 01 94  	bl	0x610e0 <_ZN7android8hardware11hidl_stringC1EPKc@plt>
   1cc9c: 11 11 01 94  	bl	0x610e0 <_ZN7android8hardware11hidl_stringC1EPKc@plt>
   1ccc8: 06 11 01 94  	bl	0x610e0 <_ZN7android8hardware11hidl_stringC1EPKc@plt>
   1ccf4: fb 10 01 94  	bl	0x610e0 <_ZN7android8hardware11hidl_stringC1EPKc@plt>
   1cd20: f0 10 01 94  	bl	0x610e0 <_ZN7android8hardware11hidl_stringC1EPKc@plt>
   1cd4c: e5 10 01 94  	bl	0x610e0 <_ZN7android8hardware11hidl_stringC1EPKc@plt>
   1cd78: da 10 01 94  	bl	0x610e0 <_ZN7android8hardware11hidl_stringC1EPKc@plt>
   1cda4: cf 10 01 94  	bl	0x610e0 <_ZN7android8hardware11hidl_stringC1EPKc@plt>
   1cdd0: c4 10 01 94  	bl	0x610e0 <_ZN7android8hardware11hidl_stringC1EPKc@plt>
   1d35c: 6d 0f 01 94  	bl	0x61110 <_ZN7android8hardware11hidl_stringC1ERKNSt3__112basic_stringIcNS2_11char_traitsIcEENS2_9allocatorIcEEEE@plt>
   1d388: 62 0f 01 94  	bl	0x61110 <_ZN7android8hardware11hidl_stringC1ERKNSt3__112basic_stringIcNS2_11char_traitsIcEENS2_9allocatorIcEEEE@plt>
   1d3b4: 57 0f 01 94  	bl	0x61110 <_ZN7android8hardware11hidl_stringC1ERKNSt3__112basic_stringIcNS2_11char_traitsIcEENS2_9allocatorIcEEEE@plt>
   1d3e0: 4c 0f 01 94  	bl	0x61110 <_ZN7android8hardware11hidl_stringC1ERKNSt3__112basic_stringIcNS2_11char_traitsIcEENS2_9allocatorIcEEEE@plt>
   1d40c: 41 0f 01 94  	bl	0x61110 <_ZN7android8hardware11hidl_stringC1ERKNSt3__112basic_stringIcNS2_11char_traitsIcEENS2_9allocatorIcEEEE@plt>
   1d438: 36 0f 01 94  	bl	0x61110 <_ZN7android8hardware11hidl_stringC1ERKNSt3__112basic_stringIcNS2_11char_traitsIcEENS2_9allocatorIcEEEE@plt>
   1d464: 2b 0f 01 94  	bl	0x61110 <_ZN7android8hardware11hidl_stringC1ERKNSt3__112basic_stringIcNS2_11char_traitsIcEENS2_9allocatorIcEEEE@plt>
   1d490: 20 0f 01 94  	bl	0x61110 <_ZN7android8hardware11hidl_stringC1ERKNSt3__112basic_stringIcNS2_11char_traitsIcEENS2_9allocatorIcEEEE@plt>
   1d4bc: 15 0f 01 94  	bl	0x61110 <_ZN7android8hardware11hidl_stringC1ERKNSt3__112basic_stringIcNS2_11char_traitsIcEENS2_9allocatorIcEEEE@plt>
   1d4e8: 0a 0f 01 94  	bl	0x61110 <_ZN7android8hardware11hidl_stringC1ERKNSt3__112basic_stringIcNS2_11char_traitsIcEENS2_9allocatorIcEEEE@plt>
   1d514: ff 0e 01 94  	bl	0x61110 <_ZN7android8hardware11hidl_stringC1ERKNSt3__112basic_stringIcNS2_11char_traitsIcEENS2_9allocatorIcEEEE@plt>
   1d540: f4 0e 01 94  	bl	0x61110 <_ZN7android8hardware11hidl_stringC1ERKNSt3__112basic_stringIcNS2_11char_traitsIcEENS2_9allocatorIcEEEE@plt>
   1d56c: e9 0e 01 94  	bl	0x61110 <_ZN7android8hardware11hidl_stringC1ERKNSt3__112basic_stringIcNS2_11char_traitsIcEENS2_9allocatorIcEEEE@plt>
   1d598: de 0e 01 94  	bl	0x61110 <_ZN7android8hardware11hidl_stringC1ERKNSt3__112basic_stringIcNS2_11char_traitsIcEENS2_9allocatorIcEEEE@plt>
   1d5c4: d3 0e 01 94  	bl	0x61110 <_ZN7android8hardware11hidl_stringC1ERKNSt3__112basic_stringIcNS2_11char_traitsIcEENS2_9allocatorIcEEEE@plt>
   1d5f0: c8 0e 01 94  	bl	0x61110 <_ZN7android8hardware11hidl_stringC1ERKNSt3__112basic_stringIcNS2_11char_traitsIcEENS2_9allocatorIcEEEE@plt>
   1d61c: bd 0e 01 94  	bl	0x61110 <_ZN7android8hardware11hidl_stringC1ERKNSt3__112basic_stringIcNS2_11char_traitsIcEENS2_9allocatorIcEEEE@plt>
   1d648: b2 0e 01 94  	bl	0x61110 <_ZN7android8hardware11hidl_stringC1ERKNSt3__112basic_stringIcNS2_11char_traitsIcEENS2_9allocatorIcEEEE@plt>
   1d674: a7 0e 01 94  	bl	0x61110 <_ZN7android8hardware11hidl_stringC1ERKNSt3__112basic_stringIcNS2_11char_traitsIcEENS2_9allocatorIcEEEE@plt>
   1d6a0: 9c 0e 01 94  	bl	0x61110 <_ZN7android8hardware11hidl_stringC1ERKNSt3__112basic_stringIcNS2_11char_traitsIcEENS2_9allocatorIcEEEE@plt>
   1d6cc: 91 0e 01 94  	bl	0x61110 <_ZN7android8hardware11hidl_stringC1ERKNSt3__112basic_stringIcNS2_11char_traitsIcEENS2_9allocatorIcEEEE@plt>
   1d6f8: 86 0e 01 94  	bl	0x61110 <_ZN7android8hardware11hidl_stringC1ERKNSt3__112basic_stringIcNS2_11char_traitsIcEENS2_9allocatorIcEEEE@plt>
   1d724: 7b 0e 01 94  	bl	0x61110 <_ZN7android8hardware11hidl_stringC1ERKNSt3__112basic_stringIcNS2_11char_traitsIcEENS2_9allocatorIcEEEE@plt>
   1d750: 70 0e 01 94  	bl	0x61110 <_ZN7android8hardware11hidl_stringC1ERKNSt3__112basic_stringIcNS2_11char_traitsIcEENS2_9allocatorIcEEEE@plt>
   1d77c: 65 0e 01 94  	bl	0x61110 <_ZN7android8hardware11hidl_stringC1ERKNSt3__112basic_stringIcNS2_11char_traitsIcEENS2_9allocatorIcEEEE@plt>
   1d7a8: 5a 0e 01 94  	bl	0x61110 <_ZN7android8hardware11hidl_stringC1ERKNSt3__112basic_stringIcNS2_11char_traitsIcEENS2_9allocatorIcEEEE@plt>
   1d7d0: 54 0e 01 94  	bl	0x61120 <_ZNSt3__112basic_stringIcNS_11char_traitsIcEENS_9allocatorIcEEEC1ERKS5_@plt>
   1d7fc: 49 0e 01 94  	bl	0x61120 <_ZNSt3__112basic_stringIcNS_11char_traitsIcEENS_9allocatorIcEEEC1ERKS5_@plt>
   1d828: 3e 0e 01 94  	bl	0x61120 <_ZNSt3__112basic_stringIcNS_11char_traitsIcEENS_9allocatorIcEEEC1ERKS5_@plt>
   1d854: 33 0e 01 94  	bl	0x61120 <_ZNSt3__112basic_stringIcNS_11char_traitsIcEENS_9allocatorIcEEEC1ERKS5_@plt>
   1f6b0: 8c 06 01 94  	bl	0x610e0 <_ZN7android8hardware11hidl_stringC1EPKc@plt>
   1f6ec: 7d 06 01 94  	bl	0x610e0 <_ZN7android8hardware11hidl_stringC1EPKc@plt>
   1f718: 72 06 01 94  	bl	0x610e0 <_ZN7android8hardware11hidl_stringC1EPKc@plt>
   1f744: 67 06 01 94  	bl	0x610e0 <_ZN7android8hardware11hidl_stringC1EPKc@plt>
   1f770: 5c 06 01 94  	bl	0x610e0 <_ZN7android8hardware11hidl_stringC1EPKc@plt>
   1f79c: 51 06 01 94  	bl	0x610e0 <_ZN7android8hardware11hidl_stringC1EPKc@plt>
   1f7c8: 46 06 01 94  	bl	0x610e0 <_ZN7android8hardware11hidl_stringC1EPKc@plt>
   1f7f4: 3b 06 01 94  	bl	0x610e0 <_ZN7android8hardware11hidl_stringC1EPKc@plt>
   1f820: 30 06 01 94  	bl	0x610e0 <_ZN7android8hardware11hidl_stringC1EPKc@plt>
   1f84c: 25 06 01 94  	bl	0x610e0 <_ZN7android8hardware11hidl_stringC1EPKc@plt>
   1f878: 1a 06 01 94  	bl	0x610e0 <_ZN7android8hardware11hidl_stringC1EPKc@plt>
   1f8a4: 0f 06 01 94  	bl	0x610e0 <_ZN7android8hardware11hidl_stringC1EPKc@plt>
   1f8d0: 04 06 01 94  	bl	0x610e0 <_ZN7android8hardware11hidl_stringC1EPKc@plt>
   1f8fc: f9 05 01 94  	bl	0x610e0 <_ZN7android8hardware11hidl_stringC1EPKc@plt>
   1f928: ee 05 01 94  	bl	0x610e0 <_ZN7android8hardware11hidl_stringC1EPKc@plt>
   1f954: e3 05 01 94  	bl	0x610e0 <_ZN7android8hardware11hidl_stringC1EPKc@plt>
   1f980: d8 05 01 94  	bl	0x610e0 <_ZN7android8hardware11hidl_stringC1EPKc@plt>
   1f9ac: cd 05 01 94  	bl	0x610e0 <_ZN7android8hardware11hidl_stringC1EPKc@plt>
   1f9d8: c2 05 01 94  	bl	0x610e0 <_ZN7android8hardware11hidl_stringC1EPKc@plt>
   1fa04: b7 05 01 94  	bl	0x610e0 <_ZN7android8hardware11hidl_stringC1EPKc@plt>
   1fa30: ac 05 01 94  	bl	0x610e0 <_ZN7android8hardware11hidl_stringC1EPKc@plt>
   1ffbc: 55 04 01 94  	bl	0x61110 <_ZN7android8hardware11hidl_stringC1ERKNSt3__112basic_stringIcNS2_11char_traitsIcEENS2_9allocatorIcEEEE@plt>
   1ffe8: 4a 04 01 94  	bl	0x61110 <_ZN7android8hardware11hidl_stringC1ERKNSt3__112basic_stringIcNS2_11char_traitsIcEENS2_9allocatorIcEEEE@plt>
   20014: 3f 04 01 94  	bl	0x61110 <_ZN7android8hardware11hidl_stringC1ERKNSt3__112basic_stringIcNS2_11char_traitsIcEENS2_9allocatorIcEEEE@plt>
   20040: 34 04 01 94  	bl	0x61110 <_ZN7android8hardware11hidl_stringC1ERKNSt3__112basic_stringIcNS2_11char_traitsIcEENS2_9allocatorIcEEEE@plt>
   2006c: 29 04 01 94  	bl	0x61110 <_ZN7android8hardware11hidl_stringC1ERKNSt3__112basic_stringIcNS2_11char_traitsIcEENS2_9allocatorIcEEEE@plt>
   20098: 1e 04 01 94  	bl	0x61110 <_ZN7android8hardware11hidl_stringC1ERKNSt3__112basic_stringIcNS2_11char_traitsIcEENS2_9allocatorIcEEEE@plt>
   200c4: 13 04 01 94  	bl	0x61110 <_ZN7android8hardware11hidl_stringC1ERKNSt3__112basic_stringIcNS2_11char_traitsIcEENS2_9allocatorIcEEEE@plt>
   200f0: 08 04 01 94  	bl	0x61110 <_ZN7android8hardware11hidl_stringC1ERKNSt3__112basic_stringIcNS2_11char_traitsIcEENS2_9allocatorIcEEEE@plt>
   2011c: fd 03 01 94  	bl	0x61110 <_ZN7android8hardware11hidl_stringC1ERKNSt3__112basic_stringIcNS2_11char_traitsIcEENS2_9allocatorIcEEEE@plt>
   20148: f2 03 01 94  	bl	0x61110 <_ZN7android8hardware11hidl_stringC1ERKNSt3__112basic_stringIcNS2_11char_traitsIcEENS2_9allocatorIcEEEE@plt>
   20174: e7 03 01 94  	bl	0x61110 <_ZN7android8hardware11hidl_stringC1ERKNSt3__112basic_stringIcNS2_11char_traitsIcEENS2_9allocatorIcEEEE@plt>
   201a0: dc 03 01 94  	bl	0x61110 <_ZN7android8hardware11hidl_stringC1ERKNSt3__112basic_stringIcNS2_11char_traitsIcEENS2_9allocatorIcEEEE@plt>
   201cc: d1 03 01 94  	bl	0x61110 <_ZN7android8hardware11hidl_stringC1ERKNSt3__112basic_stringIcNS2_11char_traitsIcEENS2_9allocatorIcEEEE@plt>
   201f8: c6 03 01 94  	bl	0x61110 <_ZN7android8hardware11hidl_stringC1ERKNSt3__112basic_stringIcNS2_11char_traitsIcEENS2_9allocatorIcEEEE@plt>
   20224: bb 03 01 94  	bl	0x61110 <_ZN7android8hardware11hidl_stringC1ERKNSt3__112basic_stringIcNS2_11char_traitsIcEENS2_9allocatorIcEEEE@plt>
   20250: b0 03 01 94  	bl	0x61110 <_ZN7android8hardware11hidl_stringC1ERKNSt3__112basic_stringIcNS2_11char_traitsIcEENS2_9allocatorIcEEEE@plt>
   2027c: a5 03 01 94  	bl	0x61110 <_ZN7android8hardware11hidl_stringC1ERKNSt3__112basic_stringIcNS2_11char_traitsIcEENS2_9allocatorIcEEEE@plt>
   202a8: 9a 03 01 94  	bl	0x61110 <_ZN7android8hardware11hidl_stringC1ERKNSt3__112basic_stringIcNS2_11char_traitsIcEENS2_9allocatorIcEEEE@plt>
   202d4: 8f 03 01 94  	bl	0x61110 <_ZN7android8hardware11hidl_stringC1ERKNSt3__112basic_stringIcNS2_11char_traitsIcEENS2_9allocatorIcEEEE@plt>
   20300: 84 03 01 94  	bl	0x61110 <_ZN7android8hardware11hidl_stringC1ERKNSt3__112basic_stringIcNS2_11char_traitsIcEENS2_9allocatorIcEEEE@plt>
   2032c: 79 03 01 94  	bl	0x61110 <_ZN7android8hardware11hidl_stringC1ERKNSt3__112basic_stringIcNS2_11char_traitsIcEENS2_9allocatorIcEEEE@plt>
   20358: 6e 03 01 94  	bl	0x61110 <_ZN7android8hardware11hidl_stringC1ERKNSt3__112basic_stringIcNS2_11char_traitsIcEENS2_9allocatorIcEEEE@plt>
   20384: 63 03 01 94  	bl	0x61110 <_ZN7android8hardware11hidl_stringC1ERKNSt3__112basic_stringIcNS2_11char_traitsIcEENS2_9allocatorIcEEEE@plt>
   203b0: 58 03 01 94  	bl	0x61110 <_ZN7android8hardware11hidl_stringC1ERKNSt3__112basic_stringIcNS2_11char_traitsIcEENS2_9allocatorIcEEEE@plt>
   203dc: 4d 03 01 94  	bl	0x61110 <_ZN7android8hardware11hidl_stringC1ERKNSt3__112basic_stringIcNS2_11char_traitsIcEENS2_9allocatorIcEEEE@plt>
   20408: 42 03 01 94  	bl	0x61110 <_ZN7android8hardware11hidl_stringC1ERKNSt3__112basic_stringIcNS2_11char_traitsIcEENS2_9allocatorIcEEEE@plt>
   20430: 3c 03 01 94  	bl	0x61120 <_ZNSt3__112basic_stringIcNS_11char_traitsIcEENS_9allocatorIcEEEC1ERKS5_@plt>
   2045c: 31 03 01 94  	bl	0x61120 <_ZNSt3__112basic_stringIcNS_11char_traitsIcEENS_9allocatorIcEEEC1ERKS5_@plt>
   20488: 26 03 01 94  	bl	0x61120 <_ZNSt3__112basic_stringIcNS_11char_traitsIcEENS_9allocatorIcEEEC1ERKS5_@plt>
   204b4: 1b 03 01 94  	bl	0x61120 <_ZNSt3__112basic_stringIcNS_11char_traitsIcEENS_9allocatorIcEEEC1ERKS5_@plt>
   22310: 74 fb 00 94  	bl	0x610e0 <_ZN7android8hardware11hidl_stringC1EPKc@plt>
   2234c: 65 fb 00 94  	bl	0x610e0 <_ZN7android8hardware11hidl_stringC1EPKc@plt>
   22378: 5a fb 00 94  	bl	0x610e0 <_ZN7android8hardware11hidl_stringC1EPKc@plt>
   223a4: 4f fb 00 94  	bl	0x610e0 <_ZN7android8hardware11hidl_stringC1EPKc@plt>
   223d0: 44 fb 00 94  	bl	0x610e0 <_ZN7android8hardware11hidl_stringC1EPKc@plt>
   223fc: 39 fb 00 94  	bl	0x610e0 <_ZN7android8hardware11hidl_stringC1EPKc@plt>
   22428: 2e fb 00 94  	bl	0x610e0 <_ZN7android8hardware11hidl_stringC1EPKc@plt>
   22454: 23 fb 00 94  	bl	0x610e0 <_ZN7android8hardware11hidl_stringC1EPKc@plt>
   22480: 18 fb 00 94  	bl	0x610e0 <_ZN7android8hardware11hidl_stringC1EPKc@plt>
   224ac: 0d fb 00 94  	bl	0x610e0 <_ZN7android8hardware11hidl_stringC1EPKc@plt>
   224d8: 02 fb 00 94  	bl	0x610e0 <_ZN7android8hardware11hidl_stringC1EPKc@plt>
   22504: f7 fa 00 94  	bl	0x610e0 <_ZN7android8hardware11hidl_stringC1EPKc@plt>
   22530: ec fa 00 94  	bl	0x610e0 <_ZN7android8hardware11hidl_stringC1EPKc@plt>
   2255c: e1 fa 00 94  	bl	0x610e0 <_ZN7android8hardware11hidl_stringC1EPKc@plt>
   22588: d6 fa 00 94  	bl	0x610e0 <_ZN7android8hardware11hidl_stringC1EPKc@plt>
   225b4: cb fa 00 94  	bl	0x610e0 <_ZN7android8hardware11hidl_stringC1EPKc@plt>
   225e0: c0 fa 00 94  	bl	0x610e0 <_ZN7android8hardware11hidl_stringC1EPKc@plt>
   2260c: b5 fa 00 94  	bl	0x610e0 <_ZN7android8hardware11hidl_stringC1EPKc@plt>
   22638: aa fa 00 94  	bl	0x610e0 <_ZN7android8hardware11hidl_stringC1EPKc@plt>
   22664: 9f fa 00 94  	bl	0x610e0 <_ZN7android8hardware11hidl_stringC1EPKc@plt>
   22690: 94 fa 00 94  	bl	0x610e0 <_ZN7android8hardware11hidl_stringC1EPKc@plt>
   22c1c: 3d f9 00 94  	bl	0x61110 <_ZN7android8hardware11hidl_stringC1ERKNSt3__112basic_stringIcNS2_11char_traitsIcEENS2_9allocatorIcEEEE@plt>
   22c48: 32 f9 00 94  	bl	0x61110 <_ZN7android8hardware11hidl_stringC1ERKNSt3__112basic_stringIcNS2_11char_traitsIcEENS2_9allocatorIcEEEE@plt>
   22c74: 27 f9 00 94  	bl	0x61110 <_ZN7android8hardware11hidl_stringC1ERKNSt3__112basic_stringIcNS2_11char_traitsIcEENS2_9allocatorIcEEEE@plt>
   22ca0: 1c f9 00 94  	bl	0x61110 <_ZN7android8hardware11hidl_stringC1ERKNSt3__112basic_stringIcNS2_11char_traitsIcEENS2_9allocatorIcEEEE@plt>
   22ccc: 11 f9 00 94  	bl	0x61110 <_ZN7android8hardware11hidl_stringC1ERKNSt3__112basic_stringIcNS2_11char_traitsIcEENS2_9allocatorIcEEEE@plt>
   22cf8: 06 f9 00 94  	bl	0x61110 <_ZN7android8hardware11hidl_stringC1ERKNSt3__112basic_stringIcNS2_11char_traitsIcEENS2_9allocatorIcEEEE@plt>
   22d24: fb f8 00 94  	bl	0x61110 <_ZN7android8hardware11hidl_stringC1ERKNSt3__112basic_stringIcNS2_11char_traitsIcEENS2_9allocatorIcEEEE@plt>
   22d50: f0 f8 00 94  	bl	0x61110 <_ZN7android8hardware11hidl_stringC1ERKNSt3__112basic_stringIcNS2_11char_traitsIcEENS2_9allocatorIcEEEE@plt>
   22d7c: e5 f8 00 94  	bl	0x61110 <_ZN7android8hardware11hidl_stringC1ERKNSt3__112basic_stringIcNS2_11char_traitsIcEENS2_9allocatorIcEEEE@plt>
   22da8: da f8 00 94  	bl	0x61110 <_ZN7android8hardware11hidl_stringC1ERKNSt3__112basic_stringIcNS2_11char_traitsIcEENS2_9allocatorIcEEEE@plt>
   22dd4: cf f8 00 94  	bl	0x61110 <_ZN7android8hardware11hidl_stringC1ERKNSt3__112basic_stringIcNS2_11char_traitsIcEENS2_9allocatorIcEEEE@plt>
   22e00: c4 f8 00 94  	bl	0x61110 <_ZN7android8hardware11hidl_stringC1ERKNSt3__112basic_stringIcNS2_11char_traitsIcEENS2_9allocatorIcEEEE@plt>
   22e2c: b9 f8 00 94  	bl	0x61110 <_ZN7android8hardware11hidl_stringC1ERKNSt3__112basic_stringIcNS2_11char_traitsIcEENS2_9allocatorIcEEEE@plt>
   22e58: ae f8 00 94  	bl	0x61110 <_ZN7android8hardware11hidl_stringC1ERKNSt3__112basic_stringIcNS2_11char_traitsIcEENS2_9allocatorIcEEEE@plt>
   22e84: a3 f8 00 94  	bl	0x61110 <_ZN7android8hardware11hidl_stringC1ERKNSt3__112basic_stringIcNS2_11char_traitsIcEENS2_9allocatorIcEEEE@plt>
   22eb0: 98 f8 00 94  	bl	0x61110 <_ZN7android8hardware11hidl_stringC1ERKNSt3__112basic_stringIcNS2_11char_traitsIcEENS2_9allocatorIcEEEE@plt>
   22edc: 8d f8 00 94  	bl	0x61110 <_ZN7android8hardware11hidl_stringC1ERKNSt3__112basic_stringIcNS2_11char_traitsIcEENS2_9allocatorIcEEEE@plt>
   22f08: 82 f8 00 94  	bl	0x61110 <_ZN7android8hardware11hidl_stringC1ERKNSt3__112basic_stringIcNS2_11char_traitsIcEENS2_9allocatorIcEEEE@plt>
   22f34: 77 f8 00 94  	bl	0x61110 <_ZN7android8hardware11hidl_stringC1ERKNSt3__112basic_stringIcNS2_11char_traitsIcEENS2_9allocatorIcEEEE@plt>
   22f60: 6c f8 00 94  	bl	0x61110 <_ZN7android8hardware11hidl_stringC1ERKNSt3__112basic_stringIcNS2_11char_traitsIcEENS2_9allocatorIcEEEE@plt>
   22f8c: 61 f8 00 94  	bl	0x61110 <_ZN7android8hardware11hidl_stringC1ERKNSt3__112basic_stringIcNS2_11char_traitsIcEENS2_9allocatorIcEEEE@plt>
   22fb8: 56 f8 00 94  	bl	0x61110 <_ZN7android8hardware11hidl_stringC1ERKNSt3__112basic_stringIcNS2_11char_traitsIcEENS2_9allocatorIcEEEE@plt>
   22fe4: 4b f8 00 94  	bl	0x61110 <_ZN7android8hardware11hidl_stringC1ERKNSt3__112basic_stringIcNS2_11char_traitsIcEENS2_9allocatorIcEEEE@plt>
   23010: 40 f8 00 94  	bl	0x61110 <_ZN7android8hardware11hidl_stringC1ERKNSt3__112basic_stringIcNS2_11char_traitsIcEENS2_9allocatorIcEEEE@plt>
   2303c: 35 f8 00 94  	bl	0x61110 <_ZN7android8hardware11hidl_stringC1ERKNSt3__112basic_stringIcNS2_11char_traitsIcEENS2_9allocatorIcEEEE@plt>
   23068: 2a f8 00 94  	bl	0x61110 <_ZN7android8hardware11hidl_stringC1ERKNSt3__112basic_stringIcNS2_11char_traitsIcEENS2_9allocatorIcEEEE@plt>
   23090: 24 f8 00 94  	bl	0x61120 <_ZNSt3__112basic_stringIcNS_11char_traitsIcEENS_9allocatorIcEEEC1ERKS5_@plt>
   230bc: 19 f8 00 94  	bl	0x61120 <_ZNSt3__112basic_stringIcNS_11char_traitsIcEENS_9allocatorIcEEEC1ERKS5_@plt>
   230e8: 0e f8 00 94  	bl	0x61120 <_ZNSt3__112basic_stringIcNS_11char_traitsIcEENS_9allocatorIcEEEC1ERKS5_@plt>
   23114: 03 f8 00 94  	bl	0x61120 <_ZNSt3__112basic_stringIcNS_11char_traitsIcEENS_9allocatorIcEEEC1ERKS5_@plt>
   24f70: 5c f0 00 94  	bl	0x610e0 <_ZN7android8hardware11hidl_stringC1EPKc@plt>
   24fac: 4d f0 00 94  	bl	0x610e0 <_ZN7android8hardware11hidl_stringC1EPKc@plt>
   24fd8: 42 f0 00 94  	bl	0x610e0 <_ZN7android8hardware11hidl_stringC1EPKc@plt>
   25004: 37 f0 00 94  	bl	0x610e0 <_ZN7android8hardware11hidl_stringC1EPKc@plt>
   25030: 2c f0 00 94  	bl	0x610e0 <_ZN7android8hardware11hidl_stringC1EPKc@plt>
   2505c: 21 f0 00 94  	bl	0x610e0 <_ZN7android8hardware11hidl_stringC1EPKc@plt>
   25088: 16 f0 00 94  	bl	0x610e0 <_ZN7android8hardware11hidl_stringC1EPKc@plt>
   250b4: 0b f0 00 94  	bl	0x610e0 <_ZN7android8hardware11hidl_stringC1EPKc@plt>
   250e0: 00 f0 00 94  	bl	0x610e0 <_ZN7android8hardware11hidl_stringC1EPKc@plt>
   2510c: f5 ef 00 94  	bl	0x610e0 <_ZN7android8hardware11hidl_stringC1EPKc@plt>
   25138: ea ef 00 94  	bl	0x610e0 <_ZN7android8hardware11hidl_stringC1EPKc@plt>
   25164: df ef 00 94  	bl	0x610e0 <_ZN7android8hardware11hidl_stringC1EPKc@plt>
   25190: d4 ef 00 94  	bl	0x610e0 <_ZN7android8hardware11hidl_stringC1EPKc@plt>
   251bc: c9 ef 00 94  	bl	0x610e0 <_ZN7android8hardware11hidl_stringC1EPKc@plt>
   251e8: be ef 00 94  	bl	0x610e0 <_ZN7android8hardware11hidl_stringC1EPKc@plt>
   25214: b3 ef 00 94  	bl	0x610e0 <_ZN7android8hardware11hidl_stringC1EPKc@plt>
   25240: a8 ef 00 94  	bl	0x610e0 <_ZN7android8hardware11hidl_stringC1EPKc@plt>
   2526c: 9d ef 00 94  	bl	0x610e0 <_ZN7android8hardware11hidl_stringC1EPKc@plt>
   25298: 92 ef 00 94  	bl	0x610e0 <_ZN7android8hardware11hidl_stringC1EPKc@plt>
   252c4: 87 ef 00 94  	bl	0x610e0 <_ZN7android8hardware11hidl_stringC1EPKc@plt>
   252f0: 7c ef 00 94  	bl	0x610e0 <_ZN7android8hardware11hidl_stringC1EPKc@plt>
   2587c: 25 ee 00 94  	bl	0x61110 <_ZN7android8hardware11hidl_stringC1ERKNSt3__112basic_stringIcNS2_11char_traitsIcEENS2_9allocatorIcEEEE@plt>
   258a8: 1a ee 00 94  	bl	0x61110 <_ZN7android8hardware11hidl_stringC1ERKNSt3__112basic_stringIcNS2_11char_traitsIcEENS2_9allocatorIcEEEE@plt>
   258d4: 0f ee 00 94  	bl	0x61110 <_ZN7android8hardware11hidl_stringC1ERKNSt3__112basic_stringIcNS2_11char_traitsIcEENS2_9allocatorIcEEEE@plt>
   25900: 04 ee 00 94  	bl	0x61110 <_ZN7android8hardware11hidl_stringC1ERKNSt3__112basic_stringIcNS2_11char_traitsIcEENS2_9allocatorIcEEEE@plt>
   2592c: f9 ed 00 94  	bl	0x61110 <_ZN7android8hardware11hidl_stringC1ERKNSt3__112basic_stringIcNS2_11char_traitsIcEENS2_9allocatorIcEEEE@plt>
   25958: ee ed 00 94  	bl	0x61110 <_ZN7android8hardware11hidl_stringC1ERKNSt3__112basic_stringIcNS2_11char_traitsIcEENS2_9allocatorIcEEEE@plt>
   25984: e3 ed 00 94  	bl	0x61110 <_ZN7android8hardware11hidl_stringC1ERKNSt3__112basic_stringIcNS2_11char_traitsIcEENS2_9allocatorIcEEEE@plt>
   259b0: d8 ed 00 94  	bl	0x61110 <_ZN7android8hardware11hidl_stringC1ERKNSt3__112basic_stringIcNS2_11char_traitsIcEENS2_9allocatorIcEEEE@plt>
   259dc: cd ed 00 94  	bl	0x61110 <_ZN7android8hardware11hidl_stringC1ERKNSt3__112basic_stringIcNS2_11char_traitsIcEENS2_9allocatorIcEEEE@plt>
   25a08: c2 ed 00 94  	bl	0x61110 <_ZN7android8hardware11hidl_stringC1ERKNSt3__112basic_stringIcNS2_11char_traitsIcEENS2_9allocatorIcEEEE@plt>
   25a34: b7 ed 00 94  	bl	0x61110 <_ZN7android8hardware11hidl_stringC1ERKNSt3__112basic_stringIcNS2_11char_traitsIcEENS2_9allocatorIcEEEE@plt>
   25a60: ac ed 00 94  	bl	0x61110 <_ZN7android8hardware11hidl_stringC1ERKNSt3__112basic_stringIcNS2_11char_traitsIcEENS2_9allocatorIcEEEE@plt>
   25a8c: a1 ed 00 94  	bl	0x61110 <_ZN7android8hardware11hidl_stringC1ERKNSt3__112basic_stringIcNS2_11char_traitsIcEENS2_9allocatorIcEEEE@plt>
   25ab8: 96 ed 00 94  	bl	0x61110 <_ZN7android8hardware11hidl_stringC1ERKNSt3__112basic_stringIcNS2_11char_traitsIcEENS2_9allocatorIcEEEE@plt>
   25ae4: 8b ed 00 94  	bl	0x61110 <_ZN7android8hardware11hidl_stringC1ERKNSt3__112basic_stringIcNS2_11char_traitsIcEENS2_9allocatorIcEEEE@plt>
   25b10: 80 ed 00 94  	bl	0x61110 <_ZN7android8hardware11hidl_stringC1ERKNSt3__112basic_stringIcNS2_11char_traitsIcEENS2_9allocatorIcEEEE@plt>
   25b3c: 75 ed 00 94  	bl	0x61110 <_ZN7android8hardware11hidl_stringC1ERKNSt3__112basic_stringIcNS2_11char_traitsIcEENS2_9allocatorIcEEEE@plt>
   25b68: 6a ed 00 94  	bl	0x61110 <_ZN7android8hardware11hidl_stringC1ERKNSt3__112basic_stringIcNS2_11char_traitsIcEENS2_9allocatorIcEEEE@plt>
   25b94: 5f ed 00 94  	bl	0x61110 <_ZN7android8hardware11hidl_stringC1ERKNSt3__112basic_stringIcNS2_11char_traitsIcEENS2_9allocatorIcEEEE@plt>
   25bc0: 54 ed 00 94  	bl	0x61110 <_ZN7android8hardware11hidl_stringC1ERKNSt3__112basic_stringIcNS2_11char_traitsIcEENS2_9allocatorIcEEEE@plt>
   25bec: 49 ed 00 94  	bl	0x61110 <_ZN7android8hardware11hidl_stringC1ERKNSt3__112basic_stringIcNS2_11char_traitsIcEENS2_9allocatorIcEEEE@plt>
   25c18: 3e ed 00 94  	bl	0x61110 <_ZN7android8hardware11hidl_stringC1ERKNSt3__112basic_stringIcNS2_11char_traitsIcEENS2_9allocatorIcEEEE@plt>
   25c44: 33 ed 00 94  	bl	0x61110 <_ZN7android8hardware11hidl_stringC1ERKNSt3__112basic_stringIcNS2_11char_traitsIcEENS2_9allocatorIcEEEE@plt>
   25c70: 28 ed 00 94  	bl	0x61110 <_ZN7android8hardware11hidl_stringC1ERKNSt3__112basic_stringIcNS2_11char_traitsIcEENS2_9allocatorIcEEEE@plt>
   25c9c: 1d ed 00 94  	bl	0x61110 <_ZN7android8hardware11hidl_stringC1ERKNSt3__112basic_stringIcNS2_11char_traitsIcEENS2_9allocatorIcEEEE@plt>
   25cc8: 12 ed 00 94  	bl	0x61110 <_ZN7android8hardware11hidl_stringC1ERKNSt3__112basic_stringIcNS2_11char_traitsIcEENS2_9allocatorIcEEEE@plt>
   25cf0: 0c ed 00 94  	bl	0x61120 <_ZNSt3__112basic_stringIcNS_11char_traitsIcEENS_9allocatorIcEEEC1ERKS5_@plt>
   25d1c: 01 ed 00 94  	bl	0x61120 <_ZNSt3__112basic_stringIcNS_11char_traitsIcEENS_9allocatorIcEEEC1ERKS5_@plt>
   25d48: f6 ec 00 94  	bl	0x61120 <_ZNSt3__112basic_stringIcNS_11char_traitsIcEENS_9allocatorIcEEEC1ERKS5_@plt>
   25d74: eb ec 00 94  	bl	0x61120 <_ZNSt3__112basic_stringIcNS_11char_traitsIcEENS_9allocatorIcEEEC1ERKS5_@plt>
   27bd0: 44 e5 00 94  	bl	0x610e0 <_ZN7android8hardware11hidl_stringC1EPKc@plt>
   27c0c: 35 e5 00 94  	bl	0x610e0 <_ZN7android8hardware11hidl_stringC1EPKc@plt>
   27c38: 2a e5 00 94  	bl	0x610e0 <_ZN7android8hardware11hidl_stringC1EPKc@plt>
   27c64: 1f e5 00 94  	bl	0x610e0 <_ZN7android8hardware11hidl_stringC1EPKc@plt>
   27c90: 14 e5 00 94  	bl	0x610e0 <_ZN7android8hardware11hidl_stringC1EPKc@plt>
   27cbc: 09 e5 00 94  	bl	0x610e0 <_ZN7android8hardware11hidl_stringC1EPKc@plt>
   27ce8: fe e4 00 94  	bl	0x610e0 <_ZN7android8hardware11hidl_stringC1EPKc@plt>
   27d14: f3 e4 00 94  	bl	0x610e0 <_ZN7android8hardware11hidl_stringC1EPKc@plt>
   27d40: e8 e4 00 94  	bl	0x610e0 <_ZN7android8hardware11hidl_stringC1EPKc@plt>
   27d6c: dd e4 00 94  	bl	0x610e0 <_ZN7android8hardware11hidl_stringC1EPKc@plt>
   27d98: d2 e4 00 94  	bl	0x610e0 <_ZN7android8hardware11hidl_stringC1EPKc@plt>
   27dc4: c7 e4 00 94  	bl	0x610e0 <_ZN7android8hardware11hidl_stringC1EPKc@plt>
   27df0: bc e4 00 94  	bl	0x610e0 <_ZN7android8hardware11hidl_stringC1EPKc@plt>
   27e1c: b1 e4 00 94  	bl	0x610e0 <_ZN7android8hardware11hidl_stringC1EPKc@plt>
   27e48: a6 e4 00 94  	bl	0x610e0 <_ZN7android8hardware11hidl_stringC1EPKc@plt>
   27e74: 9b e4 00 94  	bl	0x610e0 <_ZN7android8hardware11hidl_stringC1EPKc@plt>
   27ea0: 90 e4 00 94  	bl	0x610e0 <_ZN7android8hardware11hidl_stringC1EPKc@plt>
   27ecc: 85 e4 00 94  	bl	0x610e0 <_ZN7android8hardware11hidl_stringC1EPKc@plt>
   27ef8: 7a e4 00 94  	bl	0x610e0 <_ZN7android8hardware11hidl_stringC1EPKc@plt>
   27f24: 6f e4 00 94  	bl	0x610e0 <_ZN7android8hardware11hidl_stringC1EPKc@plt>
   27f50: 64 e4 00 94  	bl	0x610e0 <_ZN7android8hardware11hidl_stringC1EPKc@plt>
   284dc: 0d e3 00 94  	bl	0x61110 <_ZN7android8hardware11hidl_stringC1ERKNSt3__112basic_stringIcNS2_11char_traitsIcEENS2_9allocatorIcEEEE@plt>
   28508: 02 e3 00 94  	bl	0x61110 <_ZN7android8hardware11hidl_stringC1ERKNSt3__112basic_stringIcNS2_11char_traitsIcEENS2_9allocatorIcEEEE@plt>
   28534: f7 e2 00 94  	bl	0x61110 <_ZN7android8hardware11hidl_stringC1ERKNSt3__112basic_stringIcNS2_11char_traitsIcEENS2_9allocatorIcEEEE@plt>
   28560: ec e2 00 94  	bl	0x61110 <_ZN7android8hardware11hidl_stringC1ERKNSt3__112basic_stringIcNS2_11char_traitsIcEENS2_9allocatorIcEEEE@plt>
   2858c: e1 e2 00 94  	bl	0x61110 <_ZN7android8hardware11hidl_stringC1ERKNSt3__112basic_stringIcNS2_11char_traitsIcEENS2_9allocatorIcEEEE@plt>
   285b8: d6 e2 00 94  	bl	0x61110 <_ZN7android8hardware11hidl_stringC1ERKNSt3__112basic_stringIcNS2_11char_traitsIcEENS2_9allocatorIcEEEE@plt>
   285e4: cb e2 00 94  	bl	0x61110 <_ZN7android8hardware11hidl_stringC1ERKNSt3__112basic_stringIcNS2_11char_traitsIcEENS2_9allocatorIcEEEE@plt>
   28610: c0 e2 00 94  	bl	0x61110 <_ZN7android8hardware11hidl_stringC1ERKNSt3__112basic_stringIcNS2_11char_traitsIcEENS2_9allocatorIcEEEE@plt>
   2863c: b5 e2 00 94  	bl	0x61110 <_ZN7android8hardware11hidl_stringC1ERKNSt3__112basic_stringIcNS2_11char_traitsIcEENS2_9allocatorIcEEEE@plt>
   28668: aa e2 00 94  	bl	0x61110 <_ZN7android8hardware11hidl_stringC1ERKNSt3__112basic_stringIcNS2_11char_traitsIcEENS2_9allocatorIcEEEE@plt>
   28694: 9f e2 00 94  	bl	0x61110 <_ZN7android8hardware11hidl_stringC1ERKNSt3__112basic_stringIcNS2_11char_traitsIcEENS2_9allocatorIcEEEE@plt>
   286c0: 94 e2 00 94  	bl	0x61110 <_ZN7android8hardware11hidl_stringC1ERKNSt3__112basic_stringIcNS2_11char_traitsIcEENS2_9allocatorIcEEEE@plt>
   286ec: 89 e2 00 94  	bl	0x61110 <_ZN7android8hardware11hidl_stringC1ERKNSt3__112basic_stringIcNS2_11char_traitsIcEENS2_9allocatorIcEEEE@plt>
   28718: 7e e2 00 94  	bl	0x61110 <_ZN7android8hardware11hidl_stringC1ERKNSt3__112basic_stringIcNS2_11char_traitsIcEENS2_9allocatorIcEEEE@plt>
   28744: 73 e2 00 94  	bl	0x61110 <_ZN7android8hardware11hidl_stringC1ERKNSt3__112basic_stringIcNS2_11char_traitsIcEENS2_9allocatorIcEEEE@plt>
   28770: 68 e2 00 94  	bl	0x61110 <_ZN7android8hardware11hidl_stringC1ERKNSt3__112basic_stringIcNS2_11char_traitsIcEENS2_9allocatorIcEEEE@plt>
   2879c: 5d e2 00 94  	bl	0x61110 <_ZN7android8hardware11hidl_stringC1ERKNSt3__112basic_stringIcNS2_11char_traitsIcEENS2_9allocatorIcEEEE@plt>
   287c8: 52 e2 00 94  	bl	0x61110 <_ZN7android8hardware11hidl_stringC1ERKNSt3__112basic_stringIcNS2_11char_traitsIcEENS2_9allocatorIcEEEE@plt>
   287f4: 47 e2 00 94  	bl	0x61110 <_ZN7android8hardware11hidl_stringC1ERKNSt3__112basic_stringIcNS2_11char_traitsIcEENS2_9allocatorIcEEEE@plt>
   28820: 3c e2 00 94  	bl	0x61110 <_ZN7android8hardware11hidl_stringC1ERKNSt3__112basic_stringIcNS2_11char_traitsIcEENS2_9allocatorIcEEEE@plt>
   2884c: 31 e2 00 94  	bl	0x61110 <_ZN7android8hardware11hidl_stringC1ERKNSt3__112basic_stringIcNS2_11char_traitsIcEENS2_9allocatorIcEEEE@plt>
   28878: 26 e2 00 94  	bl	0x61110 <_ZN7android8hardware11hidl_stringC1ERKNSt3__112basic_stringIcNS2_11char_traitsIcEENS2_9allocatorIcEEEE@plt>
   288a4: 1b e2 00 94  	bl	0x61110 <_ZN7android8hardware11hidl_stringC1ERKNSt3__112basic_stringIcNS2_11char_traitsIcEENS2_9allocatorIcEEEE@plt>
   288d0: 10 e2 00 94  	bl	0x61110 <_ZN7android8hardware11hidl_stringC1ERKNSt3__112basic_stringIcNS2_11char_traitsIcEENS2_9allocatorIcEEEE@plt>
   288fc: 05 e2 00 94  	bl	0x61110 <_ZN7android8hardware11hidl_stringC1ERKNSt3__112basic_stringIcNS2_11char_traitsIcEENS2_9allocatorIcEEEE@plt>
   28928: fa e1 00 94  	bl	0x61110 <_ZN7android8hardware11hidl_stringC1ERKNSt3__112basic_stringIcNS2_11char_traitsIcEENS2_9allocatorIcEEEE@plt>
   28950: f4 e1 00 94  	bl	0x61120 <_ZNSt3__112basic_stringIcNS_11char_traitsIcEENS_9allocatorIcEEEC1ERKS5_@plt>
   2897c: e9 e1 00 94  	bl	0x61120 <_ZNSt3__112basic_stringIcNS_11char_traitsIcEENS_9allocatorIcEEEC1ERKS5_@plt>
   289a8: de e1 00 94  	bl	0x61120 <_ZNSt3__112basic_stringIcNS_11char_traitsIcEENS_9allocatorIcEEEC1ERKS5_@plt>
   289d4: d3 e1 00 94  	bl	0x61120 <_ZNSt3__112basic_stringIcNS_11char_traitsIcEENS_9allocatorIcEEEC1ERKS5_@plt>
   2a830: 2c da 00 94  	bl	0x610e0 <_ZN7android8hardware11hidl_stringC1EPKc@plt>
   2a86c: 1d da 00 94  	bl	0x610e0 <_ZN7android8hardware11hidl_stringC1EPKc@plt>
   2a898: 12 da 00 94  	bl	0x610e0 <_ZN7android8hardware11hidl_stringC1EPKc@plt>
   2a8c4: 07 da 00 94  	bl	0x610e0 <_ZN7android8hardware11hidl_stringC1EPKc@plt>
   2a8f0: fc d9 00 94  	bl	0x610e0 <_ZN7android8hardware11hidl_stringC1EPKc@plt>
   2a91c: f1 d9 00 94  	bl	0x610e0 <_ZN7android8hardware11hidl_stringC1EPKc@plt>
   2a948: e6 d9 00 94  	bl	0x610e0 <_ZN7android8hardware11hidl_stringC1EPKc@plt>
   2a974: db d9 00 94  	bl	0x610e0 <_ZN7android8hardware11hidl_stringC1EPKc@plt>
   2a9a0: d0 d9 00 94  	bl	0x610e0 <_ZN7android8hardware11hidl_stringC1EPKc@plt>
   2a9cc: c5 d9 00 94  	bl	0x610e0 <_ZN7android8hardware11hidl_stringC1EPKc@plt>
   2a9f8: ba d9 00 94  	bl	0x610e0 <_ZN7android8hardware11hidl_stringC1EPKc@plt>
   2aa24: af d9 00 94  	bl	0x610e0 <_ZN7android8hardware11hidl_stringC1EPKc@plt>
   2aa50: a4 d9 00 94  	bl	0x610e0 <_ZN7android8hardware11hidl_stringC1EPKc@plt>
   2aa7c: 99 d9 00 94  	bl	0x610e0 <_ZN7android8hardware11hidl_stringC1EPKc@plt>
   2aaa8: 8e d9 00 94  	bl	0x610e0 <_ZN7android8hardware11hidl_stringC1EPKc@plt>
   2aad4: 83 d9 00 94  	bl	0x610e0 <_ZN7android8hardware11hidl_stringC1EPKc@plt>
   2ab00: 78 d9 00 94  	bl	0x610e0 <_ZN7android8hardware11hidl_stringC1EPKc@plt>
   2ab2c: 6d d9 00 94  	bl	0x610e0 <_ZN7android8hardware11hidl_stringC1EPKc@plt>
   2ab58: 62 d9 00 94  	bl	0x610e0 <_ZN7android8hardware11hidl_stringC1EPKc@plt>
   2ab84: 57 d9 00 94  	bl	0x610e0 <_ZN7android8hardware11hidl_stringC1EPKc@plt>
   2abb0: 4c d9 00 94  	bl	0x610e0 <_ZN7android8hardware11hidl_stringC1EPKc@plt>
   2b13c: f5 d7 00 94  	bl	0x61110 <_ZN7android8hardware11hidl_stringC1ERKNSt3__112basic_stringIcNS2_11char_traitsIcEENS2_9allocatorIcEEEE@plt>
   2b168: ea d7 00 94  	bl	0x61110 <_ZN7android8hardware11hidl_stringC1ERKNSt3__112basic_stringIcNS2_11char_traitsIcEENS2_9allocatorIcEEEE@plt>
   2b194: df d7 00 94  	bl	0x61110 <_ZN7android8hardware11hidl_stringC1ERKNSt3__112basic_stringIcNS2_11char_traitsIcEENS2_9allocatorIcEEEE@plt>
   2b1c0: d4 d7 00 94  	bl	0x61110 <_ZN7android8hardware11hidl_stringC1ERKNSt3__112basic_stringIcNS2_11char_traitsIcEENS2_9allocatorIcEEEE@plt>
   2b1ec: c9 d7 00 94  	bl	0x61110 <_ZN7android8hardware11hidl_stringC1ERKNSt3__112basic_stringIcNS2_11char_traitsIcEENS2_9allocatorIcEEEE@plt>
   2b218: be d7 00 94  	bl	0x61110 <_ZN7android8hardware11hidl_stringC1ERKNSt3__112basic_stringIcNS2_11char_traitsIcEENS2_9allocatorIcEEEE@plt>
   2b244: b3 d7 00 94  	bl	0x61110 <_ZN7android8hardware11hidl_stringC1ERKNSt3__112basic_stringIcNS2_11char_traitsIcEENS2_9allocatorIcEEEE@plt>
   2b270: a8 d7 00 94  	bl	0x61110 <_ZN7android8hardware11hidl_stringC1ERKNSt3__112basic_stringIcNS2_11char_traitsIcEENS2_9allocatorIcEEEE@plt>
   2b29c: 9d d7 00 94  	bl	0x61110 <_ZN7android8hardware11hidl_stringC1ERKNSt3__112basic_stringIcNS2_11char_traitsIcEENS2_9allocatorIcEEEE@plt>
   2b2c8: 92 d7 00 94  	bl	0x61110 <_ZN7android8hardware11hidl_stringC1ERKNSt3__112basic_stringIcNS2_11char_traitsIcEENS2_9allocatorIcEEEE@plt>
   2b2f4: 87 d7 00 94  	bl	0x61110 <_ZN7android8hardware11hidl_stringC1ERKNSt3__112basic_stringIcNS2_11char_traitsIcEENS2_9allocatorIcEEEE@plt>
   2b320: 7c d7 00 94  	bl	0x61110 <_ZN7android8hardware11hidl_stringC1ERKNSt3__112basic_stringIcNS2_11char_traitsIcEENS2_9allocatorIcEEEE@plt>
   2b34c: 71 d7 00 94  	bl	0x61110 <_ZN7android8hardware11hidl_stringC1ERKNSt3__112basic_stringIcNS2_11char_traitsIcEENS2_9allocatorIcEEEE@plt>
   2b378: 66 d7 00 94  	bl	0x61110 <_ZN7android8hardware11hidl_stringC1ERKNSt3__112basic_stringIcNS2_11char_traitsIcEENS2_9allocatorIcEEEE@plt>
   2b3a4: 5b d7 00 94  	bl	0x61110 <_ZN7android8hardware11hidl_stringC1ERKNSt3__112basic_stringIcNS2_11char_traitsIcEENS2_9allocatorIcEEEE@plt>
   2b3d0: 50 d7 00 94  	bl	0x61110 <_ZN7android8hardware11hidl_stringC1ERKNSt3__112basic_stringIcNS2_11char_traitsIcEENS2_9allocatorIcEEEE@plt>
   2b3fc: 45 d7 00 94  	bl	0x61110 <_ZN7android8hardware11hidl_stringC1ERKNSt3__112basic_stringIcNS2_11char_traitsIcEENS2_9allocatorIcEEEE@plt>
   2b428: 3a d7 00 94  	bl	0x61110 <_ZN7android8hardware11hidl_stringC1ERKNSt3__112basic_stringIcNS2_11char_traitsIcEENS2_9allocatorIcEEEE@plt>
   2b454: 2f d7 00 94  	bl	0x61110 <_ZN7android8hardware11hidl_stringC1ERKNSt3__112basic_stringIcNS2_11char_traitsIcEENS2_9allocatorIcEEEE@plt>
   2b480: 24 d7 00 94  	bl	0x61110 <_ZN7android8hardware11hidl_stringC1ERKNSt3__112basic_stringIcNS2_11char_traitsIcEENS2_9allocatorIcEEEE@plt>
   2b4ac: 19 d7 00 94  	bl	0x61110 <_ZN7android8hardware11hidl_stringC1ERKNSt3__112basic_stringIcNS2_11char_traitsIcEENS2_9allocatorIcEEEE@plt>
   2b4d8: 0e d7 00 94  	bl	0x61110 <_ZN7android8hardware11hidl_stringC1ERKNSt3__112basic_stringIcNS2_11char_traitsIcEENS2_9allocatorIcEEEE@plt>
   2b504: 03 d7 00 94  	bl	0x61110 <_ZN7android8hardware11hidl_stringC1ERKNSt3__112basic_stringIcNS2_11char_traitsIcEENS2_9allocatorIcEEEE@plt>
   2b530: f8 d6 00 94  	bl	0x61110 <_ZN7android8hardware11hidl_stringC1ERKNSt3__112basic_stringIcNS2_11char_traitsIcEENS2_9allocatorIcEEEE@plt>
   2b55c: ed d6 00 94  	bl	0x61110 <_ZN7android8hardware11hidl_stringC1ERKNSt3__112basic_stringIcNS2_11char_traitsIcEENS2_9allocatorIcEEEE@plt>
   2b588: e2 d6 00 94  	bl	0x61110 <_ZN7android8hardware11hidl_stringC1ERKNSt3__112basic_stringIcNS2_11char_traitsIcEENS2_9allocatorIcEEEE@plt>
   2b5b0: dc d6 00 94  	bl	0x61120 <_ZNSt3__112basic_stringIcNS_11char_traitsIcEENS_9allocatorIcEEEC1ERKS5_@plt>
   2b5dc: d1 d6 00 94  	bl	0x61120 <_ZNSt3__112basic_stringIcNS_11char_traitsIcEENS_9allocatorIcEEEC1ERKS5_@plt>
   2b608: c6 d6 00 94  	bl	0x61120 <_ZNSt3__112basic_stringIcNS_11char_traitsIcEENS_9allocatorIcEEEC1ERKS5_@plt>
   2b634: bb d6 00 94  	bl	0x61120 <_ZNSt3__112basic_stringIcNS_11char_traitsIcEENS_9allocatorIcEEEC1ERKS5_@plt>
   2d490: 14 cf 00 94  	bl	0x610e0 <_ZN7android8hardware11hidl_stringC1EPKc@plt>
   2d4cc: 05 cf 00 94  	bl	0x610e0 <_ZN7android8hardware11hidl_stringC1EPKc@plt>
   2d4f8: fa ce 00 94  	bl	0x610e0 <_ZN7android8hardware11hidl_stringC1EPKc@plt>
   2d524: ef ce 00 94  	bl	0x610e0 <_ZN7android8hardware11hidl_stringC1EPKc@plt>
   2d550: e4 ce 00 94  	bl	0x610e0 <_ZN7android8hardware11hidl_stringC1EPKc@plt>
   2d57c: d9 ce 00 94  	bl	0x610e0 <_ZN7android8hardware11hidl_stringC1EPKc@plt>
   2d5a8: ce ce 00 94  	bl	0x610e0 <_ZN7android8hardware11hidl_stringC1EPKc@plt>
   2d5d4: c3 ce 00 94  	bl	0x610e0 <_ZN7android8hardware11hidl_stringC1EPKc@plt>
   2d600: b8 ce 00 94  	bl	0x610e0 <_ZN7android8hardware11hidl_stringC1EPKc@plt>
   2d62c: ad ce 00 94  	bl	0x610e0 <_ZN7android8hardware11hidl_stringC1EPKc@plt>
   2d658: a2 ce 00 94  	bl	0x610e0 <_ZN7android8hardware11hidl_stringC1EPKc@plt>
   2d684: 97 ce 00 94  	bl	0x610e0 <_ZN7android8hardware11hidl_stringC1EPKc@plt>
   2d6b0: 8c ce 00 94  	bl	0x610e0 <_ZN7android8hardware11hidl_stringC1EPKc@plt>
   2d6dc: 81 ce 00 94  	bl	0x610e0 <_ZN7android8hardware11hidl_stringC1EPKc@plt>
   2d708: 76 ce 00 94  	bl	0x610e0 <_ZN7android8hardware11hidl_stringC1EPKc@plt>
   2d734: 6b ce 00 94  	bl	0x610e0 <_ZN7android8hardware11hidl_stringC1EPKc@plt>
   2d760: 60 ce 00 94  	bl	0x610e0 <_ZN7android8hardware11hidl_stringC1EPKc@plt>
   2d78c: 55 ce 00 94  	bl	0x610e0 <_ZN7android8hardware11hidl_stringC1EPKc@plt>
   2d7b8: 4a ce 00 94  	bl	0x610e0 <_ZN7android8hardware11hidl_stringC1EPKc@plt>
   2d7e4: 3f ce 00 94  	bl	0x610e0 <_ZN7android8hardware11hidl_stringC1EPKc@plt>
   2d810: 34 ce 00 94  	bl	0x610e0 <_ZN7android8hardware11hidl_stringC1EPKc@plt>
   2dd9c: dd cc 00 94  	bl	0x61110 <_ZN7android8hardware11hidl_stringC1ERKNSt3__112basic_stringIcNS2_11char_traitsIcEENS2_9allocatorIcEEEE@plt>
   2ddc8: d2 cc 00 94  	bl	0x61110 <_ZN7android8hardware11hidl_stringC1ERKNSt3__112basic_stringIcNS2_11char_traitsIcEENS2_9allocatorIcEEEE@plt>
   2ddf4: c7 cc 00 94  	bl	0x61110 <_ZN7android8hardware11hidl_stringC1ERKNSt3__112basic_stringIcNS2_11char_traitsIcEENS2_9allocatorIcEEEE@plt>
   2de20: bc cc 00 94  	bl	0x61110 <_ZN7android8hardware11hidl_stringC1ERKNSt3__112basic_stringIcNS2_11char_traitsIcEENS2_9allocatorIcEEEE@plt>
   2de4c: b1 cc 00 94  	bl	0x61110 <_ZN7android8hardware11hidl_stringC1ERKNSt3__112basic_stringIcNS2_11char_traitsIcEENS2_9allocatorIcEEEE@plt>
   2de78: a6 cc 00 94  	bl	0x61110 <_ZN7android8hardware11hidl_stringC1ERKNSt3__112basic_stringIcNS2_11char_traitsIcEENS2_9allocatorIcEEEE@plt>
   2dea4: 9b cc 00 94  	bl	0x61110 <_ZN7android8hardware11hidl_stringC1ERKNSt3__112basic_stringIcNS2_11char_traitsIcEENS2_9allocatorIcEEEE@plt>
   2ded0: 90 cc 00 94  	bl	0x61110 <_ZN7android8hardware11hidl_stringC1ERKNSt3__112basic_stringIcNS2_11char_traitsIcEENS2_9allocatorIcEEEE@plt>
   2defc: 85 cc 00 94  	bl	0x61110 <_ZN7android8hardware11hidl_stringC1ERKNSt3__112basic_stringIcNS2_11char_traitsIcEENS2_9allocatorIcEEEE@plt>
   2df28: 7a cc 00 94  	bl	0x61110 <_ZN7android8hardware11hidl_stringC1ERKNSt3__112basic_stringIcNS2_11char_traitsIcEENS2_9allocatorIcEEEE@plt>
   2df54: 6f cc 00 94  	bl	0x61110 <_ZN7android8hardware11hidl_stringC1ERKNSt3__112basic_stringIcNS2_11char_traitsIcEENS2_9allocatorIcEEEE@plt>
   2df80: 64 cc 00 94  	bl	0x61110 <_ZN7android8hardware11hidl_stringC1ERKNSt3__112basic_stringIcNS2_11char_traitsIcEENS2_9allocatorIcEEEE@plt>
   2dfac: 59 cc 00 94  	bl	0x61110 <_ZN7android8hardware11hidl_stringC1ERKNSt3__112basic_stringIcNS2_11char_traitsIcEENS2_9allocatorIcEEEE@plt>
   2dfd8: 4e cc 00 94  	bl	0x61110 <_ZN7android8hardware11hidl_stringC1ERKNSt3__112basic_stringIcNS2_11char_traitsIcEENS2_9allocatorIcEEEE@plt>
   2e004: 43 cc 00 94  	bl	0x61110 <_ZN7android8hardware11hidl_stringC1ERKNSt3__112basic_stringIcNS2_11char_traitsIcEENS2_9allocatorIcEEEE@plt>
   2e030: 38 cc 00 94  	bl	0x61110 <_ZN7android8hardware11hidl_stringC1ERKNSt3__112basic_stringIcNS2_11char_traitsIcEENS2_9allocatorIcEEEE@plt>
   2e05c: 2d cc 00 94  	bl	0x61110 <_ZN7android8hardware11hidl_stringC1ERKNSt3__112basic_stringIcNS2_11char_traitsIcEENS2_9allocatorIcEEEE@plt>
   2e088: 22 cc 00 94  	bl	0x61110 <_ZN7android8hardware11hidl_stringC1ERKNSt3__112basic_stringIcNS2_11char_traitsIcEENS2_9allocatorIcEEEE@plt>
   2e0b4: 17 cc 00 94  	bl	0x61110 <_ZN7android8hardware11hidl_stringC1ERKNSt3__112basic_stringIcNS2_11char_traitsIcEENS2_9allocatorIcEEEE@plt>
   2e0e0: 0c cc 00 94  	bl	0x61110 <_ZN7android8hardware11hidl_stringC1ERKNSt3__112basic_stringIcNS2_11char_traitsIcEENS2_9allocatorIcEEEE@plt>
   2e10c: 01 cc 00 94  	bl	0x61110 <_ZN7android8hardware11hidl_stringC1ERKNSt3__112basic_stringIcNS2_11char_traitsIcEENS2_9allocatorIcEEEE@plt>
   2e138: f6 cb 00 94  	bl	0x61110 <_ZN7android8hardware11hidl_stringC1ERKNSt3__112basic_stringIcNS2_11char_traitsIcEENS2_9allocatorIcEEEE@plt>
   2e164: eb cb 00 94  	bl	0x61110 <_ZN7android8hardware11hidl_stringC1ERKNSt3__112basic_stringIcNS2_11char_traitsIcEENS2_9allocatorIcEEEE@plt>
   2e190: e0 cb 00 94  	bl	0x61110 <_ZN7android8hardware11hidl_stringC1ERKNSt3__112basic_stringIcNS2_11char_traitsIcEENS2_9allocatorIcEEEE@plt>
   2e1bc: d5 cb 00 94  	bl	0x61110 <_ZN7android8hardware11hidl_stringC1ERKNSt3__112basic_stringIcNS2_11char_traitsIcEENS2_9allocatorIcEEEE@plt>
   2e1e8: ca cb 00 94  	bl	0x61110 <_ZN7android8hardware11hidl_stringC1ERKNSt3__112basic_stringIcNS2_11char_traitsIcEENS2_9allocatorIcEEEE@plt>
   2e210: c4 cb 00 94  	bl	0x61120 <_ZNSt3__112basic_stringIcNS_11char_traitsIcEENS_9allocatorIcEEEC1ERKS5_@plt>
   2e23c: b9 cb 00 94  	bl	0x61120 <_ZNSt3__112basic_stringIcNS_11char_traitsIcEENS_9allocatorIcEEEC1ERKS5_@plt>
   2e268: ae cb 00 94  	bl	0x61120 <_ZNSt3__112basic_stringIcNS_11char_traitsIcEENS_9allocatorIcEEEC1ERKS5_@plt>
   2e294: a3 cb 00 94  	bl	0x61120 <_ZNSt3__112basic_stringIcNS_11char_traitsIcEENS_9allocatorIcEEEC1ERKS5_@plt>
   300f0: fc c3 00 94  	bl	0x610e0 <_ZN7android8hardware11hidl_stringC1EPKc@plt>
   3012c: ed c3 00 94  	bl	0x610e0 <_ZN7android8hardware11hidl_stringC1EPKc@plt>
   30158: e2 c3 00 94  	bl	0x610e0 <_ZN7android8hardware11hidl_stringC1EPKc@plt>
   30184: d7 c3 00 94  	bl	0x610e0 <_ZN7android8hardware11hidl_stringC1EPKc@plt>
   301b0: cc c3 00 94  	bl	0x610e0 <_ZN7android8hardware11hidl_stringC1EPKc@plt>
   301dc: c1 c3 00 94  	bl	0x610e0 <_ZN7android8hardware11hidl_stringC1EPKc@plt>
   30208: b6 c3 00 94  	bl	0x610e0 <_ZN7android8hardware11hidl_stringC1EPKc@plt>
   30234: ab c3 00 94  	bl	0x610e0 <_ZN7android8hardware11hidl_stringC1EPKc@plt>
   30260: a0 c3 00 94  	bl	0x610e0 <_ZN7android8hardware11hidl_stringC1EPKc@plt>
   3028c: 95 c3 00 94  	bl	0x610e0 <_ZN7android8hardware11hidl_stringC1EPKc@plt>
   302b8: 8a c3 00 94  	bl	0x610e0 <_ZN7android8hardware11hidl_stringC1EPKc@plt>
   302e4: 7f c3 00 94  	bl	0x610e0 <_ZN7android8hardware11hidl_stringC1EPKc@plt>
   30310: 74 c3 00 94  	bl	0x610e0 <_ZN7android8hardware11hidl_stringC1EPKc@plt>
   3033c: 69 c3 00 94  	bl	0x610e0 <_ZN7android8hardware11hidl_stringC1EPKc@plt>
   30368: 5e c3 00 94  	bl	0x610e0 <_ZN7android8hardware11hidl_stringC1EPKc@plt>
   30394: 53 c3 00 94  	bl	0x610e0 <_ZN7android8hardware11hidl_stringC1EPKc@plt>
   303c0: 48 c3 00 94  	bl	0x610e0 <_ZN7android8hardware11hidl_stringC1EPKc@plt>
   303ec: 3d c3 00 94  	bl	0x610e0 <_ZN7android8hardware11hidl_stringC1EPKc@plt>
   30418: 32 c3 00 94  	bl	0x610e0 <_ZN7android8hardware11hidl_stringC1EPKc@plt>
   30444: 27 c3 00 94  	bl	0x610e0 <_ZN7android8hardware11hidl_stringC1EPKc@plt>
   30470: 1c c3 00 94  	bl	0x610e0 <_ZN7android8hardware11hidl_stringC1EPKc@plt>
   309fc: c5 c1 00 94  	bl	0x61110 <_ZN7android8hardware11hidl_stringC1ERKNSt3__112basic_stringIcNS2_11char_traitsIcEENS2_9allocatorIcEEEE@plt>
   30a28: ba c1 00 94  	bl	0x61110 <_ZN7android8hardware11hidl_stringC1ERKNSt3__112basic_stringIcNS2_11char_traitsIcEENS2_9allocatorIcEEEE@plt>
   30a54: af c1 00 94  	bl	0x61110 <_ZN7android8hardware11hidl_stringC1ERKNSt3__112basic_stringIcNS2_11char_traitsIcEENS2_9allocatorIcEEEE@plt>
   30a80: a4 c1 00 94  	bl	0x61110 <_ZN7android8hardware11hidl_stringC1ERKNSt3__112basic_stringIcNS2_11char_traitsIcEENS2_9allocatorIcEEEE@plt>
   30aac: 99 c1 00 94  	bl	0x61110 <_ZN7android8hardware11hidl_stringC1ERKNSt3__112basic_stringIcNS2_11char_traitsIcEENS2_9allocatorIcEEEE@plt>
   30ad8: 8e c1 00 94  	bl	0x61110 <_ZN7android8hardware11hidl_stringC1ERKNSt3__112basic_stringIcNS2_11char_traitsIcEENS2_9allocatorIcEEEE@plt>
   30b04: 83 c1 00 94  	bl	0x61110 <_ZN7android8hardware11hidl_stringC1ERKNSt3__112basic_stringIcNS2_11char_traitsIcEENS2_9allocatorIcEEEE@plt>
   30b30: 78 c1 00 94  	bl	0x61110 <_ZN7android8hardware11hidl_stringC1ERKNSt3__112basic_stringIcNS2_11char_traitsIcEENS2_9allocatorIcEEEE@plt>
   30b5c: 6d c1 00 94  	bl	0x61110 <_ZN7android8hardware11hidl_stringC1ERKNSt3__112basic_stringIcNS2_11char_traitsIcEENS2_9allocatorIcEEEE@plt>
   30b88: 62 c1 00 94  	bl	0x61110 <_ZN7android8hardware11hidl_stringC1ERKNSt3__112basic_stringIcNS2_11char_traitsIcEENS2_9allocatorIcEEEE@plt>
   30bb4: 57 c1 00 94  	bl	0x61110 <_ZN7android8hardware11hidl_stringC1ERKNSt3__112basic_stringIcNS2_11char_traitsIcEENS2_9allocatorIcEEEE@plt>
   30be0: 4c c1 00 94  	bl	0x61110 <_ZN7android8hardware11hidl_stringC1ERKNSt3__112basic_stringIcNS2_11char_traitsIcEENS2_9allocatorIcEEEE@plt>
   30c0c: 41 c1 00 94  	bl	0x61110 <_ZN7android8hardware11hidl_stringC1ERKNSt3__112basic_stringIcNS2_11char_traitsIcEENS2_9allocatorIcEEEE@plt>
   30c38: 36 c1 00 94  	bl	0x61110 <_ZN7android8hardware11hidl_stringC1ERKNSt3__112basic_stringIcNS2_11char_traitsIcEENS2_9allocatorIcEEEE@plt>
   30c64: 2b c1 00 94  	bl	0x61110 <_ZN7android8hardware11hidl_stringC1ERKNSt3__112basic_stringIcNS2_11char_traitsIcEENS2_9allocatorIcEEEE@plt>
   30c90: 20 c1 00 94  	bl	0x61110 <_ZN7android8hardware11hidl_stringC1ERKNSt3__112basic_stringIcNS2_11char_traitsIcEENS2_9allocatorIcEEEE@plt>
   30cbc: 15 c1 00 94  	bl	0x61110 <_ZN7android8hardware11hidl_stringC1ERKNSt3__112basic_stringIcNS2_11char_traitsIcEENS2_9allocatorIcEEEE@plt>
   30ce8: 0a c1 00 94  	bl	0x61110 <_ZN7android8hardware11hidl_stringC1ERKNSt3__112basic_stringIcNS2_11char_traitsIcEENS2_9allocatorIcEEEE@plt>
   30d14: ff c0 00 94  	bl	0x61110 <_ZN7android8hardware11hidl_stringC1ERKNSt3__112basic_stringIcNS2_11char_traitsIcEENS2_9allocatorIcEEEE@plt>
   30d40: f4 c0 00 94  	bl	0x61110 <_ZN7android8hardware11hidl_stringC1ERKNSt3__112basic_stringIcNS2_11char_traitsIcEENS2_9allocatorIcEEEE@plt>
   30d6c: e9 c0 00 94  	bl	0x61110 <_ZN7android8hardware11hidl_stringC1ERKNSt3__112basic_stringIcNS2_11char_traitsIcEENS2_9allocatorIcEEEE@plt>
   30d98: de c0 00 94  	bl	0x61110 <_ZN7android8hardware11hidl_stringC1ERKNSt3__112basic_stringIcNS2_11char_traitsIcEENS2_9allocatorIcEEEE@plt>
   30dc4: d3 c0 00 94  	bl	0x61110 <_ZN7android8hardware11hidl_stringC1ERKNSt3__112basic_stringIcNS2_11char_traitsIcEENS2_9allocatorIcEEEE@plt>
   30df0: c8 c0 00 94  	bl	0x61110 <_ZN7android8hardware11hidl_stringC1ERKNSt3__112basic_stringIcNS2_11char_traitsIcEENS2_9allocatorIcEEEE@plt>
   30e1c: bd c0 00 94  	bl	0x61110 <_ZN7android8hardware11hidl_stringC1ERKNSt3__112basic_stringIcNS2_11char_traitsIcEENS2_9allocatorIcEEEE@plt>
   30e48: b2 c0 00 94  	bl	0x61110 <_ZN7android8hardware11hidl_stringC1ERKNSt3__112basic_stringIcNS2_11char_traitsIcEENS2_9allocatorIcEEEE@plt>
   30e70: ac c0 00 94  	bl	0x61120 <_ZNSt3__112basic_stringIcNS_11char_traitsIcEENS_9allocatorIcEEEC1ERKS5_@plt>
   30e9c: a1 c0 00 94  	bl	0x61120 <_ZNSt3__112basic_stringIcNS_11char_traitsIcEENS_9allocatorIcEEEC1ERKS5_@plt>
   30ec8: 96 c0 00 94  	bl	0x61120 <_ZNSt3__112basic_stringIcNS_11char_traitsIcEENS_9allocatorIcEEEC1ERKS5_@plt>
   30ef4: 8b c0 00 94  	bl	0x61120 <_ZNSt3__112basic_stringIcNS_11char_traitsIcEENS_9allocatorIcEEEC1ERKS5_@plt>
   32d50: e4 b8 00 94  	bl	0x610e0 <_ZN7android8hardware11hidl_stringC1EPKc@plt>
   32d8c: d5 b8 00 94  	bl	0x610e0 <_ZN7android8hardware11hidl_stringC1EPKc@plt>
   32db8: ca b8 00 94  	bl	0x610e0 <_ZN7android8hardware11hidl_stringC1EPKc@plt>
   32de4: bf b8 00 94  	bl	0x610e0 <_ZN7android8hardware11hidl_stringC1EPKc@plt>
   32e10: b4 b8 00 94  	bl	0x610e0 <_ZN7android8hardware11hidl_stringC1EPKc@plt>
   32e3c: a9 b8 00 94  	bl	0x610e0 <_ZN7android8hardware11hidl_stringC1EPKc@plt>
   32e68: 9e b8 00 94  	bl	0x610e0 <_ZN7android8hardware11hidl_stringC1EPKc@plt>
   32e94: 93 b8 00 94  	bl	0x610e0 <_ZN7android8hardware11hidl_stringC1EPKc@plt>
   32ec0: 88 b8 00 94  	bl	0x610e0 <_ZN7android8hardware11hidl_stringC1EPKc@plt>
   32eec: 7d b8 00 94  	bl	0x610e0 <_ZN7android8hardware11hidl_stringC1EPKc@plt>
   32f18: 72 b8 00 94  	bl	0x610e0 <_ZN7android8hardware11hidl_stringC1EPKc@plt>
   32f44: 67 b8 00 94  	bl	0x610e0 <_ZN7android8hardware11hidl_stringC1EPKc@plt>
   32f70: 5c b8 00 94  	bl	0x610e0 <_ZN7android8hardware11hidl_stringC1EPKc@plt>
   32f9c: 51 b8 00 94  	bl	0x610e0 <_ZN7android8hardware11hidl_stringC1EPKc@plt>
   32fc8: 46 b8 00 94  	bl	0x610e0 <_ZN7android8hardware11hidl_stringC1EPKc@plt>
   32ff4: 3b b8 00 94  	bl	0x610e0 <_ZN7android8hardware11hidl_stringC1EPKc@plt>
   33020: 30 b8 00 94  	bl	0x610e0 <_ZN7android8hardware11hidl_stringC1EPKc@plt>
   3304c: 25 b8 00 94  	bl	0x610e0 <_ZN7android8hardware11hidl_stringC1EPKc@plt>
   33078: 1a b8 00 94  	bl	0x610e0 <_ZN7android8hardware11hidl_stringC1EPKc@plt>
   330a4: 0f b8 00 94  	bl	0x610e0 <_ZN7android8hardware11hidl_stringC1EPKc@plt>
   330d0: 04 b8 00 94  	bl	0x610e0 <_ZN7android8hardware11hidl_stringC1EPKc@plt>
   3365c: ad b6 00 94  	bl	0x61110 <_ZN7android8hardware11hidl_stringC1ERKNSt3__112basic_stringIcNS2_11char_traitsIcEENS2_9allocatorIcEEEE@plt>
   33688: a2 b6 00 94  	bl	0x61110 <_ZN7android8hardware11hidl_stringC1ERKNSt3__112basic_stringIcNS2_11char_traitsIcEENS2_9allocatorIcEEEE@plt>
   336b4: 97 b6 00 94  	bl	0x61110 <_ZN7android8hardware11hidl_stringC1ERKNSt3__112basic_stringIcNS2_11char_traitsIcEENS2_9allocatorIcEEEE@plt>
   336e0: 8c b6 00 94  	bl	0x61110 <_ZN7android8hardware11hidl_stringC1ERKNSt3__112basic_stringIcNS2_11char_traitsIcEENS2_9allocatorIcEEEE@plt>
   3370c: 81 b6 00 94  	bl	0x61110 <_ZN7android8hardware11hidl_stringC1ERKNSt3__112basic_stringIcNS2_11char_traitsIcEENS2_9allocatorIcEEEE@plt>
   33738: 76 b6 00 94  	bl	0x61110 <_ZN7android8hardware11hidl_stringC1ERKNSt3__112basic_stringIcNS2_11char_traitsIcEENS2_9allocatorIcEEEE@plt>
   33764: 6b b6 00 94  	bl	0x61110 <_ZN7android8hardware11hidl_stringC1ERKNSt3__112basic_stringIcNS2_11char_traitsIcEENS2_9allocatorIcEEEE@plt>
   33790: 60 b6 00 94  	bl	0x61110 <_ZN7android8hardware11hidl_stringC1ERKNSt3__112basic_stringIcNS2_11char_traitsIcEENS2_9allocatorIcEEEE@plt>
   337bc: 55 b6 00 94  	bl	0x61110 <_ZN7android8hardware11hidl_stringC1ERKNSt3__112basic_stringIcNS2_11char_traitsIcEENS2_9allocatorIcEEEE@plt>
   337e8: 4a b6 00 94  	bl	0x61110 <_ZN7android8hardware11hidl_stringC1ERKNSt3__112basic_stringIcNS2_11char_traitsIcEENS2_9allocatorIcEEEE@plt>
   33814: 3f b6 00 94  	bl	0x61110 <_ZN7android8hardware11hidl_stringC1ERKNSt3__112basic_stringIcNS2_11char_traitsIcEENS2_9allocatorIcEEEE@plt>
   33840: 34 b6 00 94  	bl	0x61110 <_ZN7android8hardware11hidl_stringC1ERKNSt3__112basic_stringIcNS2_11char_traitsIcEENS2_9allocatorIcEEEE@plt>
   3386c: 29 b6 00 94  	bl	0x61110 <_ZN7android8hardware11hidl_stringC1ERKNSt3__112basic_stringIcNS2_11char_traitsIcEENS2_9allocatorIcEEEE@plt>
   33898: 1e b6 00 94  	bl	0x61110 <_ZN7android8hardware11hidl_stringC1ERKNSt3__112basic_stringIcNS2_11char_traitsIcEENS2_9allocatorIcEEEE@plt>
   338c4: 13 b6 00 94  	bl	0x61110 <_ZN7android8hardware11hidl_stringC1ERKNSt3__112basic_stringIcNS2_11char_traitsIcEENS2_9allocatorIcEEEE@plt>
   338f0: 08 b6 00 94  	bl	0x61110 <_ZN7android8hardware11hidl_stringC1ERKNSt3__112basic_stringIcNS2_11char_traitsIcEENS2_9allocatorIcEEEE@plt>
   3391c: fd b5 00 94  	bl	0x61110 <_ZN7android8hardware11hidl_stringC1ERKNSt3__112basic_stringIcNS2_11char_traitsIcEENS2_9allocatorIcEEEE@plt>
   33948: f2 b5 00 94  	bl	0x61110 <_ZN7android8hardware11hidl_stringC1ERKNSt3__112basic_stringIcNS2_11char_traitsIcEENS2_9allocatorIcEEEE@plt>
   33974: e7 b5 00 94  	bl	0x61110 <_ZN7android8hardware11hidl_stringC1ERKNSt3__112basic_stringIcNS2_11char_traitsIcEENS2_9allocatorIcEEEE@plt>
   339a0: dc b5 00 94  	bl	0x61110 <_ZN7android8hardware11hidl_stringC1ERKNSt3__112basic_stringIcNS2_11char_traitsIcEENS2_9allocatorIcEEEE@plt>
   339cc: d1 b5 00 94  	bl	0x61110 <_ZN7android8hardware11hidl_stringC1ERKNSt3__112basic_stringIcNS2_11char_traitsIcEENS2_9allocatorIcEEEE@plt>
   339f8: c6 b5 00 94  	bl	0x61110 <_ZN7android8hardware11hidl_stringC1ERKNSt3__112basic_stringIcNS2_11char_traitsIcEENS2_9allocatorIcEEEE@plt>
   33a24: bb b5 00 94  	bl	0x61110 <_ZN7android8hardware11hidl_stringC1ERKNSt3__112basic_stringIcNS2_11char_traitsIcEENS2_9allocatorIcEEEE@plt>
   33a50: b0 b5 00 94  	bl	0x61110 <_ZN7android8hardware11hidl_stringC1ERKNSt3__112basic_stringIcNS2_11char_traitsIcEENS2_9allocatorIcEEEE@plt>
   33a7c: a5 b5 00 94  	bl	0x61110 <_ZN7android8hardware11hidl_stringC1ERKNSt3__112basic_stringIcNS2_11char_traitsIcEENS2_9allocatorIcEEEE@plt>
   33aa8: 9a b5 00 94  	bl	0x61110 <_ZN7android8hardware11hidl_stringC1ERKNSt3__112basic_stringIcNS2_11char_traitsIcEENS2_9allocatorIcEEEE@plt>
   33ad0: 94 b5 00 94  	bl	0x61120 <_ZNSt3__112basic_stringIcNS_11char_traitsIcEENS_9allocatorIcEEEC1ERKS5_@plt>
   33afc: 89 b5 00 94  	bl	0x61120 <_ZNSt3__112basic_stringIcNS_11char_traitsIcEENS_9allocatorIcEEEC1ERKS5_@plt>
   33b28: 7e b5 00 94  	bl	0x61120 <_ZNSt3__112basic_stringIcNS_11char_traitsIcEENS_9allocatorIcEEEC1ERKS5_@plt>
   33b54: 73 b5 00 94  	bl	0x61120 <_ZNSt3__112basic_stringIcNS_11char_traitsIcEENS_9allocatorIcEEEC1ERKS5_@plt>
   359b0: cc ad 00 94  	bl	0x610e0 <_ZN7android8hardware11hidl_stringC1EPKc@plt>
   359ec: bd ad 00 94  	bl	0x610e0 <_ZN7android8hardware11hidl_stringC1EPKc@plt>
   35a18: b2 ad 00 94  	bl	0x610e0 <_ZN7android8hardware11hidl_stringC1EPKc@plt>
   35a44: a7 ad 00 94  	bl	0x610e0 <_ZN7android8hardware11hidl_stringC1EPKc@plt>
   35a70: 9c ad 00 94  	bl	0x610e0 <_ZN7android8hardware11hidl_stringC1EPKc@plt>
   35a9c: 91 ad 00 94  	bl	0x610e0 <_ZN7android8hardware11hidl_stringC1EPKc@plt>
   35ac8: 86 ad 00 94  	bl	0x610e0 <_ZN7android8hardware11hidl_stringC1EPKc@plt>
   35af4: 7b ad 00 94  	bl	0x610e0 <_ZN7android8hardware11hidl_stringC1EPKc@plt>
   35b20: 70 ad 00 94  	bl	0x610e0 <_ZN7android8hardware11hidl_stringC1EPKc@plt>
   35b4c: 65 ad 00 94  	bl	0x610e0 <_ZN7android8hardware11hidl_stringC1EPKc@plt>
   35b78: 5a ad 00 94  	bl	0x610e0 <_ZN7android8hardware11hidl_stringC1EPKc@plt>
   35ba4: 4f ad 00 94  	bl	0x610e0 <_ZN7android8hardware11hidl_stringC1EPKc@plt>
   35bd0: 44 ad 00 94  	bl	0x610e0 <_ZN7android8hardware11hidl_stringC1EPKc@plt>
   35bfc: 39 ad 00 94  	bl	0x610e0 <_ZN7android8hardware11hidl_stringC1EPKc@plt>
   35c28: 2e ad 00 94  	bl	0x610e0 <_ZN7android8hardware11hidl_stringC1EPKc@plt>
   35c54: 23 ad 00 94  	bl	0x610e0 <_ZN7android8hardware11hidl_stringC1EPKc@plt>
   35c80: 18 ad 00 94  	bl	0x610e0 <_ZN7android8hardware11hidl_stringC1EPKc@plt>
   35cac: 0d ad 00 94  	bl	0x610e0 <_ZN7android8hardware11hidl_stringC1EPKc@plt>
   35cd8: 02 ad 00 94  	bl	0x610e0 <_ZN7android8hardware11hidl_stringC1EPKc@plt>
   35d04: f7 ac 00 94  	bl	0x610e0 <_ZN7android8hardware11hidl_stringC1EPKc@plt>
   35d30: ec ac 00 94  	bl	0x610e0 <_ZN7android8hardware11hidl_stringC1EPKc@plt>
   362bc: 95 ab 00 94  	bl	0x61110 <_ZN7android8hardware11hidl_stringC1ERKNSt3__112basic_stringIcNS2_11char_traitsIcEENS2_9allocatorIcEEEE@plt>
   362e8: 8a ab 00 94  	bl	0x61110 <_ZN7android8hardware11hidl_stringC1ERKNSt3__112basic_stringIcNS2_11char_traitsIcEENS2_9allocatorIcEEEE@plt>
   36314: 7f ab 00 94  	bl	0x61110 <_ZN7android8hardware11hidl_stringC1ERKNSt3__112basic_stringIcNS2_11char_traitsIcEENS2_9allocatorIcEEEE@plt>
   36340: 74 ab 00 94  	bl	0x61110 <_ZN7android8hardware11hidl_stringC1ERKNSt3__112basic_stringIcNS2_11char_traitsIcEENS2_9allocatorIcEEEE@plt>
   3636c: 69 ab 00 94  	bl	0x61110 <_ZN7android8hardware11hidl_stringC1ERKNSt3__112basic_stringIcNS2_11char_traitsIcEENS2_9allocatorIcEEEE@plt>
   36398: 5e ab 00 94  	bl	0x61110 <_ZN7android8hardware11hidl_stringC1ERKNSt3__112basic_stringIcNS2_11char_traitsIcEENS2_9allocatorIcEEEE@plt>
   363c4: 53 ab 00 94  	bl	0x61110 <_ZN7android8hardware11hidl_stringC1ERKNSt3__112basic_stringIcNS2_11char_traitsIcEENS2_9allocatorIcEEEE@plt>
   363f0: 48 ab 00 94  	bl	0x61110 <_ZN7android8hardware11hidl_stringC1ERKNSt3__112basic_stringIcNS2_11char_traitsIcEENS2_9allocatorIcEEEE@plt>
   3641c: 3d ab 00 94  	bl	0x61110 <_ZN7android8hardware11hidl_stringC1ERKNSt3__112basic_stringIcNS2_11char_traitsIcEENS2_9allocatorIcEEEE@plt>
   36448: 32 ab 00 94  	bl	0x61110 <_ZN7android8hardware11hidl_stringC1ERKNSt3__112basic_stringIcNS2_11char_traitsIcEENS2_9allocatorIcEEEE@plt>
   36474: 27 ab 00 94  	bl	0x61110 <_ZN7android8hardware11hidl_stringC1ERKNSt3__112basic_stringIcNS2_11char_traitsIcEENS2_9allocatorIcEEEE@plt>
   364a0: 1c ab 00 94  	bl	0x61110 <_ZN7android8hardware11hidl_stringC1ERKNSt3__112basic_stringIcNS2_11char_traitsIcEENS2_9allocatorIcEEEE@plt>
   364cc: 11 ab 00 94  	bl	0x61110 <_ZN7android8hardware11hidl_stringC1ERKNSt3__112basic_stringIcNS2_11char_traitsIcEENS2_9allocatorIcEEEE@plt>
   364f8: 06 ab 00 94  	bl	0x61110 <_ZN7android8hardware11hidl_stringC1ERKNSt3__112basic_stringIcNS2_11char_traitsIcEENS2_9allocatorIcEEEE@plt>
   36524: fb aa 00 94  	bl	0x61110 <_ZN7android8hardware11hidl_stringC1ERKNSt3__112basic_stringIcNS2_11char_traitsIcEENS2_9allocatorIcEEEE@plt>
   36550: f0 aa 00 94  	bl	0x61110 <_ZN7android8hardware11hidl_stringC1ERKNSt3__112basic_stringIcNS2_11char_traitsIcEENS2_9allocatorIcEEEE@plt>
   3657c: e5 aa 00 94  	bl	0x61110 <_ZN7android8hardware11hidl_stringC1ERKNSt3__112basic_stringIcNS2_11char_traitsIcEENS2_9allocatorIcEEEE@plt>
   365a8: da aa 00 94  	bl	0x61110 <_ZN7android8hardware11hidl_stringC1ERKNSt3__112basic_stringIcNS2_11char_traitsIcEENS2_9allocatorIcEEEE@plt>
   365d4: cf aa 00 94  	bl	0x61110 <_ZN7android8hardware11hidl_stringC1ERKNSt3__112basic_stringIcNS2_11char_traitsIcEENS2_9allocatorIcEEEE@plt>
   36600: c4 aa 00 94  	bl	0x61110 <_ZN7android8hardware11hidl_stringC1ERKNSt3__112basic_stringIcNS2_11char_traitsIcEENS2_9allocatorIcEEEE@plt>
   3662c: b9 aa 00 94  	bl	0x61110 <_ZN7android8hardware11hidl_stringC1ERKNSt3__112basic_stringIcNS2_11char_traitsIcEENS2_9allocatorIcEEEE@plt>
   36658: ae aa 00 94  	bl	0x61110 <_ZN7android8hardware11hidl_stringC1ERKNSt3__112basic_stringIcNS2_11char_traitsIcEENS2_9allocatorIcEEEE@plt>
   36684: a3 aa 00 94  	bl	0x61110 <_ZN7android8hardware11hidl_stringC1ERKNSt3__112basic_stringIcNS2_11char_traitsIcEENS2_9allocatorIcEEEE@plt>
   366b0: 98 aa 00 94  	bl	0x61110 <_ZN7android8hardware11hidl_stringC1ERKNSt3__112basic_stringIcNS2_11char_traitsIcEENS2_9allocatorIcEEEE@plt>
   366dc: 8d aa 00 94  	bl	0x61110 <_ZN7android8hardware11hidl_stringC1ERKNSt3__112basic_stringIcNS2_11char_traitsIcEENS2_9allocatorIcEEEE@plt>
   36708: 82 aa 00 94  	bl	0x61110 <_ZN7android8hardware11hidl_stringC1ERKNSt3__112basic_stringIcNS2_11char_traitsIcEENS2_9allocatorIcEEEE@plt>
   36730: 7c aa 00 94  	bl	0x61120 <_ZNSt3__112basic_stringIcNS_11char_traitsIcEENS_9allocatorIcEEEC1ERKS5_@plt>
   3675c: 71 aa 00 94  	bl	0x61120 <_ZNSt3__112basic_stringIcNS_11char_traitsIcEENS_9allocatorIcEEEC1ERKS5_@plt>
   36788: 66 aa 00 94  	bl	0x61120 <_ZNSt3__112basic_stringIcNS_11char_traitsIcEENS_9allocatorIcEEEC1ERKS5_@plt>
   367b4: 5b aa 00 94  	bl	0x61120 <_ZNSt3__112basic_stringIcNS_11char_traitsIcEENS_9allocatorIcEEEC1ERKS5_@plt>
   38610: b4 a2 00 94  	bl	0x610e0 <_ZN7android8hardware11hidl_stringC1EPKc@plt>
   3864c: a5 a2 00 94  	bl	0x610e0 <_ZN7android8hardware11hidl_stringC1EPKc@plt>
   38678: 9a a2 00 94  	bl	0x610e0 <_ZN7android8hardware11hidl_stringC1EPKc@plt>
   386a4: 8f a2 00 94  	bl	0x610e0 <_ZN7android8hardware11hidl_stringC1EPKc@plt>
   386d0: 84 a2 00 94  	bl	0x610e0 <_ZN7android8hardware11hidl_stringC1EPKc@plt>
   386fc: 79 a2 00 94  	bl	0x610e0 <_ZN7android8hardware11hidl_stringC1EPKc@plt>
   38728: 6e a2 00 94  	bl	0x610e0 <_ZN7android8hardware11hidl_stringC1EPKc@plt>
   38754: 63 a2 00 94  	bl	0x610e0 <_ZN7android8hardware11hidl_stringC1EPKc@plt>
   38780: 58 a2 00 94  	bl	0x610e0 <_ZN7android8hardware11hidl_stringC1EPKc@plt>
   387ac: 4d a2 00 94  	bl	0x610e0 <_ZN7android8hardware11hidl_stringC1EPKc@plt>
   387d8: 42 a2 00 94  	bl	0x610e0 <_ZN7android8hardware11hidl_stringC1EPKc@plt>
   38804: 37 a2 00 94  	bl	0x610e0 <_ZN7android8hardware11hidl_stringC1EPKc@plt>
   38830: 2c a2 00 94  	bl	0x610e0 <_ZN7android8hardware11hidl_stringC1EPKc@plt>
   3885c: 21 a2 00 94  	bl	0x610e0 <_ZN7android8hardware11hidl_stringC1EPKc@plt>
   38888: 16 a2 00 94  	bl	0x610e0 <_ZN7android8hardware11hidl_stringC1EPKc@plt>
   388b4: 0b a2 00 94  	bl	0x610e0 <_ZN7android8hardware11hidl_stringC1EPKc@plt>
   388e0: 00 a2 00 94  	bl	0x610e0 <_ZN7android8hardware11hidl_stringC1EPKc@plt>
   3890c: f5 a1 00 94  	bl	0x610e0 <_ZN7android8hardware11hidl_stringC1EPKc@plt>
   38938: ea a1 00 94  	bl	0x610e0 <_ZN7android8hardware11hidl_stringC1EPKc@plt>
   38964: df a1 00 94  	bl	0x610e0 <_ZN7android8hardware11hidl_stringC1EPKc@plt>
   38990: d4 a1 00 94  	bl	0x610e0 <_ZN7android8hardware11hidl_stringC1EPKc@plt>
   38f1c: 7d a0 00 94  	bl	0x61110 <_ZN7android8hardware11hidl_stringC1ERKNSt3__112basic_stringIcNS2_11char_traitsIcEENS2_9allocatorIcEEEE@plt>
   38f48: 72 a0 00 94  	bl	0x61110 <_ZN7android8hardware11hidl_stringC1ERKNSt3__112basic_stringIcNS2_11char_traitsIcEENS2_9allocatorIcEEEE@plt>
   38f74: 67 a0 00 94  	bl	0x61110 <_ZN7android8hardware11hidl_stringC1ERKNSt3__112basic_stringIcNS2_11char_traitsIcEENS2_9allocatorIcEEEE@plt>
   38fa0: 5c a0 00 94  	bl	0x61110 <_ZN7android8hardware11hidl_stringC1ERKNSt3__112basic_stringIcNS2_11char_traitsIcEENS2_9allocatorIcEEEE@plt>
   38fcc: 51 a0 00 94  	bl	0x61110 <_ZN7android8hardware11hidl_stringC1ERKNSt3__112basic_stringIcNS2_11char_traitsIcEENS2_9allocatorIcEEEE@plt>
   38ff8: 46 a0 00 94  	bl	0x61110 <_ZN7android8hardware11hidl_stringC1ERKNSt3__112basic_stringIcNS2_11char_traitsIcEENS2_9allocatorIcEEEE@plt>
   39024: 3b a0 00 94  	bl	0x61110 <_ZN7android8hardware11hidl_stringC1ERKNSt3__112basic_stringIcNS2_11char_traitsIcEENS2_9allocatorIcEEEE@plt>
   39050: 30 a0 00 94  	bl	0x61110 <_ZN7android8hardware11hidl_stringC1ERKNSt3__112basic_stringIcNS2_11char_traitsIcEENS2_9allocatorIcEEEE@plt>
   3907c: 25 a0 00 94  	bl	0x61110 <_ZN7android8hardware11hidl_stringC1ERKNSt3__112basic_stringIcNS2_11char_traitsIcEENS2_9allocatorIcEEEE@plt>
   390a8: 1a a0 00 94  	bl	0x61110 <_ZN7android8hardware11hidl_stringC1ERKNSt3__112basic_stringIcNS2_11char_traitsIcEENS2_9allocatorIcEEEE@plt>
   390d4: 0f a0 00 94  	bl	0x61110 <_ZN7android8hardware11hidl_stringC1ERKNSt3__112basic_stringIcNS2_11char_traitsIcEENS2_9allocatorIcEEEE@plt>
   39100: 04 a0 00 94  	bl	0x61110 <_ZN7android8hardware11hidl_stringC1ERKNSt3__112basic_stringIcNS2_11char_traitsIcEENS2_9allocatorIcEEEE@plt>
   3912c: f9 9f 00 94  	bl	0x61110 <_ZN7android8hardware11hidl_stringC1ERKNSt3__112basic_stringIcNS2_11char_traitsIcEENS2_9allocatorIcEEEE@plt>
   39158: ee 9f 00 94  	bl	0x61110 <_ZN7android8hardware11hidl_stringC1ERKNSt3__112basic_stringIcNS2_11char_traitsIcEENS2_9allocatorIcEEEE@plt>
   39184: e3 9f 00 94  	bl	0x61110 <_ZN7android8hardware11hidl_stringC1ERKNSt3__112basic_stringIcNS2_11char_traitsIcEENS2_9allocatorIcEEEE@plt>
   391b0: d8 9f 00 94  	bl	0x61110 <_ZN7android8hardware11hidl_stringC1ERKNSt3__112basic_stringIcNS2_11char_traitsIcEENS2_9allocatorIcEEEE@plt>
   391dc: cd 9f 00 94  	bl	0x61110 <_ZN7android8hardware11hidl_stringC1ERKNSt3__112basic_stringIcNS2_11char_traitsIcEENS2_9allocatorIcEEEE@plt>
   39208: c2 9f 00 94  	bl	0x61110 <_ZN7android8hardware11hidl_stringC1ERKNSt3__112basic_stringIcNS2_11char_traitsIcEENS2_9allocatorIcEEEE@plt>
   39234: b7 9f 00 94  	bl	0x61110 <_ZN7android8hardware11hidl_stringC1ERKNSt3__112basic_stringIcNS2_11char_traitsIcEENS2_9allocatorIcEEEE@plt>
   39260: ac 9f 00 94  	bl	0x61110 <_ZN7android8hardware11hidl_stringC1ERKNSt3__112basic_stringIcNS2_11char_traitsIcEENS2_9allocatorIcEEEE@plt>
   3928c: a1 9f 00 94  	bl	0x61110 <_ZN7android8hardware11hidl_stringC1ERKNSt3__112basic_stringIcNS2_11char_traitsIcEENS2_9allocatorIcEEEE@plt>
   392b8: 96 9f 00 94  	bl	0x61110 <_ZN7android8hardware11hidl_stringC1ERKNSt3__112basic_stringIcNS2_11char_traitsIcEENS2_9allocatorIcEEEE@plt>
   392e4: 8b 9f 00 94  	bl	0x61110 <_ZN7android8hardware11hidl_stringC1ERKNSt3__112basic_stringIcNS2_11char_traitsIcEENS2_9allocatorIcEEEE@plt>
   39310: 80 9f 00 94  	bl	0x61110 <_ZN7android8hardware11hidl_stringC1ERKNSt3__112basic_stringIcNS2_11char_traitsIcEENS2_9allocatorIcEEEE@plt>
   3933c: 75 9f 00 94  	bl	0x61110 <_ZN7android8hardware11hidl_stringC1ERKNSt3__112basic_stringIcNS2_11char_traitsIcEENS2_9allocatorIcEEEE@plt>
   39368: 6a 9f 00 94  	bl	0x61110 <_ZN7android8hardware11hidl_stringC1ERKNSt3__112basic_stringIcNS2_11char_traitsIcEENS2_9allocatorIcEEEE@plt>
   39390: 64 9f 00 94  	bl	0x61120 <_ZNSt3__112basic_stringIcNS_11char_traitsIcEENS_9allocatorIcEEEC1ERKS5_@plt>
   393bc: 59 9f 00 94  	bl	0x61120 <_ZNSt3__112basic_stringIcNS_11char_traitsIcEENS_9allocatorIcEEEC1ERKS5_@plt>
   393e8: 4e 9f 00 94  	bl	0x61120 <_ZNSt3__112basic_stringIcNS_11char_traitsIcEENS_9allocatorIcEEEC1ERKS5_@plt>
   39414: 43 9f 00 94  	bl	0x61120 <_ZNSt3__112basic_stringIcNS_11char_traitsIcEENS_9allocatorIcEEEC1ERKS5_@plt>
   3b270: 9c 97 00 94  	bl	0x610e0 <_ZN7android8hardware11hidl_stringC1EPKc@plt>
   3b2ac: 8d 97 00 94  	bl	0x610e0 <_ZN7android8hardware11hidl_stringC1EPKc@plt>
   3b2d8: 82 97 00 94  	bl	0x610e0 <_ZN7android8hardware11hidl_stringC1EPKc@plt>
   3b304: 77 97 00 94  	bl	0x610e0 <_ZN7android8hardware11hidl_stringC1EPKc@plt>
   3b330: 6c 97 00 94  	bl	0x610e0 <_ZN7android8hardware11hidl_stringC1EPKc@plt>
   3b35c: 61 97 00 94  	bl	0x610e0 <_ZN7android8hardware11hidl_stringC1EPKc@plt>
   3b388: 56 97 00 94  	bl	0x610e0 <_ZN7android8hardware11hidl_stringC1EPKc@plt>
   3b3b4: 4b 97 00 94  	bl	0x610e0 <_ZN7android8hardware11hidl_stringC1EPKc@plt>
   3b3e0: 40 97 00 94  	bl	0x610e0 <_ZN7android8hardware11hidl_stringC1EPKc@plt>
   3b40c: 35 97 00 94  	bl	0x610e0 <_ZN7android8hardware11hidl_stringC1EPKc@plt>
   3b438: 2a 97 00 94  	bl	0x610e0 <_ZN7android8hardware11hidl_stringC1EPKc@plt>
   3b464: 1f 97 00 94  	bl	0x610e0 <_ZN7android8hardware11hidl_stringC1EPKc@plt>
   3b490: 14 97 00 94  	bl	0x610e0 <_ZN7android8hardware11hidl_stringC1EPKc@plt>
   3b4bc: 09 97 00 94  	bl	0x610e0 <_ZN7android8hardware11hidl_stringC1EPKc@plt>
   3b4e8: fe 96 00 94  	bl	0x610e0 <_ZN7android8hardware11hidl_stringC1EPKc@plt>
   3b514: f3 96 00 94  	bl	0x610e0 <_ZN7android8hardware11hidl_stringC1EPKc@plt>
   3b540: e8 96 00 94  	bl	0x610e0 <_ZN7android8hardware11hidl_stringC1EPKc@plt>
   3b56c: dd 96 00 94  	bl	0x610e0 <_ZN7android8hardware11hidl_stringC1EPKc@plt>
   3b598: d2 96 00 94  	bl	0x610e0 <_ZN7android8hardware11hidl_stringC1EPKc@plt>
   3b5c4: c7 96 00 94  	bl	0x610e0 <_ZN7android8hardware11hidl_stringC1EPKc@plt>
   3b5f0: bc 96 00 94  	bl	0x610e0 <_ZN7android8hardware11hidl_stringC1EPKc@plt>
   3bb7c: 65 95 00 94  	bl	0x61110 <_ZN7android8hardware11hidl_stringC1ERKNSt3__112basic_stringIcNS2_11char_traitsIcEENS2_9allocatorIcEEEE@plt>
   3bba8: 5a 95 00 94  	bl	0x61110 <_ZN7android8hardware11hidl_stringC1ERKNSt3__112basic_stringIcNS2_11char_traitsIcEENS2_9allocatorIcEEEE@plt>
   3bbd4: 4f 95 00 94  	bl	0x61110 <_ZN7android8hardware11hidl_stringC1ERKNSt3__112basic_stringIcNS2_11char_traitsIcEENS2_9allocatorIcEEEE@plt>
   3bc00: 44 95 00 94  	bl	0x61110 <_ZN7android8hardware11hidl_stringC1ERKNSt3__112basic_stringIcNS2_11char_traitsIcEENS2_9allocatorIcEEEE@plt>
   3bc2c: 39 95 00 94  	bl	0x61110 <_ZN7android8hardware11hidl_stringC1ERKNSt3__112basic_stringIcNS2_11char_traitsIcEENS2_9allocatorIcEEEE@plt>
   3bc58: 2e 95 00 94  	bl	0x61110 <_ZN7android8hardware11hidl_stringC1ERKNSt3__112basic_stringIcNS2_11char_traitsIcEENS2_9allocatorIcEEEE@plt>
   3bc84: 23 95 00 94  	bl	0x61110 <_ZN7android8hardware11hidl_stringC1ERKNSt3__112basic_stringIcNS2_11char_traitsIcEENS2_9allocatorIcEEEE@plt>
   3bcb0: 18 95 00 94  	bl	0x61110 <_ZN7android8hardware11hidl_stringC1ERKNSt3__112basic_stringIcNS2_11char_traitsIcEENS2_9allocatorIcEEEE@plt>
   3bcdc: 0d 95 00 94  	bl	0x61110 <_ZN7android8hardware11hidl_stringC1ERKNSt3__112basic_stringIcNS2_11char_traitsIcEENS2_9allocatorIcEEEE@plt>
   3bd08: 02 95 00 94  	bl	0x61110 <_ZN7android8hardware11hidl_stringC1ERKNSt3__112basic_stringIcNS2_11char_traitsIcEENS2_9allocatorIcEEEE@plt>
   3bd34: f7 94 00 94  	bl	0x61110 <_ZN7android8hardware11hidl_stringC1ERKNSt3__112basic_stringIcNS2_11char_traitsIcEENS2_9allocatorIcEEEE@plt>
   3bd60: ec 94 00 94  	bl	0x61110 <_ZN7android8hardware11hidl_stringC1ERKNSt3__112basic_stringIcNS2_11char_traitsIcEENS2_9allocatorIcEEEE@plt>
   3bd8c: e1 94 00 94  	bl	0x61110 <_ZN7android8hardware11hidl_stringC1ERKNSt3__112basic_stringIcNS2_11char_traitsIcEENS2_9allocatorIcEEEE@plt>
   3bdb8: d6 94 00 94  	bl	0x61110 <_ZN7android8hardware11hidl_stringC1ERKNSt3__112basic_stringIcNS2_11char_traitsIcEENS2_9allocatorIcEEEE@plt>
   3bde4: cb 94 00 94  	bl	0x61110 <_ZN7android8hardware11hidl_stringC1ERKNSt3__112basic_stringIcNS2_11char_traitsIcEENS2_9allocatorIcEEEE@plt>
   3be10: c0 94 00 94  	bl	0x61110 <_ZN7android8hardware11hidl_stringC1ERKNSt3__112basic_stringIcNS2_11char_traitsIcEENS2_9allocatorIcEEEE@plt>
   3be3c: b5 94 00 94  	bl	0x61110 <_ZN7android8hardware11hidl_stringC1ERKNSt3__112basic_stringIcNS2_11char_traitsIcEENS2_9allocatorIcEEEE@plt>
   3be68: aa 94 00 94  	bl	0x61110 <_ZN7android8hardware11hidl_stringC1ERKNSt3__112basic_stringIcNS2_11char_traitsIcEENS2_9allocatorIcEEEE@plt>
   3be94: 9f 94 00 94  	bl	0x61110 <_ZN7android8hardware11hidl_stringC1ERKNSt3__112basic_stringIcNS2_11char_traitsIcEENS2_9allocatorIcEEEE@plt>
   3bec0: 94 94 00 94  	bl	0x61110 <_ZN7android8hardware11hidl_stringC1ERKNSt3__112basic_stringIcNS2_11char_traitsIcEENS2_9allocatorIcEEEE@plt>
   3beec: 89 94 00 94  	bl	0x61110 <_ZN7android8hardware11hidl_stringC1ERKNSt3__112basic_stringIcNS2_11char_traitsIcEENS2_9allocatorIcEEEE@plt>
   3bf18: 7e 94 00 94  	bl	0x61110 <_ZN7android8hardware11hidl_stringC1ERKNSt3__112basic_stringIcNS2_11char_traitsIcEENS2_9allocatorIcEEEE@plt>
   3bf44: 73 94 00 94  	bl	0x61110 <_ZN7android8hardware11hidl_stringC1ERKNSt3__112basic_stringIcNS2_11char_traitsIcEENS2_9allocatorIcEEEE@plt>
   3bf70: 68 94 00 94  	bl	0x61110 <_ZN7android8hardware11hidl_stringC1ERKNSt3__112basic_stringIcNS2_11char_traitsIcEENS2_9allocatorIcEEEE@plt>
   3bf9c: 5d 94 00 94  	bl	0x61110 <_ZN7android8hardware11hidl_stringC1ERKNSt3__112basic_stringIcNS2_11char_traitsIcEENS2_9allocatorIcEEEE@plt>
   3bfc8: 52 94 00 94  	bl	0x61110 <_ZN7android8hardware11hidl_stringC1ERKNSt3__112basic_stringIcNS2_11char_traitsIcEENS2_9allocatorIcEEEE@plt>
   3bff0: 4c 94 00 94  	bl	0x61120 <_ZNSt3__112basic_stringIcNS_11char_traitsIcEENS_9allocatorIcEEEC1ERKS5_@plt>
   3c01c: 41 94 00 94  	bl	0x61120 <_ZNSt3__112basic_stringIcNS_11char_traitsIcEENS_9allocatorIcEEEC1ERKS5_@plt>
   3c048: 36 94 00 94  	bl	0x61120 <_ZNSt3__112basic_stringIcNS_11char_traitsIcEENS_9allocatorIcEEEC1ERKS5_@plt>
   3c074: 2b 94 00 94  	bl	0x61120 <_ZNSt3__112basic_stringIcNS_11char_traitsIcEENS_9allocatorIcEEEC1ERKS5_@plt>
   3dec0: 88 8c 00 94  	bl	0x610e0 <_ZN7android8hardware11hidl_stringC1EPKc@plt>
   3defc: 79 8c 00 94  	bl	0x610e0 <_ZN7android8hardware11hidl_stringC1EPKc@plt>
   3df28: 6e 8c 00 94  	bl	0x610e0 <_ZN7android8hardware11hidl_stringC1EPKc@plt>
   3df54: 63 8c 00 94  	bl	0x610e0 <_ZN7android8hardware11hidl_stringC1EPKc@plt>
   3df80: 58 8c 00 94  	bl	0x610e0 <_ZN7android8hardware11hidl_stringC1EPKc@plt>
   3dfac: 4d 8c 00 94  	bl	0x610e0 <_ZN7android8hardware11hidl_stringC1EPKc@plt>
   3dfd8: 42 8c 00 94  	bl	0x610e0 <_ZN7android8hardware11hidl_stringC1EPKc@plt>
   3e004: 37 8c 00 94  	bl	0x610e0 <_ZN7android8hardware11hidl_stringC1EPKc@plt>
   3e030: 2c 8c 00 94  	bl	0x610e0 <_ZN7android8hardware11hidl_stringC1EPKc@plt>
   3e05c: 21 8c 00 94  	bl	0x610e0 <_ZN7android8hardware11hidl_stringC1EPKc@plt>
   3e088: 16 8c 00 94  	bl	0x610e0 <_ZN7android8hardware11hidl_stringC1EPKc@plt>
   3e0b4: 0b 8c 00 94  	bl	0x610e0 <_ZN7android8hardware11hidl_stringC1EPKc@plt>
   3e0e0: 00 8c 00 94  	bl	0x610e0 <_ZN7android8hardware11hidl_stringC1EPKc@plt>
   3e10c: f5 8b 00 94  	bl	0x610e0 <_ZN7android8hardware11hidl_stringC1EPKc@plt>
   3e138: ea 8b 00 94  	bl	0x610e0 <_ZN7android8hardware11hidl_stringC1EPKc@plt>
   3e164: df 8b 00 94  	bl	0x610e0 <_ZN7android8hardware11hidl_stringC1EPKc@plt>
   3e190: d4 8b 00 94  	bl	0x610e0 <_ZN7android8hardware11hidl_stringC1EPKc@plt>
   3e1bc: c9 8b 00 94  	bl	0x610e0 <_ZN7android8hardware11hidl_stringC1EPKc@plt>
   3e1e8: be 8b 00 94  	bl	0x610e0 <_ZN7android8hardware11hidl_stringC1EPKc@plt>
   3e214: b3 8b 00 94  	bl	0x610e0 <_ZN7android8hardware11hidl_stringC1EPKc@plt>
   3e240: a8 8b 00 94  	bl	0x610e0 <_ZN7android8hardware11hidl_stringC1EPKc@plt>
   3e7c4: 53 8a 00 94  	bl	0x61110 <_ZN7android8hardware11hidl_stringC1ERKNSt3__112basic_stringIcNS2_11char_traitsIcEENS2_9allocatorIcEEEE@plt>
   3e7f0: 48 8a 00 94  	bl	0x61110 <_ZN7android8hardware11hidl_stringC1ERKNSt3__112basic_stringIcNS2_11char_traitsIcEENS2_9allocatorIcEEEE@plt>
   3e81c: 3d 8a 00 94  	bl	0x61110 <_ZN7android8hardware11hidl_stringC1ERKNSt3__112basic_stringIcNS2_11char_traitsIcEENS2_9allocatorIcEEEE@plt>
   3e848: 32 8a 00 94  	bl	0x61110 <_ZN7android8hardware11hidl_stringC1ERKNSt3__112basic_stringIcNS2_11char_traitsIcEENS2_9allocatorIcEEEE@plt>
   3e874: 27 8a 00 94  	bl	0x61110 <_ZN7android8hardware11hidl_stringC1ERKNSt3__112basic_stringIcNS2_11char_traitsIcEENS2_9allocatorIcEEEE@plt>
   3e8a0: 1c 8a 00 94  	bl	0x61110 <_ZN7android8hardware11hidl_stringC1ERKNSt3__112basic_stringIcNS2_11char_traitsIcEENS2_9allocatorIcEEEE@plt>
   3e8cc: 11 8a 00 94  	bl	0x61110 <_ZN7android8hardware11hidl_stringC1ERKNSt3__112basic_stringIcNS2_11char_traitsIcEENS2_9allocatorIcEEEE@plt>
   3e8f8: 06 8a 00 94  	bl	0x61110 <_ZN7android8hardware11hidl_stringC1ERKNSt3__112basic_stringIcNS2_11char_traitsIcEENS2_9allocatorIcEEEE@plt>
   3e924: fb 89 00 94  	bl	0x61110 <_ZN7android8hardware11hidl_stringC1ERKNSt3__112basic_stringIcNS2_11char_traitsIcEENS2_9allocatorIcEEEE@plt>
   3e950: f0 89 00 94  	bl	0x61110 <_ZN7android8hardware11hidl_stringC1ERKNSt3__112basic_stringIcNS2_11char_traitsIcEENS2_9allocatorIcEEEE@plt>
   3e97c: e5 89 00 94  	bl	0x61110 <_ZN7android8hardware11hidl_stringC1ERKNSt3__112basic_stringIcNS2_11char_traitsIcEENS2_9allocatorIcEEEE@plt>
   3e9a8: da 89 00 94  	bl	0x61110 <_ZN7android8hardware11hidl_stringC1ERKNSt3__112basic_stringIcNS2_11char_traitsIcEENS2_9allocatorIcEEEE@plt>
   3e9d4: cf 89 00 94  	bl	0x61110 <_ZN7android8hardware11hidl_stringC1ERKNSt3__112basic_stringIcNS2_11char_traitsIcEENS2_9allocatorIcEEEE@plt>
   3ea00: c4 89 00 94  	bl	0x61110 <_ZN7android8hardware11hidl_stringC1ERKNSt3__112basic_stringIcNS2_11char_traitsIcEENS2_9allocatorIcEEEE@plt>
   3ea2c: b9 89 00 94  	bl	0x61110 <_ZN7android8hardware11hidl_stringC1ERKNSt3__112basic_stringIcNS2_11char_traitsIcEENS2_9allocatorIcEEEE@plt>
   3ea58: ae 89 00 94  	bl	0x61110 <_ZN7android8hardware11hidl_stringC1ERKNSt3__112basic_stringIcNS2_11char_traitsIcEENS2_9allocatorIcEEEE@plt>
   3ea84: a3 89 00 94  	bl	0x61110 <_ZN7android8hardware11hidl_stringC1ERKNSt3__112basic_stringIcNS2_11char_traitsIcEENS2_9allocatorIcEEEE@plt>
   3eab0: 98 89 00 94  	bl	0x61110 <_ZN7android8hardware11hidl_stringC1ERKNSt3__112basic_stringIcNS2_11char_traitsIcEENS2_9allocatorIcEEEE@plt>
   3eadc: 8d 89 00 94  	bl	0x61110 <_ZN7android8hardware11hidl_stringC1ERKNSt3__112basic_stringIcNS2_11char_traitsIcEENS2_9allocatorIcEEEE@plt>
   3eb08: 82 89 00 94  	bl	0x61110 <_ZN7android8hardware11hidl_stringC1ERKNSt3__112basic_stringIcNS2_11char_traitsIcEENS2_9allocatorIcEEEE@plt>
   3eb34: 77 89 00 94  	bl	0x61110 <_ZN7android8hardware11hidl_stringC1ERKNSt3__112basic_stringIcNS2_11char_traitsIcEENS2_9allocatorIcEEEE@plt>
   3eb60: 6c 89 00 94  	bl	0x61110 <_ZN7android8hardware11hidl_stringC1ERKNSt3__112basic_stringIcNS2_11char_traitsIcEENS2_9allocatorIcEEEE@plt>
   3eb8c: 61 89 00 94  	bl	0x61110 <_ZN7android8hardware11hidl_stringC1ERKNSt3__112basic_stringIcNS2_11char_traitsIcEENS2_9allocatorIcEEEE@plt>
   3ebb8: 56 89 00 94  	bl	0x61110 <_ZN7android8hardware11hidl_stringC1ERKNSt3__112basic_stringIcNS2_11char_traitsIcEENS2_9allocatorIcEEEE@plt>
   3ebe4: 4b 89 00 94  	bl	0x61110 <_ZN7android8hardware11hidl_stringC1ERKNSt3__112basic_stringIcNS2_11char_traitsIcEENS2_9allocatorIcEEEE@plt>
   3ec10: 40 89 00 94  	bl	0x61110 <_ZN7android8hardware11hidl_stringC1ERKNSt3__112basic_stringIcNS2_11char_traitsIcEENS2_9allocatorIcEEEE@plt>
   3ec38: 3a 89 00 94  	bl	0x61120 <_ZNSt3__112basic_stringIcNS_11char_traitsIcEENS_9allocatorIcEEEC1ERKS5_@plt>
   3ec64: 2f 89 00 94  	bl	0x61120 <_ZNSt3__112basic_stringIcNS_11char_traitsIcEENS_9allocatorIcEEEC1ERKS5_@plt>
   3ec90: 24 89 00 94  	bl	0x61120 <_ZNSt3__112basic_stringIcNS_11char_traitsIcEENS_9allocatorIcEEEC1ERKS5_@plt>
   3ecbc: 19 89 00 94  	bl	0x61120 <_ZNSt3__112basic_stringIcNS_11char_traitsIcEENS_9allocatorIcEEEC1ERKS5_@plt>
   3ed60: fc 88 00 14  	b	0x61150 <_ZN7android8hardware11hidl_stringD1Ev@plt>
   3ee1c: d1 88 00 94  	bl	0x61160 <_ZN15ChiFeature2Base10InitializeEP26ChiFeature2CreateInputInfo@plt>
   3eec8: b2 88 00 94  	bl	0x61190 <_ZN6ChiLog9LogSystemEPKcS1_S1_S1_iS1_z@plt>
   3efa0: 7c 88 00 94  	bl	0x61190 <_ZN6ChiLog9LogSystemEPKcS1_S1_S1_iS1_z@plt>
000000000003f010 <_ZN18ChiFeature2Generic7DestroyEv>:
   3f010: c0 01 00 b4  	cbz	x0, 0x3f048 <_ZN18ChiFeature2Generic7DestroyEv+0x38>
   3f024: 28 01 00 b0  	adrp	x8, 0x64000 <_ZNK18ChiFeature2Generic16OnMetadataResultEP24ChiFeature2RequestObjecthP20ChiFeature2StageInfoP21ChiFeature2IdentifierP11ChiMetadatajPv+0x30>
   3f034: c1 00 00 54  	b.ne	0x3f04c <_ZN18ChiFeature2Generic7DestroyEv+0x3c>
   3f070: f2 ff ff 17  	b	0x3f038 <_ZN18ChiFeature2Generic7DestroyEv+0x28>
000000000003f078 <_ZN18ChiFeature2Generic11OnDumpEventEimjP24ChiFeature2RequestObject>:
000000000003f080 <_ZNK18ChiFeature2Generic16OnPrepareRequestEP24ChiFeature2RequestObject>:
000000000003f088 <_ZNK18ChiFeature2Generic16OnMetadataResultEP24ChiFeature2RequestObjecthP20ChiFeature2StageInfoP21ChiFeature2IdentifierP11ChiMetadatajPv>:
   3f0d4: 37 88 00 94  	bl	0x611b0 <_ZN15ExtensionModule11GetInstanceEv@plt>
   3f0dc: 35 88 00 94  	bl	0x611b0 <_ZN15ExtensionModule11GetInstanceEv@plt>
   3f0e4: 33 88 00 94  	bl	0x611b0 <_ZN15ExtensionModule11GetInstanceEv@plt>
   3f0ec: 25 01 00 b0  	adrp	x5, 0x64000 <_ZNK18ChiFeature2Generic16OnMetadataResultEP24ChiFeature2RequestObjecthP20ChiFeature2StageInfoP21ChiFeature2IdentifierP11ChiMetadatajPv+0xf8>
   3f108: c1 36 00 54  	b.ne	0x3f7e0 <_ZNK18ChiFeature2Generic16OnMetadataResultEP24ChiFeature2RequestObjecthP20ChiFeature2StageInfoP21ChiFeature2IdentifierP11ChiMetadatajPv+0x758>
   3f118: 01 2a 00 54  	b.ne	0x3f658 <_ZNK18ChiFeature2Generic16OnMetadataResultEP24ChiFeature2RequestObjecthP20ChiFeature2StageInfoP21ChiFeature2IdentifierP11ChiMetadatajPv+0x5d0>
   3f11c: 25 88 00 94  	bl	0x611b0 <_ZN15ExtensionModule11GetInstanceEv@plt>
   3f124: a8 29 00 b4  	cbz	x8, 0x3f658 <_ZNK18ChiFeature2Generic16OnMetadataResultEP24ChiFeature2RequestObjecthP20ChiFeature2StageInfoP21ChiFeature2IdentifierP11ChiMetadatajPv+0x5d0>
   3f128: 95 29 00 35  	cbnz	w21, 0x3f658 <_ZNK18ChiFeature2Generic16OnMetadataResultEP24ChiFeature2RequestObjecthP20ChiFeature2StageInfoP21ChiFeature2IdentifierP11ChiMetadatajPv+0x5d0>
   3f134: 21 29 00 54  	b.ne	0x3f658 <_ZNK18ChiFeature2Generic16OnMetadataResultEP24ChiFeature2RequestObjecthP20ChiFeature2StageInfoP21ChiFeature2IdentifierP11ChiMetadatajPv+0x5d0>
   3f154: 1b 88 00 94  	bl	0x611c0 <_ZNK24ChiFeature2RequestObject23GetUsecaseRequestObjectEv@plt>
   3f1a0: 81 fe ff 90  	adrp	x1, 0xf000 <_ZNK18ChiFeature2Generic16OnMetadataResultEP24ChiFeature2RequestObjecthP20ChiFeature2StageInfoP21ChiFeature2IdentifierP11ChiMetadatajPv+0x58>
   3f1a4: 82 fe ff b0  	adrp	x2, 0x10000 <_ZNK18ChiFeature2Generic16OnMetadataResultEP24ChiFeature2RequestObjecthP20ChiFeature2StageInfoP21ChiFeature2IdentifierP11ChiMetadatajPv+0x60>
   3f1c0: 15 1f 00 b4  	cbz	x21, 0x3f5a0 <_ZNK18ChiFeature2Generic16OnMetadataResultEP24ChiFeature2RequestObjecthP20ChiFeature2StageInfoP21ChiFeature2IdentifierP11ChiMetadatajPv+0x518>
   3f1d0: 00 88 00 94  	bl	0x611d0 <_ZN8ChxUtils22isLogicalPreviewStreamEP17ChiCaptureRequest@plt>
   3f1e0: c1 23 00 54  	b.ne	0x3f658 <_ZNK18ChiFeature2Generic16OnMetadataResultEP24ChiFeature2RequestObjecthP20ChiFeature2StageInfoP21ChiFeature2IdentifierP11ChiMetadatajPv+0x5d0>
   3f1e4: a0 23 00 35  	cbnz	w0, 0x3f658 <_ZNK18ChiFeature2Generic16OnMetadataResultEP24ChiFeature2RequestObjecthP20ChiFeature2StageInfoP21ChiFeature2IdentifierP11ChiMetadatajPv+0x5d0>
   3f1f8: a0 00 00 54  	b.eq	0x3f20c <_ZNK18ChiFeature2Generic16OnMetadataResultEP24ChiFeature2RequestObjecthP20ChiFeature2StageInfoP21ChiFeature2IdentifierP11ChiMetadatajPv+0x184>
   3f200: 62 32 00 54  	b.hs	0x3f84c <_ZNK18ChiFeature2Generic16OnMetadataResultEP24ChiFeature2RequestObjecthP20ChiFeature2StageInfoP21ChiFeature2IdentifierP11ChiMetadatajPv+0x7c4>
   3f208: 88 22 00 54  	b.hi	0x3f658 <_ZNK18ChiFeature2Generic16OnMetadataResultEP24ChiFeature2RequestObjecthP20ChiFeature2StageInfoP21ChiFeature2IdentifierP11ChiMetadatajPv+0x5d0>
   3f210: 24 01 00 b0  	adrp	x4, 0x64000 <_ZNK18ChiFeature2Generic16OnMetadataResultEP24ChiFeature2RequestObjecthP20ChiFeature2StageInfoP21ChiFeature2IdentifierP11ChiMetadatajPv+0x21c>
   3f220: 41 30 00 54  	b.ne	0x3f828 <_ZNK18ChiFeature2Generic16OnMetadataResultEP24ChiFeature2RequestObjecthP20ChiFeature2StageInfoP21ChiFeature2IdentifierP11ChiMetadatajPv+0x7a0>
   3f228: 79 0d 00 b4  	cbz	x25, 0x3f3d4 <_ZNK18ChiFeature2Generic16OnMetadataResultEP24ChiFeature2RequestObjecthP20ChiFeature2StageInfoP21ChiFeature2IdentifierP11ChiMetadatajPv+0x34c>
   3f22c: 81 fe ff 90  	adrp	x1, 0xf000 <_ZNK18ChiFeature2Generic16OnMetadataResultEP24ChiFeature2RequestObjecthP20ChiFeature2StageInfoP21ChiFeature2IdentifierP11ChiMetadatajPv+0xe4>
   3f230: 82 fe ff b0  	adrp	x2, 0x10000 <_ZNK18ChiFeature2Generic16OnMetadataResultEP24ChiFeature2RequestObjecthP20ChiFeature2StageInfoP21ChiFeature2IdentifierP11ChiMetadatajPv+0xec>
   3f24c: e5 87 00 94  	bl	0x611e0 <_ZN19ChiFeature2DataPool6SetTagEPKcS1_PKvjj@plt>
   3f250: e0 05 00 34  	cbz	w0, 0x3f30c <_ZNK18ChiFeature2Generic16OnMetadataResultEP24ChiFeature2RequestObjecthP20ChiFeature2StageInfoP21ChiFeature2IdentifierP11ChiMetadatajPv+0x284>
   3f254: 20 01 00 b0  	adrp	x0, 0x64000 <_ZNK18ChiFeature2Generic16OnMetadataResultEP24ChiFeature2RequestObjecthP20ChiFeature2StageInfoP21ChiFeature2IdentifierP11ChiMetadatajPv+0x260>
   3f260: 6c 05 00 36  	tbz	w12, #0, 0x3f30c <_ZNK18ChiFeature2Generic16OnMetadataResultEP24ChiFeature2RequestObjecthP20ChiFeature2StageInfoP21ChiFeature2IdentifierP11ChiMetadatajPv+0x284>
   3f264: 2f 01 00 b0  	adrp	x15, 0x64000 <_ZNK18ChiFeature2Generic16OnMetadataResultEP24ChiFeature2RequestObjecthP20ChiFeature2StageInfoP21ChiFeature2IdentifierP11ChiMetadatajPv+0x270>
   3f278: 41 02 00 54  	b.ne	0x3f2c0 <_ZNK18ChiFeature2Generic16OnMetadataResultEP24ChiFeature2RequestObjecthP20ChiFeature2StageInfoP21ChiFeature2IdentifierP11ChiMetadatajPv+0x238>
   3f27c: 99 fe ff b0  	adrp	x25, 0x10000 <_ZNK18ChiFeature2Generic16OnMetadataResultEP24ChiFeature2RequestObjecthP20ChiFeature2StageInfoP21ChiFeature2IdentifierP11ChiMetadatajPv+0x138>
   3f298: 81 fe ff f0  	adrp	x1, 0x12000 <_ZNK18ChiFeature2Generic16OnMetadataResultEP24ChiFeature2RequestObjecthP20ChiFeature2StageInfoP21ChiFeature2IdentifierP11ChiMetadatajPv+0x15c>
   3f29c: a2 fe ff 90  	adrp	x2, 0x13000 <_ZNK18ChiFeature2Generic16OnMetadataResultEP24ChiFeature2RequestObjecthP20ChiFeature2StageInfoP21ChiFeature2IdentifierP11ChiMetadatajPv+0x164>
   3f2a0: 65 fe ff b0  	adrp	x5, 0xc000 <_ZNK18ChiFeature2Generic16OnMetadataResultEP24ChiFeature2RequestObjecthP20ChiFeature2StageInfoP21ChiFeature2IdentifierP11ChiMetadatajPv+0x14c>
   3f2c0: 99 fe ff b0  	adrp	x25, 0x10000 <_ZNK18ChiFeature2Generic16OnMetadataResultEP24ChiFeature2RequestObjecthP20ChiFeature2StageInfoP21ChiFeature2IdentifierP11ChiMetadatajPv+0x17c>
   3f2dc: 81 fe ff f0  	adrp	x1, 0x12000 <_ZNK18ChiFeature2Generic16OnMetadataResultEP24ChiFeature2RequestObjecthP20ChiFeature2StageInfoP21ChiFeature2IdentifierP11ChiMetadatajPv+0x1a0>
   3f2e4: 60 fe ff b0  	adrp	x0, 0xc000 <_ZNK18ChiFeature2Generic16OnMetadataResultEP24ChiFeature2RequestObjecthP20ChiFeature2StageInfoP21ChiFeature2IdentifierP11ChiMetadatajPv+0x190>
   3f2e8: 63 fe ff b0  	adrp	x3, 0xc000 <_ZNK18ChiFeature2Generic16OnMetadataResultEP24ChiFeature2RequestObjecthP20ChiFeature2StageInfoP21ChiFeature2IdentifierP11ChiMetadatajPv+0x194>
   3f2ec: 65 fe ff 90  	adrp	x5, 0xb000 <_ZNK18ChiFeature2Generic16OnMetadataResultEP24ChiFeature2RequestObjecthP20ChiFeature2StageInfoP21ChiFeature2IdentifierP11ChiMetadatajPv+0x194>
   3f304: a3 87 00 94  	bl	0x61190 <_ZN6ChiLog9LogSystemEPKcS1_S1_S1_iS1_z@plt>
   3f30c: 3c 01 00 b0  	adrp	x28, 0x64000 <_ZNK18ChiFeature2Generic16OnMetadataResultEP24ChiFeature2RequestObjecthP20ChiFeature2StageInfoP21ChiFeature2IdentifierP11ChiMetadatajPv+0x318>
   3f318: ed 05 28 36  	tbz	w13, #5, 0x3f3d4 <_ZNK18ChiFeature2Generic16OnMetadataResultEP24ChiFeature2RequestObjecthP20ChiFeature2StageInfoP21ChiFeature2IdentifierP11ChiMetadatajPv+0x34c>
   3f31c: 30 01 00 b0  	adrp	x16, 0x64000 <_ZNK18ChiFeature2Generic16OnMetadataResultEP24ChiFeature2RequestObjecthP20ChiFeature2StageInfoP21ChiFeature2IdentifierP11ChiMetadatajPv+0x328>
   3f330: 81 02 00 54  	b.ne	0x3f380 <_ZNK18ChiFeature2Generic16OnMetadataResultEP24ChiFeature2RequestObjecthP20ChiFeature2StageInfoP21ChiFeature2IdentifierP11ChiMetadatajPv+0x2f8>
   3f334: 99 fe ff b0  	adrp	x25, 0x10000 <_ZNK18ChiFeature2Generic16OnMetadataResultEP24ChiFeature2RequestObjecthP20ChiFeature2StageInfoP21ChiFeature2IdentifierP11ChiMetadatajPv+0x1f0>
   3f354: 81 fe ff f0  	adrp	x1, 0x12000 <_ZNK18ChiFeature2Generic16OnMetadataResultEP24ChiFeature2RequestObjecthP20ChiFeature2StageInfoP21ChiFeature2IdentifierP11ChiMetadatajPv+0x218>
   3f358: 62 fe ff b0  	adrp	x2, 0xc000 <_ZNK18ChiFeature2Generic16OnMetadataResultEP24ChiFeature2RequestObjecthP20ChiFeature2StageInfoP21ChiFeature2IdentifierP11ChiMetadatajPv+0x204>
   3f35c: 65 fe ff b0  	adrp	x5, 0xc000 <_ZNK18ChiFeature2Generic16OnMetadataResultEP24ChiFeature2RequestObjecthP20ChiFeature2StageInfoP21ChiFeature2IdentifierP11ChiMetadatajPv+0x208>
   3f380: 99 fe ff b0  	adrp	x25, 0x10000 <_ZNK18ChiFeature2Generic16OnMetadataResultEP24ChiFeature2RequestObjecthP20ChiFeature2StageInfoP21ChiFeature2IdentifierP11ChiMetadatajPv+0x23c>
   3f3a4: 80 fe ff f0  	adrp	x0, 0x12000 <_ZNK18ChiFeature2Generic16OnMetadataResultEP24ChiFeature2RequestObjecthP20ChiFeature2StageInfoP21ChiFeature2IdentifierP11ChiMetadatajPv+0x268>
   3f3a8: 81 fe ff b0  	adrp	x1, 0x10000 <_ZNK18ChiFeature2Generic16OnMetadataResultEP24ChiFeature2RequestObjecthP20ChiFeature2StageInfoP21ChiFeature2IdentifierP11ChiMetadatajPv+0x264>
   3f3ac: 63 fe ff b0  	adrp	x3, 0xc000 <_ZNK18ChiFeature2Generic16OnMetadataResultEP24ChiFeature2RequestObjecthP20ChiFeature2StageInfoP21ChiFeature2IdentifierP11ChiMetadatajPv+0x258>
   3f3b0: 85 fe ff f0  	adrp	x5, 0x12000 <_ZNK18ChiFeature2Generic16OnMetadataResultEP24ChiFeature2RequestObjecthP20ChiFeature2StageInfoP21ChiFeature2IdentifierP11ChiMetadatajPv+0x274>
   3f3cc: 71 87 00 94  	bl	0x61190 <_ZN6ChiLog9LogSystemEPKcS1_S1_S1_iS1_z@plt>
   3f3f8: 81 fe ff 90  	adrp	x1, 0xf000 <_ZNK18ChiFeature2Generic16OnMetadataResultEP24ChiFeature2RequestObjecthP20ChiFeature2StageInfoP21ChiFeature2IdentifierP11ChiMetadatajPv+0x2b0>
   3f3fc: 82 fe ff 90  	adrp	x2, 0xf000 <_ZNK18ChiFeature2Generic16OnMetadataResultEP24ChiFeature2RequestObjecthP20ChiFeature2StageInfoP21ChiFeature2IdentifierP11ChiMetadatajPv+0x2b4>
   3f414: 39 12 00 b4  	cbz	x25, 0x3f658 <_ZNK18ChiFeature2Generic16OnMetadataResultEP24ChiFeature2RequestObjecthP20ChiFeature2StageInfoP21ChiFeature2IdentifierP11ChiMetadatajPv+0x5d0>
   3f41c: fc 11 00 b4  	cbz	x28, 0x3f658 <_ZNK18ChiFeature2Generic16OnMetadataResultEP24ChiFeature2RequestObjecthP20ChiFeature2StageInfoP21ChiFeature2IdentifierP11ChiMetadatajPv+0x5d0>
   3f430: 27 00 00 14  	b	0x3f4cc <_ZNK18ChiFeature2Generic16OnMetadataResultEP24ChiFeature2RequestObjecthP20ChiFeature2StageInfoP21ChiFeature2IdentifierP11ChiMetadatajPv+0x444>
   3f438: c8 20 00 54  	b.hi	0x3f850 <_ZNK18ChiFeature2Generic16OnMetadataResultEP24ChiFeature2RequestObjecthP20ChiFeature2StageInfoP21ChiFeature2IdentifierP11ChiMetadatajPv+0x7c8>
   3f440: 8d fe ff b0  	adrp	x13, 0x10000 <_ZNK18ChiFeature2Generic16OnMetadataResultEP24ChiFeature2RequestObjecthP20ChiFeature2StageInfoP21ChiFeature2IdentifierP11ChiMetadatajPv+0x2fc>
   3f458: 80 fe ff f0  	adrp	x0, 0x12000 <_ZNK18ChiFeature2Generic16OnMetadataResultEP24ChiFeature2RequestObjecthP20ChiFeature2StageInfoP21ChiFeature2IdentifierP11ChiMetadatajPv+0x31c>
   3f460: 81 fe ff b0  	adrp	x1, 0x10000 <_ZNK18ChiFeature2Generic16OnMetadataResultEP24ChiFeature2RequestObjecthP20ChiFeature2StageInfoP21ChiFeature2IdentifierP11ChiMetadatajPv+0x31c>
   3f468: a5 fe ff 90  	adrp	x5, 0x13000 <_ZNK18ChiFeature2Generic16OnMetadataResultEP24ChiFeature2RequestObjecthP20ChiFeature2StageInfoP21ChiFeature2IdentifierP11ChiMetadatajPv+0x330>
   3f480: 63 fe ff b0  	adrp	x3, 0xc000 <_ZNK18ChiFeature2Generic16OnMetadataResultEP24ChiFeature2RequestObjecthP20ChiFeature2StageInfoP21ChiFeature2IdentifierP11ChiMetadatajPv+0x32c>
   3f4b0: 38 87 00 94  	bl	0x61190 <_ZN6ChiLog9LogSystemEPKcS1_S1_S1_iS1_z@plt>
   3f4c8: 20 1c 00 54  	b.eq	0x3f84c <_ZNK18ChiFeature2Generic16OnMetadataResultEP24ChiFeature2RequestObjecthP20ChiFeature2StageInfoP21ChiFeature2IdentifierP11ChiMetadatajPv+0x7c4>
   3f4d4: 82 11 00 54  	b.hs	0x3f704 <_ZNK18ChiFeature2Generic16OnMetadataResultEP24ChiFeature2RequestObjecthP20ChiFeature2StageInfoP21ChiFeature2IdentifierP11ChiMetadatajPv+0x67c>
   3f4d8: 26 01 00 b0  	adrp	x6, 0x64000 <_ZNK18ChiFeature2Generic16OnMetadataResultEP24ChiFeature2RequestObjecthP20ChiFeature2StageInfoP21ChiFeature2IdentifierP11ChiMetadatajPv+0x4e4>
   3f4e4: ae fe 2f 36  	tbz	w14, #5, 0x3f4b8 <_ZNK18ChiFeature2Generic16OnMetadataResultEP24ChiFeature2RequestObjecthP20ChiFeature2StageInfoP21ChiFeature2IdentifierP11ChiMetadatajPv+0x430>
   3f4e8: 34 01 00 b0  	adrp	x20, 0x64000 <_ZNK18ChiFeature2Generic16OnMetadataResultEP24ChiFeature2RequestObjecthP20ChiFeature2StageInfoP21ChiFeature2IdentifierP11ChiMetadatajPv+0x4f4>
   3f4ec: 80 fe ff b0  	adrp	x0, 0x10000 <_ZNK18ChiFeature2Generic16OnMetadataResultEP24ChiFeature2RequestObjecthP20ChiFeature2StageInfoP21ChiFeature2IdentifierP11ChiMetadatajPv+0x3a8>
   3f50c: 41 f9 ff 54  	b.ne	0x3f434 <_ZNK18ChiFeature2Generic16OnMetadataResultEP24ChiFeature2RequestObjecthP20ChiFeature2StageInfoP21ChiFeature2IdentifierP11ChiMetadatajPv+0x3ac>
   3f514: e2 19 00 54  	b.hs	0x3f850 <_ZNK18ChiFeature2Generic16OnMetadataResultEP24ChiFeature2RequestObjecthP20ChiFeature2StageInfoP21ChiFeature2IdentifierP11ChiMetadatajPv+0x7c8>
   3f51c: 94 fe ff b0  	adrp	x20, 0x10000 <_ZNK18ChiFeature2Generic16OnMetadataResultEP24ChiFeature2RequestObjecthP20ChiFeature2StageInfoP21ChiFeature2IdentifierP11ChiMetadatajPv+0x3d8>
   3f54c: 81 fe ff f0  	adrp	x1, 0x12000 <_ZNK18ChiFeature2Generic16OnMetadataResultEP24ChiFeature2RequestObjecthP20ChiFeature2StageInfoP21ChiFeature2IdentifierP11ChiMetadatajPv+0x410>
   3f554: 65 fe ff b0  	adrp	x5, 0xc000 <_ZNK18ChiFeature2Generic16OnMetadataResultEP24ChiFeature2RequestObjecthP20ChiFeature2StageInfoP21ChiFeature2IdentifierP11ChiMetadatajPv+0x400>
   3f55c: 82 fe ff f0  	adrp	x2, 0x12000 <_ZNK18ChiFeature2Generic16OnMetadataResultEP24ChiFeature2RequestObjecthP20ChiFeature2StageInfoP21ChiFeature2IdentifierP11ChiMetadatajPv+0x420>
   3f59c: a8 ff ff 17  	b	0x3f43c <_ZNK18ChiFeature2Generic16OnMetadataResultEP24ChiFeature2RequestObjecthP20ChiFeature2StageInfoP21ChiFeature2IdentifierP11ChiMetadatajPv+0x3b4>
   3f5a0: 2c 01 00 b0  	adrp	x12, 0x64000 <_ZNK18ChiFeature2Generic16OnMetadataResultEP24ChiFeature2RequestObjecthP20ChiFeature2StageInfoP21ChiFeature2IdentifierP11ChiMetadatajPv+0x5ac>
   3f5b4: 2a 05 18 36  	tbz	w10, #3, 0x3f658 <_ZNK18ChiFeature2Generic16OnMetadataResultEP24ChiFeature2RequestObjecthP20ChiFeature2StageInfoP21ChiFeature2IdentifierP11ChiMetadatajPv+0x5d0>
   3f5b8: 2d 01 00 b0  	adrp	x13, 0x64000 <_ZNK18ChiFeature2Generic16OnMetadataResultEP24ChiFeature2RequestObjecthP20ChiFeature2StageInfoP21ChiFeature2IdentifierP11ChiMetadatajPv+0x5c4>
   3f5c8: 41 02 00 54  	b.ne	0x3f610 <_ZNK18ChiFeature2Generic16OnMetadataResultEP24ChiFeature2RequestObjecthP20ChiFeature2StageInfoP21ChiFeature2IdentifierP11ChiMetadatajPv+0x588>
   3f5cc: 95 fe ff b0  	adrp	x21, 0x10000 <_ZNK18ChiFeature2Generic16OnMetadataResultEP24ChiFeature2RequestObjecthP20ChiFeature2StageInfoP21ChiFeature2IdentifierP11ChiMetadatajPv+0x488>
   3f5e8: 81 fe ff f0  	adrp	x1, 0x12000 <_ZNK18ChiFeature2Generic16OnMetadataResultEP24ChiFeature2RequestObjecthP20ChiFeature2StageInfoP21ChiFeature2IdentifierP11ChiMetadatajPv+0x4ac>
   3f5ec: 62 fe ff f0  	adrp	x2, 0xe000 <_ZNK18ChiFeature2Generic16OnMetadataResultEP24ChiFeature2RequestObjecthP20ChiFeature2StageInfoP21ChiFeature2IdentifierP11ChiMetadatajPv+0x4a0>
   3f5f0: 65 fe ff b0  	adrp	x5, 0xc000 <_ZNK18ChiFeature2Generic16OnMetadataResultEP24ChiFeature2RequestObjecthP20ChiFeature2StageInfoP21ChiFeature2IdentifierP11ChiMetadatajPv+0x49c>
   3f610: 95 fe ff b0  	adrp	x21, 0x10000 <_ZNK18ChiFeature2Generic16OnMetadataResultEP24ChiFeature2RequestObjecthP20ChiFeature2StageInfoP21ChiFeature2IdentifierP11ChiMetadatajPv+0x4cc>
   3f62c: 81 fe ff 90  	adrp	x1, 0xf000 <_ZNK18ChiFeature2Generic16OnMetadataResultEP24ChiFeature2RequestObjecthP20ChiFeature2StageInfoP21ChiFeature2IdentifierP11ChiMetadatajPv+0x4e4>
   3f634: a0 fe ff 90  	adrp	x0, 0x13000 <_ZNK18ChiFeature2Generic16OnMetadataResultEP24ChiFeature2RequestObjecthP20ChiFeature2StageInfoP21ChiFeature2IdentifierP11ChiMetadatajPv+0x4fc>
   3f638: 63 fe ff b0  	adrp	x3, 0xc000 <_ZNK18ChiFeature2Generic16OnMetadataResultEP24ChiFeature2RequestObjecthP20ChiFeature2StageInfoP21ChiFeature2IdentifierP11ChiMetadatajPv+0x4e4>
   3f63c: 85 fe ff 90  	adrp	x5, 0xf000 <_ZNK18ChiFeature2Generic16OnMetadataResultEP24ChiFeature2RequestObjecthP20ChiFeature2StageInfoP21ChiFeature2IdentifierP11ChiMetadatajPv+0x4f4>
   3f654: cf 86 00 94  	bl	0x61190 <_ZN6ChiLog9LogSystemEPKcS1_S1_S1_iS1_z@plt>
   3f65c: 35 01 00 b0  	adrp	x21, 0x64000 <_ZNK18ChiFeature2Generic16OnMetadataResultEP24ChiFeature2RequestObjecthP20ChiFeature2StageInfoP21ChiFeature2IdentifierP11ChiMetadatajPv+0x668>
   3f670: 86 01 00 34  	cbz	w6, 0x3f6a0 <_ZNK18ChiFeature2Generic16OnMetadataResultEP24ChiFeature2RequestObjecthP20ChiFeature2StageInfoP21ChiFeature2IdentifierP11ChiMetadatajPv+0x618>
   3f680: 81 0c 00 54  	b.ne	0x3f810 <_ZNK18ChiFeature2Generic16OnMetadataResultEP24ChiFeature2RequestObjecthP20ChiFeature2StageInfoP21ChiFeature2IdentifierP11ChiMetadatajPv+0x788>
   3f69c: d5 86 00 94  	bl	0x611f0 <_ZNK15ChiFeature2Base16ProcessDebugDataEP24ChiFeature2RequestObjectPK20ChiFeature2StageInfoPK21ChiFeature2IdentifierP11ChiMetadataj@plt>
   3f6ac: 61 0a 00 54  	b.ne	0x3f7f8 <_ZNK18ChiFeature2Generic16OnMetadataResultEP24ChiFeature2RequestObjecthP20ChiFeature2StageInfoP21ChiFeature2IdentifierP11ChiMetadatajPv+0x770>
   3f6d0: cc 86 00 94  	bl	0x61200 <_ZNK15ChiFeature2Base16OnMetadataResultEP24ChiFeature2RequestObjecthP20ChiFeature2StageInfoP21ChiFeature2IdentifierP11ChiMetadatajPv@plt>
   3f6e0: 41 0b 00 54  	b.ne	0x3f848 <_ZNK18ChiFeature2Generic16OnMetadataResultEP24ChiFeature2RequestObjecthP20ChiFeature2StageInfoP21ChiFeature2IdentifierP11ChiMetadatajPv+0x7c0>
   3f704: 81 fe ff 90  	adrp	x1, 0xf000 <_ZNK18ChiFeature2Generic16OnMetadataResultEP24ChiFeature2RequestObjecthP20ChiFeature2StageInfoP21ChiFeature2IdentifierP11ChiMetadatajPv+0x5bc>
   3f708: 82 fe ff 90  	adrp	x2, 0xf000 <_ZNK18ChiFeature2Generic16OnMetadataResultEP24ChiFeature2RequestObjecthP20ChiFeature2StageInfoP21ChiFeature2IdentifierP11ChiMetadatajPv+0x5c0>
   3f724: af 86 00 94  	bl	0x611e0 <_ZN19ChiFeature2DataPool6SetTagEPKcS1_PKvjj@plt>
   3f72c: 60 f9 ff 34  	cbz	w0, 0x3f658 <_ZNK18ChiFeature2Generic16OnMetadataResultEP24ChiFeature2RequestObjecthP20ChiFeature2StageInfoP21ChiFeature2IdentifierP11ChiMetadatajPv+0x5d0>
   3f730: 27 01 00 b0  	adrp	x7, 0x64000 <_ZNK18ChiFeature2Generic16OnMetadataResultEP24ChiFeature2RequestObjecthP20ChiFeature2StageInfoP21ChiFeature2IdentifierP11ChiMetadatajPv+0x73c>
   3f73c: e0 f8 07 36  	tbz	w0, #0, 0x3f658 <_ZNK18ChiFeature2Generic16OnMetadataResultEP24ChiFeature2RequestObjecthP20ChiFeature2StageInfoP21ChiFeature2IdentifierP11ChiMetadatajPv+0x5d0>
   3f740: 39 01 00 b0  	adrp	x25, 0x64000 <_ZNK18ChiFeature2Generic16OnMetadataResultEP24ChiFeature2RequestObjecthP20ChiFeature2StageInfoP21ChiFeature2IdentifierP11ChiMetadatajPv+0x74c>
   3f750: 41 02 00 54  	b.ne	0x3f798 <_ZNK18ChiFeature2Generic16OnMetadataResultEP24ChiFeature2RequestObjecthP20ChiFeature2StageInfoP21ChiFeature2IdentifierP11ChiMetadatajPv+0x710>
   3f754: 95 fe ff b0  	adrp	x21, 0x10000 <_ZNK18ChiFeature2Generic16OnMetadataResultEP24ChiFeature2RequestObjecthP20ChiFeature2StageInfoP21ChiFeature2IdentifierP11ChiMetadatajPv+0x610>
   3f770: 81 fe ff f0  	adrp	x1, 0x12000 <_ZNK18ChiFeature2Generic16OnMetadataResultEP24ChiFeature2RequestObjecthP20ChiFeature2StageInfoP21ChiFeature2IdentifierP11ChiMetadatajPv+0x634>
   3f774: 62 fe ff b0  	adrp	x2, 0xc000 <_ZNK18ChiFeature2Generic16OnMetadataResultEP24ChiFeature2RequestObjecthP20ChiFeature2StageInfoP21ChiFeature2IdentifierP11ChiMetadatajPv+0x620>
   3f778: 65 fe ff b0  	adrp	x5, 0xc000 <_ZNK18ChiFeature2Generic16OnMetadataResultEP24ChiFeature2RequestObjecthP20ChiFeature2StageInfoP21ChiFeature2IdentifierP11ChiMetadatajPv+0x624>
   3f798: 99 fe ff b0  	adrp	x25, 0x10000 <_ZNK18ChiFeature2Generic16OnMetadataResultEP24ChiFeature2RequestObjecthP20ChiFeature2StageInfoP21ChiFeature2IdentifierP11ChiMetadatajPv+0x654>
   3f7b4: 81 fe ff f0  	adrp	x1, 0x12000 <_ZNK18ChiFeature2Generic16OnMetadataResultEP24ChiFeature2RequestObjecthP20ChiFeature2StageInfoP21ChiFeature2IdentifierP11ChiMetadatajPv+0x678>
   3f7bc: 60 fe ff b0  	adrp	x0, 0xc000 <_ZNK18ChiFeature2Generic16OnMetadataResultEP24ChiFeature2RequestObjecthP20ChiFeature2StageInfoP21ChiFeature2IdentifierP11ChiMetadatajPv+0x668>
   3f7c0: 63 fe ff b0  	adrp	x3, 0xc000 <_ZNK18ChiFeature2Generic16OnMetadataResultEP24ChiFeature2RequestObjecthP20ChiFeature2StageInfoP21ChiFeature2IdentifierP11ChiMetadatajPv+0x66c>
   3f7c4: 65 fe ff d0  	adrp	x5, 0xd000 <_ZNK18ChiFeature2Generic16OnMetadataResultEP24ChiFeature2RequestObjecthP20ChiFeature2StageInfoP21ChiFeature2IdentifierP11ChiMetadatajPv+0x674>
   3f7dc: 9e ff ff 17  	b	0x3f654 <_ZNK18ChiFeature2Generic16OnMetadataResultEP24ChiFeature2RequestObjecthP20ChiFeature2StageInfoP21ChiFeature2IdentifierP11ChiMetadatajPv+0x5cc>
   3f7f4: 46 fe ff 17  	b	0x3f10c <_ZNK18ChiFeature2Generic16OnMetadataResultEP24ChiFeature2RequestObjecthP20ChiFeature2StageInfoP21ChiFeature2IdentifierP11ChiMetadatajPv+0x84>
   3f80c: a9 ff ff 17  	b	0x3f6b0 <_ZNK18ChiFeature2Generic16OnMetadataResultEP24ChiFeature2RequestObjecthP20ChiFeature2StageInfoP21ChiFeature2IdentifierP11ChiMetadatajPv+0x628>
   3f824: 98 ff ff 17  	b	0x3f684 <_ZNK18ChiFeature2Generic16OnMetadataResultEP24ChiFeature2RequestObjecthP20ChiFeature2StageInfoP21ChiFeature2IdentifierP11ChiMetadatajPv+0x5fc>
   3f840: 79 cf ff b5  	cbnz	x25, 0x3f22c <_ZNK18ChiFeature2Generic16OnMetadataResultEP24ChiFeature2RequestObjecthP20ChiFeature2StageInfoP21ChiFeature2IdentifierP11ChiMetadatajPv+0x1a4>
   3f844: e4 fe ff 17  	b	0x3f3d4 <_ZNK18ChiFeature2Generic16OnMetadataResultEP24ChiFeature2RequestObjecthP20ChiFeature2StageInfoP21ChiFeature2IdentifierP11ChiMetadatajPv+0x34c>
000000000003f858 <_ZNK18ChiFeature2Generic16DoCleanupRequestEP24ChiFeature2RequestObject>:
000000000003f860 <_ZN18ChiFeature2Generic7DoFlushEv>:
000000000003f868 <_ZN18ChiFeature2Generic32CalculateMaxFeatureExecutionTimeEv>:
000000000003f870 <_ZNK18ChiFeature2Generic20OnPopulateDependencyEP24ChiFeature2RequestObject>:
   3f880: 29 01 00 b0  	adrp	x9, 0x64000 <_ZNK18ChiFeature2Generic28OnPopulateDependencySettingsEP24ChiFeature2RequestObjecthPK21ChiFeature2IdentifierP11ChiMetadata+0x4c>
   3f890: 81 00 00 54  	b.ne	0x3f8a0 <_ZNK18ChiFeature2Generic20OnPopulateDependencyEP24ChiFeature2RequestObject+0x30>
   3f89c: 65 86 00 14  	b	0x61230 <_ZNK15ChiFeature2Base20OnPopulateDependencyEP24ChiFeature2RequestObject@plt>
   3f8c4: f4 ff ff 17  	b	0x3f894 <_ZNK18ChiFeature2Generic20OnPopulateDependencyEP24ChiFeature2RequestObject+0x24>
000000000003f8c8 <_ZNK18ChiFeature2Generic28OnPopulateDependencySettingsEP24ChiFeature2RequestObjecthPK21ChiFeature2IdentifierP11ChiMetadata>:
   3f900: 28 01 00 b0  	adrp	x8, 0x64000 <_ZNK18ChiFeature2Generic28OnPopulateDependencySettingsEP24ChiFeature2RequestObjecthPK21ChiFeature2IdentifierP11ChiMetadata+0xcc>
   3f914: a1 0f 00 54  	b.ne	0x3fb08 <_ZNK18ChiFeature2Generic28OnPopulateDependencySettingsEP24ChiFeature2RequestObjecthPK21ChiFeature2IdentifierP11ChiMetadata+0x240>
   3f928: 46 86 00 94  	bl	0x61240 <_ZNK15ChiFeature2Base28OnPopulateDependencySettingsEP24ChiFeature2RequestObjecthPK21ChiFeature2IdentifierP11ChiMetadata@plt>
   3f938: 81 0f 00 54  	b.ne	0x3fb28 <_ZNK18ChiFeature2Generic28OnPopulateDependencySettingsEP24ChiFeature2RequestObjecthPK21ChiFeature2IdentifierP11ChiMetadata+0x260>
   3f948: 81 0c 00 54  	b.ne	0x3fad8 <_ZNK18ChiFeature2Generic28OnPopulateDependencySettingsEP24ChiFeature2RequestObjecthPK21ChiFeature2IdentifierP11ChiMetadata+0x210>
   3f958: 08 0c 20 36  	tbz	w8, #4, 0x3fad8 <_ZNK18ChiFeature2Generic28OnPopulateDependencySettingsEP24ChiFeature2RequestObjecthPK21ChiFeature2IdentifierP11ChiMetadata+0x210>
   3f95c: 2a 01 00 b0  	adrp	x10, 0x64000 <_ZNK18ChiFeature2Generic28OnPopulateDependencySettingsEP24ChiFeature2RequestObjecthPK21ChiFeature2IdentifierP11ChiMetadata+0x128>
   3f968: e9 04 18 36  	tbz	w9, #3, 0x3fa04 <_ZNK18ChiFeature2Generic28OnPopulateDependencySettingsEP24ChiFeature2RequestObjecthPK21ChiFeature2IdentifierP11ChiMetadata+0x13c>
   3f96c: 2b 01 00 b0  	adrp	x11, 0x64000 <_ZNK18ChiFeature2Generic28OnPopulateDependencySettingsEP24ChiFeature2RequestObjecthPK21ChiFeature2IdentifierP11ChiMetadata+0x138>
   3f970: 95 fe ff b0  	adrp	x21, 0x10000 <_ZNK18ChiFeature2Generic20OnPopulateDependencyEP24ChiFeature2RequestObject+0x44>
   3f984: 01 02 00 54  	b.ne	0x3f9c4 <_ZNK18ChiFeature2Generic28OnPopulateDependencySettingsEP24ChiFeature2RequestObjecthPK21ChiFeature2IdentifierP11ChiMetadata+0xfc>
   3f99c: 81 fe ff f0  	adrp	x1, 0x12000 <_ZNK18ChiFeature2Generic28OnPopulateDependencySettingsEP24ChiFeature2RequestObjecthPK21ChiFeature2IdentifierP11ChiMetadata+0x20>
   3f9a0: 82 fe ff 90  	adrp	x2, 0xf000 <_ZNK18ChiFeature2Generic28OnPopulateDependencySettingsEP24ChiFeature2RequestObjecthPK21ChiFeature2IdentifierP11ChiMetadata+0x18>
   3f9a4: 85 fe ff b0  	adrp	x5, 0x10000 <_ZNK18ChiFeature2Generic28OnPopulateDependencySettingsEP24ChiFeature2RequestObjecthPK21ChiFeature2IdentifierP11ChiMetadata+0x20>
   3f9d8: 81 fe ff 90  	adrp	x1, 0xf000 <_ZNK18ChiFeature2Generic28OnPopulateDependencySettingsEP24ChiFeature2RequestObjecthPK21ChiFeature2IdentifierP11ChiMetadata+0x50>
   3f9e0: a0 fe ff 90  	adrp	x0, 0x13000 <_ZNK18ChiFeature2Generic28OnPopulateDependencySettingsEP24ChiFeature2RequestObjecthPK21ChiFeature2IdentifierP11ChiMetadata+0x68>
   3f9e4: 83 fe ff b0  	adrp	x3, 0x10000 <_ZNK18ChiFeature2Generic28OnPopulateDependencySettingsEP24ChiFeature2RequestObjecthPK21ChiFeature2IdentifierP11ChiMetadata+0x60>
   3f9e8: 85 fe ff f0  	adrp	x5, 0x12000 <_ZNK18ChiFeature2Generic28OnPopulateDependencySettingsEP24ChiFeature2RequestObjecthPK21ChiFeature2IdentifierP11ChiMetadata+0x6c>
   3fa00: e4 85 00 94  	bl	0x61190 <_ZN6ChiLog9LogSystemEPKcS1_S1_S1_iS1_z@plt>
   3fa10: e8 85 00 94  	bl	0x611b0 <_ZN15ExtensionModule11GetInstanceEv@plt>
   3faa8: c2 85 00 94  	bl	0x611b0 <_ZN15ExtensionModule11GetInstanceEv@plt>
   3fae4: e1 02 00 54  	b.ne	0x3fb40 <_ZNK18ChiFeature2Generic28OnPopulateDependencySettingsEP24ChiFeature2RequestObjecthPK21ChiFeature2IdentifierP11ChiMetadata+0x278>
   3fb24: 7d ff ff 17  	b	0x3f918 <_ZNK18ChiFeature2Generic28OnPopulateDependencySettingsEP24ChiFeature2RequestObjecthPK21ChiFeature2IdentifierP11ChiMetadata+0x50>
   3fb3c: 80 ff ff 17  	b	0x3f93c <_ZNK18ChiFeature2Generic28OnPopulateDependencySettingsEP24ChiFeature2RequestObjecthPK21ChiFeature2IdentifierP11ChiMetadata+0x74>
000000000003fb48 <_ZN18ChiFeature2GenericD0Ev>:
   3fb58: be 85 00 94  	bl	0x61250 <_ZN15ChiFeature2BaseD2Ev@plt>
000000000003fb70 <_ZN18ChiFeature2Generic19OnConfigurePipelineERN15ChiFeature2Base22ChiFeaturePipelineDataE>:
   3fb80: 2f 01 00 b0  	adrp	x15, 0x64000 <_ZN18ChiFeature2Generic19OnConfigurePipelineERN15ChiFeature2Base22ChiFeaturePipelineDataE+0xa4>
   3fb90: 01 03 00 54  	b.ne	0x3fbf0 <_ZN18ChiFeature2Generic19OnConfigurePipelineERN15ChiFeature2Base22ChiFeaturePipelineDataE+0x80>
   3fba0: a0 01 00 54  	b.eq	0x3fbd4 <_ZN18ChiFeature2Generic19OnConfigurePipelineERN15ChiFeature2Base22ChiFeaturePipelineDataE+0x64>
   3fbb0: c1 04 00 54  	b.ne	0x3fc48 <_ZN18ChiFeature2Generic19OnConfigurePipelineERN15ChiFeature2Base22ChiFeaturePipelineDataE+0xd8>
   3fbb8: e0 00 00 54  	b.eq	0x3fbd4 <_ZN18ChiFeature2Generic19OnConfigurePipelineERN15ChiFeature2Base22ChiFeaturePipelineDataE+0x64>
   3fbc8: 01 06 00 54  	b.ne	0x3fc88 <_ZN18ChiFeature2Generic19OnConfigurePipelineERN15ChiFeature2Base22ChiFeaturePipelineDataE+0x118>
   3fbd0: a1 07 00 54  	b.ne	0x3fcc4 <_ZN18ChiFeature2Generic19OnConfigurePipelineERN15ChiFeature2Base22ChiFeaturePipelineDataE+0x154>
   3fbe0: 01 02 00 54  	b.ne	0x3fc20 <_ZN18ChiFeature2Generic19OnConfigurePipelineERN15ChiFeature2Base22ChiFeaturePipelineDataE+0xb0>
   3fbec: 9d 85 00 14  	b	0x61260 <_ZN15ChiFeature2Base14CreatePipelineEPK21ChiFeature2Identifier@plt>
   3fc10: 2f 01 00 b0  	adrp	x15, 0x64000 <_ZN18ChiFeature2Generic19OnConfigurePipelineERN15ChiFeature2Base22ChiFeaturePipelineDataE+0x134>
   3fc1c: de ff ff 17  	b	0x3fb94 <_ZN18ChiFeature2Generic19OnConfigurePipelineERN15ChiFeature2Base22ChiFeaturePipelineDataE+0x24>
   3fc44: e8 ff ff 17  	b	0x3fbe4 <_ZN18ChiFeature2Generic19OnConfigurePipelineERN15ChiFeature2Base22ChiFeaturePipelineDataE+0x74>
   3fc6c: 2f 01 00 b0  	adrp	x15, 0x64000 <_ZN18ChiFeature2Generic19OnConfigurePipelineERN15ChiFeature2Base22ChiFeaturePipelineDataE+0x190>
   3fc80: e1 f9 ff 54  	b.ne	0x3fbbc <_ZN18ChiFeature2Generic19OnConfigurePipelineERN15ChiFeature2Base22ChiFeaturePipelineDataE+0x4c>
   3fc84: d4 ff ff 17  	b	0x3fbd4 <_ZN18ChiFeature2Generic19OnConfigurePipelineERN15ChiFeature2Base22ChiFeaturePipelineDataE+0x64>
   3fcac: 2f 01 00 b0  	adrp	x15, 0x64000 <_ZNK18ChiFeature2Generic16OnPipelineSelectEPKcPK26ChiFeature2CreateInputInfoh+0x30>
   3fcc0: a0 f8 ff 54  	b.eq	0x3fbd4 <_ZN18ChiFeature2Generic19OnConfigurePipelineERN15ChiFeature2Base22ChiFeaturePipelineDataE+0x64>
   3fcd0: 81 00 00 54  	b.ne	0x3fce0 <_ZN18ChiFeature2Generic19OnConfigurePipelineERN15ChiFeature2Base22ChiFeaturePipelineDataE+0x170>
   3fcdc: 65 85 00 14  	b	0x61270 <_ZN15ChiFeature2Base19OnConfigurePipelineERNS_22ChiFeaturePipelineDataE@plt>
   3fd04: f4 ff ff 17  	b	0x3fcd4 <_ZN18ChiFeature2Generic19OnConfigurePipelineERN15ChiFeature2Base22ChiFeaturePipelineDataE+0x164>
000000000003fd10 <_ZNK18ChiFeature2Generic16OnPipelineSelectEPKcPK26ChiFeature2CreateInputInfoh>:
   3fd3c: 21 08 00 b4  	cbz	x1, 0x3fe40 <_ZNK18ChiFeature2Generic16OnPipelineSelectEPKcPK26ChiFeature2CreateInputInfoh+0x130>
   3fd44: e2 07 00 b4  	cbz	x2, 0x3fe40 <_ZNK18ChiFeature2Generic16OnPipelineSelectEPKcPK26ChiFeature2CreateInputInfoh+0x130>
   3fd4c: ad 07 00 b4  	cbz	x13, 0x3fe40 <_ZNK18ChiFeature2Generic16OnPipelineSelectEPKcPK26ChiFeature2CreateInputInfoh+0x130>
   3fd54: 78 07 00 b4  	cbz	x24, 0x3fe40 <_ZNK18ChiFeature2Generic16OnPipelineSelectEPKcPK26ChiFeature2CreateInputInfoh+0x130>
   3fd5c: 22 07 00 b4  	cbz	x2, 0x3fe40 <_ZNK18ChiFeature2Generic16OnPipelineSelectEPKcPK26ChiFeature2CreateInputInfoh+0x130>
   3fd68: 61 fe ff d0  	adrp	x1, 0xd000 <_ZN18ChiFeature2Generic19OnConfigurePipelineERN15ChiFeature2Base22ChiFeaturePipelineDataE+0x130>
   3fd7c: 40 0d 00 34  	cbz	w0, 0x3ff24 <_ZNK18ChiFeature2Generic16OnPipelineSelectEPKcPK26ChiFeature2CreateInputInfoh+0x214>
   3fd80: 81 fe ff 90  	adrp	x1, 0xf000 <_ZN18ChiFeature2Generic19OnConfigurePipelineERN15ChiFeature2Base22ChiFeaturePipelineDataE+0x150>
   3fd90: 60 0f 00 34  	cbz	w0, 0x3ff7c <_ZNK18ChiFeature2Generic16OnPipelineSelectEPKcPK26ChiFeature2CreateInputInfoh+0x26c>
   3fd94: 61 fe ff f0  	adrp	x1, 0xe000 <_ZN18ChiFeature2Generic19OnConfigurePipelineERN15ChiFeature2Base22ChiFeaturePipelineDataE+0x160>
   3fda4: e0 1a 00 34  	cbz	w0, 0x40100 <_ZNK18ChiFeature2Generic16OnPipelineSelectEPKcPK26ChiFeature2CreateInputInfoh+0x3f0>
   3fda8: 61 fe ff b0  	adrp	x1, 0xc000 <_ZN18ChiFeature2Generic19OnConfigurePipelineERN15ChiFeature2Base22ChiFeaturePipelineDataE+0x16c>
   3fdb8: 60 13 00 34  	cbz	w0, 0x40024 <_ZNK18ChiFeature2Generic16OnPipelineSelectEPKcPK26ChiFeature2CreateInputInfoh+0x314>
   3fdbc: 81 fe ff f0  	adrp	x1, 0x12000 <_ZN18ChiFeature2Generic19OnConfigurePipelineERN15ChiFeature2Base22ChiFeaturePipelineDataE+0x198>
   3fdcc: c0 12 00 34  	cbz	w0, 0x40024 <_ZNK18ChiFeature2Generic16OnPipelineSelectEPKcPK26ChiFeature2CreateInputInfoh+0x314>
   3fdd0: 81 fe ff d0  	adrp	x1, 0x11000 <_ZNK18ChiFeature2Generic16OnPipelineSelectEPKcPK26ChiFeature2CreateInputInfoh+0x8>
   3fde0: 80 08 00 35  	cbnz	w0, 0x3fef0 <_ZNK18ChiFeature2Generic16OnPipelineSelectEPKcPK26ChiFeature2CreateInputInfoh+0x1e0>
   3fde4: 61 fe ff b0  	adrp	x1, 0xc000 <_ZNK18ChiFeature2Generic16OnPipelineSelectEPKcPK26ChiFeature2CreateInputInfoh+0x8>
   3fdf4: e0 07 00 35  	cbnz	w0, 0x3fef0 <_ZNK18ChiFeature2Generic16OnPipelineSelectEPKcPK26ChiFeature2CreateInputInfoh+0x1e0>
   3fdf8: ee 84 00 94  	bl	0x611b0 <_ZN15ExtensionModule11GetInstanceEv@plt>
   3fe10: 28 01 00 54  	b.hi	0x3fe34 <_ZNK18ChiFeature2Generic16OnPipelineSelectEPKcPK26ChiFeature2CreateInputInfoh+0x124>
   3fe30: 21 06 00 54  	b.ne	0x3fef4 <_ZNK18ChiFeature2Generic16OnPipelineSelectEPKcPK26ChiFeature2CreateInputInfoh+0x1e4>
   3fe38: e0 05 00 54  	b.eq	0x3fef4 <_ZNK18ChiFeature2Generic16OnPipelineSelectEPKcPK26ChiFeature2CreateInputInfoh+0x1e4>
   3fe3c: f3 01 00 14  	b	0x40608 <_ZNK18ChiFeature2Generic16OnPipelineSelectEPKcPK26ChiFeature2CreateInputInfoh+0x8f8>
   3fe40: 25 01 00 b0  	adrp	x5, 0x64000 <_ZNK18ChiFeature2Generic16OnPipelineSelectEPKcPK26ChiFeature2CreateInputInfoh+0x1c4>
   3fe4c: 2a 05 00 36  	tbz	w10, #0, 0x3fef0 <_ZNK18ChiFeature2Generic16OnPipelineSelectEPKcPK26ChiFeature2CreateInputInfoh+0x1e0>
   3fe50: 26 01 00 b0  	adrp	x6, 0x64000 <_ZNK18ChiFeature2Generic16OnPipelineSelectEPKcPK26ChiFeature2CreateInputInfoh+0x1d4>
   3fe60: 41 02 00 54  	b.ne	0x3fea8 <_ZNK18ChiFeature2Generic16OnPipelineSelectEPKcPK26ChiFeature2CreateInputInfoh+0x198>
   3fe64: 93 fe ff b0  	adrp	x19, 0x10000 <_ZNK18ChiFeature2Generic16OnPipelineSelectEPKcPK26ChiFeature2CreateInputInfoh+0x98>
   3fe80: 81 fe ff f0  	adrp	x1, 0x12000 <_ZNK18ChiFeature2Generic16OnPipelineSelectEPKcPK26ChiFeature2CreateInputInfoh+0xbc>
   3fe84: 82 fe ff b0  	adrp	x2, 0x10000 <_ZNK18ChiFeature2Generic16OnPipelineSelectEPKcPK26ChiFeature2CreateInputInfoh+0xb8>
   3fe88: 65 fe ff f0  	adrp	x5, 0xe000 <_ZNK18ChiFeature2Generic16OnPipelineSelectEPKcPK26ChiFeature2CreateInputInfoh+0xb4>
   3fea8: 96 fe ff b0  	adrp	x22, 0x10000 <_ZNK18ChiFeature2Generic16OnPipelineSelectEPKcPK26ChiFeature2CreateInputInfoh+0xdc>
   3fec4: 81 fe ff f0  	adrp	x1, 0x12000 <_ZNK18ChiFeature2Generic16OnPipelineSelectEPKcPK26ChiFeature2CreateInputInfoh+0x100>
   3fecc: 60 fe ff b0  	adrp	x0, 0xc000 <_ZNK18ChiFeature2Generic16OnPipelineSelectEPKcPK26ChiFeature2CreateInputInfoh+0xf0>
   3fed0: 63 fe ff f0  	adrp	x3, 0xe000 <_ZNK18ChiFeature2Generic16OnPipelineSelectEPKcPK26ChiFeature2CreateInputInfoh+0xfc>
   3fed4: 85 fe ff b0  	adrp	x5, 0x10000 <_ZNK18ChiFeature2Generic16OnPipelineSelectEPKcPK26ChiFeature2CreateInputInfoh+0x108>
   3feec: a9 84 00 94  	bl	0x61190 <_ZN6ChiLog9LogSystemEPKcS1_S1_S1_iS1_z@plt>
   3ff00: e1 43 00 54  	b.ne	0x4077c <_ZNK18ChiFeature2Generic16OnPipelineSelectEPKcPK26ChiFeature2CreateInputInfoh+0xa6c>
   3ff24: a3 84 00 94  	bl	0x611b0 <_ZN15ExtensionModule11GetInstanceEv@plt>
   3ff34: 48 1f 00 54  	b.hi	0x4031c <_ZNK18ChiFeature2Generic16OnPipelineSelectEPKcPK26ChiFeature2CreateInputInfoh+0x60c>
   3ff54: 40 1e 00 54  	b.eq	0x4031c <_ZNK18ChiFeature2Generic16OnPipelineSelectEPKcPK26ChiFeature2CreateInputInfoh+0x60c>
   3ff58: 96 84 00 94  	bl	0x611b0 <_ZN15ExtensionModule11GetInstanceEv@plt>
   3ff60: ad 03 00 b4  	cbz	x13, 0x3ffd4 <_ZNK18ChiFeature2Generic16OnPipelineSelectEPKcPK26ChiFeature2CreateInputInfoh+0x2c4>
   3ff68: 6b 03 00 34  	cbz	w11, 0x3ffd4 <_ZNK18ChiFeature2Generic16OnPipelineSelectEPKcPK26ChiFeature2CreateInputInfoh+0x2c4>
   3ff78: 18 00 00 14  	b	0x3ffd8 <_ZNK18ChiFeature2Generic16OnPipelineSelectEPKcPK26ChiFeature2CreateInputInfoh+0x2c8>
   3ff7c: 8d 84 00 94  	bl	0x611b0 <_ZN15ExtensionModule11GetInstanceEv@plt>
   3ff84: 2c 01 00 b0  	adrp	x12, 0x64000 <_ZNK18ChiFeature2Generic16OnPipelineSelectEPKcPK26ChiFeature2CreateInputInfoh+0x308>
   3ff9c: 61 3d 00 54  	b.ne	0x40748 <_ZNK18ChiFeature2Generic16OnPipelineSelectEPKcPK26ChiFeature2CreateInputInfoh+0xa38>
   3ffa0: fa 21 00 35  	cbnz	w26, 0x403dc <_ZNK18ChiFeature2Generic16OnPipelineSelectEPKcPK26ChiFeature2CreateInputInfoh+0x6cc>
   3ffa8: b5 21 00 b4  	cbz	x21, 0x403dc <_ZNK18ChiFeature2Generic16OnPipelineSelectEPKcPK26ChiFeature2CreateInputInfoh+0x6cc>
   3ffb4: 7f 84 00 94  	bl	0x611b0 <_ZN15ExtensionModule11GetInstanceEv@plt>
   3ffc8: 00 20 00 34  	cbz	w0, 0x403c8 <_ZNK18ChiFeature2Generic16OnPipelineSelectEPKcPK26ChiFeature2CreateInputInfoh+0x6b8>
   3ffd0: 03 01 00 14  	b	0x403dc <_ZNK18ChiFeature2Generic16OnPipelineSelectEPKcPK26ChiFeature2CreateInputInfoh+0x6cc>
   3ffd8: 76 84 00 94  	bl	0x611b0 <_ZN15ExtensionModule11GetInstanceEv@plt>
   3ffe4: 6c 12 00 34  	cbz	w12, 0x40230 <_ZNK18ChiFeature2Generic16OnPipelineSelectEPKcPK26ChiFeature2CreateInputInfoh+0x520>
   3fff0: 70 84 00 94  	bl	0x611b0 <_ZN15ExtensionModule11GetInstanceEv@plt>
   3fff8: 44 0b 00 b4  	cbz	x4, 0x40160 <_ZNK18ChiFeature2Generic16OnPipelineSelectEPKcPK26ChiFeature2CreateInputInfoh+0x450>
   40000: 0d 0b 00 34  	cbz	w13, 0x40160 <_ZNK18ChiFeature2Generic16OnPipelineSelectEPKcPK26ChiFeature2CreateInputInfoh+0x450>
   40004: 6b 84 00 94  	bl	0x611b0 <_ZN15ExtensionModule11GetInstanceEv@plt>
   4000c: e2 3b 00 54  	b.hs	0x40788 <_ZNK18ChiFeature2Generic16OnPipelineSelectEPKcPK26ChiFeature2CreateInputInfoh+0xa78>
   40020: 51 00 00 14  	b	0x40164 <_ZNK18ChiFeature2Generic16OnPipelineSelectEPKcPK26ChiFeature2CreateInputInfoh+0x454>
   40024: 63 84 00 94  	bl	0x611b0 <_ZN15ExtensionModule11GetInstanceEv@plt>
   40034: 08 25 00 54  	b.hi	0x404d4 <_ZNK18ChiFeature2Generic16OnPipelineSelectEPKcPK26ChiFeature2CreateInputInfoh+0x7c4>
   40054: 00 24 00 54  	b.eq	0x404d4 <_ZNK18ChiFeature2Generic16OnPipelineSelectEPKcPK26ChiFeature2CreateInputInfoh+0x7c4>
   40058: 56 84 00 94  	bl	0x611b0 <_ZN15ExtensionModule11GetInstanceEv@plt>
   40064: a7 1a 00 34  	cbz	w7, 0x403b8 <_ZNK18ChiFeature2Generic16OnPipelineSelectEPKcPK26ChiFeature2CreateInputInfoh+0x6a8>
   4008c: 0a 00 00 14  	b	0x400b4 <_ZNK18ChiFeature2Generic16OnPipelineSelectEPKcPK26ChiFeature2CreateInputInfoh+0x3a4>
   400a0: 02 37 00 54  	b.hs	0x40780 <_ZNK18ChiFeature2Generic16OnPipelineSelectEPKcPK26ChiFeature2CreateInputInfoh+0xa70>
   400b0: c2 13 00 54  	b.hs	0x40328 <_ZNK18ChiFeature2Generic16OnPipelineSelectEPKcPK26ChiFeature2CreateInputInfoh+0x618>
   400c4: 61 00 00 54  	b.ne	0x400d0 <_ZNK18ChiFeature2Generic16OnPipelineSelectEPKcPK26ChiFeature2CreateInputInfoh+0x3c0>
   400cc: 40 01 00 37  	tbnz	w0, #0, 0x400f4 <_ZNK18ChiFeature2Generic16OnPipelineSelectEPKcPK26ChiFeature2CreateInputInfoh+0x3e4>
   400d4: 73 84 00 94  	bl	0x612a0 <_ZN15UsecaseSelector11IsYUVStreamEPK14camera3_stream@plt>
   400d8: 60 fe ff 34  	cbz	w0, 0x400a4 <_ZNK18ChiFeature2Generic16OnPipelineSelectEPKcPK26ChiFeature2CreateInputInfoh+0x394>
   400e0: 80 fd ff 54  	b.eq	0x40090 <_ZNK18ChiFeature2Generic16OnPipelineSelectEPKcPK26ChiFeature2CreateInputInfoh+0x380>
   400e4: da fd ff 35  	cbnz	w26, 0x4009c <_ZNK18ChiFeature2Generic16OnPipelineSelectEPKcPK26ChiFeature2CreateInputInfoh+0x38c>
   400f0: eb ff ff 17  	b	0x4009c <_ZNK18ChiFeature2Generic16OnPipelineSelectEPKcPK26ChiFeature2CreateInputInfoh+0x38c>
   400fc: ea ff ff 17  	b	0x400a4 <_ZNK18ChiFeature2Generic16OnPipelineSelectEPKcPK26ChiFeature2CreateInputInfoh+0x394>
   40100: 2c 84 00 94  	bl	0x611b0 <_ZN15ExtensionModule11GetInstanceEv@plt>
   40110: 28 1f 00 54  	b.hi	0x404f4 <_ZNK18ChiFeature2Generic16OnPipelineSelectEPKcPK26ChiFeature2CreateInputInfoh+0x7e4>
   40130: 20 1e 00 54  	b.eq	0x404f4 <_ZNK18ChiFeature2Generic16OnPipelineSelectEPKcPK26ChiFeature2CreateInputInfoh+0x7e4>
   40134: 1f 84 00 94  	bl	0x611b0 <_ZN15ExtensionModule11GetInstanceEv@plt>
   4013c: 6e 00 00 b4  	cbz	x14, 0x40148 <_ZNK18ChiFeature2Generic16OnPipelineSelectEPKcPK26ChiFeature2CreateInputInfoh+0x438>
   40144: c6 1d 00 35  	cbnz	w6, 0x404fc <_ZNK18ChiFeature2Generic16OnPipelineSelectEPKcPK26ChiFeature2CreateInputInfoh+0x7ec>
   40148: 61 fe ff f0  	adrp	x1, 0xf000 <_ZNK18ChiFeature2Generic16OnPipelineSelectEPKcPK26ChiFeature2CreateInputInfoh+0x374>
   40158: c0 ec ff 35  	cbnz	w0, 0x3fef0 <_ZNK18ChiFeature2Generic16OnPipelineSelectEPKcPK26ChiFeature2CreateInputInfoh+0x1e0>
   4015c: 2b 01 00 14  	b	0x40608 <_ZNK18ChiFeature2Generic16OnPipelineSelectEPKcPK26ChiFeature2CreateInputInfoh+0x8f8>
   40164: 34 01 00 90  	adrp	x20, 0x64000 <_ZNK18ChiFeature2Generic16OnPipelineSelectEPKcPK26ChiFeature2CreateInputInfoh+0x4e4>
   40170: 2e 06 28 36  	tbz	w14, #5, 0x40234 <_ZNK18ChiFeature2Generic16OnPipelineSelectEPKcPK26ChiFeature2CreateInputInfoh+0x524>
   40174: 28 01 00 90  	adrp	x8, 0x64000 <_ZNK18ChiFeature2Generic16OnPipelineSelectEPKcPK26ChiFeature2CreateInputInfoh+0x4f4>
   40178: 76 fe ff 90  	adrp	x22, 0xc000 <_ZNK18ChiFeature2Generic16OnPipelineSelectEPKcPK26ChiFeature2CreateInputInfoh+0x398>
   4017c: 74 fe ff d0  	adrp	x20, 0xe000 <_ZNK18ChiFeature2Generic16OnPipelineSelectEPKcPK26ChiFeature2CreateInputInfoh+0x3a4>
   40180: 7c fe ff d0  	adrp	x28, 0xe000 <_ZNK18ChiFeature2Generic16OnPipelineSelectEPKcPK26ChiFeature2CreateInputInfoh+0x3a8>
   4019c: 41 02 00 54  	b.ne	0x401e4 <_ZNK18ChiFeature2Generic16OnPipelineSelectEPKcPK26ChiFeature2CreateInputInfoh+0x4d4>
   401b4: 81 fe ff d0  	adrp	x1, 0x12000 <_ZNK18ChiFeature2Generic16OnPipelineSelectEPKcPK26ChiFeature2CreateInputInfoh+0x3ec>
   401c0: 82 fe ff d0  	adrp	x2, 0x12000 <_ZNK18ChiFeature2Generic16OnPipelineSelectEPKcPK26ChiFeature2CreateInputInfoh+0x3f8>
   401c4: 65 fe ff 90  	adrp	x5, 0xc000 <_ZNK18ChiFeature2Generic16OnPipelineSelectEPKcPK26ChiFeature2CreateInputInfoh+0x3e4>
   401f8: 81 fe ff 90  	adrp	x1, 0x10000 <_ZNK18ChiFeature2Generic16OnPipelineSelectEPKcPK26ChiFeature2CreateInputInfoh+0x428>
   40204: 80 fe ff d0  	adrp	x0, 0x12000 <_ZNK18ChiFeature2Generic16OnPipelineSelectEPKcPK26ChiFeature2CreateInputInfoh+0x43c>
   40208: 63 fe ff 90  	adrp	x3, 0xc000 <_ZNK18ChiFeature2Generic16OnPipelineSelectEPKcPK26ChiFeature2CreateInputInfoh+0x428>
   4020c: 85 fe ff b0  	adrp	x5, 0x11000 <_ZNK18ChiFeature2Generic16OnPipelineSelectEPKcPK26ChiFeature2CreateInputInfoh+0x440>
   40228: da 83 00 94  	bl	0x61190 <_ZN6ChiLog9LogSystemEPKcS1_S1_S1_iS1_z@plt>
   4022c: 02 00 00 14  	b	0x40234 <_ZNK18ChiFeature2Generic16OnPipelineSelectEPKcPK26ChiFeature2CreateInputInfoh+0x524>
   40238: 34 01 00 90  	adrp	x20, 0x64000 <_ZNK18ChiFeature2Generic16OnPipelineSelectEPKcPK26ChiFeature2CreateInputInfoh+0x5b8>
   40248: 41 27 00 54  	b.ne	0x40730 <_ZNK18ChiFeature2Generic16OnPipelineSelectEPKcPK26ChiFeature2CreateInputInfoh+0xa20>
   40258: a0 00 00 54  	b.eq	0x4026c <_ZNK18ChiFeature2Generic16OnPipelineSelectEPKcPK26ChiFeature2CreateInputInfoh+0x55c>
   4025c: 0d 01 00 35  	cbnz	w13, 0x4027c <_ZNK18ChiFeature2Generic16OnPipelineSelectEPKcPK26ChiFeature2CreateInputInfoh+0x56c>
   40268: a3 00 00 54  	b.lo	0x4027c <_ZNK18ChiFeature2Generic16OnPipelineSelectEPKcPK26ChiFeature2CreateInputInfoh+0x56c>
   40278: 61 27 00 54  	b.ne	0x40764 <_ZNK18ChiFeature2Generic16OnPipelineSelectEPKcPK26ChiFeature2CreateInputInfoh+0xa54>
   40288: a0 02 00 54  	b.eq	0x402dc <_ZNK18ChiFeature2Generic16OnPipelineSelectEPKcPK26ChiFeature2CreateInputInfoh+0x5cc>
   4028c: c9 83 00 94  	bl	0x611b0 <_ZN15ExtensionModule11GetInstanceEv@plt>
   4029c: c8 0b 00 54  	b.hi	0x40414 <_ZNK18ChiFeature2Generic16OnPipelineSelectEPKcPK26ChiFeature2CreateInputInfoh+0x704>
   402b4: 00 0b 00 54  	b.eq	0x40414 <_ZNK18ChiFeature2Generic16OnPipelineSelectEPKcPK26ChiFeature2CreateInputInfoh+0x704>
   402c0: 22 02 30 37  	tbnz	w2, #6, 0x40304 <_ZNK18ChiFeature2Generic16OnPipelineSelectEPKcPK26ChiFeature2CreateInputInfoh+0x5f4>
   402c4: 61 fe ff d0  	adrp	x1, 0xe000 <_ZNK18ChiFeature2Generic16OnPipelineSelectEPKcPK26ChiFeature2CreateInputInfoh+0x4ec>
   402d4: e0 e0 ff 35  	cbnz	w0, 0x3fef0 <_ZNK18ChiFeature2Generic16OnPipelineSelectEPKcPK26ChiFeature2CreateInputInfoh+0x1e0>
   402d8: cc 00 00 14  	b	0x40608 <_ZNK18ChiFeature2Generic16OnPipelineSelectEPKcPK26ChiFeature2CreateInputInfoh+0x8f8>
   402dc: d8 05 00 34  	cbz	w24, 0x40394 <_ZNK18ChiFeature2Generic16OnPipelineSelectEPKcPK26ChiFeature2CreateInputInfoh+0x684>
   402e0: bb 05 30 37  	tbnz	w27, #6, 0x40394 <_ZNK18ChiFeature2Generic16OnPipelineSelectEPKcPK26ChiFeature2CreateInputInfoh+0x684>
   402e4: 7a 12 00 34  	cbz	w26, 0x40530 <_ZNK18ChiFeature2Generic16OnPipelineSelectEPKcPK26ChiFeature2CreateInputInfoh+0x820>
   402e8: 48 12 70 36  	tbz	w8, #14, 0x40530 <_ZNK18ChiFeature2Generic16OnPipelineSelectEPKcPK26ChiFeature2CreateInputInfoh+0x820>
   402ec: 81 fe ff f0  	adrp	x1, 0x13000 <_ZNK18ChiFeature2Generic16OnPipelineSelectEPKcPK26ChiFeature2CreateInputInfoh+0x528>
   402fc: a0 df ff 35  	cbnz	w0, 0x3fef0 <_ZNK18ChiFeature2Generic16OnPipelineSelectEPKcPK26ChiFeature2CreateInputInfoh+0x1e0>
   40300: c2 00 00 14  	b	0x40608 <_ZNK18ChiFeature2Generic16OnPipelineSelectEPKcPK26ChiFeature2CreateInputInfoh+0x8f8>
   40304: 41 fe ff f0  	adrp	x1, 0xb000 <_ZNK18ChiFeature2Generic16OnPipelineSelectEPKcPK26ChiFeature2CreateInputInfoh+0x520>
   40314: e0 de ff 35  	cbnz	w0, 0x3fef0 <_ZNK18ChiFeature2Generic16OnPipelineSelectEPKcPK26ChiFeature2CreateInputInfoh+0x1e0>
   40318: bc 00 00 14  	b	0x40608 <_ZNK18ChiFeature2Generic16OnPipelineSelectEPKcPK26ChiFeature2CreateInputInfoh+0x8f8>
   40320: c0 e1 ff 54  	b.eq	0x3ff58 <_ZNK18ChiFeature2Generic16OnPipelineSelectEPKcPK26ChiFeature2CreateInputInfoh+0x248>
   40324: 7d 00 00 14  	b	0x40518 <_ZNK18ChiFeature2Generic16OnPipelineSelectEPKcPK26ChiFeature2CreateInputInfoh+0x808>
   4033c: a1 08 00 54  	b.ne	0x40450 <_ZNK18ChiFeature2Generic16OnPipelineSelectEPKcPK26ChiFeature2CreateInputInfoh+0x740>
   40340: 29 22 00 35  	cbnz	w9, 0x40784 <_ZNK18ChiFeature2Generic16OnPipelineSelectEPKcPK26ChiFeature2CreateInputInfoh+0xa74>
   40354: 81 21 00 54  	b.ne	0x40784 <_ZNK18ChiFeature2Generic16OnPipelineSelectEPKcPK26ChiFeature2CreateInputInfoh+0xa74>
   40360: 21 21 00 54  	b.ne	0x40784 <_ZNK18ChiFeature2Generic16OnPipelineSelectEPKcPK26ChiFeature2CreateInputInfoh+0xa74>
   40374: c2 0e 00 54  	b.hs	0x4054c <_ZNK18ChiFeature2Generic16OnPipelineSelectEPKcPK26ChiFeature2CreateInputInfoh+0x83c>
   40378: b1 08 00 35  	cbnz	w17, 0x4048c <_ZNK18ChiFeature2Generic16OnPipelineSelectEPKcPK26ChiFeature2CreateInputInfoh+0x77c>
   4037c: 8d 83 00 94  	bl	0x611b0 <_ZN15ExtensionModule11GetInstanceEv@plt>
   40384: 4f 08 00 b4  	cbz	x15, 0x4048c <_ZNK18ChiFeature2Generic16OnPipelineSelectEPKcPK26ChiFeature2CreateInputInfoh+0x77c>
   4038c: 24 11 00 35  	cbnz	w4, 0x405b0 <_ZNK18ChiFeature2Generic16OnPipelineSelectEPKcPK26ChiFeature2CreateInputInfoh+0x8a0>
   40390: 3f 00 00 14  	b	0x4048c <_ZNK18ChiFeature2Generic16OnPipelineSelectEPKcPK26ChiFeature2CreateInputInfoh+0x77c>
   40394: 1b 0c 30 37  	tbnz	w27, #6, 0x40514 <_ZNK18ChiFeature2Generic16OnPipelineSelectEPKcPK26ChiFeature2CreateInputInfoh+0x804>
   40398: fa 0b 00 34  	cbz	w26, 0x40514 <_ZNK18ChiFeature2Generic16OnPipelineSelectEPKcPK26ChiFeature2CreateInputInfoh+0x804>
   4039c: 68 0e 70 36  	tbz	w8, #14, 0x40568 <_ZNK18ChiFeature2Generic16OnPipelineSelectEPKcPK26ChiFeature2CreateInputInfoh+0x858>
   403a0: 81 fe ff b0  	adrp	x1, 0x11000 <_ZNK18ChiFeature2Generic16OnPipelineSelectEPKcPK26ChiFeature2CreateInputInfoh+0x5d4>
   403b0: 00 da ff 35  	cbnz	w0, 0x3fef0 <_ZNK18ChiFeature2Generic16OnPipelineSelectEPKcPK26ChiFeature2CreateInputInfoh+0x1e0>
   403b4: 95 00 00 14  	b	0x40608 <_ZNK18ChiFeature2Generic16OnPipelineSelectEPKcPK26ChiFeature2CreateInputInfoh+0x8f8>
   403c4: 27 00 00 14  	b	0x40460 <_ZNK18ChiFeature2Generic16OnPipelineSelectEPKcPK26ChiFeature2CreateInputInfoh+0x750>
   403cc: 03 e0 ff b4  	cbz	x3, 0x3ffcc <_ZNK18ChiFeature2Generic16OnPipelineSelectEPKcPK26ChiFeature2CreateInputInfoh+0x2bc>
   403dc: 41 fe ff f0  	adrp	x1, 0xb000 <_ZNK18ChiFeature2Generic16OnPipelineSelectEPKcPK26ChiFeature2CreateInputInfoh+0x5f8>
   403f0: 41 00 00 54  	b.ne	0x403f8 <_ZNK18ChiFeature2Generic16OnPipelineSelectEPKcPK26ChiFeature2CreateInputInfoh+0x6e8>
   403f4: a0 10 00 34  	cbz	w0, 0x40608 <_ZNK18ChiFeature2Generic16OnPipelineSelectEPKcPK26ChiFeature2CreateInputInfoh+0x8f8>
   403f8: 61 fe ff f0  	adrp	x1, 0xf000 <_ZNK18ChiFeature2Generic16OnPipelineSelectEPKcPK26ChiFeature2CreateInputInfoh+0x624>
   4040c: 25 d7 ff 35  	cbnz	w5, 0x3fef0 <_ZNK18ChiFeature2Generic16OnPipelineSelectEPKcPK26ChiFeature2CreateInputInfoh+0x1e0>
   40410: 7e 00 00 14  	b	0x40608 <_ZNK18ChiFeature2Generic16OnPipelineSelectEPKcPK26ChiFeature2CreateInputInfoh+0x8f8>
   40414: 67 83 00 94  	bl	0x611b0 <_ZN15ExtensionModule11GetInstanceEv@plt>
   40420: c0 f4 ff 54  	b.eq	0x402b8 <_ZNK18ChiFeature2Generic16OnPipelineSelectEPKcPK26ChiFeature2CreateInputInfoh+0x5a8>
   40428: 80 f4 ff 54  	b.eq	0x402b8 <_ZNK18ChiFeature2Generic16OnPipelineSelectEPKcPK26ChiFeature2CreateInputInfoh+0x5a8>
   40434: 23 07 30 36  	tbz	w3, #6, 0x40518 <_ZNK18ChiFeature2Generic16OnPipelineSelectEPKcPK26ChiFeature2CreateInputInfoh+0x808>
   40438: 61 fe ff f0  	adrp	x1, 0xf000 <_ZNK18ChiFeature2Generic16OnPipelineSelectEPKcPK26ChiFeature2CreateInputInfoh+0x664>
   40448: 40 d5 ff 35  	cbnz	w0, 0x3fef0 <_ZNK18ChiFeature2Generic16OnPipelineSelectEPKcPK26ChiFeature2CreateInputInfoh+0x1e0>
   4044c: 6f 00 00 14  	b	0x40608 <_ZNK18ChiFeature2Generic16OnPipelineSelectEPKcPK26ChiFeature2CreateInputInfoh+0x8f8>
   4045c: 49 19 00 35  	cbnz	w9, 0x40784 <_ZNK18ChiFeature2Generic16OnPipelineSelectEPKcPK26ChiFeature2CreateInputInfoh+0xa74>
   40468: e1 18 00 54  	b.ne	0x40784 <_ZNK18ChiFeature2Generic16OnPipelineSelectEPKcPK26ChiFeature2CreateInputInfoh+0xa74>
   40470: a2 01 00 54  	b.hs	0x404a4 <_ZNK18ChiFeature2Generic16OnPipelineSelectEPKcPK26ChiFeature2CreateInputInfoh+0x794>
   40474: 61 fe ff f0  	adrp	x1, 0xf000 <_ZNK18ChiFeature2Generic16OnPipelineSelectEPKcPK26ChiFeature2CreateInputInfoh+0x6a0>
   40484: 20 0c 00 34  	cbz	w0, 0x40608 <_ZNK18ChiFeature2Generic16OnPipelineSelectEPKcPK26ChiFeature2CreateInputInfoh+0x8f8>
   40488: ba 08 00 34  	cbz	w26, 0x4059c <_ZNK18ChiFeature2Generic16OnPipelineSelectEPKcPK26ChiFeature2CreateInputInfoh+0x88c>
   4048c: 81 fe ff 90  	adrp	x1, 0x10000 <_ZNK18ChiFeature2Generic16OnPipelineSelectEPKcPK26ChiFeature2CreateInputInfoh+0x6bc>
   4049c: a0 d2 ff 35  	cbnz	w0, 0x3fef0 <_ZNK18ChiFeature2Generic16OnPipelineSelectEPKcPK26ChiFeature2CreateInputInfoh+0x1e0>
   404a0: 5a 00 00 14  	b	0x40608 <_ZNK18ChiFeature2Generic16OnPipelineSelectEPKcPK26ChiFeature2CreateInputInfoh+0x8f8>
   404a4: 81 fe ff d0  	adrp	x1, 0x12000 <_ZNK18ChiFeature2Generic16OnPipelineSelectEPKcPK26ChiFeature2CreateInputInfoh+0x6dc>
   404b4: a0 0a 00 34  	cbz	w0, 0x40608 <_ZNK18ChiFeature2Generic16OnPipelineSelectEPKcPK26ChiFeature2CreateInputInfoh+0x8f8>
   404b8: da 04 00 35  	cbnz	w26, 0x40550 <_ZNK18ChiFeature2Generic16OnPipelineSelectEPKcPK26ChiFeature2CreateInputInfoh+0x840>
   404bc: 3d 83 00 94  	bl	0x611b0 <_ZN15ExtensionModule11GetInstanceEv@plt>
   404c4: 71 04 00 b4  	cbz	x17, 0x40550 <_ZNK18ChiFeature2Generic16OnPipelineSelectEPKcPK26ChiFeature2CreateInputInfoh+0x840>
   404cc: 5a 09 00 35  	cbnz	w26, 0x405f4 <_ZNK18ChiFeature2Generic16OnPipelineSelectEPKcPK26ChiFeature2CreateInputInfoh+0x8e4>
   404d0: 20 00 00 14  	b	0x40550 <_ZNK18ChiFeature2Generic16OnPipelineSelectEPKcPK26ChiFeature2CreateInputInfoh+0x840>
   404d8: 00 dc ff 54  	b.eq	0x40058 <_ZNK18ChiFeature2Generic16OnPipelineSelectEPKcPK26ChiFeature2CreateInputInfoh+0x348>
   404dc: 61 fe ff 90  	adrp	x1, 0xc000 <_ZNK18ChiFeature2Generic16OnPipelineSelectEPKcPK26ChiFeature2CreateInputInfoh+0x6fc>
   404ec: 40 08 00 35  	cbnz	w0, 0x405f4 <_ZNK18ChiFeature2Generic16OnPipelineSelectEPKcPK26ChiFeature2CreateInputInfoh+0x8e4>
   404f0: 46 00 00 14  	b	0x40608 <_ZNK18ChiFeature2Generic16OnPipelineSelectEPKcPK26ChiFeature2CreateInputInfoh+0x8f8>
   404f8: e0 e1 ff 54  	b.eq	0x40134 <_ZNK18ChiFeature2Generic16OnPipelineSelectEPKcPK26ChiFeature2CreateInputInfoh+0x424>
   404fc: 61 fe ff 90  	adrp	x1, 0xc000 <_ZNK18ChiFeature2Generic16OnPipelineSelectEPKcPK26ChiFeature2CreateInputInfoh+0x71c>
   4050c: 20 cf ff 35  	cbnz	w0, 0x3fef0 <_ZNK18ChiFeature2Generic16OnPipelineSelectEPKcPK26ChiFeature2CreateInputInfoh+0x1e0>
   40510: 3e 00 00 14  	b	0x40608 <_ZNK18ChiFeature2Generic16OnPipelineSelectEPKcPK26ChiFeature2CreateInputInfoh+0x8f8>
   40514: 28 f9 77 37  	tbnz	w8, #14, 0x40438 <_ZNK18ChiFeature2Generic16OnPipelineSelectEPKcPK26ChiFeature2CreateInputInfoh+0x728>
   40518: 81 fe ff b0  	adrp	x1, 0x11000 <_ZNK18ChiFeature2Generic16OnPipelineSelectEPKcPK26ChiFeature2CreateInputInfoh+0x74c>
   40528: 40 ce ff 35  	cbnz	w0, 0x3fef0 <_ZNK18ChiFeature2Generic16OnPipelineSelectEPKcPK26ChiFeature2CreateInputInfoh+0x1e0>
   4052c: 37 00 00 14  	b	0x40608 <_ZNK18ChiFeature2Generic16OnPipelineSelectEPKcPK26ChiFeature2CreateInputInfoh+0x8f8>
   40530: 9a 02 00 34  	cbz	w26, 0x40580 <_ZNK18ChiFeature2Generic16OnPipelineSelectEPKcPK26ChiFeature2CreateInputInfoh+0x870>
   40534: 81 fe ff 90  	adrp	x1, 0x10000 <_ZNK18ChiFeature2Generic16OnPipelineSelectEPKcPK26ChiFeature2CreateInputInfoh+0x764>
   40544: 60 cd ff 35  	cbnz	w0, 0x3fef0 <_ZNK18ChiFeature2Generic16OnPipelineSelectEPKcPK26ChiFeature2CreateInputInfoh+0x1e0>
   40548: 30 00 00 14  	b	0x40608 <_ZNK18ChiFeature2Generic16OnPipelineSelectEPKcPK26ChiFeature2CreateInputInfoh+0x8f8>
   4054c: b1 04 00 34  	cbz	w17, 0x405e0 <_ZNK18ChiFeature2Generic16OnPipelineSelectEPKcPK26ChiFeature2CreateInputInfoh+0x8d0>
   40550: 81 fe ff 90  	adrp	x1, 0x10000 <_ZNK18ChiFeature2Generic16OnPipelineSelectEPKcPK26ChiFeature2CreateInputInfoh+0x780>
   40560: 80 cc ff 35  	cbnz	w0, 0x3fef0 <_ZNK18ChiFeature2Generic16OnPipelineSelectEPKcPK26ChiFeature2CreateInputInfoh+0x1e0>
   40564: 29 00 00 14  	b	0x40608 <_ZNK18ChiFeature2Generic16OnPipelineSelectEPKcPK26ChiFeature2CreateInputInfoh+0x8f8>
   40568: 81 fe ff d0  	adrp	x1, 0x12000 <_ZNK18ChiFeature2Generic16OnPipelineSelectEPKcPK26ChiFeature2CreateInputInfoh+0x7a0>
   40578: c0 cb ff 35  	cbnz	w0, 0x3fef0 <_ZNK18ChiFeature2Generic16OnPipelineSelectEPKcPK26ChiFeature2CreateInputInfoh+0x1e0>
   4057c: 23 00 00 14  	b	0x40608 <_ZNK18ChiFeature2Generic16OnPipelineSelectEPKcPK26ChiFeature2CreateInputInfoh+0x8f8>
   40580: 48 02 70 36  	tbz	w8, #14, 0x405c8 <_ZNK18ChiFeature2Generic16OnPipelineSelectEPKcPK26ChiFeature2CreateInputInfoh+0x8b8>
   40584: 61 fe ff b0  	adrp	x1, 0xd000 <_ZNK18ChiFeature2Generic16OnPipelineSelectEPKcPK26ChiFeature2CreateInputInfoh+0x7a8>
   40594: e0 ca ff 35  	cbnz	w0, 0x3fef0 <_ZNK18ChiFeature2Generic16OnPipelineSelectEPKcPK26ChiFeature2CreateInputInfoh+0x1e0>
   40598: 1c 00 00 14  	b	0x40608 <_ZNK18ChiFeature2Generic16OnPipelineSelectEPKcPK26ChiFeature2CreateInputInfoh+0x8f8>
   4059c: 05 83 00 94  	bl	0x611b0 <_ZN15ExtensionModule11GetInstanceEv@plt>
   405a4: 41 f7 ff b4  	cbz	x1, 0x4048c <_ZNK18ChiFeature2Generic16OnPipelineSelectEPKcPK26ChiFeature2CreateInputInfoh+0x77c>
   405ac: 1c f7 ff 34  	cbz	w28, 0x4048c <_ZNK18ChiFeature2Generic16OnPipelineSelectEPKcPK26ChiFeature2CreateInputInfoh+0x77c>
   405b0: 61 fe ff 90  	adrp	x1, 0xc000 <_ZNK18ChiFeature2Generic16OnPipelineSelectEPKcPK26ChiFeature2CreateInputInfoh+0x7d0>
   405c0: 80 c9 ff 35  	cbnz	w0, 0x3fef0 <_ZNK18ChiFeature2Generic16OnPipelineSelectEPKcPK26ChiFeature2CreateInputInfoh+0x1e0>
   405c4: 11 00 00 14  	b	0x40608 <_ZNK18ChiFeature2Generic16OnPipelineSelectEPKcPK26ChiFeature2CreateInputInfoh+0x8f8>
   405c8: 81 fe ff f0  	adrp	x1, 0x13000 <_ZNK18ChiFeature2Generic16OnPipelineSelectEPKcPK26ChiFeature2CreateInputInfoh+0x804>
   405d8: c0 c8 ff 35  	cbnz	w0, 0x3fef0 <_ZNK18ChiFeature2Generic16OnPipelineSelectEPKcPK26ChiFeature2CreateInputInfoh+0x1e0>
   405dc: 0b 00 00 14  	b	0x40608 <_ZNK18ChiFeature2Generic16OnPipelineSelectEPKcPK26ChiFeature2CreateInputInfoh+0x8f8>
   405e0: f4 82 00 94  	bl	0x611b0 <_ZN15ExtensionModule11GetInstanceEv@plt>
   405e8: 50 fb ff b4  	cbz	x16, 0x40550 <_ZNK18ChiFeature2Generic16OnPipelineSelectEPKcPK26ChiFeature2CreateInputInfoh+0x840>
   405f0: 18 fb ff 34  	cbz	w24, 0x40550 <_ZNK18ChiFeature2Generic16OnPipelineSelectEPKcPK26ChiFeature2CreateInputInfoh+0x840>
   405f4: 81 fe ff d0  	adrp	x1, 0x12000 <_ZNK18ChiFeature2Generic16OnPipelineSelectEPKcPK26ChiFeature2CreateInputInfoh+0x82c>
   40604: 60 c7 ff 35  	cbnz	w0, 0x3fef0 <_ZNK18ChiFeature2Generic16OnPipelineSelectEPKcPK26ChiFeature2CreateInputInfoh+0x1e0>
   40608: 30 01 00 90  	adrp	x16, 0x64000 <_ZNK18ChiFeature2Generic16OnPipelineSelectEPKcPK26ChiFeature2CreateInputInfoh+0x988>
   40614: b6 08 18 36  	tbz	w22, #3, 0x40728 <_ZNK18ChiFeature2Generic16OnPipelineSelectEPKcPK26ChiFeature2CreateInputInfoh+0xa18>
   40618: 31 01 00 90  	adrp	x17, 0x64000 <_ZNK18ChiFeature2Generic16OnPipelineSelectEPKcPK26ChiFeature2CreateInputInfoh+0x998>
   4061c: 95 fe ff 90  	adrp	x21, 0x10000 <_ZNK18ChiFeature2Generic16OnPipelineSelectEPKcPK26ChiFeature2CreateInputInfoh+0x84c>
   40630: e1 03 00 54  	b.ne	0x406ac <_ZNK18ChiFeature2Generic16OnPipelineSelectEPKcPK26ChiFeature2CreateInputInfoh+0x99c>
   40650: 65 fe ff d0  	adrp	x5, 0xe000 <_ZNK18ChiFeature2Generic16OnPipelineSelectEPKcPK26ChiFeature2CreateInputInfoh+0x878>
   40668: 81 fe ff d0  	adrp	x1, 0x12000 <_ZNK18ChiFeature2Generic16OnPipelineSelectEPKcPK26ChiFeature2CreateInputInfoh+0x8a0>
   40670: 62 fe ff 90  	adrp	x2, 0xc000 <_ZNK18ChiFeature2Generic16OnPipelineSelectEPKcPK26ChiFeature2CreateInputInfoh+0x890>
   406cc: 80 fe ff f0  	adrp	x0, 0x13000 <_ZNK18ChiFeature2Generic16OnPipelineSelectEPKcPK26ChiFeature2CreateInputInfoh+0x908>
   406d0: 61 fe ff f0  	adrp	x1, 0xf000 <_ZNK18ChiFeature2Generic16OnPipelineSelectEPKcPK26ChiFeature2CreateInputInfoh+0x8fc>
   406d4: 65 fe ff d0  	adrp	x5, 0xe000 <_ZNK18ChiFeature2Generic16OnPipelineSelectEPKcPK26ChiFeature2CreateInputInfoh+0x8fc>
   406e0: 63 fe ff d0  	adrp	x3, 0xe000 <_ZNK18ChiFeature2Generic16OnPipelineSelectEPKcPK26ChiFeature2CreateInputInfoh+0x908>
   40724: 9b 82 00 94  	bl	0x61190 <_ZN6ChiLog9LogSystemEPKcS1_S1_S1_iS1_z@plt>
   4072c: f2 fd ff 17  	b	0x3fef4 <_ZNK18ChiFeature2Generic16OnPipelineSelectEPKcPK26ChiFeature2CreateInputInfoh+0x1e4>
   40744: c2 fe ff 17  	b	0x4024c <_ZNK18ChiFeature2Generic16OnPipelineSelectEPKcPK26ChiFeature2CreateInputInfoh+0x53c>
   4075c: 5a c2 ff 34  	cbz	w26, 0x3ffa4 <_ZNK18ChiFeature2Generic16OnPipelineSelectEPKcPK26ChiFeature2CreateInputInfoh+0x294>
   40760: 1f ff ff 17  	b	0x403dc <_ZNK18ChiFeature2Generic16OnPipelineSelectEPKcPK26ChiFeature2CreateInputInfoh+0x6cc>
   40778: c1 fe ff 17  	b	0x4027c <_ZNK18ChiFeature2Generic16OnPipelineSelectEPKcPK26ChiFeature2CreateInputInfoh+0x56c>
0000000000040790 <_ZNK18ChiFeature2Generic24OnPruneUsecaseDescriptorEPK26ChiFeature2CreateInputInfoRNSt3__16vectorI12PruneVariantNS3_9allocatorIS5_EEEE>:
   407cc: b9 82 00 94  	bl	0x612b0 <_ZN15UsecaseSelector21HasHeicSnapshotStreamEPK19ChiStreamConfigInfo@plt>
   407ec: c8 03 00 54  	b.hi	0x40864 <_ZNK18ChiFeature2Generic24OnPruneUsecaseDescriptorEPK26ChiFeature2CreateInputInfoRNSt3__16vectorI12PruneVariantNS3_9allocatorIS5_EEEE+0xd4>
   4080c: 6b 01 00 54  	b.lt	0x40838 <_ZNK18ChiFeature2Generic24OnPruneUsecaseDescriptorEPK26ChiFeature2CreateInputInfoRNSt3__16vectorI12PruneVariantNS3_9allocatorIS5_EEEE+0xa8>
   40818: 41 3b 00 54  	b.ne	0x40f80 <_ZNK18ChiFeature2Generic24OnPruneUsecaseDescriptorEPK26ChiFeature2CreateInputInfoRNSt3__16vectorI12PruneVariantNS3_9allocatorIS5_EEEE+0x7f0>
   40848: f7 00 00 b4  	cbz	x23, 0x40864 <_ZNK18ChiFeature2Generic24OnPruneUsecaseDescriptorEPK26ChiFeature2CreateInputInfoRNSt3__16vectorI12PruneVariantNS3_9allocatorIS5_EEEE+0xd4>
   40858: 45 39 00 b5  	cbnz	x5, 0x40f80 <_ZNK18ChiFeature2Generic24OnPruneUsecaseDescriptorEPK26ChiFeature2CreateInputInfoRNSt3__16vectorI12PruneVariantNS3_9allocatorIS5_EEEE+0x7f0>
   40864: 53 82 00 94  	bl	0x611b0 <_ZN15ExtensionModule11GetInstanceEv@plt>
   40874: 08 0a 00 54  	b.hi	0x409b4 <_ZNK18ChiFeature2Generic24OnPruneUsecaseDescriptorEPK26ChiFeature2CreateInputInfoRNSt3__16vectorI12PruneVariantNS3_9allocatorIS5_EEEE+0x224>
   40894: 00 09 00 54  	b.eq	0x409b4 <_ZNK18ChiFeature2Generic24OnPruneUsecaseDescriptorEPK26ChiFeature2CreateInputInfoRNSt3__16vectorI12PruneVariantNS3_9allocatorIS5_EEEE+0x224>
   4089c: 61 fe ff f0  	adrp	x1, 0xf000 <_ZNK18ChiFeature2Generic24OnPruneUsecaseDescriptorEPK26ChiFeature2CreateInputInfoRNSt3__16vectorI12PruneVariantNS3_9allocatorIS5_EEEE+0x48>
   408b4: ca 05 00 34  	cbz	w10, 0x4096c <_ZNK18ChiFeature2Generic24OnPruneUsecaseDescriptorEPK26ChiFeature2CreateInputInfoRNSt3__16vectorI12PruneVariantNS3_9allocatorIS5_EEEE+0x1dc>
   408bc: 81 fe ff d0  	adrp	x1, 0x12000 <_ZNK18ChiFeature2Generic24OnPruneUsecaseDescriptorEPK26ChiFeature2CreateInputInfoRNSt3__16vectorI12PruneVariantNS3_9allocatorIS5_EEEE+0x74>
   408cc: c0 00 00 34  	cbz	w0, 0x408e4 <_ZNK18ChiFeature2Generic24OnPruneUsecaseDescriptorEPK26ChiFeature2CreateInputInfoRNSt3__16vectorI12PruneVariantNS3_9allocatorIS5_EEEE+0x154>
   408d0: 61 fe ff 90  	adrp	x1, 0xc000 <_ZNK18ChiFeature2Generic24OnPruneUsecaseDescriptorEPK26ChiFeature2CreateInputInfoRNSt3__16vectorI12PruneVariantNS3_9allocatorIS5_EEEE+0x70>
   408e0: e0 1f 00 35  	cbnz	w0, 0x40cdc <_ZNK18ChiFeature2Generic24OnPruneUsecaseDescriptorEPK26ChiFeature2CreateInputInfoRNSt3__16vectorI12PruneVariantNS3_9allocatorIS5_EEEE+0x54c>
   408f8: 6d 06 00 34  	cbz	w13, 0x409c4 <_ZNK18ChiFeature2Generic24OnPruneUsecaseDescriptorEPK26ChiFeature2CreateInputInfoRNSt3__16vectorI12PruneVariantNS3_9allocatorIS5_EEEE+0x234>
   40914: 08 00 00 14  	b	0x40934 <_ZNK18ChiFeature2Generic24OnPruneUsecaseDescriptorEPK26ChiFeature2CreateInputInfoRNSt3__16vectorI12PruneVariantNS3_9allocatorIS5_EEEE+0x1a4>
   40920: 22 33 00 54  	b.hs	0x40f84 <_ZNK18ChiFeature2Generic24OnPruneUsecaseDescriptorEPK26ChiFeature2CreateInputInfoRNSt3__16vectorI12PruneVariantNS3_9allocatorIS5_EEEE+0x7f4>
   40930: 82 01 00 54  	b.hs	0x40960 <_ZNK18ChiFeature2Generic24OnPruneUsecaseDescriptorEPK26ChiFeature2CreateInputInfoRNSt3__16vectorI12PruneVariantNS3_9allocatorIS5_EEEE+0x1d0>
   40940: 58 82 00 94  	bl	0x612a0 <_ZN15UsecaseSelector11IsYUVStreamEPK14camera3_stream@plt>
   40948: e1 fe ff 54  	b.ne	0x40924 <_ZNK18ChiFeature2Generic24OnPruneUsecaseDescriptorEPK26ChiFeature2CreateInputInfoRNSt3__16vectorI12PruneVariantNS3_9allocatorIS5_EEEE+0x194>
   40950: 40 fe ff 54  	b.eq	0x40918 <_ZNK18ChiFeature2Generic24OnPruneUsecaseDescriptorEPK26ChiFeature2CreateInputInfoRNSt3__16vectorI12PruneVariantNS3_9allocatorIS5_EEEE+0x188>
   40954: 56 fe ff 35  	cbnz	w22, 0x4091c <_ZNK18ChiFeature2Generic24OnPruneUsecaseDescriptorEPK26ChiFeature2CreateInputInfoRNSt3__16vectorI12PruneVariantNS3_9allocatorIS5_EEEE+0x18c>
   4095c: f0 ff ff 17  	b	0x4091c <_ZNK18ChiFeature2Generic24OnPruneUsecaseDescriptorEPK26ChiFeature2CreateInputInfoRNSt3__16vectorI12PruneVariantNS3_9allocatorIS5_EEEE+0x18c>
   40968: 1c 00 00 14  	b	0x409d8 <_ZNK18ChiFeature2Generic24OnPruneUsecaseDescriptorEPK26ChiFeature2CreateInputInfoRNSt3__16vectorI12PruneVariantNS3_9allocatorIS5_EEEE+0x248>
   40970: 49 fa ff 34  	cbz	w9, 0x408b8 <_ZNK18ChiFeature2Generic24OnPruneUsecaseDescriptorEPK26ChiFeature2CreateInputInfoRNSt3__16vectorI12PruneVariantNS3_9allocatorIS5_EEEE+0x128>
   40980: 04 00 00 14  	b	0x40990 <_ZNK18ChiFeature2Generic24OnPruneUsecaseDescriptorEPK26ChiFeature2CreateInputInfoRNSt3__16vectorI12PruneVariantNS3_9allocatorIS5_EEEE+0x200>
   4098c: 00 2d 00 54  	b.eq	0x40f2c <_ZNK18ChiFeature2Generic24OnPruneUsecaseDescriptorEPK26ChiFeature2CreateInputInfoRNSt3__16vectorI12PruneVariantNS3_9allocatorIS5_EEEE+0x79c>
   4099c: 41 ff ff 54  	b.ne	0x40984 <_ZNK18ChiFeature2Generic24OnPruneUsecaseDescriptorEPK26ChiFeature2CreateInputInfoRNSt3__16vectorI12PruneVariantNS3_9allocatorIS5_EEEE+0x1f4>
   409a8: e1 fe ff 54  	b.ne	0x40984 <_ZNK18ChiFeature2Generic24OnPruneUsecaseDescriptorEPK26ChiFeature2CreateInputInfoRNSt3__16vectorI12PruneVariantNS3_9allocatorIS5_EEEE+0x1f4>
   409b0: 61 01 00 14  	b	0x40f34 <_ZNK18ChiFeature2Generic24OnPruneUsecaseDescriptorEPK26ChiFeature2CreateInputInfoRNSt3__16vectorI12PruneVariantNS3_9allocatorIS5_EEEE+0x7a4>
   409b8: 00 f7 ff 54  	b.eq	0x40898 <_ZNK18ChiFeature2Generic24OnPruneUsecaseDescriptorEPK26ChiFeature2CreateInputInfoRNSt3__16vectorI12PruneVariantNS3_9allocatorIS5_EEEE+0x108>
   409c0: 2f 01 00 14  	b	0x40e7c <_ZNK18ChiFeature2Generic24OnPruneUsecaseDescriptorEPK26ChiFeature2CreateInputInfoRNSt3__16vectorI12PruneVariantNS3_9allocatorIS5_EEEE+0x6ec>
   409d8: 61 fe ff 90  	adrp	x1, 0xc000 <_ZNK18ChiFeature2Generic24OnPruneUsecaseDescriptorEPK26ChiFeature2CreateInputInfoRNSt3__16vectorI12PruneVariantNS3_9allocatorIS5_EEEE+0x178>
   40a04: e1 2b 00 54  	b.ne	0x40f80 <_ZNK18ChiFeature2Generic24OnPruneUsecaseDescriptorEPK26ChiFeature2CreateInputInfoRNSt3__16vectorI12PruneVariantNS3_9allocatorIS5_EEEE+0x7f0>
   40a14: 61 2b 00 54  	b.ne	0x40f80 <_ZNK18ChiFeature2Generic24OnPruneUsecaseDescriptorEPK26ChiFeature2CreateInputInfoRNSt3__16vectorI12PruneVariantNS3_9allocatorIS5_EEEE+0x7f0>
   40a3c: 33 14 00 94  	bl	0x45b08 <_ZN18ChiFeature2Generic19CreateROITranslatorEP21ChiFeature2Identifier+0x3d8>
   40a5c: 7d 14 00 94  	bl	0x45c50 <_ZN18ChiFeature2Generic19CreateROITranslatorEP21ChiFeature2Identifier+0x520>
   40a6c: 11 03 00 34  	cbz	w17, 0x40acc <_ZNK18ChiFeature2Generic24OnPruneUsecaseDescriptorEPK26ChiFeature2CreateInputInfoRNSt3__16vectorI12PruneVariantNS3_9allocatorIS5_EEEE+0x33c>
   40a90: 70 14 00 94  	bl	0x45c50 <_ZN18ChiFeature2Generic19CreateROITranslatorEP21ChiFeature2Identifier+0x520>
   40a9c: 21 27 00 54  	b.ne	0x40f80 <_ZNK18ChiFeature2Generic24OnPruneUsecaseDescriptorEPK26ChiFeature2CreateInputInfoRNSt3__16vectorI12PruneVariantNS3_9allocatorIS5_EEEE+0x7f0>
   40aac: a1 26 00 54  	b.ne	0x40f80 <_ZNK18ChiFeature2Generic24OnPruneUsecaseDescriptorEPK26ChiFeature2CreateInputInfoRNSt3__16vectorI12PruneVariantNS3_9allocatorIS5_EEEE+0x7f0>
   40ac8: 63 fd ff 54  	b.lo	0x40a74 <_ZNK18ChiFeature2Generic24OnPruneUsecaseDescriptorEPK26ChiFeature2CreateInputInfoRNSt3__16vectorI12PruneVariantNS3_9allocatorIS5_EEEE+0x2e4>
   40ad8: 40 01 00 54  	b.eq	0x40b00 <_ZNK18ChiFeature2Generic24OnPruneUsecaseDescriptorEPK26ChiFeature2CreateInputInfoRNSt3__16vectorI12PruneVariantNS3_9allocatorIS5_EEEE+0x370>
   40b00: 60 fe ff 90  	adrp	x0, 0xc000 <_ZNK18ChiFeature2Generic24OnPruneUsecaseDescriptorEPK26ChiFeature2CreateInputInfoRNSt3__16vectorI12PruneVariantNS3_9allocatorIS5_EEEE+0x2a0>
   40b08: f2 81 00 94  	bl	0x612d0 <_ZN15UsecaseSelector15GetVariantGroupEPKc@plt>
   40b0c: 79 fe ff b0  	adrp	x25, 0xd000 <_ZNK18ChiFeature2Generic24OnPruneUsecaseDescriptorEPK26ChiFeature2CreateInputInfoRNSt3__16vectorI12PruneVariantNS3_9allocatorIS5_EEEE+0x2b0>
   40b10: 6f fe ff f0  	adrp	x15, 0xf000 <_ZNK18ChiFeature2Generic24OnPruneUsecaseDescriptorEPK26ChiFeature2CreateInputInfoRNSt3__16vectorI12PruneVariantNS3_9allocatorIS5_EEEE+0x2bc>
   40b2c: ed 81 00 94  	bl	0x612e0 <_ZN15UsecaseSelector14GetVariantTypeEPKc@plt>
   40b40: a8 13 00 94  	bl	0x459e0 <_ZN18ChiFeature2Generic19CreateROITranslatorEP21ChiFeature2Identifier+0x2b0>
   40b44: 38 01 00 90  	adrp	x24, 0x64000 <_ZNK18ChiFeature2Generic24OnPruneUsecaseDescriptorEPK26ChiFeature2CreateInputInfoRNSt3__16vectorI12PruneVariantNS3_9allocatorIS5_EEEE+0x444>
   40b5c: 09 06 18 36  	tbz	w9, #3, 0x40c1c <_ZNK18ChiFeature2Generic24OnPruneUsecaseDescriptorEPK26ChiFeature2CreateInputInfoRNSt3__16vectorI12PruneVariantNS3_9allocatorIS5_EEEE+0x48c>
   40b60: 25 01 00 90  	adrp	x5, 0x64000 <_ZNK18ChiFeature2Generic24OnPruneUsecaseDescriptorEPK26ChiFeature2CreateInputInfoRNSt3__16vectorI12PruneVariantNS3_9allocatorIS5_EEEE+0x460>
   40b70: a1 02 00 54  	b.ne	0x40bc4 <_ZNK18ChiFeature2Generic24OnPruneUsecaseDescriptorEPK26ChiFeature2CreateInputInfoRNSt3__16vectorI12PruneVariantNS3_9allocatorIS5_EEEE+0x434>
   40b74: 99 fe ff 90  	adrp	x25, 0x10000 <_ZNK18ChiFeature2Generic24OnPruneUsecaseDescriptorEPK26ChiFeature2CreateInputInfoRNSt3__16vectorI12PruneVariantNS3_9allocatorIS5_EEEE+0x324>
   40b94: 81 fe ff d0  	adrp	x1, 0x12000 <_ZNK18ChiFeature2Generic24OnPruneUsecaseDescriptorEPK26ChiFeature2CreateInputInfoRNSt3__16vectorI12PruneVariantNS3_9allocatorIS5_EEEE+0x34c>
   40b98: 62 fe ff b0  	adrp	x2, 0xd000 <_ZNK18ChiFeature2Generic24OnPruneUsecaseDescriptorEPK26ChiFeature2CreateInputInfoRNSt3__16vectorI12PruneVariantNS3_9allocatorIS5_EEEE+0x33c>
   40b9c: 85 fe ff b0  	adrp	x5, 0x11000 <_ZNK18ChiFeature2Generic24OnPruneUsecaseDescriptorEPK26ChiFeature2CreateInputInfoRNSt3__16vectorI12PruneVariantNS3_9allocatorIS5_EEEE+0x350>
   40bc4: 99 fe ff 90  	adrp	x25, 0x10000 <_ZNK18ChiFeature2Generic24OnPruneUsecaseDescriptorEPK26ChiFeature2CreateInputInfoRNSt3__16vectorI12PruneVariantNS3_9allocatorIS5_EEEE+0x374>
   40be8: 80 fe ff f0  	adrp	x0, 0x13000 <_ZNK18ChiFeature2Generic24OnPruneUsecaseDescriptorEPK26ChiFeature2CreateInputInfoRNSt3__16vectorI12PruneVariantNS3_9allocatorIS5_EEEE+0x3a4>
   40bec: 61 fe ff f0  	adrp	x1, 0xf000 <_ZNK18ChiFeature2Generic24OnPruneUsecaseDescriptorEPK26ChiFeature2CreateInputInfoRNSt3__16vectorI12PruneVariantNS3_9allocatorIS5_EEEE+0x398>
   40bf0: 83 fe ff b0  	adrp	x3, 0x11000 <_ZNK18ChiFeature2Generic24OnPruneUsecaseDescriptorEPK26ChiFeature2CreateInputInfoRNSt3__16vectorI12PruneVariantNS3_9allocatorIS5_EEEE+0x3a4>
   40bf4: 65 fe ff d0  	adrp	x5, 0xe000 <_ZNK18ChiFeature2Generic24OnPruneUsecaseDescriptorEPK26ChiFeature2CreateInputInfoRNSt3__16vectorI12PruneVariantNS3_9allocatorIS5_EEEE+0x39c>
   40c14: 5f 81 00 94  	bl	0x61190 <_ZN6ChiLog9LogSystemEPKcS1_S1_S1_iS1_z@plt>
   40c20: e9 05 18 36  	tbz	w9, #3, 0x40cdc <_ZNK18ChiFeature2Generic24OnPruneUsecaseDescriptorEPK26ChiFeature2CreateInputInfoRNSt3__16vectorI12PruneVariantNS3_9allocatorIS5_EEEE+0x54c>
   40c24: 20 01 00 90  	adrp	x0, 0x64000 <_ZNK18ChiFeature2Generic24OnPruneUsecaseDescriptorEPK26ChiFeature2CreateInputInfoRNSt3__16vectorI12PruneVariantNS3_9allocatorIS5_EEEE+0x524>
   40c34: a1 02 00 54  	b.ne	0x40c88 <_ZNK18ChiFeature2Generic24OnPruneUsecaseDescriptorEPK26ChiFeature2CreateInputInfoRNSt3__16vectorI12PruneVariantNS3_9allocatorIS5_EEEE+0x4f8>
   40c38: 99 fe ff 90  	adrp	x25, 0x10000 <_ZNK18ChiFeature2Generic24OnPruneUsecaseDescriptorEPK26ChiFeature2CreateInputInfoRNSt3__16vectorI12PruneVariantNS3_9allocatorIS5_EEEE+0x3e8>
   40c58: 81 fe ff d0  	adrp	x1, 0x12000 <_ZNK18ChiFeature2Generic24OnPruneUsecaseDescriptorEPK26ChiFeature2CreateInputInfoRNSt3__16vectorI12PruneVariantNS3_9allocatorIS5_EEEE+0x410>
   40c5c: 82 fe ff d0  	adrp	x2, 0x12000 <_ZNK18ChiFeature2Generic24OnPruneUsecaseDescriptorEPK26ChiFeature2CreateInputInfoRNSt3__16vectorI12PruneVariantNS3_9allocatorIS5_EEEE+0x414>
   40c60: 85 fe ff b0  	adrp	x5, 0x11000 <_ZNK18ChiFeature2Generic24OnPruneUsecaseDescriptorEPK26ChiFeature2CreateInputInfoRNSt3__16vectorI12PruneVariantNS3_9allocatorIS5_EEEE+0x414>
   40c88: 99 fe ff 90  	adrp	x25, 0x10000 <_ZNK18ChiFeature2Generic24OnPruneUsecaseDescriptorEPK26ChiFeature2CreateInputInfoRNSt3__16vectorI12PruneVariantNS3_9allocatorIS5_EEEE+0x438>
   40cac: 80 fe ff f0  	adrp	x0, 0x13000 <_ZNK18ChiFeature2Generic24OnPruneUsecaseDescriptorEPK26ChiFeature2CreateInputInfoRNSt3__16vectorI12PruneVariantNS3_9allocatorIS5_EEEE+0x468>
   40cb0: 61 fe ff f0  	adrp	x1, 0xf000 <_ZNK18ChiFeature2Generic24OnPruneUsecaseDescriptorEPK26ChiFeature2CreateInputInfoRNSt3__16vectorI12PruneVariantNS3_9allocatorIS5_EEEE+0x45c>
   40cb4: 83 fe ff b0  	adrp	x3, 0x11000 <_ZNK18ChiFeature2Generic24OnPruneUsecaseDescriptorEPK26ChiFeature2CreateInputInfoRNSt3__16vectorI12PruneVariantNS3_9allocatorIS5_EEEE+0x468>
   40cb8: 65 fe ff 90  	adrp	x5, 0xc000 <_ZNK18ChiFeature2Generic24OnPruneUsecaseDescriptorEPK26ChiFeature2CreateInputInfoRNSt3__16vectorI12PruneVariantNS3_9allocatorIS5_EEEE+0x458>
   40cd8: 2e 81 00 94  	bl	0x61190 <_ZN6ChiLog9LogSystemEPKcS1_S1_S1_iS1_z@plt>
   40ce0: 61 fe ff d0  	adrp	x1, 0xe000 <_ZNK18ChiFeature2Generic24OnPruneUsecaseDescriptorEPK26ChiFeature2CreateInputInfoRNSt3__16vectorI12PruneVariantNS3_9allocatorIS5_EEEE+0x488>
   40cf0: 00 08 00 35  	cbnz	w0, 0x40df0 <_ZNK18ChiFeature2Generic24OnPruneUsecaseDescriptorEPK26ChiFeature2CreateInputInfoRNSt3__16vectorI12PruneVariantNS3_9allocatorIS5_EEEE+0x660>
   40cf4: 60 fe ff 90  	adrp	x0, 0xc000 <_ZNK18ChiFeature2Generic24OnPruneUsecaseDescriptorEPK26ChiFeature2CreateInputInfoRNSt3__16vectorI12PruneVariantNS3_9allocatorIS5_EEEE+0x494>
   40cfc: 75 81 00 94  	bl	0x612d0 <_ZN15UsecaseSelector15GetVariantGroupEPKc@plt>
   40d04: 60 fe ff b0  	adrp	x0, 0xd000 <_ZNK18ChiFeature2Generic24OnPruneUsecaseDescriptorEPK26ChiFeature2CreateInputInfoRNSt3__16vectorI12PruneVariantNS3_9allocatorIS5_EEEE+0x4a8>
   40d0c: 75 81 00 94  	bl	0x612e0 <_ZN15UsecaseSelector14GetVariantTypeEPKc@plt>
   40d1c: 31 13 00 94  	bl	0x459e0 <_ZN18ChiFeature2Generic19CreateROITranslatorEP21ChiFeature2Identifier+0x2b0>
   40d20: 39 01 00 90  	adrp	x25, 0x64000 <_ZNK18ChiFeature2Generic24OnPruneUsecaseDescriptorEPK26ChiFeature2CreateInputInfoRNSt3__16vectorI12PruneVariantNS3_9allocatorIS5_EEEE+0x620>
   40d2c: 28 06 18 36  	tbz	w8, #3, 0x40df0 <_ZNK18ChiFeature2Generic24OnPruneUsecaseDescriptorEPK26ChiFeature2CreateInputInfoRNSt3__16vectorI12PruneVariantNS3_9allocatorIS5_EEEE+0x660>
   40d34: 33 01 00 90  	adrp	x19, 0x64000 <_ZNK18ChiFeature2Generic24OnPruneUsecaseDescriptorEPK26ChiFeature2CreateInputInfoRNSt3__16vectorI12PruneVariantNS3_9allocatorIS5_EEEE+0x634>
   40d38: 99 fe ff 90  	adrp	x25, 0x10000 <_ZNK18ChiFeature2Generic24OnPruneUsecaseDescriptorEPK26ChiFeature2CreateInputInfoRNSt3__16vectorI12PruneVariantNS3_9allocatorIS5_EEEE+0x4e8>
   40d4c: 81 02 00 54  	b.ne	0x40d9c <_ZNK18ChiFeature2Generic24OnPruneUsecaseDescriptorEPK26ChiFeature2CreateInputInfoRNSt3__16vectorI12PruneVariantNS3_9allocatorIS5_EEEE+0x60c>
   40d68: 81 fe ff d0  	adrp	x1, 0x12000 <_ZNK18ChiFeature2Generic24OnPruneUsecaseDescriptorEPK26ChiFeature2CreateInputInfoRNSt3__16vectorI12PruneVariantNS3_9allocatorIS5_EEEE+0x520>
   40d6c: 82 fe ff d0  	adrp	x2, 0x12000 <_ZNK18ChiFeature2Generic24OnPruneUsecaseDescriptorEPK26ChiFeature2CreateInputInfoRNSt3__16vectorI12PruneVariantNS3_9allocatorIS5_EEEE+0x524>
   40d70: 85 fe ff b0  	adrp	x5, 0x11000 <_ZNK18ChiFeature2Generic24OnPruneUsecaseDescriptorEPK26ChiFeature2CreateInputInfoRNSt3__16vectorI12PruneVariantNS3_9allocatorIS5_EEEE+0x524>
   40d74: 67 fe ff b0  	adrp	x7, 0xd000 <_ZNK18ChiFeature2Generic24OnPruneUsecaseDescriptorEPK26ChiFeature2CreateInputInfoRNSt3__16vectorI12PruneVariantNS3_9allocatorIS5_EEEE+0x518>
   40db8: 80 fe ff f0  	adrp	x0, 0x13000 <_ZNK18ChiFeature2Generic24OnPruneUsecaseDescriptorEPK26ChiFeature2CreateInputInfoRNSt3__16vectorI12PruneVariantNS3_9allocatorIS5_EEEE+0x574>
   40dbc: 61 fe ff f0  	adrp	x1, 0xf000 <_ZNK18ChiFeature2Generic24OnPruneUsecaseDescriptorEPK26ChiFeature2CreateInputInfoRNSt3__16vectorI12PruneVariantNS3_9allocatorIS5_EEEE+0x568>
   40dc0: 83 fe ff b0  	adrp	x3, 0x11000 <_ZNK18ChiFeature2Generic24OnPruneUsecaseDescriptorEPK26ChiFeature2CreateInputInfoRNSt3__16vectorI12PruneVariantNS3_9allocatorIS5_EEEE+0x574>
   40dc4: 65 fe ff 90  	adrp	x5, 0xc000 <_ZNK18ChiFeature2Generic24OnPruneUsecaseDescriptorEPK26ChiFeature2CreateInputInfoRNSt3__16vectorI12PruneVariantNS3_9allocatorIS5_EEEE+0x564>
   40dc8: 67 fe ff b0  	adrp	x7, 0xd000 <_ZNK18ChiFeature2Generic24OnPruneUsecaseDescriptorEPK26ChiFeature2CreateInputInfoRNSt3__16vectorI12PruneVariantNS3_9allocatorIS5_EEEE+0x56c>
   40de8: ea 80 00 94  	bl	0x61190 <_ZN6ChiLog9LogSystemEPKcS1_S1_S1_iS1_z@plt>
   40df8: 61 fe ff b0  	adrp	x1, 0xd000 <_ZNK18ChiFeature2Generic24OnPruneUsecaseDescriptorEPK26ChiFeature2CreateInputInfoRNSt3__16vectorI12PruneVariantNS3_9allocatorIS5_EEEE+0x59c>
   40e08: a0 03 00 35  	cbnz	w0, 0x40e7c <_ZNK18ChiFeature2Generic24OnPruneUsecaseDescriptorEPK26ChiFeature2CreateInputInfoRNSt3__16vectorI12PruneVariantNS3_9allocatorIS5_EEEE+0x6ec>
   40e0c: e9 80 00 94  	bl	0x611b0 <_ZN15ExtensionModule11GetInstanceEv@plt>
   40e24: 33 81 00 94  	bl	0x612f0 <_ZN15UsecaseSelector12IsQCFASensorEPK17LogicalCameraInfoj@plt>
   40e30: 60 fe ff d0  	adrp	x0, 0xe000 <_ZNK18ChiFeature2Generic24OnPruneUsecaseDescriptorEPK26ChiFeature2CreateInputInfoRNSt3__16vectorI12PruneVariantNS3_9allocatorIS5_EEEE+0x5d8>
   40e34: 77 fe ff b0  	adrp	x23, 0xd000 <_ZNK18ChiFeature2Generic24OnPruneUsecaseDescriptorEPK26ChiFeature2CreateInputInfoRNSt3__16vectorI12PruneVariantNS3_9allocatorIS5_EEEE+0x5d8>
   40e3c: 70 fe ff f0  	adrp	x16, 0xf000 <_ZNK18ChiFeature2Generic24OnPruneUsecaseDescriptorEPK26ChiFeature2CreateInputInfoRNSt3__16vectorI12PruneVariantNS3_9allocatorIS5_EEEE+0x5e8>
   40e5c: 1d 81 00 94  	bl	0x612d0 <_ZN15UsecaseSelector15GetVariantGroupEPKc@plt>
   40e68: 1e 81 00 94  	bl	0x612e0 <_ZN15UsecaseSelector14GetVariantTypeEPKc@plt>
   40e78: da 12 00 94  	bl	0x459e0 <_ZN18ChiFeature2Generic19CreateROITranslatorEP21ChiFeature2Identifier+0x2b0>
   40e7c: 60 fe ff b0  	adrp	x0, 0xd000 <_ZNK18ChiFeature2Generic24OnPruneUsecaseDescriptorEPK26ChiFeature2CreateInputInfoRNSt3__16vectorI12PruneVariantNS3_9allocatorIS5_EEEE+0x620>
   40e84: 13 81 00 94  	bl	0x612d0 <_ZN15UsecaseSelector15GetVariantGroupEPKc@plt>
   40e8c: 73 fe ff f0  	adrp	x19, 0xf000 <_ZNK18ChiFeature2Generic24OnPruneUsecaseDescriptorEPK26ChiFeature2CreateInputInfoRNSt3__16vectorI12PruneVariantNS3_9allocatorIS5_EEEE+0x638>
   40e90: 6a fe ff f0  	adrp	x10, 0xf000 <_ZNK18ChiFeature2Generic24OnPruneUsecaseDescriptorEPK26ChiFeature2CreateInputInfoRNSt3__16vectorI12PruneVariantNS3_9allocatorIS5_EEEE+0x63c>
   40e9c: 6b fe ff d0  	adrp	x11, 0xe000 <_ZNK18ChiFeature2Generic24OnPruneUsecaseDescriptorEPK26ChiFeature2CreateInputInfoRNSt3__16vectorI12PruneVariantNS3_9allocatorIS5_EEEE+0x644>
   40eb8: 0a 81 00 94  	bl	0x612e0 <_ZN15UsecaseSelector14GetVariantTypeEPKc@plt>
   40ec8: c6 12 00 94  	bl	0x459e0 <_ZN18ChiFeature2Generic19CreateROITranslatorEP21ChiFeature2Identifier+0x2b0>
   40ecc: 60 fe ff 90  	adrp	x0, 0xc000 <_ZNK18ChiFeature2Generic24OnPruneUsecaseDescriptorEPK26ChiFeature2CreateInputInfoRNSt3__16vectorI12PruneVariantNS3_9allocatorIS5_EEEE+0x66c>
   40ed4: ff 80 00 94  	bl	0x612d0 <_ZN15UsecaseSelector15GetVariantGroupEPKc@plt>
   40edc: 60 fe ff f0  	adrp	x0, 0xf000 <_ZNK18ChiFeature2Generic24OnPruneUsecaseDescriptorEPK26ChiFeature2CreateInputInfoRNSt3__16vectorI12PruneVariantNS3_9allocatorIS5_EEEE+0x688>
   40ee4: ff 80 00 94  	bl	0x612e0 <_ZN15UsecaseSelector14GetVariantTypeEPKc@plt>
   40ef4: bb 12 00 94  	bl	0x459e0 <_ZN18ChiFeature2Generic19CreateROITranslatorEP21ChiFeature2Identifier+0x2b0>
   40f04: 21 04 00 54  	b.ne	0x40f88 <_ZNK18ChiFeature2Generic24OnPruneUsecaseDescriptorEPK26ChiFeature2CreateInputInfoRNSt3__16vectorI12PruneVariantNS3_9allocatorIS5_EEEE+0x7f8>
   40f38: 04 00 00 14  	b	0x40f48 <_ZNK18ChiFeature2Generic24OnPruneUsecaseDescriptorEPK26ChiFeature2CreateInputInfoRNSt3__16vectorI12PruneVariantNS3_9allocatorIS5_EEEE+0x7b8>
   40f44: a0 cb ff 54  	b.eq	0x408b8 <_ZNK18ChiFeature2Generic24OnPruneUsecaseDescriptorEPK26ChiFeature2CreateInputInfoRNSt3__16vectorI12PruneVariantNS3_9allocatorIS5_EEEE+0x128>
   40f50: 6f ff ff 35  	cbnz	w15, 0x40f3c <_ZNK18ChiFeature2Generic24OnPruneUsecaseDescriptorEPK26ChiFeature2CreateInputInfoRNSt3__16vectorI12PruneVariantNS3_9allocatorIS5_EEEE+0x7ac>
   40f5c: 01 ff ff 54  	b.ne	0x40f3c <_ZNK18ChiFeature2Generic24OnPruneUsecaseDescriptorEPK26ChiFeature2CreateInputInfoRNSt3__16vectorI12PruneVariantNS3_9allocatorIS5_EEEE+0x7ac>
   40f68: 81 00 00 54  	b.ne	0x40f78 <_ZNK18ChiFeature2Generic24OnPruneUsecaseDescriptorEPK26ChiFeature2CreateInputInfoRNSt3__16vectorI12PruneVariantNS3_9allocatorIS5_EEEE+0x7e8>
   40f74: 40 fe ff 54  	b.eq	0x40f3c <_ZNK18ChiFeature2Generic24OnPruneUsecaseDescriptorEPK26ChiFeature2CreateInputInfoRNSt3__16vectorI12PruneVariantNS3_9allocatorIS5_EEEE+0x7ac>
   40f7c: 50 fe ff 17  	b	0x408bc <_ZNK18ChiFeature2Generic24OnPruneUsecaseDescriptorEPK26ChiFeature2CreateInputInfoRNSt3__16vectorI12PruneVariantNS3_9allocatorIS5_EEEE+0x12c>
0000000000040f90 <_ZN18ChiFeature2Generic23OnPreparePipelineCreateEP21ChiFeature2Identifier>:
   40fb8: 35 01 00 90  	adrp	x21, 0x64000 <_ZN18ChiFeature2Generic23OnPreparePipelineCreateEP21ChiFeature2Identifier+0xb8>
   40fd4: a1 3c 00 54  	b.ne	0x41768 <_ZN18ChiFeature2Generic23OnPreparePipelineCreateEP21ChiFeature2Identifier+0x7d8>
   40fdc: 61 3d 00 54  	b.ne	0x41788 <_ZN18ChiFeature2Generic23OnPreparePipelineCreateEP21ChiFeature2Identifier+0x7f8>
   40fe0: 34 1a 00 b4  	cbz	x20, 0x41324 <_ZN18ChiFeature2Generic23OnPreparePipelineCreateEP21ChiFeature2Identifier+0x394>
   40ff4: 62 19 00 54  	b.hs	0x41320 <_ZN18ChiFeature2Generic23OnPreparePipelineCreateEP21ChiFeature2Identifier+0x390>
   40ffc: 2b 19 00 b4  	cbz	x11, 0x41320 <_ZN18ChiFeature2Generic23OnPreparePipelineCreateEP21ChiFeature2Identifier+0x390>
   41010: 82 18 00 54  	b.hs	0x41320 <_ZN18ChiFeature2Generic23OnPreparePipelineCreateEP21ChiFeature2Identifier+0x390>
   41018: 74 18 00 b4  	cbz	x20, 0x41324 <_ZN18ChiFeature2Generic23OnPreparePipelineCreateEP21ChiFeature2Identifier+0x394>
   41020: 39 18 00 b4  	cbz	x25, 0x41324 <_ZN18ChiFeature2Generic23OnPreparePipelineCreateEP21ChiFeature2Identifier+0x394>
   41028: 61 fe ff d0  	adrp	x1, 0xf000 <_ZNK18ChiFeature2Generic24OnPruneUsecaseDescriptorEPK26ChiFeature2CreateInputInfoRNSt3__16vectorI12PruneVariantNS3_9allocatorIS5_EEEE+0x7d0>
   41038: c0 1e 00 34  	cbz	w0, 0x41410 <_ZN18ChiFeature2Generic23OnPreparePipelineCreateEP21ChiFeature2Identifier+0x480>
   4103c: 41 fe ff d0  	adrp	x1, 0xb000 <_ZNK18ChiFeature2Generic24OnPruneUsecaseDescriptorEPK26ChiFeature2CreateInputInfoRNSt3__16vectorI12PruneVariantNS3_9allocatorIS5_EEEE+0x7d4>
   4104c: 20 1e 00 34  	cbz	w0, 0x41410 <_ZN18ChiFeature2Generic23OnPreparePipelineCreateEP21ChiFeature2Identifier+0x480>
   41050: 58 80 00 94  	bl	0x611b0 <_ZN15ExtensionModule11GetInstanceEv@plt>
   41060: 08 28 00 54  	b.hi	0x41560 <_ZN18ChiFeature2Generic23OnPreparePipelineCreateEP21ChiFeature2Identifier+0x5d0>
   41080: 00 27 00 54  	b.eq	0x41560 <_ZN18ChiFeature2Generic23OnPreparePipelineCreateEP21ChiFeature2Identifier+0x5d0>
   41090: 81 54 00 54  	b.ne	0x41b20 <_ZN18ChiFeature2Generic23OnPreparePipelineCreateEP21ChiFeature2Identifier+0xb90>
   410a0: 41 26 00 54  	b.ne	0x41568 <_ZN18ChiFeature2Generic23OnPreparePipelineCreateEP21ChiFeature2Identifier+0x5d8>
   410ac: 79 30 00 b4  	cbz	x25, 0x416b8 <_ZN18ChiFeature2Generic23OnPreparePipelineCreateEP21ChiFeature2Identifier+0x728>
   410c0: 3c 80 00 94  	bl	0x611b0 <_ZN15ExtensionModule11GetInstanceEv@plt>
   410cc: a0 00 00 54  	b.eq	0x410e0 <_ZN18ChiFeature2Generic23OnPreparePipelineCreateEP21ChiFeature2Identifier+0x150>
   410d0: 38 80 00 94  	bl	0x611b0 <_ZN15ExtensionModule11GetInstanceEv@plt>
   410dc: 21 09 00 54  	b.ne	0x41200 <_ZN18ChiFeature2Generic23OnPreparePipelineCreateEP21ChiFeature2Identifier+0x270>
   410ec: e1 53 00 54  	b.ne	0x41b68 <_ZN18ChiFeature2Generic23OnPreparePipelineCreateEP21ChiFeature2Identifier+0xbd8>
   410f8: c8 00 08 37  	tbnz	w8, #1, 0x41110 <_ZN18ChiFeature2Generic23OnPreparePipelineCreateEP21ChiFeature2Identifier+0x180>
   41108: c1 53 00 54  	b.ne	0x41b80 <_ZN18ChiFeature2Generic23OnPreparePipelineCreateEP21ChiFeature2Identifier+0xbf0>
   4110c: a8 07 10 36  	tbz	w8, #2, 0x41200 <_ZN18ChiFeature2Generic23OnPreparePipelineCreateEP21ChiFeature2Identifier+0x270>
   4112c: 61 fe ff f0  	adrp	x1, 0x10000 <_ZN18ChiFeature2Generic23OnPreparePipelineCreateEP21ChiFeature2Identifier+0xd8>
   41130: 42 fe ff f0  	adrp	x2, 0xc000 <_ZN18ChiFeature2Generic23OnPreparePipelineCreateEP21ChiFeature2Identifier+0xcc>
   4114c: a0 05 00 34  	cbz	w0, 0x41200 <_ZN18ChiFeature2Generic23OnPreparePipelineCreateEP21ChiFeature2Identifier+0x270>
   41150: 0c 01 00 f0  	adrp	x12, 0x64000 <_ZN18ChiFeature2Generic23OnPreparePipelineCreateEP21ChiFeature2Identifier+0x24c>
   4115c: 2f 05 08 36  	tbz	w15, #1, 0x41200 <_ZN18ChiFeature2Generic23OnPreparePipelineCreateEP21ChiFeature2Identifier+0x270>
   41160: 0d 01 00 f0  	adrp	x13, 0x64000 <_ZN18ChiFeature2Generic23OnPreparePipelineCreateEP21ChiFeature2Identifier+0x25c>
   41170: 41 02 00 54  	b.ne	0x411b8 <_ZN18ChiFeature2Generic23OnPreparePipelineCreateEP21ChiFeature2Identifier+0x228>
   41174: 77 fe ff f0  	adrp	x23, 0x10000 <_ZN18ChiFeature2Generic23OnPreparePipelineCreateEP21ChiFeature2Identifier+0x120>
   41190: 81 fe ff b0  	adrp	x1, 0x12000 <_ZN18ChiFeature2Generic23OnPreparePipelineCreateEP21ChiFeature2Identifier+0x144>
   41194: 62 fe ff d0  	adrp	x2, 0xf000 <_ZN18ChiFeature2Generic23OnPreparePipelineCreateEP21ChiFeature2Identifier+0x13c>
   41198: 65 fe ff b0  	adrp	x5, 0xe000 <_ZN18ChiFeature2Generic23OnPreparePipelineCreateEP21ChiFeature2Identifier+0x13c>
   411b8: 76 fe ff f0  	adrp	x22, 0x10000 <_ZN18ChiFeature2Generic23OnPreparePipelineCreateEP21ChiFeature2Identifier+0x164>
   411d4: 61 fe ff 90  	adrp	x1, 0xd000 <_ZN18ChiFeature2Generic23OnPreparePipelineCreateEP21ChiFeature2Identifier+0x174>
   411dc: 60 fe ff f0  	adrp	x0, 0x10000 <_ZN18ChiFeature2Generic23OnPreparePipelineCreateEP21ChiFeature2Identifier+0x188>
   411e0: 63 fe ff b0  	adrp	x3, 0xe000 <_ZN18ChiFeature2Generic23OnPreparePipelineCreateEP21ChiFeature2Identifier+0x184>
   411e4: 65 fe ff d0  	adrp	x5, 0xf000 <_ZN18ChiFeature2Generic23OnPreparePipelineCreateEP21ChiFeature2Identifier+0x18c>
   411fc: e5 7f 00 94  	bl	0x61190 <_ZN6ChiLog9LogSystemEPKcS1_S1_S1_iS1_z@plt>
   4120c: 21 4a 00 54  	b.ne	0x41b50 <_ZN18ChiFeature2Generic23OnPreparePipelineCreateEP21ChiFeature2Identifier+0xbc0>
   41220: a8 22 00 54  	b.hi	0x41674 <_ZN18ChiFeature2Generic23OnPreparePipelineCreateEP21ChiFeature2Identifier+0x6e4>
   4122c: 43 22 00 54  	b.lo	0x41674 <_ZN18ChiFeature2Generic23OnPreparePipelineCreateEP21ChiFeature2Identifier+0x6e4>
   4124c: 61 fe ff 90  	adrp	x1, 0xd000 <_ZN18ChiFeature2Generic23OnPreparePipelineCreateEP21ChiFeature2Identifier+0x1ec>
   41250: 42 fe ff f0  	adrp	x2, 0xc000 <_ZN18ChiFeature2Generic23OnPreparePipelineCreateEP21ChiFeature2Identifier+0x1ec>
   41270: 40 20 00 34  	cbz	w0, 0x41678 <_ZN18ChiFeature2Generic23OnPreparePipelineCreateEP21ChiFeature2Identifier+0x6e8>
   41274: 0e 01 00 f0  	adrp	x14, 0x64000 <_ZN18ChiFeature2Generic23OnPreparePipelineCreateEP21ChiFeature2Identifier+0x370>
   41280: d1 1f 00 36  	tbz	w17, #0, 0x41678 <_ZN18ChiFeature2Generic23OnPreparePipelineCreateEP21ChiFeature2Identifier+0x6e8>
   41284: 0f 01 00 f0  	adrp	x15, 0x64000 <_ZN18ChiFeature2Generic23OnPreparePipelineCreateEP21ChiFeature2Identifier+0x380>
   41288: 77 fe ff f0  	adrp	x23, 0x10000 <_ZN18ChiFeature2Generic23OnPreparePipelineCreateEP21ChiFeature2Identifier+0x234>
   4129c: 01 02 00 54  	b.ne	0x412dc <_ZN18ChiFeature2Generic23OnPreparePipelineCreateEP21ChiFeature2Identifier+0x34c>
   412b4: 81 fe ff b0  	adrp	x1, 0x12000 <_ZN18ChiFeature2Generic23OnPreparePipelineCreateEP21ChiFeature2Identifier+0x268>
   412b8: 42 fe ff f0  	adrp	x2, 0xc000 <_ZN18ChiFeature2Generic23OnPreparePipelineCreateEP21ChiFeature2Identifier+0x254>
   412bc: 65 fe ff b0  	adrp	x5, 0xe000 <_ZN18ChiFeature2Generic23OnPreparePipelineCreateEP21ChiFeature2Identifier+0x260>
   412f0: 81 fe ff b0  	adrp	x1, 0x12000 <_ZN18ChiFeature2Generic23OnPreparePipelineCreateEP21ChiFeature2Identifier+0x2a4>
   412f8: 40 fe ff f0  	adrp	x0, 0xc000 <_ZN18ChiFeature2Generic23OnPreparePipelineCreateEP21ChiFeature2Identifier+0x294>
   412fc: 63 fe ff b0  	adrp	x3, 0xe000 <_ZN18ChiFeature2Generic23OnPreparePipelineCreateEP21ChiFeature2Identifier+0x2a0>
   41300: 65 fe ff 90  	adrp	x5, 0xd000 <_ZN18ChiFeature2Generic23OnPreparePipelineCreateEP21ChiFeature2Identifier+0x2a0>
   41318: 9e 7f 00 94  	bl	0x61190 <_ZN6ChiLog9LogSystemEPKcS1_S1_S1_iS1_z@plt>
   4131c: d7 00 00 14  	b	0x41678 <_ZN18ChiFeature2Generic23OnPreparePipelineCreateEP21ChiFeature2Identifier+0x6e8>
   41324: 03 01 00 f0  	adrp	x3, 0x64000 <_ZN18ChiFeature2Generic23OnPreparePipelineCreateEP21ChiFeature2Identifier+0x420>
   41330: 66 05 08 36  	tbz	w6, #1, 0x413dc <_ZN18ChiFeature2Generic23OnPreparePipelineCreateEP21ChiFeature2Identifier+0x44c>
   41334: 04 01 00 f0  	adrp	x4, 0x64000 <_ZN18ChiFeature2Generic23OnPreparePipelineCreateEP21ChiFeature2Identifier+0x430>
   41344: 61 02 00 54  	b.ne	0x41390 <_ZN18ChiFeature2Generic23OnPreparePipelineCreateEP21ChiFeature2Identifier+0x400>
   41348: 77 fe ff f0  	adrp	x23, 0x10000 <_ZN18ChiFeature2Generic23OnPreparePipelineCreateEP21ChiFeature2Identifier+0x2f4>
   41364: 81 fe ff b0  	adrp	x1, 0x12000 <_ZN18ChiFeature2Generic23OnPreparePipelineCreateEP21ChiFeature2Identifier+0x318>
   41368: 62 fe ff f0  	adrp	x2, 0x10000 <_ZN18ChiFeature2Generic23OnPreparePipelineCreateEP21ChiFeature2Identifier+0x314>
   4136c: 65 fe ff b0  	adrp	x5, 0xe000 <_ZN18ChiFeature2Generic23OnPreparePipelineCreateEP21ChiFeature2Identifier+0x310>
   41390: 76 fe ff f0  	adrp	x22, 0x10000 <_ZN18ChiFeature2Generic23OnPreparePipelineCreateEP21ChiFeature2Identifier+0x33c>
   413ac: 61 fe ff 90  	adrp	x1, 0xd000 <_ZN18ChiFeature2Generic23OnPreparePipelineCreateEP21ChiFeature2Identifier+0x34c>
   413b4: 60 fe ff f0  	adrp	x0, 0x10000 <_ZN18ChiFeature2Generic23OnPreparePipelineCreateEP21ChiFeature2Identifier+0x360>
   413b8: 63 fe ff b0  	adrp	x3, 0xe000 <_ZN18ChiFeature2Generic23OnPreparePipelineCreateEP21ChiFeature2Identifier+0x35c>
   413bc: 65 fe ff b0  	adrp	x5, 0xe000 <_ZN18ChiFeature2Generic23OnPreparePipelineCreateEP21ChiFeature2Identifier+0x360>
   413d8: 6e 7f 00 94  	bl	0x61190 <_ZN6ChiLog9LogSystemEPKcS1_S1_S1_iS1_z@plt>
   413ec: c1 3d 00 54  	b.ne	0x41ba4 <_ZN18ChiFeature2Generic23OnPreparePipelineCreateEP21ChiFeature2Identifier+0xc14>
   41420: 21 1c 00 54  	b.ne	0x417a4 <_ZN18ChiFeature2Generic23OnPreparePipelineCreateEP21ChiFeature2Identifier+0x814>
   41428: d4 1c 00 b4  	cbz	x20, 0x417c0 <_ZN18ChiFeature2Generic23OnPreparePipelineCreateEP21ChiFeature2Identifier+0x830>
   41434: 5f 7f 00 94  	bl	0x611b0 <_ZN15ExtensionModule11GetInstanceEv@plt>
   4145c: 55 7f 00 94  	bl	0x611b0 <_ZN15ExtensionModule11GetInstanceEv@plt>
   4147c: 75 00 00 b4  	cbz	x21, 0x41488 <_ZN18ChiFeature2Generic23OnPreparePipelineCreateEP21ChiFeature2Identifier+0x4f8>
   41484: 02 00 00 14  	b	0x4148c <_ZN18ChiFeature2Generic23OnPreparePipelineCreateEP21ChiFeature2Identifier+0x4fc>
   4148c: 73 00 00 b4  	cbz	x19, 0x41498 <_ZN18ChiFeature2Generic23OnPreparePipelineCreateEP21ChiFeature2Identifier+0x508>
   41494: 02 00 00 14  	b	0x4149c <_ZN18ChiFeature2Generic23OnPreparePipelineCreateEP21ChiFeature2Identifier+0x50c>
   4149c: 10 01 00 f0  	adrp	x16, 0x64000 <_ZN18ChiFeature2Generic23OnPreparePipelineCreateEP21ChiFeature2Identifier+0x598>
   414a8: c9 1e 28 36  	tbz	w9, #5, 0x41880 <_ZN18ChiFeature2Generic23OnPreparePipelineCreateEP21ChiFeature2Identifier+0x8f0>
   414ac: 11 01 00 f0  	adrp	x17, 0x64000 <_ZN18ChiFeature2Generic23OnPreparePipelineCreateEP21ChiFeature2Identifier+0x5a8>
   414bc: 81 02 00 54  	b.ne	0x4150c <_ZN18ChiFeature2Generic23OnPreparePipelineCreateEP21ChiFeature2Identifier+0x57c>
   414c0: 77 fe ff f0  	adrp	x23, 0x10000 <_ZN18ChiFeature2Generic23OnPreparePipelineCreateEP21ChiFeature2Identifier+0x46c>
   414dc: 81 fe ff b0  	adrp	x1, 0x12000 <_ZN18ChiFeature2Generic23OnPreparePipelineCreateEP21ChiFeature2Identifier+0x490>
   414e0: 82 fe ff d0  	adrp	x2, 0x13000 <_ZN18ChiFeature2Generic23OnPreparePipelineCreateEP21ChiFeature2Identifier+0x498>
   414e4: 65 fe ff b0  	adrp	x5, 0xe000 <_ZN18ChiFeature2Generic23OnPreparePipelineCreateEP21ChiFeature2Identifier+0x488>
   4150c: 77 fe ff f0  	adrp	x23, 0x10000 <_ZN18ChiFeature2Generic23OnPreparePipelineCreateEP21ChiFeature2Identifier+0x4b8>
   41528: 61 fe ff f0  	adrp	x1, 0x10000 <_ZN18ChiFeature2Generic23OnPreparePipelineCreateEP21ChiFeature2Identifier+0x4d4>
   41530: 80 fe ff b0  	adrp	x0, 0x12000 <_ZN18ChiFeature2Generic23OnPreparePipelineCreateEP21ChiFeature2Identifier+0x4e4>
   41534: 63 fe ff b0  	adrp	x3, 0xe000 <_ZN18ChiFeature2Generic23OnPreparePipelineCreateEP21ChiFeature2Identifier+0x4d8>
   41538: 45 fe ff d0  	adrp	x5, 0xb000 <_ZN18ChiFeature2Generic23OnPreparePipelineCreateEP21ChiFeature2Identifier+0x4d0>
   41558: 0e 7f 00 94  	bl	0x61190 <_ZN6ChiLog9LogSystemEPKcS1_S1_S1_iS1_z@plt>
   4155c: c9 00 00 14  	b	0x41880 <_ZN18ChiFeature2Generic23OnPreparePipelineCreateEP21ChiFeature2Identifier+0x8f0>
   41564: 00 d9 ff 54  	b.eq	0x41084 <_ZN18ChiFeature2Generic23OnPreparePipelineCreateEP21ChiFeature2Identifier+0xf4>
   4156c: c7 ed ff b4  	cbz	x7, 0x41324 <_ZN18ChiFeature2Generic23OnPreparePipelineCreateEP21ChiFeature2Identifier+0x394>
   41574: 81 fe ff b0  	adrp	x1, 0x12000 <_ZN18ChiFeature2Generic23OnPreparePipelineCreateEP21ChiFeature2Identifier+0x528>
   41584: 00 02 00 34  	cbz	w0, 0x415c4 <_ZN18ChiFeature2Generic23OnPreparePipelineCreateEP21ChiFeature2Identifier+0x634>
   41588: 41 fe ff f0  	adrp	x1, 0xc000 <_ZN18ChiFeature2Generic23OnPreparePipelineCreateEP21ChiFeature2Identifier+0x524>
   41598: 60 01 00 34  	cbz	w0, 0x415c4 <_ZN18ChiFeature2Generic23OnPreparePipelineCreateEP21ChiFeature2Identifier+0x634>
   4159c: 61 fe ff f0  	adrp	x1, 0x10000 <_ZN18ChiFeature2Generic23OnPreparePipelineCreateEP21ChiFeature2Identifier+0x548>
   415ac: c0 00 00 34  	cbz	w0, 0x415c4 <_ZN18ChiFeature2Generic23OnPreparePipelineCreateEP21ChiFeature2Identifier+0x634>
   415b0: 61 fe ff f0  	adrp	x1, 0x10000 <_ZN18ChiFeature2Generic23OnPreparePipelineCreateEP21ChiFeature2Identifier+0x55c>
   415c0: 20 eb ff 35  	cbnz	w0, 0x41324 <_ZN18ChiFeature2Generic23OnPreparePipelineCreateEP21ChiFeature2Identifier+0x394>
   415d0: 41 2b 00 54  	b.ne	0x41b38 <_ZN18ChiFeature2Generic23OnPreparePipelineCreateEP21ChiFeature2Identifier+0xba8>
   415e0: a0 00 00 54  	b.eq	0x415f4 <_ZN18ChiFeature2Generic23OnPreparePipelineCreateEP21ChiFeature2Identifier+0x664>
   415e4: c9 ef ff 35  	cbnz	w9, 0x413dc <_ZN18ChiFeature2Generic23OnPreparePipelineCreateEP21ChiFeature2Identifier+0x44c>
   415f0: 63 ef ff 54  	b.lo	0x413dc <_ZN18ChiFeature2Generic23OnPreparePipelineCreateEP21ChiFeature2Identifier+0x44c>
   415f4: ef 7e 00 94  	bl	0x611b0 <_ZN15ExtensionModule11GetInstanceEv@plt>
   41600: f4 ee ff b4  	cbz	x20, 0x413dc <_ZN18ChiFeature2Generic23OnPreparePipelineCreateEP21ChiFeature2Identifier+0x44c>
   41608: ea 7e 00 94  	bl	0x611b0 <_ZN15ExtensionModule11GetInstanceEv@plt>
   41610: 6a ee ff b4  	cbz	x10, 0x413dc <_ZN18ChiFeature2Generic23OnPreparePipelineCreateEP21ChiFeature2Identifier+0x44c>
   41618: 56 ee ff 35  	cbnz	w22, 0x413e0 <_ZN18ChiFeature2Generic23OnPreparePipelineCreateEP21ChiFeature2Identifier+0x450>
   41624: e1 ed ff 54  	b.ne	0x413e0 <_ZN18ChiFeature2Generic23OnPreparePipelineCreateEP21ChiFeature2Identifier+0x450>
   41650: 61 fe ff 90  	adrp	x1, 0xd000 <_ZN18ChiFeature2Generic23OnPreparePipelineCreateEP21ChiFeature2Identifier+0x5f0>
   41654: 62 fe ff b0  	adrp	x2, 0xe000 <_ZN18ChiFeature2Generic23OnPreparePipelineCreateEP21ChiFeature2Identifier+0x5f8>
   41670: 5b ff ff 17  	b	0x413dc <_ZN18ChiFeature2Generic23OnPreparePipelineCreateEP21ChiFeature2Identifier+0x44c>
   41694: 61 fe ff 90  	adrp	x1, 0xd000 <_ZN18ChiFeature2Generic23OnPreparePipelineCreateEP21ChiFeature2Identifier+0x634>
   41698: 62 fe ff b0  	adrp	x2, 0xe000 <_ZN18ChiFeature2Generic23OnPreparePipelineCreateEP21ChiFeature2Identifier+0x63c>
   416b4: 4b ff ff 17  	b	0x413e0 <_ZN18ChiFeature2Generic23OnPreparePipelineCreateEP21ChiFeature2Identifier+0x450>
   416b8: 10 01 00 f0  	adrp	x16, 0x64000 <_ZN18ChiFeature2Generic23OnPreparePipelineCreateEP21ChiFeature2Identifier+0x7b4>
   416c4: c3 e8 07 36  	tbz	w3, #0, 0x413dc <_ZN18ChiFeature2Generic23OnPreparePipelineCreateEP21ChiFeature2Identifier+0x44c>
   416c8: 11 01 00 f0  	adrp	x17, 0x64000 <_ZN18ChiFeature2Generic23OnPreparePipelineCreateEP21ChiFeature2Identifier+0x7c4>
   416d8: 41 02 00 54  	b.ne	0x41720 <_ZN18ChiFeature2Generic23OnPreparePipelineCreateEP21ChiFeature2Identifier+0x790>
   416dc: 74 fe ff f0  	adrp	x20, 0x10000 <_ZN18ChiFeature2Generic23OnPreparePipelineCreateEP21ChiFeature2Identifier+0x688>
   416f8: 81 fe ff b0  	adrp	x1, 0x12000 <_ZN18ChiFeature2Generic23OnPreparePipelineCreateEP21ChiFeature2Identifier+0x6ac>
   416fc: 62 fe ff d0  	adrp	x2, 0xf000 <_ZN18ChiFeature2Generic23OnPreparePipelineCreateEP21ChiFeature2Identifier+0x6a4>
   41700: 65 fe ff b0  	adrp	x5, 0xe000 <_ZN18ChiFeature2Generic23OnPreparePipelineCreateEP21ChiFeature2Identifier+0x6a4>
   41720: 77 fe ff f0  	adrp	x23, 0x10000 <_ZN18ChiFeature2Generic23OnPreparePipelineCreateEP21ChiFeature2Identifier+0x6cc>
   4173c: 81 fe ff b0  	adrp	x1, 0x12000 <_ZN18ChiFeature2Generic23OnPreparePipelineCreateEP21ChiFeature2Identifier+0x6f0>
   41744: 40 fe ff f0  	adrp	x0, 0xc000 <_ZN18ChiFeature2Generic23OnPreparePipelineCreateEP21ChiFeature2Identifier+0x6e0>
   41748: 63 fe ff b0  	adrp	x3, 0xe000 <_ZN18ChiFeature2Generic23OnPreparePipelineCreateEP21ChiFeature2Identifier+0x6ec>
   4174c: 65 fe ff b0  	adrp	x5, 0xe000 <_ZN18ChiFeature2Generic23OnPreparePipelineCreateEP21ChiFeature2Identifier+0x6f0>
   41764: ed 00 00 14  	b	0x41b18 <_ZN18ChiFeature2Generic23OnPreparePipelineCreateEP21ChiFeature2Identifier+0xb88>
   41784: e0 c2 ff 54  	b.eq	0x40fe0 <_ZN18ChiFeature2Generic23OnPreparePipelineCreateEP21ChiFeature2Identifier+0x50>
   4179c: 54 c2 ff b5  	cbnz	x20, 0x40fe4 <_ZN18ChiFeature2Generic23OnPreparePipelineCreateEP21ChiFeature2Identifier+0x54>
   417a0: e1 fe ff 17  	b	0x41324 <_ZN18ChiFeature2Generic23OnPreparePipelineCreateEP21ChiFeature2Identifier+0x394>
   417bc: 94 e3 ff b5  	cbnz	x20, 0x4142c <_ZN18ChiFeature2Generic23OnPreparePipelineCreateEP21ChiFeature2Identifier+0x49c>
   417c0: 01 01 00 f0  	adrp	x1, 0x64000 <_ZN18ChiFeature2Generic23OnPreparePipelineCreateEP21ChiFeature2Identifier+0x8bc>
   417cc: 2a 05 28 36  	tbz	w10, #5, 0x41870 <_ZN18ChiFeature2Generic23OnPreparePipelineCreateEP21ChiFeature2Identifier+0x8e0>
   417d0: 02 01 00 f0  	adrp	x2, 0x64000 <_ZN18ChiFeature2Generic23OnPreparePipelineCreateEP21ChiFeature2Identifier+0x8cc>
   417e0: 41 02 00 54  	b.ne	0x41828 <_ZN18ChiFeature2Generic23OnPreparePipelineCreateEP21ChiFeature2Identifier+0x898>
   417e4: 74 fe ff f0  	adrp	x20, 0x10000 <_ZN18ChiFeature2Generic23OnPreparePipelineCreateEP21ChiFeature2Identifier+0x790>
   41800: 81 fe ff b0  	adrp	x1, 0x12000 <_ZN18ChiFeature2Generic23OnPreparePipelineCreateEP21ChiFeature2Identifier+0x7b4>
   41804: 82 fe ff 90  	adrp	x2, 0x11000 <_ZN18ChiFeature2Generic23OnPreparePipelineCreateEP21ChiFeature2Identifier+0x7b4>
   41808: 65 fe ff b0  	adrp	x5, 0xe000 <_ZN18ChiFeature2Generic23OnPreparePipelineCreateEP21ChiFeature2Identifier+0x7ac>
   41828: 77 fe ff f0  	adrp	x23, 0x10000 <_ZN18ChiFeature2Generic23OnPreparePipelineCreateEP21ChiFeature2Identifier+0x7d4>
   41844: 61 fe ff f0  	adrp	x1, 0x10000 <_ZN18ChiFeature2Generic23OnPreparePipelineCreateEP21ChiFeature2Identifier+0x7f0>
   4184c: 80 fe ff b0  	adrp	x0, 0x12000 <_ZN18ChiFeature2Generic23OnPreparePipelineCreateEP21ChiFeature2Identifier+0x800>
   41850: 63 fe ff b0  	adrp	x3, 0xe000 <_ZN18ChiFeature2Generic23OnPreparePipelineCreateEP21ChiFeature2Identifier+0x7f4>
   41854: 45 fe ff f0  	adrp	x5, 0xc000 <_ZN18ChiFeature2Generic23OnPreparePipelineCreateEP21ChiFeature2Identifier+0x7f0>
   4186c: 49 7e 00 94  	bl	0x61190 <_ZN6ChiLog9LogSystemEPKcS1_S1_S1_iS1_z@plt>
   41880: 79 0f 00 b4  	cbz	x25, 0x41a6c <_ZN18ChiFeature2Generic23OnPreparePipelineCreateEP21ChiFeature2Identifier+0xadc>
   41894: 76 07 00 34  	cbz	w22, 0x41980 <_ZN18ChiFeature2Generic23OnPreparePipelineCreateEP21ChiFeature2Identifier+0x9f0>
   418ac: 41 fe ff d0  	adrp	x1, 0xb000 <_ZN18ChiFeature2Generic23OnPreparePipelineCreateEP21ChiFeature2Identifier+0x844>
   418b0: 62 fe ff b0  	adrp	x2, 0xe000 <_ZN18ChiFeature2Generic23OnPreparePipelineCreateEP21ChiFeature2Identifier+0x854>
   418cc: a0 05 00 34  	cbz	w0, 0x41980 <_ZN18ChiFeature2Generic23OnPreparePipelineCreateEP21ChiFeature2Identifier+0x9f0>
   418d0: 03 01 00 f0  	adrp	x3, 0x64000 <_ZN18ChiFeature2Generic23OnPreparePipelineCreateEP21ChiFeature2Identifier+0x9cc>
   418dc: 2b 05 08 36  	tbz	w11, #1, 0x41980 <_ZN18ChiFeature2Generic23OnPreparePipelineCreateEP21ChiFeature2Identifier+0x9f0>
   418e0: 04 01 00 f0  	adrp	x4, 0x64000 <_ZN18ChiFeature2Generic23OnPreparePipelineCreateEP21ChiFeature2Identifier+0x9dc>
   418f0: 41 02 00 54  	b.ne	0x41938 <_ZN18ChiFeature2Generic23OnPreparePipelineCreateEP21ChiFeature2Identifier+0x9a8>
   418f4: 76 fe ff f0  	adrp	x22, 0x10000 <_ZN18ChiFeature2Generic23OnPreparePipelineCreateEP21ChiFeature2Identifier+0x8a0>
   41910: 81 fe ff b0  	adrp	x1, 0x12000 <_ZN18ChiFeature2Generic23OnPreparePipelineCreateEP21ChiFeature2Identifier+0x8c4>
   41914: 42 fe ff f0  	adrp	x2, 0xc000 <_ZN18ChiFeature2Generic23OnPreparePipelineCreateEP21ChiFeature2Identifier+0x8b0>
   41918: 65 fe ff b0  	adrp	x5, 0xe000 <_ZN18ChiFeature2Generic23OnPreparePipelineCreateEP21ChiFeature2Identifier+0x8bc>
   41938: 76 fe ff f0  	adrp	x22, 0x10000 <_ZN18ChiFeature2Generic23OnPreparePipelineCreateEP21ChiFeature2Identifier+0x8e4>
   41954: 61 fe ff 90  	adrp	x1, 0xd000 <_ZN18ChiFeature2Generic23OnPreparePipelineCreateEP21ChiFeature2Identifier+0x8f4>
   4195c: 60 fe ff f0  	adrp	x0, 0x10000 <_ZN18ChiFeature2Generic23OnPreparePipelineCreateEP21ChiFeature2Identifier+0x908>
   41960: 63 fe ff b0  	adrp	x3, 0xe000 <_ZN18ChiFeature2Generic23OnPreparePipelineCreateEP21ChiFeature2Identifier+0x904>
   41964: 65 fe ff f0  	adrp	x5, 0x10000 <_ZN18ChiFeature2Generic23OnPreparePipelineCreateEP21ChiFeature2Identifier+0x910>
   4197c: 05 7e 00 94  	bl	0x61190 <_ZN6ChiLog9LogSystemEPKcS1_S1_S1_iS1_z@plt>
   41980: f4 d2 ff 34  	cbz	w20, 0x413dc <_ZN18ChiFeature2Generic23OnPreparePipelineCreateEP21ChiFeature2Identifier+0x44c>
   41998: 61 fe ff 90  	adrp	x1, 0xd000 <_ZN18ChiFeature2Generic23OnPreparePipelineCreateEP21ChiFeature2Identifier+0x938>
   4199c: 62 fe ff 90  	adrp	x2, 0xd000 <_ZN18ChiFeature2Generic23OnPreparePipelineCreateEP21ChiFeature2Identifier+0x93c>
   419b8: 20 d1 ff 34  	cbz	w0, 0x413dc <_ZN18ChiFeature2Generic23OnPreparePipelineCreateEP21ChiFeature2Identifier+0x44c>
   419bc: 05 01 00 f0  	adrp	x5, 0x64000 <_ZN18ChiFeature2Generic23OnPreparePipelineCreateEP21ChiFeature2Identifier+0xab8>
   419c8: ac d0 0f 36  	tbz	w12, #1, 0x413dc <_ZN18ChiFeature2Generic23OnPreparePipelineCreateEP21ChiFeature2Identifier+0x44c>
   419cc: 06 01 00 f0  	adrp	x6, 0x64000 <_ZN18ChiFeature2Generic23OnPreparePipelineCreateEP21ChiFeature2Identifier+0xac8>
   419dc: 41 02 00 54  	b.ne	0x41a24 <_ZN18ChiFeature2Generic23OnPreparePipelineCreateEP21ChiFeature2Identifier+0xa94>
   419e0: 77 fe ff f0  	adrp	x23, 0x10000 <_ZN18ChiFeature2Generic23OnPreparePipelineCreateEP21ChiFeature2Identifier+0x98c>
   419fc: 81 fe ff b0  	adrp	x1, 0x12000 <_ZN18ChiFeature2Generic23OnPreparePipelineCreateEP21ChiFeature2Identifier+0x9b0>
   41a00: 82 fe ff 90  	adrp	x2, 0x11000 <_ZN18ChiFeature2Generic23OnPreparePipelineCreateEP21ChiFeature2Identifier+0x9b0>
   41a04: 65 fe ff b0  	adrp	x5, 0xe000 <_ZN18ChiFeature2Generic23OnPreparePipelineCreateEP21ChiFeature2Identifier+0x9a8>
   41a24: 76 fe ff f0  	adrp	x22, 0x10000 <_ZN18ChiFeature2Generic23OnPreparePipelineCreateEP21ChiFeature2Identifier+0x9d0>
   41a40: 61 fe ff 90  	adrp	x1, 0xd000 <_ZN18ChiFeature2Generic23OnPreparePipelineCreateEP21ChiFeature2Identifier+0x9e0>
   41a48: 60 fe ff f0  	adrp	x0, 0x10000 <_ZN18ChiFeature2Generic23OnPreparePipelineCreateEP21ChiFeature2Identifier+0x9f4>
   41a4c: 63 fe ff b0  	adrp	x3, 0xe000 <_ZN18ChiFeature2Generic23OnPreparePipelineCreateEP21ChiFeature2Identifier+0x9f0>
   41a50: 85 fe ff b0  	adrp	x5, 0x12000 <_ZN18ChiFeature2Generic23OnPreparePipelineCreateEP21ChiFeature2Identifier+0xa04>
   41a68: 2c 00 00 14  	b	0x41b18 <_ZN18ChiFeature2Generic23OnPreparePipelineCreateEP21ChiFeature2Identifier+0xb88>
   41a6c: 07 01 00 f0  	adrp	x7, 0x64000 <_ZN18ChiFeature2Generic23OnPreparePipelineCreateEP21ChiFeature2Identifier+0xb68>
   41a78: 2d cb 07 36  	tbz	w13, #0, 0x413dc <_ZN18ChiFeature2Generic23OnPreparePipelineCreateEP21ChiFeature2Identifier+0x44c>
   41a7c: 13 01 00 f0  	adrp	x19, 0x64000 <_ZN18ChiFeature2Generic23OnPreparePipelineCreateEP21ChiFeature2Identifier+0xb78>
   41a8c: 41 02 00 54  	b.ne	0x41ad4 <_ZN18ChiFeature2Generic23OnPreparePipelineCreateEP21ChiFeature2Identifier+0xb44>
   41a90: 74 fe ff f0  	adrp	x20, 0x10000 <_ZN18ChiFeature2Generic23OnPreparePipelineCreateEP21ChiFeature2Identifier+0xa3c>
   41aac: 81 fe ff b0  	adrp	x1, 0x12000 <_ZN18ChiFeature2Generic23OnPreparePipelineCreateEP21ChiFeature2Identifier+0xa60>
   41ab0: 62 fe ff d0  	adrp	x2, 0xf000 <_ZN18ChiFeature2Generic23OnPreparePipelineCreateEP21ChiFeature2Identifier+0xa58>
   41ab4: 65 fe ff b0  	adrp	x5, 0xe000 <_ZN18ChiFeature2Generic23OnPreparePipelineCreateEP21ChiFeature2Identifier+0xa58>
   41ad4: 77 fe ff f0  	adrp	x23, 0x10000 <_ZN18ChiFeature2Generic23OnPreparePipelineCreateEP21ChiFeature2Identifier+0xa80>
   41af0: 81 fe ff b0  	adrp	x1, 0x12000 <_ZN18ChiFeature2Generic23OnPreparePipelineCreateEP21ChiFeature2Identifier+0xaa4>
   41af8: 40 fe ff f0  	adrp	x0, 0xc000 <_ZN18ChiFeature2Generic23OnPreparePipelineCreateEP21ChiFeature2Identifier+0xa94>
   41afc: 63 fe ff b0  	adrp	x3, 0xe000 <_ZN18ChiFeature2Generic23OnPreparePipelineCreateEP21ChiFeature2Identifier+0xaa0>
   41b00: 65 fe ff b0  	adrp	x5, 0xe000 <_ZN18ChiFeature2Generic23OnPreparePipelineCreateEP21ChiFeature2Identifier+0xaa4>
   41b18: 9e 7d 00 94  	bl	0x61190 <_ZN6ChiLog9LogSystemEPKcS1_S1_S1_iS1_z@plt>
   41b1c: 30 fe ff 17  	b	0x413dc <_ZN18ChiFeature2Generic23OnPreparePipelineCreateEP21ChiFeature2Identifier+0x44c>
   41b34: 58 fd ff 17  	b	0x41094 <_ZN18ChiFeature2Generic23OnPreparePipelineCreateEP21ChiFeature2Identifier+0x104>
   41b4c: a2 fe ff 17  	b	0x415d4 <_ZN18ChiFeature2Generic23OnPreparePipelineCreateEP21ChiFeature2Identifier+0x644>
   41b64: ab fd ff 17  	b	0x41210 <_ZN18ChiFeature2Generic23OnPreparePipelineCreateEP21ChiFeature2Identifier+0x280>
   41b7c: 5d fd ff 17  	b	0x410f0 <_ZN18ChiFeature2Generic23OnPreparePipelineCreateEP21ChiFeature2Identifier+0x160>
   41b9c: a8 ab 17 37  	tbnz	w8, #2, 0x41110 <_ZN18ChiFeature2Generic23OnPreparePipelineCreateEP21ChiFeature2Identifier+0x180>
   41ba0: 98 fd ff 17  	b	0x41200 <_ZN18ChiFeature2Generic23OnPreparePipelineCreateEP21ChiFeature2Identifier+0x270>
0000000000041ba8 <_ZN18ChiFeature2Generic16OnPipelineCreateEP21ChiFeature2Identifier>:
   41bb8: a1 07 00 b4  	cbz	x1, 0x41cac <_ZN18ChiFeature2Generic16OnPipelineCreateEP21ChiFeature2Identifier+0x104>
   41bc0: 13 01 00 f0  	adrp	x19, 0x64000 <_ZN18ChiFeature2Generic16OnPipelineCreateEP21ChiFeature2Identifier+0xa4>
   41bd0: c1 0c 00 54  	b.ne	0x41d68 <_ZN18ChiFeature2Generic16OnPipelineCreateEP21ChiFeature2Identifier+0x1c0>
   41bd8: 41 0e 00 54  	b.ne	0x41da0 <_ZN18ChiFeature2Generic16OnPipelineCreateEP21ChiFeature2Identifier+0x1f8>
   41bec: 82 02 00 54  	b.hs	0x41c3c <_ZN18ChiFeature2Generic16OnPipelineCreateEP21ChiFeature2Identifier+0x94>
   41bf4: 4b 02 00 b4  	cbz	x11, 0x41c3c <_ZN18ChiFeature2Generic16OnPipelineCreateEP21ChiFeature2Identifier+0x94>
   41c08: a2 01 00 54  	b.hs	0x41c3c <_ZN18ChiFeature2Generic16OnPipelineCreateEP21ChiFeature2Identifier+0x94>
   41c10: 68 01 00 b4  	cbz	x8, 0x41c3c <_ZN18ChiFeature2Generic16OnPipelineCreateEP21ChiFeature2Identifier+0x94>
   41c20: 01 12 00 54  	b.ne	0x41e60 <_ZN18ChiFeature2Generic16OnPipelineCreateEP21ChiFeature2Identifier+0x2b8>
   41c30: 60 00 00 54  	b.eq	0x41c3c <_ZN18ChiFeature2Generic16OnPipelineCreateEP21ChiFeature2Identifier+0x94>
   41c48: 41 0c 00 54  	b.ne	0x41dd0 <_ZN18ChiFeature2Generic16OnPipelineCreateEP21ChiFeature2Identifier+0x228>
   41c58: e0 07 00 54  	b.eq	0x41d54 <_ZN18ChiFeature2Generic16OnPipelineCreateEP21ChiFeature2Identifier+0x1ac>
   41c5c: 88 00 00 35  	cbnz	w8, 0x41c6c <_ZN18ChiFeature2Generic16OnPipelineCreateEP21ChiFeature2Identifier+0xc4>
   41c68: 68 07 00 54  	b.hi	0x41d54 <_ZN18ChiFeature2Generic16OnPipelineCreateEP21ChiFeature2Identifier+0x1ac>
   41c78: 41 0c 00 54  	b.ne	0x41e00 <_ZN18ChiFeature2Generic16OnPipelineCreateEP21ChiFeature2Identifier+0x258>
   41c88: 61 06 00 54  	b.ne	0x41d54 <_ZN18ChiFeature2Generic16OnPipelineCreateEP21ChiFeature2Identifier+0x1ac>
   41c98: c1 0c 00 54  	b.ne	0x41e30 <_ZN18ChiFeature2Generic16OnPipelineCreateEP21ChiFeature2Identifier+0x288>
   41ca8: 96 7d 00 14  	b	0x61300 <_ZN18ChiFeature2Generic19CreateROITranslatorEP21ChiFeature2Identifier@plt>
   41cac: 04 01 00 f0  	adrp	x4, 0x64000 <_ZN18ChiFeature2Generic16OnPipelineCreateEP21ChiFeature2Identifier+0x190>
   41cb8: e8 04 00 36  	tbz	w8, #0, 0x41d54 <_ZN18ChiFeature2Generic16OnPipelineCreateEP21ChiFeature2Identifier+0x1ac>
   41cbc: 05 01 00 f0  	adrp	x5, 0x64000 <_ZN18ChiFeature2Generic16OnPipelineCreateEP21ChiFeature2Identifier+0x1a0>
   41cc0: 73 fe ff f0  	adrp	x19, 0x10000 <_ZN18ChiFeature2Generic16OnPipelineCreateEP21ChiFeature2Identifier+0x54>
   41cd4: 01 02 00 54  	b.ne	0x41d14 <_ZN18ChiFeature2Generic16OnPipelineCreateEP21ChiFeature2Identifier+0x16c>
   41cec: 81 fe ff b0  	adrp	x1, 0x12000 <_ZN18ChiFeature2Generic16OnPipelineCreateEP21ChiFeature2Identifier+0x88>
   41cf0: 82 fe ff b0  	adrp	x2, 0x12000 <_ZN18ChiFeature2Generic16OnPipelineCreateEP21ChiFeature2Identifier+0x8c>
   41cf4: 65 fe ff b0  	adrp	x5, 0xe000 <_ZN18ChiFeature2Generic16OnPipelineCreateEP21ChiFeature2Identifier+0x80>
   41d28: 81 fe ff b0  	adrp	x1, 0x12000 <_ZN18ChiFeature2Generic16OnPipelineCreateEP21ChiFeature2Identifier+0xc4>
   41d30: 40 fe ff f0  	adrp	x0, 0xc000 <_ZN18ChiFeature2Generic16OnPipelineCreateEP21ChiFeature2Identifier+0xb4>
   41d34: 63 fe ff b0  	adrp	x3, 0xe000 <_ZN18ChiFeature2Generic16OnPipelineCreateEP21ChiFeature2Identifier+0xc0>
   41d38: 65 fe ff b0  	adrp	x5, 0xe000 <_ZN18ChiFeature2Generic16OnPipelineCreateEP21ChiFeature2Identifier+0xc4>
   41d50: 10 7d 00 94  	bl	0x61190 <_ZN6ChiLog9LogSystemEPKcS1_S1_S1_iS1_z@plt>
   41d9c: 00 f2 ff 54  	b.eq	0x41bdc <_ZN18ChiFeature2Generic16OnPipelineCreateEP21ChiFeature2Identifier+0x34>
   41dcc: 84 ff ff 17  	b	0x41bdc <_ZN18ChiFeature2Generic16OnPipelineCreateEP21ChiFeature2Identifier+0x34>
   41dfc: 94 ff ff 17  	b	0x41c4c <_ZN18ChiFeature2Generic16OnPipelineCreateEP21ChiFeature2Identifier+0xa4>
   41e2c: 94 ff ff 17  	b	0x41c7c <_ZN18ChiFeature2Generic16OnPipelineCreateEP21ChiFeature2Identifier+0xd4>
   41e5c: 90 ff ff 17  	b	0x41c9c <_ZN18ChiFeature2Generic16OnPipelineCreateEP21ChiFeature2Identifier+0xf4>
   41e8c: 66 ff ff 17  	b	0x41c24 <_ZN18ChiFeature2Generic16OnPipelineCreateEP21ChiFeature2Identifier+0x7c>
0000000000041e90 <_ZN18ChiFeature2Generic12OnPortCreateEP21ChiFeature2Identifier>:
   41eac: 17 01 00 f0  	adrp	x23, 0x64000 <_ZN18ChiFeature2Generic12OnPortCreateEP21ChiFeature2Identifier+0xa8>
   41ec0: 21 1b 00 54  	b.ne	0x42224 <_ZN18ChiFeature2Generic12OnPortCreateEP21ChiFeature2Identifier+0x394>
   41ecc: 11 7d 00 94  	bl	0x61310 <_ZN15ChiFeature2Base12OnPortCreateEP21ChiFeature2Identifier@plt>
   41ed0: 35 05 00 b4  	cbz	x21, 0x41f74 <_ZN18ChiFeature2Generic12OnPortCreateEP21ChiFeature2Identifier+0xe4>
   41ee4: c1 1a 00 54  	b.ne	0x4223c <_ZN18ChiFeature2Generic12OnPortCreateEP21ChiFeature2Identifier+0x3ac>
   41eec: 81 1b 00 54  	b.ne	0x4225c <_ZN18ChiFeature2Generic12OnPortCreateEP21ChiFeature2Identifier+0x3cc>
   41ef8: 01 1c 00 54  	b.ne	0x42278 <_ZN18ChiFeature2Generic12OnPortCreateEP21ChiFeature2Identifier+0x3e8>
   41f0c: e2 08 00 54  	b.hs	0x42028 <_ZN18ChiFeature2Generic12OnPortCreateEP21ChiFeature2Identifier+0x198>
   41f14: aa 08 00 b4  	cbz	x10, 0x42028 <_ZN18ChiFeature2Generic12OnPortCreateEP21ChiFeature2Identifier+0x198>
   41f28: 02 08 00 54  	b.hs	0x42028 <_ZN18ChiFeature2Generic12OnPortCreateEP21ChiFeature2Identifier+0x198>
   41f30: c9 07 00 b4  	cbz	x9, 0x42028 <_ZN18ChiFeature2Generic12OnPortCreateEP21ChiFeature2Identifier+0x198>
   41f40: 08 08 00 54  	b.hi	0x42040 <_ZN18ChiFeature2Generic12OnPortCreateEP21ChiFeature2Identifier+0x1b0>
   41f6c: e9 05 00 54  	b.ls	0x42028 <_ZN18ChiFeature2Generic12OnPortCreateEP21ChiFeature2Identifier+0x198>
   41f70: 3f 00 00 14  	b	0x4206c <_ZN18ChiFeature2Generic12OnPortCreateEP21ChiFeature2Identifier+0x1dc>
   41f74: 14 01 00 f0  	adrp	x20, 0x64000 <_ZN18ChiFeature2Generic12OnPortCreateEP21ChiFeature2Identifier+0x170>
   41f80: 2d 05 00 36  	tbz	w13, #0, 0x42024 <_ZN18ChiFeature2Generic12OnPortCreateEP21ChiFeature2Identifier+0x194>
   41f84: 09 01 00 f0  	adrp	x9, 0x64000 <_ZN18ChiFeature2Generic12OnPortCreateEP21ChiFeature2Identifier+0x180>
   41f94: 41 02 00 54  	b.ne	0x41fdc <_ZN18ChiFeature2Generic12OnPortCreateEP21ChiFeature2Identifier+0x14c>
   41f98: 74 fe ff f0  	adrp	x20, 0x10000 <_ZN18ChiFeature2Generic12OnPortCreateEP21ChiFeature2Identifier+0x44>
   41fb4: 81 fe ff b0  	adrp	x1, 0x12000 <_ZN18ChiFeature2Generic12OnPortCreateEP21ChiFeature2Identifier+0x68>
   41fb8: 62 fe ff d0  	adrp	x2, 0xf000 <_ZN18ChiFeature2Generic12OnPortCreateEP21ChiFeature2Identifier+0x60>
   41fbc: 65 fe ff d0  	adrp	x5, 0xf000 <_ZN18ChiFeature2Generic12OnPortCreateEP21ChiFeature2Identifier+0x64>
   41fdc: 74 fe ff f0  	adrp	x20, 0x10000 <_ZN18ChiFeature2Generic12OnPortCreateEP21ChiFeature2Identifier+0x88>
   41ff8: 81 fe ff b0  	adrp	x1, 0x12000 <_ZN18ChiFeature2Generic12OnPortCreateEP21ChiFeature2Identifier+0xac>
   42000: 40 fe ff d0  	adrp	x0, 0xc000 <_ZN18ChiFeature2Generic12OnPortCreateEP21ChiFeature2Identifier+0x98>
   42004: 63 fe ff b0  	adrp	x3, 0xf000 <_ZN18ChiFeature2Generic12OnPortCreateEP21ChiFeature2Identifier+0xa8>
   42008: 45 fe ff f0  	adrp	x5, 0xd000 <_ZN18ChiFeature2Generic12OnPortCreateEP21ChiFeature2Identifier+0xa4>
   42020: 5c 7c 00 94  	bl	0x61190 <_ZN6ChiLog9LogSystemEPKcS1_S1_S1_iS1_z@plt>
   42068: 09 fe ff 54  	b.ls	0x42028 <_ZN18ChiFeature2Generic12OnPortCreateEP21ChiFeature2Identifier+0x198>
   42070: d6 fd ff b4  	cbz	x22, 0x42028 <_ZN18ChiFeature2Generic12OnPortCreateEP21ChiFeature2Identifier+0x198>
   42084: 81 00 00 54  	b.ne	0x42094 <_ZN18ChiFeature2Generic12OnPortCreateEP21ChiFeature2Identifier+0x204>
   420a0: 4d fc ff b4  	cbz	x13, 0x42028 <_ZN18ChiFeature2Generic12OnPortCreateEP21ChiFeature2Identifier+0x198>
   420b0: 01 0f 00 54  	b.ne	0x42290 <_ZN18ChiFeature2Generic12OnPortCreateEP21ChiFeature2Identifier+0x400>
   420c0: 41 fb ff 54  	b.ne	0x42028 <_ZN18ChiFeature2Generic12OnPortCreateEP21ChiFeature2Identifier+0x198>
   420c8: 0a fb ff 35  	cbnz	w10, 0x42028 <_ZN18ChiFeature2Generic12OnPortCreateEP21ChiFeature2Identifier+0x198>
   420cc: 02 01 00 d0  	adrp	x2, 0x64000 <_ZN18ChiFeature2Generic12OnPortCreateEP21ChiFeature2Identifier+0x2c4>
   420d8: ab 05 18 36  	tbz	w11, #3, 0x4218c <_ZN18ChiFeature2Generic12OnPortCreateEP21ChiFeature2Identifier+0x2fc>
   420dc: 03 01 00 d0  	adrp	x3, 0x64000 <_ZN18ChiFeature2Generic12OnPortCreateEP21ChiFeature2Identifier+0x2d4>
   420e0: 74 fe ff d0  	adrp	x20, 0x10000 <_ZN18ChiFeature2Generic12OnPortCreateEP21ChiFeature2Identifier+0x188>
   420f4: 61 02 00 54  	b.ne	0x42140 <_ZN18ChiFeature2Generic12OnPortCreateEP21ChiFeature2Identifier+0x2b0>
   42110: 81 fe ff 90  	adrp	x1, 0x12000 <_ZN18ChiFeature2Generic12OnPortCreateEP21ChiFeature2Identifier+0x1c0>
   42114: 62 fe ff b0  	adrp	x2, 0xf000 <_ZN18ChiFeature2Generic12OnPortCreateEP21ChiFeature2Identifier+0x1b8>
   4211c: 65 fe ff b0  	adrp	x5, 0xf000 <_ZN18ChiFeature2Generic12OnPortCreateEP21ChiFeature2Identifier+0x1c0>
   4215c: 80 fe ff b0  	adrp	x0, 0x13000 <_ZN18ChiFeature2Generic12OnPortCreateEP21ChiFeature2Identifier+0x210>
   42164: 61 fe ff b0  	adrp	x1, 0xf000 <_ZN18ChiFeature2Generic12OnPortCreateEP21ChiFeature2Identifier+0x208>
   42168: 63 fe ff b0  	adrp	x3, 0xf000 <_ZN18ChiFeature2Generic12OnPortCreateEP21ChiFeature2Identifier+0x20c>
   42180: 65 fe ff 90  	adrp	x5, 0xe000 <_ZN18ChiFeature2Generic12OnPortCreateEP21ChiFeature2Identifier+0x220>
   42188: 02 7c 00 94  	bl	0x61190 <_ZN6ChiLog9LogSystemEPKcS1_S1_S1_iS1_z@plt>
   42190: 86 fe ff b0  	adrp	x6, 0x13000 <_ZN18ChiFeature2Generic12OnPortCreateEP21ChiFeature2Identifier+0x244>
   421b4: 60 00 00 54  	b.eq	0x421c0 <_ZN18ChiFeature2Generic12OnPortCreateEP21ChiFeature2Identifier+0x330>
   421bc: 61 f3 ff 54  	b.ne	0x42028 <_ZN18ChiFeature2Generic12OnPortCreateEP21ChiFeature2Identifier+0x198>
   421c0: fc 7b 00 94  	bl	0x611b0 <_ZN15ExtensionModule11GetInstanceEv@plt>
   421c8: 6d 00 00 b4  	cbz	x13, 0x421d4 <_ZN18ChiFeature2Generic12OnPortCreateEP21ChiFeature2Identifier+0x344>
   421d0: 02 00 00 14  	b	0x421d8 <_ZN18ChiFeature2Generic12OnPortCreateEP21ChiFeature2Identifier+0x348>
   421e8: 41 06 00 54  	b.ne	0x422b0 <_ZN18ChiFeature2Generic12OnPortCreateEP21ChiFeature2Identifier+0x420>
   421ec: e8 f1 ff 34  	cbz	w8, 0x42028 <_ZN18ChiFeature2Generic12OnPortCreateEP21ChiFeature2Identifier+0x198>
   421f4: a9 f1 ff 54  	b.ls	0x42028 <_ZN18ChiFeature2Generic12OnPortCreateEP21ChiFeature2Identifier+0x198>
   421f8: 88 fe ff b0  	adrp	x8, 0x13000 <_ZN18ChiFeature2Generic12OnPortCreateEP21ChiFeature2Identifier+0x2ac>
   42220: 82 ff ff 17  	b	0x42028 <_ZN18ChiFeature2Generic12OnPortCreateEP21ChiFeature2Identifier+0x198>
   42238: 23 ff ff 17  	b	0x41ec4 <_ZN18ChiFeature2Generic12OnPortCreateEP21ChiFeature2Identifier+0x34>
   42258: c0 e4 ff 54  	b.eq	0x41ef0 <_ZN18ChiFeature2Generic12OnPortCreateEP21ChiFeature2Identifier+0x60>
   42274: 1f ff ff 17  	b	0x41ef0 <_ZN18ChiFeature2Generic12OnPortCreateEP21ChiFeature2Identifier+0x60>
   4228c: 1c ff ff 17  	b	0x41efc <_ZN18ChiFeature2Generic12OnPortCreateEP21ChiFeature2Identifier+0x6c>
   422ac: 82 ff ff 17  	b	0x420b4 <_ZN18ChiFeature2Generic12OnPortCreateEP21ChiFeature2Identifier+0x224>
00000000000422b8 <_ZN18ChiFeature2Generic18OnInitializeStreamEPK23ChiTargetPortDescriptorPK25ChiFeature2PortDescriptorPN15ChiFeature2Base20ChiFeatureStreamDataE>:
   422cc: 14 01 00 d0  	adrp	x20, 0x64000 <_ZN18ChiFeature2Generic18OnInitializeStreamEPK23ChiTargetPortDescriptorPK25ChiFeature2PortDescriptorPN15ChiFeature2Base20ChiFeatureStreamDataE+0x9c>
   422e0: a1 05 00 54  	b.ne	0x42394 <_ZN18ChiFeature2Generic18OnInitializeStreamEPK23ChiTargetPortDescriptorPK25ChiFeature2PortDescriptorPN15ChiFeature2Base20ChiFeatureStreamDataE+0xdc>
   422e8: e3 04 00 b4  	cbz	x3, 0x42384 <_ZN18ChiFeature2Generic18OnInitializeStreamEPK23ChiTargetPortDescriptorPK25ChiFeature2PortDescriptorPN15ChiFeature2Base20ChiFeatureStreamDataE+0xcc>
   422ec: c1 04 00 b4  	cbz	x1, 0x42384 <_ZN18ChiFeature2Generic18OnInitializeStreamEPK23ChiTargetPortDescriptorPK25ChiFeature2PortDescriptorPN15ChiFeature2Base20ChiFeatureStreamDataE+0xcc>
   422f0: a2 04 00 b4  	cbz	x2, 0x42384 <_ZN18ChiFeature2Generic18OnInitializeStreamEPK23ChiTargetPortDescriptorPK25ChiFeature2PortDescriptorPN15ChiFeature2Base20ChiFeatureStreamDataE+0xcc>
   422f8: 6a 04 00 b4  	cbz	x10, 0x42384 <_ZN18ChiFeature2Generic18OnInitializeStreamEPK23ChiTargetPortDescriptorPK25ChiFeature2PortDescriptorPN15ChiFeature2Base20ChiFeatureStreamDataE+0xcc>
   42300: 0b 04 00 b4  	cbz	x11, 0x42380 <_ZN18ChiFeature2Generic18OnInitializeStreamEPK23ChiTargetPortDescriptorPK25ChiFeature2PortDescriptorPN15ChiFeature2Base20ChiFeatureStreamDataE+0xc8>
   42310: c1 05 00 54  	b.ne	0x423c8 <_ZN18ChiFeature2Generic18OnInitializeStreamEPK23ChiTargetPortDescriptorPK25ChiFeature2PortDescriptorPN15ChiFeature2Base20ChiFeatureStreamDataE+0x110>
   42318: 02 7c 00 94  	bl	0x61320 <_ZN15ChiFeature2Base18OnInitializeStreamEPK23ChiTargetPortDescriptorPK25ChiFeature2PortDescriptorPNS_20ChiFeatureStreamDataE@plt>
   4231c: 40 03 00 35  	cbnz	w0, 0x42384 <_ZN18ChiFeature2Generic18OnInitializeStreamEPK23ChiTargetPortDescriptorPK25ChiFeature2PortDescriptorPN15ChiFeature2Base20ChiFeatureStreamDataE+0xcc>
   4232c: 41 06 00 54  	b.ne	0x423f4 <_ZN18ChiFeature2Generic18OnInitializeStreamEPK23ChiTargetPortDescriptorPK25ChiFeature2PortDescriptorPN15ChiFeature2Base20ChiFeatureStreamDataE+0x13c>
   4233c: a0 00 00 54  	b.eq	0x42350 <_ZN18ChiFeature2Generic18OnInitializeStreamEPK23ChiTargetPortDescriptorPK25ChiFeature2PortDescriptorPN15ChiFeature2Base20ChiFeatureStreamDataE+0x98>
   42340: 09 02 00 35  	cbnz	w9, 0x42380 <_ZN18ChiFeature2Generic18OnInitializeStreamEPK23ChiTargetPortDescriptorPK25ChiFeature2PortDescriptorPN15ChiFeature2Base20ChiFeatureStreamDataE+0xc8>
   4234c: a3 01 00 54  	b.lo	0x42380 <_ZN18ChiFeature2Generic18OnInitializeStreamEPK23ChiTargetPortDescriptorPK25ChiFeature2PortDescriptorPN15ChiFeature2Base20ChiFeatureStreamDataE+0xc8>
   4235c: 81 05 00 54  	b.ne	0x4240c <_ZN18ChiFeature2Generic18OnInitializeStreamEPK23ChiTargetPortDescriptorPK25ChiFeature2PortDescriptorPN15ChiFeature2Base20ChiFeatureStreamDataE+0x154>
   4236c: a1 00 00 54  	b.ne	0x42380 <_ZN18ChiFeature2Generic18OnInitializeStreamEPK23ChiTargetPortDescriptorPK25ChiFeature2PortDescriptorPN15ChiFeature2Base20ChiFeatureStreamDataE+0xc8>
   4237c: 41 05 00 54  	b.ne	0x42424 <_ZN18ChiFeature2Generic18OnInitializeStreamEPK23ChiTargetPortDescriptorPK25ChiFeature2PortDescriptorPN15ChiFeature2Base20ChiFeatureStreamDataE+0x16c>
   423c0: 63 f9 ff b5  	cbnz	x3, 0x422ec <_ZN18ChiFeature2Generic18OnInitializeStreamEPK23ChiTargetPortDescriptorPK25ChiFeature2PortDescriptorPN15ChiFeature2Base20ChiFeatureStreamDataE+0x34>
   423c4: f0 ff ff 17  	b	0x42384 <_ZN18ChiFeature2Generic18OnInitializeStreamEPK23ChiTargetPortDescriptorPK25ChiFeature2PortDescriptorPN15ChiFeature2Base20ChiFeatureStreamDataE+0xcc>
   423f0: c9 ff ff 17  	b	0x42314 <_ZN18ChiFeature2Generic18OnInitializeStreamEPK23ChiTargetPortDescriptorPK25ChiFeature2PortDescriptorPN15ChiFeature2Base20ChiFeatureStreamDataE+0x5c>
   42408: ca ff ff 17  	b	0x42330 <_ZN18ChiFeature2Generic18OnInitializeStreamEPK23ChiTargetPortDescriptorPK25ChiFeature2PortDescriptorPN15ChiFeature2Base20ChiFeatureStreamDataE+0x78>
   42420: d0 ff ff 17  	b	0x42360 <_ZN18ChiFeature2Generic18OnInitializeStreamEPK23ChiTargetPortDescriptorPK25ChiFeature2PortDescriptorPN15ChiFeature2Base20ChiFeatureStreamDataE+0xa8>
   42438: d2 ff ff 17  	b	0x42380 <_ZN18ChiFeature2Generic18OnInitializeStreamEPK23ChiTargetPortDescriptorPK25ChiFeature2PortDescriptorPN15ChiFeature2Base20ChiFeatureStreamDataE+0xc8>
0000000000042440 <_ZNK18ChiFeature2Generic23OnPopulateConfigurationEP24ChiFeature2RequestObject>:
   4246c: 16 01 00 d0  	adrp	x22, 0x64000 <_ZNK18ChiFeature2Generic23OnPopulateConfigurationEP24ChiFeature2RequestObject+0xb4>
   42490: 01 35 00 54  	b.ne	0x42b30 <_ZNK18ChiFeature2Generic23OnPopulateConfigurationEP24ChiFeature2RequestObject+0x6f0>
   424bc: 00 1f 00 54  	b.eq	0x4289c <_ZNK18ChiFeature2Generic23OnPopulateConfigurationEP24ChiFeature2RequestObject+0x45c>
   424cc: 99 7b 00 94  	bl	0x61330 <_ZNK24ChiFeature2RequestObject19GetCurrentStageInfoEP20ChiFeature2StageInfoh@plt>
   424d8: 40 09 00 54  	b.eq	0x42600 <_ZNK18ChiFeature2Generic23OnPopulateConfigurationEP24ChiFeature2RequestObject+0x1c0>
   424f4: a1 32 00 54  	b.ne	0x42b48 <_ZNK18ChiFeature2Generic23OnPopulateConfigurationEP24ChiFeature2RequestObject+0x708>
   424fc: 81 33 00 54  	b.ne	0x42b6c <_ZNK18ChiFeature2Generic23OnPopulateConfigurationEP24ChiFeature2RequestObject+0x72c>
   42514: a9 07 00 54  	b.ls	0x42608 <_ZNK18ChiFeature2Generic23OnPopulateConfigurationEP24ChiFeature2RequestObject+0x1c8>
   4251c: 4a 01 00 b4  	cbz	x10, 0x42544 <_ZNK18ChiFeature2Generic23OnPopulateConfigurationEP24ChiFeature2RequestObject+0x104>
   42550: a1 31 00 54  	b.ne	0x42b84 <_ZNK18ChiFeature2Generic23OnPopulateConfigurationEP24ChiFeature2RequestObject+0x744>
   42568: 76 7b 00 94  	bl	0x61340 <_ZNK15ChiFeature2Base24BuildActiveInputPortListEP24ChiFeature2RequestObjecthP21ChiFeature2PortIdListRNSt3__16vectorI21ChiFeature2IdentifierNS4_9allocatorIS6_EEEE@plt>
   42570: c0 2a 00 35  	cbnz	w0, 0x42ac8 <_ZNK18ChiFeature2Generic23OnPopulateConfigurationEP24ChiFeature2RequestObject+0x688>
   42580: a1 31 00 54  	b.ne	0x42bb4 <_ZNK18ChiFeature2Generic23OnPopulateConfigurationEP24ChiFeature2RequestObject+0x774>
   4258c: 21 32 00 54  	b.ne	0x42bd0 <_ZNK18ChiFeature2Generic23OnPopulateConfigurationEP24ChiFeature2RequestObject+0x790>
   425a8: 49 1e 00 54  	b.ls	0x42970 <_ZNK18ChiFeature2Generic23OnPopulateConfigurationEP24ChiFeature2RequestObject+0x530>
   425b0: 4b 24 00 b4  	cbz	x11, 0x42a38 <_ZNK18ChiFeature2Generic23OnPopulateConfigurationEP24ChiFeature2RequestObject+0x5f8>
   425d4: 23 23 00 54  	b.lo	0x42a38 <_ZNK18ChiFeature2Generic23OnPopulateConfigurationEP24ChiFeature2RequestObject+0x5f8>
   425d8: 1b 01 00 d0  	adrp	x27, 0x64000 <_ZNK18ChiFeature2Generic23OnPopulateConfigurationEP24ChiFeature2RequestObject+0x220>
   425fc: 29 00 00 14  	b	0x426a0 <_ZNK18ChiFeature2Generic23OnPopulateConfigurationEP24ChiFeature2RequestObject+0x260>
   42604: 3e 01 00 14  	b	0x42afc <_ZNK18ChiFeature2Generic23OnPopulateConfigurationEP24ChiFeature2RequestObject+0x6bc>
   42608: 0f 01 00 d0  	adrp	x15, 0x64000 <_ZNK18ChiFeature2Generic23OnPopulateConfigurationEP24ChiFeature2RequestObject+0x250>
   42614: 6f 15 00 37  	tbnz	w15, #0, 0x428c0 <_ZNK18ChiFeature2Generic23OnPopulateConfigurationEP24ChiFeature2RequestObject+0x480>
   4261c: 2b 01 00 14  	b	0x42ac8 <_ZNK18ChiFeature2Generic23OnPopulateConfigurationEP24ChiFeature2RequestObject+0x688>
   4263c: 45 7b 00 94  	bl	0x61350 <_ZNK15ChiFeature2Base26IsPortEnabledInFinalOutputEPK24ChiFeature2RequestObject21ChiFeature2Identifierh@plt>
   42644: 80 fe ff b0  	adrp	x0, 0x13000 <_ZNK18ChiFeature2Generic23OnPopulateConfigurationEP24ChiFeature2RequestObject+0x148>
   42648: 61 fe ff b0  	adrp	x1, 0xf000 <_ZNK18ChiFeature2Generic23OnPopulateConfigurationEP24ChiFeature2RequestObject+0x13c>
   4264c: 83 fe ff 90  	adrp	x3, 0x12000 <_ZNK18ChiFeature2Generic23OnPopulateConfigurationEP24ChiFeature2RequestObject+0x14c>
   42650: 65 fe ff f0  	adrp	x5, 0x11000 <_ZNK18ChiFeature2Generic23OnPopulateConfigurationEP24ChiFeature2RequestObject+0x14c>
   42678: c6 7a 00 94  	bl	0x61190 <_ZN6ChiLog9LogSystemEPKcS1_S1_S1_iS1_z@plt>
   4267c: 1b 01 00 d0  	adrp	x27, 0x64000 <_ZNK18ChiFeature2Generic23OnPopulateConfigurationEP24ChiFeature2RequestObject+0x2c4>
   42680: 16 01 00 d0  	adrp	x22, 0x64000 <_ZNK18ChiFeature2Generic23OnPopulateConfigurationEP24ChiFeature2RequestObject+0x2c8>
   4269c: 20 1d 00 54  	b.eq	0x42a40 <_ZNK18ChiFeature2Generic23OnPopulateConfigurationEP24ChiFeature2RequestObject+0x600>
   426b4: e0 01 00 54  	b.eq	0x426f0 <_ZNK18ChiFeature2Generic23OnPopulateConfigurationEP24ChiFeature2RequestObject+0x2b0>
   426c4: a1 0b 00 54  	b.ne	0x42838 <_ZNK18ChiFeature2Generic23OnPopulateConfigurationEP24ChiFeature2RequestObject+0x3f8>
   426e4: 1b 7b 00 94  	bl	0x61350 <_ZNK15ChiFeature2Base26IsPortEnabledInFinalOutputEPK24ChiFeature2RequestObject21ChiFeature2Identifierh@plt>
   426ec: 81 00 00 54  	b.ne	0x426fc <_ZNK18ChiFeature2Generic23OnPopulateConfigurationEP24ChiFeature2RequestObject+0x2bc>
   426f8: b0 0b 00 94  	bl	0x455b8 <_ZNK18ChiFeature2Generic40PopulateConfigurationSettingsforBayerSATEP24ChiFeature2RequestObjectPK21ChiFeature2IdentifierP11ChiMetadata+0x3a8>
   42700: 87 fc 1f 36  	tbz	w7, #3, 0x42690 <_ZNK18ChiFeature2Generic23OnPopulateConfigurationEP24ChiFeature2RequestObject+0x250>
   42704: 08 01 00 d0  	adrp	x8, 0x64000 <_ZNK18ChiFeature2Generic23OnPopulateConfigurationEP24ChiFeature2RequestObject+0x34c>
   42714: c1 05 00 54  	b.ne	0x427cc <_ZNK18ChiFeature2Generic23OnPopulateConfigurationEP24ChiFeature2RequestObject+0x38c>
   42718: 75 fe ff d0  	adrp	x21, 0x10000 <_ZNK18ChiFeature2Generic23OnPopulateConfigurationEP24ChiFeature2RequestObject+0x210>
   42748: 01 09 00 54  	b.ne	0x42868 <_ZNK18ChiFeature2Generic23OnPopulateConfigurationEP24ChiFeature2RequestObject+0x428>
   42750: 16 01 00 d0  	adrp	x22, 0x64000 <_ZNK18ChiFeature2Generic23OnPopulateConfigurationEP24ChiFeature2RequestObject+0x398>
   42770: 81 08 00 54  	b.ne	0x42880 <_ZNK18ChiFeature2Generic23OnPopulateConfigurationEP24ChiFeature2RequestObject+0x440>
   42790: f0 7a 00 94  	bl	0x61350 <_ZNK15ChiFeature2Base26IsPortEnabledInFinalOutputEPK24ChiFeature2RequestObject21ChiFeature2Identifierh@plt>
   42794: 81 fe ff 90  	adrp	x1, 0x12000 <_ZNK18ChiFeature2Generic23OnPopulateConfigurationEP24ChiFeature2RequestObject+0x294>
   42798: 42 fe ff b0  	adrp	x2, 0xb000 <_ZNK18ChiFeature2Generic23OnPopulateConfigurationEP24ChiFeature2RequestObject+0x27c>
   4279c: 85 fe ff 90  	adrp	x5, 0x12000 <_ZNK18ChiFeature2Generic23OnPopulateConfigurationEP24ChiFeature2RequestObject+0x29c>
   427cc: 7a fe ff d0  	adrp	x26, 0x10000 <_ZNK18ChiFeature2Generic23OnPopulateConfigurationEP24ChiFeature2RequestObject+0x2c4>
   427fc: a1 02 00 54  	b.ne	0x42850 <_ZNK18ChiFeature2Generic23OnPopulateConfigurationEP24ChiFeature2RequestObject+0x410>
   42818: 40 f0 ff 54  	b.eq	0x42620 <_ZNK18ChiFeature2Generic23OnPopulateConfigurationEP24ChiFeature2RequestObject+0x1e0>
   42834: 7b ff ff 17  	b	0x42620 <_ZNK18ChiFeature2Generic23OnPopulateConfigurationEP24ChiFeature2RequestObject+0x1e0>
   4284c: 9f ff ff 17  	b	0x426c8 <_ZNK18ChiFeature2Generic23OnPopulateConfigurationEP24ChiFeature2RequestObject+0x288>
   42864: e7 ff ff 17  	b	0x42800 <_ZNK18ChiFeature2Generic23OnPopulateConfigurationEP24ChiFeature2RequestObject+0x3c0>
   4287c: b4 ff ff 17  	b	0x4274c <_ZNK18ChiFeature2Generic23OnPopulateConfigurationEP24ChiFeature2RequestObject+0x30c>
   42898: b7 ff ff 17  	b	0x42774 <_ZNK18ChiFeature2Generic23OnPopulateConfigurationEP24ChiFeature2RequestObject+0x334>
   428a8: a1 17 00 54  	b.ne	0x42b9c <_ZNK18ChiFeature2Generic23OnPopulateConfigurationEP24ChiFeature2RequestObject+0x75c>
   428b4: ab 7a 00 94  	bl	0x61360 <_ZNK15ChiFeature2Base23OnPopulateConfigurationEP24ChiFeature2RequestObject@plt>
   428bc: 90 00 00 14  	b	0x42afc <_ZNK18ChiFeature2Generic23OnPopulateConfigurationEP24ChiFeature2RequestObject+0x6bc>
   428c0: 10 01 00 d0  	adrp	x16, 0x64000 <_ZNK18ChiFeature2Generic23OnPopulateConfigurationEP24ChiFeature2RequestObject+0x508>
   428c4: 78 fe ff d0  	adrp	x24, 0x10000 <_ZNK18ChiFeature2Generic23OnPopulateConfigurationEP24ChiFeature2RequestObject+0x3bc>
   428d8: 41 02 00 54  	b.ne	0x42920 <_ZNK18ChiFeature2Generic23OnPopulateConfigurationEP24ChiFeature2RequestObject+0x4e0>
   428f0: 81 fe ff 90  	adrp	x1, 0x12000 <_ZNK18ChiFeature2Generic23OnPopulateConfigurationEP24ChiFeature2RequestObject+0x3f0>
   428f4: 62 fe ff d0  	adrp	x2, 0x10000 <_ZNK18ChiFeature2Generic23OnPopulateConfigurationEP24ChiFeature2RequestObject+0x3ec>
   428f8: 65 fe ff d0  	adrp	x5, 0x10000 <_ZNK18ChiFeature2Generic23OnPopulateConfigurationEP24ChiFeature2RequestObject+0x3f0>
   42934: 81 fe ff 90  	adrp	x1, 0x12000 <_ZNK18ChiFeature2Generic23OnPopulateConfigurationEP24ChiFeature2RequestObject+0x434>
   4293c: 40 fe ff d0  	adrp	x0, 0xc000 <_ZNK18ChiFeature2Generic23OnPopulateConfigurationEP24ChiFeature2RequestObject+0x424>
   42940: 63 fe ff d0  	adrp	x3, 0x10000 <_ZNK18ChiFeature2Generic23OnPopulateConfigurationEP24ChiFeature2RequestObject+0x438>
   42944: 65 fe ff b0  	adrp	x5, 0xf000 <_ZNK18ChiFeature2Generic23OnPopulateConfigurationEP24ChiFeature2RequestObject+0x438>
   42964: 0b 7a 00 94  	bl	0x61190 <_ZN6ChiLog9LogSystemEPKcS1_S1_S1_iS1_z@plt>
   4296c: 57 00 00 14  	b	0x42ac8 <_ZNK18ChiFeature2Generic23OnPopulateConfigurationEP24ChiFeature2RequestObject+0x688>
   42970: 01 01 00 d0  	adrp	x1, 0x64000 <_ZNK18ChiFeature2Generic23OnPopulateConfigurationEP24ChiFeature2RequestObject+0x5b8>
   4297c: e3 e4 07 36  	tbz	w3, #0, 0x42618 <_ZNK18ChiFeature2Generic23OnPopulateConfigurationEP24ChiFeature2RequestObject+0x1d8>
   42980: 02 01 00 d0  	adrp	x2, 0x64000 <_ZNK18ChiFeature2Generic23OnPopulateConfigurationEP24ChiFeature2RequestObject+0x5c8>
   42990: 81 02 00 54  	b.ne	0x429e0 <_ZNK18ChiFeature2Generic23OnPopulateConfigurationEP24ChiFeature2RequestObject+0x5a0>
   42994: 76 fe ff d0  	adrp	x22, 0x10000 <_ZNK18ChiFeature2Generic23OnPopulateConfigurationEP24ChiFeature2RequestObject+0x48c>
   429b0: 81 fe ff 90  	adrp	x1, 0x12000 <_ZNK18ChiFeature2Generic23OnPopulateConfigurationEP24ChiFeature2RequestObject+0x4b0>
   429b4: 62 fe ff d0  	adrp	x2, 0x10000 <_ZNK18ChiFeature2Generic23OnPopulateConfigurationEP24ChiFeature2RequestObject+0x4ac>
   429b8: 45 fe ff f0  	adrp	x5, 0xd000 <_ZNK18ChiFeature2Generic23OnPopulateConfigurationEP24ChiFeature2RequestObject+0x4a4>
   429e0: 7a fe ff d0  	adrp	x26, 0x10000 <_ZNK18ChiFeature2Generic23OnPopulateConfigurationEP24ChiFeature2RequestObject+0x4d8>
   429fc: 81 fe ff 90  	adrp	x1, 0x12000 <_ZNK18ChiFeature2Generic23OnPopulateConfigurationEP24ChiFeature2RequestObject+0x4fc>
   42a04: 40 fe ff d0  	adrp	x0, 0xc000 <_ZNK18ChiFeature2Generic23OnPopulateConfigurationEP24ChiFeature2RequestObject+0x4ec>
   42a08: 43 fe ff f0  	adrp	x3, 0xd000 <_ZNK18ChiFeature2Generic23OnPopulateConfigurationEP24ChiFeature2RequestObject+0x4f4>
   42a0c: 65 fe ff b0  	adrp	x5, 0xf000 <_ZNK18ChiFeature2Generic23OnPopulateConfigurationEP24ChiFeature2RequestObject+0x500>
   42a2c: d9 79 00 94  	bl	0x61190 <_ZN6ChiLog9LogSystemEPKcS1_S1_S1_iS1_z@plt>
   42a34: 24 00 00 14  	b	0x42ac4 <_ZNK18ChiFeature2Generic23OnPopulateConfigurationEP24ChiFeature2RequestObject+0x684>
   42a3c: 23 00 00 14  	b	0x42ac8 <_ZNK18ChiFeature2Generic23OnPopulateConfigurationEP24ChiFeature2RequestObject+0x688>
   42a70: c1 0b 00 54  	b.ne	0x42be8 <_ZNK18ChiFeature2Generic23OnPopulateConfigurationEP24ChiFeature2RequestObject+0x7a8>
   42a84: 3b 7a 00 94  	bl	0x61370 <_ZNK15ChiFeature2Base25PopulatePortConfigurationEP24ChiFeature2RequestObjectPK21ChiFeature2PortIdListS4_@plt>
   42a98: 88 01 00 b4  	cbz	x8, 0x42ac8 <_ZNK18ChiFeature2Generic23OnPopulateConfigurationEP24ChiFeature2RequestObject+0x688>
   42ab8: 60 0a 00 b5  	cbnz	x0, 0x42c04 <_ZNK18ChiFeature2Generic23OnPopulateConfigurationEP24ChiFeature2RequestObject+0x7c4>
   42acc: 80 01 00 b4  	cbz	x0, 0x42afc <_ZNK18ChiFeature2Generic23OnPopulateConfigurationEP24ChiFeature2RequestObject+0x6bc>
   42af4: 8a 08 00 b5  	cbnz	x10, 0x42c04 <_ZNK18ChiFeature2Generic23OnPopulateConfigurationEP24ChiFeature2RequestObject+0x7c4>
   42b08: c1 07 00 54  	b.ne	0x42c00 <_ZNK18ChiFeature2Generic23OnPopulateConfigurationEP24ChiFeature2RequestObject+0x7c0>
   42b44: 54 fe ff 17  	b	0x42494 <_ZNK18ChiFeature2Generic23OnPopulateConfigurationEP24ChiFeature2RequestObject+0x54>
   42b68: c0 cc ff 54  	b.eq	0x42500 <_ZNK18ChiFeature2Generic23OnPopulateConfigurationEP24ChiFeature2RequestObject+0xc0>
   42b80: 60 fe ff 17  	b	0x42500 <_ZNK18ChiFeature2Generic23OnPopulateConfigurationEP24ChiFeature2RequestObject+0xc0>
   42b98: 6f fe ff 17  	b	0x42554 <_ZNK18ChiFeature2Generic23OnPopulateConfigurationEP24ChiFeature2RequestObject+0x114>
   42bb0: 3f ff ff 17  	b	0x428ac <_ZNK18ChiFeature2Generic23OnPopulateConfigurationEP24ChiFeature2RequestObject+0x46c>
   42bcc: 6e fe ff 17  	b	0x42584 <_ZNK18ChiFeature2Generic23OnPopulateConfigurationEP24ChiFeature2RequestObject+0x144>
   42be4: 6b fe ff 17  	b	0x42590 <_ZNK18ChiFeature2Generic23OnPopulateConfigurationEP24ChiFeature2RequestObject+0x150>
   42bfc: 9e ff ff 17  	b	0x42a74 <_ZNK18ChiFeature2Generic23OnPopulateConfigurationEP24ChiFeature2RequestObject+0x634>
0000000000042c08 <_ZNK18ChiFeature2Generic28OnSelectFlowToExecuteRequestEP24ChiFeature2RequestObject>:
0000000000042c10 <_ZNK18ChiFeature2Generic31OnPopulateConfigurationSettingsEP24ChiFeature2RequestObjectPK21ChiFeature2IdentifierP11ChiMetadata>:
   42c40: 1b 01 00 d0  	adrp	x27, 0x64000 <_ZNK18ChiFeature2Generic31OnPopulateConfigurationSettingsEP24ChiFeature2RequestObjectPK21ChiFeature2IdentifierP11ChiMetadata+0xb8>
   42c68: 21 f7 00 54  	b.ne	0x44b4c <_ZNK18ChiFeature2Generic31OnPopulateConfigurationSettingsEP24ChiFeature2RequestObjectPK21ChiFeature2IdentifierP11ChiMetadata+0x1f3c>
   42c80: c0 79 00 94  	bl	0x61380 <_ZNK15ChiFeature2Base31OnPopulateConfigurationSettingsEP24ChiFeature2RequestObjectPK21ChiFeature2IdentifierP11ChiMetadata@plt>
   42c94: 81 f6 00 54  	b.ne	0x44b64 <_ZNK18ChiFeature2Generic31OnPopulateConfigurationSettingsEP24ChiFeature2RequestObjectPK21ChiFeature2IdentifierP11ChiMetadata+0x1f54>
   42c9c: 14 09 00 b4  	cbz	x20, 0x42dbc <_ZNK18ChiFeature2Generic31OnPopulateConfigurationSettingsEP24ChiFeature2RequestObjectPK21ChiFeature2IdentifierP11ChiMetadata+0x1ac>
   42cac: 81 08 00 54  	b.ne	0x42dbc <_ZNK18ChiFeature2Generic31OnPopulateConfigurationSettingsEP24ChiFeature2RequestObjectPK21ChiFeature2IdentifierP11ChiMetadata+0x1ac>
   42cc4: 41 f9 00 54  	b.ne	0x44bec <_ZNK18ChiFeature2Generic31OnPopulateConfigurationSettingsEP24ChiFeature2RequestObjectPK21ChiFeature2IdentifierP11ChiMetadata+0x1fdc>
   42cd8: ae 79 00 94  	bl	0x61390 <_ZNK15ChiFeature2Base18GetSensorModeIndexEPK21ChiFeature2IdentifierP11ChiMetadata@plt>
   42cf4: 81 f8 00 54  	b.ne	0x44c04 <_ZNK18ChiFeature2Generic31OnPopulateConfigurationSettingsEP24ChiFeature2RequestObjectPK21ChiFeature2IdentifierP11ChiMetadata+0x1ff4>
   42d04: a3 79 00 94  	bl	0x61390 <_ZNK15ChiFeature2Base18GetSensorModeIndexEPK21ChiFeature2IdentifierP11ChiMetadata@plt>
   42d0c: b8 00 00 b4  	cbz	x24, 0x42d20 <_ZNK18ChiFeature2Generic31OnPopulateConfigurationSettingsEP24ChiFeature2RequestObjectPK21ChiFeature2IdentifierP11ChiMetadata+0x110>
   42d14: 6d 00 20 36  	tbz	w13, #4, 0x42d20 <_ZNK18ChiFeature2Generic31OnPopulateConfigurationSettingsEP24ChiFeature2RequestObjectPK21ChiFeature2IdentifierP11ChiMetadata+0x110>
   42d40: 7a fe ff f0  	adrp	x26, 0x11000 <_ZNK18ChiFeature2Generic31OnPopulateConfigurationSettingsEP24ChiFeature2RequestObjectPK21ChiFeature2IdentifierP11ChiMetadata+0x6c>
   42d4c: 62 fe ff b0  	adrp	x2, 0xf000 <_ZNK18ChiFeature2Generic31OnPopulateConfigurationSettingsEP24ChiFeature2RequestObjectPK21ChiFeature2IdentifierP11ChiMetadata+0x70>
   42d7c: 42 fe ff d0  	adrp	x2, 0xc000 <_ZNK18ChiFeature2Generic31OnPopulateConfigurationSettingsEP24ChiFeature2RequestObjectPK21ChiFeature2IdentifierP11ChiMetadata+0x94>
   42db8: 7a 79 00 94  	bl	0x613a0 <_ZN8ChxUtils18FillTuningModeDataEP11ChiMetadata25ChiModeUsecaseSubModeTypejPjS3_S3_S3_@plt>
   42dcc: c1 ed 00 54  	b.ne	0x44b84 <_ZNK18ChiFeature2Generic31OnPopulateConfigurationSettingsEP24ChiFeature2RequestObjectPK21ChiFeature2IdentifierP11ChiMetadata+0x1f74>
   42ddc: e1 09 00 54  	b.ne	0x42f18 <_ZNK18ChiFeature2Generic31OnPopulateConfigurationSettingsEP24ChiFeature2RequestObjectPK21ChiFeature2IdentifierP11ChiMetadata+0x308>
   42e04: 74 34 00 b4  	cbz	x20, 0x43490 <_ZNK18ChiFeature2Generic31OnPopulateConfigurationSettingsEP24ChiFeature2RequestObjectPK21ChiFeature2IdentifierP11ChiMetadata+0x880>
   42e08: ea 78 00 94  	bl	0x611b0 <_ZN15ExtensionModule11GetInstanceEv@plt>
   42e1c: 88 34 00 54  	b.hi	0x434ac <_ZNK18ChiFeature2Generic31OnPopulateConfigurationSettingsEP24ChiFeature2RequestObjectPK21ChiFeature2IdentifierP11ChiMetadata+0x89c>
   42e3c: 80 33 00 54  	b.eq	0x434ac <_ZNK18ChiFeature2Generic31OnPopulateConfigurationSettingsEP24ChiFeature2RequestObjectPK21ChiFeature2IdentifierP11ChiMetadata+0x89c>
   42e58: 61 fe ff 90  	adrp	x1, 0xe000 <_ZNK18ChiFeature2Generic31OnPopulateConfigurationSettingsEP24ChiFeature2RequestObjectPK21ChiFeature2IdentifierP11ChiMetadata+0x178>
   42e5c: 62 fe ff f0  	adrp	x2, 0x11000 <_ZNK18ChiFeature2Generic31OnPopulateConfigurationSettingsEP24ChiFeature2RequestObjectPK21ChiFeature2IdentifierP11ChiMetadata+0x188>
   42e78: eb 31 00 b4  	cbz	x11, 0x434b4 <_ZNK18ChiFeature2Generic31OnPopulateConfigurationSettingsEP24ChiFeature2RequestObjectPK21ChiFeature2IdentifierP11ChiMetadata+0x8a4>
   42e84: 81 31 00 54  	b.ne	0x434b4 <_ZNK18ChiFeature2Generic31OnPopulateConfigurationSettingsEP24ChiFeature2RequestObjectPK21ChiFeature2IdentifierP11ChiMetadata+0x8a4>
   42e98: a0 01 00 54  	b.eq	0x42ecc <_ZNK18ChiFeature2Generic31OnPopulateConfigurationSettingsEP24ChiFeature2RequestObjectPK21ChiFeature2IdentifierP11ChiMetadata+0x2bc>
   42ea0: c8 78 00 94  	bl	0x611c0 <_ZNK24ChiFeature2RequestObject23GetUsecaseRequestObjectEv@plt>
   42ec0: a3 f9 00 54  	b.lo	0x44df4 <_ZNK18ChiFeature2Generic31OnPopulateConfigurationSettingsEP24ChiFeature2RequestObjectPK21ChiFeature2IdentifierP11ChiMetadata+0x21e4>
   42ec8: 60 2f 00 54  	b.eq	0x434b4 <_ZNK18ChiFeature2Generic31OnPopulateConfigurationSettingsEP24ChiFeature2RequestObjectPK21ChiFeature2IdentifierP11ChiMetadata+0x8a4>
   42ef0: 61 fe ff 90  	adrp	x1, 0xe000 <_ZNK18ChiFeature2Generic31OnPopulateConfigurationSettingsEP24ChiFeature2RequestObjectPK21ChiFeature2IdentifierP11ChiMetadata+0x210>
   42ef4: 62 fe ff f0  	adrp	x2, 0x11000 <_ZNK18ChiFeature2Generic31OnPopulateConfigurationSettingsEP24ChiFeature2RequestObjectPK21ChiFeature2IdentifierP11ChiMetadata+0x220>
   42f14: 68 01 00 14  	b	0x434b4 <_ZNK18ChiFeature2Generic31OnPopulateConfigurationSettingsEP24ChiFeature2RequestObjectPK21ChiFeature2IdentifierP11ChiMetadata+0x8a4>
   42f28: a1 e3 00 54  	b.ne	0x44b9c <_ZNK18ChiFeature2Generic31OnPopulateConfigurationSettingsEP24ChiFeature2RequestObjectPK21ChiFeature2IdentifierP11ChiMetadata+0x1f8c>
   42f2c: 34 04 00 b4  	cbz	x20, 0x42fb0 <_ZNK18ChiFeature2Generic31OnPopulateConfigurationSettingsEP24ChiFeature2RequestObjectPK21ChiFeature2IdentifierP11ChiMetadata+0x3a0>
   42f3c: a1 03 00 54  	b.ne	0x42fb0 <_ZNK18ChiFeature2Generic31OnPopulateConfigurationSettingsEP24ChiFeature2RequestObjectPK21ChiFeature2IdentifierP11ChiMetadata+0x3a0>
   42f64: 06 00 00 14  	b	0x42f7c <_ZNK18ChiFeature2Generic31OnPopulateConfigurationSettingsEP24ChiFeature2RequestObjectPK21ChiFeature2IdentifierP11ChiMetadata+0x36c>
   42f78: 40 72 00 54  	b.eq	0x43dc0 <_ZNK18ChiFeature2Generic31OnPopulateConfigurationSettingsEP24ChiFeature2RequestObjectPK21ChiFeature2IdentifierP11ChiMetadata+0x11b0>
   42f80: 00 01 00 54  	b.eq	0x42fa0 <_ZNK18ChiFeature2Generic31OnPopulateConfigurationSettingsEP24ChiFeature2RequestObjectPK21ChiFeature2IdentifierP11ChiMetadata+0x390>
   42f90: c0 fe ff 54  	b.eq	0x42f68 <_ZNK18ChiFeature2Generic31OnPopulateConfigurationSettingsEP24ChiFeature2RequestObjectPK21ChiFeature2IdentifierP11ChiMetadata+0x358>
   42f94: cc fe ff 35  	cbnz	w12, 0x42f6c <_ZNK18ChiFeature2Generic31OnPopulateConfigurationSettingsEP24ChiFeature2RequestObjectPK21ChiFeature2IdentifierP11ChiMetadata+0x35c>
   42f9c: f4 ff ff 17  	b	0x42f6c <_ZNK18ChiFeature2Generic31OnPopulateConfigurationSettingsEP24ChiFeature2RequestObjectPK21ChiFeature2IdentifierP11ChiMetadata+0x35c>
   42fa4: 01 08 00 54  	b.ne	0x430a4 <_ZNK18ChiFeature2Generic31OnPopulateConfigurationSettingsEP24ChiFeature2RequestObjectPK21ChiFeature2IdentifierP11ChiMetadata+0x494>
   42fa8: 1b 01 00 d0  	adrp	x27, 0x64000 <_ZNK18ChiFeature2Generic31OnPopulateConfigurationSettingsEP24ChiFeature2RequestObjectPK21ChiFeature2IdentifierP11ChiMetadata+0x420>
   42fbc: e1 df 00 54  	b.ne	0x44bb8 <_ZNK18ChiFeature2Generic31OnPopulateConfigurationSettingsEP24ChiFeature2RequestObjectPK21ChiFeature2IdentifierP11ChiMetadata+0x1fa8>
   42fcc: 41 03 00 54  	b.ne	0x43034 <_ZNK18ChiFeature2Generic31OnPopulateConfigurationSettingsEP24ChiFeature2RequestObjectPK21ChiFeature2IdentifierP11ChiMetadata+0x424>
   42fd4: 7b 78 00 94  	bl	0x611c0 <_ZNK24ChiFeature2RequestObject23GetUsecaseRequestObjectEv@plt>
   42fd8: e0 02 00 b4  	cbz	x0, 0x43034 <_ZNK18ChiFeature2Generic31OnPopulateConfigurationSettingsEP24ChiFeature2RequestObjectPK21ChiFeature2IdentifierP11ChiMetadata+0x424>
   43000: a1 01 00 54  	b.ne	0x43034 <_ZNK18ChiFeature2Generic31OnPopulateConfigurationSettingsEP24ChiFeature2RequestObjectPK21ChiFeature2IdentifierP11ChiMetadata+0x424>
   43008: 7b 01 00 b4  	cbz	x27, 0x43034 <_ZNK18ChiFeature2Generic31OnPopulateConfigurationSettingsEP24ChiFeature2RequestObjectPK21ChiFeature2IdentifierP11ChiMetadata+0x424>
   43010: 0f 01 00 b0  	adrp	x15, 0x64000 <_ZNK18ChiFeature2Generic31OnPopulateConfigurationSettingsEP24ChiFeature2RequestObjectPK21ChiFeature2IdentifierP11ChiMetadata+0x484>
   43020: a1 e8 00 54  	b.ne	0x44d34 <_ZNK18ChiFeature2Generic31OnPopulateConfigurationSettingsEP24ChiFeature2RequestObjectPK21ChiFeature2IdentifierP11ChiMetadata+0x2124>
   43030: e0 78 00 94  	bl	0x613b0 <_ZNK18ChiFeature2Generic41PopulateConfigurationsForSensorModeChangeEP24ChiFeature2RequestObjectP11ChiMetadata@plt>
   43038: 0d 01 00 b0  	adrp	x13, 0x64000 <_ZNK18ChiFeature2Generic31OnPopulateConfigurationSettingsEP24ChiFeature2RequestObjectPK21ChiFeature2IdentifierP11ChiMetadata+0x4ac>
   4304c: 21 dc 00 54  	b.ne	0x44bd0 <_ZNK18ChiFeature2Generic31OnPopulateConfigurationSettingsEP24ChiFeature2RequestObjectPK21ChiFeature2IdentifierP11ChiMetadata+0x1fc0>
   43050: b4 1d 00 b4  	cbz	x20, 0x43404 <_ZNK18ChiFeature2Generic31OnPopulateConfigurationSettingsEP24ChiFeature2RequestObjectPK21ChiFeature2IdentifierP11ChiMetadata+0x7f4>
   43060: 21 1d 00 54  	b.ne	0x43404 <_ZNK18ChiFeature2Generic31OnPopulateConfigurationSettingsEP24ChiFeature2RequestObjectPK21ChiFeature2IdentifierP11ChiMetadata+0x7f4>
   43078: 22 01 00 54  	b.hs	0x4309c <_ZNK18ChiFeature2Generic31OnPopulateConfigurationSettingsEP24ChiFeature2RequestObjectPK21ChiFeature2IdentifierP11ChiMetadata+0x48c>
   43080: d0 78 00 94  	bl	0x613c0 <_ZN15UsecaseSelector11IsRawStreamEPK14camera3_stream@plt>
   43084: 40 0e 00 35  	cbnz	w0, 0x4324c <_ZNK18ChiFeature2Generic31OnPopulateConfigurationSettingsEP24ChiFeature2RequestObjectPK21ChiFeature2IdentifierP11ChiMetadata+0x63c>
   43094: c1 fe ff 54  	b.ne	0x4306c <_ZNK18ChiFeature2Generic31OnPopulateConfigurationSettingsEP24ChiFeature2RequestObjectPK21ChiFeature2IdentifierP11ChiMetadata+0x45c>
   43098: 4a 03 00 14  	b	0x43dc0 <_ZNK18ChiFeature2Generic31OnPopulateConfigurationSettingsEP24ChiFeature2RequestObjectPK21ChiFeature2IdentifierP11ChiMetadata+0x11b0>
   430a0: 6c 00 00 14  	b	0x43250 <_ZNK18ChiFeature2Generic31OnPopulateConfigurationSettingsEP24ChiFeature2RequestObjectPK21ChiFeature2IdentifierP11ChiMetadata+0x640>
   430a4: 17 01 00 b0  	adrp	x23, 0x64000 <_ZNK18ChiFeature2Generic31OnPopulateConfigurationSettingsEP24ChiFeature2RequestObjectPK21ChiFeature2IdentifierP11ChiMetadata+0x518>
   430b0: 45 06 18 36  	tbz	w5, #3, 0x43178 <_ZNK18ChiFeature2Generic31OnPopulateConfigurationSettingsEP24ChiFeature2RequestObjectPK21ChiFeature2IdentifierP11ChiMetadata+0x568>
   430b4: 10 01 00 b0  	adrp	x16, 0x64000 <_ZNK18ChiFeature2Generic31OnPopulateConfigurationSettingsEP24ChiFeature2RequestObjectPK21ChiFeature2IdentifierP11ChiMetadata+0x528>
   430c4: c1 02 00 54  	b.ne	0x4311c <_ZNK18ChiFeature2Generic31OnPopulateConfigurationSettingsEP24ChiFeature2RequestObjectPK21ChiFeature2IdentifierP11ChiMetadata+0x50c>
   430c8: 73 fe ff b0  	adrp	x19, 0x10000 <_ZNK18ChiFeature2Generic31OnPopulateConfigurationSettingsEP24ChiFeature2RequestObjectPK21ChiFeature2IdentifierP11ChiMetadata+0x3ec>
   430e4: 61 fe ff f0  	adrp	x1, 0x12000 <_ZNK18ChiFeature2Generic31OnPopulateConfigurationSettingsEP24ChiFeature2RequestObjectPK21ChiFeature2IdentifierP11ChiMetadata+0x410>
   430e8: 62 fe ff b0  	adrp	x2, 0x10000 <_ZNK18ChiFeature2Generic31OnPopulateConfigurationSettingsEP24ChiFeature2RequestObjectPK21ChiFeature2IdentifierP11ChiMetadata+0x40c>
   430ec: 65 fe ff b0  	adrp	x5, 0x10000 <_ZNK18ChiFeature2Generic31OnPopulateConfigurationSettingsEP24ChiFeature2RequestObjectPK21ChiFeature2IdentifierP11ChiMetadata+0x410>
   4311c: 7a fe ff b0  	adrp	x26, 0x10000 <_ZNK18ChiFeature2Generic31OnPopulateConfigurationSettingsEP24ChiFeature2RequestObjectPK21ChiFeature2IdentifierP11ChiMetadata+0x440>
   43138: 61 fe ff 90  	adrp	x1, 0xf000 <_ZNK18ChiFeature2Generic31OnPopulateConfigurationSettingsEP24ChiFeature2RequestObjectPK21ChiFeature2IdentifierP11ChiMetadata+0x458>
   43140: 80 fe ff 90  	adrp	x0, 0x13000 <_ZNK18ChiFeature2Generic31OnPopulateConfigurationSettingsEP24ChiFeature2RequestObjectPK21ChiFeature2IdentifierP11ChiMetadata+0x470>
   43144: 63 fe ff b0  	adrp	x3, 0x10000 <_ZNK18ChiFeature2Generic31OnPopulateConfigurationSettingsEP24ChiFeature2RequestObjectPK21ChiFeature2IdentifierP11ChiMetadata+0x468>
   43148: 45 fe ff b0  	adrp	x5, 0xc000 <_ZNK18ChiFeature2Generic31OnPopulateConfigurationSettingsEP24ChiFeature2RequestObjectPK21ChiFeature2IdentifierP11ChiMetadata+0x45c>
   43170: 08 78 00 94  	bl	0x61190 <_ZN6ChiLog9LogSystemEPKcS1_S1_S1_iS1_z@plt>
   43178: 1b 19 00 34  	cbz	w27, 0x43498 <_ZNK18ChiFeature2Generic31OnPopulateConfigurationSettingsEP24ChiFeature2RequestObjectPK21ChiFeature2IdentifierP11ChiMetadata+0x888>
   4317c: fc 18 00 34  	cbz	w28, 0x43498 <_ZNK18ChiFeature2Generic31OnPopulateConfigurationSettingsEP24ChiFeature2RequestObjectPK21ChiFeature2IdentifierP11ChiMetadata+0x888>
   43180: d8 18 00 34  	cbz	w24, 0x43498 <_ZNK18ChiFeature2Generic31OnPopulateConfigurationSettingsEP24ChiFeature2RequestObjectPK21ChiFeature2IdentifierP11ChiMetadata+0x888>
   43184: b9 18 00 34  	cbz	w25, 0x43498 <_ZNK18ChiFeature2Generic31OnPopulateConfigurationSettingsEP24ChiFeature2RequestObjectPK21ChiFeature2IdentifierP11ChiMetadata+0x888>
   431a4: c1 6b 00 54  	b.ne	0x43f1c <_ZNK18ChiFeature2Generic31OnPopulateConfigurationSettingsEP24ChiFeature2RequestObjectPK21ChiFeature2IdentifierP11ChiMetadata+0x130c>
   431cc: 61 fe ff 90  	adrp	x1, 0xf000 <_ZNK18ChiFeature2Generic31OnPopulateConfigurationSettingsEP24ChiFeature2RequestObjectPK21ChiFeature2IdentifierP11ChiMetadata+0x4ec>
   431d0: 62 fe ff b0  	adrp	x2, 0x10000 <_ZNK18ChiFeature2Generic31OnPopulateConfigurationSettingsEP24ChiFeature2RequestObjectPK21ChiFeature2IdentifierP11ChiMetadata+0x4f4>
   431ec: 73 ac 00 b4  	cbz	x19, 0x44778 <_ZNK18ChiFeature2Generic31OnPopulateConfigurationSettingsEP24ChiFeature2RequestObjectPK21ChiFeature2IdentifierP11ChiMetadata+0x1b68>
   43228: 61 fe ff 90  	adrp	x1, 0xf000 <_ZNK18ChiFeature2Generic31OnPopulateConfigurationSettingsEP24ChiFeature2RequestObjectPK21ChiFeature2IdentifierP11ChiMetadata+0x548>
   4322c: 62 fe ff b0  	adrp	x2, 0x10000 <_ZNK18ChiFeature2Generic31OnPopulateConfigurationSettingsEP24ChiFeature2RequestObjectPK21ChiFeature2IdentifierP11ChiMetadata+0x550>
   43248: 58 ff ff 17  	b	0x42fa8 <_ZNK18ChiFeature2Generic31OnPopulateConfigurationSettingsEP24ChiFeature2RequestObjectPK21ChiFeature2IdentifierP11ChiMetadata+0x398>
   43250: 13 01 00 b0  	adrp	x19, 0x64000 <_ZNK18ChiFeature2Generic31OnPopulateConfigurationSettingsEP24ChiFeature2RequestObjectPK21ChiFeature2IdentifierP11ChiMetadata+0x6c4>
   4325c: 20 05 28 36  	tbz	w0, #5, 0x43300 <_ZNK18ChiFeature2Generic31OnPopulateConfigurationSettingsEP24ChiFeature2RequestObjectPK21ChiFeature2IdentifierP11ChiMetadata+0x6f0>
   43260: 06 01 00 b0  	adrp	x6, 0x64000 <_ZNK18ChiFeature2Generic31OnPopulateConfigurationSettingsEP24ChiFeature2RequestObjectPK21ChiFeature2IdentifierP11ChiMetadata+0x6d4>
   43264: 7a fe ff b0  	adrp	x26, 0x10000 <_ZNK18ChiFeature2Generic31OnPopulateConfigurationSettingsEP24ChiFeature2RequestObjectPK21ChiFeature2IdentifierP11ChiMetadata+0x588>
   43278: 21 02 00 54  	b.ne	0x432bc <_ZNK18ChiFeature2Generic31OnPopulateConfigurationSettingsEP24ChiFeature2RequestObjectPK21ChiFeature2IdentifierP11ChiMetadata+0x6ac>
   43290: 61 fe ff f0  	adrp	x1, 0x12000 <_ZNK18ChiFeature2Generic31OnPopulateConfigurationSettingsEP24ChiFeature2RequestObjectPK21ChiFeature2IdentifierP11ChiMetadata+0x5bc>
   43294: 62 fe ff b0  	adrp	x2, 0x10000 <_ZNK18ChiFeature2Generic31OnPopulateConfigurationSettingsEP24ChiFeature2RequestObjectPK21ChiFeature2IdentifierP11ChiMetadata+0x5b8>
   43298: 65 fe ff b0  	adrp	x5, 0x10000 <_ZNK18ChiFeature2Generic31OnPopulateConfigurationSettingsEP24ChiFeature2RequestObjectPK21ChiFeature2IdentifierP11ChiMetadata+0x5bc>
   432d0: 61 fe ff b0  	adrp	x1, 0x10000 <_ZNK18ChiFeature2Generic31OnPopulateConfigurationSettingsEP24ChiFeature2RequestObjectPK21ChiFeature2IdentifierP11ChiMetadata+0x5f4>
   432d8: 60 fe ff f0  	adrp	x0, 0x12000 <_ZNK18ChiFeature2Generic31OnPopulateConfigurationSettingsEP24ChiFeature2RequestObjectPK21ChiFeature2IdentifierP11ChiMetadata+0x604>
   432dc: 63 fe ff b0  	adrp	x3, 0x10000 <_ZNK18ChiFeature2Generic31OnPopulateConfigurationSettingsEP24ChiFeature2RequestObjectPK21ChiFeature2IdentifierP11ChiMetadata+0x600>
   432e0: 65 fe ff f0  	adrp	x5, 0x12000 <_ZNK18ChiFeature2Generic31OnPopulateConfigurationSettingsEP24ChiFeature2RequestObjectPK21ChiFeature2IdentifierP11ChiMetadata+0x60c>
   432fc: a5 77 00 94  	bl	0x61190 <_ZN6ChiLog9LogSystemEPKcS1_S1_S1_iS1_z@plt>
   43304: 1b 08 00 34  	cbz	w27, 0x43404 <_ZNK18ChiFeature2Generic31OnPopulateConfigurationSettingsEP24ChiFeature2RequestObjectPK21ChiFeature2IdentifierP11ChiMetadata+0x7f4>
   4330c: 18 01 00 b0  	adrp	x24, 0x64000 <_ZNK18ChiFeature2Generic31OnPopulateConfigurationSettingsEP24ChiFeature2RequestObjectPK21ChiFeature2IdentifierP11ChiMetadata+0x780>
   4331c: 61 ca 00 54  	b.ne	0x44c68 <_ZNK18ChiFeature2Generic31OnPopulateConfigurationSettingsEP24ChiFeature2RequestObjectPK21ChiFeature2IdentifierP11ChiMetadata+0x2058>
   4332c: 19 78 00 94  	bl	0x61390 <_ZNK15ChiFeature2Base18GetSensorModeIndexEPK21ChiFeature2IdentifierP11ChiMetadata@plt>
   43358: 12 78 00 94  	bl	0x613a0 <_ZN8ChxUtils18FillTuningModeDataEP11ChiMetadata25ChiModeUsecaseSubModeTypejPjS3_S3_S3_@plt>
   43360: 21 05 28 36  	tbz	w1, #5, 0x43404 <_ZNK18ChiFeature2Generic31OnPopulateConfigurationSettingsEP24ChiFeature2RequestObjectPK21ChiFeature2IdentifierP11ChiMetadata+0x7f4>
   43364: 00 01 00 b0  	adrp	x0, 0x64000 <_ZNK18ChiFeature2Generic31OnPopulateConfigurationSettingsEP24ChiFeature2RequestObjectPK21ChiFeature2IdentifierP11ChiMetadata+0x7d8>
   43374: 41 02 00 54  	b.ne	0x433bc <_ZNK18ChiFeature2Generic31OnPopulateConfigurationSettingsEP24ChiFeature2RequestObjectPK21ChiFeature2IdentifierP11ChiMetadata+0x7ac>
   43378: 7c fe ff b0  	adrp	x28, 0x10000 <_ZNK18ChiFeature2Generic31OnPopulateConfigurationSettingsEP24ChiFeature2RequestObjectPK21ChiFeature2IdentifierP11ChiMetadata+0x69c>
   43394: 61 fe ff f0  	adrp	x1, 0x12000 <_ZNK18ChiFeature2Generic31OnPopulateConfigurationSettingsEP24ChiFeature2RequestObjectPK21ChiFeature2IdentifierP11ChiMetadata+0x6c0>
   43398: 62 fe ff d0  	adrp	x2, 0x11000 <_ZNK18ChiFeature2Generic31OnPopulateConfigurationSettingsEP24ChiFeature2RequestObjectPK21ChiFeature2IdentifierP11ChiMetadata+0x6c0>
   4339c: 65 fe ff b0  	adrp	x5, 0x10000 <_ZNK18ChiFeature2Generic31OnPopulateConfigurationSettingsEP24ChiFeature2RequestObjectPK21ChiFeature2IdentifierP11ChiMetadata+0x6c0>
   433bc: 7b fe ff b0  	adrp	x27, 0x10000 <_ZNK18ChiFeature2Generic31OnPopulateConfigurationSettingsEP24ChiFeature2RequestObjectPK21ChiFeature2IdentifierP11ChiMetadata+0x6e0>
   433d8: 61 fe ff b0  	adrp	x1, 0x10000 <_ZNK18ChiFeature2Generic31OnPopulateConfigurationSettingsEP24ChiFeature2RequestObjectPK21ChiFeature2IdentifierP11ChiMetadata+0x6fc>
   433e0: 60 fe ff f0  	adrp	x0, 0x12000 <_ZNK18ChiFeature2Generic31OnPopulateConfigurationSettingsEP24ChiFeature2RequestObjectPK21ChiFeature2IdentifierP11ChiMetadata+0x70c>
   433e4: 63 fe ff b0  	adrp	x3, 0x10000 <_ZNK18ChiFeature2Generic31OnPopulateConfigurationSettingsEP24ChiFeature2RequestObjectPK21ChiFeature2IdentifierP11ChiMetadata+0x708>
   433e8: 65 fe ff f0  	adrp	x5, 0x12000 <_ZNK18ChiFeature2Generic31OnPopulateConfigurationSettingsEP24ChiFeature2RequestObjectPK21ChiFeature2IdentifierP11ChiMetadata+0x714>
   43400: 64 77 00 94  	bl	0x61190 <_ZN6ChiLog9LogSystemEPKcS1_S1_S1_iS1_z@plt>
   43404: 6b 77 00 94  	bl	0x611b0 <_ZN15ExtensionModule11GetInstanceEv@plt>
   4340c: 48 02 00 b4  	cbz	x8, 0x43454 <_ZNK18ChiFeature2Generic31OnPopulateConfigurationSettingsEP24ChiFeature2RequestObjectPK21ChiFeature2IdentifierP11ChiMetadata+0x844>
   43418: e1 01 00 54  	b.ne	0x43454 <_ZNK18ChiFeature2Generic31OnPopulateConfigurationSettingsEP24ChiFeature2RequestObjectPK21ChiFeature2IdentifierP11ChiMetadata+0x844>
   4341c: 65 77 00 94  	bl	0x611b0 <_ZN15ExtensionModule11GetInstanceEv@plt>
   43424: 84 01 00 35  	cbnz	w4, 0x43454 <_ZNK18ChiFeature2Generic31OnPopulateConfigurationSettingsEP24ChiFeature2RequestObjectPK21ChiFeature2IdentifierP11ChiMetadata+0x844>
   4342c: 0e 01 00 b0  	adrp	x14, 0x64000 <_ZNK18ChiFeature2Generic31OnPopulateConfigurationSettingsEP24ChiFeature2RequestObjectPK21ChiFeature2IdentifierP11ChiMetadata+0x8a0>
   4343c: 01 c7 00 54  	b.ne	0x44d1c <_ZNK18ChiFeature2Generic31OnPopulateConfigurationSettingsEP24ChiFeature2RequestObjectPK21ChiFeature2IdentifierP11ChiMetadata+0x210c>
   43450: e0 77 00 94  	bl	0x613d0 <_ZNK18ChiFeature2Generic40PopulateConfigurationSettingsforBayerSATEP24ChiFeature2RequestObjectPK21ChiFeature2IdentifierP11ChiMetadata@plt>
   43464: a1 cb 00 54  	b.ne	0x44dd8 <_ZNK18ChiFeature2Generic31OnPopulateConfigurationSettingsEP24ChiFeature2RequestObjectPK21ChiFeature2IdentifierP11ChiMetadata+0x21c8>
   43494: f7 00 00 14  	b	0x43870 <_ZNK18ChiFeature2Generic31OnPopulateConfigurationSettingsEP24ChiFeature2RequestObjectPK21ChiFeature2IdentifierP11ChiMetadata+0xc60>
   4349c: a7 4d 00 37  	tbnz	w7, #0, 0x43e50 <_ZNK18ChiFeature2Generic31OnPopulateConfigurationSettingsEP24ChiFeature2RequestObjectPK21ChiFeature2IdentifierP11ChiMetadata+0x1240>
   434a8: c0 fe ff 17  	b	0x42fa8 <_ZNK18ChiFeature2Generic31OnPopulateConfigurationSettingsEP24ChiFeature2RequestObjectPK21ChiFeature2IdentifierP11ChiMetadata+0x398>
   434b0: 80 cc ff 54  	b.eq	0x42e40 <_ZNK18ChiFeature2Generic31OnPopulateConfigurationSettingsEP24ChiFeature2RequestObjectPK21ChiFeature2IdentifierP11ChiMetadata+0x230>
   434b8: 42 77 00 94  	bl	0x611c0 <_ZNK24ChiFeature2RequestObject23GetUsecaseRequestObjectEv@plt>
   434dc: 61 08 00 54  	b.ne	0x435e8 <_ZNK18ChiFeature2Generic31OnPopulateConfigurationSettingsEP24ChiFeature2RequestObjectPK21ChiFeature2IdentifierP11ChiMetadata+0x9d8>
   43508: 41 fe ff d0  	adrp	x1, 0xd000 <_ZNK18ChiFeature2Generic31OnPopulateConfigurationSettingsEP24ChiFeature2RequestObjectPK21ChiFeature2IdentifierP11ChiMetadata+0x820>
   4350c: 42 fe ff d0  	adrp	x2, 0xd000 <_ZNK18ChiFeature2Generic31OnPopulateConfigurationSettingsEP24ChiFeature2RequestObjectPK21ChiFeature2IdentifierP11ChiMetadata+0x824>
   4352c: a0 05 00 34  	cbz	w0, 0x435e0 <_ZNK18ChiFeature2Generic31OnPopulateConfigurationSettingsEP24ChiFeature2RequestObjectPK21ChiFeature2IdentifierP11ChiMetadata+0x9d0>
   43530: 17 01 00 b0  	adrp	x23, 0x64000 <_ZNK18ChiFeature2Generic31OnPopulateConfigurationSettingsEP24ChiFeature2RequestObjectPK21ChiFeature2IdentifierP11ChiMetadata+0x9a4>
   4353c: 3b 05 00 36  	tbz	w27, #0, 0x435e0 <_ZNK18ChiFeature2Generic31OnPopulateConfigurationSettingsEP24ChiFeature2RequestObjectPK21ChiFeature2IdentifierP11ChiMetadata+0x9d0>
   43540: 0f 01 00 b0  	adrp	x15, 0x64000 <_ZNK18ChiFeature2Generic31OnPopulateConfigurationSettingsEP24ChiFeature2RequestObjectPK21ChiFeature2IdentifierP11ChiMetadata+0x9b4>
   43550: 41 02 00 54  	b.ne	0x43598 <_ZNK18ChiFeature2Generic31OnPopulateConfigurationSettingsEP24ChiFeature2RequestObjectPK21ChiFeature2IdentifierP11ChiMetadata+0x988>
   43554: 73 fe ff b0  	adrp	x19, 0x10000 <_ZNK18ChiFeature2Generic31OnPopulateConfigurationSettingsEP24ChiFeature2RequestObjectPK21ChiFeature2IdentifierP11ChiMetadata+0x878>
   43570: 61 fe ff f0  	adrp	x1, 0x12000 <_ZNK18ChiFeature2Generic31OnPopulateConfigurationSettingsEP24ChiFeature2RequestObjectPK21ChiFeature2IdentifierP11ChiMetadata+0x89c>
   43574: 42 fe ff b0  	adrp	x2, 0xc000 <_ZNK18ChiFeature2Generic31OnPopulateConfigurationSettingsEP24ChiFeature2RequestObjectPK21ChiFeature2IdentifierP11ChiMetadata+0x888>
   43578: 65 fe ff b0  	adrp	x5, 0x10000 <_ZNK18ChiFeature2Generic31OnPopulateConfigurationSettingsEP24ChiFeature2RequestObjectPK21ChiFeature2IdentifierP11ChiMetadata+0x89c>
   43598: 73 fe ff b0  	adrp	x19, 0x10000 <_ZNK18ChiFeature2Generic31OnPopulateConfigurationSettingsEP24ChiFeature2RequestObjectPK21ChiFeature2IdentifierP11ChiMetadata+0x8bc>
   435b4: 61 fe ff f0  	adrp	x1, 0x12000 <_ZNK18ChiFeature2Generic31OnPopulateConfigurationSettingsEP24ChiFeature2RequestObjectPK21ChiFeature2IdentifierP11ChiMetadata+0x8e0>
   435bc: 40 fe ff b0  	adrp	x0, 0xc000 <_ZNK18ChiFeature2Generic31OnPopulateConfigurationSettingsEP24ChiFeature2RequestObjectPK21ChiFeature2IdentifierP11ChiMetadata+0x8d0>
   435c0: 63 fe ff b0  	adrp	x3, 0x10000 <_ZNK18ChiFeature2Generic31OnPopulateConfigurationSettingsEP24ChiFeature2RequestObjectPK21ChiFeature2IdentifierP11ChiMetadata+0x8e4>
   435c4: 45 fe ff f0  	adrp	x5, 0xe000 <_ZNK18ChiFeature2Generic31OnPopulateConfigurationSettingsEP24ChiFeature2RequestObjectPK21ChiFeature2IdentifierP11ChiMetadata+0x8e0>
   435dc: ed 76 00 94  	bl	0x61190 <_ZN6ChiLog9LogSystemEPKcS1_S1_S1_iS1_z@plt>
   435e0: 1b 01 00 b0  	adrp	x27, 0x64000 <_ZNK18ChiFeature2Generic31OnPopulateConfigurationSettingsEP24ChiFeature2RequestObjectPK21ChiFeature2IdentifierP11ChiMetadata+0xa54>
   435e8: 78 08 00 b4  	cbz	x24, 0x436f4 <_ZNK18ChiFeature2Generic31OnPopulateConfigurationSettingsEP24ChiFeature2RequestObjectPK21ChiFeature2IdentifierP11ChiMetadata+0xae4>
   435f0: 26 08 18 36  	tbz	w6, #3, 0x436f4 <_ZNK18ChiFeature2Generic31OnPopulateConfigurationSettingsEP24ChiFeature2RequestObjectPK21ChiFeature2IdentifierP11ChiMetadata+0xae4>
   4361c: 81 fe ff 90  	adrp	x1, 0x13000 <_ZNK18ChiFeature2Generic31OnPopulateConfigurationSettingsEP24ChiFeature2RequestObjectPK21ChiFeature2IdentifierP11ChiMetadata+0x94c>
   43620: 42 fe ff b0  	adrp	x2, 0xc000 <_ZNK18ChiFeature2Generic31OnPopulateConfigurationSettingsEP24ChiFeature2RequestObjectPK21ChiFeature2IdentifierP11ChiMetadata+0x934>
   4363c: a0 05 00 34  	cbz	w0, 0x436f0 <_ZNK18ChiFeature2Generic31OnPopulateConfigurationSettingsEP24ChiFeature2RequestObjectPK21ChiFeature2IdentifierP11ChiMetadata+0xae0>
   43640: 10 01 00 b0  	adrp	x16, 0x64000 <_ZNK18ChiFeature2Generic31OnPopulateConfigurationSettingsEP24ChiFeature2RequestObjectPK21ChiFeature2IdentifierP11ChiMetadata+0xab4>
   4364c: 20 05 08 36  	tbz	w0, #1, 0x436f0 <_ZNK18ChiFeature2Generic31OnPopulateConfigurationSettingsEP24ChiFeature2RequestObjectPK21ChiFeature2IdentifierP11ChiMetadata+0xae0>
   43650: 11 01 00 b0  	adrp	x17, 0x64000 <_ZNK18ChiFeature2Generic31OnPopulateConfigurationSettingsEP24ChiFeature2RequestObjectPK21ChiFeature2IdentifierP11ChiMetadata+0xac4>
   43660: 41 02 00 54  	b.ne	0x436a8 <_ZNK18ChiFeature2Generic31OnPopulateConfigurationSettingsEP24ChiFeature2RequestObjectPK21ChiFeature2IdentifierP11ChiMetadata+0xa98>
   43664: 73 fe ff b0  	adrp	x19, 0x10000 <_ZNK18ChiFeature2Generic31OnPopulateConfigurationSettingsEP24ChiFeature2RequestObjectPK21ChiFeature2IdentifierP11ChiMetadata+0x988>
   43680: 61 fe ff f0  	adrp	x1, 0x12000 <_ZNK18ChiFeature2Generic31OnPopulateConfigurationSettingsEP24ChiFeature2RequestObjectPK21ChiFeature2IdentifierP11ChiMetadata+0x9ac>
   43684: 62 fe ff f0  	adrp	x2, 0x12000 <_ZNK18ChiFeature2Generic31OnPopulateConfigurationSettingsEP24ChiFeature2RequestObjectPK21ChiFeature2IdentifierP11ChiMetadata+0x9b0>
   43688: 65 fe ff b0  	adrp	x5, 0x10000 <_ZNK18ChiFeature2Generic31OnPopulateConfigurationSettingsEP24ChiFeature2RequestObjectPK21ChiFeature2IdentifierP11ChiMetadata+0x9ac>
   436a8: 73 fe ff b0  	adrp	x19, 0x10000 <_ZNK18ChiFeature2Generic31OnPopulateConfigurationSettingsEP24ChiFeature2RequestObjectPK21ChiFeature2IdentifierP11ChiMetadata+0x9cc>
   436c4: 41 fe ff d0  	adrp	x1, 0xd000 <_ZNK18ChiFeature2Generic31OnPopulateConfigurationSettingsEP24ChiFeature2RequestObjectPK21ChiFeature2IdentifierP11ChiMetadata+0x9dc>
   436cc: 60 fe ff b0  	adrp	x0, 0x10000 <_ZNK18ChiFeature2Generic31OnPopulateConfigurationSettingsEP24ChiFeature2RequestObjectPK21ChiFeature2IdentifierP11ChiMetadata+0x9f0>
   436d0: 63 fe ff b0  	adrp	x3, 0x10000 <_ZNK18ChiFeature2Generic31OnPopulateConfigurationSettingsEP24ChiFeature2RequestObjectPK21ChiFeature2IdentifierP11ChiMetadata+0x9f4>
   436d4: 65 fe ff d0  	adrp	x5, 0x11000 <_ZNK18ChiFeature2Generic31OnPopulateConfigurationSettingsEP24ChiFeature2RequestObjectPK21ChiFeature2IdentifierP11ChiMetadata+0x9fc>
   436ec: a9 76 00 94  	bl	0x61190 <_ZN6ChiLog9LogSystemEPKcS1_S1_S1_iS1_z@plt>
   436f4: af 76 00 94  	bl	0x611b0 <_ZN15ExtensionModule11GetInstanceEv@plt>
   43704: c8 32 00 54  	b.hi	0x43d5c <_ZNK18ChiFeature2Generic31OnPopulateConfigurationSettingsEP24ChiFeature2RequestObjectPK21ChiFeature2IdentifierP11ChiMetadata+0x114c>
   43724: c0 31 00 54  	b.eq	0x43d5c <_ZNK18ChiFeature2Generic31OnPopulateConfigurationSettingsEP24ChiFeature2RequestObjectPK21ChiFeature2IdentifierP11ChiMetadata+0x114c>
   43748: 41 a8 00 54  	b.ne	0x44c50 <_ZNK18ChiFeature2Generic31OnPopulateConfigurationSettingsEP24ChiFeature2RequestObjectPK21ChiFeature2IdentifierP11ChiMetadata+0x2040>
   43758: 0e 77 00 94  	bl	0x61390 <_ZNK15ChiFeature2Base18GetSensorModeIndexEPK21ChiFeature2IdentifierP11ChiMetadata@plt>
   43774: 57 fe ff b0  	adrp	x23, 0xc000 <_ZNK18ChiFeature2Generic31OnPopulateConfigurationSettingsEP24ChiFeature2RequestObjectPK21ChiFeature2IdentifierP11ChiMetadata+0xa88>
   43780: 42 fe ff b0  	adrp	x2, 0xc000 <_ZNK18ChiFeature2Generic31OnPopulateConfigurationSettingsEP24ChiFeature2RequestObjectPK21ChiFeature2IdentifierP11ChiMetadata+0xa94>
   437b4: 62 fe ff d0  	adrp	x2, 0x11000 <_ZNK18ChiFeature2Generic31OnPopulateConfigurationSettingsEP24ChiFeature2RequestObjectPK21ChiFeature2IdentifierP11ChiMetadata+0xadc>
   437d0: 86 00 00 b4  	cbz	x6, 0x437e0 <_ZNK18ChiFeature2Generic31OnPopulateConfigurationSettingsEP24ChiFeature2RequestObjectPK21ChiFeature2IdentifierP11ChiMetadata+0xbd0>
   437dc: 80 01 00 54  	b.eq	0x4380c <_ZNK18ChiFeature2Generic31OnPopulateConfigurationSettingsEP24ChiFeature2RequestObjectPK21ChiFeature2IdentifierP11ChiMetadata+0xbfc>
   437e0: 79 00 00 b4  	cbz	x25, 0x437ec <_ZNK18ChiFeature2Generic31OnPopulateConfigurationSettingsEP24ChiFeature2RequestObjectPK21ChiFeature2IdentifierP11ChiMetadata+0xbdc>
   437e8: 21 01 10 37  	tbnz	w1, #2, 0x4380c <_ZNK18ChiFeature2Generic31OnPopulateConfigurationSettingsEP24ChiFeature2RequestObjectPK21ChiFeature2IdentifierP11ChiMetadata+0xbfc>
   437ec: 1b 01 00 b0  	adrp	x27, 0x64000 <_ZNK18ChiFeature2Generic31OnPopulateConfigurationSettingsEP24ChiFeature2RequestObjectPK21ChiFeature2IdentifierP11ChiMetadata+0xc60>
   437f4: 75 01 00 b4  	cbz	x21, 0x43820 <_ZNK18ChiFeature2Generic31OnPopulateConfigurationSettingsEP24ChiFeature2RequestObjectPK21ChiFeature2IdentifierP11ChiMetadata+0xc10>
   43800: 01 01 00 54  	b.ne	0x43820 <_ZNK18ChiFeature2Generic31OnPopulateConfigurationSettingsEP24ChiFeature2RequestObjectPK21ChiFeature2IdentifierP11ChiMetadata+0xc10>
   43808: 0f 00 00 14  	b	0x43844 <_ZNK18ChiFeature2Generic31OnPopulateConfigurationSettingsEP24ChiFeature2RequestObjectPK21ChiFeature2IdentifierP11ChiMetadata+0xc34>
   43810: 1b 01 00 b0  	adrp	x27, 0x64000 <_ZNK18ChiFeature2Generic31OnPopulateConfigurationSettingsEP24ChiFeature2RequestObjectPK21ChiFeature2IdentifierP11ChiMetadata+0xc84>
   4381c: 0b 00 00 14  	b	0x43848 <_ZNK18ChiFeature2Generic31OnPopulateConfigurationSettingsEP24ChiFeature2RequestObjectPK21ChiFeature2IdentifierP11ChiMetadata+0xc38>
   43840: 81 01 00 54  	b.ne	0x43870 <_ZNK18ChiFeature2Generic31OnPopulateConfigurationSettingsEP24ChiFeature2RequestObjectPK21ChiFeature2IdentifierP11ChiMetadata+0xc60>
   4386c: cd 76 00 94  	bl	0x613a0 <_ZN8ChxUtils18FillTuningModeDataEP11ChiMetadata25ChiModeUsecaseSubModeTypejPjS3_S3_S3_@plt>
   43878: e1 0b 00 54  	b.ne	0x439f4 <_ZNK18ChiFeature2Generic31OnPopulateConfigurationSettingsEP24ChiFeature2RequestObjectPK21ChiFeature2IdentifierP11ChiMetadata+0xde4>
   43888: c1 9f 00 54  	b.ne	0x44c80 <_ZNK18ChiFeature2Generic31OnPopulateConfigurationSettingsEP24ChiFeature2RequestObjectPK21ChiFeature2IdentifierP11ChiMetadata+0x2070>
   43890: 81 a0 00 54  	b.ne	0x44ca0 <_ZNK18ChiFeature2Generic31OnPopulateConfigurationSettingsEP24ChiFeature2RequestObjectPK21ChiFeature2IdentifierP11ChiMetadata+0x2090>
   43894: 15 0b 00 b4  	cbz	x21, 0x439f4 <_ZNK18ChiFeature2Generic31OnPopulateConfigurationSettingsEP24ChiFeature2RequestObjectPK21ChiFeature2IdentifierP11ChiMetadata+0xde4>
   438a8: 22 0a 00 54  	b.hs	0x439ec <_ZNK18ChiFeature2Generic31OnPopulateConfigurationSettingsEP24ChiFeature2RequestObjectPK21ChiFeature2IdentifierP11ChiMetadata+0xddc>
   438b0: 1b 01 00 b0  	adrp	x27, 0x64000 <_ZNK18ChiFeature2Generic31OnPopulateConfigurationSettingsEP24ChiFeature2RequestObjectPK21ChiFeature2IdentifierP11ChiMetadata+0xd24>
   438b8: e1 09 00 b4  	cbz	x1, 0x439f4 <_ZNK18ChiFeature2Generic31OnPopulateConfigurationSettingsEP24ChiFeature2RequestObjectPK21ChiFeature2IdentifierP11ChiMetadata+0xde4>
   438cc: 42 09 00 54  	b.hs	0x439f4 <_ZNK18ChiFeature2Generic31OnPopulateConfigurationSettingsEP24ChiFeature2RequestObjectPK21ChiFeature2IdentifierP11ChiMetadata+0xde4>
   438d4: 75 83 00 b4  	cbz	x21, 0x44940 <_ZNK18ChiFeature2Generic31OnPopulateConfigurationSettingsEP24ChiFeature2RequestObjectPK21ChiFeature2IdentifierP11ChiMetadata+0x1d30>
   438dc: 33 83 00 b4  	cbz	x19, 0x44940 <_ZNK18ChiFeature2Generic31OnPopulateConfigurationSettingsEP24ChiFeature2RequestObjectPK21ChiFeature2IdentifierP11ChiMetadata+0x1d30>
   438e8: 77 08 00 b4  	cbz	x23, 0x439f4 <_ZNK18ChiFeature2Generic31OnPopulateConfigurationSettingsEP24ChiFeature2RequestObjectPK21ChiFeature2IdentifierP11ChiMetadata+0xde4>
   43910: 61 fe ff f0  	adrp	x1, 0x12000 <_ZNK18ChiFeature2Generic31OnPopulateConfigurationSettingsEP24ChiFeature2RequestObjectPK21ChiFeature2IdentifierP11ChiMetadata+0xc3c>
   43914: 62 fe ff 90  	adrp	x2, 0xf000 <_ZNK18ChiFeature2Generic31OnPopulateConfigurationSettingsEP24ChiFeature2RequestObjectPK21ChiFeature2IdentifierP11ChiMetadata+0xc34>
   43930: a0 05 00 34  	cbz	w0, 0x439e4 <_ZNK18ChiFeature2Generic31OnPopulateConfigurationSettingsEP24ChiFeature2RequestObjectPK21ChiFeature2IdentifierP11ChiMetadata+0xdd4>
   43934: 01 01 00 b0  	adrp	x1, 0x64000 <_ZNK18ChiFeature2Generic31OnPopulateConfigurationSettingsEP24ChiFeature2RequestObjectPK21ChiFeature2IdentifierP11ChiMetadata+0xda8>
   43940: 24 05 08 36  	tbz	w4, #1, 0x439e4 <_ZNK18ChiFeature2Generic31OnPopulateConfigurationSettingsEP24ChiFeature2RequestObjectPK21ChiFeature2IdentifierP11ChiMetadata+0xdd4>
   43944: 03 01 00 b0  	adrp	x3, 0x64000 <_ZNK18ChiFeature2Generic31OnPopulateConfigurationSettingsEP24ChiFeature2RequestObjectPK21ChiFeature2IdentifierP11ChiMetadata+0xdb8>
   43954: 41 02 00 54  	b.ne	0x4399c <_ZNK18ChiFeature2Generic31OnPopulateConfigurationSettingsEP24ChiFeature2RequestObjectPK21ChiFeature2IdentifierP11ChiMetadata+0xd8c>
   43958: 73 fe ff b0  	adrp	x19, 0x10000 <_ZNK18ChiFeature2Generic31OnPopulateConfigurationSettingsEP24ChiFeature2RequestObjectPK21ChiFeature2IdentifierP11ChiMetadata+0xc7c>
   43974: 61 fe ff f0  	adrp	x1, 0x12000 <_ZNK18ChiFeature2Generic31OnPopulateConfigurationSettingsEP24ChiFeature2RequestObjectPK21ChiFeature2IdentifierP11ChiMetadata+0xca0>
   43978: 62 fe ff d0  	adrp	x2, 0x11000 <_ZNK18ChiFeature2Generic31OnPopulateConfigurationSettingsEP24ChiFeature2RequestObjectPK21ChiFeature2IdentifierP11ChiMetadata+0xca0>
   4397c: 65 fe ff b0  	adrp	x5, 0x10000 <_ZNK18ChiFeature2Generic31OnPopulateConfigurationSettingsEP24ChiFeature2RequestObjectPK21ChiFeature2IdentifierP11ChiMetadata+0xca0>
   4399c: 77 fe ff b0  	adrp	x23, 0x10000 <_ZNK18ChiFeature2Generic31OnPopulateConfigurationSettingsEP24ChiFeature2RequestObjectPK21ChiFeature2IdentifierP11ChiMetadata+0xcc0>
   439b8: 41 fe ff d0  	adrp	x1, 0xd000 <_ZNK18ChiFeature2Generic31OnPopulateConfigurationSettingsEP24ChiFeature2RequestObjectPK21ChiFeature2IdentifierP11ChiMetadata+0xcd0>
   439c0: 60 fe ff b0  	adrp	x0, 0x10000 <_ZNK18ChiFeature2Generic31OnPopulateConfigurationSettingsEP24ChiFeature2RequestObjectPK21ChiFeature2IdentifierP11ChiMetadata+0xce4>
   439c4: 63 fe ff b0  	adrp	x3, 0x10000 <_ZNK18ChiFeature2Generic31OnPopulateConfigurationSettingsEP24ChiFeature2RequestObjectPK21ChiFeature2IdentifierP11ChiMetadata+0xce8>
   439c8: 45 fe ff b0  	adrp	x5, 0xc000 <_ZNK18ChiFeature2Generic31OnPopulateConfigurationSettingsEP24ChiFeature2RequestObjectPK21ChiFeature2IdentifierP11ChiMetadata+0xcdc>
   439e0: ec 75 00 94  	bl	0x61190 <_ZN6ChiLog9LogSystemEPKcS1_S1_S1_iS1_z@plt>
   439e8: 03 00 00 14  	b	0x439f4 <_ZNK18ChiFeature2Generic31OnPopulateConfigurationSettingsEP24ChiFeature2RequestObjectPK21ChiFeature2IdentifierP11ChiMetadata+0xde4>
   439ec: 1b 01 00 b0  	adrp	x27, 0x64000 <_ZNK18ChiFeature2Generic31OnPopulateConfigurationSettingsEP24ChiFeature2RequestObjectPK21ChiFeature2IdentifierP11ChiMetadata+0xe60>
   439f4: 54 07 00 b4  	cbz	x20, 0x43adc <_ZNK18ChiFeature2Generic31OnPopulateConfigurationSettingsEP24ChiFeature2RequestObjectPK21ChiFeature2IdentifierP11ChiMetadata+0xecc>
   439f8: 38 07 00 b4  	cbz	x24, 0x43adc <_ZNK18ChiFeature2Generic31OnPopulateConfigurationSettingsEP24ChiFeature2RequestObjectPK21ChiFeature2IdentifierP11ChiMetadata+0xecc>
   43a04: c0 06 00 54  	b.eq	0x43adc <_ZNK18ChiFeature2Generic31OnPopulateConfigurationSettingsEP24ChiFeature2RequestObjectPK21ChiFeature2IdentifierP11ChiMetadata+0xecc>
   43a08: ea 75 00 94  	bl	0x611b0 <_ZN15ExtensionModule11GetInstanceEv@plt>
   43a18: 21 06 00 54  	b.ne	0x43adc <_ZNK18ChiFeature2Generic31OnPopulateConfigurationSettingsEP24ChiFeature2RequestObjectPK21ChiFeature2IdentifierP11ChiMetadata+0xecc>
   43a34: e3 75 00 94  	bl	0x611c0 <_ZNK24ChiFeature2RequestObject23GetUsecaseRequestObjectEv@plt>
   43a5c: 61 9a 00 54  	b.ne	0x44da8 <_ZNK18ChiFeature2Generic31OnPopulateConfigurationSettingsEP24ChiFeature2RequestObjectPK21ChiFeature2IdentifierP11ChiMetadata+0x2198>
   43a6c: 49 76 00 94  	bl	0x61390 <_ZNK15ChiFeature2Base18GetSensorModeIndexEPK21ChiFeature2IdentifierP11ChiMetadata@plt>
   43a94: 61 fe ff d0  	adrp	x1, 0x11000 <_ZNK18ChiFeature2Generic31OnPopulateConfigurationSettingsEP24ChiFeature2RequestObjectPK21ChiFeature2IdentifierP11ChiMetadata+0xdbc>
   43a98: 62 fe ff 90  	adrp	x2, 0xf000 <_ZNK18ChiFeature2Generic31OnPopulateConfigurationSettingsEP24ChiFeature2RequestObjectPK21ChiFeature2IdentifierP11ChiMetadata+0xdb8>
   43ad0: 34 76 00 94  	bl	0x613a0 <_ZN8ChxUtils18FillTuningModeDataEP11ChiMetadata25ChiModeUsecaseSubModeTypejPjS3_S3_S3_@plt>
   43ad4: 1b 01 00 b0  	adrp	x27, 0x64000 <_ZNK18ChiFeature2Generic31OnPopulateConfigurationSettingsEP24ChiFeature2RequestObjectPK21ChiFeature2IdentifierP11ChiMetadata+0xf48>
   43ae8: a1 89 00 54  	b.ne	0x44c1c <_ZNK18ChiFeature2Generic31OnPopulateConfigurationSettingsEP24ChiFeature2RequestObjectPK21ChiFeature2IdentifierP11ChiMetadata+0x200c>
   43af8: e0 00 00 54  	b.eq	0x43b14 <_ZNK18ChiFeature2Generic31OnPopulateConfigurationSettingsEP24ChiFeature2RequestObjectPK21ChiFeature2IdentifierP11ChiMetadata+0xf04>
   43afc: 0a 07 00 35  	cbnz	w10, 0x43bdc <_ZNK18ChiFeature2Generic31OnPopulateConfigurationSettingsEP24ChiFeature2RequestObjectPK21ChiFeature2IdentifierP11ChiMetadata+0xfcc>
   43b0c: 94 00 00 b5  	cbnz	x20, 0x43b1c <_ZNK18ChiFeature2Generic31OnPopulateConfigurationSettingsEP24ChiFeature2RequestObjectPK21ChiFeature2IdentifierP11ChiMetadata+0xf0c>
   43b10: 33 00 00 14  	b	0x43bdc <_ZNK18ChiFeature2Generic31OnPopulateConfigurationSettingsEP24ChiFeature2RequestObjectPK21ChiFeature2IdentifierP11ChiMetadata+0xfcc>
   43b18: 34 06 00 b4  	cbz	x20, 0x43bdc <_ZNK18ChiFeature2Generic31OnPopulateConfigurationSettingsEP24ChiFeature2RequestObjectPK21ChiFeature2IdentifierP11ChiMetadata+0xfcc>
   43b1c: 09 06 00 34  	cbz	w9, 0x43bdc <_ZNK18ChiFeature2Generic31OnPopulateConfigurationSettingsEP24ChiFeature2RequestObjectPK21ChiFeature2IdentifierP11ChiMetadata+0xfcc>
   43b30: 61 8c 00 54  	b.ne	0x44cbc <_ZNK18ChiFeature2Generic31OnPopulateConfigurationSettingsEP24ChiFeature2RequestObjectPK21ChiFeature2IdentifierP11ChiMetadata+0x20ac>
   43b54: 97 75 00 94  	bl	0x611b0 <_ZN15ExtensionModule11GetInstanceEv@plt>
   43b5c: 21 76 00 94  	bl	0x613e0 <_ZN15ExtensionModule15GetVendorTagOpsEP16ChiVendorTagsOps@plt>
   43b7c: 60 fe ff b0  	adrp	x0, 0x10000 <_ZNK18ChiFeature2Generic31OnPopulateConfigurationSettingsEP24ChiFeature2RequestObjectPK21ChiFeature2IdentifierP11ChiMetadata+0xea0>
   43b80: 61 fe ff f0  	adrp	x1, 0x12000 <_ZNK18ChiFeature2Generic31OnPopulateConfigurationSettingsEP24ChiFeature2RequestObjectPK21ChiFeature2IdentifierP11ChiMetadata+0xeac>
   43bd0: d8 0c 00 b4  	cbz	x24, 0x43d68 <_ZNK18ChiFeature2Generic31OnPopulateConfigurationSettingsEP24ChiFeature2RequestObjectPK21ChiFeature2IdentifierP11ChiMetadata+0x1158>
   43bd8: 65 00 00 14  	b	0x43d6c <_ZNK18ChiFeature2Generic31OnPopulateConfigurationSettingsEP24ChiFeature2RequestObjectPK21ChiFeature2IdentifierP11ChiMetadata+0x115c>
   43bdc: d4 0b 00 b4  	cbz	x20, 0x43d54 <_ZNK18ChiFeature2Generic31OnPopulateConfigurationSettingsEP24ChiFeature2RequestObjectPK21ChiFeature2IdentifierP11ChiMetadata+0x1144>
   43be4: 77 75 00 94  	bl	0x611c0 <_ZNK24ChiFeature2RequestObject23GetUsecaseRequestObjectEv@plt>
   43c00: a1 0a 00 54  	b.ne	0x43d54 <_ZNK18ChiFeature2Generic31OnPopulateConfigurationSettingsEP24ChiFeature2RequestObjectPK21ChiFeature2IdentifierP11ChiMetadata+0x1144>
   43c1c: 61 fe ff d0  	adrp	x1, 0x11000 <_ZNK18ChiFeature2Generic31OnPopulateConfigurationSettingsEP24ChiFeature2RequestObjectPK21ChiFeature2IdentifierP11ChiMetadata+0xf44>
   43c20: 42 fe ff b0  	adrp	x2, 0xc000 <_ZNK18ChiFeature2Generic31OnPopulateConfigurationSettingsEP24ChiFeature2RequestObjectPK21ChiFeature2IdentifierP11ChiMetadata+0xf34>
   43c40: cc 3f 00 b4  	cbz	x12, 0x44438 <_ZNK18ChiFeature2Generic31OnPopulateConfigurationSettingsEP24ChiFeature2RequestObjectPK21ChiFeature2IdentifierP11ChiMetadata+0x1828>
   43c4c: 61 3f 00 54  	b.ne	0x44438 <_ZNK18ChiFeature2Generic31OnPopulateConfigurationSettingsEP24ChiFeature2RequestObjectPK21ChiFeature2IdentifierP11ChiMetadata+0x1828>
   43c64: e1 8a 00 54  	b.ne	0x44dc0 <_ZNK18ChiFeature2Generic31OnPopulateConfigurationSettingsEP24ChiFeature2RequestObjectPK21ChiFeature2IdentifierP11ChiMetadata+0x21b0>
   43c74: c7 75 00 94  	bl	0x61390 <_ZNK15ChiFeature2Base18GetSensorModeIndexEPK21ChiFeature2IdentifierP11ChiMetadata@plt>
   43c98: c2 75 00 94  	bl	0x613a0 <_ZN8ChxUtils18FillTuningModeDataEP11ChiMetadata25ChiModeUsecaseSubModeTypejPjS3_S3_S3_@plt>
   43c9c: 13 01 00 b0  	adrp	x19, 0x64000 <_ZNK18ChiFeature2Generic31OnPopulateConfigurationSettingsEP24ChiFeature2RequestObjectPK21ChiFeature2IdentifierP11ChiMetadata+0x1110>
   43ca8: 91 3c 28 36  	tbz	w17, #5, 0x44438 <_ZNK18ChiFeature2Generic31OnPopulateConfigurationSettingsEP24ChiFeature2RequestObjectPK21ChiFeature2IdentifierP11ChiMetadata+0x1828>
   43cac: 08 01 00 b0  	adrp	x8, 0x64000 <_ZNK18ChiFeature2Generic31OnPopulateConfigurationSettingsEP24ChiFeature2RequestObjectPK21ChiFeature2IdentifierP11ChiMetadata+0x1120>
   43cbc: 81 02 00 54  	b.ne	0x43d0c <_ZNK18ChiFeature2Generic31OnPopulateConfigurationSettingsEP24ChiFeature2RequestObjectPK21ChiFeature2IdentifierP11ChiMetadata+0x10fc>
   43cc0: 7b fe ff b0  	adrp	x27, 0x10000 <_ZNK18ChiFeature2Generic31OnPopulateConfigurationSettingsEP24ChiFeature2RequestObjectPK21ChiFeature2IdentifierP11ChiMetadata+0xfe4>
   43cdc: 61 fe ff f0  	adrp	x1, 0x12000 <_ZNK18ChiFeature2Generic31OnPopulateConfigurationSettingsEP24ChiFeature2RequestObjectPK21ChiFeature2IdentifierP11ChiMetadata+0x1008>
   43ce0: 62 fe ff 90  	adrp	x2, 0xf000 <_ZNK18ChiFeature2Generic31OnPopulateConfigurationSettingsEP24ChiFeature2RequestObjectPK21ChiFeature2IdentifierP11ChiMetadata+0x1000>
   43ce4: 65 fe ff b0  	adrp	x5, 0x10000 <_ZNK18ChiFeature2Generic31OnPopulateConfigurationSettingsEP24ChiFeature2RequestObjectPK21ChiFeature2IdentifierP11ChiMetadata+0x1008>
   43d00: 1b 01 00 b0  	adrp	x27, 0x64000 <_ZNK18ChiFeature2Generic31OnPopulateConfigurationSettingsEP24ChiFeature2RequestObjectPK21ChiFeature2IdentifierP11ChiMetadata+0x1174>
   43d0c: 7a fe ff b0  	adrp	x26, 0x10000 <_ZNK18ChiFeature2Generic31OnPopulateConfigurationSettingsEP24ChiFeature2RequestObjectPK21ChiFeature2IdentifierP11ChiMetadata+0x1030>
   43d28: 61 fe ff b0  	adrp	x1, 0x10000 <_ZNK18ChiFeature2Generic31OnPopulateConfigurationSettingsEP24ChiFeature2RequestObjectPK21ChiFeature2IdentifierP11ChiMetadata+0x104c>
   43d30: 60 fe ff f0  	adrp	x0, 0x12000 <_ZNK18ChiFeature2Generic31OnPopulateConfigurationSettingsEP24ChiFeature2RequestObjectPK21ChiFeature2IdentifierP11ChiMetadata+0x105c>
   43d34: 63 fe ff b0  	adrp	x3, 0x10000 <_ZNK18ChiFeature2Generic31OnPopulateConfigurationSettingsEP24ChiFeature2RequestObjectPK21ChiFeature2IdentifierP11ChiMetadata+0x1058>
   43d38: 85 fe ff 90  	adrp	x5, 0x13000 <_ZNK18ChiFeature2Generic31OnPopulateConfigurationSettingsEP24ChiFeature2RequestObjectPK21ChiFeature2IdentifierP11ChiMetadata+0x1068>
   43d50: 10 75 00 94  	bl	0x61190 <_ZN6ChiLog9LogSystemEPKcS1_S1_S1_iS1_z@plt>
   43d58: b8 01 00 14  	b	0x44438 <_ZNK18ChiFeature2Generic31OnPopulateConfigurationSettingsEP24ChiFeature2RequestObjectPK21ChiFeature2IdentifierP11ChiMetadata+0x1828>
   43d60: 40 ce ff 54  	b.eq	0x43728 <_ZNK18ChiFeature2Generic31OnPopulateConfigurationSettingsEP24ChiFeature2RequestObjectPK21ChiFeature2IdentifierP11ChiMetadata+0xb18>
   43d64: c3 fe ff 17  	b	0x43870 <_ZNK18ChiFeature2Generic31OnPopulateConfigurationSettingsEP24ChiFeature2RequestObjectPK21ChiFeature2IdentifierP11ChiMetadata+0xc60>
   43d70: 10 01 00 b0  	adrp	x16, 0x64000 <_ZNK18ChiFeature2Generic31OnPopulateConfigurationSettingsEP24ChiFeature2RequestObjectPK21ChiFeature2IdentifierP11ChiMetadata+0x11e4>
   43d80: a1 7a 00 54  	b.ne	0x44cd4 <_ZNK18ChiFeature2Generic31OnPopulateConfigurationSettingsEP24ChiFeature2RequestObjectPK21ChiFeature2IdentifierP11ChiMetadata+0x20c4>
   43d98: 80 01 00 54  	b.eq	0x43dc8 <_ZNK18ChiFeature2Generic31OnPopulateConfigurationSettingsEP24ChiFeature2RequestObjectPK21ChiFeature2IdentifierP11ChiMetadata+0x11b8>
   43dac: c0 00 00 54  	b.eq	0x43dc4 <_ZNK18ChiFeature2Generic31OnPopulateConfigurationSettingsEP24ChiFeature2RequestObjectPK21ChiFeature2IdentifierP11ChiMetadata+0x11b4>
   43dbc: c1 fe ff 54  	b.ne	0x43d94 <_ZNK18ChiFeature2Generic31OnPopulateConfigurationSettingsEP24ChiFeature2RequestObjectPK21ChiFeature2IdentifierP11ChiMetadata+0x1184>
   43dcc: 11 01 00 b0  	adrp	x17, 0x64000 <_ZNK18ChiFeature2Generic31OnPopulateConfigurationSettingsEP24ChiFeature2RequestObjectPK21ChiFeature2IdentifierP11ChiMetadata+0x1240>
   43ddc: 81 78 00 54  	b.ne	0x44cec <_ZNK18ChiFeature2Generic31OnPopulateConfigurationSettingsEP24ChiFeature2RequestObjectPK21ChiFeature2IdentifierP11ChiMetadata+0x20dc>
   43dec: 69 75 00 94  	bl	0x61390 <_ZNK15ChiFeature2Base18GetSensorModeIndexEPK21ChiFeature2IdentifierP11ChiMetadata@plt>
   43dfc: 41 78 00 54  	b.ne	0x44d04 <_ZNK18ChiFeature2Generic31OnPopulateConfigurationSettingsEP24ChiFeature2RequestObjectPK21ChiFeature2IdentifierP11ChiMetadata+0x20f4>
   43e10: ec 74 00 94  	bl	0x611c0 <_ZNK24ChiFeature2RequestObject23GetUsecaseRequestObjectEv@plt>
   43e30: 61 0d 00 54  	b.ne	0x43fdc <_ZNK18ChiFeature2Generic31OnPopulateConfigurationSettingsEP24ChiFeature2RequestObjectPK21ChiFeature2IdentifierP11ChiMetadata+0x13cc>
   43e34: 08 01 00 b0  	adrp	x8, 0x64000 <_ZNK18ChiFeature2Generic31OnPopulateConfigurationSettingsEP24ChiFeature2RequestObjectPK21ChiFeature2IdentifierP11ChiMetadata+0x12a8>
   43e40: 88 07 00 37  	tbnz	w8, #0, 0x43f30 <_ZNK18ChiFeature2Generic31OnPopulateConfigurationSettingsEP24ChiFeature2RequestObjectPK21ChiFeature2IdentifierP11ChiMetadata+0x1320>
   43e4c: 63 00 00 14  	b	0x43fd8 <_ZNK18ChiFeature2Generic31OnPopulateConfigurationSettingsEP24ChiFeature2RequestObjectPK21ChiFeature2IdentifierP11ChiMetadata+0x13c8>
   43e50: 02 01 00 b0  	adrp	x2, 0x64000 <_ZNK18ChiFeature2Generic31OnPopulateConfigurationSettingsEP24ChiFeature2RequestObjectPK21ChiFeature2IdentifierP11ChiMetadata+0x12c4>
   43e60: c1 02 00 54  	b.ne	0x43eb8 <_ZNK18ChiFeature2Generic31OnPopulateConfigurationSettingsEP24ChiFeature2RequestObjectPK21ChiFeature2IdentifierP11ChiMetadata+0x12a8>
   43e64: 73 fe ff b0  	adrp	x19, 0x10000 <_ZNK18ChiFeature2Generic31OnPopulateConfigurationSettingsEP24ChiFeature2RequestObjectPK21ChiFeature2IdentifierP11ChiMetadata+0x1188>
   43e80: 61 fe ff f0  	adrp	x1, 0x12000 <_ZNK18ChiFeature2Generic31OnPopulateConfigurationSettingsEP24ChiFeature2RequestObjectPK21ChiFeature2IdentifierP11ChiMetadata+0x11ac>
   43e84: 62 fe ff b0  	adrp	x2, 0x10000 <_ZNK18ChiFeature2Generic31OnPopulateConfigurationSettingsEP24ChiFeature2RequestObjectPK21ChiFeature2IdentifierP11ChiMetadata+0x11a8>
   43e88: 65 fe ff b0  	adrp	x5, 0x10000 <_ZNK18ChiFeature2Generic31OnPopulateConfigurationSettingsEP24ChiFeature2RequestObjectPK21ChiFeature2IdentifierP11ChiMetadata+0x11ac>
   43eb8: 77 fe ff b0  	adrp	x23, 0x10000 <_ZNK18ChiFeature2Generic31OnPopulateConfigurationSettingsEP24ChiFeature2RequestObjectPK21ChiFeature2IdentifierP11ChiMetadata+0x11dc>
   43ed4: 61 fe ff f0  	adrp	x1, 0x12000 <_ZNK18ChiFeature2Generic31OnPopulateConfigurationSettingsEP24ChiFeature2RequestObjectPK21ChiFeature2IdentifierP11ChiMetadata+0x1200>
   43edc: 40 fe ff b0  	adrp	x0, 0xc000 <_ZNK18ChiFeature2Generic31OnPopulateConfigurationSettingsEP24ChiFeature2RequestObjectPK21ChiFeature2IdentifierP11ChiMetadata+0x11f0>
   43ee0: 63 fe ff b0  	adrp	x3, 0x10000 <_ZNK18ChiFeature2Generic31OnPopulateConfigurationSettingsEP24ChiFeature2RequestObjectPK21ChiFeature2IdentifierP11ChiMetadata+0x1204>
   43ee4: 45 fe ff 90  	adrp	x5, 0xb000 <_ZNK18ChiFeature2Generic31OnPopulateConfigurationSettingsEP24ChiFeature2RequestObjectPK21ChiFeature2IdentifierP11ChiMetadata+0x11f4>
   43f0c: a1 74 00 94  	bl	0x61190 <_ZN6ChiLog9LogSystemEPKcS1_S1_S1_iS1_z@plt>
   43f18: 24 fc ff 17  	b	0x42fa8 <_ZNK18ChiFeature2Generic31OnPopulateConfigurationSettingsEP24ChiFeature2RequestObjectPK21ChiFeature2IdentifierP11ChiMetadata+0x398>
   43f20: 06 49 00 37  	tbnz	w6, #0, 0x44840 <_ZNK18ChiFeature2Generic31OnPopulateConfigurationSettingsEP24ChiFeature2RequestObjectPK21ChiFeature2IdentifierP11ChiMetadata+0x1c30>
   43f2c: 1f fc ff 17  	b	0x42fa8 <_ZNK18ChiFeature2Generic31OnPopulateConfigurationSettingsEP24ChiFeature2RequestObjectPK21ChiFeature2IdentifierP11ChiMetadata+0x398>
   43f30: 0a 01 00 b0  	adrp	x10, 0x64000 <_ZNK18ChiFeature2Generic31OnPopulateConfigurationSettingsEP24ChiFeature2RequestObjectPK21ChiFeature2IdentifierP11ChiMetadata+0x13a4>
   43f40: 41 02 00 54  	b.ne	0x43f88 <_ZNK18ChiFeature2Generic31OnPopulateConfigurationSettingsEP24ChiFeature2RequestObjectPK21ChiFeature2IdentifierP11ChiMetadata+0x1378>
   43f44: 79 fe ff b0  	adrp	x25, 0x10000 <_ZNK18ChiFeature2Generic31OnPopulateConfigurationSettingsEP24ChiFeature2RequestObjectPK21ChiFeature2IdentifierP11ChiMetadata+0x1268>
   43f60: 61 fe ff f0  	adrp	x1, 0x12000 <_ZNK18ChiFeature2Generic31OnPopulateConfigurationSettingsEP24ChiFeature2RequestObjectPK21ChiFeature2IdentifierP11ChiMetadata+0x128c>
   43f64: 42 fe ff f0  	adrp	x2, 0xe000 <_ZNK18ChiFeature2Generic31OnPopulateConfigurationSettingsEP24ChiFeature2RequestObjectPK21ChiFeature2IdentifierP11ChiMetadata+0x1280>
   43f68: 65 fe ff b0  	adrp	x5, 0x10000 <_ZNK18ChiFeature2Generic31OnPopulateConfigurationSettingsEP24ChiFeature2RequestObjectPK21ChiFeature2IdentifierP11ChiMetadata+0x128c>
   43f88: 77 fe ff b0  	adrp	x23, 0x10000 <_ZNK18ChiFeature2Generic31OnPopulateConfigurationSettingsEP24ChiFeature2RequestObjectPK21ChiFeature2IdentifierP11ChiMetadata+0x12ac>
   43fa4: 61 fe ff f0  	adrp	x1, 0x12000 <_ZNK18ChiFeature2Generic31OnPopulateConfigurationSettingsEP24ChiFeature2RequestObjectPK21ChiFeature2IdentifierP11ChiMetadata+0x12d0>
   43fac: 40 fe ff b0  	adrp	x0, 0xc000 <_ZNK18ChiFeature2Generic31OnPopulateConfigurationSettingsEP24ChiFeature2RequestObjectPK21ChiFeature2IdentifierP11ChiMetadata+0x12c0>
   43fb0: 63 fe ff b0  	adrp	x3, 0x10000 <_ZNK18ChiFeature2Generic31OnPopulateConfigurationSettingsEP24ChiFeature2RequestObjectPK21ChiFeature2IdentifierP11ChiMetadata+0x12d4>
   43fb4: 65 fe ff f0  	adrp	x5, 0x12000 <_ZNK18ChiFeature2Generic31OnPopulateConfigurationSettingsEP24ChiFeature2RequestObjectPK21ChiFeature2IdentifierP11ChiMetadata+0x12e0>
   43fcc: 71 74 00 94  	bl	0x61190 <_ZN6ChiLog9LogSystemEPKcS1_S1_S1_iS1_z@plt>
   43fe0: 78 74 00 94  	bl	0x611c0 <_ZNK24ChiFeature2RequestObject23GetUsecaseRequestObjectEv@plt>
   43ffc: 41 21 00 54  	b.ne	0x44424 <_ZNK18ChiFeature2Generic31OnPopulateConfigurationSettingsEP24ChiFeature2RequestObjectPK21ChiFeature2IdentifierP11ChiMetadata+0x1814>
   44010: 02 01 00 90  	adrp	x2, 0x64000 <_ZNK18ChiFeature2Generic31OnPopulateConfigurationSettingsEP24ChiFeature2RequestObjectPK21ChiFeature2IdentifierP11ChiMetadata+0x1480>
   44024: 41 69 00 54  	b.ne	0x44d4c <_ZNK18ChiFeature2Generic31OnPopulateConfigurationSettingsEP24ChiFeature2RequestObjectPK21ChiFeature2IdentifierP11ChiMetadata+0x213c>
   44030: a9 01 00 34  	cbz	w9, 0x44064 <_ZNK18ChiFeature2Generic31OnPopulateConfigurationSettingsEP24ChiFeature2RequestObjectPK21ChiFeature2IdentifierP11ChiMetadata+0x1454>
   4404c: e0 00 00 54  	b.eq	0x44068 <_ZNK18ChiFeature2Generic31OnPopulateConfigurationSettingsEP24ChiFeature2RequestObjectPK21ChiFeature2IdentifierP11ChiMetadata+0x1458>
   44058: 41 ff ff 54  	b.ne	0x44040 <_ZNK18ChiFeature2Generic31OnPopulateConfigurationSettingsEP24ChiFeature2RequestObjectPK21ChiFeature2IdentifierP11ChiMetadata+0x1430>
   44060: 02 00 00 14  	b	0x44068 <_ZNK18ChiFeature2Generic31OnPopulateConfigurationSettingsEP24ChiFeature2RequestObjectPK21ChiFeature2IdentifierP11ChiMetadata+0x1458>
   4407c: 51 74 00 94  	bl	0x611c0 <_ZNK24ChiFeature2RequestObject23GetUsecaseRequestObjectEv@plt>
   440a4: c0 02 00 54  	b.eq	0x440fc <_ZNK18ChiFeature2Generic31OnPopulateConfigurationSettingsEP24ChiFeature2RequestObjectPK21ChiFeature2IdentifierP11ChiMetadata+0x14ec>
   440b0: 8a 69 00 b5  	cbnz	x10, 0x44de0 <_ZNK18ChiFeature2Generic31OnPopulateConfigurationSettingsEP24ChiFeature2RequestObjectPK21ChiFeature2IdentifierP11ChiMetadata+0x21d0>
   440d8: 2b 01 00 54  	b.lt	0x440fc <_ZNK18ChiFeature2Generic31OnPopulateConfigurationSettingsEP24ChiFeature2RequestObjectPK21ChiFeature2IdentifierP11ChiMetadata+0x14ec>
   440e4: c1 67 00 54  	b.ne	0x44ddc <_ZNK18ChiFeature2Generic31OnPopulateConfigurationSettingsEP24ChiFeature2RequestObjectPK21ChiFeature2IdentifierP11ChiMetadata+0x21cc>
   44128: 40 04 00 54  	b.eq	0x441b0 <_ZNK18ChiFeature2Generic31OnPopulateConfigurationSettingsEP24ChiFeature2RequestObjectPK21ChiFeature2IdentifierP11ChiMetadata+0x15a0>
   44148: 02 65 00 54  	b.hs	0x44de8 <_ZNK18ChiFeature2Generic31OnPopulateConfigurationSettingsEP24ChiFeature2RequestObjectPK21ChiFeature2IdentifierP11ChiMetadata+0x21d8>
   44178: cb 01 00 54  	b.lt	0x441b0 <_ZNK18ChiFeature2Generic31OnPopulateConfigurationSettingsEP24ChiFeature2RequestObjectPK21ChiFeature2IdentifierP11ChiMetadata+0x15a0>
   44190: 61 62 00 54  	b.ne	0x44ddc <_ZNK18ChiFeature2Generic31OnPopulateConfigurationSettingsEP24ChiFeature2RequestObjectPK21ChiFeature2IdentifierP11ChiMetadata+0x21cc>
   441b4: 0c 01 00 90  	adrp	x12, 0x64000 <_ZNK18ChiFeature2Generic31OnPopulateConfigurationSettingsEP24ChiFeature2RequestObjectPK21ChiFeature2IdentifierP11ChiMetadata+0x1624>
   441c4: 01 5d 00 54  	b.ne	0x44d64 <_ZNK18ChiFeature2Generic31OnPopulateConfigurationSettingsEP24ChiFeature2RequestObjectPK21ChiFeature2IdentifierP11ChiMetadata+0x2154>
   441e4: e1 5c 00 54  	b.ne	0x44d80 <_ZNK18ChiFeature2Generic31OnPopulateConfigurationSettingsEP24ChiFeature2RequestObjectPK21ChiFeature2IdentifierP11ChiMetadata+0x2170>
   4423c: 41 fe ff b0  	adrp	x1, 0xd000 <_ZNK18ChiFeature2Generic31OnPopulateConfigurationSettingsEP24ChiFeature2RequestObjectPK21ChiFeature2IdentifierP11ChiMetadata+0x1550>
   44240: 62 fe ff 90  	adrp	x2, 0x10000 <_ZNK18ChiFeature2Generic31OnPopulateConfigurationSettingsEP24ChiFeature2RequestObjectPK21ChiFeature2IdentifierP11ChiMetadata+0x1560>
   4425c: 93 02 00 b4  	cbz	x19, 0x442ac <_ZNK18ChiFeature2Generic31OnPopulateConfigurationSettingsEP24ChiFeature2RequestObjectPK21ChiFeature2IdentifierP11ChiMetadata+0x169c>
   44284: 41 fe ff b0  	adrp	x1, 0xd000 <_ZNK18ChiFeature2Generic31OnPopulateConfigurationSettingsEP24ChiFeature2RequestObjectPK21ChiFeature2IdentifierP11ChiMetadata+0x1598>
   44288: 62 fe ff 90  	adrp	x2, 0x10000 <_ZNK18ChiFeature2Generic31OnPopulateConfigurationSettingsEP24ChiFeature2RequestObjectPK21ChiFeature2IdentifierP11ChiMetadata+0x15a8>
   442a8: 02 00 00 14  	b	0x442b0 <_ZNK18ChiFeature2Generic31OnPopulateConfigurationSettingsEP24ChiFeature2RequestObjectPK21ChiFeature2IdentifierP11ChiMetadata+0x16a0>
   442cc: 61 fe ff b0  	adrp	x1, 0x11000 <_ZNK18ChiFeature2Generic31OnPopulateConfigurationSettingsEP24ChiFeature2RequestObjectPK21ChiFeature2IdentifierP11ChiMetadata+0x15f0>
   442d0: 42 fe ff 90  	adrp	x2, 0xc000 <_ZNK18ChiFeature2Generic31OnPopulateConfigurationSettingsEP24ChiFeature2RequestObjectPK21ChiFeature2IdentifierP11ChiMetadata+0x15e0>
   442ec: 47 07 00 b4  	cbz	x7, 0x443d4 <_ZNK18ChiFeature2Generic31OnPopulateConfigurationSettingsEP24ChiFeature2RequestObjectPK21ChiFeature2IdentifierP11ChiMetadata+0x17c4>
   442f8: e1 06 00 54  	b.ne	0x443d4 <_ZNK18ChiFeature2Generic31OnPopulateConfigurationSettingsEP24ChiFeature2RequestObjectPK21ChiFeature2IdentifierP11ChiMetadata+0x17c4>
   44320: 20 74 00 94  	bl	0x613a0 <_ZN8ChxUtils18FillTuningModeDataEP11ChiMetadata25ChiModeUsecaseSubModeTypejPjS3_S3_S3_@plt>
   44324: 02 01 00 90  	adrp	x2, 0x64000 <_ZNK18ChiFeature2Generic31OnPopulateConfigurationSettingsEP24ChiFeature2RequestObjectPK21ChiFeature2IdentifierP11ChiMetadata+0x1794>
   44330: 2c 05 28 36  	tbz	w12, #5, 0x443d4 <_ZNK18ChiFeature2Generic31OnPopulateConfigurationSettingsEP24ChiFeature2RequestObjectPK21ChiFeature2IdentifierP11ChiMetadata+0x17c4>
   44334: 01 01 00 90  	adrp	x1, 0x64000 <_ZNK18ChiFeature2Generic31OnPopulateConfigurationSettingsEP24ChiFeature2RequestObjectPK21ChiFeature2IdentifierP11ChiMetadata+0x17a4>
   44344: 41 02 00 54  	b.ne	0x4438c <_ZNK18ChiFeature2Generic31OnPopulateConfigurationSettingsEP24ChiFeature2RequestObjectPK21ChiFeature2IdentifierP11ChiMetadata+0x177c>
   44348: 7a fe ff 90  	adrp	x26, 0x10000 <_ZNK18ChiFeature2Generic31OnPopulateConfigurationSettingsEP24ChiFeature2RequestObjectPK21ChiFeature2IdentifierP11ChiMetadata+0x1668>
   44364: 61 fe ff d0  	adrp	x1, 0x12000 <_ZNK18ChiFeature2Generic31OnPopulateConfigurationSettingsEP24ChiFeature2RequestObjectPK21ChiFeature2IdentifierP11ChiMetadata+0x168c>
   44368: 42 fe ff f0  	adrp	x2, 0xf000 <_ZNK18ChiFeature2Generic31OnPopulateConfigurationSettingsEP24ChiFeature2RequestObjectPK21ChiFeature2IdentifierP11ChiMetadata+0x1684>
   4436c: 65 fe ff 90  	adrp	x5, 0x10000 <_ZNK18ChiFeature2Generic31OnPopulateConfigurationSettingsEP24ChiFeature2RequestObjectPK21ChiFeature2IdentifierP11ChiMetadata+0x168c>
   4438c: 73 fe ff 90  	adrp	x19, 0x10000 <_ZNK18ChiFeature2Generic31OnPopulateConfigurationSettingsEP24ChiFeature2RequestObjectPK21ChiFeature2IdentifierP11ChiMetadata+0x16ac>
   443a8: 61 fe ff 90  	adrp	x1, 0x10000 <_ZNK18ChiFeature2Generic31OnPopulateConfigurationSettingsEP24ChiFeature2RequestObjectPK21ChiFeature2IdentifierP11ChiMetadata+0x16c8>
   443b0: 60 fe ff d0  	adrp	x0, 0x12000 <_ZNK18ChiFeature2Generic31OnPopulateConfigurationSettingsEP24ChiFeature2RequestObjectPK21ChiFeature2IdentifierP11ChiMetadata+0x16d8>
   443b4: 63 fe ff 90  	adrp	x3, 0x10000 <_ZNK18ChiFeature2Generic31OnPopulateConfigurationSettingsEP24ChiFeature2RequestObjectPK21ChiFeature2IdentifierP11ChiMetadata+0x16d4>
   443b8: 65 fe ff f0  	adrp	x5, 0x13000 <_ZNK18ChiFeature2Generic31OnPopulateConfigurationSettingsEP24ChiFeature2RequestObjectPK21ChiFeature2IdentifierP11ChiMetadata+0x16e4>
   443d0: 70 73 00 94  	bl	0x61190 <_ZN6ChiLog9LogSystemEPKcS1_S1_S1_iS1_z@plt>
   443d8: 40 01 00 b4  	cbz	x0, 0x44400 <_ZNK18ChiFeature2Generic31OnPopulateConfigurationSettingsEP24ChiFeature2RequestObjectPK21ChiFeature2IdentifierP11ChiMetadata+0x17f0>
   443f8: 2a 4f 00 b5  	cbnz	x10, 0x44ddc <_ZNK18ChiFeature2Generic31OnPopulateConfigurationSettingsEP24ChiFeature2RequestObjectPK21ChiFeature2IdentifierP11ChiMetadata+0x21cc>
   44404: 00 01 00 b4  	cbz	x0, 0x44424 <_ZNK18ChiFeature2Generic31OnPopulateConfigurationSettingsEP24ChiFeature2RequestObjectPK21ChiFeature2IdentifierP11ChiMetadata+0x1814>
   4441c: 09 4e 00 b5  	cbnz	x9, 0x44ddc <_ZNK18ChiFeature2Generic31OnPopulateConfigurationSettingsEP24ChiFeature2RequestObjectPK21ChiFeature2IdentifierP11ChiMetadata+0x21cc>
   4442c: cd 0a 00 34  	cbz	w13, 0x44584 <_ZNK18ChiFeature2Generic31OnPopulateConfigurationSettingsEP24ChiFeature2RequestObjectPK21ChiFeature2IdentifierP11ChiMetadata+0x1974>
   44430: 1b 01 00 90  	adrp	x27, 0x64000 <_ZNK18ChiFeature2Generic31OnPopulateConfigurationSettingsEP24ChiFeature2RequestObjectPK21ChiFeature2IdentifierP11ChiMetadata+0x18a0>
   44444: 81 3f 00 54  	b.ne	0x44c34 <_ZNK18ChiFeature2Generic31OnPopulateConfigurationSettingsEP24ChiFeature2RequestObjectPK21ChiFeature2IdentifierP11ChiMetadata+0x2024>
   44448: b4 56 ff b4  	cbz	x20, 0x42f1c <_ZNK18ChiFeature2Generic31OnPopulateConfigurationSettingsEP24ChiFeature2RequestObjectPK21ChiFeature2IdentifierP11ChiMetadata+0x30c>
   44454: 42 56 07 36  	tbz	w2, #0, 0x42f1c <_ZNK18ChiFeature2Generic31OnPopulateConfigurationSettingsEP24ChiFeature2RequestObjectPK21ChiFeature2IdentifierP11ChiMetadata+0x30c>
   4445c: 80 03 00 b4  	cbz	x0, 0x444cc <_ZNK18ChiFeature2Generic31OnPopulateConfigurationSettingsEP24ChiFeature2RequestObjectPK21ChiFeature2IdentifierP11ChiMetadata+0x18bc>
   4447c: 61 fe ff 90  	adrp	x1, 0x10000 <_ZNK18ChiFeature2Generic31OnPopulateConfigurationSettingsEP24ChiFeature2RequestObjectPK21ChiFeature2IdentifierP11ChiMetadata+0x179c>
   44480: 42 fe ff 90  	adrp	x2, 0xc000 <_ZNK18ChiFeature2Generic31OnPopulateConfigurationSettingsEP24ChiFeature2RequestObjectPK21ChiFeature2IdentifierP11ChiMetadata+0x1790>
   44498: 33 11 00 b4  	cbz	x19, 0x446bc <_ZNK18ChiFeature2Generic31OnPopulateConfigurationSettingsEP24ChiFeature2RequestObjectPK21ChiFeature2IdentifierP11ChiMetadata+0x1aac>
   444ac: 81 53 ff 54  	b.ne	0x42f1c <_ZNK18ChiFeature2Generic31OnPopulateConfigurationSettingsEP24ChiFeature2RequestObjectPK21ChiFeature2IdentifierP11ChiMetadata+0x30c>
   444b4: 20 22 00 b4  	cbz	x0, 0x448f8 <_ZNK18ChiFeature2Generic31OnPopulateConfigurationSettingsEP24ChiFeature2RequestObjectPK21ChiFeature2IdentifierP11ChiMetadata+0x1ce8>
   444c8: 95 fa ff 17  	b	0x42f1c <_ZNK18ChiFeature2Generic31OnPopulateConfigurationSettingsEP24ChiFeature2RequestObjectPK21ChiFeature2IdentifierP11ChiMetadata+0x30c>
   444cc: 0d 01 00 90  	adrp	x13, 0x64000 <_ZNK18ChiFeature2Generic31OnPopulateConfigurationSettingsEP24ChiFeature2RequestObjectPK21ChiFeature2IdentifierP11ChiMetadata+0x193c>
   444d8: 23 52 07 36  	tbz	w3, #0, 0x42f1c <_ZNK18ChiFeature2Generic31OnPopulateConfigurationSettingsEP24ChiFeature2RequestObjectPK21ChiFeature2IdentifierP11ChiMetadata+0x30c>
   444dc: 0e 01 00 90  	adrp	x14, 0x64000 <_ZNK18ChiFeature2Generic31OnPopulateConfigurationSettingsEP24ChiFeature2RequestObjectPK21ChiFeature2IdentifierP11ChiMetadata+0x194c>
   444ec: 61 02 00 54  	b.ne	0x44538 <_ZNK18ChiFeature2Generic31OnPopulateConfigurationSettingsEP24ChiFeature2RequestObjectPK21ChiFeature2IdentifierP11ChiMetadata+0x1928>
   444f0: 7a fe ff 90  	adrp	x26, 0x10000 <_ZNK18ChiFeature2Generic31OnPopulateConfigurationSettingsEP24ChiFeature2RequestObjectPK21ChiFeature2IdentifierP11ChiMetadata+0x1810>
   4450c: 61 fe ff d0  	adrp	x1, 0x12000 <_ZNK18ChiFeature2Generic31OnPopulateConfigurationSettingsEP24ChiFeature2RequestObjectPK21ChiFeature2IdentifierP11ChiMetadata+0x1834>
   44510: 62 fe ff 90  	adrp	x2, 0x10000 <_ZNK18ChiFeature2Generic31OnPopulateConfigurationSettingsEP24ChiFeature2RequestObjectPK21ChiFeature2IdentifierP11ChiMetadata+0x1830>
   44514: 65 fe ff 90  	adrp	x5, 0x10000 <_ZNK18ChiFeature2Generic31OnPopulateConfigurationSettingsEP24ChiFeature2RequestObjectPK21ChiFeature2IdentifierP11ChiMetadata+0x1834>
   44538: 77 fe ff 90  	adrp	x23, 0x10000 <_ZNK18ChiFeature2Generic31OnPopulateConfigurationSettingsEP24ChiFeature2RequestObjectPK21ChiFeature2IdentifierP11ChiMetadata+0x1858>
   44554: 61 fe ff d0  	adrp	x1, 0x12000 <_ZNK18ChiFeature2Generic31OnPopulateConfigurationSettingsEP24ChiFeature2RequestObjectPK21ChiFeature2IdentifierP11ChiMetadata+0x187c>
   4455c: 40 fe ff 90  	adrp	x0, 0xc000 <_ZNK18ChiFeature2Generic31OnPopulateConfigurationSettingsEP24ChiFeature2RequestObjectPK21ChiFeature2IdentifierP11ChiMetadata+0x186c>
   44560: 63 fe ff 90  	adrp	x3, 0x10000 <_ZNK18ChiFeature2Generic31OnPopulateConfigurationSettingsEP24ChiFeature2RequestObjectPK21ChiFeature2IdentifierP11ChiMetadata+0x1880>
   44564: 25 fe ff f0  	adrp	x5, 0xb000 <_ZNK18ChiFeature2Generic31OnPopulateConfigurationSettingsEP24ChiFeature2RequestObjectPK21ChiFeature2IdentifierP11ChiMetadata+0x1870>
   4457c: 05 73 00 94  	bl	0x61190 <_ZN6ChiLog9LogSystemEPKcS1_S1_S1_iS1_z@plt>
   44580: 67 fa ff 17  	b	0x42f1c <_ZNK18ChiFeature2Generic31OnPopulateConfigurationSettingsEP24ChiFeature2RequestObjectPK21ChiFeature2IdentifierP11ChiMetadata+0x30c>
   44588: 26 10 00 b4  	cbz	x6, 0x4478c <_ZNK18ChiFeature2Generic31OnPopulateConfigurationSettingsEP24ChiFeature2RequestObjectPK21ChiFeature2IdentifierP11ChiMetadata+0x1b7c>
   44590: c0 1d 00 b4  	cbz	x0, 0x44948 <_ZNK18ChiFeature2Generic31OnPopulateConfigurationSettingsEP24ChiFeature2RequestObjectPK21ChiFeature2IdentifierP11ChiMetadata+0x1d38>
   44594: 41 fe ff d0  	adrp	x1, 0xe000 <_ZNK18ChiFeature2Generic31OnPopulateConfigurationSettingsEP24ChiFeature2RequestObjectPK21ChiFeature2IdentifierP11ChiMetadata+0x18ac>
   44598: 42 fe ff f0  	adrp	x2, 0xf000 <_ZNK18ChiFeature2Generic31OnPopulateConfigurationSettingsEP24ChiFeature2RequestObjectPK21ChiFeature2IdentifierP11ChiMetadata+0x18b4>
   445b0: 94 73 00 94  	bl	0x61400 <_ZN19ChiFeature2DataPool6GetTagEPKcS1_jRjPj@plt>
   445b4: 18 01 00 90  	adrp	x24, 0x64000 <_ZNK18ChiFeature2Generic31OnPopulateConfigurationSettingsEP24ChiFeature2RequestObjectPK21ChiFeature2IdentifierP11ChiMetadata+0x1a24>
   445c0: 20 27 00 b4  	cbz	x0, 0x44aa4 <_ZNK18ChiFeature2Generic31OnPopulateConfigurationSettingsEP24ChiFeature2RequestObjectPK21ChiFeature2IdentifierP11ChiMetadata+0x1e94>
   445c8: ca 06 28 36  	tbz	w10, #5, 0x446a0 <_ZNK18ChiFeature2Generic31OnPopulateConfigurationSettingsEP24ChiFeature2RequestObjectPK21ChiFeature2IdentifierP11ChiMetadata+0x1a90>
   445cc: 04 01 00 90  	adrp	x4, 0x64000 <_ZNK18ChiFeature2Generic31OnPopulateConfigurationSettingsEP24ChiFeature2RequestObjectPK21ChiFeature2IdentifierP11ChiMetadata+0x1a3c>
   445dc: 21 03 00 54  	b.ne	0x44640 <_ZNK18ChiFeature2Generic31OnPopulateConfigurationSettingsEP24ChiFeature2RequestObjectPK21ChiFeature2IdentifierP11ChiMetadata+0x1a30>
   445e0: 7a fe ff 90  	adrp	x26, 0x10000 <_ZNK18ChiFeature2Generic31OnPopulateConfigurationSettingsEP24ChiFeature2RequestObjectPK21ChiFeature2IdentifierP11ChiMetadata+0x1900>
   44604: 61 fe ff d0  	adrp	x1, 0x12000 <_ZNK18ChiFeature2Generic31OnPopulateConfigurationSettingsEP24ChiFeature2RequestObjectPK21ChiFeature2IdentifierP11ChiMetadata+0x192c>
   44608: 42 fe ff b0  	adrp	x2, 0xd000 <_ZNK18ChiFeature2Generic31OnPopulateConfigurationSettingsEP24ChiFeature2RequestObjectPK21ChiFeature2IdentifierP11ChiMetadata+0x191c>
   4460c: 65 fe ff 90  	adrp	x5, 0x10000 <_ZNK18ChiFeature2Generic31OnPopulateConfigurationSettingsEP24ChiFeature2RequestObjectPK21ChiFeature2IdentifierP11ChiMetadata+0x192c>
   44640: 77 fe ff 90  	adrp	x23, 0x10000 <_ZNK18ChiFeature2Generic31OnPopulateConfigurationSettingsEP24ChiFeature2RequestObjectPK21ChiFeature2IdentifierP11ChiMetadata+0x1960>
   44668: 60 fe ff d0  	adrp	x0, 0x12000 <_ZNK18ChiFeature2Generic31OnPopulateConfigurationSettingsEP24ChiFeature2RequestObjectPK21ChiFeature2IdentifierP11ChiMetadata+0x1990>
   4466c: 61 fe ff 90  	adrp	x1, 0x10000 <_ZNK18ChiFeature2Generic31OnPopulateConfigurationSettingsEP24ChiFeature2RequestObjectPK21ChiFeature2IdentifierP11ChiMetadata+0x198c>
   44670: 63 fe ff 90  	adrp	x3, 0x10000 <_ZNK18ChiFeature2Generic31OnPopulateConfigurationSettingsEP24ChiFeature2RequestObjectPK21ChiFeature2IdentifierP11ChiMetadata+0x1990>
   44674: 25 fe ff f0  	adrp	x5, 0xb000 <_ZNK18ChiFeature2Generic31OnPopulateConfigurationSettingsEP24ChiFeature2RequestObjectPK21ChiFeature2IdentifierP11ChiMetadata+0x1980>
   4469c: bd 72 00 94  	bl	0x61190 <_ZN6ChiLog9LogSystemEPKcS1_S1_S1_iS1_z@plt>
   446b4: 57 73 00 94  	bl	0x61410 <_ZN19ChiMcxRoiTranslator15ApplyPixelShiftEjjR11ChiMetadata12ChiRoiMPoint@plt>
   446b8: 5e ff ff 17  	b	0x44430 <_ZNK18ChiFeature2Generic31OnPopulateConfigurationSettingsEP24ChiFeature2RequestObjectPK21ChiFeature2IdentifierP11ChiMetadata+0x1820>
   446bc: 19 01 00 90  	adrp	x25, 0x64000 <_ZNK18ChiFeature2Generic31OnPopulateConfigurationSettingsEP24ChiFeature2RequestObjectPK21ChiFeature2IdentifierP11ChiMetadata+0x1b2c>
   446c8: bc 42 2f 36  	tbz	w28, #5, 0x42f1c <_ZNK18ChiFeature2Generic31OnPopulateConfigurationSettingsEP24ChiFeature2RequestObjectPK21ChiFeature2IdentifierP11ChiMetadata+0x30c>
   446cc: 0c 01 00 90  	adrp	x12, 0x64000 <_ZNK18ChiFeature2Generic31OnPopulateConfigurationSettingsEP24ChiFeature2RequestObjectPK21ChiFeature2IdentifierP11ChiMetadata+0x1b3c>
   446dc: 41 02 00 54  	b.ne	0x44724 <_ZNK18ChiFeature2Generic31OnPopulateConfigurationSettingsEP24ChiFeature2RequestObjectPK21ChiFeature2IdentifierP11ChiMetadata+0x1b14>
   446e0: 73 fe ff 90  	adrp	x19, 0x10000 <_ZNK18ChiFeature2Generic31OnPopulateConfigurationSettingsEP24ChiFeature2RequestObjectPK21ChiFeature2IdentifierP11ChiMetadata+0x1a00>
   446fc: 61 fe ff d0  	adrp	x1, 0x12000 <_ZNK18ChiFeature2Generic31OnPopulateConfigurationSettingsEP24ChiFeature2RequestObjectPK21ChiFeature2IdentifierP11ChiMetadata+0x1a24>
   44700: 42 fe ff 90  	adrp	x2, 0xc000 <_ZNK18ChiFeature2Generic31OnPopulateConfigurationSettingsEP24ChiFeature2RequestObjectPK21ChiFeature2IdentifierP11ChiMetadata+0x1a10>
   44704: 65 fe ff 90  	adrp	x5, 0x10000 <_ZNK18ChiFeature2Generic31OnPopulateConfigurationSettingsEP24ChiFeature2RequestObjectPK21ChiFeature2IdentifierP11ChiMetadata+0x1a24>
   44724: 7b fe ff 90  	adrp	x27, 0x10000 <_ZNK18ChiFeature2Generic31OnPopulateConfigurationSettingsEP24ChiFeature2RequestObjectPK21ChiFeature2IdentifierP11ChiMetadata+0x1a44>
   44740: 61 fe ff 90  	adrp	x1, 0x10000 <_ZNK18ChiFeature2Generic31OnPopulateConfigurationSettingsEP24ChiFeature2RequestObjectPK21ChiFeature2IdentifierP11ChiMetadata+0x1a60>
   44748: 60 fe ff d0  	adrp	x0, 0x12000 <_ZNK18ChiFeature2Generic31OnPopulateConfigurationSettingsEP24ChiFeature2RequestObjectPK21ChiFeature2IdentifierP11ChiMetadata+0x1a70>
   4474c: 63 fe ff 90  	adrp	x3, 0x10000 <_ZNK18ChiFeature2Generic31OnPopulateConfigurationSettingsEP24ChiFeature2RequestObjectPK21ChiFeature2IdentifierP11ChiMetadata+0x1a6c>
   44750: 45 fe ff b0  	adrp	x5, 0xd000 <_ZNK18ChiFeature2Generic31OnPopulateConfigurationSettingsEP24ChiFeature2RequestObjectPK21ChiFeature2IdentifierP11ChiMetadata+0x1a64>
   44768: 8a 72 00 94  	bl	0x61190 <_ZN6ChiLog9LogSystemEPKcS1_S1_S1_iS1_z@plt>
   4476c: 1b 01 00 90  	adrp	x27, 0x64000 <_ZNK18ChiFeature2Generic31OnPopulateConfigurationSettingsEP24ChiFeature2RequestObjectPK21ChiFeature2IdentifierP11ChiMetadata+0x1bdc>
   44774: ea f9 ff 17  	b	0x42f1c <_ZNK18ChiFeature2Generic31OnPopulateConfigurationSettingsEP24ChiFeature2RequestObjectPK21ChiFeature2IdentifierP11ChiMetadata+0x30c>
   4477c: fb 13 00 37  	tbnz	w27, #0, 0x449f8 <_ZNK18ChiFeature2Generic31OnPopulateConfigurationSettingsEP24ChiFeature2RequestObjectPK21ChiFeature2IdentifierP11ChiMetadata+0x1de8>
   44788: 08 fa ff 17  	b	0x42fa8 <_ZNK18ChiFeature2Generic31OnPopulateConfigurationSettingsEP24ChiFeature2RequestObjectPK21ChiFeature2IdentifierP11ChiMetadata+0x398>
   4478c: 07 01 00 90  	adrp	x7, 0x64000 <_ZNK18ChiFeature2Generic31OnPopulateConfigurationSettingsEP24ChiFeature2RequestObjectPK21ChiFeature2IdentifierP11ChiMetadata+0x1bfc>
   44798: d0 e4 07 36  	tbz	w16, #0, 0x44430 <_ZNK18ChiFeature2Generic31OnPopulateConfigurationSettingsEP24ChiFeature2RequestObjectPK21ChiFeature2IdentifierP11ChiMetadata+0x1820>
   4479c: 00 01 00 90  	adrp	x0, 0x64000 <_ZNK18ChiFeature2Generic31OnPopulateConfigurationSettingsEP24ChiFeature2RequestObjectPK21ChiFeature2IdentifierP11ChiMetadata+0x1c0c>
   447ac: 61 02 00 54  	b.ne	0x447f8 <_ZNK18ChiFeature2Generic31OnPopulateConfigurationSettingsEP24ChiFeature2RequestObjectPK21ChiFeature2IdentifierP11ChiMetadata+0x1be8>
   447b0: 7a fe ff 90  	adrp	x26, 0x10000 <_ZNK18ChiFeature2Generic31OnPopulateConfigurationSettingsEP24ChiFeature2RequestObjectPK21ChiFeature2IdentifierP11ChiMetadata+0x1ad0>
   447cc: 61 fe ff d0  	adrp	x1, 0x12000 <_ZNK18ChiFeature2Generic31OnPopulateConfigurationSettingsEP24ChiFeature2RequestObjectPK21ChiFeature2IdentifierP11ChiMetadata+0x1af4>
   447d0: 62 fe ff d0  	adrp	x2, 0x12000 <_ZNK18ChiFeature2Generic31OnPopulateConfigurationSettingsEP24ChiFeature2RequestObjectPK21ChiFeature2IdentifierP11ChiMetadata+0x1af8>
   447d4: 65 fe ff 90  	adrp	x5, 0x10000 <_ZNK18ChiFeature2Generic31OnPopulateConfigurationSettingsEP24ChiFeature2RequestObjectPK21ChiFeature2IdentifierP11ChiMetadata+0x1af4>
   447f8: 77 fe ff 90  	adrp	x23, 0x10000 <_ZNK18ChiFeature2Generic31OnPopulateConfigurationSettingsEP24ChiFeature2RequestObjectPK21ChiFeature2IdentifierP11ChiMetadata+0x1b18>
   44814: 61 fe ff d0  	adrp	x1, 0x12000 <_ZNK18ChiFeature2Generic31OnPopulateConfigurationSettingsEP24ChiFeature2RequestObjectPK21ChiFeature2IdentifierP11ChiMetadata+0x1b3c>
   4481c: 40 fe ff 90  	adrp	x0, 0xc000 <_ZNK18ChiFeature2Generic31OnPopulateConfigurationSettingsEP24ChiFeature2RequestObjectPK21ChiFeature2IdentifierP11ChiMetadata+0x1b2c>
   44820: 63 fe ff 90  	adrp	x3, 0x10000 <_ZNK18ChiFeature2Generic31OnPopulateConfigurationSettingsEP24ChiFeature2RequestObjectPK21ChiFeature2IdentifierP11ChiMetadata+0x1b40>
   44824: 45 fe ff f0  	adrp	x5, 0xf000 <_ZNK18ChiFeature2Generic31OnPopulateConfigurationSettingsEP24ChiFeature2RequestObjectPK21ChiFeature2IdentifierP11ChiMetadata+0x1b40>
   4483c: c2 00 00 14  	b	0x44b44 <_ZNK18ChiFeature2Generic31OnPopulateConfigurationSettingsEP24ChiFeature2RequestObjectPK21ChiFeature2IdentifierP11ChiMetadata+0x1f34>
   44840: 15 01 00 90  	adrp	x21, 0x64000 <_ZNK18ChiFeature2Generic31OnPopulateConfigurationSettingsEP24ChiFeature2RequestObjectPK21ChiFeature2IdentifierP11ChiMetadata+0x1cb0>
   44844: 1b 01 00 90  	adrp	x27, 0x64000 <_ZNK18ChiFeature2Generic31OnPopulateConfigurationSettingsEP24ChiFeature2RequestObjectPK21ChiFeature2IdentifierP11ChiMetadata+0x1cb4>
   44858: 41 02 00 54  	b.ne	0x448a0 <_ZNK18ChiFeature2Generic31OnPopulateConfigurationSettingsEP24ChiFeature2RequestObjectPK21ChiFeature2IdentifierP11ChiMetadata+0x1c90>
   4485c: 73 fe ff 90  	adrp	x19, 0x10000 <_ZNK18ChiFeature2Generic31OnPopulateConfigurationSettingsEP24ChiFeature2RequestObjectPK21ChiFeature2IdentifierP11ChiMetadata+0x1b7c>
   44878: 61 fe ff d0  	adrp	x1, 0x12000 <_ZNK18ChiFeature2Generic31OnPopulateConfigurationSettingsEP24ChiFeature2RequestObjectPK21ChiFeature2IdentifierP11ChiMetadata+0x1ba0>
   4487c: 62 fe ff b0  	adrp	x2, 0x11000 <_ZNK18ChiFeature2Generic31OnPopulateConfigurationSettingsEP24ChiFeature2RequestObjectPK21ChiFeature2IdentifierP11ChiMetadata+0x1ba0>
   44880: 65 fe ff 90  	adrp	x5, 0x10000 <_ZNK18ChiFeature2Generic31OnPopulateConfigurationSettingsEP24ChiFeature2RequestObjectPK21ChiFeature2IdentifierP11ChiMetadata+0x1ba0>
   448a0: 7a fe ff 90  	adrp	x26, 0x10000 <_ZNK18ChiFeature2Generic31OnPopulateConfigurationSettingsEP24ChiFeature2RequestObjectPK21ChiFeature2IdentifierP11ChiMetadata+0x1bc0>
   448bc: 61 fe ff d0  	adrp	x1, 0x12000 <_ZNK18ChiFeature2Generic31OnPopulateConfigurationSettingsEP24ChiFeature2RequestObjectPK21ChiFeature2IdentifierP11ChiMetadata+0x1be4>
   448c4: 40 fe ff 90  	adrp	x0, 0xc000 <_ZNK18ChiFeature2Generic31OnPopulateConfigurationSettingsEP24ChiFeature2RequestObjectPK21ChiFeature2IdentifierP11ChiMetadata+0x1bd4>
   448c8: 63 fe ff 90  	adrp	x3, 0x10000 <_ZNK18ChiFeature2Generic31OnPopulateConfigurationSettingsEP24ChiFeature2RequestObjectPK21ChiFeature2IdentifierP11ChiMetadata+0x1be8>
   448cc: 65 fe ff d0  	adrp	x5, 0x12000 <_ZNK18ChiFeature2Generic31OnPopulateConfigurationSettingsEP24ChiFeature2RequestObjectPK21ChiFeature2IdentifierP11ChiMetadata+0x1bf4>
   448e4: 2b 72 00 94  	bl	0x61190 <_ZN6ChiLog9LogSystemEPKcS1_S1_S1_iS1_z@plt>
   448f4: af f9 ff 17  	b	0x42fb0 <_ZNK18ChiFeature2Generic31OnPopulateConfigurationSettingsEP24ChiFeature2RequestObjectPK21ChiFeature2IdentifierP11ChiMetadata+0x3a0>
   44918: 61 fe ff 90  	adrp	x1, 0x10000 <_ZNK18ChiFeature2Generic31OnPopulateConfigurationSettingsEP24ChiFeature2RequestObjectPK21ChiFeature2IdentifierP11ChiMetadata+0x1c38>
   4491c: 42 fe ff 90  	adrp	x2, 0xc000 <_ZNK18ChiFeature2Generic31OnPopulateConfigurationSettingsEP24ChiFeature2RequestObjectPK21ChiFeature2IdentifierP11ChiMetadata+0x1c2c>
   4493c: 78 f9 ff 17  	b	0x42f1c <_ZNK18ChiFeature2Generic31OnPopulateConfigurationSettingsEP24ChiFeature2RequestObjectPK21ChiFeature2IdentifierP11ChiMetadata+0x30c>
   44944: 2c fc ff 17  	b	0x439f4 <_ZNK18ChiFeature2Generic31OnPopulateConfigurationSettingsEP24ChiFeature2RequestObjectPK21ChiFeature2IdentifierP11ChiMetadata+0xde4>
   44948: 05 01 00 90  	adrp	x5, 0x64000 <_ZNK18ChiFeature2Generic31OnPopulateConfigurationSettingsEP24ChiFeature2RequestObjectPK21ChiFeature2IdentifierP11ChiMetadata+0x1db8>
   44954: ef d6 07 36  	tbz	w15, #0, 0x44430 <_ZNK18ChiFeature2Generic31OnPopulateConfigurationSettingsEP24ChiFeature2RequestObjectPK21ChiFeature2IdentifierP11ChiMetadata+0x1820>
   44958: 06 01 00 90  	adrp	x6, 0x64000 <_ZNK18ChiFeature2Generic31OnPopulateConfigurationSettingsEP24ChiFeature2RequestObjectPK21ChiFeature2IdentifierP11ChiMetadata+0x1dc8>
   44968: 41 02 00 54  	b.ne	0x449b0 <_ZNK18ChiFeature2Generic31OnPopulateConfigurationSettingsEP24ChiFeature2RequestObjectPK21ChiFeature2IdentifierP11ChiMetadata+0x1da0>
   4496c: 73 fe ff 90  	adrp	x19, 0x10000 <_ZNK18ChiFeature2Generic31OnPopulateConfigurationSettingsEP24ChiFeature2RequestObjectPK21ChiFeature2IdentifierP11ChiMetadata+0x1c8c>
   44988: 61 fe ff d0  	adrp	x1, 0x12000 <_ZNK18ChiFeature2Generic31OnPopulateConfigurationSettingsEP24ChiFeature2RequestObjectPK21ChiFeature2IdentifierP11ChiMetadata+0x1cb0>
   4498c: 62 fe ff 90  	adrp	x2, 0x10000 <_ZNK18ChiFeature2Generic31OnPopulateConfigurationSettingsEP24ChiFeature2RequestObjectPK21ChiFeature2IdentifierP11ChiMetadata+0x1cac>
   44990: 65 fe ff 90  	adrp	x5, 0x10000 <_ZNK18ChiFeature2Generic31OnPopulateConfigurationSettingsEP24ChiFeature2RequestObjectPK21ChiFeature2IdentifierP11ChiMetadata+0x1cb0>
   449b0: 7b fe ff 90  	adrp	x27, 0x10000 <_ZNK18ChiFeature2Generic31OnPopulateConfigurationSettingsEP24ChiFeature2RequestObjectPK21ChiFeature2IdentifierP11ChiMetadata+0x1cd0>
   449cc: 61 fe ff d0  	adrp	x1, 0x12000 <_ZNK18ChiFeature2Generic31OnPopulateConfigurationSettingsEP24ChiFeature2RequestObjectPK21ChiFeature2IdentifierP11ChiMetadata+0x1cf4>
   449d4: 40 fe ff 90  	adrp	x0, 0xc000 <_ZNK18ChiFeature2Generic31OnPopulateConfigurationSettingsEP24ChiFeature2RequestObjectPK21ChiFeature2IdentifierP11ChiMetadata+0x1ce4>
   449d8: 63 fe ff 90  	adrp	x3, 0x10000 <_ZNK18ChiFeature2Generic31OnPopulateConfigurationSettingsEP24ChiFeature2RequestObjectPK21ChiFeature2IdentifierP11ChiMetadata+0x1cf8>
   449dc: 65 fe ff b0  	adrp	x5, 0x11000 <_ZNK18ChiFeature2Generic31OnPopulateConfigurationSettingsEP24ChiFeature2RequestObjectPK21ChiFeature2IdentifierP11ChiMetadata+0x1d00>
   449f4: 54 00 00 14  	b	0x44b44 <_ZNK18ChiFeature2Generic31OnPopulateConfigurationSettingsEP24ChiFeature2RequestObjectPK21ChiFeature2IdentifierP11ChiMetadata+0x1f34>
   449f8: 11 01 00 90  	adrp	x17, 0x64000 <_ZNK18ChiFeature2Generic31OnPopulateConfigurationSettingsEP24ChiFeature2RequestObjectPK21ChiFeature2IdentifierP11ChiMetadata+0x1e68>
   44a08: 41 02 00 54  	b.ne	0x44a50 <_ZNK18ChiFeature2Generic31OnPopulateConfigurationSettingsEP24ChiFeature2RequestObjectPK21ChiFeature2IdentifierP11ChiMetadata+0x1e40>
   44a0c: 79 fe ff 90  	adrp	x25, 0x10000 <_ZNK18ChiFeature2Generic31OnPopulateConfigurationSettingsEP24ChiFeature2RequestObjectPK21ChiFeature2IdentifierP11ChiMetadata+0x1d2c>
   44a28: 61 fe ff d0  	adrp	x1, 0x12000 <_ZNK18ChiFeature2Generic31OnPopulateConfigurationSettingsEP24ChiFeature2RequestObjectPK21ChiFeature2IdentifierP11ChiMetadata+0x1d50>
   44a2c: 42 fe ff 90  	adrp	x2, 0xc000 <_ZNK18ChiFeature2Generic31OnPopulateConfigurationSettingsEP24ChiFeature2RequestObjectPK21ChiFeature2IdentifierP11ChiMetadata+0x1d3c>
   44a30: 65 fe ff 90  	adrp	x5, 0x10000 <_ZNK18ChiFeature2Generic31OnPopulateConfigurationSettingsEP24ChiFeature2RequestObjectPK21ChiFeature2IdentifierP11ChiMetadata+0x1d50>
   44a50: 77 fe ff 90  	adrp	x23, 0x10000 <_ZNK18ChiFeature2Generic31OnPopulateConfigurationSettingsEP24ChiFeature2RequestObjectPK21ChiFeature2IdentifierP11ChiMetadata+0x1d70>
   44a6c: 61 fe ff d0  	adrp	x1, 0x12000 <_ZNK18ChiFeature2Generic31OnPopulateConfigurationSettingsEP24ChiFeature2RequestObjectPK21ChiFeature2IdentifierP11ChiMetadata+0x1d94>
   44a74: 40 fe ff 90  	adrp	x0, 0xc000 <_ZNK18ChiFeature2Generic31OnPopulateConfigurationSettingsEP24ChiFeature2RequestObjectPK21ChiFeature2IdentifierP11ChiMetadata+0x1d84>
   44a78: 63 fe ff 90  	adrp	x3, 0x10000 <_ZNK18ChiFeature2Generic31OnPopulateConfigurationSettingsEP24ChiFeature2RequestObjectPK21ChiFeature2IdentifierP11ChiMetadata+0x1d98>
   44a7c: 65 fe ff 90  	adrp	x5, 0x10000 <_ZNK18ChiFeature2Generic31OnPopulateConfigurationSettingsEP24ChiFeature2RequestObjectPK21ChiFeature2IdentifierP11ChiMetadata+0x1d9c>
   44a94: bf 71 00 94  	bl	0x61190 <_ZN6ChiLog9LogSystemEPKcS1_S1_S1_iS1_z@plt>
   44aa0: 42 f9 ff 17  	b	0x42fa8 <_ZNK18ChiFeature2Generic31OnPopulateConfigurationSettingsEP24ChiFeature2RequestObjectPK21ChiFeature2IdentifierP11ChiMetadata+0x398>
   44aa4: 6a cc 2f 36  	tbz	w10, #5, 0x44430 <_ZNK18ChiFeature2Generic31OnPopulateConfigurationSettingsEP24ChiFeature2RequestObjectPK21ChiFeature2IdentifierP11ChiMetadata+0x1820>
   44aa8: 03 01 00 90  	adrp	x3, 0x64000 <_ZNK18ChiFeature2Generic31OnPopulateConfigurationSettingsEP24ChiFeature2RequestObjectPK21ChiFeature2IdentifierP11ChiMetadata+0x1f18>
   44ab8: 41 02 00 54  	b.ne	0x44b00 <_ZNK18ChiFeature2Generic31OnPopulateConfigurationSettingsEP24ChiFeature2RequestObjectPK21ChiFeature2IdentifierP11ChiMetadata+0x1ef0>
   44abc: 7b fe ff 90  	adrp	x27, 0x10000 <_ZNK18ChiFeature2Generic31OnPopulateConfigurationSettingsEP24ChiFeature2RequestObjectPK21ChiFeature2IdentifierP11ChiMetadata+0x1ddc>
   44ad8: 61 fe ff d0  	adrp	x1, 0x12000 <_ZNK18ChiFeature2Generic31OnPopulateConfigurationSettingsEP24ChiFeature2RequestObjectPK21ChiFeature2IdentifierP11ChiMetadata+0x1e00>
   44adc: 42 fe ff f0  	adrp	x2, 0xf000 <_ZNK18ChiFeature2Generic31OnPopulateConfigurationSettingsEP24ChiFeature2RequestObjectPK21ChiFeature2IdentifierP11ChiMetadata+0x1df8>
   44ae0: 65 fe ff 90  	adrp	x5, 0x10000 <_ZNK18ChiFeature2Generic31OnPopulateConfigurationSettingsEP24ChiFeature2RequestObjectPK21ChiFeature2IdentifierP11ChiMetadata+0x1e00>
   44b00: 77 fe ff 90  	adrp	x23, 0x10000 <_ZNK18ChiFeature2Generic31OnPopulateConfigurationSettingsEP24ChiFeature2RequestObjectPK21ChiFeature2IdentifierP11ChiMetadata+0x1e20>
   44b1c: 61 fe ff 90  	adrp	x1, 0x10000 <_ZNK18ChiFeature2Generic31OnPopulateConfigurationSettingsEP24ChiFeature2RequestObjectPK21ChiFeature2IdentifierP11ChiMetadata+0x1e3c>
   44b24: 60 fe ff d0  	adrp	x0, 0x12000 <_ZNK18ChiFeature2Generic31OnPopulateConfigurationSettingsEP24ChiFeature2RequestObjectPK21ChiFeature2IdentifierP11ChiMetadata+0x1e4c>
   44b28: 63 fe ff 90  	adrp	x3, 0x10000 <_ZNK18ChiFeature2Generic31OnPopulateConfigurationSettingsEP24ChiFeature2RequestObjectPK21ChiFeature2IdentifierP11ChiMetadata+0x1e48>
   44b2c: 45 fe ff b0  	adrp	x5, 0xd000 <_ZNK18ChiFeature2Generic31OnPopulateConfigurationSettingsEP24ChiFeature2RequestObjectPK21ChiFeature2IdentifierP11ChiMetadata+0x1e40>
   44b44: 93 71 00 94  	bl	0x61190 <_ZN6ChiLog9LogSystemEPKcS1_S1_S1_iS1_z@plt>
   44b48: 3a fe ff 17  	b	0x44430 <_ZNK18ChiFeature2Generic31OnPopulateConfigurationSettingsEP24ChiFeature2RequestObjectPK21ChiFeature2IdentifierP11ChiMetadata+0x1820>
   44b60: 43 f8 ff 17  	b	0x42c6c <_ZNK18ChiFeature2Generic31OnPopulateConfigurationSettingsEP24ChiFeature2RequestObjectPK21ChiFeature2IdentifierP11ChiMetadata+0x5c>
   44b7c: 34 09 ff b5  	cbnz	x20, 0x42ca0 <_ZNK18ChiFeature2Generic31OnPopulateConfigurationSettingsEP24ChiFeature2RequestObjectPK21ChiFeature2IdentifierP11ChiMetadata+0x90>
   44b80: 8f f8 ff 17  	b	0x42dbc <_ZNK18ChiFeature2Generic31OnPopulateConfigurationSettingsEP24ChiFeature2RequestObjectPK21ChiFeature2IdentifierP11ChiMetadata+0x1ac>
   44b98: 8e f8 ff 17  	b	0x42dd0 <_ZNK18ChiFeature2Generic31OnPopulateConfigurationSettingsEP24ChiFeature2RequestObjectPK21ChiFeature2IdentifierP11ChiMetadata+0x1c0>
   44bb0: 14 1c ff b5  	cbnz	x20, 0x42f30 <_ZNK18ChiFeature2Generic31OnPopulateConfigurationSettingsEP24ChiFeature2RequestObjectPK21ChiFeature2IdentifierP11ChiMetadata+0x320>
   44bb4: ff f8 ff 17  	b	0x42fb0 <_ZNK18ChiFeature2Generic31OnPopulateConfigurationSettingsEP24ChiFeature2RequestObjectPK21ChiFeature2IdentifierP11ChiMetadata+0x3a0>
   44bcc: fd f8 ff 17  	b	0x42fc0 <_ZNK18ChiFeature2Generic31OnPopulateConfigurationSettingsEP24ChiFeature2RequestObjectPK21ChiFeature2IdentifierP11ChiMetadata+0x3b0>
   44be4: 94 23 ff b5  	cbnz	x20, 0x43054 <_ZNK18ChiFeature2Generic31OnPopulateConfigurationSettingsEP24ChiFeature2RequestObjectPK21ChiFeature2IdentifierP11ChiMetadata+0x444>
   44be8: 07 fa ff 17  	b	0x43404 <_ZNK18ChiFeature2Generic31OnPopulateConfigurationSettingsEP24ChiFeature2RequestObjectPK21ChiFeature2IdentifierP11ChiMetadata+0x7f4>
   44c00: 32 f8 ff 17  	b	0x42cc8 <_ZNK18ChiFeature2Generic31OnPopulateConfigurationSettingsEP24ChiFeature2RequestObjectPK21ChiFeature2IdentifierP11ChiMetadata+0xb8>
   44c18: 38 f8 ff 17  	b	0x42cf8 <_ZNK18ChiFeature2Generic31OnPopulateConfigurationSettingsEP24ChiFeature2RequestObjectPK21ChiFeature2IdentifierP11ChiMetadata+0xe8>
   44c30: af fb ff 17  	b	0x43aec <_ZNK18ChiFeature2Generic31OnPopulateConfigurationSettingsEP24ChiFeature2RequestObjectPK21ChiFeature2IdentifierP11ChiMetadata+0xedc>
   44c48: 34 c0 ff b5  	cbnz	x20, 0x4444c <_ZNK18ChiFeature2Generic31OnPopulateConfigurationSettingsEP24ChiFeature2RequestObjectPK21ChiFeature2IdentifierP11ChiMetadata+0x183c>
   44c4c: b4 f8 ff 17  	b	0x42f1c <_ZNK18ChiFeature2Generic31OnPopulateConfigurationSettingsEP24ChiFeature2RequestObjectPK21ChiFeature2IdentifierP11ChiMetadata+0x30c>
   44c64: ba fa ff 17  	b	0x4374c <_ZNK18ChiFeature2Generic31OnPopulateConfigurationSettingsEP24ChiFeature2RequestObjectPK21ChiFeature2IdentifierP11ChiMetadata+0xb3c>
   44c7c: a9 f9 ff 17  	b	0x43320 <_ZNK18ChiFeature2Generic31OnPopulateConfigurationSettingsEP24ChiFeature2RequestObjectPK21ChiFeature2IdentifierP11ChiMetadata+0x710>
   44c9c: c0 5f ff 54  	b.eq	0x43894 <_ZNK18ChiFeature2Generic31OnPopulateConfigurationSettingsEP24ChiFeature2RequestObjectPK21ChiFeature2IdentifierP11ChiMetadata+0xc84>
   44cb4: 35 5f ff b5  	cbnz	x21, 0x43898 <_ZNK18ChiFeature2Generic31OnPopulateConfigurationSettingsEP24ChiFeature2RequestObjectPK21ChiFeature2IdentifierP11ChiMetadata+0xc88>
   44cb8: 4f fb ff 17  	b	0x439f4 <_ZNK18ChiFeature2Generic31OnPopulateConfigurationSettingsEP24ChiFeature2RequestObjectPK21ChiFeature2IdentifierP11ChiMetadata+0xde4>
   44cd0: 99 fb ff 17  	b	0x43b34 <_ZNK18ChiFeature2Generic31OnPopulateConfigurationSettingsEP24ChiFeature2RequestObjectPK21ChiFeature2IdentifierP11ChiMetadata+0xf24>
   44ce8: 27 fc ff 17  	b	0x43d84 <_ZNK18ChiFeature2Generic31OnPopulateConfigurationSettingsEP24ChiFeature2RequestObjectPK21ChiFeature2IdentifierP11ChiMetadata+0x1174>
   44d00: 38 fc ff 17  	b	0x43de0 <_ZNK18ChiFeature2Generic31OnPopulateConfigurationSettingsEP24ChiFeature2RequestObjectPK21ChiFeature2IdentifierP11ChiMetadata+0x11d0>
   44d18: 3a fc ff 17  	b	0x43e00 <_ZNK18ChiFeature2Generic31OnPopulateConfigurationSettingsEP24ChiFeature2RequestObjectPK21ChiFeature2IdentifierP11ChiMetadata+0x11f0>
   44d30: c4 f9 ff 17  	b	0x43440 <_ZNK18ChiFeature2Generic31OnPopulateConfigurationSettingsEP24ChiFeature2RequestObjectPK21ChiFeature2IdentifierP11ChiMetadata+0x830>
   44d48: b7 f8 ff 17  	b	0x43024 <_ZNK18ChiFeature2Generic31OnPopulateConfigurationSettingsEP24ChiFeature2RequestObjectPK21ChiFeature2IdentifierP11ChiMetadata+0x414>
   44d60: b2 fc ff 17  	b	0x44028 <_ZNK18ChiFeature2Generic31OnPopulateConfigurationSettingsEP24ChiFeature2RequestObjectPK21ChiFeature2IdentifierP11ChiMetadata+0x1418>
   44d7c: 13 fd ff 17  	b	0x441c8 <_ZNK18ChiFeature2Generic31OnPopulateConfigurationSettingsEP24ChiFeature2RequestObjectPK21ChiFeature2IdentifierP11ChiMetadata+0x15b8>
   44da4: 11 fd ff 17  	b	0x441e8 <_ZNK18ChiFeature2Generic31OnPopulateConfigurationSettingsEP24ChiFeature2RequestObjectPK21ChiFeature2IdentifierP11ChiMetadata+0x15d8>
   44dbc: 29 fb ff 17  	b	0x43a60 <_ZNK18ChiFeature2Generic31OnPopulateConfigurationSettingsEP24ChiFeature2RequestObjectPK21ChiFeature2IdentifierP11ChiMetadata+0xe50>
   44dd4: a5 fb ff 17  	b	0x43c68 <_ZNK18ChiFeature2Generic31OnPopulateConfigurationSettingsEP24ChiFeature2RequestObjectPK21ChiFeature2IdentifierP11ChiMetadata+0x1058>
   44de4: 8f 71 00 94  	bl	0x61420 <_ZNKSt3__120__vector_base_commonILb1EE20__throw_length_errorEv@plt>
   44df0: 8c 71 00 94  	bl	0x61420 <_ZNKSt3__120__vector_base_commonILb1EE20__throw_length_errorEv@plt>
   44e20: 61 00 00 54  	b.ne	0x44e2c <_ZNK18ChiFeature2Generic31OnPopulateConfigurationSettingsEP24ChiFeature2RequestObjectPK21ChiFeature2IdentifierP11ChiMetadata+0x221c>
   44e28: 35 00 00 14  	b	0x44efc <_ZNK18ChiFeature2Generic31OnPopulateConfigurationSettingsEP24ChiFeature2RequestObjectPK21ChiFeature2IdentifierP11ChiMetadata+0x22ec>
   44e30: 0c 01 00 90  	adrp	x12, 0x64000 <_ZNK18ChiFeature2Generic31OnPopulateConfigurationSettingsEP24ChiFeature2RequestObjectPK21ChiFeature2IdentifierP11ChiMetadata+0x22a0>
   44e40: 81 01 00 54  	b.ne	0x44e70 <_ZNK18ChiFeature2Generic31OnPopulateConfigurationSettingsEP24ChiFeature2RequestObjectPK21ChiFeature2IdentifierP11ChiMetadata+0x2260>
   44e48: 41 03 00 54  	b.ne	0x44eb0 <_ZNK18ChiFeature2Generic31OnPopulateConfigurationSettingsEP24ChiFeature2RequestObjectPK21ChiFeature2IdentifierP11ChiMetadata+0x22a0>
   44e50: ca 04 00 b4  	cbz	x10, 0x44ee8 <_ZNK18ChiFeature2Generic31OnPopulateConfigurationSettingsEP24ChiFeature2RequestObjectPK21ChiFeature2IdentifierP11ChiMetadata+0x22d8>
   44e60: 61 05 00 54  	b.ne	0x44f0c <_ZNK18ChiFeature2Generic31OnPopulateConfigurationSettingsEP24ChiFeature2RequestObjectPK21ChiFeature2IdentifierP11ChiMetadata+0x22fc>
   44e6c: 20 00 00 14  	b	0x44eec <_ZNK18ChiFeature2Generic31OnPopulateConfigurationSettingsEP24ChiFeature2RequestObjectPK21ChiFeature2IdentifierP11ChiMetadata+0x22dc>
   44e98: 0c 01 00 90  	adrp	x12, 0x64000 <_ZNK18ChiFeature2Generic31OnPopulateConfigurationSettingsEP24ChiFeature2RequestObjectPK21ChiFeature2IdentifierP11ChiMetadata+0x2308>
   44eac: 00 fd ff 54  	b.eq	0x44e4c <_ZNK18ChiFeature2Generic31OnPopulateConfigurationSettingsEP24ChiFeature2RequestObjectPK21ChiFeature2IdentifierP11ChiMetadata+0x223c>
   44ed0: 0c 01 00 90  	adrp	x12, 0x64000 <_ZNK18ChiFeature2Generic41PopulateConfigurationsForSensorModeChangeEP24ChiFeature2RequestObjectP11ChiMetadata+0x18>
   44ee4: 8a fb ff b5  	cbnz	x10, 0x44e54 <_ZNK18ChiFeature2Generic31OnPopulateConfigurationSettingsEP24ChiFeature2RequestObjectPK21ChiFeature2IdentifierP11ChiMetadata+0x2244>
   44f34: cc ff ff 17  	b	0x44e64 <_ZNK18ChiFeature2Generic31OnPopulateConfigurationSettingsEP24ChiFeature2RequestObjectPK21ChiFeature2IdentifierP11ChiMetadata+0x2254>
0000000000044f38 <_ZNK18ChiFeature2Generic41PopulateConfigurationsForSensorModeChangeEP24ChiFeature2RequestObjectP11ChiMetadata>:
   44f5c: 0b 01 00 90  	adrp	x11, 0x64000 <_ZNK18ChiFeature2Generic41PopulateConfigurationsForSensorModeChangeEP24ChiFeature2RequestObjectP11ChiMetadata+0xa4>
   44f7c: a1 12 00 54  	b.ne	0x451d0 <_ZNK18ChiFeature2Generic41PopulateConfigurationsForSensorModeChangeEP24ChiFeature2RequestObjectP11ChiMetadata+0x298>
   44f88: 21 13 00 54  	b.ne	0x451ec <_ZNK18ChiFeature2Generic41PopulateConfigurationsForSensorModeChangeEP24ChiFeature2RequestObjectP11ChiMetadata+0x2b4>
   44f90: 68 00 00 b4  	cbz	x8, 0x44f9c <_ZNK18ChiFeature2Generic41PopulateConfigurationsForSensorModeChangeEP24ChiFeature2RequestObjectP11ChiMetadata+0x64>
   44f98: 29 08 28 37  	tbnz	w9, #5, 0x4509c <_ZNK18ChiFeature2Generic41PopulateConfigurationsForSensorModeChangeEP24ChiFeature2RequestObjectP11ChiMetadata+0x164>
   44fa0: 0f 01 00 90  	adrp	x15, 0x64000 <_ZNK18ChiFeature2Generic41PopulateConfigurationsForSensorModeChangeEP24ChiFeature2RequestObjectP11ChiMetadata+0xe8>
   44fac: 2d 06 08 36  	tbz	w13, #1, 0x45070 <_ZNK18ChiFeature2Generic41PopulateConfigurationsForSensorModeChangeEP24ChiFeature2RequestObjectP11ChiMetadata+0x138>
   44fb0: 10 01 00 90  	adrp	x16, 0x64000 <_ZNK18ChiFeature2Generic41PopulateConfigurationsForSensorModeChangeEP24ChiFeature2RequestObjectP11ChiMetadata+0xf8>
   44fc0: c1 02 00 54  	b.ne	0x45018 <_ZNK18ChiFeature2Generic41PopulateConfigurationsForSensorModeChangeEP24ChiFeature2RequestObjectP11ChiMetadata+0xe0>
   44fc4: 76 fe ff 90  	adrp	x22, 0x10000 <_ZNK18ChiFeature2Generic31OnPopulateConfigurationSettingsEP24ChiFeature2RequestObjectPK21ChiFeature2IdentifierP11ChiMetadata+0x22e4>
   44fe4: 61 fe ff d0  	adrp	x1, 0x12000 <_ZNK18ChiFeature2Generic31OnPopulateConfigurationSettingsEP24ChiFeature2RequestObjectPK21ChiFeature2IdentifierP11ChiMetadata+0x230c>
   44fe8: 62 fe ff 90  	adrp	x2, 0x10000 <_ZNK18ChiFeature2Generic31OnPopulateConfigurationSettingsEP24ChiFeature2RequestObjectPK21ChiFeature2IdentifierP11ChiMetadata+0x2308>
   44fec: 25 fe ff f0  	adrp	x5, 0xb000 <_ZNK18ChiFeature2Generic31OnPopulateConfigurationSettingsEP24ChiFeature2RequestObjectPK21ChiFeature2IdentifierP11ChiMetadata+0x22f8>
   45018: 56 fe ff f0  	adrp	x22, 0x10000 <_ZNK18ChiFeature2Generic41PopulateConfigurationsForSensorModeChangeEP24ChiFeature2RequestObjectP11ChiMetadata+0xc>
   4503c: 40 fe ff f0  	adrp	x0, 0x10000 <_ZNK18ChiFeature2Generic41PopulateConfigurationsForSensorModeChangeEP24ChiFeature2RequestObjectP11ChiMetadata+0x30>
   45040: 41 fe ff 90  	adrp	x1, 0xd000 <_ZNK18ChiFeature2Generic41PopulateConfigurationsForSensorModeChangeEP24ChiFeature2RequestObjectP11ChiMetadata+0x28>
   45044: 23 fe ff d0  	adrp	x3, 0xb000 <_ZNK18ChiFeature2Generic41PopulateConfigurationsForSensorModeChangeEP24ChiFeature2RequestObjectP11ChiMetadata+0x24>
   45048: 65 fe ff b0  	adrp	x5, 0x12000 <_ZNK18ChiFeature2Generic41PopulateConfigurationsForSensorModeChangeEP24ChiFeature2RequestObjectP11ChiMetadata+0x44>
   4506c: 49 70 00 94  	bl	0x61190 <_ZN6ChiLog9LogSystemEPKcS1_S1_S1_iS1_z@plt>
   45080: 61 0c 00 54  	b.ne	0x4520c <_ZNK18ChiFeature2Generic41PopulateConfigurationsForSensorModeChangeEP24ChiFeature2RequestObjectP11ChiMetadata+0x2d4>
   450a0: 18 f8 ff b4  	cbz	x24, 0x44fa0 <_ZNK18ChiFeature2Generic41PopulateConfigurationsForSensorModeChangeEP24ChiFeature2RequestObjectP11ChiMetadata+0x68>
   450a4: f3 f7 ff b4  	cbz	x19, 0x44fa0 <_ZNK18ChiFeature2Generic41PopulateConfigurationsForSensorModeChangeEP24ChiFeature2RequestObjectP11ChiMetadata+0x68>
   450a8: d5 f7 ff b4  	cbz	x21, 0x44fa0 <_ZNK18ChiFeature2Generic41PopulateConfigurationsForSensorModeChangeEP24ChiFeature2RequestObjectP11ChiMetadata+0x68>
   450b0: 80 f7 ff b4  	cbz	x0, 0x44fa0 <_ZNK18ChiFeature2Generic41PopulateConfigurationsForSensorModeChangeEP24ChiFeature2RequestObjectP11ChiMetadata+0x68>
   450b8: 68 01 00 34  	cbz	w8, 0x450e4 <_ZNK18ChiFeature2Generic41PopulateConfigurationsForSensorModeChangeEP24ChiFeature2RequestObjectP11ChiMetadata+0x1ac>
   450d4: 20 06 00 54  	b.eq	0x45198 <_ZNK18ChiFeature2Generic41PopulateConfigurationsForSensorModeChangeEP24ChiFeature2RequestObjectP11ChiMetadata+0x260>
   450e0: 41 ff ff 54  	b.ne	0x450c8 <_ZNK18ChiFeature2Generic41PopulateConfigurationsForSensorModeChangeEP24ChiFeature2RequestObjectP11ChiMetadata+0x190>
   450e4: ed 00 00 f0  	adrp	x13, 0x64000 <_ZNK18ChiFeature2Generic41PopulateConfigurationsForSensorModeChangeEP24ChiFeature2RequestObjectP11ChiMetadata+0x228>
   450f0: 08 fc 0f 36  	tbz	w8, #1, 0x45070 <_ZNK18ChiFeature2Generic41PopulateConfigurationsForSensorModeChangeEP24ChiFeature2RequestObjectP11ChiMetadata+0x138>
   450f4: ee 00 00 f0  	adrp	x14, 0x64000 <_ZNK18ChiFeature2Generic41PopulateConfigurationsForSensorModeChangeEP24ChiFeature2RequestObjectP11ChiMetadata+0x238>
   450f8: 53 fe ff f0  	adrp	x19, 0x10000 <_ZNK18ChiFeature2Generic41PopulateConfigurationsForSensorModeChangeEP24ChiFeature2RequestObjectP11ChiMetadata+0xec>
   4510c: 21 02 00 54  	b.ne	0x45150 <_ZNK18ChiFeature2Generic41PopulateConfigurationsForSensorModeChangeEP24ChiFeature2RequestObjectP11ChiMetadata+0x218>
   45124: 61 fe ff b0  	adrp	x1, 0x12000 <_ZNK18ChiFeature2Generic41PopulateConfigurationsForSensorModeChangeEP24ChiFeature2RequestObjectP11ChiMetadata+0x120>
   45128: 42 fe ff 90  	adrp	x2, 0xd000 <_ZNK18ChiFeature2Generic41PopulateConfigurationsForSensorModeChangeEP24ChiFeature2RequestObjectP11ChiMetadata+0x110>
   4512c: 25 fe ff d0  	adrp	x5, 0xb000 <_ZNK18ChiFeature2Generic41PopulateConfigurationsForSensorModeChangeEP24ChiFeature2RequestObjectP11ChiMetadata+0x10c>
   45164: 41 fe ff 90  	adrp	x1, 0xd000 <_ZNK18ChiFeature2Generic41PopulateConfigurationsForSensorModeChangeEP24ChiFeature2RequestObjectP11ChiMetadata+0x14c>
   4516c: 40 fe ff f0  	adrp	x0, 0x10000 <_ZNK18ChiFeature2Generic41PopulateConfigurationsForSensorModeChangeEP24ChiFeature2RequestObjectP11ChiMetadata+0x160>
   45170: 23 fe ff d0  	adrp	x3, 0xb000 <_ZNK18ChiFeature2Generic41PopulateConfigurationsForSensorModeChangeEP24ChiFeature2RequestObjectP11ChiMetadata+0x150>
   45174: 45 fe ff d0  	adrp	x5, 0xf000 <_ZNK18ChiFeature2Generic41PopulateConfigurationsForSensorModeChangeEP24ChiFeature2RequestObjectP11ChiMetadata+0x164>
   45190: 00 70 00 94  	bl	0x61190 <_ZN6ChiLog9LogSystemEPKcS1_S1_S1_iS1_z@plt>
   45194: b7 ff ff 17  	b	0x45070 <_ZNK18ChiFeature2Generic41PopulateConfigurationsForSensorModeChangeEP24ChiFeature2RequestObjectP11ChiMetadata+0x138>
   451a0: 41 01 00 54  	b.ne	0x451c8 <_ZNK18ChiFeature2Generic41PopulateConfigurationsForSensorModeChangeEP24ChiFeature2RequestObjectP11ChiMetadata+0x290>
   451c4: 9f 70 00 94  	bl	0x61440 <_ZN19ChiMcxRoiTranslator27TranslateRequestChiMetadataER16ChiMcxSensorModeS1_R11ChiMetadataS3_i@plt>
   451cc: aa ff ff 17  	b	0x45074 <_ZNK18ChiFeature2Generic41PopulateConfigurationsForSensorModeChangeEP24ChiFeature2RequestObjectP11ChiMetadata+0x13c>
   451e8: 66 ff ff 17  	b	0x44f80 <_ZNK18ChiFeature2Generic41PopulateConfigurationsForSensorModeChangeEP24ChiFeature2RequestObjectP11ChiMetadata+0x48>
   45204: 88 ec ff b5  	cbnz	x8, 0x44f94 <_ZNK18ChiFeature2Generic41PopulateConfigurationsForSensorModeChangeEP24ChiFeature2RequestObjectP11ChiMetadata+0x5c>
   45208: 65 ff ff 17  	b	0x44f9c <_ZNK18ChiFeature2Generic41PopulateConfigurationsForSensorModeChangeEP24ChiFeature2RequestObjectP11ChiMetadata+0x64>
0000000000045210 <_ZNK18ChiFeature2Generic40PopulateConfigurationSettingsforBayerSATEP24ChiFeature2RequestObjectPK21ChiFeature2IdentifierP11ChiMetadata>:
   4523c: fb 00 00 f0  	adrp	x27, 0x64000 <_ZNK18ChiFeature2Generic40PopulateConfigurationSettingsforBayerSATEP24ChiFeature2RequestObjectPK21ChiFeature2IdentifierP11ChiMetadata+0xa8>
   45264: 01 05 00 54  	b.ne	0x45304 <_ZNK18ChiFeature2Generic40PopulateConfigurationSettingsforBayerSATEP24ChiFeature2RequestObjectPK21ChiFeature2IdentifierP11ChiMetadata+0xf4>
   45268: d4 18 00 b4  	cbz	x20, 0x45580 <_ZNK18ChiFeature2Generic40PopulateConfigurationSettingsforBayerSATEP24ChiFeature2RequestObjectPK21ChiFeature2IdentifierP11ChiMetadata+0x370>
   45278: 41 18 00 54  	b.ne	0x45580 <_ZNK18ChiFeature2Generic40PopulateConfigurationSettingsforBayerSATEP24ChiFeature2RequestObjectPK21ChiFeature2IdentifierP11ChiMetadata+0x370>
   45290: cc 6f 00 94  	bl	0x611c0 <_ZNK24ChiFeature2RequestObject23GetUsecaseRequestObjectEv@plt>
   452bc: 21 03 00 54  	b.ne	0x45320 <_ZNK18ChiFeature2Generic40PopulateConfigurationSettingsforBayerSATEP24ChiFeature2RequestObjectPK21ChiFeature2IdentifierP11ChiMetadata+0x110>
   452c4: e1 03 00 54  	b.ne	0x45340 <_ZNK18ChiFeature2Generic40PopulateConfigurationSettingsforBayerSATEP24ChiFeature2RequestObjectPK21ChiFeature2IdentifierP11ChiMetadata+0x130>
   452c8: 99 04 00 b4  	cbz	x25, 0x45358 <_ZNK18ChiFeature2Generic40PopulateConfigurationSettingsforBayerSATEP24ChiFeature2RequestObjectPK21ChiFeature2IdentifierP11ChiMetadata+0x148>
   452dc: e2 03 00 54  	b.hs	0x45358 <_ZNK18ChiFeature2Generic40PopulateConfigurationSettingsforBayerSATEP24ChiFeature2RequestObjectPK21ChiFeature2IdentifierP11ChiMetadata+0x148>
   452e4: a8 03 00 b4  	cbz	x8, 0x45358 <_ZNK18ChiFeature2Generic40PopulateConfigurationSettingsforBayerSATEP24ChiFeature2RequestObjectPK21ChiFeature2IdentifierP11ChiMetadata+0x148>
   452f8: 02 03 00 54  	b.hs	0x45358 <_ZNK18ChiFeature2Generic40PopulateConfigurationSettingsforBayerSATEP24ChiFeature2RequestObjectPK21ChiFeature2IdentifierP11ChiMetadata+0x148>
   45300: 17 00 00 14  	b	0x4535c <_ZNK18ChiFeature2Generic40PopulateConfigurationSettingsforBayerSATEP24ChiFeature2RequestObjectPK21ChiFeature2IdentifierP11ChiMetadata+0x14c>
   45318: b4 fa ff b5  	cbnz	x20, 0x4526c <_ZNK18ChiFeature2Generic40PopulateConfigurationSettingsforBayerSATEP24ChiFeature2RequestObjectPK21ChiFeature2IdentifierP11ChiMetadata+0x5c>
   4531c: 99 00 00 14  	b	0x45580 <_ZNK18ChiFeature2Generic40PopulateConfigurationSettingsforBayerSATEP24ChiFeature2RequestObjectPK21ChiFeature2IdentifierP11ChiMetadata+0x370>
   4533c: 60 fc ff 54  	b.eq	0x452c8 <_ZNK18ChiFeature2Generic40PopulateConfigurationSettingsforBayerSATEP24ChiFeature2RequestObjectPK21ChiFeature2IdentifierP11ChiMetadata+0xb8>
   45354: d9 fb ff b5  	cbnz	x25, 0x452cc <_ZNK18ChiFeature2Generic40PopulateConfigurationSettingsforBayerSATEP24ChiFeature2RequestObjectPK21ChiFeature2IdentifierP11ChiMetadata+0xbc>
   45360: 98 6f 00 94  	bl	0x611c0 <_ZNK24ChiFeature2RequestObject23GetUsecaseRequestObjectEv@plt>
   4537c: 95 6f 00 94  	bl	0x611d0 <_ZN8ChxUtils22isLogicalPreviewStreamEP17ChiCaptureRequest@plt>
   45380: 9b 0a 00 b4  	cbz	x27, 0x454d0 <_ZNK18ChiFeature2Generic40PopulateConfigurationSettingsforBayerSATEP24ChiFeature2RequestObjectPK21ChiFeature2IdentifierP11ChiMetadata+0x2c0>
   45388: c0 00 00 35  	cbnz	w0, 0x453a0 <_ZNK18ChiFeature2Generic40PopulateConfigurationSettingsforBayerSATEP24ChiFeature2RequestObjectPK21ChiFeature2IdentifierP11ChiMetadata+0x190>
   45398: 41 00 00 54  	b.ne	0x453a0 <_ZNK18ChiFeature2Generic40PopulateConfigurationSettingsforBayerSATEP24ChiFeature2RequestObjectPK21ChiFeature2IdentifierP11ChiMetadata+0x190>
   453c0: 41 fe ff b0  	adrp	x1, 0xe000 <_ZNK18ChiFeature2Generic40PopulateConfigurationSettingsforBayerSATEP24ChiFeature2RequestObjectPK21ChiFeature2IdentifierP11ChiMetadata+0xd4>
   453c4: 42 fe ff d0  	adrp	x2, 0xf000 <_ZNK18ChiFeature2Generic40PopulateConfigurationSettingsforBayerSATEP24ChiFeature2RequestObjectPK21ChiFeature2IdentifierP11ChiMetadata+0xdc>
   453e8: c1 00 00 54  	b.ne	0x45400 <_ZNK18ChiFeature2Generic40PopulateConfigurationSettingsforBayerSATEP24ChiFeature2RequestObjectPK21ChiFeature2IdentifierP11ChiMetadata+0x1f0>
   453f4: 00 01 00 54  	b.eq	0x45414 <_ZNK18ChiFeature2Generic40PopulateConfigurationSettingsforBayerSATEP24ChiFeature2RequestObjectPK21ChiFeature2IdentifierP11ChiMetadata+0x204>
   453fc: c0 00 00 54  	b.eq	0x45414 <_ZNK18ChiFeature2Generic40PopulateConfigurationSettingsforBayerSATEP24ChiFeature2RequestObjectPK21ChiFeature2IdentifierP11ChiMetadata+0x204>
   45414: f0 00 00 f0  	adrp	x16, 0x64000 <_ZNK18ChiFeature2Generic40PopulateConfigurationSettingsforBayerSATEP24ChiFeature2RequestObjectPK21ChiFeature2IdentifierP11ChiMetadata+0x280>
   45428: cc 0a 28 36  	tbz	w12, #5, 0x45580 <_ZNK18ChiFeature2Generic40PopulateConfigurationSettingsforBayerSATEP24ChiFeature2RequestObjectPK21ChiFeature2IdentifierP11ChiMetadata+0x370>
   4542c: f1 00 00 f0  	adrp	x17, 0x64000 <_ZNK18ChiFeature2Generic40PopulateConfigurationSettingsforBayerSATEP24ChiFeature2RequestObjectPK21ChiFeature2IdentifierP11ChiMetadata+0x298>
   45430: 55 fe ff f0  	adrp	x21, 0x10000 <_ZNK18ChiFeature2Generic40PopulateConfigurationSettingsforBayerSATEP24ChiFeature2RequestObjectPK21ChiFeature2IdentifierP11ChiMetadata+0x14c>
   45444: 21 02 00 54  	b.ne	0x45488 <_ZNK18ChiFeature2Generic40PopulateConfigurationSettingsforBayerSATEP24ChiFeature2RequestObjectPK21ChiFeature2IdentifierP11ChiMetadata+0x278>
   45460: 61 fe ff b0  	adrp	x1, 0x12000 <_ZNK18ChiFeature2Generic40PopulateConfigurationSettingsforBayerSATEP24ChiFeature2RequestObjectPK21ChiFeature2IdentifierP11ChiMetadata+0x184>
   45464: 42 fe ff b0  	adrp	x2, 0xe000 <_ZNK18ChiFeature2Generic40PopulateConfigurationSettingsforBayerSATEP24ChiFeature2RequestObjectPK21ChiFeature2IdentifierP11ChiMetadata+0x178>
   45468: 45 fe ff 90  	adrp	x5, 0xd000 <_ZNK18ChiFeature2Generic40PopulateConfigurationSettingsforBayerSATEP24ChiFeature2RequestObjectPK21ChiFeature2IdentifierP11ChiMetadata+0x178>
   454a4: 60 fe ff b0  	adrp	x0, 0x12000 <_ZNK18ChiFeature2Generic40PopulateConfigurationSettingsforBayerSATEP24ChiFeature2RequestObjectPK21ChiFeature2IdentifierP11ChiMetadata+0x1c8>
   454a8: 41 fe ff f0  	adrp	x1, 0x10000 <_ZNK18ChiFeature2Generic40PopulateConfigurationSettingsforBayerSATEP24ChiFeature2RequestObjectPK21ChiFeature2IdentifierP11ChiMetadata+0x1c4>
   454ac: 43 fe ff 90  	adrp	x3, 0xd000 <_ZNK18ChiFeature2Generic40PopulateConfigurationSettingsforBayerSATEP24ChiFeature2RequestObjectPK21ChiFeature2IdentifierP11ChiMetadata+0x1bc>
   454b0: 45 fe ff d0  	adrp	x5, 0xf000 <_ZNK18ChiFeature2Generic40PopulateConfigurationSettingsforBayerSATEP24ChiFeature2RequestObjectPK21ChiFeature2IdentifierP11ChiMetadata+0x1c8>
   454c8: 32 6f 00 94  	bl	0x61190 <_ZN6ChiLog9LogSystemEPKcS1_S1_S1_iS1_z@plt>
   454cc: 2d 00 00 14  	b	0x45580 <_ZNK18ChiFeature2Generic40PopulateConfigurationSettingsforBayerSATEP24ChiFeature2RequestObjectPK21ChiFeature2IdentifierP11ChiMetadata+0x370>
   454d0: ed 00 00 f0  	adrp	x13, 0x64000 <_ZNK18ChiFeature2Generic40PopulateConfigurationSettingsforBayerSATEP24ChiFeature2RequestObjectPK21ChiFeature2IdentifierP11ChiMetadata+0x33c>
   454dc: 29 05 08 36  	tbz	w9, #1, 0x45580 <_ZNK18ChiFeature2Generic40PopulateConfigurationSettingsforBayerSATEP24ChiFeature2RequestObjectPK21ChiFeature2IdentifierP11ChiMetadata+0x370>
   454e0: ee 00 00 f0  	adrp	x14, 0x64000 <_ZNK18ChiFeature2Generic40PopulateConfigurationSettingsforBayerSATEP24ChiFeature2RequestObjectPK21ChiFeature2IdentifierP11ChiMetadata+0x34c>
   454f0: 41 02 00 54  	b.ne	0x45538 <_ZNK18ChiFeature2Generic40PopulateConfigurationSettingsforBayerSATEP24ChiFeature2RequestObjectPK21ChiFeature2IdentifierP11ChiMetadata+0x328>
   454f4: 55 fe ff f0  	adrp	x21, 0x10000 <_ZNK18ChiFeature2Generic40PopulateConfigurationSettingsforBayerSATEP24ChiFeature2RequestObjectPK21ChiFeature2IdentifierP11ChiMetadata+0x210>
   45510: 61 fe ff b0  	adrp	x1, 0x12000 <_ZNK18ChiFeature2Generic40PopulateConfigurationSettingsforBayerSATEP24ChiFeature2RequestObjectPK21ChiFeature2IdentifierP11ChiMetadata+0x234>
   45514: 42 fe ff d0  	adrp	x2, 0xf000 <_ZNK18ChiFeature2Generic40PopulateConfigurationSettingsforBayerSATEP24ChiFeature2RequestObjectPK21ChiFeature2IdentifierP11ChiMetadata+0x22c>
   45518: 45 fe ff 90  	adrp	x5, 0xd000 <_ZNK18ChiFeature2Generic40PopulateConfigurationSettingsforBayerSATEP24ChiFeature2RequestObjectPK21ChiFeature2IdentifierP11ChiMetadata+0x228>
   45538: 55 fe ff f0  	adrp	x21, 0x10000 <_ZNK18ChiFeature2Generic40PopulateConfigurationSettingsforBayerSATEP24ChiFeature2RequestObjectPK21ChiFeature2IdentifierP11ChiMetadata+0x254>
   45554: 41 fe ff 90  	adrp	x1, 0xd000 <_ZNK18ChiFeature2Generic40PopulateConfigurationSettingsforBayerSATEP24ChiFeature2RequestObjectPK21ChiFeature2IdentifierP11ChiMetadata+0x264>
   4555c: 40 fe ff f0  	adrp	x0, 0x10000 <_ZNK18ChiFeature2Generic40PopulateConfigurationSettingsforBayerSATEP24ChiFeature2RequestObjectPK21ChiFeature2IdentifierP11ChiMetadata+0x278>
   45560: 43 fe ff 90  	adrp	x3, 0xd000 <_ZNK18ChiFeature2Generic40PopulateConfigurationSettingsforBayerSATEP24ChiFeature2RequestObjectPK21ChiFeature2IdentifierP11ChiMetadata+0x270>
   45564: 45 fe ff b0  	adrp	x5, 0xe000 <_ZNK18ChiFeature2Generic40PopulateConfigurationSettingsforBayerSATEP24ChiFeature2RequestObjectPK21ChiFeature2IdentifierP11ChiMetadata+0x278>
   4557c: 05 6f 00 94  	bl	0x61190 <_ZN6ChiLog9LogSystemEPKcS1_S1_S1_iS1_z@plt>
   4558c: 41 01 00 54  	b.ne	0x455b4 <_ZNK18ChiFeature2Generic40PopulateConfigurationSettingsforBayerSATEP24ChiFeature2RequestObjectPK21ChiFeature2IdentifierP11ChiMetadata+0x3a4>
   455e4: e0 01 00 54  	b.eq	0x45620 <_ZNK18ChiFeature2Generic40PopulateConfigurationSettingsforBayerSATEP24ChiFeature2RequestObjectPK21ChiFeature2IdentifierP11ChiMetadata+0x410>
   4563c: 42 07 00 54  	b.hs	0x45724 <_ZNK18ChiFeature2Generic40PopulateConfigurationSettingsforBayerSATEP24ChiFeature2RequestObjectPK21ChiFeature2IdentifierP11ChiMetadata+0x514>
   4564c: e8 06 00 54  	b.hi	0x45728 <_ZNK18ChiFeature2Generic40PopulateConfigurationSettingsforBayerSATEP24ChiFeature2RequestObjectPK21ChiFeature2IdentifierP11ChiMetadata+0x518>
   4566c: a8 00 00 54  	b.hi	0x45680 <_ZNK18ChiFeature2Generic40PopulateConfigurationSettingsforBayerSATEP24ChiFeature2RequestObjectPK21ChiFeature2IdentifierP11ChiMetadata+0x470>
   4567c: f9 04 00 b4  	cbz	x25, 0x45718 <_ZNK18ChiFeature2Generic40PopulateConfigurationSettingsforBayerSATEP24ChiFeature2RequestObjectPK21ChiFeature2IdentifierP11ChiMetadata+0x508>
   456b0: 4b 01 00 54  	b.lt	0x456d8 <_ZNK18ChiFeature2Generic40PopulateConfigurationSettingsforBayerSATEP24ChiFeature2RequestObjectPK21ChiFeature2IdentifierP11ChiMetadata+0x4c8>
   456c0: 01 03 00 54  	b.ne	0x45720 <_ZNK18ChiFeature2Generic40PopulateConfigurationSettingsforBayerSATEP24ChiFeature2RequestObjectPK21ChiFeature2IdentifierP11ChiMetadata+0x510>
   456e8: f4 f8 ff b4  	cbz	x20, 0x45604 <_ZNK18ChiFeature2Generic40PopulateConfigurationSettingsforBayerSATEP24ChiFeature2RequestObjectPK21ChiFeature2IdentifierP11ChiMetadata+0x3f4>
   456f4: 76 01 00 b5  	cbnz	x22, 0x45720 <_ZNK18ChiFeature2Generic40PopulateConfigurationSettingsforBayerSATEP24ChiFeature2RequestObjectPK21ChiFeature2IdentifierP11ChiMetadata+0x510>
   4571c: de ff ff 17  	b	0x45694 <_ZNK18ChiFeature2Generic40PopulateConfigurationSettingsforBayerSATEP24ChiFeature2RequestObjectPK21ChiFeature2IdentifierP11ChiMetadata+0x484>
   4572c: 3d 6f 00 94  	bl	0x61420 <_ZNKSt3__120__vector_base_commonILb1EE20__throw_length_errorEv@plt>
0000000000045730 <_ZN18ChiFeature2Generic19CreateROITranslatorEP21ChiFeature2Identifier>:
   45754: f5 00 00 f0  	adrp	x21, 0x64000 <_ZN18ChiFeature2Generic19CreateROITranslatorEP21ChiFeature2Identifier+0xa0>
   45780: 41 02 00 54  	b.ne	0x457c8 <_ZN18ChiFeature2Generic19CreateROITranslatorEP21ChiFeature2Identifier+0x98>
   45788: 41 03 00 54  	b.ne	0x457f0 <_ZN18ChiFeature2Generic19CreateROITranslatorEP21ChiFeature2Identifier+0xc0>
   4578c: f4 03 00 b4  	cbz	x20, 0x45808 <_ZN18ChiFeature2Generic19CreateROITranslatorEP21ChiFeature2Identifier+0xd8>
   457a0: 42 03 00 54  	b.hs	0x45808 <_ZN18ChiFeature2Generic19CreateROITranslatorEP21ChiFeature2Identifier+0xd8>
   457a8: 0a 03 00 b4  	cbz	x10, 0x45808 <_ZN18ChiFeature2Generic19CreateROITranslatorEP21ChiFeature2Identifier+0xd8>
   457bc: 62 02 00 54  	b.hs	0x45808 <_ZN18ChiFeature2Generic19CreateROITranslatorEP21ChiFeature2Identifier+0xd8>
   457c4: 12 00 00 14  	b	0x4580c <_ZN18ChiFeature2Generic19CreateROITranslatorEP21ChiFeature2Identifier+0xdc>
   457ec: 00 fd ff 54  	b.eq	0x4578c <_ZN18ChiFeature2Generic19CreateROITranslatorEP21ChiFeature2Identifier+0x5c>
   45804: 74 fc ff b5  	cbnz	x20, 0x45790 <_ZN18ChiFeature2Generic19CreateROITranslatorEP21ChiFeature2Identifier+0x60>
   45818: 81 0c 00 54  	b.ne	0x459a8 <_ZN18ChiFeature2Generic19CreateROITranslatorEP21ChiFeature2Identifier+0x278>
   45820: 68 09 00 b4  	cbz	x8, 0x4594c <_ZN18ChiFeature2Generic19CreateROITranslatorEP21ChiFeature2Identifier+0x21c>
   45828: 35 09 00 b4  	cbz	x21, 0x4594c <_ZN18ChiFeature2Generic19CreateROITranslatorEP21ChiFeature2Identifier+0x21c>
   45830: 4d 03 00 b4  	cbz	x13, 0x45898 <_ZN18ChiFeature2Generic19CreateROITranslatorEP21ChiFeature2Identifier+0x168>
   45844: 03 6f 00 94  	bl	0x61450 <_ZN16ChiFeature2Utils37FillMcxSensorModeArrayForInSensorZoomEP17LogicalCameraInfojRNSt3__113unordered_mapI16ChiMcxSensorModejNS4_15ChiHashFunctionENS2_8equal_toIS4_EENS2_9allocatorINS2_4pairIKS4_jEEEEEE@plt>
   4584c: a0 02 00 54  	b.eq	0x458a0 <_ZN18ChiFeature2Generic19CreateROITranslatorEP21ChiFeature2Identifier+0x170>
   45854: c0 07 00 35  	cbnz	w0, 0x4594c <_ZN18ChiFeature2Generic19CreateROITranslatorEP21ChiFeature2Identifier+0x21c>
   4585c: 01 6f 00 94  	bl	0x61460 <_ZN19ChiMcxRoiTranslator6CreateEPK17LogicalCameraInfo@plt>
   45860: 70 fe ff d0  	adrp	x16, 0x13000 <_ZN18ChiFeature2Generic19CreateROITranslatorEP21ChiFeature2Identifier+0x68>
   4587c: 60 06 00 b4  	cbz	x0, 0x45948 <_ZN18ChiFeature2Generic19CreateROITranslatorEP21ChiFeature2Identifier+0x218>
   4588c: f9 6e 00 94  	bl	0x61470 <_ZN19ChiMcxRoiTranslator9ConfigureERNSt3__113unordered_mapI16ChiMcxSensorModejNS2_15ChiHashFunctionENS0_8equal_toIS2_EENS0_9allocatorINS0_4pairIKS2_jEEEEEEP22ChiMcxLayoutDescriptorRK25ChiROIConfigurationParams@plt>
   45894: 2e 00 00 14  	b	0x4594c <_ZN18ChiFeature2Generic19CreateROITranslatorEP21ChiFeature2Identifier+0x21c>
   4589c: 2c 00 00 14  	b	0x4594c <_ZN18ChiFeature2Generic19CreateROITranslatorEP21ChiFeature2Identifier+0x21c>
   458a0: f1 00 00 f0  	adrp	x17, 0x64000 <_ZN18ChiFeature2Generic19CreateROITranslatorEP21ChiFeature2Identifier+0x1ec>
   458ac: ea 04 30 36  	tbz	w10, #6, 0x45948 <_ZN18ChiFeature2Generic19CreateROITranslatorEP21ChiFeature2Identifier+0x218>
   458b0: e1 00 00 f0  	adrp	x1, 0x64000 <_ZN18ChiFeature2Generic19CreateROITranslatorEP21ChiFeature2Identifier+0x1fc>
   458b4: 53 fe ff f0  	adrp	x19, 0x10000 <_ZN18ChiFeature2Generic19CreateROITranslatorEP21ChiFeature2Identifier+0xb0>
   458c8: 01 02 00 54  	b.ne	0x45908 <_ZN18ChiFeature2Generic19CreateROITranslatorEP21ChiFeature2Identifier+0x1d8>
   458e0: 61 fe ff b0  	adrp	x1, 0x12000 <_ZN18ChiFeature2Generic19CreateROITranslatorEP21ChiFeature2Identifier+0xe4>
   458e4: 62 fe ff b0  	adrp	x2, 0x12000 <_ZN18ChiFeature2Generic19CreateROITranslatorEP21ChiFeature2Identifier+0xe8>
   458e8: 25 fe ff d0  	adrp	x5, 0xb000 <_ZN18ChiFeature2Generic19CreateROITranslatorEP21ChiFeature2Identifier+0xd0>
   4591c: 21 fe ff f0  	adrp	x1, 0xc000 <_ZN18ChiFeature2Generic19CreateROITranslatorEP21ChiFeature2Identifier+0x108>
   45924: 60 fe ff 90  	adrp	x0, 0x11000 <_ZN18ChiFeature2Generic19CreateROITranslatorEP21ChiFeature2Identifier+0x124>
   45928: 23 fe ff d0  	adrp	x3, 0xb000 <_ZN18ChiFeature2Generic19CreateROITranslatorEP21ChiFeature2Identifier+0x110>
   4592c: 65 fe ff b0  	adrp	x5, 0x12000 <_ZN18ChiFeature2Generic19CreateROITranslatorEP21ChiFeature2Identifier+0x130>
   45944: 13 6e 00 94  	bl	0x61190 <_ZN6ChiLog9LogSystemEPKcS1_S1_S1_iS1_z@plt>
   45950: a0 00 00 b4  	cbz	x0, 0x45964 <_ZN18ChiFeature2Generic19CreateROITranslatorEP21ChiFeature2Identifier+0x234>
   45960: b3 ff ff b5  	cbnz	x19, 0x45954 <_ZN18ChiFeature2Generic19CreateROITranslatorEP21ChiFeature2Identifier+0x224>
   4596c: a0 00 00 b4  	cbz	x0, 0x45980 <_ZN18ChiFeature2Generic19CreateROITranslatorEP21ChiFeature2Identifier+0x250>
   45978: f1 02 00 b5  	cbnz	x17, 0x459d4 <_ZN18ChiFeature2Generic19CreateROITranslatorEP21ChiFeature2Identifier+0x2a4>
   4598c: 21 02 00 54  	b.ne	0x459d0 <_ZN18ChiFeature2Generic19CreateROITranslatorEP21ChiFeature2Identifier+0x2a0>
   459c8: e8 f2 ff b5  	cbnz	x8, 0x45824 <_ZN18ChiFeature2Generic19CreateROITranslatorEP21ChiFeature2Identifier+0xf4>
   459cc: e0 ff ff 17  	b	0x4594c <_ZN18ChiFeature2Generic19CreateROITranslatorEP21ChiFeature2Identifier+0x21c>
   45a08: 80 01 00 54  	b.eq	0x45a38 <_ZN18ChiFeature2Generic19CreateROITranslatorEP21ChiFeature2Identifier+0x308>
   45a48: 82 05 00 54  	b.hs	0x45af8 <_ZN18ChiFeature2Generic19CreateROITranslatorEP21ChiFeature2Identifier+0x3c8>
   45a50: 6c 05 00 b5  	cbnz	x12, 0x45afc <_ZN18ChiFeature2Generic19CreateROITranslatorEP21ChiFeature2Identifier+0x3cc>
   45a64: e8 00 00 54  	b.hi	0x45a80 <_ZN18ChiFeature2Generic19CreateROITranslatorEP21ChiFeature2Identifier+0x350>
   45a74: 9a 00 00 b5  	cbnz	x26, 0x45a84 <_ZN18ChiFeature2Generic19CreateROITranslatorEP21ChiFeature2Identifier+0x354>
   45a7c: 06 00 00 14  	b	0x45a94 <_ZN18ChiFeature2Generic19CreateROITranslatorEP21ChiFeature2Identifier+0x364>
   45aa4: eb 00 00 54  	b.lt	0x45ac0 <_ZN18ChiFeature2Generic19CreateROITranslatorEP21ChiFeature2Identifier+0x390>
   45aac: 41 02 00 54  	b.ne	0x45af4 <_ZN18ChiFeature2Generic19CreateROITranslatorEP21ChiFeature2Identifier+0x3c4>
   45acc: b4 fa ff b4  	cbz	x20, 0x45a20 <_ZN18ChiFeature2Generic19CreateROITranslatorEP21ChiFeature2Identifier+0x2f0>
   45ad4: 11 01 00 b5  	cbnz	x17, 0x45af4 <_ZN18ChiFeature2Generic19CreateROITranslatorEP21ChiFeature2Identifier+0x3c4>
   45b00: 48 6e 00 94  	bl	0x61420 <_ZNKSt3__120__vector_base_commonILb1EE20__throw_length_errorEv@plt>
   45b14: 80 01 00 b4  	cbz	x0, 0x45b44 <_ZN18ChiFeature2Generic19CreateROITranslatorEP21ChiFeature2Identifier+0x414>
   45b1c: 48 01 00 34  	cbz	w8, 0x45b44 <_ZN18ChiFeature2Generic19CreateROITranslatorEP21ChiFeature2Identifier+0x414>
   45b34: ac 06 00 37  	tbnz	w12, #0, 0x45c08 <_ZN18ChiFeature2Generic19CreateROITranslatorEP21ChiFeature2Identifier+0x4d8>
   45b40: 48 ff ff 54  	b.hi	0x45b28 <_ZN18ChiFeature2Generic19CreateROITranslatorEP21ChiFeature2Identifier+0x3f8>
   45b48: e8 00 00 f0  	adrp	x8, 0x64000 <_ZN18ChiFeature2Generic19CreateROITranslatorEP21ChiFeature2Identifier+0x494>
   45b54: 2b 05 18 36  	tbz	w11, #3, 0x45bf8 <_ZN18ChiFeature2Generic19CreateROITranslatorEP21ChiFeature2Identifier+0x4c8>
   45b58: ed 00 00 f0  	adrp	x13, 0x64000 <_ZN18ChiFeature2Generic19CreateROITranslatorEP21ChiFeature2Identifier+0x4a4>
   45b5c: 34 fe ff f0  	adrp	x20, 0xc000 <_ZN18ChiFeature2Generic19CreateROITranslatorEP21ChiFeature2Identifier+0x348>
   45b70: 21 02 00 54  	b.ne	0x45bb4 <_ZN18ChiFeature2Generic19CreateROITranslatorEP21ChiFeature2Identifier+0x484>
   45b88: 61 fe ff b0  	adrp	x1, 0x12000 <_ZN18ChiFeature2Generic19CreateROITranslatorEP21ChiFeature2Identifier+0x38c>
   45b8c: 42 fe ff f0  	adrp	x2, 0x10000 <_ZN18ChiFeature2Generic19CreateROITranslatorEP21ChiFeature2Identifier+0x388>
   45b90: 65 fe ff d0  	adrp	x5, 0x13000 <_ZN18ChiFeature2Generic19CreateROITranslatorEP21ChiFeature2Identifier+0x398>
   45bc8: 41 fe ff d0  	adrp	x1, 0xf000 <_ZN18ChiFeature2Generic19CreateROITranslatorEP21ChiFeature2Identifier+0x3c0>
   45bd0: 60 fe ff d0  	adrp	x0, 0x13000 <_ZN18ChiFeature2Generic19CreateROITranslatorEP21ChiFeature2Identifier+0x3d8>
   45bd4: 63 fe ff d0  	adrp	x3, 0x13000 <_ZN18ChiFeature2Generic19CreateROITranslatorEP21ChiFeature2Identifier+0x3dc>
   45bd8: 65 fe ff 90  	adrp	x5, 0x11000 <_ZN18ChiFeature2Generic19CreateROITranslatorEP21ChiFeature2Identifier+0x3d8>
   45bf4: 67 6d 00 94  	bl	0x61190 <_ZN6ChiLog9LogSystemEPKcS1_S1_S1_iS1_z@plt>
   45c14: 21 01 00 54  	b.ne	0x45c38 <_ZN18ChiFeature2Generic19CreateROITranslatorEP21ChiFeature2Identifier+0x508>
   45c20: 43 01 00 54  	b.lo	0x45c48 <_ZN18ChiFeature2Generic19CreateROITranslatorEP21ChiFeature2Identifier+0x518>
   45c2c: e9 00 00 54  	b.ls	0x45c48 <_ZN18ChiFeature2Generic19CreateROITranslatorEP21ChiFeature2Identifier+0x518>
   45c34: c5 ff ff 17  	b	0x45b48 <_ZN18ChiFeature2Generic19CreateROITranslatorEP21ChiFeature2Identifier+0x418>
   45c44: c1 ff ff 17  	b	0x45b48 <_ZN18ChiFeature2Generic19CreateROITranslatorEP21ChiFeature2Identifier+0x418>
   45c4c: bf ff ff 17  	b	0x45b48 <_ZN18ChiFeature2Generic19CreateROITranslatorEP21ChiFeature2Identifier+0x418>
   45c74: a0 07 00 34  	cbz	w0, 0x45d68 <_ZN18ChiFeature2Generic19CreateROITranslatorEP21ChiFeature2Identifier+0x638>
   45c98: 04 00 00 14  	b	0x45ca8 <_ZN18ChiFeature2Generic19CreateROITranslatorEP21ChiFeature2Identifier+0x578>
   45ca4: 60 06 00 54  	b.eq	0x45d70 <_ZN18ChiFeature2Generic19CreateROITranslatorEP21ChiFeature2Identifier+0x640>
   45cac: 79 01 00 b4  	cbz	x25, 0x45cd8 <_ZN18ChiFeature2Generic19CreateROITranslatorEP21ChiFeature2Identifier+0x5a8>
   45cb4: 20 01 00 b4  	cbz	x0, 0x45cd8 <_ZN18ChiFeature2Generic19CreateROITranslatorEP21ChiFeature2Identifier+0x5a8>
   45cc0: c0 00 00 b4  	cbz	x0, 0x45cd8 <_ZN18ChiFeature2Generic19CreateROITranslatorEP21ChiFeature2Identifier+0x5a8>
   45cd0: 61 fe ff 54  	b.ne	0x45c9c <_ZN18ChiFeature2Generic19CreateROITranslatorEP21ChiFeature2Identifier+0x56c>
   45cd4: 04 00 00 14  	b	0x45ce4 <_ZN18ChiFeature2Generic19CreateROITranslatorEP21ChiFeature2Identifier+0x5b4>
   45ce0: e1 fd ff 54  	b.ne	0x45c9c <_ZN18ChiFeature2Generic19CreateROITranslatorEP21ChiFeature2Identifier+0x56c>
   45cec: a0 00 00 54  	b.eq	0x45d00 <_ZN18ChiFeature2Generic19CreateROITranslatorEP21ChiFeature2Identifier+0x5d0>
   45cf0: e8 00 00 35  	cbnz	w8, 0x45d0c <_ZN18ChiFeature2Generic19CreateROITranslatorEP21ChiFeature2Identifier+0x5dc>
   45cfc: 83 00 00 54  	b.lo	0x45d0c <_ZN18ChiFeature2Generic19CreateROITranslatorEP21ChiFeature2Identifier+0x5dc>
   45d08: 07 00 00 14  	b	0x45d24 <_ZN18ChiFeature2Generic19CreateROITranslatorEP21ChiFeature2Identifier+0x5f4>
   45d10: e4 6d 00 94  	bl	0x614a0 <_ZN15UsecaseSelector15IsPreviewStreamEPK14camera3_stream@plt>
   45d1c: e5 6d 00 94  	bl	0x614b0 <_ZN15UsecaseSelector13IsVideoStreamEPK14camera3_stream@plt>
   45d34: 60 00 00 54  	b.eq	0x45d40 <_ZN18ChiFeature2Generic19CreateROITranslatorEP21ChiFeature2Identifier+0x610>
   45d3c: 0c fb ff 34  	cbz	w12, 0x45c9c <_ZN18ChiFeature2Generic19CreateROITranslatorEP21ChiFeature2Identifier+0x56c>
   45d48: a9 fa ff 54  	b.ls	0x45c9c <_ZN18ChiFeature2Generic19CreateROITranslatorEP21ChiFeature2Identifier+0x56c>
   45d64: ce ff ff 17  	b	0x45c9c <_ZN18ChiFeature2Generic19CreateROITranslatorEP21ChiFeature2Identifier+0x56c>
   45d70: e8 00 00 f0  	adrp	x8, 0x64000 <_ZN18ChiFeature2Generic19CreateROITranslatorEP21ChiFeature2Identifier+0x6bc>
   45d80: ab 05 28 36  	tbz	w11, #5, 0x45e34 <_ZN18ChiFeature2Generic19CreateROITranslatorEP21ChiFeature2Identifier+0x704>
   45d84: e9 00 00 f0  	adrp	x9, 0x64000 <_ZN18ChiFeature2Generic19CreateROITranslatorEP21ChiFeature2Identifier+0x6d0>
   45d88: 38 fe ff f0  	adrp	x24, 0xc000 <_ZN18ChiFeature2Generic19CreateROITranslatorEP21ChiFeature2Identifier+0x574>
   45d9c: 61 02 00 54  	b.ne	0x45de8 <_ZN18ChiFeature2Generic19CreateROITranslatorEP21ChiFeature2Identifier+0x6b8>
   45db4: 61 fe ff b0  	adrp	x1, 0x12000 <_ZN18ChiFeature2Generic19CreateROITranslatorEP21ChiFeature2Identifier+0x5b8>
   45db8: 42 fe ff f0  	adrp	x2, 0x10000 <_ZN18ChiFeature2Generic19CreateROITranslatorEP21ChiFeature2Identifier+0x5b4>
   45dbc: 45 fe ff d0  	adrp	x5, 0xf000 <_ZN18ChiFeature2Generic19CreateROITranslatorEP21ChiFeature2Identifier+0x5b4>
   45dfc: 41 fe ff f0  	adrp	x1, 0x10000 <_ZN18ChiFeature2Generic19CreateROITranslatorEP21ChiFeature2Identifier+0x5f8>
   45e04: 60 fe ff b0  	adrp	x0, 0x12000 <_ZN18ChiFeature2Generic19CreateROITranslatorEP21ChiFeature2Identifier+0x608>
   45e08: 43 fe ff d0  	adrp	x3, 0xf000 <_ZN18ChiFeature2Generic19CreateROITranslatorEP21ChiFeature2Identifier+0x600>
   45e0c: 25 fe ff d0  	adrp	x5, 0xb000 <_ZN18ChiFeature2Generic19CreateROITranslatorEP21ChiFeature2Identifier+0x5f4>
   45e30: d8 6c 00 94  	bl	0x61190 <_ZN6ChiLog9LogSystemEPKcS1_S1_S1_iS1_z@plt>
0000000000045e60 <_ZN18ChiFeature2GenericD2Ev>:
   45e60: fc 6c 00 14  	b	0x61250 <_ZN15ChiFeature2BaseD2Ev@plt>
   45e68: 96 6d 00 14  	b	0x614c0 <_ZN18ChiFeature2Generic6CreateEP26ChiFeature2CreateInputInfo@plt>
   45e94: e0 09 00 b4  	cbz	x0, 0x45fd0 <_ZN18ChiFeature2GenericD2Ev+0x170>
   45eb8: 86 6d 00 94  	bl	0x614d0 <_ZN15UsecaseSelector30GetSnapshotStreamConfigurationEjPP9ChiStreamR20SnapshotStreamConfig@plt>
   45ec0: eb 00 00 f0  	adrp	x11, 0x64000 <_ZN18ChiFeature2GenericD2Ev+0xdc>
   45ed8: 68 05 18 36  	tbz	w8, #3, 0x45f84 <_ZN18ChiFeature2GenericD2Ev+0x124>
   45edc: ec 00 00 f0  	adrp	x12, 0x64000 <_ZN18ChiFeature2GenericD2Ev+0xf8>
   45ee0: 55 fe ff f0  	adrp	x21, 0x10000 <_ZN18ChiFeature2Generic19CreateROITranslatorEP21ChiFeature2Identifier+0x6dc>
   45ef4: 41 02 00 54  	b.ne	0x45f3c <_ZN18ChiFeature2GenericD2Ev+0xdc>
   45f10: 61 fe ff b0  	adrp	x1, 0x12000 <_ZN18ChiFeature2Generic19CreateROITranslatorEP21ChiFeature2Identifier+0x714>
   45f14: 22 fe ff d0  	adrp	x2, 0xb000 <_ZN18ChiFeature2Generic19CreateROITranslatorEP21ChiFeature2Identifier+0x6fc>
   45f18: 45 fe ff 90  	adrp	x5, 0xd000 <_ZN18ChiFeature2Generic19CreateROITranslatorEP21ChiFeature2Identifier+0x708>
   45f58: 60 fe ff d0  	adrp	x0, 0x13000 <_ZN18ChiFeature2GenericD2Ev+0x30>
   45f5c: 41 fe ff d0  	adrp	x1, 0xf000 <_ZN18ChiFeature2GenericD2Ev+0x24>
   45f60: 43 fe ff 90  	adrp	x3, 0xd000 <_ZN18ChiFeature2GenericD2Ev+0x20>
   45f64: 45 fe ff b0  	adrp	x5, 0xe000 <_ZN18ChiFeature2GenericD2Ev+0x28>
   45f80: 84 6c 00 94  	bl	0x61190 <_ZN6ChiLog9LogSystemEPKcS1_S1_S1_iS1_z@plt>
   45f88: 08 01 00 b0  	adrp	x8, 0x66000 <_ZN18ChiFeature2GenericD2Ev+0x1ac>
   45f94: 60 00 00 54  	b.eq	0x45fa0 <_ZN18ChiFeature2GenericD2Ev+0x140>
   45f9c: a1 00 00 54  	b.ne	0x45fb0 <_ZN18ChiFeature2GenericD2Ev+0x150>
   45fa0: 09 01 00 b0  	adrp	x9, 0x66000 <_ZN18ChiFeature2GenericD2Ev+0x1c4>
   45fb0: 13 01 00 b4  	cbz	x19, 0x45fd0 <_ZN18ChiFeature2GenericD2Ev+0x170>
   45fcc: 02 00 00 14  	b	0x45fd4 <_ZN18ChiFeature2GenericD2Ev+0x174>
   45fe0: e1 00 00 54  	b.ne	0x45ffc <_ZN18ChiFeature2GenericD2Ev+0x19c>
   46088: 4a 6c 00 94  	bl	0x611b0 <_ZN15ExtensionModule11GetInstanceEv@plt>
   4609c: 08 3b 00 54  	b.hi	0x467fc <_ZN18ChiFeature2GenericD2Ev+0x99c>
   460bc: 00 3a 00 54  	b.eq	0x467fc <_ZN18ChiFeature2GenericD2Ev+0x99c>
   460dc: 08 01 00 34  	cbz	w8, 0x460fc <_ZN18ChiFeature2GenericD2Ev+0x29c>
   46114: f3 6c 00 94  	bl	0x614e0 <_ZN16ChiFeature2Utils19MapStreamPerFeatureEPP9ChiStreamhPK21ChiFeature2InstanceIdPK17LogicalCameraInfoRNSt3__113unordered_mapIS1_15ChiFeature2TypeNS9_4hashIS1_EENS9_8equal_toIS1_EENS9_9allocatorINS9_4pairIKS1_SB_EEEEEE@plt>
   46168: e0 00 00 54  	b.eq	0x46184 <_ZN18ChiFeature2GenericD2Ev+0x324>
   4616c: 8e 04 00 35  	cbnz	w14, 0x461fc <_ZN18ChiFeature2GenericD2Ev+0x39c>
   46170: 76 04 00 34  	cbz	w22, 0x461fc <_ZN18ChiFeature2GenericD2Ev+0x39c>
   4617c: 62 00 00 54  	b.hs	0x46188 <_ZN18ChiFeature2GenericD2Ev+0x328>
   46180: 1f 00 00 14  	b	0x461fc <_ZN18ChiFeature2GenericD2Ev+0x39c>
   46184: d6 03 00 34  	cbz	w22, 0x461fc <_ZN18ChiFeature2GenericD2Ev+0x39c>
   46190: 05 00 00 14  	b	0x461a4 <_ZN18ChiFeature2GenericD2Ev+0x344>
   461a0: c9 02 00 54  	b.ls	0x461f8 <_ZN18ChiFeature2GenericD2Ev+0x398>
   461b8: e0 fe ff 54  	b.eq	0x46194 <_ZN18ChiFeature2GenericD2Ev+0x334>
   461bc: cd 6c 00 94  	bl	0x614f0 <_ZN15UsecaseSelector19IsYUVSnapshotStreamEPK14camera3_stream@plt>
   461c4: a1 fe ff 54  	b.ne	0x46198 <_ZN18ChiFeature2GenericD2Ev+0x338>
   461d8: 40 03 00 94  	bl	0x46ed8 <_ZN18ChiFeature2GenericD2Ev+0x1078>
   461e0: c1 fd ff 54  	b.ne	0x46198 <_ZN18ChiFeature2GenericD2Ev+0x338>
   461f0: 82 03 00 94  	bl	0x46ff8 <_ZN18ChiFeature2GenericD2Ev+0x1198>
   461f4: e9 ff ff 17  	b	0x46198 <_ZN18ChiFeature2GenericD2Ev+0x338>
   461f8: bc 00 00 35  	cbnz	w28, 0x4620c <_ZN18ChiFeature2GenericD2Ev+0x3ac>
   46208: 40 00 00 54  	b.eq	0x46210 <_ZN18ChiFeature2GenericD2Ev+0x3b0>
   4620c: d4 01 00 34  	cbz	w20, 0x46244 <_ZN18ChiFeature2GenericD2Ev+0x3e4>
   46224: 88 00 00 54  	b.hi	0x46234 <_ZN18ChiFeature2GenericD2Ev+0x3d4>
   46230: c8 00 00 54  	b.hi	0x46248 <_ZN18ChiFeature2GenericD2Ev+0x3e8>
   46238: ba 03 00 94  	bl	0x47120 <_ZN18ChiFeature2GenericD2Ev+0x12c0>
   46240: 03 00 00 14  	b	0x4624c <_ZN18ChiFeature2GenericD2Ev+0x3ec>
   46258: a0 00 00 54  	b.eq	0x4626c <_ZN18ChiFeature2GenericD2Ev+0x40c>
   4625c: 0d 0a 00 35  	cbnz	w13, 0x4639c <_ZN18ChiFeature2GenericD2Ev+0x53c>
   46268: a3 09 00 54  	b.lo	0x4639c <_ZN18ChiFeature2GenericD2Ev+0x53c>
   46270: 96 03 00 34  	cbz	w22, 0x462e0 <_ZN18ChiFeature2GenericD2Ev+0x480>
   4627c: 09 00 00 14  	b	0x462a0 <_ZN18ChiFeature2GenericD2Ev+0x440>
   4629c: 29 02 00 54  	b.ls	0x462e0 <_ZN18ChiFeature2GenericD2Ev+0x480>
   462b4: 09 03 00 94  	bl	0x46ed8 <_ZN18ChiFeature2GenericD2Ev+0x1078>
   462bc: 20 fe ff 54  	b.eq	0x46280 <_ZN18ChiFeature2GenericD2Ev+0x420>
   462d0: 02 03 00 94  	bl	0x46ed8 <_ZN18ChiFeature2GenericD2Ev+0x1078>
   462d8: 40 fd ff 54  	b.eq	0x46280 <_ZN18ChiFeature2GenericD2Ev+0x420>
   462dc: ee ff ff 17  	b	0x46294 <_ZN18ChiFeature2GenericD2Ev+0x434>
   462e0: e7 00 00 d0  	adrp	x7, 0x64000 <_ZN18ChiFeature2GenericD2Ev+0x4f8>
   462ec: b5 05 28 36  	tbz	w21, #5, 0x463a0 <_ZN18ChiFeature2GenericD2Ev+0x540>
   462f0: e9 00 00 d0  	adrp	x9, 0x64000 <_ZN18ChiFeature2GenericD2Ev+0x508>
   46300: 61 02 00 54  	b.ne	0x4634c <_ZN18ChiFeature2GenericD2Ev+0x4ec>
   46304: 5a fe ff d0  	adrp	x26, 0x10000 <_ZN18ChiFeature2GenericD2Ev+0x3cc>
   46320: 61 fe ff 90  	adrp	x1, 0x12000 <_ZN18ChiFeature2GenericD2Ev+0x3f0>
   46324: 22 fe ff b0  	adrp	x2, 0xb000 <_ZN18ChiFeature2GenericD2Ev+0x3d8>
   46328: 25 fe ff d0  	adrp	x5, 0xc000 <_ZN18ChiFeature2GenericD2Ev+0x3e0>
   4634c: 58 fe ff d0  	adrp	x24, 0x10000 <_ZN18ChiFeature2GenericD2Ev+0x414>
   46368: 41 fe ff d0  	adrp	x1, 0x10000 <_ZN18ChiFeature2GenericD2Ev+0x430>
   46370: 60 fe ff 90  	adrp	x0, 0x12000 <_ZN18ChiFeature2GenericD2Ev+0x440>
   46374: 23 fe ff d0  	adrp	x3, 0xc000 <_ZN18ChiFeature2GenericD2Ev+0x42c>
   46378: 25 fe ff f0  	adrp	x5, 0xd000 <_ZN18ChiFeature2GenericD2Ev+0x434>
   46394: 7f 6b 00 94  	bl	0x61190 <_ZN6ChiLog9LogSystemEPKcS1_S1_S1_iS1_z@plt>
   46398: 02 00 00 14  	b	0x463a0 <_ZN18ChiFeature2GenericD2Ev+0x540>
   463a8: 96 1c 00 34  	cbz	w22, 0x46738 <_ZN18ChiFeature2GenericD2Ev+0x8d8>
   463ac: 5c fe ff d0  	adrp	x28, 0x10000 <_ZN18ChiFeature2GenericD2Ev+0x474>
   463d8: 09 00 00 14  	b	0x463fc <_ZN18ChiFeature2GenericD2Ev+0x59c>
   463e0: 7e 04 00 94  	bl	0x475d8 <_ZN18ChiFeature2GenericD2Ev+0x1778>
   463f8: 29 1a 00 54  	b.ls	0x4673c <_ZN18ChiFeature2GenericD2Ev+0x8dc>
   46430: aa 02 00 94  	bl	0x46ed8 <_ZN18ChiFeature2GenericD2Ev+0x1078>
   46438: 20 01 00 54  	b.eq	0x4645c <_ZN18ChiFeature2GenericD2Ev+0x5fc>
   46450: a2 02 00 94  	bl	0x46ed8 <_ZN18ChiFeature2GenericD2Ev+0x1078>
   46458: e1 0c 00 54  	b.ne	0x465f4 <_ZN18ChiFeature2GenericD2Ev+0x794>
   4646c: 88 00 00 54  	b.hi	0x4647c <_ZN18ChiFeature2GenericD2Ev+0x61c>
   46478: e8 0b 00 54  	b.hi	0x465f4 <_ZN18ChiFeature2GenericD2Ev+0x794>
   46480: a0 00 00 54  	b.eq	0x46494 <_ZN18ChiFeature2GenericD2Ev+0x634>
   46484: cb fa ff 35  	cbnz	w11, 0x463dc <_ZN18ChiFeature2GenericD2Ev+0x57c>
   46490: 63 fa ff 54  	b.lo	0x463dc <_ZN18ChiFeature2GenericD2Ev+0x57c>
   46498: 23 fa ff b4  	cbz	x3, 0x463dc <_ZN18ChiFeature2GenericD2Ev+0x57c>
   464a4: c3 f9 ff 54  	b.lo	0x463dc <_ZN18ChiFeature2GenericD2Ev+0x57c>
   464b0: 61 f9 ff 54  	b.ne	0x463dc <_ZN18ChiFeature2GenericD2Ev+0x57c>
   464b4: e0 00 00 d0  	adrp	x0, 0x64000 <_ZN18ChiFeature2GenericD2Ev+0x6cc>
   464c0: c7 06 18 36  	tbz	w7, #3, 0x46598 <_ZN18ChiFeature2GenericD2Ev+0x738>
   464c4: e1 00 00 d0  	adrp	x1, 0x64000 <_ZN18ChiFeature2GenericD2Ev+0x6dc>
   464d4: 01 03 00 54  	b.ne	0x46534 <_ZN18ChiFeature2GenericD2Ev+0x6d4>
   464f4: 61 fe ff 90  	adrp	x1, 0x12000 <_ZN18ChiFeature2GenericD2Ev+0x5c4>
   464fc: 25 fe ff d0  	adrp	x5, 0xc000 <_ZN18ChiFeature2GenericD2Ev+0x5b4>
   46514: 22 fe ff b0  	adrp	x2, 0xb000 <_ZN18ChiFeature2GenericD2Ev+0x5c8>
   46558: 60 fe ff b0  	adrp	x0, 0x13000 <_ZN18ChiFeature2GenericD2Ev+0x62c>
   4655c: 23 fe ff d0  	adrp	x3, 0xc000 <_ZN18ChiFeature2GenericD2Ev+0x614>
   46560: 65 fe ff 90  	adrp	x5, 0x12000 <_ZN18ChiFeature2GenericD2Ev+0x630>
   46570: 41 fe ff b0  	adrp	x1, 0xf000 <_ZN18ChiFeature2GenericD2Ev+0x634>
   46590: 00 6b 00 94  	bl	0x61190 <_ZN6ChiLog9LogSystemEPKcS1_S1_S1_iS1_z@plt>
   465a0: 23 0b 00 34  	cbz	w3, 0x46704 <_ZN18ChiFeature2GenericD2Ev+0x8a4>
   465a4: 23 f2 07 36  	tbz	w3, #0, 0x463e8 <_ZN18ChiFeature2GenericD2Ev+0x588>
   465c4: c9 09 00 54  	b.ls	0x466fc <_ZN18ChiFeature2GenericD2Ev+0x89c>
   465d4: 48 09 00 54  	b.hi	0x466fc <_ZN18ChiFeature2GenericD2Ev+0x89c>
   465e0: 48 f0 ff 54  	b.hi	0x463e8 <_ZN18ChiFeature2GenericD2Ev+0x588>
   465ec: 88 ef ff 54  	b.hi	0x463dc <_ZN18ChiFeature2GenericD2Ev+0x57c>
   465f0: 7e ff ff 17  	b	0x463e8 <_ZN18ChiFeature2GenericD2Ev+0x588>
   46608: a0 07 00 54  	b.eq	0x466fc <_ZN18ChiFeature2GenericD2Ev+0x89c>
   4660c: e8 00 00 d0  	adrp	x8, 0x64000 <_ZN18ChiFeature2GenericD2Ev+0x824>
   46618: 2d 07 18 36  	tbz	w13, #3, 0x466fc <_ZN18ChiFeature2GenericD2Ev+0x89c>
   4661c: e2 00 00 d0  	adrp	x2, 0x64000 <_ZN18ChiFeature2GenericD2Ev+0x834>
   4662c: 41 03 00 54  	b.ne	0x46694 <_ZN18ChiFeature2GenericD2Ev+0x834>
   4664c: 61 fe ff 90  	adrp	x1, 0x12000 <_ZN18ChiFeature2GenericD2Ev+0x71c>
   46650: 22 fe ff b0  	adrp	x2, 0xb000 <_ZN18ChiFeature2GenericD2Ev+0x704>
   46654: 25 fe ff d0  	adrp	x5, 0xc000 <_ZN18ChiFeature2GenericD2Ev+0x70c>
   466b4: 60 fe ff b0  	adrp	x0, 0x13000 <_ZN18ChiFeature2GenericD2Ev+0x788>
   466b8: 41 fe ff b0  	adrp	x1, 0xf000 <_ZN18ChiFeature2GenericD2Ev+0x77c>
   466bc: 45 fe ff f0  	adrp	x5, 0x11000 <_ZN18ChiFeature2GenericD2Ev+0x788>
   466e4: 23 fe ff d0  	adrp	x3, 0xc000 <_ZN18ChiFeature2GenericD2Ev+0x79c>
   466f8: a6 6a 00 94  	bl	0x61190 <_ZN6ChiLog9LogSystemEPKcS1_S1_S1_iS1_z@plt>
   46700: 3a ff ff 17  	b	0x463e8 <_ZN18ChiFeature2GenericD2Ev+0x588>
   46720: 43 e6 ff 54  	b.lo	0x463e8 <_ZN18ChiFeature2GenericD2Ev+0x588>
   46730: 62 e5 ff 54  	b.hs	0x463dc <_ZN18ChiFeature2GenericD2Ev+0x57c>
   46734: 2d ff ff 17  	b	0x463e8 <_ZN18ChiFeature2GenericD2Ev+0x588>
   46740: 48 02 00 35  	cbnz	w8, 0x46788 <_ZN18ChiFeature2GenericD2Ev+0x928>
   4674c: 80 00 00 54  	b.eq	0x4675c <_ZN18ChiFeature2GenericD2Ev+0x8fc>
   46758: 80 01 00 54  	b.eq	0x46788 <_ZN18ChiFeature2GenericD2Ev+0x928>
   4676c: 88 00 00 54  	b.hi	0x4677c <_ZN18ChiFeature2GenericD2Ev+0x91c>
   46778: 88 00 00 54  	b.hi	0x46788 <_ZN18ChiFeature2GenericD2Ev+0x928>
   46780: 68 02 00 94  	bl	0x47120 <_ZN18ChiFeature2GenericD2Ev+0x12c0>
   46788: b9 15 00 35  	cbnz	w25, 0x46a3c <_ZN18ChiFeature2GenericD2Ev+0xbdc>
   4679c: 88 00 00 54  	b.hi	0x467ac <_ZN18ChiFeature2GenericD2Ev+0x94c>
   467a8: a8 14 00 54  	b.hi	0x46a3c <_ZN18ChiFeature2GenericD2Ev+0xbdc>
   467b8: d9 02 f8 36  	tbz	w25, #31, 0x46810 <_ZN18ChiFeature2GenericD2Ev+0x9b0>
   467bc: 7d 6a 00 94  	bl	0x611b0 <_ZN15ExtensionModule11GetInstanceEv@plt>
   467cc: 21 02 00 54  	b.ne	0x46810 <_ZN18ChiFeature2GenericD2Ev+0x9b0>
   467d8: c0 04 00 b4  	cbz	x0, 0x46870 <_ZN18ChiFeature2GenericD2Ev+0xa10>
   467dc: 1a 01 00 b0  	adrp	x26, 0x67000 <_ZN18ChiFeature2GenericD2Ev+0xa00>
   467f8: 10 00 00 14  	b	0x46838 <_ZN18ChiFeature2GenericD2Ev+0x9d8>
   46800: 00 c6 ff 54  	b.eq	0x460c0 <_ZN18ChiFeature2GenericD2Ev+0x260>
   4680c: 2d fe ff 17  	b	0x460c0 <_ZN18ChiFeature2GenericD2Ev+0x260>
   46818: c0 02 00 b4  	cbz	x0, 0x46870 <_ZN18ChiFeature2GenericD2Ev+0xa10>
   4681c: 18 01 00 b0  	adrp	x24, 0x67000 <_ZN18ChiFeature2GenericD2Ev+0xa40>
   46854: e9 01 00 94  	bl	0x46ff8 <_ZN18ChiFeature2GenericD2Ev+0x1198>
   46860: 74 06 00 b4  	cbz	x20, 0x4692c <_ZN18ChiFeature2GenericD2Ev+0xacc>
   4686c: 34 00 00 14  	b	0x4693c <_ZN18ChiFeature2GenericD2Ev+0xadc>
   46870: e6 00 00 d0  	adrp	x6, 0x64000 <_ZN18ChiFeature2GenericD2Ev+0xa88>
   46880: 37 05 00 36  	tbz	w23, #0, 0x46924 <_ZN18ChiFeature2GenericD2Ev+0xac4>
   46884: f5 00 00 d0  	adrp	x21, 0x64000 <_ZN18ChiFeature2GenericD2Ev+0xa9c>
   46894: 41 02 00 54  	b.ne	0x468dc <_ZN18ChiFeature2GenericD2Ev+0xa7c>
   46898: 5c fe ff d0  	adrp	x28, 0x10000 <_ZN18ChiFeature2GenericD2Ev+0x960>
   468b4: 61 fe ff 90  	adrp	x1, 0x12000 <_ZN18ChiFeature2GenericD2Ev+0x984>
   468b8: 62 fe ff 90  	adrp	x2, 0x12000 <_ZN18ChiFeature2GenericD2Ev+0x988>
   468bc: 25 fe ff d0  	adrp	x5, 0xc000 <_ZN18ChiFeature2GenericD2Ev+0x974>
   468dc: 5a fe ff d0  	adrp	x26, 0x10000 <_ZN18ChiFeature2GenericD2Ev+0x9a4>
   468f8: 61 fe ff 90  	adrp	x1, 0x12000 <_ZN18ChiFeature2GenericD2Ev+0x9c8>
   46900: 20 fe ff d0  	adrp	x0, 0xc000 <_ZN18ChiFeature2GenericD2Ev+0x9b8>
   46904: 23 fe ff d0  	adrp	x3, 0xc000 <_ZN18ChiFeature2GenericD2Ev+0x9bc>
   46908: 25 fe ff f0  	adrp	x5, 0xd000 <_ZN18ChiFeature2GenericD2Ev+0x9c4>
   46920: 1c 6a 00 94  	bl	0x61190 <_ZN6ChiLog9LogSystemEPKcS1_S1_S1_iS1_z@plt>
   46928: 46 00 00 14  	b	0x46a40 <_ZN18ChiFeature2GenericD2Ev+0xbe0>
   46930: 37 22 00 b4  	cbz	x23, 0x46d74 <_ZN18ChiFeature2GenericD2Ev+0xf14>
   4693c: e9 00 00 d0  	adrp	x9, 0x64000 <_ZN18ChiFeature2GenericD2Ev+0xb54>
   46948: f4 06 18 36  	tbz	w20, #3, 0x46a24 <_ZN18ChiFeature2GenericD2Ev+0xbc4>
   4694c: e9 00 00 d0  	adrp	x9, 0x64000 <_ZN18ChiFeature2GenericD2Ev+0xb64>
   4695c: 21 03 00 54  	b.ne	0x469c0 <_ZN18ChiFeature2GenericD2Ev+0xb60>
   46960: 5a fe ff d0  	adrp	x26, 0x10000 <_ZN18ChiFeature2GenericD2Ev+0xa28>
   46980: 61 fe ff 90  	adrp	x1, 0x12000 <_ZN18ChiFeature2GenericD2Ev+0xa50>
   46988: 42 fe ff 90  	adrp	x2, 0xe000 <_ZN18ChiFeature2GenericD2Ev+0xa48>
   4698c: 25 fe ff d0  	adrp	x5, 0xc000 <_ZN18ChiFeature2GenericD2Ev+0xa44>
   469c0: 59 fe ff d0  	adrp	x25, 0x10000 <_ZN18ChiFeature2GenericD2Ev+0xa88>
   469e8: 60 fe ff b0  	adrp	x0, 0x13000 <_ZN18ChiFeature2GenericD2Ev+0xabc>
   469ec: 41 fe ff b0  	adrp	x1, 0xf000 <_ZN18ChiFeature2GenericD2Ev+0xab0>
   469f0: 23 fe ff d0  	adrp	x3, 0xc000 <_ZN18ChiFeature2GenericD2Ev+0xaa8>
   469f4: 45 fe ff d0  	adrp	x5, 0x10000 <_ZN18ChiFeature2GenericD2Ev+0xabc>
   46a20: dc 69 00 94  	bl	0x61190 <_ZN6ChiLog9LogSystemEPKcS1_S1_S1_iS1_z@plt>
   46a38: 70 01 00 94  	bl	0x46ff8 <_ZN18ChiFeature2GenericD2Ev+0x1198>
   46a64: 40 01 00 54  	b.eq	0x46a8c <_ZN18ChiFeature2GenericD2Ev+0xc2c>
   46a84: e1 fe ff 54  	b.ne	0x46a60 <_ZN18ChiFeature2GenericD2Ev+0xc00>
   46a94: 88 12 00 54  	b.hi	0x46ce4 <_ZN18ChiFeature2GenericD2Ev+0xe84>
   46a98: 1b 01 00 b0  	adrp	x27, 0x67000 <_ZN18ChiFeature2GenericD2Ev+0xcbc>
   46a9c: 15 01 00 b0  	adrp	x21, 0x67000 <_ZN18ChiFeature2GenericD2Ev+0xcc0>
   46ab0: 0c 00 00 14  	b	0x46ae0 <_ZN18ChiFeature2GenericD2Ev+0xc80>
   46acc: 4b 01 00 94  	bl	0x46ff8 <_ZN18ChiFeature2GenericD2Ev+0x1198>
   46adc: 42 10 00 54  	b.hs	0x46ce4 <_ZN18ChiFeature2GenericD2Ev+0xe84>
   46aec: e6 01 f8 36  	tbz	w6, #31, 0x46b28 <_ZN18ChiFeature2GenericD2Ev+0xcc8>
   46af0: b0 69 00 94  	bl	0x611b0 <_ZN15ExtensionModule11GetInstanceEv@plt>
   46b00: 41 01 00 54  	b.ne	0x46b28 <_ZN18ChiFeature2GenericD2Ev+0xcc8>
   46b0c: 00 09 00 b4  	cbz	x0, 0x46c2c <_ZN18ChiFeature2GenericD2Ev+0xdcc>
   46b24: 09 00 00 14  	b	0x46b48 <_ZN18ChiFeature2GenericD2Ev+0xce8>
   46b30: e0 07 00 b4  	cbz	x0, 0x46c2c <_ZN18ChiFeature2GenericD2Ev+0xdcc>
   46b64: 25 01 00 94  	bl	0x46ff8 <_ZN18ChiFeature2GenericD2Ev+0x1198>
   46b70: 2a fa ff b5  	cbnz	x10, 0x46ab4 <_ZN18ChiFeature2GenericD2Ev+0xc54>
   46b78: 8b 00 00 b4  	cbz	x11, 0x46b88 <_ZN18ChiFeature2GenericD2Ev+0xd28>
   46b84: ce ff ff 17  	b	0x46abc <_ZN18ChiFeature2GenericD2Ev+0xc5c>
   46b8c: 8c 00 00 b4  	cbz	x12, 0x46b9c <_ZN18ChiFeature2GenericD2Ev+0xd3c>
   46b98: c9 ff ff 17  	b	0x46abc <_ZN18ChiFeature2GenericD2Ev+0xc5c>
   46ba4: ea 02 00 b4  	cbz	x10, 0x46c00 <_ZN18ChiFeature2GenericD2Ev+0xda0>
   46bb0: 80 02 00 54  	b.eq	0x46c00 <_ZN18ChiFeature2GenericD2Ev+0xda0>
   46bc4: a0 00 00 54  	b.eq	0x46bd8 <_ZN18ChiFeature2GenericD2Ev+0xd78>
   46bc8: cf 01 00 35  	cbnz	w15, 0x46c00 <_ZN18ChiFeature2GenericD2Ev+0xda0>
   46bd4: 63 01 00 54  	b.lo	0x46c00 <_ZN18ChiFeature2GenericD2Ev+0xda0>
   46bdc: 2c 01 00 34  	cbz	w12, 0x46c00 <_ZN18ChiFeature2GenericD2Ev+0xda0>
   46be4: f1 00 00 34  	cbz	w17, 0x46c00 <_ZN18ChiFeature2GenericD2Ev+0xda0>
   46bfc: b0 ff ff 17  	b	0x46abc <_ZN18ChiFeature2GenericD2Ev+0xc5c>
   46c10: 60 f5 ff 54  	b.eq	0x46abc <_ZN18ChiFeature2GenericD2Ev+0xc5c>
   46c28: a5 ff ff 17  	b	0x46abc <_ZN18ChiFeature2GenericD2Ev+0xc5c>
   46c2c: fa 00 00 d0  	adrp	x26, 0x64000 <_ZN18ChiFeature2GenericD2Ev+0xe44>
   46c3c: 25 05 00 36  	tbz	w5, #0, 0x46ce0 <_ZN18ChiFeature2GenericD2Ev+0xe80>
   46c40: fb 00 00 d0  	adrp	x27, 0x64000 <_ZN18ChiFeature2GenericD2Ev+0xe58>
   46c50: 41 02 00 54  	b.ne	0x46c98 <_ZN18ChiFeature2GenericD2Ev+0xe38>
   46c54: 5b fe ff d0  	adrp	x27, 0x10000 <_ZN18ChiFeature2GenericD2Ev+0xd1c>
   46c70: 61 fe ff 90  	adrp	x1, 0x12000 <_ZN18ChiFeature2GenericD2Ev+0xd40>
   46c74: 42 fe ff b0  	adrp	x2, 0xf000 <_ZN18ChiFeature2GenericD2Ev+0xd38>
   46c78: 25 fe ff d0  	adrp	x5, 0xc000 <_ZN18ChiFeature2GenericD2Ev+0xd30>
   46c98: 58 fe ff d0  	adrp	x24, 0x10000 <_ZN18ChiFeature2GenericD2Ev+0xd60>
   46cb4: 61 fe ff 90  	adrp	x1, 0x12000 <_ZN18ChiFeature2GenericD2Ev+0xd84>
   46cbc: 20 fe ff d0  	adrp	x0, 0xc000 <_ZN18ChiFeature2GenericD2Ev+0xd74>
   46cc0: 23 fe ff d0  	adrp	x3, 0xc000 <_ZN18ChiFeature2GenericD2Ev+0xd78>
   46cc4: 45 fe ff f0  	adrp	x5, 0x11000 <_ZN18ChiFeature2GenericD2Ev+0xd90>
   46cdc: 2d 69 00 94  	bl	0x61190 <_ZN6ChiLog9LogSystemEPKcS1_S1_S1_iS1_z@plt>
   46ce8: a0 00 00 b4  	cbz	x0, 0x46cfc <_ZN18ChiFeature2GenericD2Ev+0xe9c>
   46cf8: bb ff ff b5  	cbnz	x27, 0x46cec <_ZN18ChiFeature2GenericD2Ev+0xe8c>
   46d04: a0 00 00 b4  	cbz	x0, 0x46d18 <_ZN18ChiFeature2GenericD2Ev+0xeb8>
   46d10: 09 0e 00 b5  	cbnz	x9, 0x46ed0 <_ZN18ChiFeature2GenericD2Ev+0x1070>
   46d1c: 00 01 00 b4  	cbz	x0, 0x46d3c <_ZN18ChiFeature2GenericD2Ev+0xedc>
   46d34: fa 0c 00 b5  	cbnz	x26, 0x46ed0 <_ZN18ChiFeature2GenericD2Ev+0x1070>
   46d4c: 41 0c 00 54  	b.ne	0x46ed4 <_ZN18ChiFeature2GenericD2Ev+0x1074>
   46d7c: e1 00 00 54  	b.ne	0x46d98 <_ZN18ChiFeature2GenericD2Ev+0xf38>
   46d84: 8a 05 00 34  	cbz	w10, 0x46e34 <_ZN18ChiFeature2GenericD2Ev+0xfd4>
   46d8c: 4f 05 00 34  	cbz	w15, 0x46e34 <_ZN18ChiFeature2GenericD2Ev+0xfd4>
   46d94: ea fe ff 17  	b	0x4693c <_ZN18ChiFeature2GenericD2Ev+0xadc>
   46db4: 0a 00 00 14  	b	0x46ddc <_ZN18ChiFeature2GenericD2Ev+0xf7c>
   46dd8: 02 07 00 54  	b.hs	0x46eb8 <_ZN18ChiFeature2GenericD2Ev+0x1058>
   46de0: 38 01 00 b4  	cbz	x24, 0x46e04 <_ZN18ChiFeature2GenericD2Ev+0xfa4>
   46de8: e0 00 00 b4  	cbz	x0, 0x46e04 <_ZN18ChiFeature2GenericD2Ev+0xfa4>
   46df4: 00 01 00 b4  	cbz	x0, 0x46e14 <_ZN18ChiFeature2GenericD2Ev+0xfb4>
   46e00: 06 00 00 14  	b	0x46e18 <_ZN18ChiFeature2GenericD2Ev+0xfb8>
   46e0c: c1 00 00 54  	b.ne	0x46e24 <_ZN18ChiFeature2GenericD2Ev+0xfc4>
   46e10: 24 00 00 14  	b	0x46ea0 <_ZN18ChiFeature2GenericD2Ev+0x1040>
   46e20: 00 04 00 54  	b.eq	0x46ea0 <_ZN18ChiFeature2GenericD2Ev+0x1040>
   46e28: 80 fc ff 54  	b.eq	0x46db8 <_ZN18ChiFeature2GenericD2Ev+0xf58>
   46e30: e5 ff ff 17  	b	0x46dc4 <_ZN18ChiFeature2GenericD2Ev+0xf64>
   46e34: df 68 00 94  	bl	0x611b0 <_ZN15ExtensionModule11GetInstanceEv@plt>
   46e44: 28 01 00 54  	b.hi	0x46e68 <_ZN18ChiFeature2GenericD2Ev+0x1008>
   46e64: c1 d6 ff 54  	b.ne	0x4693c <_ZN18ChiFeature2GenericD2Ev+0xadc>
   46e6c: 80 d6 ff 54  	b.eq	0x4693c <_ZN18ChiFeature2GenericD2Ev+0xadc>
   46e74: 4d d6 ff b4  	cbz	x13, 0x4693c <_ZN18ChiFeature2GenericD2Ev+0xadc>
   46e7c: 00 d6 ff 54  	b.eq	0x4693c <_ZN18ChiFeature2GenericD2Ev+0xadc>
   46e88: ab d5 ff 34  	cbz	w11, 0x4693c <_ZN18ChiFeature2GenericD2Ev+0xadc>
   46e94: 50 d5 ff 34  	cbz	w16, 0x4693c <_ZN18ChiFeature2GenericD2Ev+0xadc>
   46e9c: a8 fe ff 17  	b	0x4693c <_ZN18ChiFeature2GenericD2Ev+0xadc>
   46eb4: a1 00 00 54  	b.ne	0x46ec8 <_ZN18ChiFeature2GenericD2Ev+0x1068>
   46eb8: 34 d4 ff 34  	cbz	w20, 0x4693c <_ZN18ChiFeature2GenericD2Ev+0xadc>
   46ebc: 1a d4 ff 34  	cbz	w26, 0x4693c <_ZN18ChiFeature2GenericD2Ev+0xadc>
   46ec4: 9e fe ff 17  	b	0x4693c <_ZN18ChiFeature2GenericD2Ev+0xadc>
   46ecc: 9c fe ff 17  	b	0x4693c <_ZN18ChiFeature2GenericD2Ev+0xadc>
   46ee0: e8 07 00 b4  	cbz	x8, 0x46fdc <_ZN18ChiFeature2GenericD2Ev+0x117c>
   46f34: 68 00 00 54  	b.hi	0x46f40 <_ZN18ChiFeature2GenericD2Ev+0x10e0>
   46f3c: 06 00 00 14  	b	0x46f54 <_ZN18ChiFeature2GenericD2Ev+0x10f4>
   46f48: 63 00 00 54  	b.lo	0x46f54 <_ZN18ChiFeature2GenericD2Ev+0x10f4>
   46f5c: 0f 04 00 b4  	cbz	x15, 0x46fdc <_ZN18ChiFeature2GenericD2Ev+0x117c>
   46f64: cb 03 00 b4  	cbz	x11, 0x46fdc <_ZN18ChiFeature2GenericD2Ev+0x117c>
   46f6c: 62 02 00 54  	b.hs	0x46fb8 <_ZN18ChiFeature2GenericD2Ev+0x1158>
   46f70: 06 00 00 14  	b	0x46f88 <_ZN18ChiFeature2GenericD2Ev+0x1128>
   46f7c: 40 03 00 54  	b.eq	0x46fe4 <_ZN18ChiFeature2GenericD2Ev+0x1184>
   46f84: cb 02 00 b4  	cbz	x11, 0x46fdc <_ZN18ChiFeature2GenericD2Ev+0x117c>
   46f90: 20 ff ff 54  	b.eq	0x46f74 <_ZN18ChiFeature2GenericD2Ev+0x1114>
   46f9c: 20 ff ff 54  	b.eq	0x46f80 <_ZN18ChiFeature2GenericD2Ev+0x1120>
   46fa0: 0f 00 00 14  	b	0x46fdc <_ZN18ChiFeature2GenericD2Ev+0x117c>
   46fac: c0 01 00 54  	b.eq	0x46fe4 <_ZN18ChiFeature2GenericD2Ev+0x1184>
   46fb4: 4b 01 00 b4  	cbz	x11, 0x46fdc <_ZN18ChiFeature2GenericD2Ev+0x117c>
   46fc0: 20 ff ff 54  	b.eq	0x46fa4 <_ZN18ChiFeature2GenericD2Ev+0x1144>
   46fc8: 63 00 00 54  	b.lo	0x46fd4 <_ZN18ChiFeature2GenericD2Ev+0x1174>
   46fd8: c0 fe ff 54  	b.eq	0x46fb0 <_ZN18ChiFeature2GenericD2Ev+0x1150>
   47020: 80 01 00 54  	b.eq	0x47050 <_ZN18ChiFeature2GenericD2Ev+0x11f0>
   47060: 82 05 00 54  	b.hs	0x47110 <_ZN18ChiFeature2GenericD2Ev+0x12b0>
   47068: 6c 05 00 b5  	cbnz	x12, 0x47114 <_ZN18ChiFeature2GenericD2Ev+0x12b4>
   4707c: e8 00 00 54  	b.hi	0x47098 <_ZN18ChiFeature2GenericD2Ev+0x1238>
   4708c: 9a 00 00 b5  	cbnz	x26, 0x4709c <_ZN18ChiFeature2GenericD2Ev+0x123c>
   47094: 06 00 00 14  	b	0x470ac <_ZN18ChiFeature2GenericD2Ev+0x124c>
   470bc: eb 00 00 54  	b.lt	0x470d8 <_ZN18ChiFeature2GenericD2Ev+0x1278>
   470c4: 41 02 00 54  	b.ne	0x4710c <_ZN18ChiFeature2GenericD2Ev+0x12ac>
   470e4: b4 fa ff b4  	cbz	x20, 0x47038 <_ZN18ChiFeature2GenericD2Ev+0x11d8>
   470ec: 11 01 00 b5  	cbnz	x17, 0x4710c <_ZN18ChiFeature2GenericD2Ev+0x12ac>
   47118: c2 68 00 94  	bl	0x61420 <_ZNKSt3__120__vector_base_commonILb1EE20__throw_length_errorEv@plt>
   47150: 09 14 00 b4  	cbz	x9, 0x473d0 <_ZN18ChiFeature2GenericD2Ev+0x1570>
   47164: 28 02 f8 36  	tbz	w8, #31, 0x471a8 <_ZN18ChiFeature2GenericD2Ev+0x1348>
   47168: 12 68 00 94  	bl	0x611b0 <_ZN15ExtensionModule11GetInstanceEv@plt>
   47178: 81 01 00 54  	b.ne	0x471a8 <_ZN18ChiFeature2GenericD2Ev+0x1348>
   47184: c0 0c 00 b4  	cbz	x0, 0x4731c <_ZN18ChiFeature2GenericD2Ev+0x14bc>
   47188: 0c 01 00 90  	adrp	x12, 0x67000 <_ZN18ChiFeature2GenericD2Ev+0x13a8>
   471a4: 0b 00 00 14  	b	0x471d0 <_ZN18ChiFeature2GenericD2Ev+0x1370>
   471b0: 60 0b 00 b4  	cbz	x0, 0x4731c <_ZN18ChiFeature2GenericD2Ev+0x14bc>
   471b4: 0d 01 00 90  	adrp	x13, 0x67000 <_ZN18ChiFeature2GenericD2Ev+0x13d4>
   471ec: 83 ff ff 97  	bl	0x46ff8 <_ZN18ChiFeature2GenericD2Ev+0x1198>
   471fc: 68 00 00 b5  	cbnz	x8, 0x47208 <_ZN18ChiFeature2GenericD2Ev+0x13a8>
   47208: e2 00 00 b0  	adrp	x2, 0x64000 <_ZN18ChiFeature2GenericD2Ev+0x141c>
   47224: eb 06 18 36  	tbz	w11, #3, 0x47300 <_ZN18ChiFeature2GenericD2Ev+0x14a0>
   47228: e3 00 00 b0  	adrp	x3, 0x64000 <_ZN18ChiFeature2GenericD2Ev+0x143c>
   4722c: 55 fe ff b0  	adrp	x21, 0x10000 <_ZN18ChiFeature2GenericD2Ev+0x12f0>
   47240: 01 03 00 54  	b.ne	0x472a0 <_ZN18ChiFeature2GenericD2Ev+0x1440>
   47260: 41 fe ff f0  	adrp	x1, 0x12000 <_ZN18ChiFeature2GenericD2Ev+0x132c>
   47264: 22 fe ff 90  	adrp	x2, 0xb000 <_ZN18ChiFeature2GenericD2Ev+0x1314>
   4726c: 25 fe ff f0  	adrp	x5, 0xe000 <_ZN18ChiFeature2GenericD2Ev+0x1328>
   472b8: 41 fe ff 90  	adrp	x1, 0xf000 <_ZN18ChiFeature2GenericD2Ev+0x1378>
   472c8: 60 fe ff 90  	adrp	x0, 0x13000 <_ZN18ChiFeature2GenericD2Ev+0x1398>
   472cc: 23 fe ff f0  	adrp	x3, 0xe000 <_ZN18ChiFeature2GenericD2Ev+0x1388>
   472d0: 25 fe ff d0  	adrp	x5, 0xd000 <_ZN18ChiFeature2GenericD2Ev+0x1388>
   472fc: a5 67 00 94  	bl	0x61190 <_ZN6ChiLog9LogSystemEPKcS1_S1_S1_iS1_z@plt>
   47310: 3a ff ff 97  	bl	0x46ff8 <_ZN18ChiFeature2GenericD2Ev+0x1198>
   47318: 2f 00 00 14  	b	0x473d4 <_ZN18ChiFeature2GenericD2Ev+0x1574>
   4731c: ee 00 00 b0  	adrp	x14, 0x64000 <_ZN18ChiFeature2GenericD2Ev+0x1530>
   4732c: 29 05 00 36  	tbz	w9, #0, 0x473d0 <_ZN18ChiFeature2GenericD2Ev+0x1570>
   47330: e6 00 00 b0  	adrp	x6, 0x64000 <_ZN18ChiFeature2GenericD2Ev+0x1544>
   47340: 41 02 00 54  	b.ne	0x47388 <_ZN18ChiFeature2GenericD2Ev+0x1528>
   47344: 55 fe ff b0  	adrp	x21, 0x10000 <_ZN18ChiFeature2GenericD2Ev+0x1408>
   47360: 41 fe ff f0  	adrp	x1, 0x12000 <_ZN18ChiFeature2GenericD2Ev+0x142c>
   47364: 42 fe ff f0  	adrp	x2, 0x12000 <_ZN18ChiFeature2GenericD2Ev+0x1430>
   47368: 25 fe ff f0  	adrp	x5, 0xe000 <_ZN18ChiFeature2GenericD2Ev+0x1424>
   47388: 55 fe ff b0  	adrp	x21, 0x10000 <_ZN18ChiFeature2GenericD2Ev+0x144c>
   473a4: 41 fe ff f0  	adrp	x1, 0x12000 <_ZN18ChiFeature2GenericD2Ev+0x1470>
   473ac: 20 fe ff b0  	adrp	x0, 0xc000 <_ZN18ChiFeature2GenericD2Ev+0x1460>
   473b0: 23 fe ff f0  	adrp	x3, 0xe000 <_ZN18ChiFeature2GenericD2Ev+0x146c>
   473b4: 25 fe ff d0  	adrp	x5, 0xd000 <_ZN18ChiFeature2GenericD2Ev+0x146c>
   473cc: 71 67 00 94  	bl	0x61190 <_ZN6ChiLog9LogSystemEPKcS1_S1_S1_iS1_z@plt>
   473dc: 6b 0e 00 b4  	cbz	x11, 0x475a8 <_ZN18ChiFeature2GenericD2Ev+0x1748>
   473f0: 20 02 f8 36  	tbz	w0, #31, 0x47434 <_ZN18ChiFeature2GenericD2Ev+0x15d4>
   473f4: 6f 67 00 94  	bl	0x611b0 <_ZN15ExtensionModule11GetInstanceEv@plt>
   47404: 81 01 00 54  	b.ne	0x47434 <_ZN18ChiFeature2GenericD2Ev+0x15d4>
   47410: a0 0c 00 b4  	cbz	x0, 0x475a4 <_ZN18ChiFeature2GenericD2Ev+0x1744>
   47414: 15 01 00 90  	adrp	x21, 0x67000 <_ZN18ChiFeature2GenericD2Ev+0x1634>
   47430: 0b 00 00 14  	b	0x4745c <_ZN18ChiFeature2GenericD2Ev+0x15fc>
   4743c: 40 0b 00 b4  	cbz	x0, 0x475a4 <_ZN18ChiFeature2GenericD2Ev+0x1744>
   47440: 08 01 00 90  	adrp	x8, 0x67000 <_ZN18ChiFeature2GenericD2Ev+0x1660>
   47478: e0 fe ff 97  	bl	0x46ff8 <_ZN18ChiFeature2GenericD2Ev+0x1198>
   47480: ec 00 00 b0  	adrp	x12, 0x64000 <_ZN18ChiFeature2GenericD2Ev+0x1694>
   474a4: 22 07 18 36  	tbz	w2, #3, 0x47588 <_ZN18ChiFeature2GenericD2Ev+0x1728>
   474a8: ed 00 00 b0  	adrp	x13, 0x64000 <_ZN18ChiFeature2GenericD2Ev+0x16bc>
   474b8: 41 03 00 54  	b.ne	0x47520 <_ZN18ChiFeature2GenericD2Ev+0x16c0>
   474bc: 55 fe ff b0  	adrp	x21, 0x10000 <_ZN18ChiFeature2GenericD2Ev+0x1580>
   474dc: 41 fe ff f0  	adrp	x1, 0x12000 <_ZN18ChiFeature2GenericD2Ev+0x15a8>
   474e4: 42 fe ff 90  	adrp	x2, 0xf000 <_ZN18ChiFeature2GenericD2Ev+0x15a4>
   474ec: 25 fe ff f0  	adrp	x5, 0xe000 <_ZN18ChiFeature2GenericD2Ev+0x15a8>
   47520: 55 fe ff b0  	adrp	x21, 0x10000 <_ZN18ChiFeature2GenericD2Ev+0x15e4>
   47548: 60 fe ff 90  	adrp	x0, 0x13000 <_ZN18ChiFeature2GenericD2Ev+0x1618>
   47550: 41 fe ff 90  	adrp	x1, 0xf000 <_ZN18ChiFeature2GenericD2Ev+0x1610>
   47554: 23 fe ff f0  	adrp	x3, 0xe000 <_ZN18ChiFeature2GenericD2Ev+0x1610>
   47558: 25 fe ff f0  	adrp	x5, 0xe000 <_ZN18ChiFeature2GenericD2Ev+0x1614>
   47584: 03 67 00 94  	bl	0x61190 <_ZN6ChiLog9LogSystemEPKcS1_S1_S1_iS1_z@plt>
   47598: 98 fe ff 97  	bl	0x46ff8 <_ZN18ChiFeature2GenericD2Ev+0x1198>
   475a0: 02 00 00 14  	b	0x475a8 <_ZN18ChiFeature2GenericD2Ev+0x1748>
   475b4: 01 01 00 54  	b.ne	0x475d4 <_ZN18ChiFeature2GenericD2Ev+0x1774>
   475f8: 69 00 f8 37  	tbnz	w9, #31, 0x47604 <_ZN18ChiFeature2GenericD2Ev+0x17a4>
   47600: 06 00 00 14  	b	0x47618 <_ZN18ChiFeature2GenericD2Ev+0x17b8>
   47604: eb 66 00 94  	bl	0x611b0 <_ZN15ExtensionModule11GetInstanceEv@plt>
   47630: a8 09 00 34  	cbz	w8, 0x47764 <_ZN18ChiFeature2GenericD2Ev+0x1904>
   4764c: 6b fe ff 97  	bl	0x46ff8 <_ZN18ChiFeature2GenericD2Ev+0x1198>
   47650: f0 00 00 b0  	adrp	x16, 0x64000 <_ZN18ChiFeature2GenericD2Ev+0x1864>
   4765c: 8a 11 18 36  	tbz	w10, #3, 0x4788c <_ZN18ChiFeature2GenericD2Ev+0x1a2c>
   47660: f1 00 00 b0  	adrp	x17, 0x64000 <_ZN18ChiFeature2GenericD2Ev+0x1874>
   47670: c1 03 00 54  	b.ne	0x476e8 <_ZN18ChiFeature2GenericD2Ev+0x1888>
   47674: 55 fe ff b0  	adrp	x21, 0x10000 <_ZN18ChiFeature2GenericD2Ev+0x1738>
   47698: 41 fe ff f0  	adrp	x1, 0x12000 <_ZN18ChiFeature2GenericD2Ev+0x1764>
   476a0: 25 fe ff f0  	adrp	x5, 0xe000 <_ZN18ChiFeature2GenericD2Ev+0x175c>
   476b0: 22 fe ff d0  	adrp	x2, 0xd000 <_ZN18ChiFeature2GenericD2Ev+0x1768>
   476e8: 55 fe ff b0  	adrp	x21, 0x10000 <_ZN18ChiFeature2GenericD2Ev+0x17ac>
   47710: 60 fe ff 90  	adrp	x0, 0x13000 <_ZN18ChiFeature2GenericD2Ev+0x17e0>
   47714: 23 fe ff f0  	adrp	x3, 0xe000 <_ZN18ChiFeature2GenericD2Ev+0x17d0>
   47724: 45 fe ff f0  	adrp	x5, 0x12000 <_ZN18ChiFeature2GenericD2Ev+0x17f0>
   47738: 41 fe ff 90  	adrp	x1, 0xf000 <_ZN18ChiFeature2GenericD2Ev+0x17f8>
   4775c: 8d 66 00 94  	bl	0x61190 <_ZN6ChiLog9LogSystemEPKcS1_S1_S1_iS1_z@plt>
   47760: 4b 00 00 14  	b	0x4788c <_ZN18ChiFeature2GenericD2Ev+0x1a2c>
   47778: e9 00 00 b0  	adrp	x9, 0x64000 <_ZN18ChiFeature2GenericD2Ev+0x198c>
   4778c: e3 07 18 36  	tbz	w3, #3, 0x47888 <_ZN18ChiFeature2GenericD2Ev+0x1a28>
   47790: ea 00 00 b0  	adrp	x10, 0x64000 <_ZN18ChiFeature2GenericD2Ev+0x19a4>
   47794: 54 fe ff b0  	adrp	x20, 0x10000 <_ZN18ChiFeature2GenericD2Ev+0x1858>
   477a8: 81 03 00 54  	b.ne	0x47818 <_ZN18ChiFeature2GenericD2Ev+0x19b8>
   477c8: 41 fe ff f0  	adrp	x1, 0x12000 <_ZN18ChiFeature2GenericD2Ev+0x1894>
   477d0: 22 fe ff 90  	adrp	x2, 0xb000 <_ZN18ChiFeature2GenericD2Ev+0x1880>
   477d4: 25 fe ff f0  	adrp	x5, 0xe000 <_ZN18ChiFeature2GenericD2Ev+0x1890>
   4783c: 60 fe ff 90  	adrp	x0, 0x13000 <_ZN18ChiFeature2GenericD2Ev+0x190c>
   47840: 41 fe ff 90  	adrp	x1, 0xf000 <_ZN18ChiFeature2GenericD2Ev+0x1900>
   47844: 23 fe ff f0  	adrp	x3, 0xe000 <_ZN18ChiFeature2GenericD2Ev+0x1900>
   4784c: 45 fe ff d0  	adrp	x5, 0x11000 <_ZN18ChiFeature2GenericD2Ev+0x1914>
   47884: 43 66 00 94  	bl	0x61190 <_ZN6ChiLog9LogSystemEPKcS1_S1_S1_iS1_z@plt>
   478e4: 00 09 00 b4  	cbz	x0, 0x47a04 <_ZN18ChiFeature2GenericD2Ev+0x1ba4>
   478ec: d6 08 00 b4  	cbz	x22, 0x47a04 <_ZN18ChiFeature2GenericD2Ev+0x1ba4>
   478f4: 85 08 00 b4  	cbz	x5, 0x47a04 <_ZN18ChiFeature2GenericD2Ev+0x1ba4>
   47944: f3 66 00 94  	bl	0x61510 <_ZN16ChiFeature2Utils27IsNativeResolutionRequestedEPK17LogicalCameraInfoPK24ChiFeature2InstanceProps@plt>
   47954: 6d f8 ff 97  	bl	0x45b08 <_ZN18ChiFeature2Generic19CreateROITranslatorEP21ChiFeature2Identifier+0x3d8>
   47968: 77 0b 00 b4  	cbz	x23, 0x47ad4 <_ZN18ChiFeature2GenericD2Ev+0x1c74>
   47974: b6 10 00 36  	tbz	w22, #0, 0x47b88 <_ZN18ChiFeature2GenericD2Ev+0x1d28>
   4797c: 7b 10 00 34  	cbz	w27, 0x47b88 <_ZN18ChiFeature2GenericD2Ev+0x1d28>
   47988: 0a 66 00 94  	bl	0x611b0 <_ZN15ExtensionModule11GetInstanceEv@plt>
   47998: e2 66 00 94  	bl	0x61520 <_ZN15ExtensionModule28GetPhysicalCameraSensorModesEjPjPP17ChiSensorModeInfo@plt>
   4799c: a0 20 00 35  	cbnz	w0, 0x47db0 <_ZN18ChiFeature2GenericD2Ev+0x1f50>
   479a4: 69 20 00 34  	cbz	w9, 0x47db0 <_ZN18ChiFeature2GenericD2Ev+0x1f50>
   479b8: 0b 00 00 14  	b	0x479e4 <_ZN18ChiFeature2GenericD2Ev+0x1b84>
   479e0: 80 1e 00 54  	b.eq	0x47db0 <_ZN18ChiFeature2GenericD2Ev+0x1f50>
   479ec: 88 fe ff 54  	b.hi	0x479bc <_ZN18ChiFeature2GenericD2Ev+0x1b5c>
   479fc: 08 fe ff 54  	b.hi	0x479bc <_ZN18ChiFeature2GenericD2Ev+0x1b5c>
   47a00: f5 ff ff 17  	b	0x479d4 <_ZN18ChiFeature2GenericD2Ev+0x1b74>
   47a04: ea 00 00 b0  	adrp	x10, 0x64000 <_ZN18ChiFeature2GenericD2Ev+0x1c18>
   47a10: 75 00 00 37  	tbnz	w21, #0, 0x47a1c <_ZN18ChiFeature2GenericD2Ev+0x1bbc>
   47a18: b3 15 00 14  	b	0x4d0e4 <_ZN18ChiFeature2GenericD2Ev+0x7284>
   47a1c: ed 00 00 b0  	adrp	x13, 0x64000 <_ZN18ChiFeature2GenericD2Ev+0x1c30>
   47a2c: 81 02 00 54  	b.ne	0x47a7c <_ZN18ChiFeature2GenericD2Ev+0x1c1c>
   47a30: 55 fe ff b0  	adrp	x21, 0x10000 <_ZN18ChiFeature2GenericD2Ev+0x1af4>
   47a4c: 41 fe ff f0  	adrp	x1, 0x12000 <_ZN18ChiFeature2GenericD2Ev+0x1b18>
   47a50: 42 fe ff d0  	adrp	x2, 0x11000 <_ZN18ChiFeature2GenericD2Ev+0x1b18>
   47a54: 45 fe ff b0  	adrp	x5, 0x10000 <_ZN18ChiFeature2GenericD2Ev+0x1b18>
   47a7c: 54 fe ff b0  	adrp	x20, 0x10000 <_ZN18ChiFeature2GenericD2Ev+0x1b40>
   47a98: 41 fe ff f0  	adrp	x1, 0x12000 <_ZN18ChiFeature2GenericD2Ev+0x1b64>
   47aa0: 20 fe ff b0  	adrp	x0, 0xc000 <_ZN18ChiFeature2GenericD2Ev+0x1b54>
   47aa4: 43 fe ff b0  	adrp	x3, 0x10000 <_ZN18ChiFeature2GenericD2Ev+0x1b68>
   47aa8: 25 fe ff f0  	adrp	x5, 0xe000 <_ZN18ChiFeature2GenericD2Ev+0x1b64>
   47ac8: b2 65 00 94  	bl	0x61190 <_ZN6ChiLog9LogSystemEPKcS1_S1_S1_iS1_z@plt>
   47ad0: 85 15 00 14  	b	0x4d0e4 <_ZN18ChiFeature2GenericD2Ev+0x7284>
   47ad4: f3 00 00 b0  	adrp	x19, 0x64000 <_ZN18ChiFeature2GenericD2Ev+0x1ce8>
   47ae0: 94 1c 00 36  	tbz	w20, #0, 0x47e70 <_ZN18ChiFeature2GenericD2Ev+0x2010>
   47ae4: f6 00 00 b0  	adrp	x22, 0x64000 <_ZN18ChiFeature2GenericD2Ev+0x1cf8>
   47af4: 41 02 00 54  	b.ne	0x47b3c <_ZN18ChiFeature2GenericD2Ev+0x1cdc>
   47af8: 36 fe ff b0  	adrp	x22, 0xc000 <_ZN18ChiFeature2GenericD2Ev+0x1bac>
   47b14: 41 fe ff f0  	adrp	x1, 0x12000 <_ZN18ChiFeature2GenericD2Ev+0x1be0>
   47b18: 22 fe ff f0  	adrp	x2, 0xe000 <_ZN18ChiFeature2GenericD2Ev+0x1bd4>
   47b1c: 25 fe ff d0  	adrp	x5, 0xd000 <_ZN18ChiFeature2GenericD2Ev+0x1bd4>
   47b3c: 38 fe ff b0  	adrp	x24, 0xc000 <_ZN18ChiFeature2GenericD2Ev+0x1bf0>
   47b58: 41 fe ff f0  	adrp	x1, 0x12000 <_ZN18ChiFeature2GenericD2Ev+0x1c24>
   47b60: 20 fe ff b0  	adrp	x0, 0xc000 <_ZN18ChiFeature2GenericD2Ev+0x1c14>
   47b64: 23 fe ff d0  	adrp	x3, 0xd000 <_ZN18ChiFeature2GenericD2Ev+0x1c1c>
   47b68: 45 fe ff d0  	adrp	x5, 0x11000 <_ZN18ChiFeature2GenericD2Ev+0x1c30>
   47b80: 84 65 00 94  	bl	0x61190 <_ZN6ChiLog9LogSystemEPKcS1_S1_S1_iS1_z@plt>
   47b84: bb 00 00 14  	b	0x47e70 <_ZN18ChiFeature2GenericD2Ev+0x2010>
   47b8c: 1b 0b 00 34  	cbz	w27, 0x47cec <_ZN18ChiFeature2GenericD2Ev+0x1e8c>
   47b90: 78 fe ff 90  	adrp	x24, 0x13000 <_ZN18ChiFeature2GenericD2Ev+0x1c60>
   47b94: f9 00 00 b0  	adrp	x25, 0x64000 <_ZN18ChiFeature2GenericD2Ev+0x1da8>
   47b9c: 3c fe ff b0  	adrp	x28, 0xc000 <_ZN18ChiFeature2GenericD2Ev+0x1c50>
   47ba0: 3b fe ff d0  	adrp	x27, 0xd000 <_ZN18ChiFeature2GenericD2Ev+0x1c58>
   47bb4: 58 fe ff d0  	adrp	x24, 0x11000 <_ZN18ChiFeature2GenericD2Ev+0x1c7c>
   47bcc: 06 00 00 14  	b	0x47be4 <_ZN18ChiFeature2GenericD2Ev+0x1d84>
   47be0: 62 08 00 54  	b.hs	0x47cec <_ZN18ChiFeature2GenericD2Ev+0x1e8c>
   47bec: 70 09 00 b4  	cbz	x16, 0x47d18 <_ZN18ChiFeature2GenericD2Ev+0x1eb8>
   47bf4: 20 09 00 34  	cbz	w0, 0x47d18 <_ZN18ChiFeature2GenericD2Ev+0x1eb8>
   47bfc: e6 08 00 34  	cbz	w6, 0x47d18 <_ZN18ChiFeature2GenericD2Ev+0x1eb8>
   47c08: e6 00 00 b0  	adrp	x6, 0x64000 <_ZN18ChiFeature2GenericD2Ev+0x1e1c>
   47c18: aa 05 18 36  	tbz	w10, #3, 0x47ccc <_ZN18ChiFeature2GenericD2Ev+0x1e6c>
   47c28: a1 02 00 54  	b.ne	0x47c7c <_ZN18ChiFeature2GenericD2Ev+0x1e1c>
   47c60: 41 fe ff f0  	adrp	x1, 0x12000 <_ZN18ChiFeature2GenericD2Ev+0x1d2c>
   47c6c: 42 fe ff 90  	adrp	x2, 0xf000 <_ZN18ChiFeature2GenericD2Ev+0x1d2c>
   47c98: 41 fe ff 90  	adrp	x1, 0xf000 <_ZN18ChiFeature2GenericD2Ev+0x1d58>
   47ca0: 60 fe ff 90  	adrp	x0, 0x13000 <_ZN18ChiFeature2GenericD2Ev+0x1d70>
   47cc8: 32 65 00 94  	bl	0x61190 <_ZN6ChiLog9LogSystemEPKcS1_S1_S1_iS1_z@plt>
   47cd0: 00 f8 ff 54  	b.eq	0x47bd0 <_ZN18ChiFeature2GenericD2Ev+0x1d70>
   47ce0: 84 f7 ff 54  	b.mi	0x47bd0 <_ZN18ChiFeature2GenericD2Ev+0x1d70>
   47ce8: 02 00 00 14  	b	0x47cf0 <_ZN18ChiFeature2GenericD2Ev+0x1e90>
   47d10: 08 66 00 94  	bl	0x61530 <_ZN15UsecaseSelector18getSensorDimensionEjPK28camera3_stream_configurationPjS3_S3_jjPK17LogicalCameraInfo@plt>
   47d14: 27 00 00 14  	b	0x47db0 <_ZN18ChiFeature2GenericD2Ev+0x1f50>
   47d18: f6 00 00 b0  	adrp	x22, 0x64000 <_ZN18ChiFeature2GenericD2Ev+0x1f2c>
   47d24: 78 04 00 36  	tbz	w24, #0, 0x47db0 <_ZN18ChiFeature2GenericD2Ev+0x1f50>
   47d30: 01 02 00 54  	b.ne	0x47d70 <_ZN18ChiFeature2GenericD2Ev+0x1f10>
   47d48: 41 fe ff f0  	adrp	x1, 0x12000 <_ZN18ChiFeature2GenericD2Ev+0x1e14>
   47d4c: 42 fe ff f0  	adrp	x2, 0x12000 <_ZN18ChiFeature2GenericD2Ev+0x1e18>
   47d50: 25 fe ff d0  	adrp	x5, 0xd000 <_ZN18ChiFeature2GenericD2Ev+0x1e08>
   47d84: 41 fe ff f0  	adrp	x1, 0x12000 <_ZN18ChiFeature2GenericD2Ev+0x1e50>
   47d8c: 20 fe ff b0  	adrp	x0, 0xc000 <_ZN18ChiFeature2GenericD2Ev+0x1e40>
   47d90: 23 fe ff d0  	adrp	x3, 0xd000 <_ZN18ChiFeature2GenericD2Ev+0x1e48>
   47d94: 25 fe ff b0  	adrp	x5, 0xc000 <_ZN18ChiFeature2GenericD2Ev+0x1e48>
   47dac: f9 64 00 94  	bl	0x61190 <_ZN6ChiLog9LogSystemEPKcS1_S1_S1_iS1_z@plt>
   47db0: f5 00 00 b0  	adrp	x21, 0x64000 <_ZN18ChiFeature2GenericD2Ev+0x1fc4>
   47dbc: b9 05 18 36  	tbz	w25, #3, 0x47e70 <_ZN18ChiFeature2GenericD2Ev+0x2010>
   47dc0: fb 00 00 b0  	adrp	x27, 0x64000 <_ZN18ChiFeature2GenericD2Ev+0x1fd4>
   47dc4: 3c fe ff b0  	adrp	x28, 0xc000 <_ZN18ChiFeature2GenericD2Ev+0x1e78>
   47dd8: 61 02 00 54  	b.ne	0x47e24 <_ZN18ChiFeature2GenericD2Ev+0x1fc4>
   47df4: 41 fe ff f0  	adrp	x1, 0x12000 <_ZN18ChiFeature2GenericD2Ev+0x1ec0>
   47dfc: 22 fe ff b0  	adrp	x2, 0xc000 <_ZN18ChiFeature2GenericD2Ev+0x1eb0>
   47e00: 25 fe ff d0  	adrp	x5, 0xd000 <_ZN18ChiFeature2GenericD2Ev+0x1eb8>
   47e44: 60 fe ff 90  	adrp	x0, 0x13000 <_ZN18ChiFeature2GenericD2Ev+0x1f14>
   47e48: 41 fe ff 90  	adrp	x1, 0xf000 <_ZN18ChiFeature2GenericD2Ev+0x1f08>
   47e4c: 23 fe ff d0  	adrp	x3, 0xd000 <_ZN18ChiFeature2GenericD2Ev+0x1f04>
   47e50: 45 fe ff f0  	adrp	x5, 0x12000 <_ZN18ChiFeature2GenericD2Ev+0x1f1c>
   47e6c: c9 64 00 94  	bl	0x61190 <_ZN6ChiLog9LogSystemEPKcS1_S1_S1_iS1_z@plt>
   47e88: f1 00 00 b0  	adrp	x17, 0x64000 <_ZN18ChiFeature2GenericD2Ev+0x209c>
   47ea0: e7 06 18 36  	tbz	w7, #3, 0x47f7c <_ZN18ChiFeature2GenericD2Ev+0x211c>
   47ea4: fa 00 00 b0  	adrp	x26, 0x64000 <_ZN18ChiFeature2GenericD2Ev+0x20b8>
   47ea8: 53 fe ff b0  	adrp	x19, 0x10000 <_ZN18ChiFeature2GenericD2Ev+0x1f6c>
   47ec4: e1 02 00 54  	b.ne	0x47f20 <_ZN18ChiFeature2GenericD2Ev+0x20c0>
   47ee4: 41 fe ff f0  	adrp	x1, 0x12000 <_ZN18ChiFeature2GenericD2Ev+0x1fb0>
   47ee8: 42 fe ff b0  	adrp	x2, 0x10000 <_ZN18ChiFeature2GenericD2Ev+0x1fac>
   47ef0: 45 fe ff b0  	adrp	x5, 0x10000 <_ZN18ChiFeature2GenericD2Ev+0x1fb4>
   47f40: 60 fe ff 90  	adrp	x0, 0x13000 <_ZN18ChiFeature2GenericD2Ev+0x2010>
   47f48: 41 fe ff 90  	adrp	x1, 0xf000 <_ZN18ChiFeature2GenericD2Ev+0x2008>
   47f50: 43 fe ff b0  	adrp	x3, 0x10000 <_ZN18ChiFeature2GenericD2Ev+0x2014>
   47f54: 25 fe ff d0  	adrp	x5, 0xd000 <_ZN18ChiFeature2GenericD2Ev+0x200c>
   47f78: 86 64 00 94  	bl	0x61190 <_ZN6ChiLog9LogSystemEPKcS1_S1_S1_iS1_z@plt>
   47f80: ba 10 00 34  	cbz	w26, 0x48194 <_ZN18ChiFeature2GenericD2Ev+0x2334>
   47fb0: 06 00 00 14  	b	0x47fc8 <_ZN18ChiFeature2GenericD2Ev+0x2168>
   47fc4: 20 08 00 54  	b.eq	0x480c8 <_ZN18ChiFeature2GenericD2Ev+0x2268>
   47fd4: e1 00 00 54  	b.ne	0x47ff0 <_ZN18ChiFeature2GenericD2Ev+0x2190>
   47fdc: 35 65 00 94  	bl	0x614b0 <_ZN15UsecaseSelector13IsVideoStreamEPK14camera3_stream@plt>
   47fe0: 80 00 00 34  	cbz	w0, 0x47ff0 <_ZN18ChiFeature2GenericD2Ev+0x2190>
   47fec: 2c 00 00 14  	b	0x4809c <_ZN18ChiFeature2GenericD2Ev+0x223c>
   47ff4: 2b 65 00 94  	bl	0x614a0 <_ZN15UsecaseSelector15IsPreviewStreamEPK14camera3_stream@plt>
   47ff8: 60 00 00 34  	cbz	w0, 0x48004 <_ZN18ChiFeature2GenericD2Ev+0x21a4>
   48000: 27 00 00 14  	b	0x4809c <_ZN18ChiFeature2GenericD2Ev+0x223c>
   48008: 4e 65 00 94  	bl	0x61540 <_ZN15UsecaseSelector20IsJPEGSnapshotStreamEPK14camera3_stream@plt>
   4800c: 80 04 00 34  	cbz	w0, 0x4809c <_ZN18ChiFeature2GenericD2Ev+0x223c>
   4801c: 8c 00 00 b4  	cbz	x12, 0x4802c <_ZN18ChiFeature2GenericD2Ev+0x21cc>
   48024: 14 02 00 b5  	cbnz	x20, 0x48064 <_ZN18ChiFeature2GenericD2Ev+0x2204>
   48028: 17 00 00 14  	b	0x48084 <_ZN18ChiFeature2GenericD2Ev+0x2224>
   48030: 54 01 00 b4  	cbz	x20, 0x48058 <_ZN18ChiFeature2GenericD2Ev+0x21f8>
   48038: 00 01 00 b4  	cbz	x0, 0x48058 <_ZN18ChiFeature2GenericD2Ev+0x21f8>
   48044: a0 00 00 b4  	cbz	x0, 0x48058 <_ZN18ChiFeature2GenericD2Ev+0x21f8>
   48054: 61 fe ff 54  	b.ne	0x48020 <_ZN18ChiFeature2GenericD2Ev+0x21c0>
   48060: 34 01 00 b4  	cbz	x20, 0x48084 <_ZN18ChiFeature2GenericD2Ev+0x2224>
   48068: e0 00 00 b4  	cbz	x0, 0x48084 <_ZN18ChiFeature2GenericD2Ev+0x2224>
   48074: 80 00 00 b4  	cbz	x0, 0x48084 <_ZN18ChiFeature2GenericD2Ev+0x2224>
   48080: 02 00 00 14  	b	0x48088 <_ZN18ChiFeature2GenericD2Ev+0x2228>
   480a4: 81 f8 ff 54  	b.ne	0x47fb4 <_ZN18ChiFeature2GenericD2Ev+0x2154>
   480b4: 01 f8 ff 54  	b.ne	0x47fb4 <_ZN18ChiFeature2GenericD2Ev+0x2154>
   480c4: bc ff ff 17  	b	0x47fb4 <_ZN18ChiFeature2GenericD2Ev+0x2154>
   480d4: 01 07 00 54  	b.ne	0x481b4 <_ZN18ChiFeature2GenericD2Ev+0x2354>
   480dc: c1 06 00 54  	b.ne	0x481b4 <_ZN18ChiFeature2GenericD2Ev+0x2354>
   480f0: 41 07 00 54  	b.ne	0x481d8 <_ZN18ChiFeature2GenericD2Ev+0x2378>
   480fc: e3 05 00 54  	b.lo	0x481b8 <_ZN18ChiFeature2GenericD2Ev+0x2358>
   48104: a3 05 00 54  	b.lo	0x481b8 <_ZN18ChiFeature2GenericD2Ev+0x2358>
   48118: 01 06 00 54  	b.ne	0x481d8 <_ZN18ChiFeature2GenericD2Ev+0x2378>
   4811c: 25 64 00 94  	bl	0x611b0 <_ZN15ExtensionModule11GetInstanceEv@plt>
   48124: 49 05 00 b4  	cbz	x9, 0x481cc <_ZN18ChiFeature2GenericD2Ev+0x236c>
   48130: e1 04 00 54  	b.ne	0x481cc <_ZN18ChiFeature2GenericD2Ev+0x236c>
   48134: 1f 64 00 94  	bl	0x611b0 <_ZN15ExtensionModule11GetInstanceEv@plt>
   48144: 08 04 00 54  	b.hi	0x481c4 <_ZN18ChiFeature2GenericD2Ev+0x2364>
   48164: 00 03 00 54  	b.eq	0x481c4 <_ZN18ChiFeature2GenericD2Ev+0x2364>
   48170: 61 8d 02 54  	b.ne	0x4d31c <_ZN18ChiFeature2GenericD2Ev+0x74bc>
   4817c: 01 8d 02 54  	b.ne	0x4d31c <_ZN18ChiFeature2GenericD2Ev+0x74bc>
   48190: 12 00 00 14  	b	0x481d8 <_ZN18ChiFeature2GenericD2Ev+0x2378>
   481b0: 22 00 00 14  	b	0x48238 <_ZN18ChiFeature2GenericD2Ev+0x23d8>
   481c0: 06 00 00 14  	b	0x481d8 <_ZN18ChiFeature2GenericD2Ev+0x2378>
   481c8: 00 fd ff 54  	b.eq	0x48168 <_ZN18ChiFeature2GenericD2Ev+0x2308>
   481f4: 07 00 00 14  	b	0x48210 <_ZN18ChiFeature2GenericD2Ev+0x23b0>
   4820c: 40 01 00 54  	b.eq	0x48234 <_ZN18ChiFeature2GenericD2Ev+0x23d4>
   48214: 6b 64 00 94  	bl	0x613c0 <_ZN15UsecaseSelector11IsRawStreamEPK14camera3_stream@plt>
   48218: 40 ff ff 34  	cbz	w0, 0x48200 <_ZN18ChiFeature2GenericD2Ev+0x23a0>
   48228: 81 fe ff 54  	b.ne	0x481f8 <_ZN18ChiFeature2GenericD2Ev+0x2398>
   48230: f4 ff ff 17  	b	0x48200 <_ZN18ChiFeature2GenericD2Ev+0x23a0>
   4826c: a0 00 00 54  	b.eq	0x48280 <_ZN18ChiFeature2GenericD2Ev+0x2420>
   48270: 49 02 00 35  	cbnz	w9, 0x482b8 <_ZN18ChiFeature2GenericD2Ev+0x2458>
   4827c: c9 0c 00 54  	b.ls	0x48414 <_ZN18ChiFeature2GenericD2Ev+0x25b4>
   48288: c1 01 00 54  	b.ne	0x482c0 <_ZN18ChiFeature2GenericD2Ev+0x2460>
   48290: 7c 03 00 34  	cbz	w28, 0x482fc <_ZN18ChiFeature2GenericD2Ev+0x249c>
   482a0: e0 02 00 54  	b.eq	0x482fc <_ZN18ChiFeature2GenericD2Ev+0x249c>
   482b4: 0e 00 00 14  	b	0x482ec <_ZN18ChiFeature2GenericD2Ev+0x248c>
   482bc: 10 00 00 14  	b	0x482fc <_ZN18ChiFeature2GenericD2Ev+0x249c>
   482d4: d0 00 00 b4  	cbz	x16, 0x482ec <_ZN18ChiFeature2GenericD2Ev+0x248c>
   482dc: 81 00 00 54  	b.ne	0x482ec <_ZN18ChiFeature2GenericD2Ev+0x248c>
   482e0: 7c 00 00 35  	cbnz	w28, 0x482ec <_ZN18ChiFeature2GenericD2Ev+0x248c>
   482e8: 05 00 00 14  	b	0x482fc <_ZN18ChiFeature2GenericD2Ev+0x249c>
   48300: a0 00 00 54  	b.eq	0x48314 <_ZN18ChiFeature2GenericD2Ev+0x24b4>
   48304: 89 08 00 35  	cbnz	w9, 0x48414 <_ZN18ChiFeature2GenericD2Ev+0x25b4>
   48310: 23 08 00 54  	b.lo	0x48414 <_ZN18ChiFeature2GenericD2Ev+0x25b4>
   48324: 8b 64 00 94  	bl	0x61550 <_ZN15UsecaseSelector30GetSnapshotStreamConfigByCamIdEjPP9ChiStreamR20SnapshotStreamConfigji@plt>
   48328: e8 00 00 90  	adrp	x8, 0x64000 <_ZN18ChiFeature2GenericD2Ev+0x2538>
   48334: 54 06 28 36  	tbz	w20, #5, 0x483fc <_ZN18ChiFeature2GenericD2Ev+0x259c>
   48338: e7 00 00 90  	adrp	x7, 0x64000 <_ZN18ChiFeature2GenericD2Ev+0x2548>
   48348: c1 02 00 54  	b.ne	0x483a0 <_ZN18ChiFeature2GenericD2Ev+0x2540>
   4834c: 3c fe ff 90  	adrp	x28, 0xc000 <_ZN18ChiFeature2GenericD2Ev+0x23fc>
   4836c: 41 fe ff d0  	adrp	x1, 0x12000 <_ZN18ChiFeature2GenericD2Ev+0x2434>
   48374: 22 fe ff d0  	adrp	x2, 0xe000 <_ZN18ChiFeature2GenericD2Ev+0x242c>
   48378: 25 fe ff 90  	adrp	x5, 0xc000 <_ZN18ChiFeature2GenericD2Ev+0x2428>
   483a0: 37 fe ff 90  	adrp	x23, 0xc000 <_ZN18ChiFeature2GenericD2Ev+0x2450>
   483c8: 40 fe ff d0  	adrp	x0, 0x12000 <_ZN18ChiFeature2GenericD2Ev+0x2490>
   483cc: 41 fe ff 90  	adrp	x1, 0x10000 <_ZN18ChiFeature2GenericD2Ev+0x248c>
   483d0: 23 fe ff 90  	adrp	x3, 0xc000 <_ZN18ChiFeature2GenericD2Ev+0x2480>
   483d4: 05 fe ff f0  	adrp	x5, 0xb000 <_ZN18ChiFeature2GenericD2Ev+0x2480>
   483f4: 67 63 00 94  	bl	0x61190 <_ZN6ChiLog9LogSystemEPKcS1_S1_S1_iS1_z@plt>
   48400: b4 01 00 b5  	cbnz	x20, 0x48434 <_ZN18ChiFeature2GenericD2Ev+0x25d4>
   48408: 7c 01 00 b5  	cbnz	x28, 0x48434 <_ZN18ChiFeature2GenericD2Ev+0x25d4>
   48410: 39 01 00 b5  	cbnz	x25, 0x48434 <_ZN18ChiFeature2GenericD2Ev+0x25d4>
   48420: 2c 64 00 94  	bl	0x614d0 <_ZN15UsecaseSelector30GetSnapshotStreamConfigurationEjPP9ChiStreamR20SnapshotStreamConfig@plt>
   48424: 80 00 00 34  	cbz	w0, 0x48434 <_ZN18ChiFeature2GenericD2Ev+0x25d4>
   48430: 0d 00 00 14  	b	0x48464 <_ZN18ChiFeature2GenericD2Ev+0x2604>
   48438: 34 01 00 b4  	cbz	x20, 0x4845c <_ZN18ChiFeature2GenericD2Ev+0x25fc>
   4843c: f0 00 00 90  	adrp	x16, 0x64000 <_ZN18ChiFeature2GenericD2Ev+0x264c>
   48450: b7 07 18 37  	tbnz	w23, #3, 0x48544 <_ZN18ChiFeature2GenericD2Ev+0x26e4>
   48458: 6c 00 00 14  	b	0x48608 <_ZN18ChiFeature2GenericD2Ev+0x27a8>
   48464: e3 00 00 90  	adrp	x3, 0x64000 <_ZN18ChiFeature2GenericD2Ev+0x2674>
   48470: 6b 00 18 37  	tbnz	w11, #3, 0x4847c <_ZN18ChiFeature2GenericD2Ev+0x261c>
   48478: 30 00 00 14  	b	0x48538 <_ZN18ChiFeature2GenericD2Ev+0x26d8>
   4847c: e8 00 00 90  	adrp	x8, 0x64000 <_ZN18ChiFeature2GenericD2Ev+0x268c>
   48490: a1 02 00 54  	b.ne	0x484e4 <_ZN18ChiFeature2GenericD2Ev+0x2684>
   48494: 55 fe ff 90  	adrp	x21, 0x10000 <_ZN18ChiFeature2GenericD2Ev+0x2554>
   484b4: 41 fe ff d0  	adrp	x1, 0x12000 <_ZN18ChiFeature2GenericD2Ev+0x257c>
   484b8: 22 fe ff f0  	adrp	x2, 0xf000 <_ZN18ChiFeature2GenericD2Ev+0x2574>
   484bc: 45 fe ff 90  	adrp	x5, 0x10000 <_ZN18ChiFeature2GenericD2Ev+0x257c>
   484e4: 54 fe ff 90  	adrp	x20, 0x10000 <_ZN18ChiFeature2GenericD2Ev+0x25a4>
   48508: 40 fe ff f0  	adrp	x0, 0x13000 <_ZN18ChiFeature2GenericD2Ev+0x25d4>
   4850c: 21 fe ff f0  	adrp	x1, 0xf000 <_ZN18ChiFeature2GenericD2Ev+0x25c8>
   48510: 43 fe ff 90  	adrp	x3, 0x10000 <_ZN18ChiFeature2GenericD2Ev+0x25d0>
   48514: 45 fe ff b0  	adrp	x5, 0x11000 <_ZN18ChiFeature2GenericD2Ev+0x25d8>
   48534: 17 63 00 94  	bl	0x61190 <_ZN6ChiLog9LogSystemEPKcS1_S1_S1_iS1_z@plt>
   48540: 34 00 00 14  	b	0x48610 <_ZN18ChiFeature2GenericD2Ev+0x27b0>
   48544: e0 00 00 90  	adrp	x0, 0x64000 <_ZN18ChiFeature2GenericD2Ev+0x2754>
   48558: c1 02 00 54  	b.ne	0x485b0 <_ZN18ChiFeature2GenericD2Ev+0x2750>
   4855c: 57 fe ff 90  	adrp	x23, 0x10000 <_ZN18ChiFeature2GenericD2Ev+0x261c>
   48580: 41 fe ff d0  	adrp	x1, 0x12000 <_ZN18ChiFeature2GenericD2Ev+0x2648>
   48584: 42 fe ff 90  	adrp	x2, 0x10000 <_ZN18ChiFeature2GenericD2Ev+0x2644>
   48588: 45 fe ff 90  	adrp	x5, 0x10000 <_ZN18ChiFeature2GenericD2Ev+0x2648>
   485b0: 5c fe ff 90  	adrp	x28, 0x10000 <_ZN18ChiFeature2GenericD2Ev+0x2670>
   485d8: 40 fe ff f0  	adrp	x0, 0x13000 <_ZN18ChiFeature2GenericD2Ev+0x26a4>
   485dc: 21 fe ff f0  	adrp	x1, 0xf000 <_ZN18ChiFeature2GenericD2Ev+0x2698>
   485e0: 43 fe ff 90  	adrp	x3, 0x10000 <_ZN18ChiFeature2GenericD2Ev+0x26a0>
   485e4: 25 fe ff f0  	adrp	x5, 0xf000 <_ZN18ChiFeature2GenericD2Ev+0x26a0>
   48604: e3 62 00 94  	bl	0x61190 <_ZN6ChiLog9LogSystemEPKcS1_S1_S1_iS1_z@plt>
   48614: ed 00 00 90  	adrp	x13, 0x64000 <_ZN18ChiFeature2GenericD2Ev+0x2824>
   48640: cd 05 18 36  	tbz	w13, #3, 0x486f8 <_ZN18ChiFeature2GenericD2Ev+0x2898>
   48644: e9 00 00 90  	adrp	x9, 0x64000 <_ZN18ChiFeature2GenericD2Ev+0x2854>
   48654: c1 02 00 54  	b.ne	0x486ac <_ZN18ChiFeature2GenericD2Ev+0x284c>
   4865c: 56 fe ff 90  	adrp	x22, 0x10000 <_ZN18ChiFeature2GenericD2Ev+0x271c>
   48678: 41 fe ff d0  	adrp	x1, 0x12000 <_ZN18ChiFeature2GenericD2Ev+0x2740>
   48688: 22 fe ff 90  	adrp	x2, 0xc000 <_ZN18ChiFeature2GenericD2Ev+0x2738>
   4868c: 45 fe ff 90  	adrp	x5, 0x10000 <_ZN18ChiFeature2GenericD2Ev+0x274c>
   486ac: 58 fe ff 90  	adrp	x24, 0x10000 <_ZN18ChiFeature2GenericD2Ev+0x276c>
   486c8: 21 fe ff f0  	adrp	x1, 0xf000 <_ZN18ChiFeature2GenericD2Ev+0x2784>
   486d0: 40 fe ff f0  	adrp	x0, 0x13000 <_ZN18ChiFeature2GenericD2Ev+0x279c>
   486d4: 43 fe ff 90  	adrp	x3, 0x10000 <_ZN18ChiFeature2GenericD2Ev+0x2794>
   486d8: 45 fe ff 90  	adrp	x5, 0x10000 <_ZN18ChiFeature2GenericD2Ev+0x2798>
   486f4: a7 62 00 94  	bl	0x61190 <_ZN6ChiLog9LogSystemEPKcS1_S1_S1_iS1_z@plt>
   48700: 48 3a 00 54  	b.hi	0x48e48 <_ZN18ChiFeature2GenericD2Ev+0x2fe8>
   48704: 4a fe ff f0  	adrp	x10, 0x13000 <_ZN18ChiFeature2GenericD2Ev+0x27d0>
   48728: c1 53 00 54  	b.ne	0x491a0 <_ZN18ChiFeature2GenericD2Ev+0x3340>
   48734: 01 62 00 34  	cbz	w1, 0x49374 <_ZN18ChiFeature2GenericD2Ev+0x3514>
   48744: 06 00 00 14  	b	0x4875c <_ZN18ChiFeature2GenericD2Ev+0x28fc>
   48758: e0 60 00 54  	b.eq	0x49374 <_ZN18ChiFeature2GenericD2Ev+0x3514>
   48768: 01 ff ff 54  	b.ne	0x48748 <_ZN18ChiFeature2GenericD2Ev+0x28e8>
   48774: 60 00 00 54  	b.eq	0x48780 <_ZN18ChiFeature2GenericD2Ev+0x2920>
   4877c: 61 fe ff 54  	b.ne	0x48748 <_ZN18ChiFeature2GenericD2Ev+0x28e8>
   48788: 01 fe ff 54  	b.ne	0x48748 <_ZN18ChiFeature2GenericD2Ev+0x28e8>
   48794: a1 fd ff 54  	b.ne	0x48748 <_ZN18ChiFeature2GenericD2Ev+0x28e8>
   48798: f6 00 00 90  	adrp	x22, 0x64000 <_ZN18ChiFeature2GenericD2Ev+0x29a8>
   487a8: 8a 06 18 36  	tbz	w10, #3, 0x48878 <_ZN18ChiFeature2GenericD2Ev+0x2a18>
   487ac: eb 00 00 90  	adrp	x11, 0x64000 <_ZN18ChiFeature2GenericD2Ev+0x29bc>
   487bc: e1 02 00 54  	b.ne	0x48818 <_ZN18ChiFeature2GenericD2Ev+0x29b8>
   487c0: 59 fe ff 90  	adrp	x25, 0x10000 <_ZN18ChiFeature2GenericD2Ev+0x2880>
   487e0: 41 fe ff d0  	adrp	x1, 0x12000 <_ZN18ChiFeature2GenericD2Ev+0x28a8>
   487e4: 42 fe ff d0  	adrp	x2, 0x12000 <_ZN18ChiFeature2GenericD2Ev+0x28ac>
   487e8: 45 fe ff 90  	adrp	x5, 0x10000 <_ZN18ChiFeature2GenericD2Ev+0x28a8>
   48818: 59 fe ff 90  	adrp	x25, 0x10000 <_ZN18ChiFeature2GenericD2Ev+0x28d8>
   4883c: 40 fe ff f0  	adrp	x0, 0x13000 <_ZN18ChiFeature2GenericD2Ev+0x2908>
   48840: 21 fe ff f0  	adrp	x1, 0xf000 <_ZN18ChiFeature2GenericD2Ev+0x28fc>
   48844: 43 fe ff 90  	adrp	x3, 0x10000 <_ZN18ChiFeature2GenericD2Ev+0x2904>
   48848: 25 fe ff 90  	adrp	x5, 0xc000 <_ZN18ChiFeature2GenericD2Ev+0x28f8>
   48870: 48 62 00 94  	bl	0x61190 <_ZN6ChiLog9LogSystemEPKcS1_S1_S1_iS1_z@plt>
   48884: be 02 00 14  	b	0x4937c <_ZN18ChiFeature2GenericD2Ev+0x351c>
   488a4: eb f4 ff 97  	bl	0x45c50 <_ZN18ChiFeature2Generic19CreateROITranslatorEP21ChiFeature2Identifier+0x520>
   488c8: e2 f4 ff 97  	bl	0x45c50 <_ZN18ChiFeature2Generic19CreateROITranslatorEP21ChiFeature2Identifier+0x520>
   488d0: f0 59 00 34  	cbz	w16, 0x4940c <_ZN18ChiFeature2GenericD2Ev+0x35ac>
   48900: 09 00 00 14  	b	0x48924 <_ZN18ChiFeature2GenericD2Ev+0x2ac4>
   48910: ba f9 ff 97  	bl	0x46ff8 <_ZN18ChiFeature2GenericD2Ev+0x1198>
   48920: 80 55 00 54  	b.eq	0x493d0 <_ZN18ChiFeature2GenericD2Ev+0x3570>
   48934: db 62 00 94  	bl	0x614a0 <_ZN15UsecaseSelector15IsPreviewStreamEPK14camera3_stream@plt>
   4893c: c1 fe ff 54  	b.ne	0x48914 <_ZN18ChiFeature2GenericD2Ev+0x2ab4>
   48940: 57 01 00 b4  	cbz	x23, 0x48968 <_ZN18ChiFeature2GenericD2Ev+0x2b08>
   48948: 00 01 00 b4  	cbz	x0, 0x48968 <_ZN18ChiFeature2GenericD2Ev+0x2b08>
   48954: a0 00 00 b4  	cbz	x0, 0x48968 <_ZN18ChiFeature2GenericD2Ev+0x2b08>
   48964: 81 fd ff 54  	b.ne	0x48914 <_ZN18ChiFeature2GenericD2Ev+0x2ab4>
   48978: c0 01 00 b4  	cbz	x0, 0x489b0 <_ZN18ChiFeature2GenericD2Ev+0x2b50>
   48990: 37 01 00 b4  	cbz	x23, 0x489b4 <_ZN18ChiFeature2GenericD2Ev+0x2b54>
   489ac: 02 00 00 14  	b	0x489b4 <_ZN18ChiFeature2GenericD2Ev+0x2b54>
   489c0: 8e f9 ff 97  	bl	0x46ff8 <_ZN18ChiFeature2GenericD2Ev+0x1198>
   489c8: 1b f7 00 b4  	cbz	x27, 0x4a8a8 <_ZN18ChiFeature2GenericD2Ev+0x4a48>
   489d4: 82 f9 ff 54  	b.hs	0x48904 <_ZN18ChiFeature2GenericD2Ev+0x2aa4>
   489e0: 22 f9 ff 54  	b.hs	0x48904 <_ZN18ChiFeature2GenericD2Ev+0x2aa4>
   489e8: c7 ff ff 17  	b	0x48904 <_ZN18ChiFeature2GenericD2Ev+0x2aa4>
   489fc: e0 50 00 b4  	cbz	x0, 0x49418 <_ZN18ChiFeature2GenericD2Ev+0x35b8>
   48a00: e1 00 00 d0  	adrp	x1, 0x66000 <_ZN18ChiFeature2GenericD2Ev+0x2c18>
   48a24: 7e 02 00 14  	b	0x4941c <_ZN18ChiFeature2GenericD2Ev+0x35bc>
   48a34: a1 38 00 54  	b.ne	0x49148 <_ZN18ChiFeature2GenericD2Ev+0x32e8>
   48a3c: 2d 0b 00 34  	cbz	w13, 0x48ba0 <_ZN18ChiFeature2GenericD2Ev+0x2d40>
   48a54: 05 00 00 14  	b	0x48a68 <_ZN18ChiFeature2GenericD2Ev+0x2c08>
   48a64: e0 09 00 54  	b.eq	0x48ba0 <_ZN18ChiFeature2GenericD2Ev+0x2d40>
   48a74: 21 ff ff 54  	b.ne	0x48a58 <_ZN18ChiFeature2GenericD2Ev+0x2bf8>
   48a80: 60 00 00 54  	b.eq	0x48a8c <_ZN18ChiFeature2GenericD2Ev+0x2c2c>
   48a88: 81 fe ff 54  	b.ne	0x48a58 <_ZN18ChiFeature2GenericD2Ev+0x2bf8>
   48a94: 21 fe ff 54  	b.ne	0x48a58 <_ZN18ChiFeature2GenericD2Ev+0x2bf8>
   48aa0: c1 fd ff 54  	b.ne	0x48a58 <_ZN18ChiFeature2GenericD2Ev+0x2bf8>
   48aac: f7 00 00 90  	adrp	x23, 0x64000 <_ZN18ChiFeature2GenericD2Ev+0x2cbc>
   48abc: 5a 06 18 36  	tbz	w26, #3, 0x48b84 <_ZN18ChiFeature2GenericD2Ev+0x2d24>
   48ac0: fb 00 00 90  	adrp	x27, 0x64000 <_ZN18ChiFeature2GenericD2Ev+0x2cd0>
   48ad0: e1 02 00 54  	b.ne	0x48b2c <_ZN18ChiFeature2GenericD2Ev+0x2ccc>
   48ad4: 57 fe ff 90  	adrp	x23, 0x10000 <_ZN18ChiFeature2GenericD2Ev+0x2b94>
   48af4: 41 fe ff d0  	adrp	x1, 0x12000 <_ZN18ChiFeature2GenericD2Ev+0x2bbc>
   48af8: 42 fe ff d0  	adrp	x2, 0x12000 <_ZN18ChiFeature2GenericD2Ev+0x2bc0>
   48afc: 45 fe ff 90  	adrp	x5, 0x10000 <_ZN18ChiFeature2GenericD2Ev+0x2bbc>
   48b2c: 53 fe ff 90  	adrp	x19, 0x10000 <_ZN18ChiFeature2GenericD2Ev+0x2bec>
   48b50: 40 fe ff f0  	adrp	x0, 0x13000 <_ZN18ChiFeature2GenericD2Ev+0x2c1c>
   48b54: 21 fe ff f0  	adrp	x1, 0xf000 <_ZN18ChiFeature2GenericD2Ev+0x2c10>
   48b58: 43 fe ff 90  	adrp	x3, 0x10000 <_ZN18ChiFeature2GenericD2Ev+0x2c18>
   48b5c: 25 fe ff 90  	adrp	x5, 0xc000 <_ZN18ChiFeature2GenericD2Ev+0x2c0c>
   48b80: 84 61 00 94  	bl	0x61190 <_ZN6ChiLog9LogSystemEPKcS1_S1_S1_iS1_z@plt>
   48b98: 18 f9 ff 97  	bl	0x46ff8 <_ZN18ChiFeature2GenericD2Ev+0x1198>
   48bb0: f8 8c 00 37  	tbnz	w24, #0, 0x49d4c <_ZN18ChiFeature2GenericD2Ev+0x3eec>
   48bb8: db c0 01 b5  	cbnz	x27, 0x4c3d0 <_ZN18ChiFeature2GenericD2Ev+0x6570>
   48bcc: 60 be 01 b4  	cbz	x0, 0x4c398 <_ZN18ChiFeature2GenericD2Ev+0x6538>
   48bd0: e6 00 00 f0  	adrp	x6, 0x67000 <_ZN18ChiFeature2GenericD2Ev+0x2dec>
   48bf4: ea 0d 00 14  	b	0x4c39c <_ZN18ChiFeature2GenericD2Ev+0x653c>
   48c08: 55 fe ff 90  	adrp	x21, 0x10000 <_ZN18ChiFeature2GenericD2Ev+0x2cc8>
   48c34: 08 00 00 14  	b	0x48c54 <_ZN18ChiFeature2GenericD2Ev+0x2df4>
   48c50: 20 36 02 54  	b.eq	0x4d314 <_ZN18ChiFeature2GenericD2Ev+0x74b4>
   48c5c: 00 25 00 54  	b.eq	0x490fc <_ZN18ChiFeature2GenericD2Ev+0x329c>
   48c6c: 61 fe ff 54  	b.ne	0x48c38 <_ZN18ChiFeature2GenericD2Ev+0x2dd8>
   48c78: a0 01 00 54  	b.eq	0x48cac <_ZN18ChiFeature2GenericD2Ev+0x2e4c>
   48c90: c8 00 00 54  	b.hi	0x48ca8 <_ZN18ChiFeature2GenericD2Ev+0x2e48>
   48ca4: 49 00 00 54  	b.ls	0x48cac <_ZN18ChiFeature2GenericD2Ev+0x2e4c>
   48cac: 41 61 00 94  	bl	0x611b0 <_ZN15ExtensionModule11GetInstanceEv@plt>
   48cbc: e8 07 00 54  	b.hi	0x48db8 <_ZN18ChiFeature2GenericD2Ev+0x2f58>
   48cc8: 80 07 00 54  	b.eq	0x48db8 <_ZN18ChiFeature2GenericD2Ev+0x2f58>
   48cdc: 01 32 02 54  	b.ne	0x4d31c <_ZN18ChiFeature2GenericD2Ev+0x74bc>
   48ce4: 82 00 00 54  	b.hs	0x48cf4 <_ZN18ChiFeature2GenericD2Ev+0x2e94>
   48cf0: c2 f8 ff 97  	bl	0x46ff8 <_ZN18ChiFeature2GenericD2Ev+0x1198>
   48cf4: e7 00 00 90  	adrp	x7, 0x64000 <_ZN18ChiFeature2GenericD2Ev+0x2f04>
   48d00: e1 f9 1f 36  	tbz	w1, #3, 0x48c3c <_ZN18ChiFeature2GenericD2Ev+0x2ddc>
   48d04: ea 00 00 90  	adrp	x10, 0x64000 <_ZN18ChiFeature2GenericD2Ev+0x2f14>
   48d14: 81 02 00 54  	b.ne	0x48d64 <_ZN18ChiFeature2GenericD2Ev+0x2f04>
   48d30: 41 fe ff d0  	adrp	x1, 0x12000 <_ZN18ChiFeature2GenericD2Ev+0x2df8>
   48d34: 22 fe ff b0  	adrp	x2, 0xd000 <_ZN18ChiFeature2GenericD2Ev+0x2de8>
   48d38: 45 fe ff 90  	adrp	x5, 0x10000 <_ZN18ChiFeature2GenericD2Ev+0x2df8>
   48d80: 40 fe ff f0  	adrp	x0, 0x13000 <_ZN18ChiFeature2GenericD2Ev+0x2e4c>
   48d84: 21 fe ff f0  	adrp	x1, 0xf000 <_ZN18ChiFeature2GenericD2Ev+0x2e40>
   48d88: 43 fe ff 90  	adrp	x3, 0x10000 <_ZN18ChiFeature2GenericD2Ev+0x2e48>
   48d8c: 45 fe ff b0  	adrp	x5, 0x11000 <_ZN18ChiFeature2GenericD2Ev+0x2e50>
   48db0: f8 60 00 94  	bl	0x61190 <_ZN6ChiLog9LogSystemEPKcS1_S1_S1_iS1_z@plt>
   48db4: a2 ff ff 17  	b	0x48c3c <_ZN18ChiFeature2GenericD2Ev+0x2ddc>
   48dbc: 80 f8 ff 54  	b.eq	0x48ccc <_ZN18ChiFeature2GenericD2Ev+0x2e6c>
   48dc0: ca ff ff 17  	b	0x48ce8 <_ZN18ChiFeature2GenericD2Ev+0x2e88>
   48dd4: 00 35 00 b4  	cbz	x0, 0x49474 <_ZN18ChiFeature2GenericD2Ev+0x3614>
   48ddc: f7 00 00 f0  	adrp	x23, 0x67000 <_ZN18ChiFeature2GenericD2Ev+0x2ff8>
   48e04: 9d 01 00 14  	b	0x49478 <_ZN18ChiFeature2GenericD2Ev+0x3618>
   48e1c: c0 3c 00 b4  	cbz	x0, 0x495b4 <_ZN18ChiFeature2GenericD2Ev+0x3754>
   48e20: f7 00 00 f0  	adrp	x23, 0x67000 <_ZN18ChiFeature2GenericD2Ev+0x303c>
   48e44: dd 01 00 14  	b	0x495b8 <_ZN18ChiFeature2GenericD2Ev+0x3758>
   48e48: e7 00 00 90  	adrp	x7, 0x64000 <_ZN18ChiFeature2GenericD2Ev+0x3058>
   48e54: 87 1d 00 37  	tbnz	w7, #0, 0x49204 <_ZN18ChiFeature2GenericD2Ev+0x33a4>
   48e5c: a1 10 00 14  	b	0x4d0e0 <_ZN18ChiFeature2GenericD2Ev+0x7280>
   48e70: 20 3e 00 b4  	cbz	x0, 0x49634 <_ZN18ChiFeature2GenericD2Ev+0x37d4>
   48e74: ee 00 00 f0  	adrp	x14, 0x67000 <_ZN18ChiFeature2GenericD2Ev+0x3090>
   48e98: e8 01 00 14  	b	0x49638 <_ZN18ChiFeature2GenericD2Ev+0x37d8>
   48eac: 61 20 00 54  	b.ne	0x492b8 <_ZN18ChiFeature2GenericD2Ev+0x3458>
   48ec4: 75 7a 00 37  	tbnz	w21, #0, 0x49e10 <_ZN18ChiFeature2GenericD2Ev+0x3fb0>
   48ed8: c0 eb 00 b4  	cbz	x0, 0x4ac50 <_ZN18ChiFeature2GenericD2Ev+0x4df0>
   48edc: fc 00 00 f0  	adrp	x28, 0x67000 <_ZN18ChiFeature2GenericD2Ev+0x30f8>
   48f00: 55 07 00 14  	b	0x4ac54 <_ZN18ChiFeature2GenericD2Ev+0x4df4>
   48f14: c0 3d 00 b4  	cbz	x0, 0x496cc <_ZN18ChiFeature2GenericD2Ev+0x386c>
   48f18: f8 00 00 f0  	adrp	x24, 0x67000 <_ZN18ChiFeature2GenericD2Ev+0x3134>
   48f3c: e5 01 00 14  	b	0x496d0 <_ZN18ChiFeature2GenericD2Ev+0x3870>
   48f4c: 4e 45 00 b4  	cbz	x14, 0x497f4 <_ZN18ChiFeature2GenericD2Ev+0x3994>
   48f54: 9b 45 00 34  	cbz	w27, 0x49804 <_ZN18ChiFeature2GenericD2Ev+0x39a4>
   48f80: e1 03 00 54  	b.ne	0x48ffc <_ZN18ChiFeature2GenericD2Ev+0x319c>
   48f84: 75 01 00 b4  	cbz	x21, 0x48fb0 <_ZN18ChiFeature2GenericD2Ev+0x3150>
   48f8c: 20 01 00 b4  	cbz	x0, 0x48fb0 <_ZN18ChiFeature2GenericD2Ev+0x3150>
   48f98: c0 00 00 b4  	cbz	x0, 0x48fb0 <_ZN18ChiFeature2GenericD2Ev+0x3150>
   48fa8: a0 00 00 54  	b.eq	0x48fbc <_ZN18ChiFeature2GenericD2Ev+0x315c>
   48fac: 14 00 00 14  	b	0x48ffc <_ZN18ChiFeature2GenericD2Ev+0x319c>
   48fb8: 21 02 00 54  	b.ne	0x48ffc <_ZN18ChiFeature2GenericD2Ev+0x319c>
   48fc0: a2 1a 02 54  	b.hs	0x4d314 <_ZN18ChiFeature2GenericD2Ev+0x74b4>
   48fc8: 80 01 00 54  	b.eq	0x48ff8 <_ZN18ChiFeature2GenericD2Ev+0x3198>
   48fe4: a8 00 00 54  	b.hi	0x48ff8 <_ZN18ChiFeature2GenericD2Ev+0x3198>
   48ff4: 49 00 00 54  	b.ls	0x48ffc <_ZN18ChiFeature2GenericD2Ev+0x319c>
   49000: a0 18 02 54  	b.eq	0x4d314 <_ZN18ChiFeature2GenericD2Ev+0x74b4>
   49010: 01 fb ff 54  	b.ne	0x48f70 <_ZN18ChiFeature2GenericD2Ev+0x3110>
   4901c: e0 fc 00 54  	b.eq	0x4afb8 <_ZN18ChiFeature2GenericD2Ev+0x5158>
   49024: a1 fc 00 54  	b.ne	0x4afb8 <_ZN18ChiFeature2GenericD2Ev+0x5158>
   49044: 80 f3 00 b4  	cbz	x0, 0x4aeb4 <_ZN18ChiFeature2GenericD2Ev+0x5054>
   4905c: fc f2 00 b4  	cbz	x28, 0x4aeb8 <_ZN18ChiFeature2GenericD2Ev+0x5058>
   49078: 90 07 00 14  	b	0x4aeb8 <_ZN18ChiFeature2GenericD2Ev+0x5058>
   49090: 20 52 00 b4  	cbz	x0, 0x49ad4 <_ZN18ChiFeature2GenericD2Ev+0x3c74>
   49094: f1 00 00 b0  	adrp	x17, 0x66000 <_ZN18ChiFeature2GenericD2Ev+0x32a8>
   490b8: 88 02 00 14  	b	0x49ad8 <_ZN18ChiFeature2GenericD2Ev+0x3c78>
   490d0: a0 5c 00 b4  	cbz	x0, 0x49c64 <_ZN18ChiFeature2GenericD2Ev+0x3e04>
   490d4: f8 00 00 d0  	adrp	x24, 0x67000 <_ZN18ChiFeature2GenericD2Ev+0x32ec>
   490f8: dc 02 00 14  	b	0x49c68 <_ZN18ChiFeature2GenericD2Ev+0x3e08>
   49108: e0 ab 00 54  	b.eq	0x4a684 <_ZN18ChiFeature2GenericD2Ev+0x4824>
   4911c: 00 a9 00 b4  	cbz	x0, 0x4a63c <_ZN18ChiFeature2GenericD2Ev+0x47dc>
   49120: e4 00 00 b0  	adrp	x4, 0x66000 <_ZN18ChiFeature2GenericD2Ev+0x3334>
   49144: 3f 05 00 14  	b	0x4a640 <_ZN18ChiFeature2GenericD2Ev+0x47e0>
   49150: 80 00 00 54  	b.eq	0x49160 <_ZN18ChiFeature2GenericD2Ev+0x3300>
   49154: c5 67 00 35  	cbnz	w5, 0x49e4c <_ZN18ChiFeature2GenericD2Ev+0x3fec>
   4915c: 89 67 00 54  	b.ls	0x49e4c <_ZN18ChiFeature2GenericD2Ev+0x3fec>
   49170: 20 da 00 b4  	cbz	x0, 0x4acb4 <_ZN18ChiFeature2GenericD2Ev+0x4e54>
   49174: ee 00 00 d0  	adrp	x14, 0x67000 <_ZN18ChiFeature2GenericD2Ev+0x338c>
   4919c: c8 06 00 14  	b	0x4acbc <_ZN18ChiFeature2GenericD2Ev+0x4e5c>
   491a8: 80 00 00 54  	b.eq	0x491b8 <_ZN18ChiFeature2GenericD2Ev+0x3358>
   491ac: 46 6b 00 35  	cbnz	w6, 0x49f14 <_ZN18ChiFeature2GenericD2Ev+0x40b4>
   491b4: 09 6b 00 54  	b.ls	0x49f14 <_ZN18ChiFeature2GenericD2Ev+0x40b4>
   491bc: ec e4 ff b4  	cbz	x12, 0x48e58 <_ZN18ChiFeature2GenericD2Ev+0x2ff8>
   491d8: 60 4e 01 b4  	cbz	x0, 0x4bba4 <_ZN18ChiFeature2GenericD2Ev+0x5d44>
   491dc: f4 00 00 d0  	adrp	x20, 0x67000 <_ZN18ChiFeature2GenericD2Ev+0x33f4>
   49200: 6a 0a 00 14  	b	0x4bba8 <_ZN18ChiFeature2GenericD2Ev+0x5d48>
   49204: c9 00 00 f0  	adrp	x9, 0x64000 <_ZN18ChiFeature2GenericD2Ev+0x3410>
   49218: 61 02 00 54  	b.ne	0x49264 <_ZN18ChiFeature2GenericD2Ev+0x3404>
   4921c: 36 fe ff f0  	adrp	x22, 0x10000 <_ZN18ChiFeature2GenericD2Ev+0x32d8>
   49238: 41 fe ff b0  	adrp	x1, 0x12000 <_ZN18ChiFeature2GenericD2Ev+0x32fc>
   4923c: 42 fe ff d0  	adrp	x2, 0x13000 <_ZN18ChiFeature2GenericD2Ev+0x3304>
   49240: 25 fe ff f0  	adrp	x5, 0x10000 <_ZN18ChiFeature2GenericD2Ev+0x32fc>
   49264: 35 fe ff f0  	adrp	x21, 0x10000 <_ZN18ChiFeature2GenericD2Ev+0x3320>
   49280: 41 fe ff b0  	adrp	x1, 0x12000 <_ZN18ChiFeature2GenericD2Ev+0x3344>
   49288: 00 fe ff f0  	adrp	x0, 0xc000 <_ZN18ChiFeature2GenericD2Ev+0x3334>
   4928c: 23 fe ff f0  	adrp	x3, 0x10000 <_ZN18ChiFeature2GenericD2Ev+0x3348>
   49290: 25 fe ff f0  	adrp	x5, 0x10000 <_ZN18ChiFeature2GenericD2Ev+0x334c>
   492ac: b9 5f 00 94  	bl	0x61190 <_ZN6ChiLog9LogSystemEPKcS1_S1_S1_iS1_z@plt>
   492b4: 8c 0f 00 14  	b	0x4d0e4 <_ZN18ChiFeature2GenericD2Ev+0x7284>
   492c0: 22 62 00 34  	cbz	w2, 0x49f04 <_ZN18ChiFeature2GenericD2Ev+0x40a4>
   492c8: d4 00 00 f0  	adrp	x20, 0x64000 <_ZN18ChiFeature2GenericD2Ev+0x34d4>
   492e0: 08 00 00 14  	b	0x49300 <_ZN18ChiFeature2GenericD2Ev+0x34a0>
   492ec: 43 f7 ff 97  	bl	0x46ff8 <_ZN18ChiFeature2GenericD2Ev+0x1198>
   492fc: e9 51 00 54  	b.ls	0x49d38 <_ZN18ChiFeature2GenericD2Ev+0x3ed8>
   49318: 21 01 00 54  	b.ne	0x4933c <_ZN18ChiFeature2GenericD2Ev+0x34dc>
   49328: a1 00 00 54  	b.ne	0x4933c <_ZN18ChiFeature2GenericD2Ev+0x34dc>
   49338: c0 fd ff 54  	b.eq	0x492f0 <_ZN18ChiFeature2GenericD2Ev+0x3490>
   49340: 20 fd ff b4  	cbz	x0, 0x492e4 <_ZN18ChiFeature2GenericD2Ev+0x3484>
   4934c: c0 00 00 b4  	cbz	x0, 0x49364 <_ZN18ChiFeature2GenericD2Ev+0x3504>
   4935c: 40 fc ff 54  	b.eq	0x492e4 <_ZN18ChiFeature2GenericD2Ev+0x3484>
   49360: e4 ff ff 17  	b	0x492f0 <_ZN18ChiFeature2GenericD2Ev+0x3490>
   4936c: 21 fc ff 54  	b.ne	0x492f0 <_ZN18ChiFeature2GenericD2Ev+0x3490>
   49370: dd ff ff 17  	b	0x492e4 <_ZN18ChiFeature2GenericD2Ev+0x3484>
   49388: 99 62 00 37  	tbnz	w25, #0, 0x49fd8 <_ZN18ChiFeature2GenericD2Ev+0x4178>
   4938c: 8d 62 00 b5  	cbnz	x13, 0x49fdc <_ZN18ChiFeature2GenericD2Ev+0x417c>
   493a4: 40 96 01 b4  	cbz	x0, 0x4c66c <_ZN18ChiFeature2GenericD2Ev+0x680c>
   493a8: ef 00 00 d0  	adrp	x15, 0x67000 <_ZN18ChiFeature2GenericD2Ev+0x35c0>
   493cc: a9 0c 00 14  	b	0x4c670 <_ZN18ChiFeature2GenericD2Ev+0x6810>
   493d0: fb ac 00 b4  	cbz	x27, 0x4a96c <_ZN18ChiFeature2GenericD2Ev+0x4b0c>
   493e8: c0 b3 00 b4  	cbz	x0, 0x4aa60 <_ZN18ChiFeature2GenericD2Ev+0x4c00>
   49408: 97 05 00 14  	b	0x4aa64 <_ZN18ChiFeature2GenericD2Ev+0x4c04>
   49414: e1 05 00 14  	b	0x4ab98 <_ZN18ChiFeature2GenericD2Ev+0x4d38>
   4942c: f3 f6 ff 97  	bl	0x46ff8 <_ZN18ChiFeature2GenericD2Ev+0x1198>
   49438: f8 20 00 b4  	cbz	x24, 0x49854 <_ZN18ChiFeature2GenericD2Ev+0x39f4>
   49444: f9 00 00 b4  	cbz	x25, 0x49460 <_ZN18ChiFeature2GenericD2Ev+0x3600>
   4945c: 69 33 01 54  	b.ls	0x4bac8 <_ZN18ChiFeature2GenericD2Ev+0x5c68>
   49464: fc a8 00 b4  	cbz	x28, 0x4a980 <_ZN18ChiFeature2GenericD2Ev+0x4b20>
   49470: 98 09 00 14  	b	0x4bad0 <_ZN18ChiFeature2GenericD2Ev+0x5c70>
   49484: dd f6 ff 97  	bl	0x46ff8 <_ZN18ChiFeature2GenericD2Ev+0x1198>
   49494: 33 07 00 b4  	cbz	x19, 0x49578 <_ZN18ChiFeature2GenericD2Ev+0x3718>
   494ac: d3 f6 ff 97  	bl	0x46ff8 <_ZN18ChiFeature2GenericD2Ev+0x1198>
   494b0: d9 00 00 f0  	adrp	x25, 0x64000 <_ZN18ChiFeature2GenericD2Ev+0x36bc>
   494bc: e7 05 18 36  	tbz	w7, #3, 0x49578 <_ZN18ChiFeature2GenericD2Ev+0x3718>
   494c4: d6 00 00 f0  	adrp	x22, 0x64000 <_ZN18ChiFeature2GenericD2Ev+0x36d0>
   494d4: 81 02 00 54  	b.ne	0x49524 <_ZN18ChiFeature2GenericD2Ev+0x36c4>
   494d8: 3a fe ff f0  	adrp	x26, 0x10000 <_ZN18ChiFeature2GenericD2Ev+0x3594>
   494f8: 41 fe ff b0  	adrp	x1, 0x12000 <_ZN18ChiFeature2GenericD2Ev+0x35bc>
   494fc: 22 fe ff d0  	adrp	x2, 0xf000 <_ZN18ChiFeature2GenericD2Ev+0x35b4>
   49500: 25 fe ff f0  	adrp	x5, 0x10000 <_ZN18ChiFeature2GenericD2Ev+0x35bc>
   49524: 39 fe ff f0  	adrp	x25, 0x10000 <_ZN18ChiFeature2GenericD2Ev+0x35e0>
   49540: 21 fe ff d0  	adrp	x1, 0xf000 <_ZN18ChiFeature2GenericD2Ev+0x35f8>
   4954c: 40 fe ff d0  	adrp	x0, 0x13000 <_ZN18ChiFeature2GenericD2Ev+0x3614>
   49550: 23 fe ff f0  	adrp	x3, 0x10000 <_ZN18ChiFeature2GenericD2Ev+0x360c>
   49554: 25 fe ff 90  	adrp	x5, 0xd000 <_ZN18ChiFeature2GenericD2Ev+0x3604>
   4956c: 09 5f 00 94  	bl	0x61190 <_ZN6ChiLog9LogSystemEPKcS1_S1_S1_iS1_z@plt>
   49588: 20 14 00 b4  	cbz	x0, 0x4980c <_ZN18ChiFeature2GenericD2Ev+0x39ac>
   4958c: f3 00 00 d0  	adrp	x19, 0x67000 <_ZN18ChiFeature2GenericD2Ev+0x37a4>
   495b0: 98 00 00 14  	b	0x49810 <_ZN18ChiFeature2GenericD2Ev+0x39b0>
   495c4: 8d f6 ff 97  	bl	0x46ff8 <_ZN18ChiFeature2GenericD2Ev+0x1198>
   495cc: 19 02 00 b4  	cbz	x25, 0x4960c <_ZN18ChiFeature2GenericD2Ev+0x37ac>
   495d4: f6 00 00 d0  	adrp	x22, 0x67000 <_ZN18ChiFeature2GenericD2Ev+0x37ec>
   49608: 7c f6 ff 97  	bl	0x46ff8 <_ZN18ChiFeature2GenericD2Ev+0x1198>
   49614: 6a 12 00 b4  	cbz	x10, 0x49860 <_ZN18ChiFeature2GenericD2Ev+0x3a00>
   49624: 75 f6 ff 97  	bl	0x46ff8 <_ZN18ChiFeature2GenericD2Ev+0x1198>
   49630: f3 04 00 14  	b	0x4a9fc <_ZN18ChiFeature2GenericD2Ev+0x4b9c>
   49644: 6d f6 ff 97  	bl	0x46ff8 <_ZN18ChiFeature2GenericD2Ev+0x1198>
   49650: 1b 02 00 b4  	cbz	x27, 0x49690 <_ZN18ChiFeature2GenericD2Ev+0x3830>
   49674: 61 00 00 54  	b.ne	0x49680 <_ZN18ChiFeature2GenericD2Ev+0x3820>
   49688: 5c f6 ff 97  	bl	0x46ff8 <_ZN18ChiFeature2GenericD2Ev+0x1198>
   496a0: 20 10 00 b4  	cbz	x0, 0x498a4 <_ZN18ChiFeature2GenericD2Ev+0x3a44>
   496a4: ef 00 00 d0  	adrp	x15, 0x67000 <_ZN18ChiFeature2GenericD2Ev+0x38bc>
   496c8: 78 00 00 14  	b	0x498a8 <_ZN18ChiFeature2GenericD2Ev+0x3a48>
   496dc: 47 f6 ff 97  	bl	0x46ff8 <_ZN18ChiFeature2GenericD2Ev+0x1198>
   496e8: b5 48 00 b4  	cbz	x21, 0x49ffc <_ZN18ChiFeature2GenericD2Ev+0x419c>
   496f0: 93 48 00 b4  	cbz	x19, 0x4a000 <_ZN18ChiFeature2GenericD2Ev+0x41a0>
   496f4: dc 00 00 f0  	adrp	x28, 0x64000 <_ZN18ChiFeature2GenericD2Ev+0x3900>
   49700: a2 05 18 36  	tbz	w2, #3, 0x497b4 <_ZN18ChiFeature2GenericD2Ev+0x3954>
   49704: d9 00 00 f0  	adrp	x25, 0x64000 <_ZN18ChiFeature2GenericD2Ev+0x3910>
   49714: a1 02 00 54  	b.ne	0x49768 <_ZN18ChiFeature2GenericD2Ev+0x3908>
   4971c: 36 fe ff f0  	adrp	x22, 0x10000 <_ZN18ChiFeature2GenericD2Ev+0x37d8>
   49738: 41 fe ff b0  	adrp	x1, 0x12000 <_ZN18ChiFeature2GenericD2Ev+0x37fc>
   4973c: 42 fe ff b0  	adrp	x2, 0x12000 <_ZN18ChiFeature2GenericD2Ev+0x3800>
   49740: 25 fe ff f0  	adrp	x5, 0x10000 <_ZN18ChiFeature2GenericD2Ev+0x37fc>
   49768: 35 fe ff f0  	adrp	x21, 0x10000 <_ZN18ChiFeature2GenericD2Ev+0x3824>
   49784: 21 fe ff d0  	adrp	x1, 0xf000 <_ZN18ChiFeature2GenericD2Ev+0x383c>
   4978c: 40 fe ff d0  	adrp	x0, 0x13000 <_ZN18ChiFeature2GenericD2Ev+0x3854>
   49790: 23 fe ff f0  	adrp	x3, 0x10000 <_ZN18ChiFeature2GenericD2Ev+0x384c>
   49794: 25 fe ff f0  	adrp	x5, 0x10000 <_ZN18ChiFeature2GenericD2Ev+0x3850>
   497b0: 78 5e 00 94  	bl	0x61190 <_ZN6ChiLog9LogSystemEPKcS1_S1_S1_iS1_z@plt>
   497c4: a1 00 00 54  	b.ne	0x497d8 <_ZN18ChiFeature2GenericD2Ev+0x3978>
   497cc: 68 00 00 b4  	cbz	x8, 0x497d8 <_ZN18ChiFeature2GenericD2Ev+0x3978>
   497e8: 04 f6 ff 97  	bl	0x46ff8 <_ZN18ChiFeature2GenericD2Ev+0x1198>
   497f0: 04 02 00 14  	b	0x4a000 <_ZN18ChiFeature2GenericD2Ev+0x41a0>
   497f4: d4 00 00 f0  	adrp	x20, 0x64000 <_ZN18ChiFeature2GenericD2Ev+0x3a00>
   49800: 34 86 00 37  	tbnz	w20, #0, 0x4a8c4 <_ZN18ChiFeature2GenericD2Ev+0x4a64>
   49808: ec 05 00 14  	b	0x4afb8 <_ZN18ChiFeature2GenericD2Ev+0x5158>
   4981c: f7 f5 ff 97  	bl	0x46ff8 <_ZN18ChiFeature2GenericD2Ev+0x1198>
   49824: 75 bb 01 b4  	cbz	x21, 0x4cf90 <_ZN18ChiFeature2GenericD2Ev+0x7130>
   4982c: 23 bb 01 b4  	cbz	x3, 0x4cf90 <_ZN18ChiFeature2GenericD2Ev+0x7130>
   49840: ee f5 ff 97  	bl	0x46ff8 <_ZN18ChiFeature2GenericD2Ev+0x1198>
   49844: d8 00 00 f0  	adrp	x24, 0x64000 <_ZN18ChiFeature2GenericD2Ev+0x3a50>
   49850: 6c 28 18 37  	tbnz	w12, #3, 0x49d5c <_ZN18ChiFeature2GenericD2Ev+0x3efc>
   49858: 77 c4 01 35  	cbnz	w23, 0x4d0e4 <_ZN18ChiFeature2GenericD2Ev+0x7284>
   4985c: ce 0d 00 14  	b	0x4cf94 <_ZN18ChiFeature2GenericD2Ev+0x7134>
   49878: c0 8a 00 b4  	cbz	x0, 0x4a9d0 <_ZN18ChiFeature2GenericD2Ev+0x4b70>
   4987c: f1 00 00 d0  	adrp	x17, 0x67000 <_ZN18ChiFeature2GenericD2Ev+0x3a94>
   498a0: 4d 04 00 14  	b	0x4a9d4 <_ZN18ChiFeature2GenericD2Ev+0x4b74>
   498b8: d0 f5 ff 97  	bl	0x46ff8 <_ZN18ChiFeature2GenericD2Ev+0x1198>
   498c0: 95 b6 01 b4  	cbz	x21, 0x4cf90 <_ZN18ChiFeature2GenericD2Ev+0x7130>
   498d8: 6c 08 00 34  	cbz	w12, 0x499e4 <_ZN18ChiFeature2GenericD2Ev+0x3b84>
   498dc: 56 08 00 b4  	cbz	x22, 0x499e4 <_ZN18ChiFeature2GenericD2Ev+0x3b84>
   498e0: 38 fe ff f0  	adrp	x24, 0x10000 <_ZN18ChiFeature2GenericD2Ev+0x399c>
   498e4: 33 fe ff f0  	adrp	x19, 0x10000 <_ZN18ChiFeature2GenericD2Ev+0x39a0>
   49900: 19 00 00 14  	b	0x49964 <_ZN18ChiFeature2GenericD2Ev+0x3b04>
   49918: 21 fe ff d0  	adrp	x1, 0xf000 <_ZN18ChiFeature2GenericD2Ev+0x39d0>
   49920: 40 fe ff d0  	adrp	x0, 0x13000 <_ZN18ChiFeature2GenericD2Ev+0x39e8>
   49924: 45 fe ff b0  	adrp	x5, 0x12000 <_ZN18ChiFeature2GenericD2Ev+0x39e8>
   4993c: 15 5e 00 94  	bl	0x61190 <_ZN6ChiLog9LogSystemEPKcS1_S1_S1_iS1_z@plt>
   49948: ac f5 ff 97  	bl	0x46ff8 <_ZN18ChiFeature2GenericD2Ev+0x1198>
   49960: 20 04 00 54  	b.eq	0x499e4 <_ZN18ChiFeature2GenericD2Ev+0x3b84>
   49968: e2 5e 00 94  	bl	0x614f0 <_ZN15UsecaseSelector19IsYUVSnapshotStreamEPK14camera3_stream@plt>
   49970: 01 ff ff 54  	b.ne	0x49950 <_ZN18ChiFeature2GenericD2Ev+0x3af0>
   49978: c0 00 00 f0  	adrp	x0, 0x64000 <_ZN18ChiFeature2GenericD2Ev+0x3b84>
   49990: 87 fd 1f 36  	tbz	w7, #3, 0x49940 <_ZN18ChiFeature2GenericD2Ev+0x3ae0>
   49994: cd 00 00 f0  	adrp	x13, 0x64000 <_ZN18ChiFeature2GenericD2Ev+0x3ba0>
   499a4: 01 fb ff 54  	b.ne	0x49904 <_ZN18ChiFeature2GenericD2Ev+0x3aa4>
   499bc: 41 fe ff b0  	adrp	x1, 0x12000 <_ZN18ChiFeature2GenericD2Ev+0x3a80>
   499c0: 42 fe ff 90  	adrp	x2, 0x11000 <_ZN18ChiFeature2GenericD2Ev+0x3a80>
   499e0: c9 ff ff 17  	b	0x49904 <_ZN18ChiFeature2GenericD2Ev+0x3aa4>
   499e8: 63 3a 01 b4  	cbz	x3, 0x4c134 <_ZN18ChiFeature2GenericD2Ev+0x62d4>
   499ec: d7 00 00 f0  	adrp	x23, 0x64000 <_ZN18ChiFeature2GenericD2Ev+0x3bf8>
   49a0c: 56 05 18 36  	tbz	w22, #3, 0x49ab4 <_ZN18ChiFeature2GenericD2Ev+0x3c54>
   49a10: d3 00 00 f0  	adrp	x19, 0x64000 <_ZN18ChiFeature2GenericD2Ev+0x3c1c>
   49a20: 61 02 00 54  	b.ne	0x49a6c <_ZN18ChiFeature2GenericD2Ev+0x3c0c>
   49a24: 36 fe ff f0  	adrp	x22, 0x10000 <_ZN18ChiFeature2GenericD2Ev+0x3ae0>
   49a40: 41 fe ff b0  	adrp	x1, 0x12000 <_ZN18ChiFeature2GenericD2Ev+0x3b04>
   49a44: 42 fe ff 90  	adrp	x2, 0x11000 <_ZN18ChiFeature2GenericD2Ev+0x3b04>
   49a48: 25 fe ff f0  	adrp	x5, 0x10000 <_ZN18ChiFeature2GenericD2Ev+0x3b04>
   49a6c: 36 fe ff f0  	adrp	x22, 0x10000 <_ZN18ChiFeature2GenericD2Ev+0x3b28>
   49a88: 21 fe ff d0  	adrp	x1, 0xf000 <_ZN18ChiFeature2GenericD2Ev+0x3b40>
   49a90: 40 fe ff d0  	adrp	x0, 0x13000 <_ZN18ChiFeature2GenericD2Ev+0x3b58>
   49a94: 23 fe ff f0  	adrp	x3, 0x10000 <_ZN18ChiFeature2GenericD2Ev+0x3b50>
   49a98: 25 fe ff d0  	adrp	x5, 0xf000 <_ZN18ChiFeature2GenericD2Ev+0x3b50>
   49ab0: b8 5d 00 94  	bl	0x61190 <_ZN6ChiLog9LogSystemEPKcS1_S1_S1_iS1_z@plt>
   49ac8: 4c f5 ff 97  	bl	0x46ff8 <_ZN18ChiFeature2GenericD2Ev+0x1198>
   49acc: d7 b0 01 35  	cbnz	w23, 0x4d0e4 <_ZN18ChiFeature2GenericD2Ev+0x7284>
   49ad0: 31 0d 00 14  	b	0x4cf94 <_ZN18ChiFeature2GenericD2Ev+0x7134>
   49ae8: 44 f5 ff 97  	bl	0x46ff8 <_ZN18ChiFeature2GenericD2Ev+0x1198>
   49af0: bc 00 00 b4  	cbz	x28, 0x49b04 <_ZN18ChiFeature2GenericD2Ev+0x3ca4>
   49b00: 3e f5 ff 97  	bl	0x46ff8 <_ZN18ChiFeature2GenericD2Ev+0x1198>
   49b08: 0e 09 00 34  	cbz	w14, 0x49c28 <_ZN18ChiFeature2GenericD2Ev+0x3dc8>
   49b10: 36 fe ff f0  	adrp	x22, 0x10000 <_ZN18ChiFeature2GenericD2Ev+0x3bcc>
   49b14: 38 fe ff f0  	adrp	x24, 0x10000 <_ZN18ChiFeature2GenericD2Ev+0x3bd0>
   49b38: 1b 00 00 14  	b	0x49ba4 <_ZN18ChiFeature2GenericD2Ev+0x3d44>
   49b58: 40 fe ff d0  	adrp	x0, 0x13000 <_ZN18ChiFeature2GenericD2Ev+0x3c20>
   49b5c: 21 fe ff d0  	adrp	x1, 0xf000 <_ZN18ChiFeature2GenericD2Ev+0x3c14>
   49b60: 25 fe ff f0  	adrp	x5, 0x10000 <_ZN18ChiFeature2GenericD2Ev+0x3c1c>
   49b7c: 85 5d 00 94  	bl	0x61190 <_ZN6ChiLog9LogSystemEPKcS1_S1_S1_iS1_z@plt>
   49b88: 1c f5 ff 97  	bl	0x46ff8 <_ZN18ChiFeature2GenericD2Ev+0x1198>
   49ba0: e0 03 00 54  	b.eq	0x49c1c <_ZN18ChiFeature2GenericD2Ev+0x3dbc>
   49ba8: 52 5e 00 94  	bl	0x614f0 <_ZN15UsecaseSelector19IsYUVSnapshotStreamEPK14camera3_stream@plt>
   49bb0: 01 ff ff 54  	b.ne	0x49b90 <_ZN18ChiFeature2GenericD2Ev+0x3d30>
   49bb4: ce 00 00 f0  	adrp	x14, 0x64000 <_ZN18ChiFeature2GenericD2Ev+0x3dc0>
   49bc0: 0a fe 1f 36  	tbz	w10, #3, 0x49b80 <_ZN18ChiFeature2GenericD2Ev+0x3d20>
   49bc4: cb 00 00 f0  	adrp	x11, 0x64000 <_ZN18ChiFeature2GenericD2Ev+0x3dd0>
   49bd4: 41 fb ff 54  	b.ne	0x49b3c <_ZN18ChiFeature2GenericD2Ev+0x3cdc>
   49bf0: 41 fe ff b0  	adrp	x1, 0x12000 <_ZN18ChiFeature2GenericD2Ev+0x3cb4>
   49bf4: 02 fe ff d0  	adrp	x2, 0xb000 <_ZN18ChiFeature2GenericD2Ev+0x3c9c>
   49c18: c9 ff ff 17  	b	0x49b3c <_ZN18ChiFeature2GenericD2Ev+0x3cdc>
   49c24: 99 28 01 35  	cbnz	w25, 0x4c134 <_ZN18ChiFeature2GenericD2Ev+0x62d4>
   49c38: 00 5a 00 b4  	cbz	x0, 0x4a778 <_ZN18ChiFeature2GenericD2Ev+0x4918>
   49c3c: e1 00 00 b0  	adrp	x1, 0x66000 <_ZN18ChiFeature2GenericD2Ev+0x3e50>
   49c60: c7 02 00 14  	b	0x4a77c <_ZN18ChiFeature2GenericD2Ev+0x491c>
   49c74: e1 f4 ff 97  	bl	0x46ff8 <_ZN18ChiFeature2GenericD2Ev+0x1198>
   49c8c: 60 01 00 b4  	cbz	x0, 0x49cb8 <_ZN18ChiFeature2GenericD2Ev+0x3e58>
   49c90: fa 00 00 b0  	adrp	x26, 0x66000 <_ZN18ChiFeature2GenericD2Ev+0x3ea4>
   49cb4: 02 00 00 14  	b	0x49cbc <_ZN18ChiFeature2GenericD2Ev+0x3e5c>
   49ccc: cb f4 ff 97  	bl	0x46ff8 <_ZN18ChiFeature2GenericD2Ev+0x1198>
   49cd4: 19 02 00 b4  	cbz	x25, 0x49d14 <_ZN18ChiFeature2GenericD2Ev+0x3eb4>
   49cd8: fc 01 00 b4  	cbz	x28, 0x49d14 <_ZN18ChiFeature2GenericD2Ev+0x3eb4>
   49d00: be f4 ff 97  	bl	0x46ff8 <_ZN18ChiFeature2GenericD2Ev+0x1198>
   49d0c: bb f4 ff 97  	bl	0x46ff8 <_ZN18ChiFeature2GenericD2Ev+0x1198>
   49d10: 0b 00 00 14  	b	0x49d3c <_ZN18ChiFeature2GenericD2Ev+0x3edc>
   49d14: cb 00 00 f0  	adrp	x11, 0x64000 <_ZN18ChiFeature2GenericD2Ev+0x3f20>
   49d28: 80 40 00 37  	tbnz	w0, #0, 0x4a538 <_ZN18ChiFeature2GenericD2Ev+0x46d8>
   49d30: b7 9d 01 35  	cbnz	w23, 0x4d0e4 <_ZN18ChiFeature2GenericD2Ev+0x7284>
   49d34: 98 0c 00 14  	b	0x4cf94 <_ZN18ChiFeature2GenericD2Ev+0x7134>
   49d44: 17 9d 01 35  	cbnz	w23, 0x4d0e4 <_ZN18ChiFeature2GenericD2Ev+0x7284>
   49d48: 93 0c 00 14  	b	0x4cf94 <_ZN18ChiFeature2GenericD2Ev+0x7134>
   49d50: bb 83 00 b4  	cbz	x27, 0x4adc4 <_ZN18ChiFeature2GenericD2Ev+0x4f64>
   49d58: 9c 09 00 14  	b	0x4c3c8 <_ZN18ChiFeature2GenericD2Ev+0x6568>
   49d5c: dc 00 00 f0  	adrp	x28, 0x64000 <_ZN18ChiFeature2GenericD2Ev+0x3f68>
   49d70: 61 02 00 54  	b.ne	0x49dbc <_ZN18ChiFeature2GenericD2Ev+0x3f5c>
   49d74: 3c fe ff f0  	adrp	x28, 0x10000 <_ZN18ChiFeature2GenericD2Ev+0x3e30>
   49d94: 41 fe ff b0  	adrp	x1, 0x12000 <_ZN18ChiFeature2GenericD2Ev+0x3e58>
   49d98: 22 fe ff 90  	adrp	x2, 0xd000 <_ZN18ChiFeature2GenericD2Ev+0x3e48>
   49d9c: 25 fe ff f0  	adrp	x5, 0x10000 <_ZN18ChiFeature2GenericD2Ev+0x3e58>
   49dbc: 34 fe ff f0  	adrp	x20, 0x10000 <_ZN18ChiFeature2GenericD2Ev+0x3e78>
   49dd8: 21 fe ff d0  	adrp	x1, 0xf000 <_ZN18ChiFeature2GenericD2Ev+0x3e90>
   49de4: 40 fe ff d0  	adrp	x0, 0x13000 <_ZN18ChiFeature2GenericD2Ev+0x3eac>
   49de8: 23 fe ff f0  	adrp	x3, 0x10000 <_ZN18ChiFeature2GenericD2Ev+0x3ea4>
   49dec: 25 fe ff 90  	adrp	x5, 0xd000 <_ZN18ChiFeature2GenericD2Ev+0x3e9c>
   49e04: e3 5c 00 94  	bl	0x61190 <_ZN6ChiLog9LogSystemEPKcS1_S1_S1_iS1_z@plt>
   49e08: f7 96 01 35  	cbnz	w23, 0x4d0e4 <_ZN18ChiFeature2GenericD2Ev+0x7284>
   49e0c: 62 0c 00 14  	b	0x4cf94 <_ZN18ChiFeature2GenericD2Ev+0x7134>
   49e20: 00 7f 00 b4  	cbz	x0, 0x4ae00 <_ZN18ChiFeature2GenericD2Ev+0x4fa0>
   49e24: f1 00 00 b0  	adrp	x17, 0x66000 <_ZN18ChiFeature2GenericD2Ev+0x4038>
   49e48: ef 03 00 14  	b	0x4ae04 <_ZN18ChiFeature2GenericD2Ev+0x4fa4>
   49e50: ab 05 00 34  	cbz	w11, 0x49f04 <_ZN18ChiFeature2GenericD2Ev+0x40a4>
   49e58: d7 00 00 f0  	adrp	x23, 0x64000 <_ZN18ChiFeature2GenericD2Ev+0x4064>
   49e6c: 08 00 00 14  	b	0x49e8c <_ZN18ChiFeature2GenericD2Ev+0x402c>
   49e78: 60 f4 ff 97  	bl	0x46ff8 <_ZN18ChiFeature2GenericD2Ev+0x1198>
   49e88: a9 59 00 54  	b.ls	0x4a9bc <_ZN18ChiFeature2GenericD2Ev+0x4b5c>
   49ea4: 61 01 00 54  	b.ne	0x49ed0 <_ZN18ChiFeature2GenericD2Ev+0x4070>
   49eb4: e1 00 00 54  	b.ne	0x49ed0 <_ZN18ChiFeature2GenericD2Ev+0x4070>
   49ecc: 80 fd ff 54  	b.eq	0x49e7c <_ZN18ChiFeature2GenericD2Ev+0x401c>
   49ed4: e0 fc ff b4  	cbz	x0, 0x49e70 <_ZN18ChiFeature2GenericD2Ev+0x4010>
   49ee0: 80 00 00 b4  	cbz	x0, 0x49ef0 <_ZN18ChiFeature2GenericD2Ev+0x4090>
   49eec: 02 00 00 14  	b	0x49ef4 <_ZN18ChiFeature2GenericD2Ev+0x4094>
   49efc: a0 fb ff 54  	b.eq	0x49e70 <_ZN18ChiFeature2GenericD2Ev+0x4010>
   49f00: df ff ff 17  	b	0x49e7c <_ZN18ChiFeature2GenericD2Ev+0x401c>
   49f0c: d7 8e 01 35  	cbnz	w23, 0x4d0e4 <_ZN18ChiFeature2GenericD2Ev+0x7284>
   49f10: 21 0c 00 14  	b	0x4cf94 <_ZN18ChiFeature2GenericD2Ev+0x7134>
   49f20: 7c 36 00 34  	cbz	w28, 0x4a5ec <_ZN18ChiFeature2GenericD2Ev+0x478c>
   49f24: dc 00 00 f0  	adrp	x28, 0x64000 <_ZN18ChiFeature2GenericD2Ev+0x4130>
   49f38: 08 00 00 14  	b	0x49f58 <_ZN18ChiFeature2GenericD2Ev+0x40f8>
   49f44: 2d f4 ff 97  	bl	0x46ff8 <_ZN18ChiFeature2GenericD2Ev+0x1198>
   49f54: c9 34 00 54  	b.ls	0x4a5ec <_ZN18ChiFeature2GenericD2Ev+0x478c>
   49f70: 81 01 00 54  	b.ne	0x49fa0 <_ZN18ChiFeature2GenericD2Ev+0x4140>
   49f80: 01 01 00 54  	b.ne	0x49fa0 <_ZN18ChiFeature2GenericD2Ev+0x4140>
   49f90: 81 00 00 54  	b.ne	0x49fa0 <_ZN18ChiFeature2GenericD2Ev+0x4140>
   49f9c: 60 fd ff 54  	b.eq	0x49f48 <_ZN18ChiFeature2GenericD2Ev+0x40e8>
   49fa4: c0 fc ff b4  	cbz	x0, 0x49f3c <_ZN18ChiFeature2GenericD2Ev+0x40dc>
   49fb0: c0 00 00 b4  	cbz	x0, 0x49fc8 <_ZN18ChiFeature2GenericD2Ev+0x4168>
   49fc0: e0 fb ff 54  	b.eq	0x49f3c <_ZN18ChiFeature2GenericD2Ev+0x40dc>
   49fc4: e1 ff ff 17  	b	0x49f48 <_ZN18ChiFeature2GenericD2Ev+0x40e8>
   49fd0: c1 fb ff 54  	b.ne	0x49f48 <_ZN18ChiFeature2GenericD2Ev+0x40e8>
   49fd4: da ff ff 17  	b	0x49f3c <_ZN18ChiFeature2GenericD2Ev+0x40dc>
   49fd8: 0d 75 00 b4  	cbz	x13, 0x4ae78 <_ZN18ChiFeature2GenericD2Ev+0x5018>
   49fe4: 40 46 01 b4  	cbz	x0, 0x4c8ac <_ZN18ChiFeature2GenericD2Ev+0x6a4c>
   49ff0: 02 f4 ff 97  	bl	0x46ff8 <_ZN18ChiFeature2GenericD2Ev+0x1198>
   49ff8: 2e 0a 00 14  	b	0x4c8b0 <_ZN18ChiFeature2GenericD2Ev+0x6a50>
   4a008: b6 1c 00 34  	cbz	w22, 0x4a39c <_ZN18ChiFeature2GenericD2Ev+0x453c>
   4a00c: fb 00 00 90  	adrp	x27, 0x66000 <_ZN18ChiFeature2GenericD2Ev+0x421c>
   4a010: 35 fe ff d0  	adrp	x21, 0x10000 <_ZN18ChiFeature2GenericD2Ev+0x40c8>
   4a014: 3c fe ff d0  	adrp	x28, 0x10000 <_ZN18ChiFeature2GenericD2Ev+0x40cc>
   4a038: 34 00 00 14  	b	0x4a108 <_ZN18ChiFeature2GenericD2Ev+0x42a8>
   4a058: 40 fe ff b0  	adrp	x0, 0x13000 <_ZN18ChiFeature2GenericD2Ev+0x411c>
   4a05c: 21 fe ff b0  	adrp	x1, 0xf000 <_ZN18ChiFeature2GenericD2Ev+0x4110>
   4a060: 25 fe ff f0  	adrp	x5, 0x11000 <_ZN18ChiFeature2GenericD2Ev+0x411c>
   4a088: 42 5c 00 94  	bl	0x61190 <_ZN6ChiLog9LogSystemEPKcS1_S1_S1_iS1_z@plt>
   4a098: 40 12 00 b4  	cbz	x0, 0x4a2e0 <_ZN18ChiFeature2GenericD2Ev+0x4480>
   4a0c4: cd f3 ff 97  	bl	0x46ff8 <_ZN18ChiFeature2GenericD2Ev+0x1198>
   4a0dc: c7 f3 ff 97  	bl	0x46ff8 <_ZN18ChiFeature2GenericD2Ev+0x1198>
   4a0ec: cf 05 00 34  	cbz	w15, 0x4a1a4 <_ZN18ChiFeature2GenericD2Ev+0x4344>
   4a104: 40 14 00 54  	b.eq	0x4a38c <_ZN18ChiFeature2GenericD2Ev+0x452c>
   4a11c: 81 fe ff 54  	b.ne	0x4a0ec <_ZN18ChiFeature2GenericD2Ev+0x428c>
   4a12c: 21 fe ff 54  	b.ne	0x4a0f0 <_ZN18ChiFeature2GenericD2Ev+0x4290>
   4a130: c1 00 00 d0  	adrp	x1, 0x64000 <_ZN18ChiFeature2GenericD2Ev+0x4338>
   4a13c: 87 fa 1f 36  	tbz	w7, #3, 0x4a08c <_ZN18ChiFeature2GenericD2Ev+0x422c>
   4a140: c5 00 00 d0  	adrp	x5, 0x64000 <_ZN18ChiFeature2GenericD2Ev+0x4348>
   4a150: 61 f7 ff 54  	b.ne	0x4a03c <_ZN18ChiFeature2GenericD2Ev+0x41dc>
   4a16c: 41 fe ff 90  	adrp	x1, 0x12000 <_ZN18ChiFeature2GenericD2Ev+0x422c>
   4a170: 22 fe ff f0  	adrp	x2, 0x11000 <_ZN18ChiFeature2GenericD2Ev+0x422c>
   4a1a0: a7 ff ff 17  	b	0x4a03c <_ZN18ChiFeature2GenericD2Ev+0x41dc>
   4a1b0: 01 fa ff 54  	b.ne	0x4a0f0 <_ZN18ChiFeature2GenericD2Ev+0x4290>
   4a1bc: a0 f9 ff 54  	b.eq	0x4a0f0 <_ZN18ChiFeature2GenericD2Ev+0x4290>
   4a1c4: e7 5c 00 94  	bl	0x61560 <_ZN15UsecaseSelector20IsHeicSnapshotStreamEPK14camera3_stream@plt>
   4a1c8: 40 f9 ff 35  	cbnz	w0, 0x4a0f0 <_ZN18ChiFeature2GenericD2Ev+0x4290>
   4a1cc: c2 00 00 d0  	adrp	x2, 0x64000 <_ZN18ChiFeature2GenericD2Ev+0x43d4>
   4a1d8: b7 05 18 36  	tbz	w23, #3, 0x4a28c <_ZN18ChiFeature2GenericD2Ev+0x442c>
   4a1dc: d7 00 00 d0  	adrp	x23, 0x64000 <_ZN18ChiFeature2GenericD2Ev+0x43e4>
   4a1ec: 81 02 00 54  	b.ne	0x4a23c <_ZN18ChiFeature2GenericD2Ev+0x43dc>
   4a208: 41 fe ff 90  	adrp	x1, 0x12000 <_ZN18ChiFeature2GenericD2Ev+0x42c8>
   4a20c: 22 fe ff d0  	adrp	x2, 0x10000 <_ZN18ChiFeature2GenericD2Ev+0x42c4>
   4a258: 40 fe ff b0  	adrp	x0, 0x13000 <_ZN18ChiFeature2GenericD2Ev+0x431c>
   4a25c: 21 fe ff b0  	adrp	x1, 0xf000 <_ZN18ChiFeature2GenericD2Ev+0x4310>
   4a260: 45 fe ff b0  	adrp	x5, 0x13000 <_ZN18ChiFeature2GenericD2Ev+0x4324>
   4a288: c2 5b 00 94  	bl	0x61190 <_ZN6ChiLog9LogSystemEPKcS1_S1_S1_iS1_z@plt>
   4a2b4: a0 01 00 b4  	cbz	x0, 0x4a2e8 <_ZN18ChiFeature2GenericD2Ev+0x4488>
   4a2b8: e8 00 00 90  	adrp	x8, 0x66000 <_ZN18ChiFeature2GenericD2Ev+0x44c8>
   4a2dc: 04 00 00 14  	b	0x4a2ec <_ZN18ChiFeature2GenericD2Ev+0x448c>
   4a2e4: 75 ff ff 17  	b	0x4a0b8 <_ZN18ChiFeature2GenericD2Ev+0x4258>
   4a2f8: 40 f3 ff 97  	bl	0x46ff8 <_ZN18ChiFeature2GenericD2Ev+0x1198>
   4a30c: 01 03 00 54  	b.ne	0x4a36c <_ZN18ChiFeature2GenericD2Ev+0x450c>
   4a310: a8 5b 00 94  	bl	0x611b0 <_ZN15ExtensionModule11GetInstanceEv@plt>
   4a320: 68 02 00 54  	b.hi	0x4a36c <_ZN18ChiFeature2GenericD2Ev+0x450c>
   4a33c: 80 01 00 54  	b.eq	0x4a36c <_ZN18ChiFeature2GenericD2Ev+0x450c>
   4a350: e0 00 00 54  	b.eq	0x4a36c <_ZN18ChiFeature2GenericD2Ev+0x450c>
   4a354: 82 00 00 35  	cbnz	w2, 0x4a364 <_ZN18ChiFeature2GenericD2Ev+0x4504>
   4a360: 68 00 00 54  	b.hi	0x4a36c <_ZN18ChiFeature2GenericD2Ev+0x450c>
   4a378: 20 f3 ff 97  	bl	0x46ff8 <_ZN18ChiFeature2GenericD2Ev+0x1198>
   4a388: 5a ff ff 17  	b	0x4a0f0 <_ZN18ChiFeature2GenericD2Ev+0x4290>
   4a394: 69 00 00 54  	b.ls	0x4a3a0 <_ZN18ChiFeature2GenericD2Ev+0x4540>
   4a398: 53 00 00 14  	b	0x4a4e4 <_ZN18ChiFeature2GenericD2Ev+0x4684>
   4a3a4: 3b fe ff d0  	adrp	x27, 0x10000 <_ZN18ChiFeature2GenericD2Ev+0x445c>
   4a3ac: 3c fe ff d0  	adrp	x28, 0x10000 <_ZN18ChiFeature2GenericD2Ev+0x4464>
   4a3b0: f3 00 00 90  	adrp	x19, 0x66000 <_ZN18ChiFeature2GenericD2Ev+0x45c0>
   4a3d4: 15 00 00 14  	b	0x4a428 <_ZN18ChiFeature2GenericD2Ev+0x45c8>
   4a3ec: 21 fe ff b0  	adrp	x1, 0xf000 <_ZN18ChiFeature2GenericD2Ev+0x44a0>
   4a3f4: 40 fe ff b0  	adrp	x0, 0x13000 <_ZN18ChiFeature2GenericD2Ev+0x44b8>
   4a3f8: 05 fe ff d0  	adrp	x5, 0xc000 <_ZN18ChiFeature2GenericD2Ev+0x44a0>
   4a414: 5f 5b 00 94  	bl	0x61190 <_ZN6ChiLog9LogSystemEPKcS1_S1_S1_iS1_z@plt>
   4a424: ed 05 00 54  	b.le	0x4a4e0 <_ZN18ChiFeature2GenericD2Ev+0x4680>
   4a438: 20 01 00 b4  	cbz	x0, 0x4a45c <_ZN18ChiFeature2GenericD2Ev+0x45fc>
   4a458: 02 00 00 14  	b	0x4a460 <_ZN18ChiFeature2GenericD2Ev+0x4600>
   4a468: e4 f2 ff 97  	bl	0x46ff8 <_ZN18ChiFeature2GenericD2Ev+0x1198>
   4a478: e0 f2 ff 97  	bl	0x46ff8 <_ZN18ChiFeature2GenericD2Ev+0x1198>
   4a47c: c3 00 00 d0  	adrp	x3, 0x64000 <_ZN18ChiFeature2GenericD2Ev+0x4684>
   4a488: 80 fc 1f 36  	tbz	w0, #3, 0x4a418 <_ZN18ChiFeature2GenericD2Ev+0x45b8>
   4a48c: c1 00 00 d0  	adrp	x1, 0x64000 <_ZN18ChiFeature2GenericD2Ev+0x4694>
   4a49c: e1 f9 ff 54  	b.ne	0x4a3d8 <_ZN18ChiFeature2GenericD2Ev+0x4578>
   4a4b4: 41 fe ff 90  	adrp	x1, 0x12000 <_ZN18ChiFeature2GenericD2Ev+0x4574>
   4a4b8: 02 fe ff f0  	adrp	x2, 0xd000 <_ZN18ChiFeature2GenericD2Ev+0x4564>
   4a4dc: bf ff ff 17  	b	0x4a3d8 <_ZN18ChiFeature2GenericD2Ev+0x4578>
   4a4e8: 7b 00 00 34  	cbz	w27, 0x4a4f4 <_ZN18ChiFeature2GenericD2Ev+0x4694>
   4a4f0: 13 07 00 14  	b	0x4c13c <_ZN18ChiFeature2GenericD2Ev+0x62dc>
   4a50c: 80 28 00 b4  	cbz	x0, 0x4aa1c <_ZN18ChiFeature2GenericD2Ev+0x4bbc>
   4a510: fb 00 00 90  	adrp	x27, 0x66000 <_ZN18ChiFeature2GenericD2Ev+0x4720>
   4a534: 3b 01 00 14  	b	0x4aa20 <_ZN18ChiFeature2GenericD2Ev+0x4bc0>
   4a538: d9 00 00 d0  	adrp	x25, 0x64000 <_ZN18ChiFeature2GenericD2Ev+0x4740>
   4a548: 61 02 00 54  	b.ne	0x4a594 <_ZN18ChiFeature2GenericD2Ev+0x4734>
   4a54c: 38 fe ff d0  	adrp	x24, 0x10000 <_ZN18ChiFeature2GenericD2Ev+0x4604>
   4a568: 41 fe ff 90  	adrp	x1, 0x12000 <_ZN18ChiFeature2GenericD2Ev+0x4628>
   4a56c: 02 fe ff f0  	adrp	x2, 0xd000 <_ZN18ChiFeature2GenericD2Ev+0x4618>
   4a570: 25 fe ff d0  	adrp	x5, 0x10000 <_ZN18ChiFeature2GenericD2Ev+0x4628>
   4a594: 3b fe ff d0  	adrp	x27, 0x10000 <_ZN18ChiFeature2GenericD2Ev+0x464c>
   4a5b0: 41 fe ff 90  	adrp	x1, 0x12000 <_ZN18ChiFeature2GenericD2Ev+0x4670>
   4a5b8: 00 fe ff d0  	adrp	x0, 0xc000 <_ZN18ChiFeature2GenericD2Ev+0x4660>
   4a5bc: 23 fe ff d0  	adrp	x3, 0x10000 <_ZN18ChiFeature2GenericD2Ev+0x4674>
   4a5c0: 05 fe ff d0  	adrp	x5, 0xc000 <_ZN18ChiFeature2GenericD2Ev+0x4668>
   4a5d8: ee 5a 00 94  	bl	0x61190 <_ZN6ChiLog9LogSystemEPKcS1_S1_S1_iS1_z@plt>
   4a5e4: 17 58 01 35  	cbnz	w23, 0x4d0e4 <_ZN18ChiFeature2GenericD2Ev+0x7284>
   4a5e8: 6b 0a 00 14  	b	0x4cf94 <_ZN18ChiFeature2GenericD2Ev+0x7134>
   4a5f4: c1 22 00 54  	b.ne	0x4aa4c <_ZN18ChiFeature2GenericD2Ev+0x4bec>
   4a604: f9 9e 00 b4  	cbz	x25, 0x4b9e0 <_ZN18ChiFeature2GenericD2Ev+0x5b80>
   4a608: c2 9e 00 b4  	cbz	x2, 0x4b9e0 <_ZN18ChiFeature2GenericD2Ev+0x5b80>
   4a620: 09 a4 00 54  	b.ls	0x4baa0 <_ZN18ChiFeature2GenericD2Ev+0x5c40>
   4a638: 1a 05 00 14  	b	0x4baa0 <_ZN18ChiFeature2GenericD2Ev+0x5c40>
   4a64c: 6b f2 ff 97  	bl	0x46ff8 <_ZN18ChiFeature2GenericD2Ev+0x1198>
   4a654: 97 01 00 b4  	cbz	x23, 0x4a684 <_ZN18ChiFeature2GenericD2Ev+0x4824>
   4a674: 61 f2 ff 97  	bl	0x46ff8 <_ZN18ChiFeature2GenericD2Ev+0x1198>
   4a680: 2d 00 00 14  	b	0x4a734 <_ZN18ChiFeature2GenericD2Ev+0x48d4>
   4a684: c8 00 00 d0  	adrp	x8, 0x64000 <_ZN18ChiFeature2GenericD2Ev+0x488c>
   4a690: 79 00 00 37  	tbnz	w25, #0, 0x4a69c <_ZN18ChiFeature2GenericD2Ev+0x483c>
   4a698: 26 00 00 14  	b	0x4a730 <_ZN18ChiFeature2GenericD2Ev+0x48d0>
   4a69c: c9 00 00 d0  	adrp	x9, 0x64000 <_ZN18ChiFeature2GenericD2Ev+0x48a4>
   4a6b0: 01 02 00 54  	b.ne	0x4a6f0 <_ZN18ChiFeature2GenericD2Ev+0x4890>
   4a6c8: 41 fe ff 90  	adrp	x1, 0x12000 <_ZN18ChiFeature2GenericD2Ev+0x4788>
   4a6cc: 02 fe ff f0  	adrp	x2, 0xd000 <_ZN18ChiFeature2GenericD2Ev+0x4778>
   4a6d0: 25 fe ff d0  	adrp	x5, 0x10000 <_ZN18ChiFeature2GenericD2Ev+0x4788>
   4a704: 41 fe ff 90  	adrp	x1, 0x12000 <_ZN18ChiFeature2GenericD2Ev+0x47c4>
   4a70c: 00 fe ff d0  	adrp	x0, 0xc000 <_ZN18ChiFeature2GenericD2Ev+0x47b4>
   4a710: 23 fe ff d0  	adrp	x3, 0x10000 <_ZN18ChiFeature2GenericD2Ev+0x47c8>
   4a714: 25 fe ff b0  	adrp	x5, 0xf000 <_ZN18ChiFeature2GenericD2Ev+0x47c8>
   4a72c: 99 5a 00 94  	bl	0x61190 <_ZN6ChiLog9LogSystemEPKcS1_S1_S1_iS1_z@plt>
   4a748: f6 0a 00 94  	bl	0x4d320 <_ZN18ChiFeature2GenericD2Ev+0x74c0>
   4a754: a0 00 00 54  	b.eq	0x4a768 <_ZN18ChiFeature2GenericD2Ev+0x4908>
   4a758: a1 00 00 35  	cbnz	w1, 0x4a76c <_ZN18ChiFeature2GenericD2Ev+0x490c>
   4a764: 43 00 00 54  	b.lo	0x4a76c <_ZN18ChiFeature2GenericD2Ev+0x490c>
   4a770: b7 4b 01 35  	cbnz	w23, 0x4d0e4 <_ZN18ChiFeature2GenericD2Ev+0x7284>
   4a774: 08 0a 00 14  	b	0x4cf94 <_ZN18ChiFeature2GenericD2Ev+0x7134>
   4a788: 1c f2 ff 97  	bl	0x46ff8 <_ZN18ChiFeature2GenericD2Ev+0x1198>
   4a7a0: 99 3f 01 b4  	cbz	x25, 0x4cf90 <_ZN18ChiFeature2GenericD2Ev+0x7130>
   4a7a8: 45 3f 01 b4  	cbz	x5, 0x4cf90 <_ZN18ChiFeature2GenericD2Ev+0x7130>
   4a7ac: cd 00 00 d0  	adrp	x13, 0x64000 <_ZN18ChiFeature2GenericD2Ev+0x49b4>
   4a7b8: 03 06 18 36  	tbz	w3, #3, 0x4a878 <_ZN18ChiFeature2GenericD2Ev+0x4a18>
   4a7bc: c2 00 00 d0  	adrp	x2, 0x64000 <_ZN18ChiFeature2GenericD2Ev+0x49c4>
   4a7cc: c1 02 00 54  	b.ne	0x4a824 <_ZN18ChiFeature2GenericD2Ev+0x49c4>
   4a7d4: 36 fe ff d0  	adrp	x22, 0x10000 <_ZN18ChiFeature2GenericD2Ev+0x488c>
   4a7f0: 41 fe ff 90  	adrp	x1, 0x12000 <_ZN18ChiFeature2GenericD2Ev+0x48b0>
   4a7f4: 42 fe ff 90  	adrp	x2, 0x12000 <_ZN18ChiFeature2GenericD2Ev+0x48b4>
   4a7f8: 25 fe ff d0  	adrp	x5, 0x10000 <_ZN18ChiFeature2GenericD2Ev+0x48b0>
   4a824: 35 fe ff d0  	adrp	x21, 0x10000 <_ZN18ChiFeature2GenericD2Ev+0x48dc>
   4a840: 21 fe ff b0  	adrp	x1, 0xf000 <_ZN18ChiFeature2GenericD2Ev+0x48f4>
   4a84c: 40 fe ff b0  	adrp	x0, 0x13000 <_ZN18ChiFeature2GenericD2Ev+0x4910>
   4a850: 23 fe ff d0  	adrp	x3, 0x10000 <_ZN18ChiFeature2GenericD2Ev+0x4908>
   4a854: 05 fe ff d0  	adrp	x5, 0xc000 <_ZN18ChiFeature2GenericD2Ev+0x48fc>
   4a874: 47 5a 00 94  	bl	0x61190 <_ZN6ChiLog9LogSystemEPKcS1_S1_S1_iS1_z@plt>
   4a884: 81 00 00 54  	b.ne	0x4a894 <_ZN18ChiFeature2GenericD2Ev+0x4a34>
   4a888: 7c 00 00 b4  	cbz	x28, 0x4a894 <_ZN18ChiFeature2GenericD2Ev+0x4a34>
   4a89c: d7 f1 ff 97  	bl	0x46ff8 <_ZN18ChiFeature2GenericD2Ev+0x1198>
   4a8a0: 37 42 01 35  	cbnz	w23, 0x4d0e4 <_ZN18ChiFeature2GenericD2Ev+0x7284>
   4a8a4: bc 09 00 14  	b	0x4cf94 <_ZN18ChiFeature2GenericD2Ev+0x7134>
   4a8a8: c9 00 00 d0  	adrp	x9, 0x64000 <_ZN18ChiFeature2GenericD2Ev+0x4ab0>
   4a8b4: b5 11 00 37  	tbnz	w21, #0, 0x4aae8 <_ZN18ChiFeature2GenericD2Ev+0x4c88>
   4a8c0: 2d 00 00 14  	b	0x4a974 <_ZN18ChiFeature2GenericD2Ev+0x4b14>
   4a8c4: d5 00 00 d0  	adrp	x21, 0x64000 <_ZN18ChiFeature2GenericD2Ev+0x4acc>
   4a8d4: 41 02 00 54  	b.ne	0x4a91c <_ZN18ChiFeature2GenericD2Ev+0x4abc>
   4a8d8: 18 fe ff d0  	adrp	x24, 0xc000 <_ZN18ChiFeature2GenericD2Ev+0x4980>
   4a8f4: 41 fe ff 90  	adrp	x1, 0x12000 <_ZN18ChiFeature2GenericD2Ev+0x49b4>
   4a8f8: 42 fe ff 90  	adrp	x2, 0x12000 <_ZN18ChiFeature2GenericD2Ev+0x49b8>
   4a8fc: 05 fe ff f0  	adrp	x5, 0xd000 <_ZN18ChiFeature2GenericD2Ev+0x49a8>
   4a91c: 1b fe ff d0  	adrp	x27, 0xc000 <_ZN18ChiFeature2GenericD2Ev+0x49c4>
   4a938: 41 fe ff 90  	adrp	x1, 0x12000 <_ZN18ChiFeature2GenericD2Ev+0x49f8>
   4a940: 00 fe ff d0  	adrp	x0, 0xc000 <_ZN18ChiFeature2GenericD2Ev+0x49e8>
   4a944: 03 fe ff f0  	adrp	x3, 0xd000 <_ZN18ChiFeature2GenericD2Ev+0x49f0>
   4a948: 25 fe ff d0  	adrp	x5, 0x10000 <_ZN18ChiFeature2GenericD2Ev+0x4a00>
   4a960: 0c 5a 00 94  	bl	0x61190 <_ZN6ChiLog9LogSystemEPKcS1_S1_S1_iS1_z@plt>
   4a968: 94 01 00 14  	b	0x4afb8 <_ZN18ChiFeature2GenericD2Ev+0x5158>
   4a97c: 87 00 00 14  	b	0x4ab98 <_ZN18ChiFeature2GenericD2Ev+0x4d38>
   4a990: 20 89 00 b4  	cbz	x0, 0x4bab4 <_ZN18ChiFeature2GenericD2Ev+0x5c54>
   4a994: e2 00 00 90  	adrp	x2, 0x66000 <_ZN18ChiFeature2GenericD2Ev+0x4ba4>
   4a9b8: 40 04 00 14  	b	0x4bab8 <_ZN18ChiFeature2GenericD2Ev+0x5c58>
   4a9c8: f7 38 01 35  	cbnz	w23, 0x4d0e4 <_ZN18ChiFeature2GenericD2Ev+0x7284>
   4a9cc: 72 09 00 14  	b	0x4cf94 <_ZN18ChiFeature2GenericD2Ev+0x7134>
   4a9e0: 86 f1 ff 97  	bl	0x46ff8 <_ZN18ChiFeature2GenericD2Ev+0x1198>
   4a9f0: 82 f1 ff 97  	bl	0x46ff8 <_ZN18ChiFeature2GenericD2Ev+0x1198>
   4aa00: 8b 2c 01 b4  	cbz	x11, 0x4cf90 <_ZN18ChiFeature2GenericD2Ev+0x7130>
   4aa10: 7a f1 ff 97  	bl	0x46ff8 <_ZN18ChiFeature2GenericD2Ev+0x1198>
   4aa14: 97 36 01 35  	cbnz	w23, 0x4d0e4 <_ZN18ChiFeature2GenericD2Ev+0x7284>
   4aa18: 5f 09 00 14  	b	0x4cf94 <_ZN18ChiFeature2GenericD2Ev+0x7134>
   4aa2c: 73 f1 ff 97  	bl	0x46ff8 <_ZN18ChiFeature2GenericD2Ev+0x1198>
   4aa3c: 6f f1 ff 97  	bl	0x46ff8 <_ZN18ChiFeature2GenericD2Ev+0x1198>
   4aa44: 17 35 01 35  	cbnz	w23, 0x4d0e4 <_ZN18ChiFeature2GenericD2Ev+0x7284>
   4aa48: 53 09 00 14  	b	0x4cf94 <_ZN18ChiFeature2GenericD2Ev+0x7134>
   4aa5c: 11 04 00 14  	b	0x4baa0 <_ZN18ChiFeature2GenericD2Ev+0x5c40>
   4aa74: 61 f1 ff 97  	bl	0x46ff8 <_ZN18ChiFeature2GenericD2Ev+0x1198>
   4aa7c: b7 02 00 b4  	cbz	x23, 0x4aad0 <_ZN18ChiFeature2GenericD2Ev+0x4c70>
   4aa8c: 6b f5 00 b4  	cbz	x11, 0x4c938 <_ZN18ChiFeature2GenericD2Ev+0x6ad8>
   4aa94: 35 f5 00 34  	cbz	w21, 0x4c938 <_ZN18ChiFeature2GenericD2Ev+0x6ad8>
   4aa9c: 1a fe ff b0  	adrp	x26, 0xb000 <_ZN18ChiFeature2GenericD2Ev+0x4b40>
   4aab8: e0 f2 00 34  	cbz	w0, 0x4c914 <_ZN18ChiFeature2GenericD2Ev+0x6ab4>
   4aac8: 21 ff ff 54  	b.ne	0x4aaac <_ZN18ChiFeature2GenericD2Ev+0x4c4c>
   4aacc: 9b 07 00 14  	b	0x4c938 <_ZN18ChiFeature2GenericD2Ev+0x6ad8>
   4aad0: ca 00 00 d0  	adrp	x10, 0x64000 <_ZN18ChiFeature2GenericD2Ev+0x4cd8>
   4aadc: 5c b4 00 37  	tbnz	w28, #0, 0x4c164 <_ZN18ChiFeature2GenericD2Ev+0x6304>
   4aae4: 80 09 00 14  	b	0x4d0e4 <_ZN18ChiFeature2GenericD2Ev+0x7284>
   4aae8: c6 00 00 d0  	adrp	x6, 0x64000 <_ZN18ChiFeature2GenericD2Ev+0x4cf0>
   4ab04: 41 02 00 54  	b.ne	0x4ab4c <_ZN18ChiFeature2GenericD2Ev+0x4cec>
   4ab08: 37 fe ff d0  	adrp	x23, 0x10000 <_ZN18ChiFeature2GenericD2Ev+0x4bc0>
   4ab24: 41 fe ff 90  	adrp	x1, 0x12000 <_ZN18ChiFeature2GenericD2Ev+0x4be4>
   4ab28: 02 fe ff f0  	adrp	x2, 0xd000 <_ZN18ChiFeature2GenericD2Ev+0x4bd4>
   4ab2c: 25 fe ff d0  	adrp	x5, 0x10000 <_ZN18ChiFeature2GenericD2Ev+0x4be4>
   4ab4c: 33 fe ff d0  	adrp	x19, 0x10000 <_ZN18ChiFeature2GenericD2Ev+0x4c04>
   4ab68: 41 fe ff 90  	adrp	x1, 0x12000 <_ZN18ChiFeature2GenericD2Ev+0x4c28>
   4ab70: 00 fe ff d0  	adrp	x0, 0xc000 <_ZN18ChiFeature2GenericD2Ev+0x4c18>
   4ab74: 23 fe ff d0  	adrp	x3, 0x10000 <_ZN18ChiFeature2GenericD2Ev+0x4c2c>
   4ab78: 25 fe ff b0  	adrp	x5, 0xf000 <_ZN18ChiFeature2GenericD2Ev+0x4c2c>
   4ab90: 80 59 00 94  	bl	0x61190 <_ZN6ChiLog9LogSystemEPKcS1_S1_S1_iS1_z@plt>
   4ab98: dc 00 00 d0  	adrp	x28, 0x64000 <_ZN18ChiFeature2GenericD2Ev+0x4da0>
   4aba4: 65 1f 01 36  	tbz	w5, #0, 0x4cf90 <_ZN18ChiFeature2GenericD2Ev+0x7130>
   4aba8: ca 00 00 d0  	adrp	x10, 0x64000 <_ZN18ChiFeature2GenericD2Ev+0x4db0>
   4abb8: 41 02 00 54  	b.ne	0x4ac00 <_ZN18ChiFeature2GenericD2Ev+0x4da0>
   4abbc: 3c fe ff d0  	adrp	x28, 0x10000 <_ZN18ChiFeature2GenericD2Ev+0x4c74>
   4abd8: 41 fe ff 90  	adrp	x1, 0x12000 <_ZN18ChiFeature2GenericD2Ev+0x4c98>
   4abdc: 22 fe ff b0  	adrp	x2, 0xf000 <_ZN18ChiFeature2GenericD2Ev+0x4c90>
   4abe0: 25 fe ff d0  	adrp	x5, 0x10000 <_ZN18ChiFeature2GenericD2Ev+0x4c98>
   4ac00: 34 fe ff d0  	adrp	x20, 0x10000 <_ZN18ChiFeature2GenericD2Ev+0x4cb8>
   4ac1c: 41 fe ff 90  	adrp	x1, 0x12000 <_ZN18ChiFeature2GenericD2Ev+0x4cdc>
   4ac24: 00 fe ff d0  	adrp	x0, 0xc000 <_ZN18ChiFeature2GenericD2Ev+0x4ccc>
   4ac28: 23 fe ff d0  	adrp	x3, 0x10000 <_ZN18ChiFeature2GenericD2Ev+0x4ce0>
   4ac2c: 25 fe ff 90  	adrp	x5, 0xe000 <_ZN18ChiFeature2GenericD2Ev+0x4cdc>
   4ac44: 53 59 00 94  	bl	0x61190 <_ZN6ChiLog9LogSystemEPKcS1_S1_S1_iS1_z@plt>
   4ac48: f7 24 01 35  	cbnz	w23, 0x4d0e4 <_ZN18ChiFeature2GenericD2Ev+0x7284>
   4ac4c: d2 08 00 14  	b	0x4cf94 <_ZN18ChiFeature2GenericD2Ev+0x7134>
   4ac64: e5 f0 ff 97  	bl	0x46ff8 <_ZN18ChiFeature2GenericD2Ev+0x1198>
   4ac6c: 98 93 00 b4  	cbz	x24, 0x4bedc <_ZN18ChiFeature2GenericD2Ev+0x607c>
   4ac94: 61 00 00 54  	b.ne	0x4aca0 <_ZN18ChiFeature2GenericD2Ev+0x4e40>
   4acac: d3 f0 ff 97  	bl	0x46ff8 <_ZN18ChiFeature2GenericD2Ev+0x1198>
   4acb0: 8b 04 00 14  	b	0x4bedc <_ZN18ChiFeature2GenericD2Ev+0x607c>
   4accc: cb f0 ff 97  	bl	0x46ff8 <_ZN18ChiFeature2GenericD2Ev+0x1198>
   4acd8: 7a aa 00 b4  	cbz	x26, 0x4c224 <_ZN18ChiFeature2GenericD2Ev+0x63c4>
   4acf0: 60 00 00 b4  	cbz	x0, 0x4acfc <_ZN18ChiFeature2GenericD2Ev+0x4e9c>
   4acf8: a1 a8 00 37  	tbnz	w1, #0, 0x4c20c <_ZN18ChiFeature2GenericD2Ev+0x63ac>
   4ad00: c1 a8 00 54  	b.ne	0x4c218 <_ZN18ChiFeature2GenericD2Ev+0x63b8>
   4ad04: c1 00 00 d0  	adrp	x1, 0x64000 <_ZN18ChiFeature2GenericD2Ev+0x4f0c>
   4ad18: 19 a8 18 36  	tbz	w25, #3, 0x4c218 <_ZN18ChiFeature2GenericD2Ev+0x63b8>
   4ad1c: cf 00 00 d0  	adrp	x15, 0x64000 <_ZN18ChiFeature2GenericD2Ev+0x4f24>
   4ad2c: 41 02 00 54  	b.ne	0x4ad74 <_ZN18ChiFeature2GenericD2Ev+0x4f14>
   4ad30: 39 fe ff d0  	adrp	x25, 0x10000 <_ZN18ChiFeature2GenericD2Ev+0x4de8>
   4ad4c: 41 fe ff 90  	adrp	x1, 0x12000 <_ZN18ChiFeature2GenericD2Ev+0x4e0c>
   4ad50: 02 fe ff d0  	adrp	x2, 0xc000 <_ZN18ChiFeature2GenericD2Ev+0x4df8>
   4ad54: 25 fe ff d0  	adrp	x5, 0x10000 <_ZN18ChiFeature2GenericD2Ev+0x4e0c>
   4ad74: 3b fe ff d0  	adrp	x27, 0x10000 <_ZN18ChiFeature2GenericD2Ev+0x4e2c>
   4ad90: 21 fe ff b0  	adrp	x1, 0xf000 <_ZN18ChiFeature2GenericD2Ev+0x4e44>
   4ad98: 40 fe ff b0  	adrp	x0, 0x13000 <_ZN18ChiFeature2GenericD2Ev+0x4e5c>
   4ad9c: 23 fe ff d0  	adrp	x3, 0x10000 <_ZN18ChiFeature2GenericD2Ev+0x4e54>
   4ada0: 25 fe ff b0  	adrp	x5, 0xf000 <_ZN18ChiFeature2GenericD2Ev+0x4e54>
   4adb8: f6 58 00 94  	bl	0x61190 <_ZN6ChiLog9LogSystemEPKcS1_S1_S1_iS1_z@plt>
   4adc0: 16 05 00 14  	b	0x4c218 <_ZN18ChiFeature2GenericD2Ev+0x63b8>
   4add4: 20 cf 00 b4  	cbz	x0, 0x4c7b8 <_ZN18ChiFeature2GenericD2Ev+0x6958>
   4add8: e7 00 00 90  	adrp	x7, 0x66000 <_ZN18ChiFeature2GenericD2Ev+0x4fe8>
   4adfc: 70 06 00 14  	b	0x4c7bc <_ZN18ChiFeature2GenericD2Ev+0x695c>
   4ae14: 79 f0 ff 97  	bl	0x46ff8 <_ZN18ChiFeature2GenericD2Ev+0x1198>
   4ae1c: 18 86 00 b4  	cbz	x24, 0x4bedc <_ZN18ChiFeature2GenericD2Ev+0x607c>
   4ae28: cc 7d 00 34  	cbz	w12, 0x4bde0 <_ZN18ChiFeature2GenericD2Ev+0x5f80>
   4ae70: 81 fe ff 54  	b.ne	0x4ae40 <_ZN18ChiFeature2GenericD2Ev+0x4fe0>
   4ae74: dd 03 00 14  	b	0x4bde8 <_ZN18ChiFeature2GenericD2Ev+0x5f88>
   4ae88: 20 cd 00 b4  	cbz	x0, 0x4c82c <_ZN18ChiFeature2GenericD2Ev+0x69cc>
   4ae8c: f0 00 00 90  	adrp	x16, 0x66000 <_ZN18ChiFeature2GenericD2Ev+0x509c>
   4aeb0: 60 06 00 14  	b	0x4c830 <_ZN18ChiFeature2GenericD2Ev+0x69d0>
   4aec4: 4d f0 ff 97  	bl	0x46ff8 <_ZN18ChiFeature2GenericD2Ev+0x1198>
   4aec8: e6 00 00 90  	adrp	x6, 0x66000 <_ZN18ChiFeature2GenericD2Ev+0x50d8>
   4aee4: 45 f0 ff 97  	bl	0x46ff8 <_ZN18ChiFeature2GenericD2Ev+0x1198>
   4aee8: cc 00 00 d0  	adrp	x12, 0x64000 <_ZN18ChiFeature2GenericD2Ev+0x50f0>
   4aef4: f8 05 18 36  	tbz	w24, #3, 0x4afb0 <_ZN18ChiFeature2GenericD2Ev+0x5150>
   4aef8: c7 00 00 d0  	adrp	x7, 0x64000 <_ZN18ChiFeature2GenericD2Ev+0x5100>
   4af08: a1 02 00 54  	b.ne	0x4af5c <_ZN18ChiFeature2GenericD2Ev+0x50fc>
   4af0c: 37 fe ff d0  	adrp	x23, 0x10000 <_ZN18ChiFeature2GenericD2Ev+0x4fc4>
   4af2c: 41 fe ff 90  	adrp	x1, 0x12000 <_ZN18ChiFeature2GenericD2Ev+0x4fec>
   4af30: 02 fe ff f0  	adrp	x2, 0xd000 <_ZN18ChiFeature2GenericD2Ev+0x4fdc>
   4af34: 25 fe ff d0  	adrp	x5, 0x10000 <_ZN18ChiFeature2GenericD2Ev+0x4fec>
   4af5c: 33 fe ff d0  	adrp	x19, 0x10000 <_ZN18ChiFeature2GenericD2Ev+0x5014>
   4af78: 21 fe ff b0  	adrp	x1, 0xf000 <_ZN18ChiFeature2GenericD2Ev+0x502c>
   4af84: 40 fe ff b0  	adrp	x0, 0x13000 <_ZN18ChiFeature2GenericD2Ev+0x5048>
   4af88: 23 fe ff d0  	adrp	x3, 0x10000 <_ZN18ChiFeature2GenericD2Ev+0x5040>
   4af8c: 05 fe ff b0  	adrp	x5, 0xb000 <_ZN18ChiFeature2GenericD2Ev+0x5030>
   4afac: 79 58 00 94  	bl	0x61190 <_ZN6ChiLog9LogSystemEPKcS1_S1_S1_iS1_z@plt>
   4afc4: 6b 59 00 94  	bl	0x61570 <_ZN8ChxUtils15AndroidMetadata12GetBokehModeEPKv@plt>
   4afe4: 22 00 00 14  	b	0x4b06c <_ZN18ChiFeature2GenericD2Ev+0x520c>
   4afe8: 39 fe ff d0  	adrp	x25, 0x10000 <_ZN18ChiFeature2GenericD2Ev+0x50a0>
   4b010: 40 fe ff 90  	adrp	x0, 0x13000 <_ZN18ChiFeature2GenericD2Ev+0x50d0>
   4b014: 21 fe ff 90  	adrp	x1, 0xf000 <_ZN18ChiFeature2GenericD2Ev+0x50c4>
   4b018: 23 fe ff b0  	adrp	x3, 0x10000 <_ZN18ChiFeature2GenericD2Ev+0x50cc>
   4b01c: 45 fe ff 90  	adrp	x5, 0x13000 <_ZN18ChiFeature2GenericD2Ev+0x50dc>
   4b040: 54 58 00 94  	bl	0x61190 <_ZN6ChiLog9LogSystemEPKcS1_S1_S1_iS1_z@plt>
   4b050: ea ef ff 97  	bl	0x46ff8 <_ZN18ChiFeature2GenericD2Ev+0x1198>
   4b068: 60 15 01 54  	b.eq	0x4d314 <_ZN18ChiFeature2GenericD2Ev+0x74b4>
   4b074: 40 38 00 54  	b.eq	0x4b77c <_ZN18ChiFeature2GenericD2Ev+0x591c>
   4b090: 08 59 00 94  	bl	0x614b0 <_ZN15UsecaseSelector13IsVideoStreamEPK14camera3_stream@plt>
   4b0a4: c0 fd ff b4  	cbz	x0, 0x4b05c <_ZN18ChiFeature2GenericD2Ev+0x51fc>
   4b0ac: 89 fd ff 34  	cbz	w9, 0x4b05c <_ZN18ChiFeature2GenericD2Ev+0x51fc>
   4b0b0: 13 01 00 b4  	cbz	x19, 0x4b0d0 <_ZN18ChiFeature2GenericD2Ev+0x5270>
   4b0bc: a0 00 00 b4  	cbz	x0, 0x4b0d0 <_ZN18ChiFeature2GenericD2Ev+0x5270>
   4b0cc: 02 00 00 14  	b	0x4b0d4 <_ZN18ChiFeature2GenericD2Ev+0x5274>
   4b0d4: c4 00 00 b0  	adrp	x4, 0x64000 <_ZN18ChiFeature2GenericD2Ev+0x52d8>
   4b0e0: 22 0a 18 36  	tbz	w2, #3, 0x4b224 <_ZN18ChiFeature2GenericD2Ev+0x53c4>
   4b0e4: c3 00 00 b0  	adrp	x3, 0x64000 <_ZN18ChiFeature2GenericD2Ev+0x52e8>
   4b0f8: a1 04 00 54  	b.ne	0x4b18c <_ZN18ChiFeature2GenericD2Ev+0x532c>
   4b0fc: 35 fe ff b0  	adrp	x21, 0x10000 <_ZN18ChiFeature2GenericD2Ev+0x51b0>
   4b120: 21 fe ff f0  	adrp	x1, 0x12000 <_ZN18ChiFeature2GenericD2Ev+0x51dc>
   4b124: 02 fe ff f0  	adrp	x2, 0xe000 <_ZN18ChiFeature2GenericD2Ev+0x51d0>
   4b150: 25 fe ff b0  	adrp	x5, 0x10000 <_ZN18ChiFeature2GenericD2Ev+0x5204>
   4b18c: 35 fe ff b0  	adrp	x21, 0x10000 <_ZN18ChiFeature2GenericD2Ev+0x5240>
   4b1b4: 40 fe ff 90  	adrp	x0, 0x13000 <_ZN18ChiFeature2GenericD2Ev+0x5274>
   4b1bc: 05 fe ff d0  	adrp	x5, 0xd000 <_ZN18ChiFeature2GenericD2Ev+0x5264>
   4b1e4: 21 fe ff 90  	adrp	x1, 0xf000 <_ZN18ChiFeature2GenericD2Ev+0x5294>
   4b1ec: 23 fe ff b0  	adrp	x3, 0x10000 <_ZN18ChiFeature2GenericD2Ev+0x52a0>
   4b21c: dd 57 00 94  	bl	0x61190 <_ZN6ChiLog9LogSystemEPKcS1_S1_S1_iS1_z@plt>
   4b22c: 81 f1 ff 54  	b.ne	0x4b05c <_ZN18ChiFeature2GenericD2Ev+0x51fc>
   4b234: e1 24 00 54  	b.ne	0x4b6d0 <_ZN18ChiFeature2GenericD2Ev+0x5870>
   4b250: c0 01 00 b4  	cbz	x0, 0x4b288 <_ZN18ChiFeature2GenericD2Ev+0x5428>
   4b268: 33 01 00 b4  	cbz	x19, 0x4b28c <_ZN18ChiFeature2GenericD2Ev+0x542c>
   4b284: 02 00 00 14  	b	0x4b28c <_ZN18ChiFeature2GenericD2Ev+0x542c>
   4b298: 58 ef ff 97  	bl	0x46ff8 <_ZN18ChiFeature2GenericD2Ev+0x1198>
   4b2a0: 9c 39 00 b4  	cbz	x28, 0x4b9d0 <_ZN18ChiFeature2GenericD2Ev+0x5b70>
   4b2a8: 11 fe ff d0  	adrp	x17, 0xd000 <_ZN18ChiFeature2GenericD2Ev+0x5350>
   4b2bc: a8 00 00 54  	b.hi	0x4b2d0 <_ZN18ChiFeature2GenericD2Ev+0x5470>
   4b2c0: d8 00 00 b0  	adrp	x24, 0x64000 <_ZN18ChiFeature2GenericD2Ev+0x54c4>
   4b2e0: c7 02 00 b4  	cbz	x7, 0x4b338 <_ZN18ChiFeature2GenericD2Ev+0x54d8>
   4b2f0: 57 02 00 34  	cbz	w23, 0x4b338 <_ZN18ChiFeature2GenericD2Ev+0x54d8>
   4b304: 01 fe ff b0  	adrp	x1, 0xc000 <_ZN18ChiFeature2GenericD2Ev+0x53a8>
   4b310: 00 01 00 34  	cbz	w0, 0x4b330 <_ZN18ChiFeature2GenericD2Ev+0x54d0>
   4b320: 01 ff ff 54  	b.ne	0x4b300 <_ZN18ChiFeature2GenericD2Ev+0x54a0>
   4b32c: 03 00 00 14  	b	0x4b338 <_ZN18ChiFeature2GenericD2Ev+0x54d8>
   4b338: 9e 57 00 94  	bl	0x611b0 <_ZN15ExtensionModule11GetInstanceEv@plt>
   4b340: 6b 00 00 b4  	cbz	x11, 0x4b34c <_ZN18ChiFeature2GenericD2Ev+0x54ec>
   4b348: 02 00 00 14  	b	0x4b350 <_ZN18ChiFeature2GenericD2Ev+0x54f0>
   4b370: 09 03 00 b4  	cbz	x9, 0x4b3d0 <_ZN18ChiFeature2GenericD2Ev+0x5570>
   4b378: d8 02 00 34  	cbz	w24, 0x4b3d0 <_ZN18ChiFeature2GenericD2Ev+0x5570>
   4b38c: 01 fe ff 90  	adrp	x1, 0xb000 <_ZN18ChiFeature2GenericD2Ev+0x542c>
   4b398: c0 00 00 34  	cbz	w0, 0x4b3b0 <_ZN18ChiFeature2GenericD2Ev+0x5550>
   4b3a8: 01 ff ff 54  	b.ne	0x4b388 <_ZN18ChiFeature2GenericD2Ev+0x5528>
   4b3ac: 09 00 00 14  	b	0x4b3d0 <_ZN18ChiFeature2GenericD2Ev+0x5570>
   4b3bc: a1 00 00 54  	b.ne	0x4b3d0 <_ZN18ChiFeature2GenericD2Ev+0x5570>
   4b3d0: cf 00 00 b0  	adrp	x15, 0x64000 <_ZN18ChiFeature2GenericD2Ev+0x55d4>
   4b3e0: e0 07 18 36  	tbz	w0, #3, 0x4b4dc <_ZN18ChiFeature2GenericD2Ev+0x567c>
   4b3e4: da 00 00 b0  	adrp	x26, 0x64000 <_ZN18ChiFeature2GenericD2Ev+0x55e8>
   4b3f4: a1 03 00 54  	b.ne	0x4b468 <_ZN18ChiFeature2GenericD2Ev+0x5608>
   4b3f8: 37 fe ff b0  	adrp	x23, 0x10000 <_ZN18ChiFeature2GenericD2Ev+0x54ac>
   4b414: 06 fe ff d0  	adrp	x6, 0xd000 <_ZN18ChiFeature2GenericD2Ev+0x54bc>
   4b428: a8 00 00 54  	b.hi	0x4b43c <_ZN18ChiFeature2GenericD2Ev+0x55dc>
   4b42c: c2 00 00 b0  	adrp	x2, 0x64000 <_ZN18ChiFeature2GenericD2Ev+0x5630>
   4b440: 21 fe ff f0  	adrp	x1, 0x12000 <_ZN18ChiFeature2GenericD2Ev+0x54fc>
   4b444: 22 fe ff b0  	adrp	x2, 0x10000 <_ZN18ChiFeature2GenericD2Ev+0x54f8>
   4b448: 25 fe ff b0  	adrp	x5, 0x10000 <_ZN18ChiFeature2GenericD2Ev+0x54fc>
   4b468: 38 fe ff b0  	adrp	x24, 0x10000 <_ZN18ChiFeature2GenericD2Ev+0x551c>
   4b484: 06 fe ff d0  	adrp	x6, 0xd000 <_ZN18ChiFeature2GenericD2Ev+0x552c>
   4b498: a8 00 00 54  	b.hi	0x4b4ac <_ZN18ChiFeature2GenericD2Ev+0x564c>
   4b49c: c6 00 00 b0  	adrp	x6, 0x64000 <_ZN18ChiFeature2GenericD2Ev+0x56a0>
   4b4b0: 40 fe ff 90  	adrp	x0, 0x13000 <_ZN18ChiFeature2GenericD2Ev+0x5570>
   4b4b4: 21 fe ff 90  	adrp	x1, 0xf000 <_ZN18ChiFeature2GenericD2Ev+0x5564>
   4b4b8: 23 fe ff b0  	adrp	x3, 0x10000 <_ZN18ChiFeature2GenericD2Ev+0x556c>
   4b4bc: 05 fe ff f0  	adrp	x5, 0xe000 <_ZN18ChiFeature2GenericD2Ev+0x5568>
   4b4d8: 2e 57 00 94  	bl	0x61190 <_ZN6ChiLog9LogSystemEPKcS1_S1_S1_iS1_z@plt>
   4b4f8: d6 e9 ff 97  	bl	0x45c50 <_ZN18ChiFeature2Generic19CreateROITranslatorEP21ChiFeature2Identifier+0x520>
   4b520: cc e9 ff 97  	bl	0x45c50 <_ZN18ChiFeature2Generic19CreateROITranslatorEP21ChiFeature2Identifier+0x520>
   4b524: 57 01 00 34  	cbz	w23, 0x4b54c <_ZN18ChiFeature2GenericD2Ev+0x56ec>
   4b528: 39 01 00 34  	cbz	w25, 0x4b54c <_ZN18ChiFeature2GenericD2Ev+0x56ec>
   4b534: 09 07 00 54  	b.ls	0x4b614 <_ZN18ChiFeature2GenericD2Ev+0x57b4>
   4b540: a9 06 00 54  	b.ls	0x4b614 <_ZN18ChiFeature2GenericD2Ev+0x57b4>
   4b548: 33 00 00 14  	b	0x4b614 <_ZN18ChiFeature2GenericD2Ev+0x57b4>
   4b54c: d0 00 00 b0  	adrp	x16, 0x64000 <_ZN18ChiFeature2GenericD2Ev+0x5750>
   4b558: e6 05 00 36  	tbz	w6, #0, 0x4b614 <_ZN18ChiFeature2GenericD2Ev+0x57b4>
   4b55c: c0 00 00 b0  	adrp	x0, 0x64000 <_ZN18ChiFeature2GenericD2Ev+0x5760>
   4b56c: a1 02 00 54  	b.ne	0x4b5c0 <_ZN18ChiFeature2GenericD2Ev+0x5760>
   4b570: 3c fe ff b0  	adrp	x28, 0x10000 <_ZN18ChiFeature2GenericD2Ev+0x5624>
   4b58c: 21 fe ff f0  	adrp	x1, 0x12000 <_ZN18ChiFeature2GenericD2Ev+0x5648>
   4b590: 02 fe ff d0  	adrp	x2, 0xd000 <_ZN18ChiFeature2GenericD2Ev+0x5638>
   4b594: 25 fe ff b0  	adrp	x5, 0x10000 <_ZN18ChiFeature2GenericD2Ev+0x5648>
   4b5c0: 3a fe ff b0  	adrp	x26, 0x10000 <_ZN18ChiFeature2GenericD2Ev+0x5674>
   4b5dc: 21 fe ff f0  	adrp	x1, 0x12000 <_ZN18ChiFeature2GenericD2Ev+0x5698>
   4b5e4: 00 fe ff b0  	adrp	x0, 0xc000 <_ZN18ChiFeature2GenericD2Ev+0x5688>
   4b5e8: 23 fe ff b0  	adrp	x3, 0x10000 <_ZN18ChiFeature2GenericD2Ev+0x569c>
   4b5ec: 25 fe ff 90  	adrp	x5, 0xf000 <_ZN18ChiFeature2GenericD2Ev+0x569c>
   4b610: e0 56 00 94  	bl	0x61190 <_ZN6ChiLog9LogSystemEPKcS1_S1_S1_iS1_z@plt>
   4b620: 76 ee ff 97  	bl	0x46ff8 <_ZN18ChiFeature2GenericD2Ev+0x1198>
   4b628: ef 04 00 35  	cbnz	w15, 0x4b6c4 <_ZN18ChiFeature2GenericD2Ev+0x5864>
   4b62c: e1 56 00 94  	bl	0x611b0 <_ZN15ExtensionModule11GetInstanceEv@plt>
   4b63c: 48 03 00 54  	b.hi	0x4b6a4 <_ZN18ChiFeature2GenericD2Ev+0x5844>
   4b65c: 40 02 00 54  	b.eq	0x4b6a4 <_ZN18ChiFeature2GenericD2Ev+0x5844>
   4b66c: 81 e5 00 54  	b.ne	0x4d31c <_ZN18ChiFeature2GenericD2Ev+0x74bc>
   4b67c: 02 01 00 54  	b.hs	0x4b69c <_ZN18ChiFeature2GenericD2Ev+0x583c>
   4b68c: 5b ee ff 97  	bl	0x46ff8 <_ZN18ChiFeature2GenericD2Ev+0x1198>
   4b698: 0b 00 00 14  	b	0x4b6c4 <_ZN18ChiFeature2GenericD2Ev+0x5864>
   4b6a0: 09 00 00 14  	b	0x4b6c4 <_ZN18ChiFeature2GenericD2Ev+0x5864>
   4b6a8: c0 fd ff 54  	b.eq	0x4b660 <_ZN18ChiFeature2GenericD2Ev+0x5800>
   4b6b8: 50 ee ff 97  	bl	0x46ff8 <_ZN18ChiFeature2GenericD2Ev+0x1198>
   4b6d4: 5c cc ff 35  	cbnz	w28, 0x4b05c <_ZN18ChiFeature2GenericD2Ev+0x51fc>
   4b6e0: e1 cb ff 54  	b.ne	0x4b05c <_ZN18ChiFeature2GenericD2Ev+0x51fc>
   4b6e8: a0 00 00 54  	b.eq	0x4b6fc <_ZN18ChiFeature2GenericD2Ev+0x589c>
   4b6fc: d1 00 00 b0  	adrp	x17, 0x64000 <_ZN18ChiFeature2GenericD2Ev+0x5900>
   4b708: e4 c9 1f 36  	tbz	w4, #3, 0x4b044 <_ZN18ChiFeature2GenericD2Ev+0x51e4>
   4b70c: c4 00 00 b0  	adrp	x4, 0x64000 <_ZN18ChiFeature2GenericD2Ev+0x5910>
   4b71c: 61 c6 ff 54  	b.ne	0x4afe8 <_ZN18ChiFeature2GenericD2Ev+0x5188>
   4b720: 36 fe ff b0  	adrp	x22, 0x10000 <_ZN18ChiFeature2GenericD2Ev+0x57d4>
   4b740: 21 fe ff f0  	adrp	x1, 0x12000 <_ZN18ChiFeature2GenericD2Ev+0x57fc>
   4b748: 02 fe ff f0  	adrp	x2, 0xe000 <_ZN18ChiFeature2GenericD2Ev+0x57f4>
   4b74c: 25 fe ff b0  	adrp	x5, 0x10000 <_ZN18ChiFeature2GenericD2Ev+0x5800>
   4b778: 1c fe ff 17  	b	0x4afe8 <_ZN18ChiFeature2GenericD2Ev+0x5188>
   4b794: c8 09 00 35  	cbnz	w8, 0x4b8cc <_ZN18ChiFeature2GenericD2Ev+0x5a6c>
   4b798: db 00 00 b0  	adrp	x27, 0x64000 <_ZN18ChiFeature2GenericD2Ev+0x599c>
   4b7a4: 5b 05 18 36  	tbz	w27, #3, 0x4b84c <_ZN18ChiFeature2GenericD2Ev+0x59ec>
   4b7a8: d6 00 00 b0  	adrp	x22, 0x64000 <_ZN18ChiFeature2GenericD2Ev+0x59ac>
   4b7b8: 41 02 00 54  	b.ne	0x4b800 <_ZN18ChiFeature2GenericD2Ev+0x59a0>
   4b7bc: 34 fe ff b0  	adrp	x20, 0x10000 <_ZN18ChiFeature2GenericD2Ev+0x5870>
   4b7d8: 21 fe ff f0  	adrp	x1, 0x12000 <_ZN18ChiFeature2GenericD2Ev+0x5894>
   4b7dc: 02 fe ff 90  	adrp	x2, 0xb000 <_ZN18ChiFeature2GenericD2Ev+0x587c>
   4b7e0: 25 fe ff b0  	adrp	x5, 0x10000 <_ZN18ChiFeature2GenericD2Ev+0x5894>
   4b800: 3b fe ff b0  	adrp	x27, 0x10000 <_ZN18ChiFeature2GenericD2Ev+0x58b4>
   4b81c: 21 fe ff 90  	adrp	x1, 0xf000 <_ZN18ChiFeature2GenericD2Ev+0x58cc>
   4b824: 40 fe ff 90  	adrp	x0, 0x13000 <_ZN18ChiFeature2GenericD2Ev+0x58e4>
   4b828: 23 fe ff b0  	adrp	x3, 0x10000 <_ZN18ChiFeature2GenericD2Ev+0x58dc>
   4b82c: 25 fe ff f0  	adrp	x5, 0x12000 <_ZN18ChiFeature2GenericD2Ev+0x58e8>
   4b844: 53 56 00 94  	bl	0x61190 <_ZN6ChiLog9LogSystemEPKcS1_S1_S1_iS1_z@plt>
   4b864: c0 01 00 b4  	cbz	x0, 0x4b89c <_ZN18ChiFeature2GenericD2Ev+0x5a3c>
   4b87c: 3b 01 00 b4  	cbz	x27, 0x4b8a0 <_ZN18ChiFeature2GenericD2Ev+0x5a40>
   4b898: 02 00 00 14  	b	0x4b8a0 <_ZN18ChiFeature2GenericD2Ev+0x5a40>
   4b8ac: d3 ed ff 97  	bl	0x46ff8 <_ZN18ChiFeature2GenericD2Ev+0x1198>
   4b8c4: cd ed ff 97  	bl	0x46ff8 <_ZN18ChiFeature2GenericD2Ev+0x1198>
   4b8d0: 95 00 00 34  	cbz	w21, 0x4b8e0 <_ZN18ChiFeature2GenericD2Ev+0x5a80>
   4b8d8: 77 c0 00 35  	cbnz	w23, 0x4d0e4 <_ZN18ChiFeature2GenericD2Ev+0x7284>
   4b8dc: ae 05 00 14  	b	0x4cf94 <_ZN18ChiFeature2GenericD2Ev+0x7134>
   4b90c: e0 02 00 b4  	cbz	x0, 0x4b968 <_ZN18ChiFeature2GenericD2Ev+0x5b08>
   4b914: 4f fe ff 90  	adrp	x15, 0x13000 <_ZN18ChiFeature2GenericD2Ev+0x59d4>
   4b918: 50 fe ff 90  	adrp	x16, 0x13000 <_ZN18ChiFeature2GenericD2Ev+0x59d8>
   4b964: 02 00 00 14  	b	0x4b96c <_ZN18ChiFeature2GenericD2Ev+0x5b0c>
   4b978: a0 ed ff 97  	bl	0x46ff8 <_ZN18ChiFeature2GenericD2Ev+0x1198>
   4b98c: a8 00 00 54  	b.hi	0x4b9a0 <_ZN18ChiFeature2GenericD2Ev+0x5b40>
   4b990: d1 00 00 b0  	adrp	x17, 0x64000 <_ZN18ChiFeature2GenericD2Ev+0x5b94>
   4b99c: 03 00 00 14  	b	0x4b9a8 <_ZN18ChiFeature2GenericD2Ev+0x5b48>
   4b9a0: 10 fe ff d0  	adrp	x16, 0xd000 <_ZN18ChiFeature2GenericD2Ev+0x5a48>
   4b9c4: 8d ed ff 97  	bl	0x46ff8 <_ZN18ChiFeature2GenericD2Ev+0x1198>
   4b9c8: f7 b8 00 35  	cbnz	w23, 0x4d0e4 <_ZN18ChiFeature2GenericD2Ev+0x7284>
   4b9cc: 72 05 00 14  	b	0x4cf94 <_ZN18ChiFeature2GenericD2Ev+0x7134>
   4b9dc: 69 ff ff 17  	b	0x4b780 <_ZN18ChiFeature2GenericD2Ev+0x5920>
   4b9e8: c2 05 00 b5  	cbnz	x2, 0x4baa0 <_ZN18ChiFeature2GenericD2Ev+0x5c40>
   4b9ec: d3 00 00 b0  	adrp	x19, 0x64000 <_ZN18ChiFeature2GenericD2Ev+0x5bf0>
   4b9f8: 22 05 00 36  	tbz	w2, #0, 0x4ba9c <_ZN18ChiFeature2GenericD2Ev+0x5c3c>
   4b9fc: cd 00 00 b0  	adrp	x13, 0x64000 <_ZN18ChiFeature2GenericD2Ev+0x5c00>
   4ba0c: 41 02 00 54  	b.ne	0x4ba54 <_ZN18ChiFeature2GenericD2Ev+0x5bf4>
   4ba10: 13 fe ff b0  	adrp	x19, 0xc000 <_ZN18ChiFeature2GenericD2Ev+0x5ab4>
   4ba2c: 21 fe ff f0  	adrp	x1, 0x12000 <_ZN18ChiFeature2GenericD2Ev+0x5ae8>
   4ba30: 22 fe ff f0  	adrp	x2, 0x12000 <_ZN18ChiFeature2GenericD2Ev+0x5aec>
   4ba34: 05 fe ff b0  	adrp	x5, 0xc000 <_ZN18ChiFeature2GenericD2Ev+0x5ad8>
   4ba54: 1c fe ff b0  	adrp	x28, 0xc000 <_ZN18ChiFeature2GenericD2Ev+0x5af8>
   4ba70: 21 fe ff f0  	adrp	x1, 0x12000 <_ZN18ChiFeature2GenericD2Ev+0x5b2c>
   4ba78: 00 fe ff b0  	adrp	x0, 0xc000 <_ZN18ChiFeature2GenericD2Ev+0x5b1c>
   4ba7c: 03 fe ff b0  	adrp	x3, 0xc000 <_ZN18ChiFeature2GenericD2Ev+0x5b20>
   4ba80: 05 fe ff f0  	adrp	x5, 0xe000 <_ZN18ChiFeature2GenericD2Ev+0x5b2c>
   4ba98: be 55 00 94  	bl	0x61190 <_ZN6ChiLog9LogSystemEPKcS1_S1_S1_iS1_z@plt>
   4bab0: 87 03 00 14  	b	0x4c8cc <_ZN18ChiFeature2GenericD2Ev+0x6a6c>
   4bac4: 4d ed ff 97  	bl	0x46ff8 <_ZN18ChiFeature2GenericD2Ev+0x1198>
   4bad8: 01 02 00 54  	b.ne	0x4bb18 <_ZN18ChiFeature2GenericD2Ev+0x5cb8>
   4bae8: a0 00 00 54  	b.eq	0x4bafc <_ZN18ChiFeature2GenericD2Ev+0x5c9c>
   4baec: a3 02 00 35  	cbnz	w3, 0x4bb40 <_ZN18ChiFeature2GenericD2Ev+0x5ce0>
   4baf8: 43 02 00 54  	b.lo	0x4bb40 <_ZN18ChiFeature2GenericD2Ev+0x5ce0>
   4bb08: 21 03 00 54  	b.ne	0x4bb6c <_ZN18ChiFeature2GenericD2Ev+0x5d0c>
   4bb14: b7 04 00 14  	b	0x4cdf0 <_ZN18ChiFeature2GenericD2Ev+0x6f90>
   4bb1c: ed 01 00 b4  	cbz	x13, 0x4bb58 <_ZN18ChiFeature2GenericD2Ev+0x5cf8>
   4bb20: fc 01 00 b4  	cbz	x28, 0x4bb5c <_ZN18ChiFeature2GenericD2Ev+0x5cfc>
   4bb30: 63 01 00 54  	b.lo	0x4bb5c <_ZN18ChiFeature2GenericD2Ev+0x5cfc>
   4bb3c: ad 04 00 14  	b	0x4cdf0 <_ZN18ChiFeature2GenericD2Ev+0x6f90>
   4bb54: a7 04 00 14  	b	0x4cdf0 <_ZN18ChiFeature2GenericD2Ev+0x6f90>
   4bb58: fc fe ff b5  	cbnz	x28, 0x4bb34 <_ZN18ChiFeature2GenericD2Ev+0x5cd4>
   4bb5c: a0 94 00 34  	cbz	w0, 0x4cdf0 <_ZN18ChiFeature2GenericD2Ev+0x6f90>
   4bb60: 96 94 00 34  	cbz	w22, 0x4cdf0 <_ZN18ChiFeature2GenericD2Ev+0x6f90>
   4bb68: a2 04 00 14  	b	0x4cdf0 <_ZN18ChiFeature2GenericD2Ev+0x6f90>
   4bb74: 50 70 00 b4  	cbz	x16, 0x4c97c <_ZN18ChiFeature2GenericD2Ev+0x6b1c>
   4bb88: c9 6f 00 54  	b.ls	0x4c980 <_ZN18ChiFeature2GenericD2Ev+0x6b20>
   4bba0: 78 03 00 14  	b	0x4c980 <_ZN18ChiFeature2GenericD2Ev+0x6b20>
   4bbb4: 11 ed ff 97  	bl	0x46ff8 <_ZN18ChiFeature2GenericD2Ev+0x1198>
   4bbbc: 9b 2c 00 b4  	cbz	x27, 0x4c14c <_ZN18ChiFeature2GenericD2Ev+0x62ec>
   4bbc8: a4 02 00 36  	tbz	w4, #0, 0x4bc1c <_ZN18ChiFeature2GenericD2Ev+0x5dbc>
   4bbd0: 69 02 00 34  	cbz	w9, 0x4bc1c <_ZN18ChiFeature2GenericD2Ev+0x5dbc>
   4bbe8: a1 01 00 54  	b.ne	0x4bc1c <_ZN18ChiFeature2GenericD2Ev+0x5dbc>
   4bc0c: 98 01 00 35  	cbnz	w24, 0x4bc3c <_ZN18ChiFeature2GenericD2Ev+0x5ddc>
   4bc18: 09 00 00 14  	b	0x4bc3c <_ZN18ChiFeature2GenericD2Ev+0x5ddc>
   4bc40: 61 00 00 54  	b.ne	0x4bc4c <_ZN18ChiFeature2GenericD2Ev+0x5dec>
   4bc4c: c6 00 00 b0  	adrp	x6, 0x64000 <_ZN18ChiFeature2GenericD2Ev+0x5e50>
   4bc5c: 02 09 18 36  	tbz	w2, #3, 0x4bd7c <_ZN18ChiFeature2GenericD2Ev+0x5f1c>
   4bc60: c7 00 00 b0  	adrp	x7, 0x64000 <_ZN18ChiFeature2GenericD2Ev+0x5e64>
   4bc74: 01 04 00 54  	b.ne	0x4bcf4 <_ZN18ChiFeature2GenericD2Ev+0x5e94>
   4bc78: 36 fe ff b0  	adrp	x22, 0x10000 <_ZN18ChiFeature2GenericD2Ev+0x5d2c>
   4bc9c: 21 fe ff f0  	adrp	x1, 0x12000 <_ZN18ChiFeature2GenericD2Ev+0x5d58>
   4bca0: 22 fe ff b0  	adrp	x2, 0x10000 <_ZN18ChiFeature2GenericD2Ev+0x5d54>
   4bcd4: 25 fe ff b0  	adrp	x5, 0x10000 <_ZN18ChiFeature2GenericD2Ev+0x5d88>
   4bcf4: 38 fe ff b0  	adrp	x24, 0x10000 <_ZN18ChiFeature2GenericD2Ev+0x5da8>
   4bd1c: 40 fe ff 90  	adrp	x0, 0x13000 <_ZN18ChiFeature2GenericD2Ev+0x5ddc>
   4bd20: 21 fe ff 90  	adrp	x1, 0xf000 <_ZN18ChiFeature2GenericD2Ev+0x5dd0>
   4bd24: 25 fe ff f0  	adrp	x5, 0x12000 <_ZN18ChiFeature2GenericD2Ev+0x5de0>
   4bd50: 23 fe ff b0  	adrp	x3, 0x10000 <_ZN18ChiFeature2GenericD2Ev+0x5e04>
   4bd6c: 09 55 00 94  	bl	0x61190 <_ZN6ChiLog9LogSystemEPKcS1_S1_S1_iS1_z@plt>
   4bd8c: 9b ec ff 97  	bl	0x46ff8 <_ZN18ChiFeature2GenericD2Ev+0x1198>
   4bd9c: bc 8f 00 34  	cbz	w28, 0x4cf90 <_ZN18ChiFeature2GenericD2Ev+0x7130>
   4bda8: 61 9d 00 54  	b.ne	0x4d154 <_ZN18ChiFeature2GenericD2Ev+0x72f4>
   4bdb0: 95 9c 00 b4  	cbz	x21, 0x4d140 <_ZN18ChiFeature2GenericD2Ev+0x72e0>
   4bdb4: 6f 9c 00 b4  	cbz	x15, 0x4d140 <_ZN18ChiFeature2GenericD2Ev+0x72e0>
   4bdc8: c9 9c 00 54  	b.ls	0x4d160 <_ZN18ChiFeature2GenericD2Ev+0x7300>
   4bddc: e1 04 00 14  	b	0x4d160 <_ZN18ChiFeature2GenericD2Ev+0x7300>
   4bdec: 61 00 00 54  	b.ne	0x4bdf8 <_ZN18ChiFeature2GenericD2Ev+0x5f98>
   4be04: 7d ec ff 97  	bl	0x46ff8 <_ZN18ChiFeature2GenericD2Ev+0x1198>
   4be08: d5 00 00 b0  	adrp	x21, 0x64000 <_ZN18ChiFeature2GenericD2Ev+0x600c>
   4be18: 2b 06 f8 36  	tbz	w11, #31, 0x4bedc <_ZN18ChiFeature2GenericD2Ev+0x607c>
   4be1c: d8 00 00 b0  	adrp	x24, 0x64000 <_ZN18ChiFeature2GenericD2Ev+0x6020>
   4be2c: c1 02 00 54  	b.ne	0x4be84 <_ZN18ChiFeature2GenericD2Ev+0x6024>
   4be30: 35 fe ff b0  	adrp	x21, 0x10000 <_ZN18ChiFeature2GenericD2Ev+0x5ee4>
   4be50: 21 fe ff f0  	adrp	x1, 0x12000 <_ZN18ChiFeature2GenericD2Ev+0x5f0c>
   4be54: 25 fe ff b0  	adrp	x5, 0x10000 <_ZN18ChiFeature2GenericD2Ev+0x5f08>
   4be70: 22 fe ff b0  	adrp	x2, 0x10000 <_ZN18ChiFeature2GenericD2Ev+0x5f24>
   4be84: 38 fe ff b0  	adrp	x24, 0x10000 <_ZN18ChiFeature2GenericD2Ev+0x5f38>
   4bea8: 20 fe ff 90  	adrp	x0, 0xf000 <_ZN18ChiFeature2GenericD2Ev+0x5f58>
   4beac: 21 fe ff 90  	adrp	x1, 0xf000 <_ZN18ChiFeature2GenericD2Ev+0x5f5c>
   4beb0: 25 fe ff d0  	adrp	x5, 0x11000 <_ZN18ChiFeature2GenericD2Ev+0x5f68>
   4bec4: 23 fe ff b0  	adrp	x3, 0x10000 <_ZN18ChiFeature2GenericD2Ev+0x5f78>
   4bed8: ae 54 00 94  	bl	0x61190 <_ZN6ChiLog9LogSystemEPKcS1_S1_S1_iS1_z@plt>
   4beec: 60 01 00 b4  	cbz	x0, 0x4bf18 <_ZN18ChiFeature2GenericD2Ev+0x60b8>
   4bef0: e4 00 00 90  	adrp	x4, 0x67000 <_ZN18ChiFeature2GenericD2Ev+0x6100>
   4bf14: 02 00 00 14  	b	0x4bf1c <_ZN18ChiFeature2GenericD2Ev+0x60bc>
   4bf2c: 33 ec ff 97  	bl	0x46ff8 <_ZN18ChiFeature2GenericD2Ev+0x1198>
   4bf34: f3 82 00 b4  	cbz	x19, 0x4cf90 <_ZN18ChiFeature2GenericD2Ev+0x7130>
   4bf40: 6f 08 00 34  	cbz	w15, 0x4c04c <_ZN18ChiFeature2GenericD2Ev+0x61ec>
   4bf44: 57 08 00 b4  	cbz	x23, 0x4c04c <_ZN18ChiFeature2GenericD2Ev+0x61ec>
   4bf48: 35 fe ff b0  	adrp	x21, 0x10000 <_ZN18ChiFeature2GenericD2Ev+0x5ffc>
   4bf4c: 38 fe ff b0  	adrp	x24, 0x10000 <_ZN18ChiFeature2GenericD2Ev+0x6000>
   4bf68: 19 00 00 14  	b	0x4bfcc <_ZN18ChiFeature2GenericD2Ev+0x616c>
   4bf80: 21 fe ff 90  	adrp	x1, 0xf000 <_ZN18ChiFeature2GenericD2Ev+0x6030>
   4bf88: 40 fe ff 90  	adrp	x0, 0x13000 <_ZN18ChiFeature2GenericD2Ev+0x6048>
   4bf8c: 25 fe ff f0  	adrp	x5, 0x12000 <_ZN18ChiFeature2GenericD2Ev+0x6048>
   4bfa4: 7b 54 00 94  	bl	0x61190 <_ZN6ChiLog9LogSystemEPKcS1_S1_S1_iS1_z@plt>
   4bfb0: 12 ec ff 97  	bl	0x46ff8 <_ZN18ChiFeature2GenericD2Ev+0x1198>
   4bfc8: 20 04 00 54  	b.eq	0x4c04c <_ZN18ChiFeature2GenericD2Ev+0x61ec>
   4bfd0: 48 55 00 94  	bl	0x614f0 <_ZN15UsecaseSelector19IsYUVSnapshotStreamEPK14camera3_stream@plt>
   4bfd8: 01 ff ff 54  	b.ne	0x4bfb8 <_ZN18ChiFeature2GenericD2Ev+0x6158>
   4bfe8: c5 00 00 b0  	adrp	x5, 0x64000 <_ZN18ChiFeature2GenericD2Ev+0x61ec>
   4bff8: 8a fd 1f 36  	tbz	w10, #3, 0x4bfa8 <_ZN18ChiFeature2GenericD2Ev+0x6148>
   4bffc: ce 00 00 b0  	adrp	x14, 0x64000 <_ZN18ChiFeature2GenericD2Ev+0x6200>
   4c00c: 01 fb ff 54  	b.ne	0x4bf6c <_ZN18ChiFeature2GenericD2Ev+0x610c>
   4c024: 21 fe ff d0  	adrp	x1, 0x12000 <_ZN18ChiFeature2GenericD2Ev+0x60dc>
   4c028: 22 fe ff b0  	adrp	x2, 0x11000 <_ZN18ChiFeature2GenericD2Ev+0x60dc>
   4c048: c9 ff ff 17  	b	0x4bf6c <_ZN18ChiFeature2GenericD2Ev+0x610c>
   4c050: 2d 07 00 b4  	cbz	x13, 0x4c134 <_ZN18ChiFeature2GenericD2Ev+0x62d4>
   4c054: db 00 00 90  	adrp	x27, 0x64000 <_ZN18ChiFeature2GenericD2Ev+0x6254>
   4c074: 4e 05 18 36  	tbz	w14, #3, 0x4c11c <_ZN18ChiFeature2GenericD2Ev+0x62bc>
   4c078: d9 00 00 90  	adrp	x25, 0x64000 <_ZN18ChiFeature2GenericD2Ev+0x6278>
   4c088: 41 02 00 54  	b.ne	0x4c0d0 <_ZN18ChiFeature2GenericD2Ev+0x6270>
   4c08c: 39 fe ff 90  	adrp	x25, 0x10000 <_ZN18ChiFeature2GenericD2Ev+0x613c>
   4c0a8: 21 fe ff d0  	adrp	x1, 0x12000 <_ZN18ChiFeature2GenericD2Ev+0x6160>
   4c0ac: 22 fe ff b0  	adrp	x2, 0x11000 <_ZN18ChiFeature2GenericD2Ev+0x6160>
   4c0b0: 25 fe ff 90  	adrp	x5, 0x10000 <_ZN18ChiFeature2GenericD2Ev+0x6160>
   4c0d0: 3b fe ff 90  	adrp	x27, 0x10000 <_ZN18ChiFeature2GenericD2Ev+0x6180>
   4c0ec: 01 fe ff f0  	adrp	x1, 0xf000 <_ZN18ChiFeature2GenericD2Ev+0x6198>
   4c0f4: 20 fe ff f0  	adrp	x0, 0x13000 <_ZN18ChiFeature2GenericD2Ev+0x61b0>
   4c0f8: 23 fe ff 90  	adrp	x3, 0x10000 <_ZN18ChiFeature2GenericD2Ev+0x61a8>
   4c0fc: 05 fe ff f0  	adrp	x5, 0xf000 <_ZN18ChiFeature2GenericD2Ev+0x61a8>
   4c114: 1f 54 00 94  	bl	0x61190 <_ZN6ChiLog9LogSystemEPKcS1_S1_S1_iS1_z@plt>
   4c128: b4 eb ff 97  	bl	0x46ff8 <_ZN18ChiFeature2GenericD2Ev+0x1198>
   4c12c: d7 7d 00 35  	cbnz	w23, 0x4d0e4 <_ZN18ChiFeature2GenericD2Ev+0x7284>
   4c130: 99 03 00 14  	b	0x4cf94 <_ZN18ChiFeature2GenericD2Ev+0x7134>
   4c144: 17 7d 00 35  	cbnz	w23, 0x4d0e4 <_ZN18ChiFeature2GenericD2Ev+0x7284>
   4c148: 93 03 00 14  	b	0x4cf94 <_ZN18ChiFeature2GenericD2Ev+0x7134>
   4c14c: da 00 00 90  	adrp	x26, 0x64000 <_ZN18ChiFeature2GenericD2Ev+0x634c>
   4c158: c0 43 00 37  	tbnz	w0, #0, 0x4c9d0 <_ZN18ChiFeature2GenericD2Ev+0x6b70>
   4c160: e0 03 00 14  	b	0x4d0e0 <_ZN18ChiFeature2GenericD2Ev+0x7280>
   4c164: c8 00 00 90  	adrp	x8, 0x64000 <_ZN18ChiFeature2GenericD2Ev+0x6364>
   4c174: 41 02 00 54  	b.ne	0x4c1bc <_ZN18ChiFeature2GenericD2Ev+0x635c>
   4c178: 3a fe ff 90  	adrp	x26, 0x10000 <_ZN18ChiFeature2GenericD2Ev+0x6228>
   4c194: 21 fe ff d0  	adrp	x1, 0x12000 <_ZN18ChiFeature2GenericD2Ev+0x624c>
   4c198: 02 fe ff b0  	adrp	x2, 0xd000 <_ZN18ChiFeature2GenericD2Ev+0x623c>
   4c19c: 25 fe ff 90  	adrp	x5, 0x10000 <_ZN18ChiFeature2GenericD2Ev+0x624c>
   4c1bc: 39 fe ff 90  	adrp	x25, 0x10000 <_ZN18ChiFeature2GenericD2Ev+0x626c>
   4c1d8: 21 fe ff d0  	adrp	x1, 0x12000 <_ZN18ChiFeature2GenericD2Ev+0x6290>
   4c1e0: 00 fe ff 90  	adrp	x0, 0xc000 <_ZN18ChiFeature2GenericD2Ev+0x6280>
   4c1e4: 23 fe ff 90  	adrp	x3, 0x10000 <_ZN18ChiFeature2GenericD2Ev+0x6294>
   4c1e8: 05 fe ff f0  	adrp	x5, 0xf000 <_ZN18ChiFeature2GenericD2Ev+0x6294>
   4c200: e4 53 00 94  	bl	0x61190 <_ZN6ChiLog9LogSystemEPKcS1_S1_S1_iS1_z@plt>
   4c208: b7 03 00 14  	b	0x4d0e4 <_ZN18ChiFeature2GenericD2Ev+0x7284>
   4c210: a0 57 ff 54  	b.eq	0x4ad04 <_ZN18ChiFeature2GenericD2Ev+0x4ea4>
   4c214: 81 57 0f 37  	tbnz	w1, #1, 0x4ad04 <_ZN18ChiFeature2GenericD2Ev+0x4ea4>
   4c220: 76 eb ff 97  	bl	0x46ff8 <_ZN18ChiFeature2GenericD2Ev+0x1198>
   4c234: 60 01 00 b4  	cbz	x0, 0x4c260 <_ZN18ChiFeature2GenericD2Ev+0x6400>
   4c238: d0 00 00 f0  	adrp	x16, 0x67000 <_ZN18ChiFeature2GenericD2Ev+0x6444>
   4c25c: 02 00 00 14  	b	0x4c264 <_ZN18ChiFeature2GenericD2Ev+0x6404>
   4c274: 61 eb ff 97  	bl	0x46ff8 <_ZN18ChiFeature2GenericD2Ev+0x1198>
   4c27c: b6 68 00 b4  	cbz	x22, 0x4cf90 <_ZN18ChiFeature2GenericD2Ev+0x7130>
   4c284: 71 68 00 b4  	cbz	x17, 0x4cf90 <_ZN18ChiFeature2GenericD2Ev+0x7130>
   4c2a4: 55 eb ff 97  	bl	0x46ff8 <_ZN18ChiFeature2GenericD2Ev+0x1198>
   4c2a8: c4 00 00 90  	adrp	x4, 0x64000 <_ZN18ChiFeature2GenericD2Ev+0x64a8>
   4c2b4: f1 66 18 36  	tbz	w17, #3, 0x4cf90 <_ZN18ChiFeature2GenericD2Ev+0x7130>
   4c2b8: d3 00 00 90  	adrp	x19, 0x64000 <_ZN18ChiFeature2GenericD2Ev+0x64b8>
   4c2c8: 41 03 00 54  	b.ne	0x4c330 <_ZN18ChiFeature2GenericD2Ev+0x64d0>
   4c2d0: 37 fe ff 90  	adrp	x23, 0x10000 <_ZN18ChiFeature2GenericD2Ev+0x6380>
   4c2f8: 21 fe ff d0  	adrp	x1, 0x12000 <_ZN18ChiFeature2GenericD2Ev+0x63b0>
   4c2fc: 02 fe ff d0  	adrp	x2, 0xe000 <_ZN18ChiFeature2GenericD2Ev+0x63a4>
   4c300: 25 fe ff 90  	adrp	x5, 0x10000 <_ZN18ChiFeature2GenericD2Ev+0x63b0>
   4c330: 33 fe ff 90  	adrp	x19, 0x10000 <_ZN18ChiFeature2GenericD2Ev+0x63e0>
   4c358: 20 fe ff f0  	adrp	x0, 0x13000 <_ZN18ChiFeature2GenericD2Ev+0x6414>
   4c35c: 01 fe ff f0  	adrp	x1, 0xf000 <_ZN18ChiFeature2GenericD2Ev+0x6408>
   4c360: 23 fe ff 90  	adrp	x3, 0x10000 <_ZN18ChiFeature2GenericD2Ev+0x6410>
   4c364: 25 fe ff d0  	adrp	x5, 0x12000 <_ZN18ChiFeature2GenericD2Ev+0x641c>
   4c388: 82 53 00 94  	bl	0x61190 <_ZN6ChiLog9LogSystemEPKcS1_S1_S1_iS1_z@plt>
   4c390: b7 6a 00 35  	cbnz	w23, 0x4d0e4 <_ZN18ChiFeature2GenericD2Ev+0x7284>
   4c394: 00 03 00 14  	b	0x4cf94 <_ZN18ChiFeature2GenericD2Ev+0x7134>
   4c3a8: 14 eb ff 97  	bl	0x46ff8 <_ZN18ChiFeature2GenericD2Ev+0x1198>
   4c3b0: 15 01 00 b4  	cbz	x21, 0x4c3d0 <_ZN18ChiFeature2GenericD2Ev+0x6570>
   4c3cc: 0b eb ff 97  	bl	0x46ff8 <_ZN18ChiFeature2GenericD2Ev+0x1198>
   4c3e0: c0 08 00 34  	cbz	w0, 0x4c4f8 <_ZN18ChiFeature2GenericD2Ev+0x6698>
   4c3ec: 05 00 00 14  	b	0x4c400 <_ZN18ChiFeature2GenericD2Ev+0x65a0>
   4c3fc: e9 07 00 54  	b.ls	0x4c4f8 <_ZN18ChiFeature2GenericD2Ev+0x6698>
   4c40c: 21 ff ff 35  	cbnz	w1, 0x4c3f0 <_ZN18ChiFeature2GenericD2Ev+0x6590>
   4c418: c1 fe ff 54  	b.ne	0x4c3f0 <_ZN18ChiFeature2GenericD2Ev+0x6590>
   4c428: f4 ea ff 97  	bl	0x46ff8 <_ZN18ChiFeature2GenericD2Ev+0x1198>
   4c42c: c5 00 00 90  	adrp	x5, 0x64000 <_ZN18ChiFeature2GenericD2Ev+0x662c>
   4c438: c6 5a 18 36  	tbz	w6, #3, 0x4cf90 <_ZN18ChiFeature2GenericD2Ev+0x7130>
   4c43c: c0 00 00 90  	adrp	x0, 0x64000 <_ZN18ChiFeature2GenericD2Ev+0x663c>
   4c44c: a1 02 00 54  	b.ne	0x4c4a0 <_ZN18ChiFeature2GenericD2Ev+0x6640>
   4c450: 3a fe ff 90  	adrp	x26, 0x10000 <_ZN18ChiFeature2GenericD2Ev+0x6500>
   4c470: 21 fe ff d0  	adrp	x1, 0x12000 <_ZN18ChiFeature2GenericD2Ev+0x6528>
   4c474: 22 fe ff b0  	adrp	x2, 0x11000 <_ZN18ChiFeature2GenericD2Ev+0x6528>
   4c478: 25 fe ff 90  	adrp	x5, 0x10000 <_ZN18ChiFeature2GenericD2Ev+0x6528>
   4c4a0: 36 fe ff 90  	adrp	x22, 0x10000 <_ZN18ChiFeature2GenericD2Ev+0x6550>
   4c4c4: 20 fe ff f0  	adrp	x0, 0x13000 <_ZN18ChiFeature2GenericD2Ev+0x6580>
   4c4c8: 01 fe ff f0  	adrp	x1, 0xf000 <_ZN18ChiFeature2GenericD2Ev+0x6574>
   4c4cc: 23 fe ff 90  	adrp	x3, 0x10000 <_ZN18ChiFeature2GenericD2Ev+0x657c>
   4c4d0: 25 fe ff b0  	adrp	x5, 0x11000 <_ZN18ChiFeature2GenericD2Ev+0x6584>
   4c4ec: 29 53 00 94  	bl	0x61190 <_ZN6ChiLog9LogSystemEPKcS1_S1_S1_iS1_z@plt>
   4c4f0: b7 5f 00 35  	cbnz	w23, 0x4d0e4 <_ZN18ChiFeature2GenericD2Ev+0x7284>
   4c4f4: a8 02 00 14  	b	0x4cf94 <_ZN18ChiFeature2GenericD2Ev+0x7134>
   4c508: 60 01 00 b4  	cbz	x0, 0x4c534 <_ZN18ChiFeature2GenericD2Ev+0x66d4>
   4c50c: cc 00 00 f0  	adrp	x12, 0x67000 <_ZN18ChiFeature2GenericD2Ev+0x6718>
   4c530: 02 00 00 14  	b	0x4c538 <_ZN18ChiFeature2GenericD2Ev+0x66d8>
   4c544: ad ea ff 97  	bl	0x46ff8 <_ZN18ChiFeature2GenericD2Ev+0x1198>
   4c54c: 3c 52 00 b4  	cbz	x28, 0x4cf90 <_ZN18ChiFeature2GenericD2Ev+0x7130>
   4c554: bb 01 00 b4  	cbz	x27, 0x4c588 <_ZN18ChiFeature2GenericD2Ev+0x6728>
   4c574: a1 ea ff 97  	bl	0x46ff8 <_ZN18ChiFeature2GenericD2Ev+0x1198>
   4c578: c0 00 00 90  	adrp	x0, 0x64000 <_ZN18ChiFeature2GenericD2Ev+0x6778>
   4c584: 8b 00 18 37  	tbnz	w11, #3, 0x4c594 <_ZN18ChiFeature2GenericD2Ev+0x6734>
   4c58c: d7 5a 00 35  	cbnz	w23, 0x4d0e4 <_ZN18ChiFeature2GenericD2Ev+0x7284>
   4c590: 81 02 00 14  	b	0x4cf94 <_ZN18ChiFeature2GenericD2Ev+0x7134>
   4c594: cd 00 00 90  	adrp	x13, 0x64000 <_ZN18ChiFeature2GenericD2Ev+0x6794>
   4c5a8: e1 02 00 54  	b.ne	0x4c604 <_ZN18ChiFeature2GenericD2Ev+0x67a4>
   4c5ac: 35 fe ff 90  	adrp	x21, 0x10000 <_ZN18ChiFeature2GenericD2Ev+0x665c>
   4c5cc: 21 fe ff d0  	adrp	x1, 0x12000 <_ZN18ChiFeature2GenericD2Ev+0x6684>
   4c5d4: 02 fe ff d0  	adrp	x2, 0xe000 <_ZN18ChiFeature2GenericD2Ev+0x667c>
   4c5d8: 25 fe ff 90  	adrp	x5, 0x10000 <_ZN18ChiFeature2GenericD2Ev+0x6688>
   4c604: 38 fe ff 90  	adrp	x24, 0x10000 <_ZN18ChiFeature2GenericD2Ev+0x66b4>
   4c620: 01 fe ff f0  	adrp	x1, 0xf000 <_ZN18ChiFeature2GenericD2Ev+0x66cc>
   4c62c: 20 fe ff f0  	adrp	x0, 0x13000 <_ZN18ChiFeature2GenericD2Ev+0x66e8>
   4c634: 23 fe ff 90  	adrp	x3, 0x10000 <_ZN18ChiFeature2GenericD2Ev+0x66e4>
   4c638: 25 fe ff d0  	adrp	x5, 0x12000 <_ZN18ChiFeature2GenericD2Ev+0x66f0>
   4c65c: cd 52 00 94  	bl	0x61190 <_ZN6ChiLog9LogSystemEPKcS1_S1_S1_iS1_z@plt>
   4c664: 17 54 00 35  	cbnz	w23, 0x4d0e4 <_ZN18ChiFeature2GenericD2Ev+0x7284>
   4c668: 4b 02 00 14  	b	0x4cf94 <_ZN18ChiFeature2GenericD2Ev+0x7134>
   4c67c: 5f ea ff 97  	bl	0x46ff8 <_ZN18ChiFeature2GenericD2Ev+0x1198>
   4c684: 34 11 00 b4  	cbz	x20, 0x4c8a8 <_ZN18ChiFeature2GenericD2Ev+0x6a48>
   4c6a8: 61 00 00 54  	b.ne	0x4c6b4 <_ZN18ChiFeature2GenericD2Ev+0x6854>
   4c6b8: 78 00 00 34  	cbz	w24, 0x4c6c4 <_ZN18ChiFeature2GenericD2Ev+0x6864>
   4c6c4: c2 00 00 90  	adrp	x2, 0x64000 <_ZN18ChiFeature2GenericD2Ev+0x68c4>
   4c6dc: 11 c8 1e 36  	tbz	w17, #3, 0x49fdc <_ZN18ChiFeature2GenericD2Ev+0x417c>
   4c6e0: d3 00 00 90  	adrp	x19, 0x64000 <_ZN18ChiFeature2GenericD2Ev+0x68e0>
   4c6f0: 01 03 00 54  	b.ne	0x4c750 <_ZN18ChiFeature2GenericD2Ev+0x68f0>
   4c6f4: 3a fe ff 90  	adrp	x26, 0x10000 <_ZN18ChiFeature2GenericD2Ev+0x67a4>
   4c714: 21 fe ff d0  	adrp	x1, 0x12000 <_ZN18ChiFeature2GenericD2Ev+0x67cc>
   4c718: 22 fe ff b0  	adrp	x2, 0x11000 <_ZN18ChiFeature2GenericD2Ev+0x67cc>
   4c71c: 25 fe ff 90  	adrp	x5, 0x10000 <_ZN18ChiFeature2GenericD2Ev+0x67cc>
   4c750: 37 fe ff 90  	adrp	x23, 0x10000 <_ZN18ChiFeature2GenericD2Ev+0x6800>
   4c774: 20 fe ff f0  	adrp	x0, 0x13000 <_ZN18ChiFeature2GenericD2Ev+0x6830>
   4c778: 01 fe ff f0  	adrp	x1, 0xf000 <_ZN18ChiFeature2GenericD2Ev+0x6824>
   4c77c: 23 fe ff 90  	adrp	x3, 0x10000 <_ZN18ChiFeature2GenericD2Ev+0x682c>
   4c780: 05 fe ff d0  	adrp	x5, 0xe000 <_ZN18ChiFeature2GenericD2Ev+0x6828>
   4c7ac: 79 52 00 94  	bl	0x61190 <_ZN6ChiLog9LogSystemEPKcS1_S1_S1_iS1_z@plt>
   4c7b4: 0a f6 ff 17  	b	0x49fdc <_ZN18ChiFeature2GenericD2Ev+0x417c>
   4c7c8: 0c ea ff 97  	bl	0x46ff8 <_ZN18ChiFeature2GenericD2Ev+0x1198>
   4c7d0: 16 e0 ff b4  	cbz	x22, 0x4c3d0 <_ZN18ChiFeature2GenericD2Ev+0x6570>
   4c7dc: 0b 28 00 34  	cbz	w11, 0x4ccdc <_ZN18ChiFeature2GenericD2Ev+0x6e7c>
   4c824: 81 fe ff 54  	b.ne	0x4c7f4 <_ZN18ChiFeature2GenericD2Ev+0x6994>
   4c828: 2f 01 00 14  	b	0x4cce4 <_ZN18ChiFeature2GenericD2Ev+0x6e84>
   4c840: ee e9 ff 97  	bl	0x46ff8 <_ZN18ChiFeature2GenericD2Ev+0x1198>
   4c854: 6a 04 00 34  	cbz	w10, 0x4c8e0 <_ZN18ChiFeature2GenericD2Ev+0x6a80>
   4c8a0: 81 fe ff 54  	b.ne	0x4c870 <_ZN18ChiFeature2GenericD2Ev+0x6a10>
   4c8a4: 11 00 00 14  	b	0x4c8e8 <_ZN18ChiFeature2GenericD2Ev+0x6a88>
   4c8d0: ce e5 ff 97  	bl	0x46008 <_ZN18ChiFeature2GenericD2Ev+0x1a8>
   4c8d8: 77 40 00 35  	cbnz	w23, 0x4d0e4 <_ZN18ChiFeature2GenericD2Ev+0x7284>
   4c8dc: ae 01 00 14  	b	0x4cf94 <_ZN18ChiFeature2GenericD2Ev+0x7134>
   4c8e8: fa 00 00 b4  	cbz	x26, 0x4c904 <_ZN18ChiFeature2GenericD2Ev+0x6aa4>
   4c8f0: 41 0c 00 54  	b.ne	0x4ca78 <_ZN18ChiFeature2GenericD2Ev+0x6c18>
   4c900: 6e 00 00 14  	b	0x4cab8 <_ZN18ChiFeature2GenericD2Ev+0x6c58>
   4c910: e8 ff ff 17  	b	0x4c8b0 <_ZN18ChiFeature2GenericD2Ev+0x6a50>
   4c920: c1 00 00 54  	b.ne	0x4c938 <_ZN18ChiFeature2GenericD2Ev+0x6ad8>
   4c944: e2 00 00 54  	b.hs	0x4c960 <_ZN18ChiFeature2GenericD2Ev+0x6b00>
   4c954: 62 00 00 54  	b.hs	0x4c960 <_ZN18ChiFeature2GenericD2Ev+0x6b00>
   4c968: a4 e9 ff 97  	bl	0x46ff8 <_ZN18ChiFeature2GenericD2Ev+0x1198>
   4c974: 97 3b 00 35  	cbnz	w23, 0x4d0e4 <_ZN18ChiFeature2GenericD2Ev+0x7284>
   4c978: 87 01 00 14  	b	0x4cf94 <_ZN18ChiFeature2GenericD2Ev+0x7134>
   4c988: 50 23 00 b4  	cbz	x16, 0x4cdf0 <_ZN18ChiFeature2GenericD2Ev+0x6f90>
   4c990: 00 23 00 54  	b.eq	0x4cdf0 <_ZN18ChiFeature2GenericD2Ev+0x6f90>
   4c9a4: 40 21 00 b4  	cbz	x0, 0x4cdcc <_ZN18ChiFeature2GenericD2Ev+0x6f6c>
   4c9a8: c4 00 00 d0  	adrp	x4, 0x66000 <_ZN18ChiFeature2GenericD2Ev+0x6bb0>
   4c9cc: 01 01 00 14  	b	0x4cdd0 <_ZN18ChiFeature2GenericD2Ev+0x6f70>
   4c9d0: c0 00 00 90  	adrp	x0, 0x64000 <_ZN18ChiFeature2GenericD2Ev+0x6bd0>
   4c9e0: 41 02 00 54  	b.ne	0x4ca28 <_ZN18ChiFeature2GenericD2Ev+0x6bc8>
   4c9e4: 39 fe ff 90  	adrp	x25, 0x10000 <_ZN18ChiFeature2GenericD2Ev+0x6a94>
   4ca00: 21 fe ff d0  	adrp	x1, 0x12000 <_ZN18ChiFeature2GenericD2Ev+0x6ab8>
   4ca04: 02 fe ff b0  	adrp	x2, 0xd000 <_ZN18ChiFeature2GenericD2Ev+0x6aa8>
   4ca08: 25 fe ff 90  	adrp	x5, 0x10000 <_ZN18ChiFeature2GenericD2Ev+0x6ab8>
   4ca28: 3b fe ff 90  	adrp	x27, 0x10000 <_ZN18ChiFeature2GenericD2Ev+0x6ad8>
   4ca44: 21 fe ff d0  	adrp	x1, 0x12000 <_ZN18ChiFeature2GenericD2Ev+0x6afc>
   4ca4c: 00 fe ff 90  	adrp	x0, 0xc000 <_ZN18ChiFeature2GenericD2Ev+0x6aec>
   4ca50: 23 fe ff 90  	adrp	x3, 0x10000 <_ZN18ChiFeature2GenericD2Ev+0x6b00>
   4ca54: 05 fe ff 90  	adrp	x5, 0xc000 <_ZN18ChiFeature2GenericD2Ev+0x6af4>
   4ca6c: c9 51 00 94  	bl	0x61190 <_ZN6ChiLog9LogSystemEPKcS1_S1_S1_iS1_z@plt>
   4ca74: 9b 01 00 14  	b	0x4d0e0 <_ZN18ChiFeature2GenericD2Ev+0x7280>
   4ca78: ce 51 00 94  	bl	0x611b0 <_ZN15ExtensionModule11GetInstanceEv@plt>
   4ca8c: 68 39 00 54  	b.hi	0x4d1b8 <_ZN18ChiFeature2GenericD2Ev+0x7358>
   4cab0: 40 38 00 54  	b.eq	0x4d1b8 <_ZN18ChiFeature2GenericD2Ev+0x7358>
   4cab4: 7b 37 00 34  	cbz	w27, 0x4d1a0 <_ZN18ChiFeature2GenericD2Ev+0x7340>
   4cac0: bc 51 00 94  	bl	0x611b0 <_ZN15ExtensionModule11GetInstanceEv@plt>
   4cad0: 88 32 00 54  	b.hi	0x4d120 <_ZN18ChiFeature2GenericD2Ev+0x72c0>
   4caf0: 80 31 00 54  	b.eq	0x4d120 <_ZN18ChiFeature2GenericD2Ev+0x72c0>
   4cafc: c7 00 00 b4  	cbz	x7, 0x4cb14 <_ZN18ChiFeature2GenericD2Ev+0x6cb4>
   4cb04: 94 00 08 36  	tbz	w20, #1, 0x4cb14 <_ZN18ChiFeature2GenericD2Ev+0x6cb4>
   4cb14: d9 00 00 90  	adrp	x25, 0x64000 <_ZN18ChiFeature2GenericD2Ev+0x6d14>
   4cb24: c8 06 28 36  	tbz	w8, #5, 0x4cbfc <_ZN18ChiFeature2GenericD2Ev+0x6d9c>
   4cb28: c3 00 00 90  	adrp	x3, 0x64000 <_ZN18ChiFeature2GenericD2Ev+0x6d28>
   4cb38: c1 02 00 54  	b.ne	0x4cb90 <_ZN18ChiFeature2GenericD2Ev+0x6d30>
   4cb3c: 33 fe ff 90  	adrp	x19, 0x10000 <_ZN18ChiFeature2GenericD2Ev+0x6bec>
   4cb5c: 21 fe ff d0  	adrp	x1, 0x12000 <_ZN18ChiFeature2GenericD2Ev+0x6c14>
   4cb60: 22 fe ff b0  	adrp	x2, 0x11000 <_ZN18ChiFeature2GenericD2Ev+0x6c14>
   4cb64: 25 fe ff 90  	adrp	x5, 0x10000 <_ZN18ChiFeature2GenericD2Ev+0x6c14>
   4cb90: 3c fe ff 90  	adrp	x28, 0x10000 <_ZN18ChiFeature2GenericD2Ev+0x6c40>
   4cbb4: 20 fe ff d0  	adrp	x0, 0x12000 <_ZN18ChiFeature2GenericD2Ev+0x6c6c>
   4cbb8: 21 fe ff 90  	adrp	x1, 0x10000 <_ZN18ChiFeature2GenericD2Ev+0x6c68>
   4cbbc: 23 fe ff 90  	adrp	x3, 0x10000 <_ZN18ChiFeature2GenericD2Ev+0x6c6c>
   4cbc0: 05 fe ff d0  	adrp	x5, 0xe000 <_ZN18ChiFeature2GenericD2Ev+0x6c68>
   4cbe4: 6b 51 00 94  	bl	0x61190 <_ZN6ChiLog9LogSystemEPKcS1_S1_S1_iS1_z@plt>
   4cbe8: d8 00 00 90  	adrp	x24, 0x64000 <_ZN18ChiFeature2GenericD2Ev+0x6de8>
   4cc0c: cc 9e fe 36  	tbz	w12, #31, 0x49fe4 <_ZN18ChiFeature2GenericD2Ev+0x4184>
   4cc10: db 00 00 90  	adrp	x27, 0x64000 <_ZN18ChiFeature2GenericD2Ev+0x6e10>
   4cc20: e1 02 00 54  	b.ne	0x4cc7c <_ZN18ChiFeature2GenericD2Ev+0x6e1c>
   4cc24: 35 fe ff 90  	adrp	x21, 0x10000 <_ZN18ChiFeature2GenericD2Ev+0x6cd4>
   4cc44: 21 fe ff d0  	adrp	x1, 0x12000 <_ZN18ChiFeature2GenericD2Ev+0x6cfc>
   4cc48: 22 fe ff b0  	adrp	x2, 0x11000 <_ZN18ChiFeature2GenericD2Ev+0x6cfc>
   4cc4c: 25 fe ff 90  	adrp	x5, 0x10000 <_ZN18ChiFeature2GenericD2Ev+0x6cfc>
   4cc7c: 34 fe ff 90  	adrp	x20, 0x10000 <_ZN18ChiFeature2GenericD2Ev+0x6d2c>
   4cca0: 00 fe ff f0  	adrp	x0, 0xf000 <_ZN18ChiFeature2GenericD2Ev+0x6d4c>
   4cca4: 01 fe ff f0  	adrp	x1, 0xf000 <_ZN18ChiFeature2GenericD2Ev+0x6d50>
   4cca8: 23 fe ff 90  	adrp	x3, 0x10000 <_ZN18ChiFeature2GenericD2Ev+0x6d58>
   4ccac: e5 fd ff f0  	adrp	x5, 0xb000 <_ZN18ChiFeature2GenericD2Ev+0x6d48>
   4ccd0: 30 51 00 94  	bl	0x61190 <_ZN6ChiLog9LogSystemEPKcS1_S1_S1_iS1_z@plt>
   4ccd8: c1 f4 ff 17  	b	0x49fdc <_ZN18ChiFeature2GenericD2Ev+0x417c>
   4cce4: ce 00 00 90  	adrp	x14, 0x64000 <_ZN18ChiFeature2GenericD2Ev+0x6ee4>
   4ccf4: 05 83 fe 36  	tbz	w5, #31, 0x49d54 <_ZN18ChiFeature2GenericD2Ev+0x3ef4>
   4ccf8: ca 00 00 90  	adrp	x10, 0x64000 <_ZN18ChiFeature2GenericD2Ev+0x6ef8>
   4cd08: 01 03 00 54  	b.ne	0x4cd68 <_ZN18ChiFeature2GenericD2Ev+0x6f08>
   4cd0c: 3c fe ff 90  	adrp	x28, 0x10000 <_ZN18ChiFeature2GenericD2Ev+0x6dbc>
   4cd30: 21 fe ff d0  	adrp	x1, 0x12000 <_ZN18ChiFeature2GenericD2Ev+0x6de8>
   4cd34: 22 fe ff 90  	adrp	x2, 0x10000 <_ZN18ChiFeature2GenericD2Ev+0x6de4>
   4cd38: 25 fe ff 90  	adrp	x5, 0x10000 <_ZN18ChiFeature2GenericD2Ev+0x6de8>
   4cd68: 34 fe ff 90  	adrp	x20, 0x10000 <_ZN18ChiFeature2GenericD2Ev+0x6e18>
   4cd8c: 00 fe ff f0  	adrp	x0, 0xf000 <_ZN18ChiFeature2GenericD2Ev+0x6e38>
   4cd90: 01 fe ff f0  	adrp	x1, 0xf000 <_ZN18ChiFeature2GenericD2Ev+0x6e3c>
   4cd94: 23 fe ff 90  	adrp	x3, 0x10000 <_ZN18ChiFeature2GenericD2Ev+0x6e44>
   4cd98: 25 fe ff b0  	adrp	x5, 0x11000 <_ZN18ChiFeature2GenericD2Ev+0x6e4c>
   4cdbc: f5 50 00 94  	bl	0x61190 <_ZN6ChiLog9LogSystemEPKcS1_S1_S1_iS1_z@plt>
   4cdc4: 94 7c fe b5  	cbnz	x20, 0x49d54 <_ZN18ChiFeature2GenericD2Ev+0x3ef4>
   4cdc8: 82 fd ff 17  	b	0x4c3d0 <_ZN18ChiFeature2GenericD2Ev+0x6570>
   4cddc: 87 e8 ff 97  	bl	0x46ff8 <_ZN18ChiFeature2GenericD2Ev+0x1198>
   4cde4: 79 00 00 b4  	cbz	x25, 0x4cdf0 <_ZN18ChiFeature2GenericD2Ev+0x6f90>
   4cdf0: cc 00 00 90  	adrp	x12, 0x64000 <_ZN18ChiFeature2GenericD2Ev+0x6ff0>
   4ce04: 0b 08 18 36  	tbz	w11, #3, 0x4cf04 <_ZN18ChiFeature2GenericD2Ev+0x70a4>
   4ce08: c5 00 00 90  	adrp	x5, 0x64000 <_ZN18ChiFeature2GenericD2Ev+0x7008>
   4ce1c: 81 03 00 54  	b.ne	0x4ce8c <_ZN18ChiFeature2GenericD2Ev+0x702c>
   4ce20: 3c fe ff 90  	adrp	x28, 0x10000 <_ZN18ChiFeature2GenericD2Ev+0x6ed0>
   4ce44: 21 fe ff d0  	adrp	x1, 0x12000 <_ZN18ChiFeature2GenericD2Ev+0x6efc>
   4ce48: 22 fe ff d0  	adrp	x2, 0x12000 <_ZN18ChiFeature2GenericD2Ev+0x6f00>
   4ce50: 25 fe ff 90  	adrp	x5, 0x10000 <_ZN18ChiFeature2GenericD2Ev+0x6f00>
   4ce8c: 34 fe ff 90  	adrp	x20, 0x10000 <_ZN18ChiFeature2GenericD2Ev+0x6f3c>
   4ceb4: 20 fe ff f0  	adrp	x0, 0x13000 <_ZN18ChiFeature2GenericD2Ev+0x6f70>
   4ceb8: 01 fe ff f0  	adrp	x1, 0xf000 <_ZN18ChiFeature2GenericD2Ev+0x6f64>
   4cebc: 23 fe ff 90  	adrp	x3, 0x10000 <_ZN18ChiFeature2GenericD2Ev+0x6f6c>
   4cec4: 05 fe ff 90  	adrp	x5, 0xc000 <_ZN18ChiFeature2GenericD2Ev+0x6f64>
   4cef8: a6 50 00 94  	bl	0x61190 <_ZN6ChiLog9LogSystemEPKcS1_S1_S1_iS1_z@plt>
   4cf0c: 3b e8 ff 97  	bl	0x46ff8 <_ZN18ChiFeature2GenericD2Ev+0x1198>
   4cf18: 38 e8 ff 97  	bl	0x46ff8 <_ZN18ChiFeature2GenericD2Ev+0x1198>
   4cf20: fc 00 00 b4  	cbz	x28, 0x4cf3c <_ZN18ChiFeature2GenericD2Ev+0x70dc>
   4cf38: 30 e8 ff 97  	bl	0x46ff8 <_ZN18ChiFeature2GenericD2Ev+0x1198>
   4cf48: 38 02 00 35  	cbnz	w24, 0x4cf8c <_ZN18ChiFeature2GenericD2Ev+0x712c>
   4cf60: f0 00 00 94  	bl	0x4d320 <_ZN18ChiFeature2GenericD2Ev+0x74c0>
   4cf6c: a0 00 00 54  	b.eq	0x4cf80 <_ZN18ChiFeature2GenericD2Ev+0x7120>
   4cf70: e4 00 00 35  	cbnz	w4, 0x4cf8c <_ZN18ChiFeature2GenericD2Ev+0x712c>
   4cf7c: 83 00 00 54  	b.lo	0x4cf8c <_ZN18ChiFeature2GenericD2Ev+0x712c>
   4cf90: b7 0a 00 35  	cbnz	w23, 0x4d0e4 <_ZN18ChiFeature2GenericD2Ev+0x7284>
   4cfcc: e0 00 00 54  	b.eq	0x4cfe8 <_ZN18ChiFeature2GenericD2Ev+0x7188>
   4cfd0: 19 01 00 35  	cbnz	w25, 0x4cff0 <_ZN18ChiFeature2GenericD2Ev+0x7190>
   4cfe4: 04 00 00 14  	b	0x4cff4 <_ZN18ChiFeature2GenericD2Ev+0x7194>
   4cfec: 02 00 00 14  	b	0x4cff4 <_ZN18ChiFeature2GenericD2Ev+0x7194>
   4cff4: cf 00 00 90  	adrp	x15, 0x64000 <_ZN18ChiFeature2GenericD2Ev+0x71f4>
   4d00c: 6a 00 18 37  	tbnz	w10, #3, 0x4d018 <_ZN18ChiFeature2GenericD2Ev+0x71b8>
   4d014: 34 00 00 14  	b	0x4d0e4 <_ZN18ChiFeature2GenericD2Ev+0x7284>
   4d018: ad 00 00 f0  	adrp	x13, 0x64000 <_ZN18ChiFeature2GenericD2Ev+0x7214>
   4d028: e1 02 00 54  	b.ne	0x4d084 <_ZN18ChiFeature2GenericD2Ev+0x7224>
   4d02c: 18 fe ff f0  	adrp	x24, 0x10000 <_ZN18ChiFeature2GenericD2Ev+0x70d8>
   4d054: 21 fe ff b0  	adrp	x1, 0x12000 <_ZN18ChiFeature2GenericD2Ev+0x7108>
   4d058: 02 fe ff d0  	adrp	x2, 0xf000 <_ZN18ChiFeature2GenericD2Ev+0x7100>
   4d05c: 05 fe ff f0  	adrp	x5, 0x10000 <_ZN18ChiFeature2GenericD2Ev+0x7108>
   4d084: 1b fe ff f0  	adrp	x27, 0x10000 <_ZN18ChiFeature2GenericD2Ev+0x7130>
   4d0a8: 20 fe ff d0  	adrp	x0, 0x13000 <_ZN18ChiFeature2GenericD2Ev+0x7160>
   4d0ac: 01 fe ff d0  	adrp	x1, 0xf000 <_ZN18ChiFeature2GenericD2Ev+0x7154>
   4d0b0: 03 fe ff f0  	adrp	x3, 0x10000 <_ZN18ChiFeature2GenericD2Ev+0x715c>
   4d0b4: 25 fe ff 90  	adrp	x5, 0x11000 <_ZN18ChiFeature2GenericD2Ev+0x7164>
   4d0d8: 2e 50 00 94  	bl	0x61190 <_ZN6ChiLog9LogSystemEPKcS1_S1_S1_iS1_z@plt>
   4d0f0: 41 11 00 54  	b.ne	0x4d318 <_ZN18ChiFeature2GenericD2Ev+0x74b8>
   4d124: 80 ce ff 54  	b.eq	0x4caf4 <_ZN18ChiFeature2GenericD2Ev+0x6c94>
   4d13c: 6e fe ff 17  	b	0x4caf4 <_ZN18ChiFeature2GenericD2Ev+0x6c94>
   4d140: cf 00 00 b5  	cbnz	x15, 0x4d158 <_ZN18ChiFeature2GenericD2Ev+0x72f8>
   4d144: ba 00 00 f0  	adrp	x26, 0x64000 <_ZN18ChiFeature2GenericD2Ev+0x7340>
   4d150: ad 03 00 37  	tbnz	w13, #0, 0x4d1c4 <_ZN18ChiFeature2GenericD2Ev+0x7364>
   4d158: f5 08 00 b4  	cbz	x21, 0x4d274 <_ZN18ChiFeature2GenericD2Ev+0x7414>
   4d164: 20 01 00 b4  	cbz	x0, 0x4d188 <_ZN18ChiFeature2GenericD2Ev+0x7328>
   4d170: c0 00 00 b4  	cbz	x0, 0x4d188 <_ZN18ChiFeature2GenericD2Ev+0x7328>
   4d184: 02 00 00 14  	b	0x4d18c <_ZN18ChiFeature2GenericD2Ev+0x732c>
   4d19c: 3c 00 00 14  	b	0x4d28c <_ZN18ChiFeature2GenericD2Ev+0x742c>
   4d1ac: 60 c8 ff 54  	b.eq	0x4cab8 <_ZN18ChiFeature2GenericD2Ev+0x6c58>
   4d1b4: d0 fd ff 17  	b	0x4c8f4 <_ZN18ChiFeature2GenericD2Ev+0x6a94>
   4d1bc: c0 c7 ff 54  	b.eq	0x4cab4 <_ZN18ChiFeature2GenericD2Ev+0x6c54>
   4d1c0: 3e fe ff 17  	b	0x4cab8 <_ZN18ChiFeature2GenericD2Ev+0x6c58>
   4d1c4: ac 00 00 f0  	adrp	x12, 0x64000 <_ZN18ChiFeature2GenericD2Ev+0x73c0>
   4d1d4: 41 02 00 54  	b.ne	0x4d21c <_ZN18ChiFeature2GenericD2Ev+0x73bc>
   4d1d8: fa fd ff f0  	adrp	x26, 0xc000 <_ZN18ChiFeature2GenericD2Ev+0x7274>
   4d1f4: 21 fe ff b0  	adrp	x1, 0x12000 <_ZN18ChiFeature2GenericD2Ev+0x72a8>
   4d1f8: 22 fe ff b0  	adrp	x2, 0x12000 <_ZN18ChiFeature2GenericD2Ev+0x72ac>
   4d1fc: e5 fd ff f0  	adrp	x5, 0xc000 <_ZN18ChiFeature2GenericD2Ev+0x7298>
   4d21c: f7 fd ff f0  	adrp	x23, 0xc000 <_ZN18ChiFeature2GenericD2Ev+0x72b8>
   4d238: 21 fe ff b0  	adrp	x1, 0x12000 <_ZN18ChiFeature2GenericD2Ev+0x72ec>
   4d240: e0 fd ff f0  	adrp	x0, 0xc000 <_ZN18ChiFeature2GenericD2Ev+0x72dc>
   4d244: e3 fd ff f0  	adrp	x3, 0xc000 <_ZN18ChiFeature2GenericD2Ev+0x72e0>
   4d248: 05 fe ff b0  	adrp	x5, 0xe000 <_ZN18ChiFeature2GenericD2Ev+0x72ec>
   4d260: cc 4f 00 94  	bl	0x61190 <_ZN6ChiLog9LogSystemEPKcS1_S1_S1_iS1_z@plt>
   4d270: 75 f7 ff b5  	cbnz	x21, 0x4d15c <_ZN18ChiFeature2GenericD2Ev+0x72fc>
   4d28c: c9 4f 00 94  	bl	0x611b0 <_ZN15ExtensionModule11GetInstanceEv@plt>
   4d29c: a8 02 00 54  	b.hi	0x4d2f0 <_ZN18ChiFeature2GenericD2Ev+0x7490>
   4d2bc: a0 01 00 54  	b.eq	0x4d2f0 <_ZN18ChiFeature2GenericD2Ev+0x7490>
   4d2dc: 4b e3 ff 97  	bl	0x46008 <_ZN18ChiFeature2GenericD2Ev+0x1a8>
   4d2e8: f7 ef ff 35  	cbnz	w23, 0x4d0e4 <_ZN18ChiFeature2GenericD2Ev+0x7284>
   4d2ec: 2a ff ff 17  	b	0x4cf94 <_ZN18ChiFeature2GenericD2Ev+0x7134>
   4d2f4: 60 fe ff 54  	b.eq	0x4d2c0 <_ZN18ChiFeature2GenericD2Ev+0x7460>
   4d310: f2 ff ff 17  	b	0x4d2d8 <_ZN18ChiFeature2GenericD2Ev+0x7478>
   4d340: 56 01 00 b4  	cbz	x22, 0x4d368 <_ZN18ChiFeature2GenericD2Ev+0x7508>
   4d35c: a8 00 00 54  	b.hi	0x4d370 <_ZN18ChiFeature2GenericD2Ev+0x7510>
   4d364: 08 00 00 14  	b	0x4d384 <_ZN18ChiFeature2GenericD2Ev+0x7524>
   4d36c: 25 00 00 14  	b	0x4d400 <_ZN18ChiFeature2GenericD2Ev+0x75a0>
   4d378: 68 00 00 54  	b.hi	0x4d384 <_ZN18ChiFeature2GenericD2Ev+0x7524>
   4d38c: b4 03 00 b4  	cbz	x20, 0x4d400 <_ZN18ChiFeature2GenericD2Ev+0x75a0>
   4d394: 22 02 00 54  	b.hs	0x4d3d8 <_ZN18ChiFeature2GenericD2Ev+0x7578>
   4d39c: 34 03 00 b4  	cbz	x20, 0x4d400 <_ZN18ChiFeature2GenericD2Ev+0x75a0>
   4d3b0: 81 02 00 54  	b.ne	0x4d400 <_ZN18ChiFeature2GenericD2Ev+0x75a0>
   4d3bc: e1 fe ff 54  	b.ne	0x4d398 <_ZN18ChiFeature2GenericD2Ev+0x7538>
   4d3c0: 85 00 00 14  	b	0x4d5d4 <_ZN18ChiFeature2GenericD2Ev+0x7774>
   4d3c8: c1 01 00 54  	b.ne	0x4d400 <_ZN18ChiFeature2GenericD2Ev+0x75a0>
   4d3d4: 00 10 00 54  	b.eq	0x4d5d4 <_ZN18ChiFeature2GenericD2Ev+0x7774>
   4d3dc: 34 01 00 b4  	cbz	x20, 0x4d400 <_ZN18ChiFeature2GenericD2Ev+0x75a0>
   4d3e8: 20 ff ff 54  	b.eq	0x4d3cc <_ZN18ChiFeature2GenericD2Ev+0x756c>
   4d3f0: a3 fe ff 54  	b.lo	0x4d3c4 <_ZN18ChiFeature2GenericD2Ev+0x7564>
   4d3fc: f2 ff ff 17  	b	0x4d3c4 <_ZN18ChiFeature2GenericD2Ev+0x7564>
   4d41c: 82 0e 00 54  	b.hs	0x4d5ec <_ZN18ChiFeature2GenericD2Ev+0x778c>
   4d42c: b6 00 00 b4  	cbz	x22, 0x4d440 <_ZN18ChiFeature2GenericD2Ev+0x75e0>
   4d43c: 05 09 00 54  	b.pl	0x4d55c <_ZN18ChiFeature2GenericD2Ev+0x76fc>
   4d444: 62 0d 00 54  	b.hs	0x4d5f0 <_ZN18ChiFeature2GenericD2Ev+0x7790>
   4d478: 61 00 00 54  	b.ne	0x4d484 <_ZN18ChiFeature2GenericD2Ev+0x7624>
   4d480: 07 00 00 14  	b	0x4d49c <_ZN18ChiFeature2GenericD2Ev+0x763c>
   4d488: a0 00 00 54  	b.eq	0x4d49c <_ZN18ChiFeature2GenericD2Ev+0x763c>
   4d490: 3c 50 00 94  	bl	0x61580 <_ZNSt3__112__next_primeEm@plt>
   4d4a0: a9 00 00 54  	b.ls	0x4d4b4 <_ZN18ChiFeature2GenericD2Ev+0x7654>
   4d4ac: 53 00 00 94  	bl	0x4d5f8 <_ZN18ChiFeature2GenericD2Ev+0x7798>
   4d4b0: 1e 00 00 14  	b	0x4d528 <_ZN18ChiFeature2GenericD2Ev+0x76c8>
   4d4b4: a2 03 00 54  	b.hs	0x4d528 <_ZN18ChiFeature2GenericD2Ev+0x76c8>
   4d4d0: e3 01 00 54  	b.lo	0x4d50c <_ZN18ChiFeature2GenericD2Ev+0x76ac>
   4d4e8: 28 01 00 54  	b.hi	0x4d50c <_ZN18ChiFeature2GenericD2Ev+0x76ac>
   4d4f0: 03 01 00 54  	b.lo	0x4d510 <_ZN18ChiFeature2GenericD2Ev+0x76b0>
   4d508: 02 00 00 14  	b	0x4d510 <_ZN18ChiFeature2GenericD2Ev+0x76b0>
   4d50c: 1d 50 00 94  	bl	0x61580 <_ZNSt3__112__next_primeEm@plt>
   4d51c: 62 00 00 54  	b.hs	0x4d528 <_ZN18ChiFeature2GenericD2Ev+0x76c8>
   4d524: e2 ff ff 17  	b	0x4d4ac <_ZN18ChiFeature2GenericD2Ev+0x764c>
   4d530: 23 06 00 54  	b.lo	0x4d5f4 <_ZN18ChiFeature2GenericD2Ev+0x7794>
   4d538: a0 00 00 54  	b.eq	0x4d54c <_ZN18ChiFeature2GenericD2Ev+0x76ec>
   4d540: a9 00 00 54  	b.ls	0x4d554 <_ZN18ChiFeature2GenericD2Ev+0x76f4>
   4d548: 05 00 00 14  	b	0x4d55c <_ZN18ChiFeature2GenericD2Ev+0x76fc>
   4d550: 03 00 00 14  	b	0x4d55c <_ZN18ChiFeature2GenericD2Ev+0x76fc>
   4d564: aa 00 00 b4  	cbz	x10, 0x4d578 <_ZN18ChiFeature2GenericD2Ev+0x7718>
   4d574: 14 00 00 14  	b	0x4d5c4 <_ZN18ChiFeature2GenericD2Ev+0x7764>
   4d590: ab 01 00 b4  	cbz	x11, 0x4d5c4 <_ZN18ChiFeature2GenericD2Ev+0x7764>
   4d5a0: 61 00 00 54  	b.ne	0x4d5ac <_ZN18ChiFeature2GenericD2Ev+0x774c>
   4d5a8: 05 00 00 14  	b	0x4d5bc <_ZN18ChiFeature2GenericD2Ev+0x775c>
   4d5b0: 63 00 00 54  	b.lo	0x4d5bc <_ZN18ChiFeature2GenericD2Ev+0x775c>
   4d5cc: 02 01 00 54  	b.hs	0x4d5ec <_ZN18ChiFeature2GenericD2Ev+0x778c>
   4d60c: 01 01 00 b4  	cbz	x1, 0x4d62c <_ZN18ChiFeature2GenericD2Ev+0x77cc>
   4d614: 6a 14 00 b5  	cbnz	x10, 0x4d8a0 <_ZN18ChiFeature2GenericD2Ev+0x7a40>
   4d628: 02 00 00 14  	b	0x4d630 <_ZN18ChiFeature2GenericD2Ev+0x77d0>
   4d638: a0 00 00 b4  	cbz	x0, 0x4d64c <_ZN18ChiFeature2GenericD2Ev+0x77ec>
   4d644: 0e 13 00 b5  	cbnz	x14, 0x4d8a4 <_ZN18ChiFeature2GenericD2Ev+0x7a44>
   4d650: b4 0d 00 b4  	cbz	x20, 0x4d804 <_ZN18ChiFeature2GenericD2Ev+0x79a4>
   4d658: 0b 01 00 54  	b.lt	0x4d678 <_ZN18ChiFeature2GenericD2Ev+0x7818>
   4d668: 49 0d 00 54  	b.ls	0x4d810 <_ZN18ChiFeature2GenericD2Ev+0x79b0>
   4d674: e9 0c 00 54  	b.ls	0x4d810 <_ZN18ChiFeature2GenericD2Ev+0x79b0>
   4d694: 61 ff ff 54  	b.ne	0x4d680 <_ZN18ChiFeature2GenericD2Ev+0x7820>
   4d6a0: 28 0b 00 b4  	cbz	x8, 0x4d804 <_ZN18ChiFeature2GenericD2Ev+0x79a4>
   4d6c0: 68 00 00 54  	b.hi	0x4d6cc <_ZN18ChiFeature2GenericD2Ev+0x786c>
   4d6c8: 05 00 00 14  	b	0x4d6dc <_ZN18ChiFeature2GenericD2Ev+0x787c>
   4d6d0: 63 00 00 54  	b.lo	0x4d6dc <_ZN18ChiFeature2GenericD2Ev+0x787c>
   4d6e8: ea 08 00 b4  	cbz	x10, 0x4d804 <_ZN18ChiFeature2GenericD2Ev+0x79a4>
   4d6f0: a2 04 00 54  	b.hs	0x4d784 <_ZN18ChiFeature2GenericD2Ev+0x7924>
   4d6f4: 04 00 00 14  	b	0x4d704 <_ZN18ChiFeature2GenericD2Ev+0x78a4>
   4d700: 2a 08 00 b4  	cbz	x10, 0x4d804 <_ZN18ChiFeature2GenericD2Ev+0x79a4>
   4d710: 40 ff ff 54  	b.eq	0x4d6f8 <_ZN18ChiFeature2GenericD2Ev+0x7898>
   4d71c: 62 02 00 b4  	cbz	x2, 0x4d768 <_ZN18ChiFeature2GenericD2Ev+0x7908>
   4d72c: a1 00 00 b4  	cbz	x1, 0x4d740 <_ZN18ChiFeature2GenericD2Ev+0x78e0>
   4d73c: 40 ff ff 54  	b.eq	0x4d724 <_ZN18ChiFeature2GenericD2Ev+0x78c4>
   4d764: e6 ff ff 17  	b	0x4d6fc <_ZN18ChiFeature2GenericD2Ev+0x789c>
   4d774: e2 ff ff 17  	b	0x4d6fc <_ZN18ChiFeature2GenericD2Ev+0x789c>
   4d780: 2a 04 00 b4  	cbz	x10, 0x4d804 <_ZN18ChiFeature2GenericD2Ev+0x79a4>
   4d78c: 63 00 00 54  	b.lo	0x4d798 <_ZN18ChiFeature2GenericD2Ev+0x7938>
   4d79c: e0 fe ff 54  	b.eq	0x4d778 <_ZN18ChiFeature2GenericD2Ev+0x7918>
   4d7ac: 46 02 00 b4  	cbz	x6, 0x4d7f4 <_ZN18ChiFeature2GenericD2Ev+0x7994>
   4d7b8: b1 00 00 b4  	cbz	x17, 0x4d7cc <_ZN18ChiFeature2GenericD2Ev+0x796c>
   4d7c8: 40 ff ff 54  	b.eq	0x4d7b0 <_ZN18ChiFeature2GenericD2Ev+0x7950>
   4d7f0: e3 ff ff 17  	b	0x4d77c <_ZN18ChiFeature2GenericD2Ev+0x791c>
   4d800: df ff ff 17  	b	0x4d77c <_ZN18ChiFeature2GenericD2Ev+0x791c>
   4d840: 21 ff ff 54  	b.ne	0x4d824 <_ZN18ChiFeature2GenericD2Ev+0x79c4>
   4d844: af f2 ff b4  	cbz	x15, 0x4d698 <_ZN18ChiFeature2GenericD2Ev+0x7838>
   4d84c: e9 00 00 54  	b.ls	0x4d868 <_ZN18ChiFeature2GenericD2Ev+0x7a08>
   4d864: aa f1 ff 54  	b.ge	0x4d698 <_ZN18ChiFeature2GenericD2Ev+0x7838>
   4d868: d4 00 10 36  	tbz	w20, #2, 0x4d880 <_ZN18ChiFeature2GenericD2Ev+0x7a20>
   4d87c: ea f0 ff 54  	b.ge	0x4d698 <_ZN18ChiFeature2GenericD2Ev+0x7838>
   4d880: d4 00 08 36  	tbz	w20, #1, 0x4d898 <_ZN18ChiFeature2GenericD2Ev+0x7a38>
   4d894: 2a f0 ff 54  	b.ge	0x4d698 <_ZN18ChiFeature2GenericD2Ev+0x7838>
   4d89c: 7f ff ff 17  	b	0x4d698 <_ZN18ChiFeature2GenericD2Ev+0x7838>
   4d8a8: 00 02 00 b4  	cbz	x0, 0x4d8e8 <_ZN18ChiFeature2GenericD2Ev+0x7a88>
   4d8b0: 09 fe ff d0  	adrp	x9, 0xf000 <_ZN18ChiFeature2GenericD2Ev+0x7958>
   4d8b8: aa 00 00 f0  	adrp	x10, 0x64000 <_ZN18ChiFeature2GenericD2Ev+0x7ab4>
   4d8bc: ab 00 00 f0  	adrp	x11, 0x64000 <_ZN18ChiFeature2GenericD2Ev+0x7ab8>
   4d8c0: ac 00 00 f0  	adrp	x12, 0x64000 <_ZN18ChiFeature2GenericD2Ev+0x7abc>
   4d8c8: a8 00 00 f0  	adrp	x8, 0x64000 <_ZN18ChiFeature2GenericD2Ev+0x7ac4>
000000000004f4f0 <_ZN5Mutex10InitializeEv>:
   4f520: 60 00 00 34  	cbz	w0, 0x4f52c <_ZN5Mutex10InitializeEv+0x3c>
   4f528: 0f 00 00 14  	b	0x4f564 <_ZN5Mutex10InitializeEv+0x74>
   4f53c: 00 01 00 35  	cbnz	w0, 0x4f55c <_ZN5Mutex10InitializeEv+0x6c>
   4f550: 60 00 00 35  	cbnz	w0, 0x4f55c <_ZN5Mutex10InitializeEv+0x6c>
   4f570: e1 00 00 54  	b.ne	0x4f58c <_ZN5Mutex10InitializeEv+0x9c>
000000000004f590 <_ZN5Mutex7DestroyEv>:
   4f5a8: 61 00 00 54  	b.ne	0x4f5b4 <_ZN5Mutex7DestroyEv+0x24>
000000000004f5c8 <_ZN5Mutex4LockEv>:
000000000004f5d0 <_ZN5Mutex7TryLockEv>:
000000000004f5f8 <_ZN5Mutex6UnlockEv>:
000000000004f600 <_ZN5Mutex15GetNativeHandleEv>:
   4f63c: 60 01 00 b4  	cbz	x0, 0x4f668 <_ZN5Mutex15GetNativeHandleEv+0x68>
   4f64c: a0 00 00 34  	cbz	w0, 0x4f660 <_ZN5Mutex15GetNativeHandleEv+0x60>
   4f65c: 03 00 00 14  	b	0x4f668 <_ZN5Mutex15GetNativeHandleEv+0x68>
000000000004f678 <_ZN9Condition10InitializeEv>:
   4f698: 68 00 00 35  	cbnz	w8, 0x4f6a4 <_ZN9Condition10InitializeEv+0x2c>
000000000004f6b0 <_ZN9Condition7DestroyEv>:
   4f6c8: 61 00 00 54  	b.ne	0x4f6d4 <_ZN9Condition7DestroyEv+0x24>
000000000004f6e8 <_ZN9Condition4WaitEP15pthread_mutex_t>:
000000000004f708 <_ZN9Condition9TimedWaitEP15pthread_mutex_tj>:
   4f770: 62 04 00 54  	b.hs	0x4f7fc <_ZN9Condition9TimedWaitEP15pthread_mutex_tj+0xf4>
   4f79c: 06 03 00 54  	b.vs	0x4f7fc <_ZN9Condition9TimedWaitEP15pthread_mutex_tj+0xf4>
   4f7e0: 01 01 00 54  	b.ne	0x4f800 <_ZN9Condition9TimedWaitEP15pthread_mutex_tj+0xf8>
000000000004f808 <_ZN9Condition6SignalEv>:
000000000004f810 <_ZN9Condition9BroadcastEv>:
   4f844: 40 00 00 b4  	cbz	x0, 0x4f84c <_ZN9Condition9BroadcastEv+0x3c>
000000000004f858 <_ZN9Semaphore10InitializeEi>:
000000000004f868 <_ZN9Semaphore16NotifyAllThreadsEv>:
   4f878: 82 47 00 94  	bl	0x61680 <_ZNSt3__15mutex4lockEv@plt>
   4f884: a2 06 00 54  	b.hs	0x4f958 <_ZN9Semaphore16NotifyAllThreadsEv+0xf0>
   4f894: 69 05 00 54  	b.ls	0x4f940 <_ZN9Semaphore16NotifyAllThreadsEv+0xd8>
   4f898: a8 00 00 b0  	adrp	x8, 0x64000 <_ZN9Semaphore16NotifyAllThreadsEv+0x84>
   4f8a4: ea 04 08 36  	tbz	w10, #1, 0x4f940 <_ZN9Semaphore16NotifyAllThreadsEv+0xd8>
   4f8a8: a9 00 00 b0  	adrp	x9, 0x64000 <_ZN9Semaphore16NotifyAllThreadsEv+0x94>
   4f8ac: 14 fe ff b0  	adrp	x20, 0x10000 <_ZN9Condition9TimedWaitEP15pthread_mutex_tj+0xa8>
   4f8c0: 01 02 00 54  	b.ne	0x4f900 <_ZN9Semaphore16NotifyAllThreadsEv+0x98>
   4f8d8: 01 fe ff f0  	adrp	x1, 0x12000 <_ZN9Condition9TimedWaitEP15pthread_mutex_tj+0xdc>
   4f8dc: 02 fe ff 90  	adrp	x2, 0xf000 <_ZN9Condition9TimedWaitEP15pthread_mutex_tj+0xd4>
   4f8e0: e5 fd ff 90  	adrp	x5, 0xb000 <_ZN9Condition9TimedWaitEP15pthread_mutex_tj+0xc8>
   4f914: e1 fd ff d0  	adrp	x1, 0xd000 <_ZN9Condition6SignalEv+0x4>
   4f91c: 00 fe ff b0  	adrp	x0, 0x10000 <_ZN9Condition9BroadcastEv+0x10>
   4f920: e3 fd ff 90  	adrp	x3, 0xb000 <_ZN9Condition9BroadcastEv>
   4f924: e5 fd ff b0  	adrp	x5, 0xc000 <_ZN9Condition9BroadcastEv+0x8>
   4f93c: 15 46 00 94  	bl	0x61190 <_ZN6ChiLog9LogSystemEPKcS1_S1_S1_iS1_z@plt>
   4f944: 53 47 00 94  	bl	0x61690 <_ZNSt3__118condition_variable10notify_allEv@plt>
   4f954: 53 47 00 14  	b	0x616a0 <_ZNSt3__15mutex6unlockEv@plt>
000000000004f960 <_ZN9Semaphore5ResetEv>:
   4f970: 44 47 00 94  	bl	0x61680 <_ZNSt3__15mutex4lockEv@plt>
   4f974: a8 00 00 b0  	adrp	x8, 0x64000 <_ZN9Semaphore5ResetEv+0x68>
   4f988: e8 04 18 36  	tbz	w8, #3, 0x4fa24 <_ZN9Semaphore5ResetEv+0xc4>
   4f98c: a9 00 00 b0  	adrp	x9, 0x64000 <_ZN9Semaphore5ResetEv+0x80>
   4f990: 14 fe ff b0  	adrp	x20, 0x10000 <_ZN9Semaphore16NotifyAllThreadsEv+0x2c>
   4f9a4: 01 02 00 54  	b.ne	0x4f9e4 <_ZN9Semaphore5ResetEv+0x84>
   4f9bc: 01 fe ff f0  	adrp	x1, 0x12000 <_ZN9Semaphore16NotifyAllThreadsEv+0x60>
   4f9c0: e2 fd ff f0  	adrp	x2, 0xe000 <_ZN9Semaphore16NotifyAllThreadsEv+0x54>
   4f9c4: 05 fe ff d0  	adrp	x5, 0x11000 <_ZN9Semaphore16NotifyAllThreadsEv+0x64>
   4f9f8: 01 fe ff 90  	adrp	x1, 0xf000 <_ZN9Semaphore16NotifyAllThreadsEv+0x90>
   4fa00: 20 fe ff 90  	adrp	x0, 0x13000 <_ZN9Semaphore16NotifyAllThreadsEv+0xa8>
   4fa04: 03 fe ff d0  	adrp	x3, 0x11000 <_ZN9Semaphore16NotifyAllThreadsEv+0xa4>
   4fa08: e5 fd ff b0  	adrp	x5, 0xc000 <_ZN9Semaphore16NotifyAllThreadsEv+0x94>
   4fa20: dc 45 00 94  	bl	0x61190 <_ZN6ChiLog9LogSystemEPKcS1_S1_S1_iS1_z@plt>
   4fa28: 1a 47 00 94  	bl	0x61690 <_ZNSt3__118condition_variable10notify_allEv@plt>
   4fa38: 1a 47 00 14  	b	0x616a0 <_ZNSt3__15mutex6unlockEv@plt>
000000000004fa40 <_ZN9Semaphore16WaitForSemaphoreEv>:
   4fa7c: 01 47 00 94  	bl	0x61680 <_ZNSt3__15mutex4lockEv@plt>
   4fa84: 88 00 00 34  	cbz	w8, 0x4fa94 <_ZN9Semaphore16WaitForSemaphoreEv+0x54>
   4fa90: 80 00 00 14  	b	0x4fc90 <_ZN9Semaphore16WaitForSemaphoreEv+0x250>
   4fa94: 28 fe ff 90  	adrp	x8, 0x13000 <_ZN9Semaphore5ResetEv+0x44>
   4fa98: 29 fe ff 90  	adrp	x9, 0x13000 <_ZN9Semaphore5ResetEv+0x48>
   4faa0: b7 00 00 b0  	adrp	x23, 0x64000 <_ZN9Semaphore16WaitForSemaphoreEv+0xb4>
   4faa8: 16 fe ff b0  	adrp	x22, 0x10000 <_ZN9Semaphore5ResetEv+0x4c>
   4fab4: f9 fd ff d0  	adrp	x25, 0xd000 <_ZN9Semaphore5ResetEv+0x4c>
   4fae0: 12 00 00 14  	b	0x4fb28 <_ZN9Semaphore16WaitForSemaphoreEv+0xe8>
   4faf8: 01 fe ff 90  	adrp	x1, 0xf000 <_ZN9Semaphore5ResetEv+0x98>
   4fb00: 20 fe ff 90  	adrp	x0, 0x13000 <_ZN9Semaphore5ResetEv+0xb0>
   4fb04: 05 fe ff 90  	adrp	x5, 0xf000 <_ZN9Semaphore5ResetEv+0xa4>
   4fb1c: 9d 45 00 94  	bl	0x61190 <_ZN6ChiLog9LogSystemEPKcS1_S1_S1_iS1_z@plt>
   4fb24: a9 0a 00 35  	cbnz	w9, 0x4fc78 <_ZN9Semaphore16WaitForSemaphoreEv+0x238>
   4fb28: e2 46 00 94  	bl	0x616b0 <_ZNSt3__16chrono12steady_clock3nowEv@plt>
   4fb30: e4 46 00 94  	bl	0x616c0 <_ZNSt3__16chrono12system_clock3nowEv@plt>
   4fb50: 0a 01 00 54  	b.ge	0x4fb70 <_ZN9Semaphore16WaitForSemaphoreEv+0x130>
   4fb60: 61 0b 00 54  	b.ne	0x4fccc <_ZN9Semaphore16WaitForSemaphoreEv+0x28c>
   4fb68: 67 00 00 54  	b.vc	0x4fb74 <_ZN9Semaphore16WaitForSemaphoreEv+0x134>
   4fb6c: 59 00 00 14  	b	0x4fcd0 <_ZN9Semaphore16WaitForSemaphoreEv+0x290>
   4fb7c: e1 46 00 94  	bl	0x61700 <_ZNSt3__118condition_variable15__do_timed_waitERNS_11unique_lockINS_5mutexEEENS_6chrono10time_pointINS5_12system_clockENS5_8durationIxNS_5ratioILl1ELl1000000000EEEEEEE@plt>
   4fb80: cc 46 00 94  	bl	0x616b0 <_ZNSt3__16chrono12steady_clock3nowEv@plt>
   4fb88: 06 0a 00 54  	b.vs	0x4fcc8 <_ZN9Semaphore16WaitForSemaphoreEv+0x288>
   4fb94: ca 02 00 54  	b.ge	0x4fbec <_ZN9Semaphore16WaitForSemaphoreEv+0x1ac>
   4fb98: 48 fc 1f 36  	tbz	w8, #3, 0x4fb20 <_ZN9Semaphore16WaitForSemaphoreEv+0xe0>
   4fb9c: aa 00 00 b0  	adrp	x10, 0x64000 <_ZN9Semaphore16WaitForSemaphoreEv+0x1b0>
