    39ec: 41 0a 00 94  	bl	0x62f0 <_ZN6ChiLog9LogSystemEPKcS1_S1_S1_iS1_z@plt>
    3aa4: 13 0a 00 94  	bl	0x62f0 <_ZN6ChiLog9LogSystemEPKcS1_S1_S1_iS1_z@plt>
    3ab4: 13 0a 00 94  	bl	0x6300 <_Znwm@plt>
    3b08: 02 0a 00 14  	b	0x6310 <_ZdlPv@plt>
    3c2c: b1 09 00 94  	bl	0x62f0 <_ZN6ChiLog9LogSystemEPKcS1_S1_S1_iS1_z@plt>
    3cdc: 85 09 00 94  	bl	0x62f0 <_ZN6ChiLog9LogSystemEPKcS1_S1_S1_iS1_z@plt>
    3da0: 64 09 00 94  	bl	0x6330 <_ZN12ChiNodeUtils24DefaultBufferNegotiationEP22ChiNodeQueryBufferInfo@plt>
    3e60: 24 09 00 94  	bl	0x62f0 <_ZN6ChiLog9LogSystemEPKcS1_S1_S1_iS1_z@plt>
    3f10: f8 08 00 94  	bl	0x62f0 <_ZN6ChiLog9LogSystemEPKcS1_S1_S1_iS1_z@plt>
    4090: 98 08 00 94  	bl	0x62f0 <_ZN6ChiLog9LogSystemEPKcS1_S1_S1_iS1_z@plt>
    4140: 6c 08 00 94  	bl	0x62f0 <_ZN6ChiLog9LogSystemEPKcS1_S1_S1_iS1_z@plt>
    4314: f7 07 00 94  	bl	0x62f0 <_ZN6ChiLog9LogSystemEPKcS1_S1_S1_iS1_z@plt>
    43c4: cb 07 00 94  	bl	0x62f0 <_ZN6ChiLog9LogSystemEPKcS1_S1_S1_iS1_z@plt>
    4514: 77 07 00 94  	bl	0x62f0 <_ZN6ChiLog9LogSystemEPKcS1_S1_S1_iS1_z@plt>
    4590: 58 07 00 94  	bl	0x62f0 <_ZN6ChiLog9LogSystemEPKcS1_S1_S1_iS1_z@plt>
    46c8: 0a 07 00 94  	bl	0x62f0 <_ZN6ChiLog9LogSystemEPKcS1_S1_S1_iS1_z@plt>
    4994: 57 06 00 94  	bl	0x62f0 <_ZN6ChiLog9LogSystemEPKcS1_S1_S1_iS1_z@plt>
    4b3c: ed 05 00 94  	bl	0x62f0 <_ZN6ChiLog9LogSystemEPKcS1_S1_S1_iS1_z@plt>
    4cd4: 87 05 00 94  	bl	0x62f0 <_ZN6ChiLog9LogSystemEPKcS1_S1_S1_iS1_z@plt>
    4db0: 50 05 00 14  	b	0x62f0 <_ZN6ChiLog9LogSystemEPKcS1_S1_S1_iS1_z@plt>
    4dd0: 64 05 00 14  	b	0x6360 <_ZN12ChiNodeUtils16SetNodeInterfaceEP16ChiNodeInterfacePKcS1_Pj@plt>
    4ee4: 03 05 00 94  	bl	0x62f0 <_ZN6ChiLog9LogSystemEPKcS1_S1_S1_iS1_z@plt>
    4f94: d7 04 00 94  	bl	0x62f0 <_ZN6ChiLog9LogSystemEPKcS1_S1_S1_iS1_z@plt>
00000000000062f0 <_ZN6ChiLog9LogSystemEPKcS1_S1_S1_iS1_z@plt>:
    62f0: 10 00 00 b0  	adrp	x16, 0x7000 <_ZN6ChiLog9LogSystemEPKcS1_S1_S1_iS1_z@plt+0x4>
0000000000006300 <_Znwm@plt>:
    6300: 10 00 00 b0  	adrp	x16, 0x7000 <_Znwm@plt+0x4>
0000000000006310 <_ZdlPv@plt>:
    6310: 10 00 00 b0  	adrp	x16, 0x7000 <_ZdlPv@plt+0x4>
0000000000006330 <_ZN12ChiNodeUtils24DefaultBufferNegotiationEP22ChiNodeQueryBufferInfo@plt>:
    6330: 10 00 00 b0  	adrp	x16, 0x7000 <_ZN12ChiNodeUtils24DefaultBufferNegotiationEP22ChiNodeQueryBufferInfo@plt+0x4>
0000000000006360 <_ZN12ChiNodeUtils16SetNodeInterfaceEP16ChiNodeInterfacePKcS1_Pj@plt>:
    6360: 10 00 00 b0  	adrp	x16, 0x7000 <_ZN12ChiNodeUtils16SetNodeInterfaceEP16ChiNodeInterfacePKcS1_Pj@plt+0x4>
