	ldr	x4, 0x22edc <_ZN11ChiMetadata5CloneEv+0x4>
	ldrsw	x8, 0x240e4 <_ZN18ChiMetadataManager10MetaClient14ReleaseBuffersEv+0xac>
	ldrsw	x8, 0x2435c <_ZN18ChiMetadataManager10MetaClient12TrackBuffersERNSt3__16chrono10time_pointINS2_12steady_clockENS2_8durationIxNS1_5ratioILl1ELl1000000000EEEEEEEj+0xd4>
	ldrsw	x8, 0x2477c <_ZN18ChiMetadataManager10MetaClient15AllocateBuffersEPjjjjj+0x1c4>
	ldrsw	x8, 0x247c4 <_ZN18ChiMetadataManager10MetaClient15AllocateBuffersEPjjjjj+0x20c>
	ldrsw	x8, 0x248bc <_ZN18ChiMetadataManager10MetaClient15AllocateBuffersEPjjjjj+0x304>
	ldrsw	x8, 0x24b9c <_ZN18ChiMetadataManager21AndroidMetadataHolderD2Ev+0x134>
	ldrsw	x8, 0x24bcc <_ZN18ChiMetadataManager21AndroidMetadataHolderD2Ev+0x164>
	ldrsw	x8, 0x24ca4 <_ZN18ChiMetadataManager10InitializeEv+0x5c>
	ldrsw	x8, 0x24d44 <_ZN18ChiMetadataManager10InitializeEv+0xfc>
	ldrsw	x8, 0x24e04 <_ZN18ChiMetadataManager10InitializeEv+0x1bc>
	ldrsw	x8, 0x24ed4 <_ZN18ChiMetadataManager10InitializeEv+0x28c>
	ldrsw	x8, 0x24f4c <_ZN18ChiMetadataManager10InitializeEv+0x304>
	ldrsw	x8, 0x24f74 <_ZN18ChiMetadataManager10InitializeEv+0x32c>
	ldrsw	x8, 0x24fc4 <_ZN18ChiMetadataManager10InitializeEv+0x37c>
	ldrsw	x8, 0x2505c <_ZN18ChiMetadataManager10InitializeEv+0x414>
	ldrsw	x8, 0x250cc <_ZN18ChiMetadataManager10InitializeEv+0x484>
	ldrsw	x8, 0x25194 <_ZN18ChiMetadataManager10InitializeEv+0x54c>
	ldrsw	x8, 0x25294 <_ZN18ChiMetadataManager10InitializeEv+0x64c>
0x25304 <_ZN18ChiMetadataManager10InitializeEv+0x6bc>
0x253b4 <_ZN18ChiMetadataManager10InitializeEv+0x76c>
0x25424 <_ZN18ChiMetadataManager10InitializeEv+0x7dc>
0x25454 <_ZN18ChiMetadataManager10InitializeEv+0x80c>
0x25664 <_ZN18ChiMetadataManagerD2Ev+0x2c>
0x256c4 <_ZN18ChiMetadataManagerD2Ev+0x8c>
0x256f4 <_ZN18ChiMetadataManagerD2Ev+0xbc>
0x2573c <_ZN18ChiMetadataManagerD2Ev+0x104>
0x257e4 <_ZN18ChiMetadataManagerD2Ev+0x1ac>
0x25814 <_ZN18ChiMetadataManagerD2Ev+0x1dc>
0x25844 <_ZN18ChiMetadataManagerD2Ev+0x20c>
0x25894 <_ZN18ChiMetadataManagerD2Ev+0x25c>
0x258e4 <_ZN18ChiMetadataManagerD2Ev+0x2ac>
0x25914 <_ZN18ChiMetadataManagerD2Ev+0x2dc>
0x2593c <_ZN18ChiMetadataManagerD2Ev+0x304>
0x2596c <_ZN18ChiMetadataManagerD2Ev+0x334>
0x25a94 <_ZN18ChiMetadataManager25AllocateFrameworkMetadataEjjbjj+0x11c>
0x25aec <_ZN18ChiMetadataManager25AllocateFrameworkMetadataEjjbjj+0x174>
0x25b1c <_ZN18ChiMetadataManager25AllocateFrameworkMetadataEjjbjj+0x1a4>
0x25b44 <_ZN18ChiMetadataManager25AllocateFrameworkMetadataEjjbjj+0x1cc>
0x25b74 <_ZN18ChiMetadataManager25AllocateFrameworkMetadataEjjbjj+0x1fc>
0x25ba4 <_ZN18ChiMetadataManager25AllocateFrameworkMetadataEjjbjj+0x22c>
0x25bf4 <_ZN18ChiMetadataManager25AllocateFrameworkMetadataEjjbjj+0x27c>
0x25c44 <_ZN18ChiMetadataManager25AllocateFrameworkMetadataEjjbjj+0x2cc>
0x25c74 <_ZN18ChiMetadataManager25AllocateFrameworkMetadataEjjbjj+0x2fc>
0x25ccc <_ZN18ChiMetadataManager25AllocateFrameworkMetadataEjjbjj+0x354>
<_ZN7android8hardware11hidl_stringC1EPKc@plt>
<_ZN7android8hardware11hidl_stringC1EPKc@plt>
<_ZN7android8hardware11hidl_stringC1EPKc@plt>
<_ZN7android8hardware11hidl_stringC1EPKc@plt>
<_ZN7android8hardware11hidl_stringC1EPKc@plt>
<_ZN7android8hardware11hidl_stringC1EPKc@plt>
<_ZN7android8hardware11hidl_stringC1EPKc@plt>
<_ZN7android8hardware11hidl_stringC1EPKc@plt>
<_ZN7android8hardware11hidl_stringC1EPKc@plt>
<_ZN7android8hardware11hidl_stringC1EPKc@plt>
<_ZN7android8hardware11hidl_stringC1EPKc@plt>
<_ZN7android8hardware11hidl_stringC1EPKc@plt>
<_ZN7android8hardware11hidl_stringC1EPKc@plt>
<_ZN7android8hardware11hidl_stringC1EPKc@plt>
<_ZN7android8hardware11hidl_stringC1EPKc@plt>
<_ZN7android8hardware11hidl_stringC1EPKc@plt>
<_ZN7android8hardware11hidl_stringC1EPKc@plt>
<_ZN7android8hardware11hidl_stringC1EPKc@plt>
<_ZN7android8hardware11hidl_stringC1EPKc@plt>
<_ZN7android8hardware11hidl_stringC1EPKc@plt>
<_ZN7android8hardware11hidl_stringC1EPKc@plt>
<_ZN7android8hardware11hidl_stringC1ERKNSt3__112basic_stringIcNS2_11char_traitsIcEENS2_9allocatorIcEEEE@plt>
<_ZN7android8hardware11hidl_stringC1ERKNSt3__112basic_stringIcNS2_11char_traitsIcEENS2_9allocatorIcEEEE@plt>
<_ZN7android8hardware11hidl_stringC1ERKNSt3__112basic_stringIcNS2_11char_traitsIcEENS2_9allocatorIcEEEE@plt>
<_ZN7android8hardware11hidl_stringC1ERKNSt3__112basic_stringIcNS2_11char_traitsIcEENS2_9allocatorIcEEEE@plt>
<_ZN7android8hardware11hidl_stringC1ERKNSt3__112basic_stringIcNS2_11char_traitsIcEENS2_9allocatorIcEEEE@plt>
<_ZN7android8hardware11hidl_stringC1ERKNSt3__112basic_stringIcNS2_11char_traitsIcEENS2_9allocatorIcEEEE@plt>
<_ZN7android8hardware11hidl_stringC1ERKNSt3__112basic_stringIcNS2_11char_traitsIcEENS2_9allocatorIcEEEE@plt>
<_ZN7android8hardware11hidl_stringC1ERKNSt3__112basic_stringIcNS2_11char_traitsIcEENS2_9allocatorIcEEEE@plt>
<_ZN7android8hardware11hidl_stringC1ERKNSt3__112basic_stringIcNS2_11char_traitsIcEENS2_9allocatorIcEEEE@plt>
<_ZN7android8hardware11hidl_stringC1ERKNSt3__112basic_stringIcNS2_11char_traitsIcEENS2_9allocatorIcEEEE@plt>
<_ZN7android8hardware11hidl_stringC1ERKNSt3__112basic_stringIcNS2_11char_traitsIcEENS2_9allocatorIcEEEE@plt>
<_ZN7android8hardware11hidl_stringC1ERKNSt3__112basic_stringIcNS2_11char_traitsIcEENS2_9allocatorIcEEEE@plt>
<_ZN7android8hardware11hidl_stringC1ERKNSt3__112basic_stringIcNS2_11char_traitsIcEENS2_9allocatorIcEEEE@plt>
<_ZN7android8hardware11hidl_stringC1ERKNSt3__112basic_stringIcNS2_11char_traitsIcEENS2_9allocatorIcEEEE@plt>
<_ZN7android8hardware11hidl_stringC1ERKNSt3__112basic_stringIcNS2_11char_traitsIcEENS2_9allocatorIcEEEE@plt>
<_ZN7android8hardware11hidl_stringC1ERKNSt3__112basic_stringIcNS2_11char_traitsIcEENS2_9allocatorIcEEEE@plt>
<_ZN7android8hardware11hidl_stringC1ERKNSt3__112basic_stringIcNS2_11char_traitsIcEENS2_9allocatorIcEEEE@plt>
<_ZN7android8hardware11hidl_stringC1ERKNSt3__112basic_stringIcNS2_11char_traitsIcEENS2_9allocatorIcEEEE@plt>
<_ZN7android8hardware11hidl_stringC1ERKNSt3__112basic_stringIcNS2_11char_traitsIcEENS2_9allocatorIcEEEE@plt>
<_ZN7android8hardware11hidl_stringC1ERKNSt3__112basic_stringIcNS2_11char_traitsIcEENS2_9allocatorIcEEEE@plt>
<_ZN7android8hardware11hidl_stringC1ERKNSt3__112basic_stringIcNS2_11char_traitsIcEENS2_9allocatorIcEEEE@plt>
<_ZN7android8hardware11hidl_stringC1ERKNSt3__112basic_stringIcNS2_11char_traitsIcEENS2_9allocatorIcEEEE@plt>
<_ZN7android8hardware11hidl_stringC1ERKNSt3__112basic_stringIcNS2_11char_traitsIcEENS2_9allocatorIcEEEE@plt>
<_ZN7android8hardware11hidl_stringC1ERKNSt3__112basic_stringIcNS2_11char_traitsIcEENS2_9allocatorIcEEEE@plt>
<_ZN7android8hardware11hidl_stringC1ERKNSt3__112basic_stringIcNS2_11char_traitsIcEENS2_9allocatorIcEEEE@plt>
<_ZN7android8hardware11hidl_stringC1ERKNSt3__112basic_stringIcNS2_11char_traitsIcEENS2_9allocatorIcEEEE@plt>
<_ZNSt3__112basic_stringIcNS_11char_traitsIcEENS_9allocatorIcEEEC1ERKS5_@plt>
<_ZNSt3__112basic_stringIcNS_11char_traitsIcEENS_9allocatorIcEEEC1ERKS5_@plt>
<_ZNSt3__112basic_stringIcNS_11char_traitsIcEENS_9allocatorIcEEEC1ERKS5_@plt>
<_ZNSt3__112basic_stringIcNS_11char_traitsIcEENS_9allocatorIcEEEC1ERKS5_@plt>
<_ZN7android8hardware11hidl_stringC1EPKc@plt>
<_ZN7android8hardware11hidl_stringC1EPKc@plt>
<_ZN7android8hardware11hidl_stringC1EPKc@plt>
<_ZN7android8hardware11hidl_stringC1EPKc@plt>
<_ZN7android8hardware11hidl_stringC1EPKc@plt>
<_ZN7android8hardware11hidl_stringC1EPKc@plt>
<_ZN7android8hardware11hidl_stringC1EPKc@plt>
<_ZN7android8hardware11hidl_stringC1EPKc@plt>
<_ZN7android8hardware11hidl_stringC1EPKc@plt>
<_ZN7android8hardware11hidl_stringC1EPKc@plt>
<_ZN7android8hardware11hidl_stringC1EPKc@plt>
<_ZN7android8hardware11hidl_stringC1EPKc@plt>
<_ZN7android8hardware11hidl_stringC1EPKc@plt>
<_ZN7android8hardware11hidl_stringC1EPKc@plt>
<_ZN7android8hardware11hidl_stringC1EPKc@plt>
<_ZN7android8hardware11hidl_stringC1EPKc@plt>
<_ZN7android8hardware11hidl_stringC1EPKc@plt>
<_ZN7android8hardware11hidl_stringC1EPKc@plt>
<_ZN7android8hardware11hidl_stringC1EPKc@plt>
<_ZN7android8hardware11hidl_stringC1EPKc@plt>
<_ZN7android8hardware11hidl_stringC1EPKc@plt>
<_ZN7android8hardware11hidl_stringC1ERKNSt3__112basic_stringIcNS2_11char_traitsIcEENS2_9allocatorIcEEEE@plt>
<_ZN7android8hardware11hidl_stringC1ERKNSt3__112basic_stringIcNS2_11char_traitsIcEENS2_9allocatorIcEEEE@plt>
<_ZN7android8hardware11hidl_stringC1ERKNSt3__112basic_stringIcNS2_11char_traitsIcEENS2_9allocatorIcEEEE@plt>
<_ZN7android8hardware11hidl_stringC1ERKNSt3__112basic_stringIcNS2_11char_traitsIcEENS2_9allocatorIcEEEE@plt>
<_ZN7android8hardware11hidl_stringC1ERKNSt3__112basic_stringIcNS2_11char_traitsIcEENS2_9allocatorIcEEEE@plt>
<_ZN7android8hardware11hidl_stringC1ERKNSt3__112basic_stringIcNS2_11char_traitsIcEENS2_9allocatorIcEEEE@plt>
<_ZN7android8hardware11hidl_stringC1ERKNSt3__112basic_stringIcNS2_11char_traitsIcEENS2_9allocatorIcEEEE@plt>
<_ZN7android8hardware11hidl_stringC1ERKNSt3__112basic_stringIcNS2_11char_traitsIcEENS2_9allocatorIcEEEE@plt>
<_ZN7android8hardware11hidl_stringC1ERKNSt3__112basic_stringIcNS2_11char_traitsIcEENS2_9allocatorIcEEEE@plt>
<_ZN7android8hardware11hidl_stringC1ERKNSt3__112basic_stringIcNS2_11char_traitsIcEENS2_9allocatorIcEEEE@plt>
<_ZN7android8hardware11hidl_stringC1ERKNSt3__112basic_stringIcNS2_11char_traitsIcEENS2_9allocatorIcEEEE@plt>
<_ZN7android8hardware11hidl_stringC1ERKNSt3__112basic_stringIcNS2_11char_traitsIcEENS2_9allocatorIcEEEE@plt>
<_ZN7android8hardware11hidl_stringC1ERKNSt3__112basic_stringIcNS2_11char_traitsIcEENS2_9allocatorIcEEEE@plt>
<_ZN7android8hardware11hidl_stringC1ERKNSt3__112basic_stringIcNS2_11char_traitsIcEENS2_9allocatorIcEEEE@plt>
<_ZN7android8hardware11hidl_stringC1ERKNSt3__112basic_stringIcNS2_11char_traitsIcEENS2_9allocatorIcEEEE@plt>
<_ZN7android8hardware11hidl_stringC1ERKNSt3__112basic_stringIcNS2_11char_traitsIcEENS2_9allocatorIcEEEE@plt>
<_ZN7android8hardware11hidl_stringC1ERKNSt3__112basic_stringIcNS2_11char_traitsIcEENS2_9allocatorIcEEEE@plt>
<_ZN7android8hardware11hidl_stringC1ERKNSt3__112basic_stringIcNS2_11char_traitsIcEENS2_9allocatorIcEEEE@plt>
<_ZN7android8hardware11hidl_stringC1ERKNSt3__112basic_stringIcNS2_11char_traitsIcEENS2_9allocatorIcEEEE@plt>
<_ZN7android8hardware11hidl_stringC1ERKNSt3__112basic_stringIcNS2_11char_traitsIcEENS2_9allocatorIcEEEE@plt>
<_ZN7android8hardware11hidl_stringC1ERKNSt3__112basic_stringIcNS2_11char_traitsIcEENS2_9allocatorIcEEEE@plt>
<_ZN7android8hardware11hidl_stringC1ERKNSt3__112basic_stringIcNS2_11char_traitsIcEENS2_9allocatorIcEEEE@plt>
<_ZN7android8hardware11hidl_stringC1ERKNSt3__112basic_stringIcNS2_11char_traitsIcEENS2_9allocatorIcEEEE@plt>
<_ZN7android8hardware11hidl_stringC1ERKNSt3__112basic_stringIcNS2_11char_traitsIcEENS2_9allocatorIcEEEE@plt>
<_ZN7android8hardware11hidl_stringC1ERKNSt3__112basic_stringIcNS2_11char_traitsIcEENS2_9allocatorIcEEEE@plt>
<_ZN7android8hardware11hidl_stringC1ERKNSt3__112basic_stringIcNS2_11char_traitsIcEENS2_9allocatorIcEEEE@plt>
<_ZNSt3__112basic_stringIcNS_11char_traitsIcEENS_9allocatorIcEEEC1ERKS5_@plt>
<_ZNSt3__112basic_stringIcNS_11char_traitsIcEENS_9allocatorIcEEEC1ERKS5_@plt>
<_ZNSt3__112basic_stringIcNS_11char_traitsIcEENS_9allocatorIcEEEC1ERKS5_@plt>
<_ZNSt3__112basic_stringIcNS_11char_traitsIcEENS_9allocatorIcEEEC1ERKS5_@plt>
<_ZN7android8hardware11hidl_stringD1Ev@plt>
<_ZN6ChiLog9LogSystemEPKcS1_S1_S1_iS1_z@plt>
<_ZN6ChiLog9LogSystemEPKcS1_S1_S1_iS1_z@plt>
<_ZN15ChiFeature2Base10InitializeEP26ChiFeature2CreateInputInfo@plt>
<_ZN6ChiLog9LogSystemEPKcS1_S1_S1_iS1_z@plt>

0x168e0 <_ZN25ChiFeature2DerivedOffline7DestroyEv+0x38>
0x2c000 <_ZN25ChiFeature2DerivedOfflineD0Ev+0x4>
<_ZN25ChiFeature2DerivedOffline7DestroyEv+0x3c>
<_ZN25ChiFeature2DerivedOffline7DestroyEv+0x28>

<_ZN18ChiFeature2GenericD2Ev@plt>

0x2c000 <_ZN25ChiFeature2DerivedOffline18OnInitializeStreamEPK23ChiTargetPortDescriptorPK25ChiFeature2PortDescriptorPN15ChiFeature2Base20ChiFeatureStreamDataE+0x74>
<_ZN25ChiFeature2DerivedOffline18OnInitializeStreamEPK23ChiTargetPortDescriptorPK25ChiFeature2PortDescriptorPN15ChiFeature2Base20ChiFeatureStreamDataE+0x2e0>
0x169a0 <_ZN25ChiFeature2DerivedOffline18OnInitializeStreamEPK23ChiTargetPortDescriptorPK25ChiFeature2PortDescriptorPN15ChiFeature2Base20ChiFeatureStreamDataE+0x60>
0x169a0 <_ZN25ChiFeature2DerivedOffline18OnInitializeStreamEPK23ChiTargetPortDescriptorPK25ChiFeature2PortDescriptorPN15ChiFeature2Base20ChiFeatureStreamDataE+0x60>
<_ZN25ChiFeature2DerivedOffline18OnInitializeStreamEPK23ChiTargetPortDescriptorPK25ChiFeature2PortDescriptorPN15ChiFeature2Base20ChiFeatureStreamDataE+0x60>
<_ZN25ChiFeature2DerivedOffline18OnInitializeStreamEPK23ChiTargetPortDescriptorPK25ChiFeature2PortDescriptorPN15ChiFeature2Base20ChiFeatureStreamDataE+0x90>
<_ZN25ChiFeature2DerivedOffline18OnInitializeStreamEPK23ChiTargetPortDescriptorPK25ChiFeature2PortDescriptorPN15ChiFeature2Base20ChiFeatureStreamDataE+0x314>
<_ZN15ChiFeature2Base18OnInitializeStreamEPK23ChiTargetPortDescriptorPK25ChiFeature2PortDescriptorPNS_20ChiFeatureStreamDataE@plt>
<_ZN25ChiFeature2DerivedOffline18OnInitializeStreamEPK23ChiTargetPortDescriptorPK25ChiFeature2PortDescriptorPN15ChiFeature2Base20ChiFeatureStreamDataE+0xb0>
<_ZN25ChiFeature2DerivedOffline18OnInitializeStreamEPK23ChiTargetPortDescriptorPK25ChiFeature2PortDescriptorPN15ChiFeature2Base20ChiFeatureStreamDataE+0xfc>
<_ZN25ChiFeature2DerivedOffline18OnInitializeStreamEPK23ChiTargetPortDescriptorPK25ChiFeature2PortDescriptorPN15ChiFeature2Base20ChiFeatureStreamDataE+0x2c8>
<_ZN25ChiFeature2DerivedOffline18OnInitializeStreamEPK23ChiTargetPortDescriptorPK25ChiFeature2PortDescriptorPN15ChiFeature2Base20ChiFeatureStreamDataE+0x120>
<_ZN25ChiFeature2DerivedOffline18OnInitializeStreamEPK23ChiTargetPortDescriptorPK25ChiFeature2PortDescriptorPN15ChiFeature2Base20ChiFeatureStreamDataE+0xac>
0x169ec <_ZN25ChiFeature2DerivedOffline18OnInitializeStreamEPK23ChiTargetPortDescriptorPK25ChiFeature2PortDescriptorPN15ChiFeature2Base20ChiFeatureStreamDataE+0xac>
<_ZN25ChiFeature2DerivedOffline18OnInitializeStreamEPK23ChiTargetPortDescriptorPK25ChiFeature2PortDescriptorPN15ChiFeature2Base20ChiFeatureStreamDataE+0x148>
<_ZN25ChiFeature2DerivedOffline18OnInitializeStreamEPK23ChiTargetPortDescriptorPK25ChiFeature2PortDescriptorPN15ChiFeature2Base20ChiFeatureStreamDataE+0xbc>
<_ZN25ChiFeature2DerivedOffline18OnInitializeStreamEPK23ChiTargetPortDescriptorPK25ChiFeature2PortDescriptorPN15ChiFeature2Base20ChiFeatureStreamDataE+0xdc>
<_ZN25ChiFeature2DerivedOffline18OnInitializeStreamEPK23ChiTargetPortDescriptorPK25ChiFeature2PortDescriptorPN15ChiFeature2Base20ChiFeatureStreamDataE+0x1c0>
<_ZN25ChiFeature2DerivedOffline18OnInitializeStreamEPK23ChiTargetPortDescriptorPK25ChiFeature2PortDescriptorPN15ChiFeature2Base20ChiFeatureStreamDataE+0x338>
<_ZN25ChiFeature2DerivedOffline18OnInitializeStreamEPK23ChiTargetPortDescriptorPK25ChiFeature2PortDescriptorPN15ChiFeature2Base20ChiFeatureStreamDataE+0x1ac>
0x2c000 <_ZN25ChiFeature2DerivedOffline18OnInitializeStreamEPK23ChiTargetPortDescriptorPK25ChiFeature2PortDescriptorPN15ChiFeature2Base20ChiFeatureStreamDataE+0x1ec>
<_ZN25ChiFeature2DerivedOffline18OnInitializeStreamEPK23ChiTargetPortDescriptorPK25ChiFeature2PortDescriptorPN15ChiFeature2Base20ChiFeatureStreamDataE+0x1b0>
0x2c000 <_ZN25ChiFeature2DerivedOffline18OnInitializeStreamEPK23ChiTargetPortDescriptorPK25ChiFeature2PortDescriptorPN15ChiFeature2Base20ChiFeatureStreamDataE+0x218>
#5, 0x16c08 <_ZN25ChiFeature2DerivedOffline18OnInitializeStreamEPK23ChiTargetPortDescriptorPK25ChiFeature2PortDescriptorPN15ChiFeature2Base20ChiFeatureStreamDataE+0x2c8>
0x2c000 <_ZN25ChiFeature2DerivedOffline18OnInitializeStreamEPK23ChiTargetPortDescriptorPK25ChiFeature2PortDescriptorPN15ChiFeature2Base20ChiFeatureStreamDataE+0x228>
0xa000 <_ZN25ChiFeature2DerivedOffline18OnInitializeStreamEPK23ChiTargetPortDescriptorPK25ChiFeature2PortDescriptorPN15ChiFeature2Base20ChiFeatureStreamDataE+0x1a4>
<_ZN25ChiFeature2DerivedOffline18OnInitializeStreamEPK23ChiTargetPortDescriptorPK25ChiFeature2PortDescriptorPN15ChiFeature2Base20ChiFeatureStreamDataE+0x258>
0xd000 <_ZN25ChiFeature2DerivedOffline18OnInitializeStreamEPK23ChiTargetPortDescriptorPK25ChiFeature2PortDescriptorPN15ChiFeature2Base20ChiFeatureStreamDataE+0x1e4>
0xb000 <_ZN25ChiFeature2DerivedOffline18OnInitializeStreamEPK23ChiTargetPortDescriptorPK25ChiFeature2PortDescriptorPN15ChiFeature2Base20ChiFeatureStreamDataE+0x1e4>
0xb000 <_ZN25ChiFeature2DerivedOffline18OnInitializeStreamEPK23ChiTargetPortDescriptorPK25ChiFeature2PortDescriptorPN15ChiFeature2Base20ChiFeatureStreamDataE+0x1e8>
0xc000 <_ZN25ChiFeature2DerivedOffline18OnInitializeStreamEPK23ChiTargetPortDescriptorPK25ChiFeature2PortDescriptorPN15ChiFeature2Base20ChiFeatureStreamDataE+0x254>
0xb000 <_ZN25ChiFeature2DerivedOffline18OnInitializeStreamEPK23ChiTargetPortDescriptorPK25ChiFeature2PortDescriptorPN15ChiFeature2Base20ChiFeatureStreamDataE+0x254>
0xa000 <_ZN25ChiFeature2DerivedOffline18OnInitializeStreamEPK23ChiTargetPortDescriptorPK25ChiFeature2PortDescriptorPN15ChiFeature2Base20ChiFeatureStreamDataE+0x26c>
0xb000 <_ZN25ChiFeature2DerivedOffline18OnInitializeStreamEPK23ChiTargetPortDescriptorPK25ChiFeature2PortDescriptorPN15ChiFeature2Base20ChiFeatureStreamDataE+0x278>
<_ZN6ChiLog9LogSystemEPKcS1_S1_S1_iS1_z@plt>
0x2c000 <_ZN25ChiFeature2DerivedOffline18OnInitializeStreamEPK23ChiTargetPortDescriptorPK25ChiFeature2PortDescriptorPN15ChiFeature2Base20ChiFeatureStreamDataE+0x354>
0x16980 <_ZN25ChiFeature2DerivedOffline18OnInitializeStreamEPK23ChiTargetPortDescriptorPK25ChiFeature2PortDescriptorPN15ChiFeature2Base20ChiFeatureStreamDataE+0x40>
<_ZN25ChiFeature2DerivedOffline18OnInitializeStreamEPK23ChiTargetPortDescriptorPK25ChiFeature2PortDescriptorPN15ChiFeature2Base20ChiFeatureStreamDataE+0x60>
<_ZN25ChiFeature2DerivedOffline18OnInitializeStreamEPK23ChiTargetPortDescriptorPK25ChiFeature2PortDescriptorPN15ChiFeature2Base20ChiFeatureStreamDataE+0x70>
<_ZN25ChiFeature2DerivedOffline18OnInitializeStreamEPK23ChiTargetPortDescriptorPK25ChiFeature2PortDescriptorPN15ChiFeature2Base20ChiFeatureStreamDataE+0x184>
<_ZN25ChiFeature2DerivedOffline18OnInitializeStreamEPK23ChiTargetPortDescriptorPK25ChiFeature2PortDescriptorPN15ChiFeature2Base20ChiFeatureStreamDataE+0x394>
<_ZN25ChiFeature2DerivedOffline18OnInitializeStreamEPK23ChiTargetPortDescriptorPK25ChiFeature2PortDescriptorPN15ChiFeature2Base20ChiFeatureStreamDataE+0x464>
0x2c000 <_ZN25ChiFeature2DerivedOffline18OnInitializeStreamEPK23ChiTargetPortDescriptorPK25ChiFeature2PortDescriptorPN15ChiFeature2Base20ChiFeatureStreamDataE+0x3f0>
<_ZN25ChiFeature2DerivedOffline18OnInitializeStreamEPK23ChiTargetPortDescriptorPK25ChiFeature2PortDescriptorPN15ChiFeature2Base20ChiFeatureStreamDataE+0x3d8>
<_ZN25ChiFeature2DerivedOffline18OnInitializeStreamEPK23ChiTargetPortDescriptorPK25ChiFeature2PortDescriptorPN15ChiFeature2Base20ChiFeatureStreamDataE+0x418>
0x16d90 <_ZN25ChiFeature2DerivedOffline18OnInitializeStreamEPK23ChiTargetPortDescriptorPK25ChiFeature2PortDescriptorPN15ChiFeature2Base20ChiFeatureStreamDataE+0x450>
<_ZN25ChiFeature2DerivedOffline18OnInitializeStreamEPK23ChiTargetPortDescriptorPK25ChiFeature2PortDescriptorPN15ChiFeature2Base20ChiFeatureStreamDataE+0x474>
<_ZN25ChiFeature2DerivedOffline18OnInitializeStreamEPK23ChiTargetPortDescriptorPK25ChiFeature2PortDescriptorPN15ChiFeature2Base20ChiFeatureStreamDataE+0x454>
0x2c000 <_ZN25ChiFeature2DerivedOffline18OnInitializeStreamEPK23ChiTargetPortDescriptorPK25ChiFeature2PortDescriptorPN15ChiFeature2Base20ChiFeatureStreamDataE+0x458>
<_ZN25ChiFeature2DerivedOffline18OnInitializeStreamEPK23ChiTargetPortDescriptorPK25ChiFeature2PortDescriptorPN15ChiFeature2Base20ChiFeatureStreamDataE+0x3b4>
0x2c000 <_ZN25ChiFeature2DerivedOffline18OnInitializeStreamEPK23ChiTargetPortDescriptorPK25ChiFeature2PortDescriptorPN15ChiFeature2Base20ChiFeatureStreamDataE+0x490>
0x16cfc <_ZN25ChiFeature2DerivedOffline18OnInitializeStreamEPK23ChiTargetPortDescriptorPK25ChiFeature2PortDescriptorPN15ChiFeature2Base20ChiFeatureStreamDataE+0x3bc>
<_ZN25ChiFeature2DerivedOffline18OnInitializeStreamEPK23ChiTargetPortDescriptorPK25ChiFeature2PortDescriptorPN15ChiFeature2Base20ChiFeatureStreamDataE+0x3cc>

<_ZN18ChiFeature2GenericD2Ev@plt>
<_ZN25ChiFeature2DerivedOffline6CreateEP26ChiFeature2CreateInputInfo@plt>
0x16e74 <_ZN25ChiFeature2DerivedOfflineD2Ev+0x94>
<_ZN25ChiFeature2DerivedOfflineD2Ev+0x34>
0x16e4c <_ZN25ChiFeature2DerivedOfflineD2Ev+0x6c>
<_ZN25ChiFeature2DerivedOfflineD2Ev+0x6c>
0x16e74 <_ZN25ChiFeature2DerivedOfflineD2Ev+0x94>
<_ZN25ChiFeature2DerivedOfflineD2Ev+0x6c>
<_ZN25ChiFeature2DerivedOfflineD2Ev+0x48>
<_ZN25ChiFeature2DerivedOfflineD2Ev+0x94>
0x16e74 <_ZN25ChiFeature2DerivedOfflineD2Ev+0x94>
0x2d000 <_ZN25ChiFeature2DerivedOfflineD2Ev+0xcc>
0x2c000 <_ZN25ChiFeature2DerivedOfflineD2Ev+0x114>
0x16ef0 <_ZN25ChiFeature2DerivedOfflineD2Ev+0x110>
0x16ef4 <_ZN25ChiFeature2DerivedOfflineD2Ev+0x114>
0x16ef4 <_ZN25ChiFeature2DerivedOfflineD2Ev+0x114>
<_ZN25ChiFeature2DerivedOfflineD2Ev+0x114>
0x16fa4 <_ZN25ChiFeature2DerivedOfflineD2Ev+0x1c4>
0x16fa4 <_ZN25ChiFeature2DerivedOfflineD2Ev+0x1c4>
0x16fa4 <_ZN25ChiFeature2DerivedOfflineD2Ev+0x1c4>
<_ZN25ChiFeature2DerivedOfflineD2Ev+0x278>
#0, 0x16fa4 <_ZN25ChiFeature2DerivedOfflineD2Ev+0x1c4>
0x2c000 <_ZN25ChiFeature2DerivedOfflineD2Ev+0x174>
<_ZN25ChiFeature2DerivedOfflineD2Ev+0x178>
0xa000 <_ZN25ChiFeature2DerivedOfflineD2Ev+0x100>
0xd000 <_ZN25ChiFeature2DerivedOfflineD2Ev+0x128>
0xa000 <_ZN25ChiFeature2DerivedOfflineD2Ev+0x120>
0xb000 <_ZN25ChiFeature2DerivedOfflineD2Ev+0x128>
0xa000 <_ZN25ChiFeature2DerivedOfflineD2Ev+0x148>
0xc000 <_ZN25ChiFeature2DerivedOfflineD2Ev+0x16c>
0x9000 <_ZN25ChiFeature2DerivedOfflineD2Ev+0x168>
0xb000 <_ZN25ChiFeature2DerivedOfflineD2Ev+0x174>
0x9000 <_ZN25ChiFeature2DerivedOfflineD2Ev+0x170>
<_ZN6ChiLog9LogSystemEPKcS1_S1_S1_iS1_z@plt>
#0, 0x17054 <_ZN25ChiFeature2DerivedOfflineD2Ev+0x274>
0x2c000 <_ZN25ChiFeature2DerivedOfflineD2Ev+0x224>
0xa000 <_ZN25ChiFeature2DerivedOfflineD2Ev+0x1a0>
<_ZN25ChiFeature2DerivedOfflineD2Ev+0x22c>
0xd000 <_ZN25ChiFeature2DerivedOfflineD2Ev+0x1d8>
0xc000 <_ZN25ChiFeature2DerivedOfflineD2Ev+0x1d8>
0xb000 <_ZN25ChiFeature2DerivedOfflineD2Ev+0x1d8>
0xc000 <_ZN25ChiFeature2DerivedOfflineD2Ev+0x214>
0x9000 <_ZN25ChiFeature2DerivedOfflineD2Ev+0x210>
0xb000 <_ZN25ChiFeature2DerivedOfflineD2Ev+0x21c>
0xa000 <_ZN25ChiFeature2DerivedOfflineD2Ev+0x21c>
<_ZN6ChiLog9LogSystemEPKcS1_S1_S1_iS1_z@plt>
0x170bc <_ZN25ChiFeature2DerivedOfflineD2Ev+0x2dc>
0xd000 <_ZN25ChiFeature2DerivedOfflineD2Ev+0x270>
0xb000 <_ZN25ChiFeature2DerivedOfflineD2Ev+0x26c>
0x2a000 <_ZN25ChiFeature2DerivedOfflineD2Ev+0x2ec>
0x2a000 <_ZN25ChiFeature2DerivedOfflineD2Ev+0x2f0>
0x2a000 <_ZN25ChiFeature2DerivedOfflineD2Ev+0x2fc>
0x2a000 <_ZN25ChiFeature2DerivedOfflineD2Ev+0x304>

0x1952c <_ZN5Mutex10InitializeEv+0x3c>
<_ZN5Mutex10InitializeEv+0x74>
0x1955c <_ZN5Mutex10InitializeEv+0x6c>
0x1955c <_ZN5Mutex10InitializeEv+0x6c>
<_ZN5Mutex10InitializeEv+0x9c>

<_ZN5Mutex7DestroyEv+0x24>




0x19668 <_ZN5Mutex15GetNativeHandleEv+0x68>
0x19660 <_ZN5Mutex15GetNativeHandleEv+0x60>
<_ZN5Mutex15GetNativeHandleEv+0x68>

0x196a4 <_ZN9Condition10InitializeEv+0x2c>

<_ZN9Condition7DestroyEv+0x24>


<_ZN9Condition9TimedWaitEP15pthread_mutex_tj+0xf4>
<_ZN9Condition9TimedWaitEP15pthread_mutex_tj+0xf4>
<_ZN9Condition9TimedWaitEP15pthread_mutex_tj+0xf8>


0x1984c <_ZN9Condition9BroadcastEv+0x3c>


<_ZNSt3__15mutex4lockEv@plt>
<_ZN9Semaphore16NotifyAllThreadsEv+0xf0>
<_ZN9Semaphore16NotifyAllThreadsEv+0xd8>
0x2c000 <_ZN9Semaphore16NotifyAllThreadsEv+0x7c>
#1, 0x19940 <_ZN9Semaphore16NotifyAllThreadsEv+0xd8>
0x2c000 <_ZN9Semaphore16NotifyAllThreadsEv+0x8c>
0xb000 <_ZN9Semaphore16NotifyAllThreadsEv+0xc>
<_ZN9Semaphore16NotifyAllThreadsEv+0x98>
0xd000 <_ZN9Semaphore16NotifyAllThreadsEv+0x40>
0xb000 <_ZN9Semaphore16NotifyAllThreadsEv+0x3c>
0x9000 <_ZN9Semaphore16NotifyAllThreadsEv+0x38>
0xa000 <_ZN9Semaphore16NotifyAllThreadsEv+0x70>
0xc000 <_ZN9Semaphore16NotifyAllThreadsEv+0x80>
0x9000 <_ZN9Semaphore16NotifyAllThreadsEv+0x78>
0x9000 <_ZN9Semaphore16NotifyAllThreadsEv+0x7c>
<_ZN6ChiLog9LogSystemEPKcS1_S1_S1_iS1_z@plt>
<_ZNSt3__118condition_variable10notify_allEv@plt>
<_ZNSt3__15mutex6unlockEv@plt>

<_ZNSt3__15mutex4lockEv@plt>
0x2c000 <_ZN9Semaphore5ResetEv+0x60>
#3, 0x19a24 <_ZN9Semaphore5ResetEv+0xc4>
0x2c000 <_ZN9Semaphore5ResetEv+0x78>
0xb000 <_ZN9Semaphore16NotifyAllThreadsEv+0xf0>
<_ZN9Semaphore5ResetEv+0x84>
0xd000 <_ZN9Semaphore5ResetEv+0x2c>
0xa000 <_ZN9Semaphore5ResetEv+0x24>
0xc000 <_ZN9Semaphore5ResetEv+0x30>
0xb000 <_ZN9Semaphore5ResetEv+0x60>
0xd000 <_ZN9Semaphore5ResetEv+0x70>
0xc000 <_ZN9Semaphore5ResetEv+0x70>
0xa000 <_ZN9Semaphore5ResetEv+0x6c>
<_ZN6ChiLog9LogSystemEPKcS1_S1_S1_iS1_z@plt>
<_ZNSt3__118condition_variable10notify_allEv@plt>
<_ZNSt3__15mutex6unlockEv@plt>

<_ZNSt3__15mutex4lockEv@plt>
0x19a94 <_ZN9Semaphore16WaitForSemaphoreEv+0x54>
<_ZN9Semaphore16WaitForSemaphoreEv+0x250>
0xd000 <_ZN9Semaphore16WaitForSemaphoreEv+0x24>
0xd000 <_ZN9Semaphore16WaitForSemaphoreEv+0x28>
0x2c000 <_ZN9Semaphore16WaitForSemaphoreEv+0xac>
0xb000 <_ZN9Semaphore16WaitForSemaphoreEv+0x30>
0xa000 <_ZN9Semaphore16WaitForSemaphoreEv+0x38>
<_ZN9Semaphore16WaitForSemaphoreEv+0xe8>
0xb000 <_ZN9Semaphore16WaitForSemaphoreEv+0x80>
0xd000 <_ZN9Semaphore16WaitForSemaphoreEv+0x90>
0xb000 <_ZN9Semaphore16WaitForSemaphoreEv+0x8c>
<_ZN6ChiLog9LogSystemEPKcS1_S1_S1_iS1_z@plt>
0x19c78 <_ZN9Semaphore16WaitForSemaphoreEv+0x238>
<_ZNSt3__16chrono12steady_clock3nowEv@plt>
<_ZNSt3__16chrono12system_clock3nowEv@plt>
<_ZN9Semaphore16WaitForSemaphoreEv+0x130>
<_ZN9Semaphore16WaitForSemaphoreEv+0x28c>
<_ZN9Semaphore16WaitForSemaphoreEv+0x134>
<_ZN9Semaphore16WaitForSemaphoreEv+0x290>
<_ZNSt3__118condition_variable15__do_timed_waitERNS_11unique_lockINS_5mutexEEENS_6chrono10time_pointINS5_12system_clockENS5_8durationIxNS_5ratioILl1ELl1000000000EEEEEEE@plt>
<_ZNSt3__16chrono12steady_clock3nowEv@plt>
<_ZN9Semaphore16WaitForSemaphoreEv+0x288>
<_ZN9Semaphore16WaitForSemaphoreEv+0x1ac>
#3, 0x19b20 <_ZN9Semaphore16WaitForSemaphoreEv+0xe0>
0x2c000 <_ZN9Semaphore16WaitForSemaphoreEv+0x1a8>
<_ZN9Semaphore16WaitForSemaphoreEv+0xa4>
0xd000 <_ZN9Semaphore16WaitForSemaphoreEv+0x154>
0xc000 <_ZN9Semaphore16WaitForSemaphoreEv+0x154>
<_ZN9Semaphore16WaitForSemaphoreEv+0xa4>
#0, 0x19b20 <_ZN9Semaphore16WaitForSemaphoreEv+0xe0>
0x2c000 <_ZN9Semaphore16WaitForSemaphoreEv+0x1fc>
<_ZN9Semaphore16WaitForSemaphoreEv+0x1fc>
0xd000 <_ZN9Semaphore16WaitForSemaphoreEv+0x1a8>
0xc000 <_ZN9Semaphore16WaitForSemaphoreEv+0x1a8>
0xc000 <_ZN9Semaphore16WaitForSemaphoreEv+0x1dc>
0x9000 <_ZN9Semaphore16WaitForSemaphoreEv+0x1d8>
0xc000 <_ZN9Semaphore16WaitForSemaphoreEv+0x1e8>
<_ZN9Semaphore16WaitForSemaphoreEv+0xdc>
0x19c98 <_ZN9Semaphore16WaitForSemaphoreEv+0x258>
<_ZNSt3__15mutex6unlockEv@plt>
<_ZN9Semaphore16WaitForSemaphoreEv+0x294>

0x19d0c <_ZN9Semaphore7DestroyEv+0x34>
<_ZNSt3__118condition_variableD1Ev@plt>
<_ZNSt3__15mutexD1Ev@plt>
0x19d34 <_ZN9Semaphore7DestroyEv+0x5c>
<_ZN9Semaphore7DestroyEv+0x64>
<_ZN9Semaphore7DestroyEv+0x68>
<_ZN9Semaphore7DestroyEv+0xc8>
0x19d8c <_ZN9Semaphore7DestroyEv+0xb4>
<_ZN9Semaphore7DestroyEv+0xd0>
<_ZN9Semaphore7DestroyEv+0xd4>
<_ZN9Semaphore7DestroyEv+0x14c>
0x19de0 <_ZN9Semaphore7DestroyEv+0x108>
<_ZN9Semaphore7DestroyEv+0x15c>
<_ZN9Semaphore7DestroyEv+0x160>
0x19e08 <_ZN9Semaphore7DestroyEv+0x130>
<_ZN9Semaphore7DestroyEv+0x15c>
<_ZN9Semaphore7DestroyEv+0x160>
0xd000 <_ZN9Semaphore7DestroyEv+0x144>
<_ZN9Semaphore7DestroyEv+0x25c>
0x19fc8 <_ZN9Semaphore7DestroyEv+0x2f0>
0x19fc8 <_ZN9Semaphore7DestroyEv+0x2f0>
0x1a02c <_ZN9Semaphore7DestroyEv+0x354>
0x1a0b4 <_ZN9Semaphore7DestroyEv+0x3dc>
0x1a0d0 <_ZN9Semaphore7DestroyEv+0x3f8>
0x1a0e8 <_ZN9Semaphore7DestroyEv+0x410>
0x1a100 <_ZN9Semaphore7DestroyEv+0x428>
0x2c000 <_ZN9Semaphore7DestroyEv+0x494>
#6, 0x1a1d8 <_ZN9Semaphore7DestroyEv+0x500>
0x2c000 <_ZN9Semaphore7DestroyEv+0x4a8>
0xb000 <_ZN9Semaphore7DestroyEv+0x428>
<_ZN9Semaphore7DestroyEv+0x4bc>
0xd000 <_ZN9Semaphore7DestroyEv+0x45c>
0xc000 <_ZN9Semaphore7DestroyEv+0x45c>
0x9000 <_ZN9Semaphore7DestroyEv+0x454>
0x9000 <_ZN9Semaphore7DestroyEv+0x48c>
0xc000 <_ZN9Semaphore7DestroyEv+0x4a0>
0x9000 <_ZN9Semaphore7DestroyEv+0x498>
0xa000 <_ZN9Semaphore7DestroyEv+0x4a0>
<_ZN6ChiLog9LogSystemEPKcS1_S1_S1_iS1_z@plt>
0x1a1f0 <_ZN9Semaphore7DestroyEv+0x518>
0x1a2e4 <_ZN9Semaphore7DestroyEv+0x60c>
0x2c000 <_ZN9Semaphore7DestroyEv+0x58c>
#1, 0x1a2e4 <_ZN9Semaphore7DestroyEv+0x60c>
0x2c000 <_ZN9Semaphore7DestroyEv+0x59c>
0xb000 <_ZN9Semaphore7DestroyEv+0x51c>
<_ZN9Semaphore7DestroyEv+0x5bc>
0xd000 <_ZN9Semaphore7DestroyEv+0x558>
0xb000 <_ZN9Semaphore7DestroyEv+0x554>
0xb000 <_ZN9Semaphore7DestroyEv+0x558>
0xc000 <_ZN9Semaphore7DestroyEv+0x5a4>
0xa000 <_ZN9Semaphore7DestroyEv+0x5a0>
0xb000 <_ZN9Semaphore7DestroyEv+0x5a8>
0xb000 <_ZN9Semaphore7DestroyEv+0x5ac>
<_ZN6ChiLog9LogSystemEPKcS1_S1_S1_iS1_z@plt>
<_ZN15ExtensionModule11GetInstanceEv@plt>
<_ZN9Semaphore7DestroyEv+0x6a0>
<_ZN9Semaphore7DestroyEv+0x6a4>
0x1a488 <_ZN9Semaphore7DestroyEv+0x7b0>
<_ZN9Semaphore7DestroyEv+0x7b0>
0x2c000 <_ZN9Semaphore7DestroyEv+0x740>
#6, 0x1a480 <_ZN9Semaphore7DestroyEv+0x7a8>
0x2c000 <_ZN9Semaphore7DestroyEv+0x750>
0xb000 <_ZN9Semaphore7DestroyEv+0x6d0>
<_ZN9Semaphore7DestroyEv+0x764>
0xd000 <_ZN9Semaphore7DestroyEv+0x704>
0xc000 <_ZN9Semaphore7DestroyEv+0x704>
0xc000 <_ZN9Semaphore7DestroyEv+0x708>
0x9000 <_ZN9Semaphore7DestroyEv+0x734>
0xc000 <_ZN9Semaphore7DestroyEv+0x748>
0xc000 <_ZN9Semaphore7DestroyEv+0x74c>
0xc000 <_ZN9Semaphore7DestroyEv+0x750>
<_ZN6ChiLog9LogSystemEPKcS1_S1_S1_iS1_z@plt>
<_ZN9Semaphore7DestroyEv+0x7b4>
<_ZN9Semaphore7DestroyEv+0x7d8>
<_ZN15ExtensionModule11GetInstanceEv@plt>
<_ZN9Semaphore7DestroyEv+0x86c>
0x1a520 <_ZN9Semaphore7DestroyEv+0x848>
<_ZN9Semaphore7DestroyEv+0x870>
<_ZN15ExtensionModule11GetInstanceEv@plt>
<_ZN9Semaphore7DestroyEv+0x940>
0x1a5d0 <_ZN9Semaphore7DestroyEv+0x8f8>
<_ZN9Semaphore7DestroyEv+0x918>
<_ZN9Semaphore7DestroyEv+0x944>
0x1a770 <_ZN9Semaphore7DestroyEv+0xa98>
0x1a770 <_ZN9Semaphore7DestroyEv+0xa98>
0x2c000 <_ZN9Semaphore7DestroyEv+0x9d8>
<_ZN9Semaphore7DestroyEv+0xa94>
0x1a6e0 <_ZN9Semaphore7DestroyEv+0xa08>
0x1a770 <_ZN9Semaphore7DestroyEv+0xa98>
<_ZN9Semaphore7DestroyEv+0x9a4>
<_ZN9Semaphore7DestroyEv+0xac8>
0x1a73c <_ZN9Semaphore7DestroyEv+0xa64>
<_ZN9Semaphore7DestroyEv+0xacc>
<_ZN9Semaphore7DestroyEv+0xad0>
0x1a750 <_ZN9Semaphore7DestroyEv+0xa78>
<_ZN9Semaphore7DestroyEv+0xa78>
<_ZN9Semaphore7DestroyEv+0xa78>
<_ZN9Semaphore7DestroyEv+0x9f0>
0x1a6c8 <_ZN9Semaphore7DestroyEv+0x9f0>
<_ZN9Semaphore7DestroyEv+0x9e0>
<_ZN9Semaphore7DestroyEv+0x9f0>
<_ZN9Semaphore7DestroyEv+0xad4>
0x1a7b8 <_ZN9Semaphore7DestroyEv+0xae0>
0x2c000 <_ZN9Semaphore7DestroyEv+0xb78>
#6, 0x1a8cc <_ZN9Semaphore7DestroyEv+0xbf4>
0x2c000 <_ZN9Semaphore7DestroyEv+0xb8c>
0xb000 <_ZN9Semaphore7DestroyEv+0xb0c>
<_ZN9Semaphore7DestroyEv+0xba8>
0xd000 <_ZN9Semaphore7DestroyEv+0xb40>
0xc000 <_ZN9Semaphore7DestroyEv+0xb40>
0xa000 <_ZN9Semaphore7DestroyEv+0xb3c>
0x9000 <_ZN9Semaphore7DestroyEv+0xb78>
0xc000 <_ZN9Semaphore7DestroyEv+0xb8c>
0xa000 <_ZN9Semaphore7DestroyEv+0xb88>
0xb000 <_ZN9Semaphore7DestroyEv+0xb90>
<_ZN6ChiLog9LogSystemEPKcS1_S1_S1_iS1_z@plt>
0x1a980 <_ZN9Semaphore7DestroyEv+0xca8>
<_ZN9Semaphore7DestroyEv+0xcc0>
<_ZN9Semaphore7DestroyEv+0xcc0>
0x1a970 <_ZN9Semaphore7DestroyEv+0xc98>
0x1a970 <_ZN9Semaphore7DestroyEv+0xc98>
<_ZN9Semaphore7DestroyEv+0xcac>
<_ZN15ExtensionModule11GetInstanceEv@plt>
0x1aa18 <_ZN9Semaphore7DestroyEv+0xd40>
<_ZN9Semaphore7DestroyEv+0xd4c>
0x2c000 <_ZN9Semaphore7DestroyEv+0xd94>
#6, 0x1aad4 <_ZN9Semaphore7DestroyEv+0xdfc>
0x2c000 <_ZN9Semaphore7DestroyEv+0xda4>
0xb000 <_ZN9Semaphore7DestroyEv+0xd24>
<_ZN9Semaphore7DestroyEv+0xdb8>
0xd000 <_ZN9Semaphore7DestroyEv+0xd58>
0xd000 <_ZN9Semaphore7DestroyEv+0xd5c>
0xb000 <_ZN9Semaphore7DestroyEv+0xd58>
0x9000 <_ZN9Semaphore7DestroyEv+0xd88>
0xc000 <_ZN9Semaphore7DestroyEv+0xd9c>
0xb000 <_ZN9Semaphore7DestroyEv+0xd9c>
0xa000 <_ZN9Semaphore7DestroyEv+0xd9c>
<_ZN6ChiLog9LogSystemEPKcS1_S1_S1_iS1_z@plt>
<_ZN9Semaphore7DestroyEv+0xe24>
<_ZN15ExtensionModule11GetInstanceEv@plt>
0x1ab48 <_ZN9Semaphore7DestroyEv+0xe70>
<_ZN9Semaphore7DestroyEv+0xe78>
<_ZN9Semaphore7DestroyEv+0xe98>
<_ZN9Semaphore7DestroyEv+0xeb8>
<_ZN15ExtensionModule11GetInstanceEv@plt>
<_ZN9Semaphore7DestroyEv+0xfa8>
<_ZN15ExtensionModule11GetInstanceEv@plt>
<_ZN9Semaphore7DestroyEv+0xf38>
0x1ac10 <_ZN9Semaphore7DestroyEv+0xf38>
0x1ac64 <_ZN9Semaphore7DestroyEv+0xf8c>
<_ZN9Semaphore7DestroyEv+0xf64>
<_ZN9Semaphore7DestroyEv+0xf7c>
<_ZN15ExtensionModule11GetInstanceEv@plt>
<_ZN15ExtensionModule18GetBufferAllocatorEP9ChiStreamPPv@plt>
<_ZN9Semaphore7DestroyEv+0xf40>
0x1ade0 <_ZN9Semaphore7DestroyEv+0x1108>
<_ZN9Semaphore7DestroyEv+0xfe4>
0x1ade0 <_ZN9Semaphore7DestroyEv+0x1108>
<_ZN9Semaphore7DestroyEv+0xfdc>
<_ZN9Semaphore7DestroyEv+0xffc>
<_ZN9Semaphore7DestroyEv+0xfdc>
<_ZN9Semaphore7DestroyEv+0x1024>
0x1ad18 <_ZN9Semaphore7DestroyEv+0x1040>
<_ZN9Semaphore7DestroyEv+0x1014>
<_ZN9Semaphore7DestroyEv+0x1040>
0x1acf8 <_ZN9Semaphore7DestroyEv+0x1020>
0x1adb0 <_ZN9Semaphore7DestroyEv+0x10d8>
0x1ade0 <_ZN9Semaphore7DestroyEv+0x1108>
0x1ad74 <_ZN9Semaphore7DestroyEv+0x109c>
0x1ad64 <_ZN9Semaphore7DestroyEv+0x108c>
<_ZN9Semaphore7DestroyEv+0x1138>
<_ZN9Semaphore7DestroyEv+0x110c>
<_ZN9Semaphore7DestroyEv+0x10b8>
0x1adfc <_ZN9Semaphore7DestroyEv+0x1124>
<_ZN9Semaphore7DestroyEv+0x1098>
<_ZN9Semaphore7DestroyEv+0x10c8>
0x1ad70 <_ZN9Semaphore7DestroyEv+0x1098>
0x1ad64 <_ZN9Semaphore7DestroyEv+0x108c>
<_ZN9Semaphore7DestroyEv+0x1064>
<_ZN9Semaphore7DestroyEv+0x1138>
0x1ad28 <_ZN9Semaphore7DestroyEv+0x1050>
0x1ad64 <_ZN9Semaphore7DestroyEv+0x108c>
<_ZN9Semaphore7DestroyEv+0x1064>
0x1ae38 <_ZN9Semaphore7DestroyEv+0x1160>
<_ZN9Semaphore7DestroyEv+0x1338>
<_ZN9Semaphore7DestroyEv+0x119c>
<_ZN9Semaphore7DestroyEv+0x1338>
0x1b010 <_ZN9Semaphore7DestroyEv+0x1338>
<_ZN9Semaphore7DestroyEv+0x11c8>
0x1aec8 <_ZN9Semaphore7DestroyEv+0x11f0>
0x1ae54 <_ZN9Semaphore7DestroyEv+0x117c>
<_ZN9Semaphore7DestroyEv+0x11f0>
0x1aedc <_ZN9Semaphore7DestroyEv+0x1204>
0x1aedc <_ZN9Semaphore7DestroyEv+0x1204>
<_ZN9Semaphore7DestroyEv+0x1190>
<_ZN9Semaphore7DestroyEv+0x1244>
<_ZN9Semaphore7DestroyEv+0x12e8>
<_ZN9Semaphore7DestroyEv+0x1274>
0x1af00 <_ZN9Semaphore7DestroyEv+0x1228>
<_ZN9Semaphore7DestroyEv+0x127c>
<_ZN9Semaphore7DestroyEv+0x1280>
0x1af30 <_ZN9Semaphore7DestroyEv+0x1258>
<_ZN9Semaphore7DestroyEv+0x12dc>
<_ZN9Semaphore7DestroyEv+0x12e0>
<_ZN9Semaphore7DestroyEv+0x1288>
0x1af84 <_ZN9Semaphore7DestroyEv+0x12ac>
<_ZN9Semaphore7DestroyEv+0x12cc>
<_ZN9Semaphore7DestroyEv+0x12d0>
<_ZN9Semaphore7DestroyEv+0x1338>
0x1afe4 <_ZN9Semaphore7DestroyEv+0x130c>
<_ZN9Semaphore7DestroyEv+0x132c>
<_ZN9Semaphore7DestroyEv+0x1330>
<_ZN9Semaphore7DestroyEv+0x1350>
<_ZN9Semaphore7DestroyEv+0x140c>
<_ZN9Semaphore7DestroyEv+0x139c>
<_ZN15ExtensionModule11GetInstanceEv@plt>
<_ZN9Semaphore7DestroyEv+0xfa8>
0x1b1bc <_ZN9Semaphore7DestroyEv+0x14e4>
<_ZN9Semaphore7DestroyEv+0x13e0>
<_ZN9Semaphore7DestroyEv+0x13e0>
<_ZN9Semaphore7DestroyEv+0x13e0>
<_ZN9Semaphore7DestroyEv+0x141c>
<_ZN9Semaphore7DestroyEv+0x141c>
<_ZN9Semaphore7DestroyEv+0x141c>
<_ZN9Semaphore7DestroyEv+0x141c>
0x2c000 <_ZN9Semaphore7DestroyEv+0x1450>
#0, 0x1b104 <_ZN9Semaphore7DestroyEv+0x142c>
0x2c000 <_ZN9Semaphore7DestroyEv+0x1470>
0xb000 <_ZN9Semaphore7DestroyEv+0x13f0>
<_ZN9Semaphore7DestroyEv+0x148c>
0xd000 <_ZN9Semaphore7DestroyEv+0x1428>
0xc000 <_ZN9Semaphore7DestroyEv+0x1428>
0xb000 <_ZN9Semaphore7DestroyEv+0x1428>
0x9000 <_ZN9Semaphore7DestroyEv+0x1468>
0xc000 <_ZN9Semaphore7DestroyEv+0x1478>
0xb000 <_ZN9Semaphore7DestroyEv+0x147c>
0xa000 <_ZN9Semaphore7DestroyEv+0x147c>
<_ZN6ChiLog9LogSystemEPKcS1_S1_S1_iS1_z@plt>
0x2c000 <_ZN9Semaphore7DestroyEv+0x1528>
#0, 0x1b0f4 <_ZN9Semaphore7DestroyEv+0x141c>
0x2c000 <_ZN9Semaphore7DestroyEv+0x1538>
<_ZN9Semaphore7DestroyEv+0x1550>
0xb000 <_ZN9Semaphore7DestroyEv+0x14c8>
0xd000 <_ZN9Semaphore7DestroyEv+0x14f0>
0xb000 <_ZN9Semaphore7DestroyEv+0x14ec>
0xb000 <_ZN9Semaphore7DestroyEv+0x14f0>
0xb000 <_ZN9Semaphore7DestroyEv+0x1510>
0x9000 <_ZN9Semaphore7DestroyEv+0x1534>
0xc000 <_ZN9Semaphore7DestroyEv+0x1544>
0xb000 <_ZN9Semaphore7DestroyEv+0x1548>
0x9000 <_ZN9Semaphore7DestroyEv+0x1544>
<_ZN6ChiLog9LogSystemEPKcS1_S1_S1_iS1_z@plt>
0x1b314 <_ZN9Semaphore7DestroyEv+0x163c>
<_ZN9Semaphore7DestroyEv+0x1608>
<_ZN9Semaphore7DestroyEv+0x1640>
<_ZN9Semaphore7DestroyEv+0x1640>
<_ZN9Semaphore7DestroyEv+0x1610>
<_ZN9Semaphore7DestroyEv+0x1654>
0x1b314 <_ZN9Semaphore7DestroyEv+0x163c>
<_ZN9Semaphore7DestroyEv+0x1728>
<_ZN9Semaphore7DestroyEv+0x163c>
0x1b4d8 <_ZN9Semaphore7DestroyEv+0x1800>
<_ZN9Semaphore7DestroyEv+0x1794>
<_ZN9Semaphore7DestroyEv+0x17ec>
<_ZN15UsecaseSelector13IsVideoStreamEPK14camera3_stream@plt>
0x1b454 <_ZN9Semaphore7DestroyEv+0x177c>
<_ZN15UsecaseSelector19IsYUVSnapshotStreamEPK14camera3_stream@plt>
0x1b4ac <_ZN9Semaphore7DestroyEv+0x17d4>
<_ZN15UsecaseSelector20IsJPEGSnapshotStreamEPK14camera3_stream@plt>
0x1b4ac <_ZN9Semaphore7DestroyEv+0x17d4>
<_ZN15UsecaseSelector20IsHeicSnapshotStreamEPK14camera3_stream@plt>
0x1b4b4 <_ZN9Semaphore7DestroyEv+0x17dc>
<_ZN9Semaphore7DestroyEv+0x1780>
<_ZN15UsecaseSelector15IsPreviewStreamEPK14camera3_stream@plt>
<_ZN9Semaphore7DestroyEv+0x1780>
<_ZN9Semaphore7DestroyEv+0x1808>
<_ZN9Semaphore7DestroyEv+0x1820>
<_ZN9Semaphore7DestroyEv+0x1818>
0x1b4f8 <_ZN9Semaphore7DestroyEv+0x1820>
0x1b584 <_ZN9Semaphore7DestroyEv+0x18ac>
<_ZN9Semaphore7DestroyEv+0x18ac>
0x1b5c4 <_ZN9Semaphore7DestroyEv+0x18ec>
<_ZN9Semaphore7DestroyEv+0x1900>
<_ZN9Semaphore7DestroyEv+0x1904>
0xd000 <_ZN9Semaphore7DestroyEv+0x1890>
<_ZN9Semaphore7DestroyEv+0x18b8>
<_ZN15ExtensionModule11GetInstanceEv@plt>
<_ZN9Semaphore7DestroyEv+0x1a70>
0x1b720 <_ZN9Semaphore7DestroyEv+0x1a48>
0x2c000 <_ZN9Semaphore7DestroyEv+0x19dc>
#6, 0x1b720 <_ZN9Semaphore7DestroyEv+0x1a48>
0x2c000 <_ZN9Semaphore7DestroyEv+0x19ec>
0xb000 <_ZN9Semaphore7DestroyEv+0x196c>
<_ZN9Semaphore7DestroyEv+0x1a04>
0xd000 <_ZN9Semaphore7DestroyEv+0x19a0>
0xc000 <_ZN9Semaphore7DestroyEv+0x19a0>
0xa000 <_ZN9Semaphore7DestroyEv+0x199c>
0x9000 <_ZN9Semaphore7DestroyEv+0x19d0>
0xc000 <_ZN9Semaphore7DestroyEv+0x19e4>
0xa000 <_ZN9Semaphore7DestroyEv+0x19e0>
0xa000 <_ZN9Semaphore7DestroyEv+0x19e4>
<_ZN6ChiLog9LogSystemEPKcS1_S1_S1_iS1_z@plt>
<_ZN9Semaphore7DestroyEv+0x1a74>
0x1b7c8 <_ZN9Semaphore7DestroyEv+0x1af0>
<_ZN9Semaphore7DestroyEv+0x1b04>
<_ZN9Semaphore7DestroyEv+0x1b08>
0xd000 <_ZN9Semaphore7DestroyEv+0x1a98>
<_ZN9Semaphore7DestroyEv+0x1ac0>
0x1b8f8 <_ZN9Semaphore7DestroyEv+0x1c20>
0x2c000 <_ZN9Semaphore7DestroyEv+0x1b78>
#0, 0x1b8f4 <_ZN9Semaphore7DestroyEv+0x1c1c>
0x2c000 <_ZN9Semaphore7DestroyEv+0x1b88>
0xb000 <_ZN9Semaphore7DestroyEv+0x1b08>
<_ZN9Semaphore7DestroyEv+0x1bbc>
0xd000 <_ZN9Semaphore7DestroyEv+0x1b4c>
0xb000 <_ZN9Semaphore7DestroyEv+0x1b48>
0xa000 <_ZN9Semaphore7DestroyEv+0x1b48>
0x9000 <_ZN9Semaphore7DestroyEv+0x1b9c>
0xc000 <_ZN9Semaphore7DestroyEv+0x1bac>
0xa000 <_ZN9Semaphore7DestroyEv+0x1ba8>
0xb000 <_ZN9Semaphore7DestroyEv+0x1bb0>
<_ZN6ChiLog9LogSystemEPKcS1_S1_S1_iS1_z@plt>
<_ZN9Semaphore7DestroyEv+0x1c5c>
0xc000 <_ZN9Semaphore7DestroyEv+0x1c44>
0xc000 <_ZN9Semaphore7DestroyEv+0x1c60>
<_ZN9Semaphore7DestroyEv+0x1d0c>
0x2c000 <_ZN9Semaphore7DestroyEv+0x1d00>
<_ZN9Semaphore7DestroyEv+0x1d14>
<_ZN9Semaphore7DestroyEv+0x1d40>
0x9000 <_ZN9Semaphore7DestroyEv+0x1d18>
<_ZN9Semaphore7DestroyEv+0x1dcc>
0x2c000 <_ZN9Semaphore7DestroyEv+0x1dc4>
<_ZN9Semaphore7DestroyEv+0x1dd8>
<_ZN9Semaphore7DestroyEv+0x1e88>
<_ZN9Semaphore7DestroyEv+0x1e88>
0x2c000 <_ZN9Semaphore7DestroyEv+0x1e1c>
#0, 0x1bb58 <_ZN9Semaphore7DestroyEv+0x1e80>
0x2c000 <_ZN9Semaphore7DestroyEv+0x1e2c>
0xb000 <_ZN9Semaphore7DestroyEv+0x1dac>
<_ZN9Semaphore7DestroyEv+0x1e40>
0xd000 <_ZN9Semaphore7DestroyEv+0x1de0>
0xc000 <_ZN9Semaphore7DestroyEv+0x1de0>
0xc000 <_ZN9Semaphore7DestroyEv+0x1de4>
0xc000 <_ZN9Semaphore7DestroyEv+0x1e18>
0x9000 <_ZN9Semaphore7DestroyEv+0x1e14>
0xc000 <_ZN9Semaphore7DestroyEv+0x1e24>
0xc000 <_ZN9Semaphore7DestroyEv+0x1e28>
<_ZN6ChiLog9LogSystemEPKcS1_S1_S1_iS1_z@plt>
<_ZN9Semaphore7DestroyEv+0x1eb4>
0xb000 <_ZN9Semaphore7DestroyEv+0x1e90>
<_ZN9Semaphore7DestroyEv+0x1fdc>
0x2c000 <_ZN9Semaphore7DestroyEv+0x1f34>
0x1bcc0 <_ZN9Semaphore7DestroyEv+0x1fe8>
0x2c000 <_ZN9Semaphore7DestroyEv+0x1f6c>
#0, 0x1bca8 <_ZN9Semaphore7DestroyEv+0x1fd0>
0x2c000 <_ZN9Semaphore7DestroyEv+0x1f7c>
0xb000 <_ZN9Semaphore7DestroyEv+0x1efc>
<_ZN9Semaphore7DestroyEv+0x1f90>
0xd000 <_ZN9Semaphore7DestroyEv+0x1f30>
0xc000 <_ZN9Semaphore7DestroyEv+0x1f30>
0xa000 <_ZN9Semaphore7DestroyEv+0x1f2c>
0xc000 <_ZN9Semaphore7DestroyEv+0x1f68>
0x9000 <_ZN9Semaphore7DestroyEv+0x1f64>
0xa000 <_ZN9Semaphore7DestroyEv+0x1f6c>
0xc000 <_ZN9Semaphore7DestroyEv+0x1f78>
<_ZN6ChiLog9LogSystemEPKcS1_S1_S1_iS1_z@plt>
<_ZN9Semaphore7DestroyEv+0x1ff4>
<_ZN9Semaphore7DestroyEv+0x1ff4>
<_ZN9Semaphore7DestroyEv+0x2020>
0x1bd74 <_ZN9Semaphore7DestroyEv+0x209c>
<_ZN9Semaphore7DestroyEv+0x21b8>
0x2c000 <_ZN9Semaphore7DestroyEv+0x20e0>
#5, 0x1be5c <_ZN9Semaphore7DestroyEv+0x2184>
0x2c000 <_ZN9Semaphore7DestroyEv+0x20f0>
0xb000 <_ZN9Semaphore7DestroyEv+0x2070>
<_ZN9Semaphore7DestroyEv+0x2124>
0xd000 <_ZN9Semaphore7DestroyEv+0x20a8>
0xb000 <_ZN9Semaphore7DestroyEv+0x20a4>
0xd000 <_ZN9Semaphore7DestroyEv+0x20b0>
0xc000 <_ZN9Semaphore7DestroyEv+0x2104>
0xb000 <_ZN9Semaphore7DestroyEv+0x2104>
0xd000 <_ZN9Semaphore7DestroyEv+0x2110>
0xd000 <_ZN9Semaphore7DestroyEv+0x2114>
<_ZN6ChiLog9LogSystemEPKcS1_S1_S1_iS1_z@plt>
<_ZN9Semaphore7DestroyEv+0x21dc>
<_ZN9Semaphore7DestroyEv+0x2378>
<_ZN9Semaphore7DestroyEv+0x2378>
<_ZN9Semaphore7DestroyEv+0x2378>
0x2c000 <_ZN9Semaphore7DestroyEv+0x2258>
0x2c000 <_ZN9Semaphore7DestroyEv+0x225c>
0xb000 <_ZN9Semaphore7DestroyEv+0x21dc>
#6, 0x1bf9c <_ZN9Semaphore7DestroyEv+0x22c4>
<_ZN9Semaphore7DestroyEv+0x2280>
0xd000 <_ZN9Semaphore7DestroyEv+0x221c>
0xd000 <_ZN9Semaphore7DestroyEv+0x2220>
0xb000 <_ZN9Semaphore7DestroyEv+0x221c>
0x9000 <_ZN9Semaphore7DestroyEv+0x224c>
0xc000 <_ZN9Semaphore7DestroyEv+0x2260>
0xb000 <_ZN9Semaphore7DestroyEv+0x2260>
0x9000 <_ZN9Semaphore7DestroyEv+0x225c>
<_ZN6ChiLog9LogSystemEPKcS1_S1_S1_iS1_z@plt>
<_ZN8ChxUtils15NativeFenceWaitEij@plt>
#6, 0x1c044 <_ZN9Semaphore7DestroyEv+0x236c>
<_ZN9Semaphore7DestroyEv+0x2328>
0xd000 <_ZN9Semaphore7DestroyEv+0x22c4>
0xd000 <_ZN9Semaphore7DestroyEv+0x22c8>
0xb000 <_ZN9Semaphore7DestroyEv+0x22c4>
0x9000 <_ZN9Semaphore7DestroyEv+0x22f0>
0xc000 <_ZN9Semaphore7DestroyEv+0x2304>
0xb000 <_ZN9Semaphore7DestroyEv+0x2304>
0xb000 <_ZN9Semaphore7DestroyEv+0x2308>
<_ZN6ChiLog9LogSystemEPKcS1_S1_S1_iS1_z@plt>
<_ZN9Semaphore7DestroyEv+0x237c>
<_ZN9Semaphore7DestroyEv+0x2510>
0x2c000 <_ZN9Semaphore7DestroyEv+0x23ec>
0x2c000 <_ZN9Semaphore7DestroyEv+0x23f0>
0xb000 <_ZN9Semaphore7DestroyEv+0x2370>
#6, 0x1c134 <_ZN9Semaphore7DestroyEv+0x245c>
<_ZN9Semaphore7DestroyEv+0x2418>
0xd000 <_ZN9Semaphore7DestroyEv+0x23b0>
0xd000 <_ZN9Semaphore7DestroyEv+0x23b4>
0xb000 <_ZN9Semaphore7DestroyEv+0x23b0>
0x9000 <_ZN9Semaphore7DestroyEv+0x23e0>
0xc000 <_ZN9Semaphore7DestroyEv+0x23f4>
0xb000 <_ZN9Semaphore7DestroyEv+0x23f4>
0x9000 <_ZN9Semaphore7DestroyEv+0x23f0>
<_ZN6ChiLog9LogSystemEPKcS1_S1_S1_iS1_z@plt>
<_ZN8ChxUtils15NativeFenceWaitEij@plt>
#6, 0x1c1dc <_ZN9Semaphore7DestroyEv+0x2504>
<_ZN9Semaphore7DestroyEv+0x24c0>
0xd000 <_ZN9Semaphore7DestroyEv+0x2458>
0xd000 <_ZN9Semaphore7DestroyEv+0x245c>
0xb000 <_ZN9Semaphore7DestroyEv+0x2458>
0x9000 <_ZN9Semaphore7DestroyEv+0x2488>
0xc000 <_ZN9Semaphore7DestroyEv+0x249c>
0xb000 <_ZN9Semaphore7DestroyEv+0x249c>
0xb000 <_ZN9Semaphore7DestroyEv+0x24a0>
<_ZN6ChiLog9LogSystemEPKcS1_S1_S1_iS1_z@plt>
<_ZN9Semaphore7DestroyEv+0x2514>
0x1c380 <_ZN9Semaphore7DestroyEv+0x26a8>
<_ZN15ExtensionModule11GetInstanceEv@plt>
0x1c26c <_ZN9Semaphore7DestroyEv+0x2594>
0x1c26c <_ZN9Semaphore7DestroyEv+0x2594>
0x2c000 <_ZN9Semaphore7DestroyEv+0x25d4>
#3, 0x1c328 <_ZN9Semaphore7DestroyEv+0x2650>
0x2c000 <_ZN9Semaphore7DestroyEv+0x25ec>
0xb000 <_ZN9Semaphore7DestroyEv+0x256c>
<_ZN9Semaphore7DestroyEv+0x2608>
0xd000 <_ZN9Semaphore7DestroyEv+0x25a0>
0xa000 <_ZN9Semaphore7DestroyEv+0x2598>
0xd000 <_ZN9Semaphore7DestroyEv+0x25a8>
0xb000 <_ZN9Semaphore7DestroyEv+0x25d8>
0xd000 <_ZN9Semaphore7DestroyEv+0x25e8>
0xd000 <_ZN9Semaphore7DestroyEv+0x25ec>
0xa000 <_ZN9Semaphore7DestroyEv+0x25e4>
<_ZN6ChiLog9LogSystemEPKcS1_S1_S1_iS1_z@plt>
<_ZN15ExtensionModule11GetInstanceEv@plt>
0x1c360 <_ZN9Semaphore7DestroyEv+0x2688>
<_ZN9Semaphore7DestroyEv+0x26a8>
<_ZN9Semaphore7DestroyEv+0x26cc>
0x1c3f4 <_ZN9Semaphore7DestroyEv+0x271c>
<_ZN9Semaphore7DestroyEv+0x27e4>
0x2c000 <_ZN9Semaphore7DestroyEv+0x2768>
#3, 0x1c4b8 <_ZN9Semaphore7DestroyEv+0x27e0>
0x2c000 <_ZN9Semaphore7DestroyEv+0x2780>
0xb000 <_ZN9Semaphore7DestroyEv+0x2700>
<_ZN9Semaphore7DestroyEv+0x279c>
0xd000 <_ZN9Semaphore7DestroyEv+0x2738>
0xb000 <_ZN9Semaphore7DestroyEv+0x2734>
0xa000 <_ZN9Semaphore7DestroyEv+0x2734>
0xb000 <_ZN9Semaphore7DestroyEv+0x276c>
0xd000 <_ZN9Semaphore7DestroyEv+0x2780>
0xa000 <_ZN9Semaphore7DestroyEv+0x2778>
0xb000 <_ZN9Semaphore7DestroyEv+0x2780>
<_ZN6ChiLog9LogSystemEPKcS1_S1_S1_iS1_z@plt>
<_ZN9Semaphore7DestroyEv+0x2808>
0x1c52c <_ZN9Semaphore7DestroyEv+0x2854>
<_ZN9Semaphore7DestroyEv+0x285c>
0x2c000 <_ZN9Semaphore7DestroyEv+0x289c>
#6, 0x1c5e4 <_ZN9Semaphore7DestroyEv+0x290c>
0x2c000 <_ZN9Semaphore7DestroyEv+0x28ac>
0xb000 <_ZN9Semaphore7DestroyEv+0x282c>
<_ZN9Semaphore7DestroyEv+0x28c8>
0xd000 <_ZN9Semaphore7DestroyEv+0x2860>
0xc000 <_ZN9Semaphore7DestroyEv+0x2860>
0xb000 <_ZN9Semaphore7DestroyEv+0x2860>
0x9000 <_ZN9Semaphore7DestroyEv+0x2890>
0xc000 <_ZN9Semaphore7DestroyEv+0x28a4>
0xb000 <_ZN9Semaphore7DestroyEv+0x28a4>
0xc000 <_ZN9Semaphore7DestroyEv+0x28ac>
<_ZN6ChiLog9LogSystemEPKcS1_S1_S1_iS1_z@plt>
<_ZN9Semaphore7DestroyEv+0x2934>
0x1c658 <_ZN9Semaphore7DestroyEv+0x2980>
0x1c660 <_ZN9Semaphore7DestroyEv+0x2988>
<_ZN9Semaphore7DestroyEv+0x2990>
0x2c000 <_ZN9Semaphore7DestroyEv+0x29d0>
#3, 0x1c720 <_ZN9Semaphore7DestroyEv+0x2a48>
0x2c000 <_ZN9Semaphore7DestroyEv+0x29e0>
0xb000 <_ZN9Semaphore7DestroyEv+0x2960>
<_ZN9Semaphore7DestroyEv+0x2a00>
0xd000 <_ZN9Semaphore7DestroyEv+0x2994>
0xc000 <_ZN9Semaphore7DestroyEv+0x2994>
0xc000 <_ZN9Semaphore7DestroyEv+0x2998>
0xb000 <_ZN9Semaphore7DestroyEv+0x29d0>
0xd000 <_ZN9Semaphore7DestroyEv+0x29e0>
0xc000 <_ZN9Semaphore7DestroyEv+0x29e0>
0xa000 <_ZN9Semaphore7DestroyEv+0x29dc>
<_ZN6ChiLog9LogSystemEPKcS1_S1_S1_iS1_z@plt>
<_ZN9Semaphore7DestroyEv+0x2a70>
0x1ca10 <_ZN9Semaphore7DestroyEv+0x2d38>
0xd000 <_ZN9Semaphore7DestroyEv+0x2a68>
<_ZN8ChxUtils14GetUsecaseModeEP23camera3_capture_request@plt>
<_ZN8ChxUtils15AndroidMetadata15GetFeature1ModeEPvPj@plt>
0x1c854 <_ZN9Semaphore7DestroyEv+0x2b7c>
<_ZN9Semaphore7DestroyEv+0x2b7c>
0x1ca3c <_ZN9Semaphore7DestroyEv+0x2d64>
<_ZN9Semaphore7DestroyEv+0x2d74>
0xd000 <_ZN9Semaphore7DestroyEv+0x2b50>
0x1c89c <_ZN9Semaphore7DestroyEv+0x2bc4>
<_ZN9Semaphore7DestroyEv+0x2bd0>
<_ZN9Semaphore7DestroyEv+0x2d74>
0xd000 <_ZN9Semaphore7DestroyEv+0x2ba0>
<_ZN15ExtensionModule11GetInstanceEv@plt>
0x1c900 <_ZN9Semaphore7DestroyEv+0x2c28>
<_ZN9Semaphore7DestroyEv+0x2c48>
0x2c000 <_ZN9Semaphore7DestroyEv+0x2c88>
#5, 0x1ca10 <_ZN9Semaphore7DestroyEv+0x2d38>
0x2c000 <_ZN9Semaphore7DestroyEv+0x2c98>
0xb000 <_ZN9Semaphore7DestroyEv+0x2c18>
<_ZN9Semaphore7DestroyEv+0x2cd4>
0xd000 <_ZN9Semaphore7DestroyEv+0x2c54>
0xa000 <_ZN9Semaphore7DestroyEv+0x2c50>
0xa000 <_ZN9Semaphore7DestroyEv+0x2c58>
0xc000 <_ZN9Semaphore7DestroyEv+0x2cb8>
0xb000 <_ZN9Semaphore7DestroyEv+0x2cbc>
0xa000 <_ZN9Semaphore7DestroyEv+0x2cbc>
0xa000 <_ZN9Semaphore7DestroyEv+0x2cc0>
<_ZN6ChiLog9LogSystemEPKcS1_S1_S1_iS1_z@plt>
<_ZN9Semaphore7DestroyEv+0x2d78>
<_ZN9Semaphore7DestroyEv+0x2b80>
0x1cacc <_ZN9Semaphore7DestroyEv+0x2df4>
<_ZN9Semaphore7DestroyEv+0x2e24>
<_ZN9Semaphore7DestroyEv+0x2e0c>
<_ZN9Semaphore7DestroyEv+0x2e28>
0x2c000 <_ZN9Semaphore7DestroyEv+0x2e68>
#6, 0x1cc2c <_ZN9Semaphore7DestroyEv+0x2f54>
0x2c000 <_ZN9Semaphore7DestroyEv+0x2e78>
0xb000 <_ZN9Semaphore7DestroyEv+0x2dfc>
<_ZN9Semaphore7DestroyEv+0x2ed8>
0x1cb78 <_ZN9Semaphore7DestroyEv+0x2ea0>
0xd000 <_ZN9Semaphore7DestroyEv+0x2e64>
0xb000 <_ZN9Semaphore7DestroyEv+0x2e60>
0xb000 <_ZN9Semaphore7DestroyEv+0x2e64>
0x1cbf0 <_ZN9Semaphore7DestroyEv+0x2f18>
0xc000 <_ZN9Semaphore7DestroyEv+0x2ed8>
0x9000 <_ZN9Semaphore7DestroyEv+0x2ed0>
0xb000 <_ZN9Semaphore7DestroyEv+0x2edc>
0x9000 <_ZN9Semaphore7DestroyEv+0x2ed8>
<_ZN6ChiLog9LogSystemEPKcS1_S1_S1_iS1_z@plt>
<_ZN9Semaphore7DestroyEv+0x2f8c>
0x1ccac <_ZN9Semaphore7DestroyEv+0x2fd4>
<_ZN9Semaphore7DestroyEv+0x2ff8>
0x1cd44 <_ZN9Semaphore7DestroyEv+0x306c>
<_ZN9Semaphore7DestroyEv+0x3070>
0x2c000 <_ZN9Semaphore7DestroyEv+0x30b0>
#6, 0x1cdf8 <_ZN9Semaphore7DestroyEv+0x3120>
0x2c000 <_ZN9Semaphore7DestroyEv+0x30c0>
0xb000 <_ZN9Semaphore7DestroyEv+0x3040>
<_ZN9Semaphore7DestroyEv+0x30dc>
0xd000 <_ZN9Semaphore7DestroyEv+0x3074>
0xc000 <_ZN9Semaphore7DestroyEv+0x3074>
0xb000 <_ZN9Semaphore7DestroyEv+0x3074>
0x9000 <_ZN9Semaphore7DestroyEv+0x30a4>
0xc000 <_ZN9Semaphore7DestroyEv+0x30b8>
0xb000 <_ZN9Semaphore7DestroyEv+0x30b8>
0xc000 <_ZN9Semaphore7DestroyEv+0x30c0>
<_ZN6ChiLog9LogSystemEPKcS1_S1_S1_iS1_z@plt>
<_ZN9Semaphore7DestroyEv+0x3148>
0x1ce94 <_ZN9Semaphore7DestroyEv+0x31bc>
<_ZN9Semaphore7DestroyEv+0x31c0>
0x2c000 <_ZN9Semaphore7DestroyEv+0x3200>
#3, 0x1cf48 <_ZN9Semaphore7DestroyEv+0x3270>
0x2c000 <_ZN9Semaphore7DestroyEv+0x3210>
0xb000 <_ZN9Semaphore7DestroyEv+0x3190>
<_ZN9Semaphore7DestroyEv+0x322c>
0xd000 <_ZN9Semaphore7DestroyEv+0x31c4>
0xc000 <_ZN9Semaphore7DestroyEv+0x31c4>
0xd000 <_ZN9Semaphore7DestroyEv+0x31cc>
0xb000 <_ZN9Semaphore7DestroyEv+0x31fc>
0xd000 <_ZN9Semaphore7DestroyEv+0x320c>
0xd000 <_ZN9Semaphore7DestroyEv+0x3210>
0xb000 <_ZN9Semaphore7DestroyEv+0x320c>
<_ZN6ChiLog9LogSystemEPKcS1_S1_S1_iS1_z@plt>
<_ZN9Semaphore7DestroyEv+0x329c>
0x1cfe4 <_ZN9Semaphore7DestroyEv+0x330c>
<_ZN9Semaphore7DestroyEv+0x3310>
0x2c000 <_ZN9Semaphore7DestroyEv+0x3350>
#3, 0x1d098 <_ZN9Semaphore7DestroyEv+0x33c0>
0x2c000 <_ZN9Semaphore7DestroyEv+0x3360>
0xb000 <_ZN9Semaphore7DestroyEv+0x32e0>
<_ZN9Semaphore7DestroyEv+0x337c>
0xd000 <_ZN9Semaphore7DestroyEv+0x3310>
0xa000 <_ZN9Semaphore7DestroyEv+0x3308>
0xb000 <_ZN9Semaphore7DestroyEv+0x3310>
0xb000 <_ZN9Semaphore7DestroyEv+0x3348>
0xd000 <_ZN9Semaphore7DestroyEv+0x3358>
0xb000 <_ZN9Semaphore7DestroyEv+0x3354>
0xc000 <_ZN9Semaphore7DestroyEv+0x335c>
<_ZN6ChiLog9LogSystemEPKcS1_S1_S1_iS1_z@plt>
<_ZN9Semaphore7DestroyEv+0x33ec>
<_ZN15ExtensionModule11GetInstanceEv@plt>
<_ZN9Semaphore7DestroyEv+0x3478>
0x1d218 <_ZN9Semaphore7DestroyEv+0x3540>
<_ZN9Semaphore7DestroyEv+0x3540>
0x1d218 <_ZN9Semaphore7DestroyEv+0x3540>
<_ZN9Semaphore7DestroyEv+0x3544>
<_ZN9Semaphore7DestroyEv+0x3588>
<_ZN9Semaphore7DestroyEv+0x358c>
0xd000 <_ZN9Semaphore7DestroyEv+0x351c>
0x1d2dc <_ZN9Semaphore7DestroyEv+0x3604>
<_ZN9Semaphore7DestroyEv+0x3608>
<_ZN9Semaphore7DestroyEv+0x3648>
<_ZN9Semaphore7DestroyEv+0x364c>
0xd000 <_ZN9Semaphore7DestroyEv+0x35e4>
<_ZN15ExtensionModule11GetInstanceEv@plt>
0x1d3a4 <_ZN9Semaphore7DestroyEv+0x36cc>
<_ZN9Semaphore7DestroyEv+0x36d0>
0x2c000 <_ZN9Semaphore7DestroyEv+0x370c>
#6, 0x1d458 <_ZN9Semaphore7DestroyEv+0x3780>
0x2c000 <_ZN9Semaphore7DestroyEv+0x371c>
0xb000 <_ZN9Semaphore7DestroyEv+0x369c>
<_ZN9Semaphore7DestroyEv+0x373c>
0xd000 <_ZN9Semaphore7DestroyEv+0x36d0>
0xd000 <_ZN9Semaphore7DestroyEv+0x36d4>
0xb000 <_ZN9Semaphore7DestroyEv+0x36d0>
0x9000 <_ZN9Semaphore7DestroyEv+0x3700>
0xc000 <_ZN9Semaphore7DestroyEv+0x3714>
0xb000 <_ZN9Semaphore7DestroyEv+0x3714>
0xa000 <_ZN9Semaphore7DestroyEv+0x3714>
<_ZN6ChiLog9LogSystemEPKcS1_S1_S1_iS1_z@plt>
<_ZN9Semaphore7DestroyEv+0x37ac>
0x1d5d4 <_ZN9Semaphore7DestroyEv+0x38fc>
<_ZN8ChxUtils17GetVendorTagValueEP11ChiMetadata9VendorTagPPv@plt>
0x1d4e4 <_ZN9Semaphore7DestroyEv+0x380c>
0x2c000 <_ZN9Semaphore7DestroyEv+0x3848>
#6, 0x1d598 <_ZN9Semaphore7DestroyEv+0x38c0>
0x2c000 <_ZN9Semaphore7DestroyEv+0x385c>
0xb000 <_ZN9Semaphore7DestroyEv+0x37dc>
<_ZN9Semaphore7DestroyEv+0x387c>
0xd000 <_ZN9Semaphore7DestroyEv+0x3810>
0xd000 <_ZN9Semaphore7DestroyEv+0x3814>
0xd000 <_ZN9Semaphore7DestroyEv+0x3818>
0x9000 <_ZN9Semaphore7DestroyEv+0x3840>
0xc000 <_ZN9Semaphore7DestroyEv+0x3854>
0xd000 <_ZN9Semaphore7DestroyEv+0x385c>
0xa000 <_ZN9Semaphore7DestroyEv+0x3854>
<_ZN6ChiLog9LogSystemEPKcS1_S1_S1_iS1_z@plt>
<_ZN15ExtensionModule11GetInstanceEv@plt>
<_ZN9Semaphore7DestroyEv+0x3920>
0x1d860 <_ZN9Semaphore7DestroyEv+0x3b88>
0xd000 <_ZN9Semaphore7DestroyEv+0x3914>
<_ZN8ChxUtils15GetFeature1ModeEP11ChiMetadataPj@plt>
<_ZN8ChxUtils12GetSceneModeEP11ChiMetadataPj@plt>
0x1d708 <_ZN9Semaphore7DestroyEv+0x3a30>
<_ZN9Semaphore7DestroyEv+0x3a34>
<_ZN9Semaphore7DestroyEv+0x3bb4>
0xd000 <_ZN9Semaphore7DestroyEv+0x3a00>
<_ZN15ExtensionModule11GetInstanceEv@plt>
0x2c000 <_ZN9Semaphore7DestroyEv+0x3acc>
#5, 0x1d860 <_ZN9Semaphore7DestroyEv+0x3b88>
0x2c000 <_ZN9Semaphore7DestroyEv+0x3adc>
0xb000 <_ZN9Semaphore7DestroyEv+0x3a5c>
<_ZN9Semaphore7DestroyEv+0x3b20>
0xd000 <_ZN9Semaphore7DestroyEv+0x3a98>
0xa000 <_ZN9Semaphore7DestroyEv+0x3a94>
0xa000 <_ZN9Semaphore7DestroyEv+0x3a9c>
0xc000 <_ZN9Semaphore7DestroyEv+0x3b00>
0xb000 <_ZN9Semaphore7DestroyEv+0x3b04>
0xa000 <_ZN9Semaphore7DestroyEv+0x3b08>
0xa000 <_ZN9Semaphore7DestroyEv+0x3b0c>
<_ZN6ChiLog9LogSystemEPKcS1_S1_S1_iS1_z@plt>
<_ZN9Semaphore7DestroyEv+0x3bb0>
<_ZN15ExtensionModule11GetInstanceEv@plt>
<_ZN15ExtensionModule11GetInstanceEv@plt>
<_ZN9Semaphore7DestroyEv+0x3c2c>
<_ZN9Semaphore7DestroyEv+0x3c2c>
0xd000 <_ZN9Semaphore7DestroyEv+0x3bc4>
<_ZN9Semaphore7DestroyEv+0x3c30>
<_ZN9Semaphore7DestroyEv+0x3c74>
<_ZN9Semaphore7DestroyEv+0x3d4c>
0xd000 <_ZN9Semaphore7DestroyEv+0x3c10>
<_ZN9Semaphore7DestroyEv+0x3d4c>
<_ZN9Semaphore7DestroyEv+0x3d4c>
<_ZN9Semaphore7DestroyEv+0x3cd0>
<_ZN9Semaphore7DestroyEv+0x3dc8>
<_ZN9Semaphore7DestroyEv+0x3dc8>
<_ZN9Semaphore7DestroyEv+0x3dc8>
<_ZN9Semaphore7DestroyEv+0x3cdc>
<_ZN9Semaphore7DestroyEv+0x3d48>
<_ZN9Semaphore7DestroyEv+0x3cc8>
<_ZN9Semaphore7DestroyEv+0x3dc8>
<_ZN9Semaphore7DestroyEv+0x3dc8>
<_ZN9Semaphore7DestroyEv+0x3dc8>
<_ZN9Semaphore7DestroyEv+0x3dc8>
<_ZN9Semaphore7DestroyEv+0x3dc8>
<_ZN9Semaphore7DestroyEv+0x3dc8>
<_ZN9Semaphore7DestroyEv+0x3c30>
<_ZN9Semaphore7DestroyEv+0x3c30>
<_ZN9Semaphore7DestroyEv+0x3c30>
<_ZN9Semaphore7DestroyEv+0x3d4c>
<_ZN9Semaphore7DestroyEv+0x3d4c>
<_ZN9Semaphore7DestroyEv+0x3d4c>
<_ZN9Semaphore7DestroyEv+0x3d4c>
<_ZN9Semaphore7DestroyEv+0x3d4c>
<_ZN9Semaphore7DestroyEv+0x3d4c>
<_ZN8ChxUtils13DebugDataSizeE13DebugDataType@plt>
0x1daf8 <_ZN9Semaphore7DestroyEv+0x3e20>
0x1db00 <_ZN9Semaphore7DestroyEv+0x3e28>
0x1db08 <_ZN9Semaphore7DestroyEv+0x3e30>
<_ZN9Semaphore7DestroyEv+0x3ee0>
<_ZN9Semaphore7DestroyEv+0x3ee0>
<_ZN9Semaphore7DestroyEv+0x3ee0>
0x2c000 <_ZN9Semaphore7DestroyEv+0x3e6c>
#1, 0x1dbb4 <_ZN9Semaphore7DestroyEv+0x3edc>
0x2c000 <_ZN9Semaphore7DestroyEv+0x3e80>
0xb000 <_ZN9Semaphore7DestroyEv+0x3e00>
<_ZN9Semaphore7DestroyEv+0x3e9c>
0xd000 <_ZN9Semaphore7DestroyEv+0x3e34>
0xc000 <_ZN9Semaphore7DestroyEv+0x3e34>
0xc000 <_ZN9Semaphore7DestroyEv+0x3e38>
0xa000 <_ZN9Semaphore7DestroyEv+0x3e64>
0xc000 <_ZN9Semaphore7DestroyEv+0x3e74>
0xc000 <_ZN9Semaphore7DestroyEv+0x3e78>
0x9000 <_ZN9Semaphore7DestroyEv+0x3e70>
<_ZN6ChiLog9LogSystemEPKcS1_S1_S1_iS1_z@plt>
<_ZN15ExtensionModule11GetInstanceEv@plt>
<_ZN15ExtensionModule11GetInstanceEv@plt>
<_ZN9Semaphore7DestroyEv+0x3f24>
<_ZN9Semaphore7DestroyEv+0x3f3c>
<_ZN9Semaphore7DestroyEv+0x3f80>
<_ZN9Semaphore7DestroyEv+0x3f90>
0x1dcfc <_ZN9Semaphore7DestroyEv+0x4024>
0x1ddc0 <_ZN9Semaphore7DestroyEv+0x40e8>
<_ZN9Semaphore7DestroyEv+0x40f4>
<_ZN9Semaphore7DestroyEv+0x41f8>
0x2c000 <_ZN9Semaphore7DestroyEv+0x4060>
#1, 0x1ded0 <_ZN9Semaphore7DestroyEv+0x41f8>
0x2c000 <_ZN9Semaphore7DestroyEv+0x4070>
<_ZN9Semaphore7DestroyEv+0x408c>
0xb000 <_ZN9Semaphore7DestroyEv+0x4000>
0xd000 <_ZN9Semaphore7DestroyEv+0x4024>
0x9000 <_ZN9Semaphore7DestroyEv+0x4018>
0xb000 <_ZN9Semaphore7DestroyEv+0x4024>
0xb000 <_ZN9Semaphore7DestroyEv+0x4044>
0xa000 <_ZN9Semaphore7DestroyEv+0x405c>
0xc000 <_ZN9Semaphore7DestroyEv+0x406c>
0xb000 <_ZN9Semaphore7DestroyEv+0x406c>
0xc000 <_ZN9Semaphore7DestroyEv+0x4074>
<_ZN6ChiLog9LogSystemEPKcS1_S1_S1_iS1_z@plt>
<_ZN9Semaphore7DestroyEv+0x4208>
<_ZN9Semaphore7DestroyEv+0x41f8>
0x2c000 <_ZN9Semaphore7DestroyEv+0x4164>
#3, 0x1ded0 <_ZN9Semaphore7DestroyEv+0x41f8>
0x2c000 <_ZN9Semaphore7DestroyEv+0x4174>
0xb000 <_ZN9Semaphore7DestroyEv+0x40f4>
<_ZN9Semaphore7DestroyEv+0x41a4>
0xd000 <_ZN9Semaphore7DestroyEv+0x4130>
0xd000 <_ZN9Semaphore7DestroyEv+0x4134>
0xb000 <_ZN9Semaphore7DestroyEv+0x4130>
0xd000 <_ZN9Semaphore7DestroyEv+0x4184>
0xb000 <_ZN9Semaphore7DestroyEv+0x4180>
0xb000 <_ZN9Semaphore7DestroyEv+0x4184>
0xa000 <_ZN9Semaphore7DestroyEv+0x4184>
<_ZN6ChiLog9LogSystemEPKcS1_S1_S1_iS1_z@plt>
<_ZN9Semaphore7DestroyEv+0x40e4>
0x1df94 <_ZN9Semaphore7DestroyEv+0x42bc>
<_ZN15ExtensionModule11GetInstanceEv@plt>
<_ZN9Semaphore7DestroyEv+0x42e8>
<_ZN9Semaphore7DestroyEv+0x42d0>
<_ZN9Semaphore7DestroyEv+0x42e4>
<_ZN9Semaphore7DestroyEv+0x42e4>
<_ZN9Semaphore7DestroyEv+0x431c>
<_ZN9Semaphore7DestroyEv+0x437c>
<_ZN9Semaphore7DestroyEv+0x4370>
0x1dfe4 <_ZN9Semaphore7DestroyEv+0x430c>
0x1e03c <_ZN9Semaphore7DestroyEv+0x4364>
<_ZN9Semaphore7DestroyEv+0x4348>
<_ZN9Semaphore7DestroyEv+0x430c>
0x1e190 <_ZN9Semaphore7DestroyEv+0x44b8>
0xd000 <_ZN9Semaphore7DestroyEv+0x4364>
<_ZN8ChxUtils15GetFeature1ModeEP11ChiMetadataPj@plt>
0xd000 <_ZN9Semaphore7DestroyEv+0x43ac>
<_ZN8ChxUtils12GetSceneModeEP11ChiMetadataPj@plt>
0x1e140 <_ZN9Semaphore7DestroyEv+0x4468>
<_ZN9Semaphore7DestroyEv+0x44e0>
0xd000 <_ZN9Semaphore7DestroyEv+0x4424>
<_ZN15ExtensionModule11GetInstanceEv@plt>
<_ZN9Semaphore7DestroyEv+0x44dc>
0x1e1f8 <_ZN9Semaphore7DestroyEv+0x4520>
0x1e1f8 <_ZN9Semaphore7DestroyEv+0x4520>
0x1e1f8 <_ZN9Semaphore7DestroyEv+0x4520>
0x1e2bc <_ZN9Semaphore7DestroyEv+0x45e4>
0x1e31c <_ZN9Semaphore7DestroyEv+0x4644>
0x1e374 <_ZN9Semaphore7DestroyEv+0x469c>
0x1e3cc <_ZN9Semaphore7DestroyEv+0x46f4>
0x1e42c <_ZN9Semaphore7DestroyEv+0x4754>
0x1e488 <_ZN9Semaphore7DestroyEv+0x47b0>
0x1e4e4 <_ZN9Semaphore7DestroyEv+0x480c>
0x1e540 <_ZN9Semaphore7DestroyEv+0x4868>
0x1e598 <_ZN9Semaphore7DestroyEv+0x48c0>
0x1e5f8 <_ZN9Semaphore7DestroyEv+0x4920>
<_ZN8ChxUtils17GetVendorTagValueEP11ChiMetadata9VendorTagPPv@plt>
0x1e644 <_ZN9Semaphore7DestroyEv+0x496c>
<_ZN15ExtensionModule11GetInstanceEv@plt>
0xa000 <_ZN9Semaphore7DestroyEv+0x4954>
0xc000 <_ZN9Semaphore7DestroyEv+0x4960>
0x1e6d4 <_ZN9Semaphore7DestroyEv+0x49fc>
0xa000 <_ZN9Semaphore7DestroyEv+0x498c>
0xc000 <_ZN9Semaphore7DestroyEv+0x4998>
0xc000 <_ZN9Semaphore7DestroyEv+0x49cc>
0xb000 <_ZN9Semaphore7DestroyEv+0x49cc>
0x1e744 <_ZN9Semaphore7DestroyEv+0x4a6c>
0xc000 <_ZN9Semaphore7DestroyEv+0x4a04>
0xb000 <_ZN9Semaphore7DestroyEv+0x4a04>
0xc000 <_ZN9Semaphore7DestroyEv+0x4a3c>
0xd000 <_ZN9Semaphore7DestroyEv+0x4a44>
0x1e7b4 <_ZN9Semaphore7DestroyEv+0x4adc>
0xc000 <_ZN9Semaphore7DestroyEv+0x4a74>
0xd000 <_ZN9Semaphore7DestroyEv+0x4a7c>
0xa000 <_ZN9Semaphore7DestroyEv+0x4aa4>
0x9000 <_ZN9Semaphore7DestroyEv+0x4aa4>
0x1e824 <_ZN9Semaphore7DestroyEv+0x4b4c>
0xa000 <_ZN9Semaphore7DestroyEv+0x4adc>
0x9000 <_ZN9Semaphore7DestroyEv+0x4adc>
0xa000 <_ZN9Semaphore7DestroyEv+0x4b14>
0xc000 <_ZN9Semaphore7DestroyEv+0x4b20>
0x1e894 <_ZN9Semaphore7DestroyEv+0x4bbc>
0xa000 <_ZN9Semaphore7DestroyEv+0x4b4c>
0xc000 <_ZN9Semaphore7DestroyEv+0x4b58>
<_ZN9Semaphore7DestroyEv+0x4bf0>
0xc000 <_ZN9Semaphore7DestroyEv+0x4bfc>
0xb000 <_ZN9Semaphore7DestroyEv+0x4bfc>
0x1ea34 <_ZN9Semaphore7DestroyEv+0x4d5c>
0x2c000 <_ZN9Semaphore7DestroyEv+0x4ca0>
#6, 0x1e9f0 <_ZN9Semaphore7DestroyEv+0x4d18>
0x2c000 <_ZN9Semaphore7DestroyEv+0x4cb0>
<_ZN9Semaphore7DestroyEv+0x4cd0>
0xb000 <_ZN9Semaphore7DestroyEv+0x4c40>
0xd000 <_ZN9Semaphore7DestroyEv+0x4c64>
0xb000 <_ZN9Semaphore7DestroyEv+0x4c60>
0xc000 <_ZN9Semaphore7DestroyEv+0x4c68>
0xb000 <_ZN9Semaphore7DestroyEv+0x4c84>
0x9000 <_ZN9Semaphore7DestroyEv+0x4c98>
0xc000 <_ZN9Semaphore7DestroyEv+0x4cac>
0xc000 <_ZN9Semaphore7DestroyEv+0x4cb0>
0xb000 <_ZN9Semaphore7DestroyEv+0x4cb0>
<_ZN6ChiLog9LogSystemEPKcS1_S1_S1_iS1_z@plt>
0xc000 <_ZN9Semaphore7DestroyEv+0x4cf4>
0xb000 <_ZN9Semaphore7DestroyEv+0x4cf4>
0xc000 <_ZN9Semaphore7DestroyEv+0x4d2c>
0xa000 <_ZN9Semaphore7DestroyEv+0x4d28>
0x1eb68 <_ZN9Semaphore7DestroyEv+0x4e90>
0x2c000 <_ZN9Semaphore7DestroyEv+0x4dd0>
#6, 0x1eb20 <_ZN9Semaphore7DestroyEv+0x4e48>
0x2c000 <_ZN9Semaphore7DestroyEv+0x4de0>
<_ZN9Semaphore7DestroyEv+0x4e00>
0xb000 <_ZN9Semaphore7DestroyEv+0x4d70>
0xd000 <_ZN9Semaphore7DestroyEv+0x4d94>
0xb000 <_ZN9Semaphore7DestroyEv+0x4d90>
0xc000 <_ZN9Semaphore7DestroyEv+0x4d98>
0xb000 <_ZN9Semaphore7DestroyEv+0x4db4>
0x9000 <_ZN9Semaphore7DestroyEv+0x4dc8>
0xc000 <_ZN9Semaphore7DestroyEv+0x4ddc>
0xc000 <_ZN9Semaphore7DestroyEv+0x4de0>
0xb000 <_ZN9Semaphore7DestroyEv+0x4de0>
<_ZN6ChiLog9LogSystemEPKcS1_S1_S1_iS1_z@plt>
0xc000 <_ZN9Semaphore7DestroyEv+0x4e28>
0xa000 <_ZN9Semaphore7DestroyEv+0x4e24>
0xd000 <_ZN9Semaphore7DestroyEv+0x4e64>
0xc000 <_ZN9Semaphore7DestroyEv+0x4e64>
0x1ec4c <_ZN9Semaphore7DestroyEv+0x4f74>
0x2c000 <_ZN9Semaphore7DestroyEv+0x4f04>
#6, 0x1ec4c <_ZN9Semaphore7DestroyEv+0x4f74>
0x2c000 <_ZN9Semaphore7DestroyEv+0x4f14>
0xb000 <_ZN9Semaphore7DestroyEv+0x4e94>
<_ZN9Semaphore7DestroyEv+0x4f34>
0xd000 <_ZN9Semaphore7DestroyEv+0x4ec8>
0x9000 <_ZN9Semaphore7DestroyEv+0x4ebc>
0xc000 <_ZN9Semaphore7DestroyEv+0x4ecc>
0x9000 <_ZN9Semaphore7DestroyEv+0x4ef4>
0xc000 <_ZN9Semaphore7DestroyEv+0x4f08>
0xc000 <_ZN9Semaphore7DestroyEv+0x4f0c>
0xb000 <_ZN9Semaphore7DestroyEv+0x4f0c>
<_ZN6ChiLog9LogSystemEPKcS1_S1_S1_iS1_z@plt>
<_ZN9Semaphore7DestroyEv+0x4f9c>
0x1ecdc <_ZN9Semaphore7DestroyEv+0x5004>
0x1ed08 <_ZN9Semaphore7DestroyEv+0x5030>
<_ZN9Semaphore7DestroyEv+0x50ec>
0x2c000 <_ZN9Semaphore7DestroyEv+0x5068>
#5, 0x1ece0 <_ZN9Semaphore7DestroyEv+0x5008>
0x2c000 <_ZN9Semaphore7DestroyEv+0x5080>
0xb000 <_ZN9Semaphore7DestroyEv+0x5000>
<_ZN9Semaphore7DestroyEv+0x50a4>
0xd000 <_ZN9Semaphore7DestroyEv+0x5034>
0xb000 <_ZN9Semaphore7DestroyEv+0x5030>
0xb000 <_ZN9Semaphore7DestroyEv+0x5034>
0xb000 <_ZN9Semaphore7DestroyEv+0x506c>
0xc000 <_ZN9Semaphore7DestroyEv+0x5078>
0xb000 <_ZN9Semaphore7DestroyEv+0x5078>
0xb000 <_ZN9Semaphore7DestroyEv+0x507c>
<_ZN6ChiLog9LogSystemEPKcS1_S1_S1_iS1_z@plt>
<_ZN9Semaphore7DestroyEv+0x5008>
0x1ee6c <_ZN9Semaphore7DestroyEv+0x5194>
<_ZN9Semaphore7DestroyEv+0x5140>
<_ZN9Semaphore7DestroyEv+0x5198>
0x1ee08 <_ZN9Semaphore7DestroyEv+0x5130>
0x1ee4c <_ZN9Semaphore7DestroyEv+0x5174>
0x1ee4c <_ZN9Semaphore7DestroyEv+0x5174>
<_ZN9Semaphore7DestroyEv+0x5130>
<_ZN9Semaphore7DestroyEv+0x518c>
#0, 0x1ee04 <_ZN9Semaphore7DestroyEv+0x512c>
<_ZN9Semaphore7DestroyEv+0x51a0>
0x1f050 <_ZN9Semaphore7DestroyEv+0x5378>
<_ZN9Semaphore7DestroyEv+0x55f0>
<_ZN9Semaphore7DestroyEv+0x5270>
<_ZN9Semaphore7DestroyEv+0x55f0>
0x2c000 <_ZN9Semaphore7DestroyEv+0x52a8>
#5, 0x1f02c <_ZN9Semaphore7DestroyEv+0x5354>
0x2c000 <_ZN9Semaphore7DestroyEv+0x52b8>
<_ZN9Semaphore7DestroyEv+0x52f0>
0xb000 <_ZN9Semaphore7DestroyEv+0x5248>
<_ZN9Semaphore7DestroyEv+0x55f0>
0xd000 <_ZN9Semaphore7DestroyEv+0x527c>
0xb000 <_ZN9Semaphore7DestroyEv+0x5278>
0x9000 <_ZN9Semaphore7DestroyEv+0x5274>
0xb000 <_ZN9Semaphore7DestroyEv+0x52a4>
<_ZN9Semaphore7DestroyEv+0x55f0>
0xb000 <_ZN9Semaphore7DestroyEv+0x52d0>
0xc000 <_ZN9Semaphore7DestroyEv+0x52dc>
0x9000 <_ZN9Semaphore7DestroyEv+0x52d0>
0x9000 <_ZN9Semaphore7DestroyEv+0x52d4>
<_ZN6ChiLog9LogSystemEPKcS1_S1_S1_iS1_z@plt>
<_ZN9Semaphore7DestroyEv+0x55f0>
<_ZN9Semaphore7DestroyEv+0x5390>
<_ZN9Semaphore7DestroyEv+0x55d4>
0x2c000 <_ZN9Semaphore7DestroyEv+0x53ac>
#0, 0x1f138 <_ZN9Semaphore7DestroyEv+0x5460>
<_ZN9Semaphore7DestroyEv+0x55d4>
<_ZN9Semaphore7DestroyEv+0x55f0>
<_ZN9Semaphore7DestroyEv+0x5510>
#1, 0x1f2a4 <_ZN9Semaphore7DestroyEv+0x55cc>
0x2c000 <_ZN9Semaphore7DestroyEv+0x53e4>
<_ZN9Semaphore7DestroyEv+0x5414>
0xb000 <_ZN9Semaphore7DestroyEv+0x5374>
0xd000 <_ZN9Semaphore7DestroyEv+0x539c>
0x9000 <_ZN9Semaphore7DestroyEv+0x5390>
0x9000 <_ZN9Semaphore7DestroyEv+0x5394>
0xb000 <_ZN9Semaphore7DestroyEv+0x53c4>
0xa000 <_ZN9Semaphore7DestroyEv+0x53dc>
0xc000 <_ZN9Semaphore7DestroyEv+0x53f0>
0x9000 <_ZN9Semaphore7DestroyEv+0x53e8>
0x9000 <_ZN9Semaphore7DestroyEv+0x53ec>
<_ZN9Semaphore7DestroyEv+0x55c0>
0x2c000 <_ZN9Semaphore7DestroyEv+0x5494>
<_ZN9Semaphore7DestroyEv+0x54bc>
0xb000 <_ZN9Semaphore7DestroyEv+0x5424>
0xd000 <_ZN9Semaphore7DestroyEv+0x544c>
0xb000 <_ZN9Semaphore7DestroyEv+0x5448>
0x9000 <_ZN9Semaphore7DestroyEv+0x5444>
0xb000 <_ZN9Semaphore7DestroyEv+0x546c>
0x9000 <_ZN9Semaphore7DestroyEv+0x5488>
0xc000 <_ZN9Semaphore7DestroyEv+0x5498>
0x9000 <_ZN9Semaphore7DestroyEv+0x5490>
0xc000 <_ZN9Semaphore7DestroyEv+0x54a0>
<_ZN6ChiLog9LogSystemEPKcS1_S1_S1_iS1_z@plt>
<_ZN9Semaphore7DestroyEv+0x55d4>
#3, 0x1f2a4 <_ZN9Semaphore7DestroyEv+0x55cc>
0x2c000 <_ZN9Semaphore7DestroyEv+0x5548>
<_ZN9Semaphore7DestroyEv+0x5578>
0xb000 <_ZN9Semaphore7DestroyEv+0x54d8>
0xd000 <_ZN9Semaphore7DestroyEv+0x5500>
0xc000 <_ZN9Semaphore7DestroyEv+0x5500>
0x9000 <_ZN9Semaphore7DestroyEv+0x54f8>
0xb000 <_ZN9Semaphore7DestroyEv+0x5528>
0xb000 <_ZN9Semaphore7DestroyEv+0x5548>
0xd000 <_ZN9Semaphore7DestroyEv+0x5558>
0x9000 <_ZN9Semaphore7DestroyEv+0x554c>
0xa000 <_ZN9Semaphore7DestroyEv+0x5554>
<_ZN6ChiLog9LogSystemEPKcS1_S1_S1_iS1_z@plt>
0x1f340 <_ZN9Semaphore7DestroyEv+0x5668>
0x1f340 <_ZN9Semaphore7DestroyEv+0x5668>
0x9000 <_ZN9Semaphore7DestroyEv+0x55f4>
<_ZN9Semaphore7DestroyEv+0x5690>
<_ZN9Semaphore7DestroyEv+0x57ac>
0x1f42c <_ZN9Semaphore7DestroyEv+0x5754>
0x1f44c <_ZN9Semaphore7DestroyEv+0x5774>
0x1f454 <_ZN9Semaphore7DestroyEv+0x577c>
<_ZN9Semaphore7DestroyEv+0x5794>
0x1f3f0 <_ZN9Semaphore7DestroyEv+0x5718>
<_ZN9Semaphore7DestroyEv+0x5798>
0x1f4b0 <_ZN9Semaphore7DestroyEv+0x57d8>
<_ZN9Semaphore7DestroyEv+0x57e8>
0x1f4c0 <_ZN9Semaphore7DestroyEv+0x57e8>
<_ZN9Semaphore7DestroyEv+0x57e8>
<_ZN9Semaphore7DestroyEv+0x57b4>
0x2c000 <_ZN9Semaphore7DestroyEv+0x581c>
#5, 0x1f588 <_ZN9Semaphore7DestroyEv+0x58b0>
0x2c000 <_ZN9Semaphore7DestroyEv+0x582c>
0xb000 <_ZN9Semaphore7DestroyEv+0x57ac>
<_ZN9Semaphore7DestroyEv+0x5860>
0xd000 <_ZN9Semaphore7DestroyEv+0x57e4>
0xa000 <_ZN9Semaphore7DestroyEv+0x57e0>
0xc000 <_ZN9Semaphore7DestroyEv+0x57ec>
0xb000 <_ZN9Semaphore7DestroyEv+0x5824>
0xc000 <_ZN9Semaphore7DestroyEv+0x5838>
0xc000 <_ZN9Semaphore7DestroyEv+0x583c>
0xa000 <_ZN9Semaphore7DestroyEv+0x5838>
<_ZN6ChiLog9LogSystemEPKcS1_S1_S1_iS1_z@plt>
<_ZN9Semaphore7DestroyEv+0x58dc>
0x9000 <_ZN9Semaphore7DestroyEv+0x58d0>
0xa000 <_ZN9Semaphore7DestroyEv+0x58d8>
0x1f648 <_ZN9Semaphore7DestroyEv+0x5970>
<_ZN9Semaphore7DestroyEv+0x5a2c>
<_ZN9Semaphore7DestroyEv+0x5a40>
0x2c000 <_ZN9Semaphore7DestroyEv+0x59a4>
#0, 0x1f6f0 <_ZN9Semaphore7DestroyEv+0x5a18>
0x2c000 <_ZN9Semaphore7DestroyEv+0x59b4>
0xb000 <_ZN9Semaphore7DestroyEv+0x5934>
<_ZN9Semaphore7DestroyEv+0x59d8>
0xd000 <_ZN9Semaphore7DestroyEv+0x5968>
0xa000 <_ZN9Semaphore7DestroyEv+0x5960>
0xa000 <_ZN9Semaphore7DestroyEv+0x5964>
0xc000 <_ZN9Semaphore7DestroyEv+0x59a0>
0x9000 <_ZN9Semaphore7DestroyEv+0x599c>
0xa000 <_ZN9Semaphore7DestroyEv+0x59a4>
0xb000 <_ZN9Semaphore7DestroyEv+0x59ac>
<_ZN6ChiLog9LogSystemEPKcS1_S1_S1_iS1_z@plt>
<_ZN9Semaphore7DestroyEv+0x5a40>
<_ZN15ExtensionModule11GetInstanceEv@plt>
<_ZN9Semaphore7DestroyEv+0x5af4>
0x1f7bc <_ZN9Semaphore7DestroyEv+0x5ae4>
<_ZN15UsecaseSelector20IsJPEGSnapshotStreamEPK14camera3_stream@plt>
0x1f7c4 <_ZN9Semaphore7DestroyEv+0x5aec>
<_ZN15UsecaseSelector20IsHeicSnapshotStreamEPK14camera3_stream@plt>
0x1f7c4 <_ZN9Semaphore7DestroyEv+0x5aec>
<_ZN15UsecaseSelector20IsYUVOutResThresholdEP9ChiStream@plt>
0x1f7c4 <_ZN9Semaphore7DestroyEv+0x5aec>
<_ZN9Semaphore7DestroyEv+0x5aa4>
<_ZN9Semaphore7DestroyEv+0x5b08>
<_ZN9Semaphore7DestroyEv+0x5b08>
<_ZN9Semaphore7DestroyEv+0x5a94>
0x1f874 <_ZN9Semaphore7DestroyEv+0x5b9c>
<_ZN9Semaphore7DestroyEv+0x5b68>
<_ZN9Semaphore7DestroyEv+0x5ba4>
<_ZN9Semaphore7DestroyEv+0x5b9c>
0x1f820 <_ZN9Semaphore7DestroyEv+0x5b48>
0x1f820 <_ZN9Semaphore7DestroyEv+0x5b48>
0x1f820 <_ZN9Semaphore7DestroyEv+0x5b48>
<_ZN9Semaphore7DestroyEv+0x5b54>
<_ZN9Semaphore7DestroyEv+0x5b48>
<_ZN9Semaphore7DestroyEv+0x5ba8>
0x1f9d0 <_ZN9Semaphore7DestroyEv+0x5cf8>
<_ZN11ChiMetadata21InitializeMetadataOpsEP14ChiMetadataOps@plt>
0x1f908 <_ZN9Semaphore7DestroyEv+0x5c30>
<_ZN9Semaphore7DestroyEv+0x5cd0>
0x1f990 <_ZN9Semaphore7DestroyEv+0x5cb8>
#0, 0x1f990 <_ZN9Semaphore7DestroyEv+0x5cb8>
<_ZN15ExtensionModule11GetInstanceEv@plt>
<_ZN15ExtensionModule23GetAvailableRequestKeysEjPjjS0_@plt>
<_ZN11ChiMetadata10InitializeEPKjji@plt>
0x1f9b4 <_ZN9Semaphore7DestroyEv+0x5cdc>
0x1f9d0 <_ZN9Semaphore7DestroyEv+0x5cf8>
0x1fa04 <_ZN9Semaphore7DestroyEv+0x5d2c>
<_ZN9Semaphore7DestroyEv+0x5d28>
<_ZN15ExtensionModule11GetInstanceEv@plt>
<_ZN15ExtensionModule14GetMetadataOpsEP14ChiMetadataOps@plt>
0x1fb64 <_ZN9Semaphore7DestroyEv+0x5e8c>
0x1fc24 <_ZN9Semaphore7DestroyEv+0x5f4c>
0x1fce4 <_ZN9Semaphore7DestroyEv+0x600c>
0x1fda4 <_ZN9Semaphore7DestroyEv+0x60cc>
0x1fe64 <_ZN9Semaphore7DestroyEv+0x618c>
0x1ff24 <_ZN9Semaphore7DestroyEv+0x624c>
0x1ffe4 <_ZN9Semaphore7DestroyEv+0x630c>
0x200a4 <_ZN9Semaphore7DestroyEv+0x63cc>
0x20164 <_ZN9Semaphore7DestroyEv+0x648c>
0x20224 <_ZN9Semaphore7DestroyEv+0x654c>
0x202e4 <_ZN9Semaphore7DestroyEv+0x660c>
0x203a4 <_ZN9Semaphore7DestroyEv+0x66cc>
0x20464 <_ZN9Semaphore7DestroyEv+0x678c>
0x20524 <_ZN9Semaphore7DestroyEv+0x684c>
0x205e4 <_ZN9Semaphore7DestroyEv+0x690c>
0x206a4 <_ZN9Semaphore7DestroyEv+0x69cc>
0x20764 <_ZN9Semaphore7DestroyEv+0x6a8c>
0x20824 <_ZN9Semaphore7DestroyEv+0x6b4c>
0x208e4 <_ZN9Semaphore7DestroyEv+0x6c0c>
0x209a4 <_ZN9Semaphore7DestroyEv+0x6ccc>
0x20a64 <_ZN9Semaphore7DestroyEv+0x6d8c>
0x20b24 <_ZN9Semaphore7DestroyEv+0x6e4c>
0x20be4 <_ZN9Semaphore7DestroyEv+0x6f0c>
0x20ca4 <_ZN9Semaphore7DestroyEv+0x6fcc>
0x20d64 <_ZN9Semaphore7DestroyEv+0x708c>
0x20e24 <_ZN9Semaphore7DestroyEv+0x714c>
0x20ee4 <_ZN9Semaphore7DestroyEv+0x720c>
0x20fa4 <_ZN9Semaphore7DestroyEv+0x72cc>
0x21064 <_ZN9Semaphore7DestroyEv+0x738c>
0x21124 <_ZN9Semaphore7DestroyEv+0x744c>
0x211e4 <_ZN9Semaphore7DestroyEv+0x750c>
0x212a4 <_ZN9Semaphore7DestroyEv+0x75cc>
0x21364 <_ZN9Semaphore7DestroyEv+0x768c>
0x21424 <_ZN9Semaphore7DestroyEv+0x774c>
0x214e4 <_ZN9Semaphore7DestroyEv+0x780c>
0x215a4 <_ZN9Semaphore7DestroyEv+0x78cc>
0x21664 <_ZN9Semaphore7DestroyEv+0x798c>
0x21724 <_ZN9Semaphore7DestroyEv+0x7a4c>
0x217e4 <_ZN9Semaphore7DestroyEv+0x7b0c>
<_ZN9Semaphore7DestroyEv+0x7bc8>
0x2c000 <_ZN9Semaphore7DestroyEv+0x5ec0>
#6, 0x2189c <_ZN9Semaphore7DestroyEv+0x7bc4>
0x2c000 <_ZN9Semaphore7DestroyEv+0x5ed0>
<_ZN9Semaphore7DestroyEv+0x5efc>
0x9000 <_ZN9Semaphore7DestroyEv+0x5e58>
0xd000 <_ZN9Semaphore7DestroyEv+0x5e84>
0x9000 <_ZN9Semaphore7DestroyEv+0x5e78>
0xd000 <_ZN9Semaphore7DestroyEv+0x5e8c>
0xb000 <_ZN9Semaphore7DestroyEv+0x5e88>
0x9000 <_ZN9Semaphore7DestroyEv+0x5ea4>
0x9000 <_ZN9Semaphore7DestroyEv+0x5ec0>
0xc000 <_ZN9Semaphore7DestroyEv+0x5ed4>
0xd000 <_ZN9Semaphore7DestroyEv+0x5edc>
0x9000 <_ZN9Semaphore7DestroyEv+0x5ed0>
0xb000 <_ZN9Semaphore7DestroyEv+0x5edc>
<_ZN9Semaphore7DestroyEv+0x7bc0>
0x2c000 <_ZN9Semaphore7DestroyEv+0x5f80>
#6, 0x2189c <_ZN9Semaphore7DestroyEv+0x7bc4>
0x2c000 <_ZN9Semaphore7DestroyEv+0x5f90>
<_ZN9Semaphore7DestroyEv+0x5fbc>
0x9000 <_ZN9Semaphore7DestroyEv+0x5f18>
0xd000 <_ZN9Semaphore7DestroyEv+0x5f44>
0x9000 <_ZN9Semaphore7DestroyEv+0x5f38>
0xd000 <_ZN9Semaphore7DestroyEv+0x5f4c>
0xc000 <_ZN9Semaphore7DestroyEv+0x5f4c>
0x9000 <_ZN9Semaphore7DestroyEv+0x5f64>
0x9000 <_ZN9Semaphore7DestroyEv+0x5f80>
0xc000 <_ZN9Semaphore7DestroyEv+0x5f94>
0xd000 <_ZN9Semaphore7DestroyEv+0x5f9c>
0x9000 <_ZN9Semaphore7DestroyEv+0x5f90>
0xc000 <_ZN9Semaphore7DestroyEv+0x5fa0>
<_ZN9Semaphore7DestroyEv+0x7bc0>
0x2c000 <_ZN9Semaphore7DestroyEv+0x6040>
#6, 0x2189c <_ZN9Semaphore7DestroyEv+0x7bc4>
0x2c000 <_ZN9Semaphore7DestroyEv+0x6050>
<_ZN9Semaphore7DestroyEv+0x607c>
0x9000 <_ZN9Semaphore7DestroyEv+0x5fd8>
0xd000 <_ZN9Semaphore7DestroyEv+0x6004>
0x9000 <_ZN9Semaphore7DestroyEv+0x5ff8>
0xd000 <_ZN9Semaphore7DestroyEv+0x600c>
0xb000 <_ZN9Semaphore7DestroyEv+0x6008>
0x9000 <_ZN9Semaphore7DestroyEv+0x6024>
0x9000 <_ZN9Semaphore7DestroyEv+0x6040>
0xc000 <_ZN9Semaphore7DestroyEv+0x6054>
0xd000 <_ZN9Semaphore7DestroyEv+0x605c>
0x9000 <_ZN9Semaphore7DestroyEv+0x6050>
0xb000 <_ZN9Semaphore7DestroyEv+0x605c>
<_ZN9Semaphore7DestroyEv+0x7bc0>
0x2c000 <_ZN9Semaphore7DestroyEv+0x6100>
#6, 0x2189c <_ZN9Semaphore7DestroyEv+0x7bc4>
0x2c000 <_ZN9Semaphore7DestroyEv+0x6110>
<_ZN9Semaphore7DestroyEv+0x613c>
0x9000 <_ZN9Semaphore7DestroyEv+0x6098>
0xd000 <_ZN9Semaphore7DestroyEv+0x60c4>
0x9000 <_ZN9Semaphore7DestroyEv+0x60b8>
0xd000 <_ZN9Semaphore7DestroyEv+0x60cc>
0xa000 <_ZN9Semaphore7DestroyEv+0x60c4>
0x9000 <_ZN9Semaphore7DestroyEv+0x60e4>
0x9000 <_ZN9Semaphore7DestroyEv+0x6100>
0xc000 <_ZN9Semaphore7DestroyEv+0x6114>
0xd000 <_ZN9Semaphore7DestroyEv+0x611c>
0x9000 <_ZN9Semaphore7DestroyEv+0x6110>
0xa000 <_ZN9Semaphore7DestroyEv+0x6118>
<_ZN9Semaphore7DestroyEv+0x7bc0>
0x2c000 <_ZN9Semaphore7DestroyEv+0x61c0>
#6, 0x2189c <_ZN9Semaphore7DestroyEv+0x7bc4>
0x2c000 <_ZN9Semaphore7DestroyEv+0x61d0>
<_ZN9Semaphore7DestroyEv+0x61fc>
0x9000 <_ZN9Semaphore7DestroyEv+0x6158>
0xd000 <_ZN9Semaphore7DestroyEv+0x6184>
0x9000 <_ZN9Semaphore7DestroyEv+0x6178>
0xd000 <_ZN9Semaphore7DestroyEv+0x618c>
0xa000 <_ZN9Semaphore7DestroyEv+0x6184>
0x9000 <_ZN9Semaphore7DestroyEv+0x61a4>
0x9000 <_ZN9Semaphore7DestroyEv+0x61c0>
0xc000 <_ZN9Semaphore7DestroyEv+0x61d4>
0xd000 <_ZN9Semaphore7DestroyEv+0x61dc>
0x9000 <_ZN9Semaphore7DestroyEv+0x61d0>
0xa000 <_ZN9Semaphore7DestroyEv+0x61d8>
<_ZN9Semaphore7DestroyEv+0x7bc0>
0x2c000 <_ZN9Semaphore7DestroyEv+0x6280>
#6, 0x2189c <_ZN9Semaphore7DestroyEv+0x7bc4>
0x2c000 <_ZN9Semaphore7DestroyEv+0x6290>
<_ZN9Semaphore7DestroyEv+0x62bc>
0x9000 <_ZN9Semaphore7DestroyEv+0x6218>
0xd000 <_ZN9Semaphore7DestroyEv+0x6244>
0x9000 <_ZN9Semaphore7DestroyEv+0x6238>
0xd000 <_ZN9Semaphore7DestroyEv+0x624c>
0xc000 <_ZN9Semaphore7DestroyEv+0x624c>
0x9000 <_ZN9Semaphore7DestroyEv+0x6264>
0x9000 <_ZN9Semaphore7DestroyEv+0x6280>
0xc000 <_ZN9Semaphore7DestroyEv+0x6294>
0xd000 <_ZN9Semaphore7DestroyEv+0x629c>
0x9000 <_ZN9Semaphore7DestroyEv+0x6290>
0xc000 <_ZN9Semaphore7DestroyEv+0x62a0>
<_ZN9Semaphore7DestroyEv+0x7bc0>
0x2c000 <_ZN9Semaphore7DestroyEv+0x6340>
#6, 0x2189c <_ZN9Semaphore7DestroyEv+0x7bc4>
0x2c000 <_ZN9Semaphore7DestroyEv+0x6350>
<_ZN9Semaphore7DestroyEv+0x637c>
0x9000 <_ZN9Semaphore7DestroyEv+0x62d4>
0xd000 <_ZN9Semaphore7DestroyEv+0x6300>
0x9000 <_ZN9Semaphore7DestroyEv+0x62f4>
0xd000 <_ZN9Semaphore7DestroyEv+0x6308>
0xc000 <_ZN9Semaphore7DestroyEv+0x6308>
0x9000 <_ZN9Semaphore7DestroyEv+0x6320>
0x9000 <_ZN9Semaphore7DestroyEv+0x633c>
0xc000 <_ZN9Semaphore7DestroyEv+0x6350>
0xd000 <_ZN9Semaphore7DestroyEv+0x6358>
0x9000 <_ZN9Semaphore7DestroyEv+0x634c>
0xc000 <_ZN9Semaphore7DestroyEv+0x635c>
<_ZN9Semaphore7DestroyEv+0x7bc0>
0x2c000 <_ZN9Semaphore7DestroyEv+0x63fc>
#6, 0x2189c <_ZN9Semaphore7DestroyEv+0x7bc4>
0x2c000 <_ZN9Semaphore7DestroyEv+0x640c>
<_ZN9Semaphore7DestroyEv+0x643c>
0x9000 <_ZN9Semaphore7DestroyEv+0x6394>
0xd000 <_ZN9Semaphore7DestroyEv+0x63c0>
0x9000 <_ZN9Semaphore7DestroyEv+0x63b4>
0xd000 <_ZN9Semaphore7DestroyEv+0x63c8>
0x9000 <_ZN9Semaphore7DestroyEv+0x63bc>
0x9000 <_ZN9Semaphore7DestroyEv+0x63e0>
0x9000 <_ZN9Semaphore7DestroyEv+0x63fc>
0xc000 <_ZN9Semaphore7DestroyEv+0x6410>
0xd000 <_ZN9Semaphore7DestroyEv+0x6418>
0x9000 <_ZN9Semaphore7DestroyEv+0x640c>
0x9000 <_ZN9Semaphore7DestroyEv+0x6410>
<_ZN9Semaphore7DestroyEv+0x7bc0>
0x2c000 <_ZN9Semaphore7DestroyEv+0x64bc>
#6, 0x2189c <_ZN9Semaphore7DestroyEv+0x7bc4>
0x2c000 <_ZN9Semaphore7DestroyEv+0x64cc>
<_ZN9Semaphore7DestroyEv+0x64fc>
0x9000 <_ZN9Semaphore7DestroyEv+0x6454>
0xd000 <_ZN9Semaphore7DestroyEv+0x6480>
0x9000 <_ZN9Semaphore7DestroyEv+0x6474>
0xd000 <_ZN9Semaphore7DestroyEv+0x6488>
0xb000 <_ZN9Semaphore7DestroyEv+0x6484>
0x9000 <_ZN9Semaphore7DestroyEv+0x64a0>
0x9000 <_ZN9Semaphore7DestroyEv+0x64bc>
0xc000 <_ZN9Semaphore7DestroyEv+0x64d0>
0xd000 <_ZN9Semaphore7DestroyEv+0x64d8>
0x9000 <_ZN9Semaphore7DestroyEv+0x64cc>
0xb000 <_ZN9Semaphore7DestroyEv+0x64d8>
<_ZN9Semaphore7DestroyEv+0x7bc0>
0x2c000 <_ZN9Semaphore7DestroyEv+0x657c>
#6, 0x2189c <_ZN9Semaphore7DestroyEv+0x7bc4>
0x2c000 <_ZN9Semaphore7DestroyEv+0x658c>
<_ZN9Semaphore7DestroyEv+0x65bc>
0x9000 <_ZN9Semaphore7DestroyEv+0x6514>
0xd000 <_ZN9Semaphore7DestroyEv+0x6540>
0x9000 <_ZN9Semaphore7DestroyEv+0x6534>
0xd000 <_ZN9Semaphore7DestroyEv+0x6548>
0xb000 <_ZN9Semaphore7DestroyEv+0x6544>
0x9000 <_ZN9Semaphore7DestroyEv+0x6560>
0x9000 <_ZN9Semaphore7DestroyEv+0x657c>
0xc000 <_ZN9Semaphore7DestroyEv+0x6590>
0xd000 <_ZN9Semaphore7DestroyEv+0x6598>
0x9000 <_ZN9Semaphore7DestroyEv+0x658c>
0xb000 <_ZN9Semaphore7DestroyEv+0x6598>
<_ZN9Semaphore7DestroyEv+0x7bc0>
0x2c000 <_ZN9Semaphore7DestroyEv+0x663c>
#6, 0x2189c <_ZN9Semaphore7DestroyEv+0x7bc4>
0x2c000 <_ZN9Semaphore7DestroyEv+0x664c>
<_ZN9Semaphore7DestroyEv+0x667c>
0x9000 <_ZN9Semaphore7DestroyEv+0x65d4>
0xd000 <_ZN9Semaphore7DestroyEv+0x6600>
0x9000 <_ZN9Semaphore7DestroyEv+0x65f4>
0xd000 <_ZN9Semaphore7DestroyEv+0x6608>
0xd000 <_ZN9Semaphore7DestroyEv+0x660c>
0x9000 <_ZN9Semaphore7DestroyEv+0x6620>
0x9000 <_ZN9Semaphore7DestroyEv+0x663c>
0xc000 <_ZN9Semaphore7DestroyEv+0x6650>
0xd000 <_ZN9Semaphore7DestroyEv+0x6658>
0x9000 <_ZN9Semaphore7DestroyEv+0x664c>
0xd000 <_ZN9Semaphore7DestroyEv+0x6660>
<_ZN9Semaphore7DestroyEv+0x7bc0>
0x2c000 <_ZN9Semaphore7DestroyEv+0x66fc>
#6, 0x2189c <_ZN9Semaphore7DestroyEv+0x7bc4>
0x2c000 <_ZN9Semaphore7DestroyEv+0x670c>
<_ZN9Semaphore7DestroyEv+0x673c>
0x9000 <_ZN9Semaphore7DestroyEv+0x6694>
0xd000 <_ZN9Semaphore7DestroyEv+0x66c0>
0x9000 <_ZN9Semaphore7DestroyEv+0x66b4>
0xd000 <_ZN9Semaphore7DestroyEv+0x66c8>
0xc000 <_ZN9Semaphore7DestroyEv+0x66c8>
0x9000 <_ZN9Semaphore7DestroyEv+0x66e0>
0x9000 <_ZN9Semaphore7DestroyEv+0x66fc>
0xc000 <_ZN9Semaphore7DestroyEv+0x6710>
0xd000 <_ZN9Semaphore7DestroyEv+0x6718>
0x9000 <_ZN9Semaphore7DestroyEv+0x670c>
0xc000 <_ZN9Semaphore7DestroyEv+0x671c>
<_ZN9Semaphore7DestroyEv+0x7bc0>
0x2c000 <_ZN9Semaphore7DestroyEv+0x67bc>
#6, 0x2189c <_ZN9Semaphore7DestroyEv+0x7bc4>
0x2c000 <_ZN9Semaphore7DestroyEv+0x67cc>
<_ZN9Semaphore7DestroyEv+0x67fc>
0x9000 <_ZN9Semaphore7DestroyEv+0x6754>
0xd000 <_ZN9Semaphore7DestroyEv+0x6780>
0x9000 <_ZN9Semaphore7DestroyEv+0x6774>
0xd000 <_ZN9Semaphore7DestroyEv+0x6788>
0xa000 <_ZN9Semaphore7DestroyEv+0x6780>
0x9000 <_ZN9Semaphore7DestroyEv+0x67a0>
0x9000 <_ZN9Semaphore7DestroyEv+0x67bc>
0xc000 <_ZN9Semaphore7DestroyEv+0x67d0>
0xd000 <_ZN9Semaphore7DestroyEv+0x67d8>
0x9000 <_ZN9Semaphore7DestroyEv+0x67cc>
0xa000 <_ZN9Semaphore7DestroyEv+0x67d4>
<_ZN9Semaphore7DestroyEv+0x7bc0>
0x2c000 <_ZN9Semaphore7DestroyEv+0x687c>
#6, 0x2189c <_ZN9Semaphore7DestroyEv+0x7bc4>
0x2c000 <_ZN9Semaphore7DestroyEv+0x688c>
<_ZN9Semaphore7DestroyEv+0x68bc>
0x9000 <_ZN9Semaphore7DestroyEv+0x6814>
0xd000 <_ZN9Semaphore7DestroyEv+0x6840>
0x9000 <_ZN9Semaphore7DestroyEv+0x6834>
0xd000 <_ZN9Semaphore7DestroyEv+0x6848>
0xb000 <_ZN9Semaphore7DestroyEv+0x6844>
0x9000 <_ZN9Semaphore7DestroyEv+0x6860>
0x9000 <_ZN9Semaphore7DestroyEv+0x687c>
0xc000 <_ZN9Semaphore7DestroyEv+0x6890>
0xd000 <_ZN9Semaphore7DestroyEv+0x6898>
0x9000 <_ZN9Semaphore7DestroyEv+0x688c>
0xb000 <_ZN9Semaphore7DestroyEv+0x6898>
<_ZN9Semaphore7DestroyEv+0x7bc0>
0x2c000 <_ZN9Semaphore7DestroyEv+0x693c>
#6, 0x2189c <_ZN9Semaphore7DestroyEv+0x7bc4>
0x2c000 <_ZN9Semaphore7DestroyEv+0x694c>
<_ZN9Semaphore7DestroyEv+0x697c>
0x9000 <_ZN9Semaphore7DestroyEv+0x68d4>
0xd000 <_ZN9Semaphore7DestroyEv+0x6900>
0x9000 <_ZN9Semaphore7DestroyEv+0x68f4>
0xd000 <_ZN9Semaphore7DestroyEv+0x6908>
0xd000 <_ZN9Semaphore7DestroyEv+0x690c>
0x9000 <_ZN9Semaphore7DestroyEv+0x6920>
0x9000 <_ZN9Semaphore7DestroyEv+0x693c>
0xc000 <_ZN9Semaphore7DestroyEv+0x6950>
0xd000 <_ZN9Semaphore7DestroyEv+0x6958>
0x9000 <_ZN9Semaphore7DestroyEv+0x694c>
0xd000 <_ZN9Semaphore7DestroyEv+0x6960>
<_ZN9Semaphore7DestroyEv+0x7bc0>
0x2c000 <_ZN9Semaphore7DestroyEv+0x69fc>
#6, 0x2189c <_ZN9Semaphore7DestroyEv+0x7bc4>
0x2c000 <_ZN9Semaphore7DestroyEv+0x6a0c>
<_ZN9Semaphore7DestroyEv+0x6a3c>
0x9000 <_ZN9Semaphore7DestroyEv+0x6994>
0xd000 <_ZN9Semaphore7DestroyEv+0x69c0>
0x9000 <_ZN9Semaphore7DestroyEv+0x69b4>
0xd000 <_ZN9Semaphore7DestroyEv+0x69c8>
0xc000 <_ZN9Semaphore7DestroyEv+0x69c8>
0x9000 <_ZN9Semaphore7DestroyEv+0x69e0>
0x9000 <_ZN9Semaphore7DestroyEv+0x69fc>
0xc000 <_ZN9Semaphore7DestroyEv+0x6a10>
0xd000 <_ZN9Semaphore7DestroyEv+0x6a18>
0x9000 <_ZN9Semaphore7DestroyEv+0x6a0c>
0xc000 <_ZN9Semaphore7DestroyEv+0x6a1c>
<_ZN9Semaphore7DestroyEv+0x7bc0>
0x2c000 <_ZN9Semaphore7DestroyEv+0x6abc>
#6, 0x2189c <_ZN9Semaphore7DestroyEv+0x7bc4>
0x2c000 <_ZN9Semaphore7DestroyEv+0x6acc>
<_ZN9Semaphore7DestroyEv+0x6afc>
0x9000 <_ZN9Semaphore7DestroyEv+0x6a54>
0xd000 <_ZN9Semaphore7DestroyEv+0x6a80>
0x9000 <_ZN9Semaphore7DestroyEv+0x6a74>
0xd000 <_ZN9Semaphore7DestroyEv+0x6a88>
0x9000 <_ZN9Semaphore7DestroyEv+0x6a7c>
0x9000 <_ZN9Semaphore7DestroyEv+0x6aa0>
0x9000 <_ZN9Semaphore7DestroyEv+0x6abc>
0xc000 <_ZN9Semaphore7DestroyEv+0x6ad0>
0xd000 <_ZN9Semaphore7DestroyEv+0x6ad8>
0x9000 <_ZN9Semaphore7DestroyEv+0x6acc>
0x9000 <_ZN9Semaphore7DestroyEv+0x6ad0>
<_ZN9Semaphore7DestroyEv+0x7bc0>
0x2c000 <_ZN9Semaphore7DestroyEv+0x6b7c>
#6, 0x2189c <_ZN9Semaphore7DestroyEv+0x7bc4>
0x2c000 <_ZN9Semaphore7DestroyEv+0x6b8c>
<_ZN9Semaphore7DestroyEv+0x6bbc>
0x9000 <_ZN9Semaphore7DestroyEv+0x6b14>
0xd000 <_ZN9Semaphore7DestroyEv+0x6b40>
0x9000 <_ZN9Semaphore7DestroyEv+0x6b34>
0xd000 <_ZN9Semaphore7DestroyEv+0x6b48>
0xd000 <_ZN9Semaphore7DestroyEv+0x6b4c>
0x9000 <_ZN9Semaphore7DestroyEv+0x6b60>
0x9000 <_ZN9Semaphore7DestroyEv+0x6b7c>
0xc000 <_ZN9Semaphore7DestroyEv+0x6b90>
0xd000 <_ZN9Semaphore7DestroyEv+0x6b98>
0x9000 <_ZN9Semaphore7DestroyEv+0x6b8c>
0xd000 <_ZN9Semaphore7DestroyEv+0x6ba0>
<_ZN9Semaphore7DestroyEv+0x7bc0>
0x2c000 <_ZN9Semaphore7DestroyEv+0x6c3c>
#6, 0x2189c <_ZN9Semaphore7DestroyEv+0x7bc4>
0x2c000 <_ZN9Semaphore7DestroyEv+0x6c4c>
<_ZN9Semaphore7DestroyEv+0x6c7c>
0x9000 <_ZN9Semaphore7DestroyEv+0x6bd4>
0xd000 <_ZN9Semaphore7DestroyEv+0x6c00>
0x9000 <_ZN9Semaphore7DestroyEv+0x6bf4>
0xd000 <_ZN9Semaphore7DestroyEv+0x6c08>
0xb000 <_ZN9Semaphore7DestroyEv+0x6c04>
0x9000 <_ZN9Semaphore7DestroyEv+0x6c20>
0x9000 <_ZN9Semaphore7DestroyEv+0x6c3c>
0xc000 <_ZN9Semaphore7DestroyEv+0x6c50>
0xd000 <_ZN9Semaphore7DestroyEv+0x6c58>
0x9000 <_ZN9Semaphore7DestroyEv+0x6c4c>
0xb000 <_ZN9Semaphore7DestroyEv+0x6c58>
<_ZN9Semaphore7DestroyEv+0x7bc0>
0x2c000 <_ZN9Semaphore7DestroyEv+0x6cfc>
#6, 0x2189c <_ZN9Semaphore7DestroyEv+0x7bc4>
0x2c000 <_ZN9Semaphore7DestroyEv+0x6d0c>
<_ZN9Semaphore7DestroyEv+0x6d3c>
0x9000 <_ZN9Semaphore7DestroyEv+0x6c94>
0xd000 <_ZN9Semaphore7DestroyEv+0x6cc0>
0x9000 <_ZN9Semaphore7DestroyEv+0x6cb4>
0xd000 <_ZN9Semaphore7DestroyEv+0x6cc8>
0xb000 <_ZN9Semaphore7DestroyEv+0x6cc4>
0x9000 <_ZN9Semaphore7DestroyEv+0x6ce0>
0x9000 <_ZN9Semaphore7DestroyEv+0x6cfc>
0xc000 <_ZN9Semaphore7DestroyEv+0x6d10>
0xd000 <_ZN9Semaphore7DestroyEv+0x6d18>
0x9000 <_ZN9Semaphore7DestroyEv+0x6d0c>
0xb000 <_ZN9Semaphore7DestroyEv+0x6d18>
<_ZN9Semaphore7DestroyEv+0x7bc0>
0x2c000 <_ZN9Semaphore7DestroyEv+0x6dbc>
#6, 0x2189c <_ZN9Semaphore7DestroyEv+0x7bc4>
0x2c000 <_ZN9Semaphore7DestroyEv+0x6dcc>
<_ZN9Semaphore7DestroyEv+0x6dfc>
0x9000 <_ZN9Semaphore7DestroyEv+0x6d54>
0xd000 <_ZN9Semaphore7DestroyEv+0x6d80>
0x9000 <_ZN9Semaphore7DestroyEv+0x6d74>
0xd000 <_ZN9Semaphore7DestroyEv+0x6d88>
0xd000 <_ZN9Semaphore7DestroyEv+0x6d8c>
0x9000 <_ZN9Semaphore7DestroyEv+0x6da0>
0x9000 <_ZN9Semaphore7DestroyEv+0x6dbc>
0xc000 <_ZN9Semaphore7DestroyEv+0x6dd0>
0xd000 <_ZN9Semaphore7DestroyEv+0x6dd8>
0x9000 <_ZN9Semaphore7DestroyEv+0x6dcc>
0xd000 <_ZN9Semaphore7DestroyEv+0x6de0>
<_ZN9Semaphore7DestroyEv+0x7bc0>
0x2c000 <_ZN9Semaphore7DestroyEv+0x6e7c>
#6, 0x2189c <_ZN9Semaphore7DestroyEv+0x7bc4>
0x2c000 <_ZN9Semaphore7DestroyEv+0x6e8c>
<_ZN9Semaphore7DestroyEv+0x6ebc>
0x9000 <_ZN9Semaphore7DestroyEv+0x6e14>
0xd000 <_ZN9Semaphore7DestroyEv+0x6e40>
0x9000 <_ZN9Semaphore7DestroyEv+0x6e34>
0xd000 <_ZN9Semaphore7DestroyEv+0x6e48>
0xd000 <_ZN9Semaphore7DestroyEv+0x6e4c>
0x9000 <_ZN9Semaphore7DestroyEv+0x6e60>
0x9000 <_ZN9Semaphore7DestroyEv+0x6e7c>
0xc000 <_ZN9Semaphore7DestroyEv+0x6e90>
0xd000 <_ZN9Semaphore7DestroyEv+0x6e98>
0x9000 <_ZN9Semaphore7DestroyEv+0x6e8c>
0xd000 <_ZN9Semaphore7DestroyEv+0x6ea0>
<_ZN9Semaphore7DestroyEv+0x7bc0>
0x2c000 <_ZN9Semaphore7DestroyEv+0x6f3c>
#6, 0x2189c <_ZN9Semaphore7DestroyEv+0x7bc4>
0x2c000 <_ZN9Semaphore7DestroyEv+0x6f4c>
<_ZN9Semaphore7DestroyEv+0x6f7c>
0x9000 <_ZN9Semaphore7DestroyEv+0x6ed4>
0xd000 <_ZN9Semaphore7DestroyEv+0x6f00>
0x9000 <_ZN9Semaphore7DestroyEv+0x6ef4>
0xd000 <_ZN9Semaphore7DestroyEv+0x6f08>
0xb000 <_ZN9Semaphore7DestroyEv+0x6f04>
0x9000 <_ZN9Semaphore7DestroyEv+0x6f20>
0x9000 <_ZN9Semaphore7DestroyEv+0x6f3c>
0xc000 <_ZN9Semaphore7DestroyEv+0x6f50>
0xd000 <_ZN9Semaphore7DestroyEv+0x6f58>
0x9000 <_ZN9Semaphore7DestroyEv+0x6f4c>
0xb000 <_ZN9Semaphore7DestroyEv+0x6f58>
<_ZN9Semaphore7DestroyEv+0x7bc0>
0x2c000 <_ZN9Semaphore7DestroyEv+0x6ffc>
#6, 0x2189c <_ZN9Semaphore7DestroyEv+0x7bc4>
0x2c000 <_ZN9Semaphore7DestroyEv+0x700c>
<_ZN9Semaphore7DestroyEv+0x703c>
0x9000 <_ZN9Semaphore7DestroyEv+0x6f94>
0xd000 <_ZN9Semaphore7DestroyEv+0x6fc0>
0x9000 <_ZN9Semaphore7DestroyEv+0x6fb4>
0xd000 <_ZN9Semaphore7DestroyEv+0x6fc8>
0xa000 <_ZN9Semaphore7DestroyEv+0x6fc0>
0x9000 <_ZN9Semaphore7DestroyEv+0x6fe0>
0x9000 <_ZN9Semaphore7DestroyEv+0x6ffc>
0xc000 <_ZN9Semaphore7DestroyEv+0x7010>
0xd000 <_ZN9Semaphore7DestroyEv+0x7018>
0x9000 <_ZN9Semaphore7DestroyEv+0x700c>
0xa000 <_ZN9Semaphore7DestroyEv+0x7014>
<_ZN9Semaphore7DestroyEv+0x7bc0>
0x2c000 <_ZN9Semaphore7DestroyEv+0x70bc>
#6, 0x2189c <_ZN9Semaphore7DestroyEv+0x7bc4>
0x2c000 <_ZN9Semaphore7DestroyEv+0x70cc>
<_ZN9Semaphore7DestroyEv+0x70fc>
0x9000 <_ZN9Semaphore7DestroyEv+0x7054>
0xd000 <_ZN9Semaphore7DestroyEv+0x7080>
0x9000 <_ZN9Semaphore7DestroyEv+0x7074>
0xd000 <_ZN9Semaphore7DestroyEv+0x7088>
0x9000 <_ZN9Semaphore7DestroyEv+0x707c>
0x9000 <_ZN9Semaphore7DestroyEv+0x70a0>
0x9000 <_ZN9Semaphore7DestroyEv+0x70bc>
0xc000 <_ZN9Semaphore7DestroyEv+0x70d0>
0xd000 <_ZN9Semaphore7DestroyEv+0x70d8>
0x9000 <_ZN9Semaphore7DestroyEv+0x70cc>
0x9000 <_ZN9Semaphore7DestroyEv+0x70d0>
<_ZN9Semaphore7DestroyEv+0x7bc0>
0x2c000 <_ZN9Semaphore7DestroyEv+0x717c>
#6, 0x2189c <_ZN9Semaphore7DestroyEv+0x7bc4>
0x2c000 <_ZN9Semaphore7DestroyEv+0x718c>
<_ZN9Semaphore7DestroyEv+0x71bc>
0x9000 <_ZN9Semaphore7DestroyEv+0x7114>
0xd000 <_ZN9Semaphore7DestroyEv+0x7140>
0x9000 <_ZN9Semaphore7DestroyEv+0x7134>
0xd000 <_ZN9Semaphore7DestroyEv+0x7148>
0xb000 <_ZN9Semaphore7DestroyEv+0x7144>
0x9000 <_ZN9Semaphore7DestroyEv+0x7160>
0x9000 <_ZN9Semaphore7DestroyEv+0x717c>
0xc000 <_ZN9Semaphore7DestroyEv+0x7190>
0xd000 <_ZN9Semaphore7DestroyEv+0x7198>
0x9000 <_ZN9Semaphore7DestroyEv+0x718c>
0xb000 <_ZN9Semaphore7DestroyEv+0x7198>
<_ZN9Semaphore7DestroyEv+0x7bc0>
0x2c000 <_ZN9Semaphore7DestroyEv+0x723c>
#6, 0x2189c <_ZN9Semaphore7DestroyEv+0x7bc4>
0x2c000 <_ZN9Semaphore7DestroyEv+0x724c>
<_ZN9Semaphore7DestroyEv+0x727c>
0x9000 <_ZN9Semaphore7DestroyEv+0x71d4>
0xd000 <_ZN9Semaphore7DestroyEv+0x7200>
0x9000 <_ZN9Semaphore7DestroyEv+0x71f4>
0xd000 <_ZN9Semaphore7DestroyEv+0x7208>
0x9000 <_ZN9Semaphore7DestroyEv+0x71fc>
0x9000 <_ZN9Semaphore7DestroyEv+0x7220>
0x9000 <_ZN9Semaphore7DestroyEv+0x723c>
0xc000 <_ZN9Semaphore7DestroyEv+0x7250>
0xd000 <_ZN9Semaphore7DestroyEv+0x7258>
0x9000 <_ZN9Semaphore7DestroyEv+0x724c>
0x9000 <_ZN9Semaphore7DestroyEv+0x7250>
<_ZN9Semaphore7DestroyEv+0x7bc0>
0x2c000 <_ZN9Semaphore7DestroyEv+0x72fc>
#6, 0x2189c <_ZN9Semaphore7DestroyEv+0x7bc4>
0x2c000 <_ZN9Semaphore7DestroyEv+0x730c>
<_ZN9Semaphore7DestroyEv+0x733c>
0x9000 <_ZN9Semaphore7DestroyEv+0x7294>
0xd000 <_ZN9Semaphore7DestroyEv+0x72c0>
0x9000 <_ZN9Semaphore7DestroyEv+0x72b4>
0xd000 <_ZN9Semaphore7DestroyEv+0x72c8>
0x9000 <_ZN9Semaphore7DestroyEv+0x72bc>
0x9000 <_ZN9Semaphore7DestroyEv+0x72dc>
0x9000 <_ZN9Semaphore7DestroyEv+0x72f8>
0xc000 <_ZN9Semaphore7DestroyEv+0x730c>
0xd000 <_ZN9Semaphore7DestroyEv+0x7314>
0x9000 <_ZN9Semaphore7DestroyEv+0x7308>
0x9000 <_ZN9Semaphore7DestroyEv+0x730c>
<_ZN9Semaphore7DestroyEv+0x7bc0>
0x2c000 <_ZN9Semaphore7DestroyEv+0x73b8>
#6, 0x2189c <_ZN9Semaphore7DestroyEv+0x7bc4>
0x2c000 <_ZN9Semaphore7DestroyEv+0x73c8>
<_ZN9Semaphore7DestroyEv+0x73fc>
0x9000 <_ZN9Semaphore7DestroyEv+0x7350>
0xd000 <_ZN9Semaphore7DestroyEv+0x737c>
0x9000 <_ZN9Semaphore7DestroyEv+0x7370>
0xd000 <_ZN9Semaphore7DestroyEv+0x7384>
0x9000 <_ZN9Semaphore7DestroyEv+0x7378>
0x9000 <_ZN9Semaphore7DestroyEv+0x739c>
0x9000 <_ZN9Semaphore7DestroyEv+0x73b8>
0xc000 <_ZN9Semaphore7DestroyEv+0x73cc>
0xd000 <_ZN9Semaphore7DestroyEv+0x73d4>
0x9000 <_ZN9Semaphore7DestroyEv+0x73c8>
0x9000 <_ZN9Semaphore7DestroyEv+0x73cc>
<_ZN9Semaphore7DestroyEv+0x7bc0>
0x2c000 <_ZN9Semaphore7DestroyEv+0x7478>
#6, 0x2189c <_ZN9Semaphore7DestroyEv+0x7bc4>
0x2c000 <_ZN9Semaphore7DestroyEv+0x7488>
<_ZN9Semaphore7DestroyEv+0x74bc>
0x9000 <_ZN9Semaphore7DestroyEv+0x7410>
0xd000 <_ZN9Semaphore7DestroyEv+0x743c>
0x9000 <_ZN9Semaphore7DestroyEv+0x7430>
0xd000 <_ZN9Semaphore7DestroyEv+0x7444>
0x9000 <_ZN9Semaphore7DestroyEv+0x7438>
0x9000 <_ZN9Semaphore7DestroyEv+0x745c>
0x9000 <_ZN9Semaphore7DestroyEv+0x7478>
0xc000 <_ZN9Semaphore7DestroyEv+0x748c>
0xd000 <_ZN9Semaphore7DestroyEv+0x7494>
0x9000 <_ZN9Semaphore7DestroyEv+0x7488>
0x9000 <_ZN9Semaphore7DestroyEv+0x748c>
<_ZN9Semaphore7DestroyEv+0x7bc0>
0x2c000 <_ZN9Semaphore7DestroyEv+0x7538>
#6, 0x2189c <_ZN9Semaphore7DestroyEv+0x7bc4>
0x2c000 <_ZN9Semaphore7DestroyEv+0x7548>
<_ZN9Semaphore7DestroyEv+0x757c>
0x9000 <_ZN9Semaphore7DestroyEv+0x74d0>
0xd000 <_ZN9Semaphore7DestroyEv+0x74fc>
0x9000 <_ZN9Semaphore7DestroyEv+0x74f0>
0xd000 <_ZN9Semaphore7DestroyEv+0x7504>
0xc000 <_ZN9Semaphore7DestroyEv+0x7504>
0x9000 <_ZN9Semaphore7DestroyEv+0x751c>
0x9000 <_ZN9Semaphore7DestroyEv+0x7538>
0xc000 <_ZN9Semaphore7DestroyEv+0x754c>
0xd000 <_ZN9Semaphore7DestroyEv+0x7554>
0x9000 <_ZN9Semaphore7DestroyEv+0x7548>
0xc000 <_ZN9Semaphore7DestroyEv+0x7558>
<_ZN9Semaphore7DestroyEv+0x7bc0>
0x2c000 <_ZN9Semaphore7DestroyEv+0x75f8>
#6, 0x2189c <_ZN9Semaphore7DestroyEv+0x7bc4>
0x2c000 <_ZN9Semaphore7DestroyEv+0x7608>
<_ZN9Semaphore7DestroyEv+0x763c>
0x9000 <_ZN9Semaphore7DestroyEv+0x7590>
0xd000 <_ZN9Semaphore7DestroyEv+0x75bc>
0x9000 <_ZN9Semaphore7DestroyEv+0x75b0>
0xd000 <_ZN9Semaphore7DestroyEv+0x75c4>
0xa000 <_ZN9Semaphore7DestroyEv+0x75bc>
0x9000 <_ZN9Semaphore7DestroyEv+0x75dc>
0x9000 <_ZN9Semaphore7DestroyEv+0x75f8>
0xc000 <_ZN9Semaphore7DestroyEv+0x760c>
0xd000 <_ZN9Semaphore7DestroyEv+0x7614>
0x9000 <_ZN9Semaphore7DestroyEv+0x7608>
0xa000 <_ZN9Semaphore7DestroyEv+0x7610>
<_ZN9Semaphore7DestroyEv+0x7bc0>
0x2c000 <_ZN9Semaphore7DestroyEv+0x76b8>
#6, 0x2189c <_ZN9Semaphore7DestroyEv+0x7bc4>
0x2c000 <_ZN9Semaphore7DestroyEv+0x76c8>
<_ZN9Semaphore7DestroyEv+0x76fc>
0x9000 <_ZN9Semaphore7DestroyEv+0x7650>
0xd000 <_ZN9Semaphore7DestroyEv+0x767c>
0x9000 <_ZN9Semaphore7DestroyEv+0x7670>
0xd000 <_ZN9Semaphore7DestroyEv+0x7684>
0x9000 <_ZN9Semaphore7DestroyEv+0x7678>
0x9000 <_ZN9Semaphore7DestroyEv+0x769c>
0x9000 <_ZN9Semaphore7DestroyEv+0x76b8>
0xc000 <_ZN9Semaphore7DestroyEv+0x76cc>
0xd000 <_ZN9Semaphore7DestroyEv+0x76d4>
0x9000 <_ZN9Semaphore7DestroyEv+0x76c8>
0x9000 <_ZN9Semaphore7DestroyEv+0x76cc>
<_ZN9Semaphore7DestroyEv+0x7bc0>
0x2c000 <_ZN9Semaphore7DestroyEv+0x7778>
#6, 0x2189c <_ZN9Semaphore7DestroyEv+0x7bc4>
0x2c000 <_ZN9Semaphore7DestroyEv+0x7788>
<_ZN9Semaphore7DestroyEv+0x77bc>
0x9000 <_ZN9Semaphore7DestroyEv+0x7710>
0xd000 <_ZN9Semaphore7DestroyEv+0x773c>
0x9000 <_ZN9Semaphore7DestroyEv+0x7730>
0xd000 <_ZN9Semaphore7DestroyEv+0x7744>
0xa000 <_ZN9Semaphore7DestroyEv+0x773c>
0x9000 <_ZN9Semaphore7DestroyEv+0x775c>
0x9000 <_ZN9Semaphore7DestroyEv+0x7778>
0xc000 <_ZN9Semaphore7DestroyEv+0x778c>
0xd000 <_ZN9Semaphore7DestroyEv+0x7794>
0x9000 <_ZN9Semaphore7DestroyEv+0x7788>
0xa000 <_ZN9Semaphore7DestroyEv+0x7790>
<_ZN9Semaphore7DestroyEv+0x7bc0>
0x2c000 <_ZN9Semaphore7DestroyEv+0x7838>
#6, 0x2189c <_ZN9Semaphore7DestroyEv+0x7bc4>
0x2c000 <_ZN9Semaphore7DestroyEv+0x7848>
<_ZN9Semaphore7DestroyEv+0x787c>
0x9000 <_ZN9Semaphore7DestroyEv+0x77d0>
0xd000 <_ZN9Semaphore7DestroyEv+0x77fc>
0x9000 <_ZN9Semaphore7DestroyEv+0x77f0>
0xd000 <_ZN9Semaphore7DestroyEv+0x7804>
0xc000 <_ZN9Semaphore7DestroyEv+0x7804>
0x9000 <_ZN9Semaphore7DestroyEv+0x781c>
0x9000 <_ZN9Semaphore7DestroyEv+0x7838>
0xc000 <_ZN9Semaphore7DestroyEv+0x784c>
0xd000 <_ZN9Semaphore7DestroyEv+0x7854>
0x9000 <_ZN9Semaphore7DestroyEv+0x7848>
0xc000 <_ZN9Semaphore7DestroyEv+0x7858>
<_ZN9Semaphore7DestroyEv+0x7bc0>
0x2c000 <_ZN9Semaphore7DestroyEv+0x78f8>
#6, 0x2189c <_ZN9Semaphore7DestroyEv+0x7bc4>
0x2c000 <_ZN9Semaphore7DestroyEv+0x7908>
<_ZN9Semaphore7DestroyEv+0x793c>
0x9000 <_ZN9Semaphore7DestroyEv+0x7890>
0xd000 <_ZN9Semaphore7DestroyEv+0x78bc>
0x9000 <_ZN9Semaphore7DestroyEv+0x78b0>
0xd000 <_ZN9Semaphore7DestroyEv+0x78c4>
0xc000 <_ZN9Semaphore7DestroyEv+0x78c4>
0x9000 <_ZN9Semaphore7DestroyEv+0x78dc>
0x9000 <_ZN9Semaphore7DestroyEv+0x78f8>
0xc000 <_ZN9Semaphore7DestroyEv+0x790c>
0xd000 <_ZN9Semaphore7DestroyEv+0x7914>
0x9000 <_ZN9Semaphore7DestroyEv+0x7908>
0xc000 <_ZN9Semaphore7DestroyEv+0x7918>
<_ZN9Semaphore7DestroyEv+0x7bc0>
0x2c000 <_ZN9Semaphore7DestroyEv+0x79b8>
#6, 0x2189c <_ZN9Semaphore7DestroyEv+0x7bc4>
0x2c000 <_ZN9Semaphore7DestroyEv+0x79c8>
<_ZN9Semaphore7DestroyEv+0x79fc>
0x9000 <_ZN9Semaphore7DestroyEv+0x7950>
0xd000 <_ZN9Semaphore7DestroyEv+0x797c>
0x9000 <_ZN9Semaphore7DestroyEv+0x7970>
0xd000 <_ZN9Semaphore7DestroyEv+0x7984>
0xb000 <_ZN9Semaphore7DestroyEv+0x7980>
0x9000 <_ZN9Semaphore7DestroyEv+0x799c>
0x9000 <_ZN9Semaphore7DestroyEv+0x79b8>
0xc000 <_ZN9Semaphore7DestroyEv+0x79cc>
0xd000 <_ZN9Semaphore7DestroyEv+0x79d4>
0x9000 <_ZN9Semaphore7DestroyEv+0x79c8>
0xb000 <_ZN9Semaphore7DestroyEv+0x79d4>
<_ZN9Semaphore7DestroyEv+0x7bc0>
0x2c000 <_ZN9Semaphore7DestroyEv+0x7a78>
#6, 0x2189c <_ZN9Semaphore7DestroyEv+0x7bc4>
0x2c000 <_ZN9Semaphore7DestroyEv+0x7a88>
<_ZN9Semaphore7DestroyEv+0x7abc>
0x9000 <_ZN9Semaphore7DestroyEv+0x7a10>
0xd000 <_ZN9Semaphore7DestroyEv+0x7a3c>
0x9000 <_ZN9Semaphore7DestroyEv+0x7a30>
0xd000 <_ZN9Semaphore7DestroyEv+0x7a44>
0xb000 <_ZN9Semaphore7DestroyEv+0x7a40>
0x9000 <_ZN9Semaphore7DestroyEv+0x7a5c>
0x9000 <_ZN9Semaphore7DestroyEv+0x7a78>
0xc000 <_ZN9Semaphore7DestroyEv+0x7a8c>
0xd000 <_ZN9Semaphore7DestroyEv+0x7a94>
0x9000 <_ZN9Semaphore7DestroyEv+0x7a88>
0xb000 <_ZN9Semaphore7DestroyEv+0x7a94>
<_ZN9Semaphore7DestroyEv+0x7bc0>
0x2c000 <_ZN9Semaphore7DestroyEv+0x7b38>
#6, 0x2189c <_ZN9Semaphore7DestroyEv+0x7bc4>
0x2c000 <_ZN9Semaphore7DestroyEv+0x7b48>
0x9000 <_ZN9Semaphore7DestroyEv+0x7ac0>
<_ZN9Semaphore7DestroyEv+0x7b7c>
0xd000 <_ZN9Semaphore7DestroyEv+0x7afc>
0x9000 <_ZN9Semaphore7DestroyEv+0x7af0>
0xd000 <_ZN9Semaphore7DestroyEv+0x7b04>
0x9000 <_ZN9Semaphore7DestroyEv+0x7af8>
0x9000 <_ZN9Semaphore7DestroyEv+0x7b30>
0xc000 <_ZN9Semaphore7DestroyEv+0x7b44>
0xd000 <_ZN9Semaphore7DestroyEv+0x7b4c>
0x9000 <_ZN9Semaphore7DestroyEv+0x7b40>
0x9000 <_ZN9Semaphore7DestroyEv+0x7b44>
<_ZN6ChiLog9LogSystemEPKcS1_S1_S1_iS1_z@plt>

<_ZN11ChiMetadata10InitializeEPKjji+0x54>
0x21960 <_ZN11ChiMetadata10InitializeEPKjji+0xb0>
<_ZN11ChiMetadata10InitializeEPKjji+0xec>
<_ZN15ExtensionModule11GetInstanceEv@plt>
<_ZN11ChiMetadata10InitializeEPKjji+0xa4>
<_ZN11ChiMetadata10InitializeEPKjji+0x16c>
<_ZN11ChiMetadata10InitializeEPKjji+0x88>
<_ZN11ChiMetadata10InitializeEPKjji+0xa4>
0x21960 <_ZN11ChiMetadata10InitializeEPKjji+0xb0>
<_ZN11ChiMetadata10InitializeEPKjji+0xec>
0x2199c <_ZN11ChiMetadata10InitializeEPKjji+0xec>
0x2199c <_ZN11ChiMetadata10InitializeEPKjji+0xec>
<_ZN11ChiMetadata10InitializeEPKjji+0x118>
<_ZN11ChiMetadata10InitializeEPKjji+0x168>
0xa000 <_ZN11ChiMetadata10InitializeEPKjji+0x134>
0x21b08 <_ZN11ChiMetadata10InitializeEPKjji+0x258>
<_ZN11ChiMetadata10InitializeEPKjji+0x474>
<_ZN11ChiMetadata10InitializeEPKjji+0x318>
<_ZN11ChiMetadata10InitializeEPKjji+0x4a0>
<_ZN11ChiMetadata10InitializeEPKjji+0x238>
<_ZN11ChiMetadata10InitializeEPKjji+0x4a4>
#63, 0x21d58 <_ZN11ChiMetadata10InitializeEPKjji+0x4a8>
<_ZN11ChiMetadata10InitializeEPKjji+0x328>
0x21bdc <_ZN11ChiMetadata10InitializeEPKjji+0x32c>
<_ZN11ChiMetadata10InitializeEPKjji+0x33c>
<_ZN11ChiMetadata10InitializeEPKjji+0x4a0>
0x21ae8 <_ZN11ChiMetadata10InitializeEPKjji+0x238>
<_ZN11ChiMetadata10InitializeEPKjji+0x380>
0x2c000 <_ZN11ChiMetadata10InitializeEPKjji+0x284>
#0, 0x21bc0 <_ZN11ChiMetadata10InitializeEPKjji+0x310>
0x2c000 <_ZN11ChiMetadata10InitializeEPKjji+0x294>
<_ZN11ChiMetadata10InitializeEPKjji+0x2c4>
0x9000 <_ZN11ChiMetadata10InitializeEPKjji+0x21c>
0xd000 <_ZN11ChiMetadata10InitializeEPKjji+0x248>
0xb000 <_ZN11ChiMetadata10InitializeEPKjji+0x244>
0xa000 <_ZN11ChiMetadata10InitializeEPKjji+0x244>
0x9000 <_ZN11ChiMetadata10InitializeEPKjji+0x264>
0xc000 <_ZN11ChiMetadata10InitializeEPKjji+0x28c>
0x9000 <_ZN11ChiMetadata10InitializeEPKjji+0x288>
0xa000 <_ZN11ChiMetadata10InitializeEPKjji+0x290>
0xb000 <_ZN11ChiMetadata10InitializeEPKjji+0x298>
<_ZN6ChiLog9LogSystemEPKcS1_S1_S1_iS1_z@plt>
<_ZN11ChiMetadata10InitializeEPKjji+0x480>
<_ZN11ChiMetadata10InitializeEPKjji+0x380>
<_ZN11ChiMetadata10InitializeEPKjji+0x380>
<_ZN11ChiMetadata10InitializeEPKjji+0x36c>
0x21c30 <_ZN11ChiMetadata10InitializeEPKjji+0x380>
0x2c000 <_ZN11ChiMetadata10InitializeEPKjji+0x3ac>
<_ZN11ChiMetadata10InitializeEPKjji+0x3c4>
<_ZN11ChiMetadata10InitializeEPKjji+0x478>
0x2c000 <_ZN11ChiMetadata10InitializeEPKjji+0x3f0>
#0, 0x21d24 <_ZN11ChiMetadata10InitializeEPKjji+0x474>
0x2c000 <_ZN11ChiMetadata10InitializeEPKjji+0x400>
0x9000 <_ZN11ChiMetadata10InitializeEPKjji+0x378>
<_ZN11ChiMetadata10InitializeEPKjji+0x430>
0xd000 <_ZN11ChiMetadata10InitializeEPKjji+0x3b4>
0xb000 <_ZN11ChiMetadata10InitializeEPKjji+0x3b0>
0xa000 <_ZN11ChiMetadata10InitializeEPKjji+0x3b0>
0xc000 <_ZN11ChiMetadata10InitializeEPKjji+0x3f0>
0x9000 <_ZN11ChiMetadata10InitializeEPKjji+0x3ec>
0xa000 <_ZN11ChiMetadata10InitializeEPKjji+0x3f4>
0xb000 <_ZN11ChiMetadata10InitializeEPKjji+0x3fc>
<_ZN6ChiLog9LogSystemEPKcS1_S1_S1_iS1_z@plt>
<_ZNKSt3__120__vector_base_commonILb1EE20__throw_length_errorEv@plt>
0x2c000 <_ZN11ChiMetadata10InitializeEPKjji+0x51c>

<_ZN11ChiMetadata19ParseAndSetMetadataERNSt3__16vectorIhNS0_9allocatorIhEEEE+0xe8>
0x2c000 <_ZN11ChiMetadata19ParseAndSetMetadataERNSt3__16vectorIhNS0_9allocatorIhEEEE+0x64>
#0, 0x21ef0 <_ZN11ChiMetadata19ParseAndSetMetadataERNSt3__16vectorIhNS0_9allocatorIhEEEE+0xe0>
0x2c000 <_ZN11ChiMetadata19ParseAndSetMetadataERNSt3__16vectorIhNS0_9allocatorIhEEEE+0x74>
0x9000 <_ZN11ChiMetadata10InitializeEPKjji+0x54c>
<_ZN11ChiMetadata19ParseAndSetMetadataERNSt3__16vectorIhNS0_9allocatorIhEEEE+0xa0>
0xd000 <_ZN11ChiMetadata19ParseAndSetMetadataERNSt3__16vectorIhNS0_9allocatorIhEEEE+0x28>
0xb000 <_ZN11ChiMetadata19ParseAndSetMetadataERNSt3__16vectorIhNS0_9allocatorIhEEEE+0x24>
0x9000 <_ZN11ChiMetadata19ParseAndSetMetadataERNSt3__16vectorIhNS0_9allocatorIhEEEE+0x20>
0xc000 <_ZN11ChiMetadata19ParseAndSetMetadataERNSt3__16vectorIhNS0_9allocatorIhEEEE+0x60>
0x9000 <_ZN11ChiMetadata19ParseAndSetMetadataERNSt3__16vectorIhNS0_9allocatorIhEEEE+0x5c>
0x9000 <_ZN11ChiMetadata19ParseAndSetMetadataERNSt3__16vectorIhNS0_9allocatorIhEEEE+0x60>
0x9000 <_ZN11ChiMetadata19ParseAndSetMetadataERNSt3__16vectorIhNS0_9allocatorIhEEEE+0x64>
<_ZN6ChiLog9LogSystemEPKcS1_S1_S1_iS1_z@plt>
<_ZN11ChiMetadata19ParseAndSetMetadataERNSt3__16vectorIhNS0_9allocatorIhEEEE+0x434>
0x220fc <_ZN11ChiMetadata19ParseAndSetMetadataERNSt3__16vectorIhNS0_9allocatorIhEEEE+0x2ec>
<_ZN11ChiMetadata19ParseAndSetMetadataERNSt3__16vectorIhNS0_9allocatorIhEEEE+0x348>
<_ZN11ChiMetadata19ParseAndSetMetadataERNSt3__16vectorIhNS0_9allocatorIhEEEE+0x454>
<_ZN11ChiMetadata19ParseAndSetMetadataERNSt3__16vectorIhNS0_9allocatorIhEEEE+0x454>
<_ZN11ChiMetadata19ParseAndSetMetadataERNSt3__16vectorIhNS0_9allocatorIhEEEE+0x454>
<_ZN11ChiMetadata19ParseAndSetMetadataERNSt3__16vectorIhNS0_9allocatorIhEEEE+0x20c>
<_ZN11ChiMetadata19ParseAndSetMetadataERNSt3__16vectorIhNS0_9allocatorIhEEEE+0x454>
<_ZN11ChiMetadata19ParseAndSetMetadataERNSt3__16vectorIhNS0_9allocatorIhEEEE+0x454>
<_ZN11ChiMetadata19ParseAndSetMetadataERNSt3__16vectorIhNS0_9allocatorIhEEEE+0x454>
<_ZN11ChiMetadata19ParseAndSetMetadataERNSt3__16vectorIhNS0_9allocatorIhEEEE+0x454>
0x2212c <_ZN11ChiMetadata19ParseAndSetMetadataERNSt3__16vectorIhNS0_9allocatorIhEEEE+0x31c>
<_ZN11ChiMetadata19ParseAndSetMetadataERNSt3__16vectorIhNS0_9allocatorIhEEEE+0x454>
<_ZN11ChiMetadata19ParseAndSetMetadataERNSt3__16vectorIhNS0_9allocatorIhEEEE+0x330>
<_ZN11ChiMetadata19ParseAndSetMetadataERNSt3__16vectorIhNS0_9allocatorIhEEEE+0x27c>
<_ZN11ChiMetadata19ParseAndSetMetadataERNSt3__16vectorIhNS0_9allocatorIhEEEE+0x454>
<_ZN11ChiMetadata19ParseAndSetMetadataERNSt3__16vectorIhNS0_9allocatorIhEEEE+0x1b8>
<_ZN11ChiMetadata19ParseAndSetMetadataERNSt3__16vectorIhNS0_9allocatorIhEEEE+0x2c0>
0x22138 <_ZN11ChiMetadata19ParseAndSetMetadataERNSt3__16vectorIhNS0_9allocatorIhEEEE+0x328>
<_ZN11ChiMetadata19ParseAndSetMetadataERNSt3__16vectorIhNS0_9allocatorIhEEEE+0x454>
<_ZN11ChiMetadata19ParseAndSetMetadataERNSt3__16vectorIhNS0_9allocatorIhEEEE+0x340>
<_ZN11ChiMetadata19ParseAndSetMetadataERNSt3__16vectorIhNS0_9allocatorIhEEEE+0x454>
<_ZN11ChiMetadata19ParseAndSetMetadataERNSt3__16vectorIhNS0_9allocatorIhEEEE+0x454>
<_ZN11ChiMetadata19ParseAndSetMetadataERNSt3__16vectorIhNS0_9allocatorIhEEEE+0x2d8>
<_ZN11ChiMetadata19ParseAndSetMetadataERNSt3__16vectorIhNS0_9allocatorIhEEEE+0x454>
<_ZN11ChiMetadata19ParseAndSetMetadataERNSt3__16vectorIhNS0_9allocatorIhEEEE+0x454>
<_ZN11ChiMetadata19ParseAndSetMetadataERNSt3__16vectorIhNS0_9allocatorIhEEEE+0x454>
<_ZN11ChiMetadata19ParseAndSetMetadataERNSt3__16vectorIhNS0_9allocatorIhEEEE+0x124>
<_ZN11ChiMetadata19ParseAndSetMetadataERNSt3__16vectorIhNS0_9allocatorIhEEEE+0x348>
<_ZN11ChiMetadata19ParseAndSetMetadataERNSt3__16vectorIhNS0_9allocatorIhEEEE+0x348>
<_ZN11ChiMetadata19ParseAndSetMetadataERNSt3__16vectorIhNS0_9allocatorIhEEEE+0x348>
<_ZN11ChiMetadata19ParseAndSetMetadataERNSt3__16vectorIhNS0_9allocatorIhEEEE+0x348>
<_ZN11ChiMetadata19ParseAndSetMetadataERNSt3__16vectorIhNS0_9allocatorIhEEEE+0x348>
<_ZN11ChiMetadata19ParseAndSetMetadataERNSt3__16vectorIhNS0_9allocatorIhEEEE+0x348>
0x2c000 <_ZN11ChiMetadata19ParseAndSetMetadataERNSt3__16vectorIhNS0_9allocatorIhEEEE+0x370>
#3, 0x22240 <_ZN11ChiMetadata19ParseAndSetMetadataERNSt3__16vectorIhNS0_9allocatorIhEEEE+0x430>
0x2c000 <_ZN11ChiMetadata19ParseAndSetMetadataERNSt3__16vectorIhNS0_9allocatorIhEEEE+0x380>
<_ZN11ChiMetadata19ParseAndSetMetadataERNSt3__16vectorIhNS0_9allocatorIhEEEE+0x3d0>
0x9000 <_ZN11ChiMetadata19ParseAndSetMetadataERNSt3__16vectorIhNS0_9allocatorIhEEEE+0x30c>
0xd000 <_ZN11ChiMetadata19ParseAndSetMetadataERNSt3__16vectorIhNS0_9allocatorIhEEEE+0x33c>
0xc000 <_ZN11ChiMetadata19ParseAndSetMetadataERNSt3__16vectorIhNS0_9allocatorIhEEEE+0x33c>
0x9000 <_ZN11ChiMetadata19ParseAndSetMetadataERNSt3__16vectorIhNS0_9allocatorIhEEEE+0x334>
0x9000 <_ZN11ChiMetadata19ParseAndSetMetadataERNSt3__16vectorIhNS0_9allocatorIhEEEE+0x36c>
0xb000 <_ZN11ChiMetadata19ParseAndSetMetadataERNSt3__16vectorIhNS0_9allocatorIhEEEE+0x394>
0xd000 <_ZN11ChiMetadata19ParseAndSetMetadataERNSt3__16vectorIhNS0_9allocatorIhEEEE+0x3a4>
0x9000 <_ZN11ChiMetadata19ParseAndSetMetadataERNSt3__16vectorIhNS0_9allocatorIhEEEE+0x398>
0xc000 <_ZN11ChiMetadata19ParseAndSetMetadataERNSt3__16vectorIhNS0_9allocatorIhEEEE+0x3a8>
<_ZN6ChiLog9LogSystemEPKcS1_S1_S1_iS1_z@plt>

0x225c0 <_ZN11ChiMetadata6SetTagEjPKvjj+0x358>
<_ZN11ChiMetadata16ReadDataFromFileEPKcRNSt3__16vectorIhNS2_9allocatorIhEEEE@plt>
0x225c0 <_ZN11ChiMetadata6SetTagEjPKvjj+0x358>
0x223e0 <_ZN11ChiMetadata6SetTagEjPKvjj+0x178>
<_ZN11ChiMetadata21InitializeMetadataOpsEP14ChiMetadataOps@plt>
0x22494 <_ZN11ChiMetadata6SetTagEjPKvjj+0x22c>
0x2c000 <_ZN11ChiMetadata6SetTagEjPKvjj+0xf8>
#0, 0x225b8 <_ZN11ChiMetadata6SetTagEjPKvjj+0x350>
0x2c000 <_ZN11ChiMetadata6SetTagEjPKvjj+0x108>
0x9000 <_ZN11ChiMetadata6SetTagEjPKvjj+0x80>
<_ZN11ChiMetadata6SetTagEjPKvjj+0x138>
0xd000 <_ZN11ChiMetadata6SetTagEjPKvjj+0xbc>
0xd000 <_ZN11ChiMetadata6SetTagEjPKvjj+0xc0>
0xc000 <_ZN11ChiMetadata6SetTagEjPKvjj+0xc0>
0xc000 <_ZN11ChiMetadata6SetTagEjPKvjj+0xf4>
0x9000 <_ZN11ChiMetadata6SetTagEjPKvjj+0xf0>
0xc000 <_ZN11ChiMetadata6SetTagEjPKvjj+0x100>
0xd000 <_ZN11ChiMetadata6SetTagEjPKvjj+0x108>
<_ZN11ChiMetadata6SetTagEjPKvjj+0x34c>
0x2c000 <_ZN11ChiMetadata6SetTagEjPKvjj+0x1a0>
#0, 0x225c4 <_ZN11ChiMetadata6SetTagEjPKvjj+0x35c>
0x2c000 <_ZN11ChiMetadata6SetTagEjPKvjj+0x1b0>
<_ZN11ChiMetadata6SetTagEjPKvjj+0x1e0>
0x9000 <_ZN11ChiMetadata6SetTagEjPKvjj+0x138>
0xd000 <_ZN11ChiMetadata6SetTagEjPKvjj+0x164>
0xd000 <_ZN11ChiMetadata6SetTagEjPKvjj+0x168>
0xc000 <_ZN11ChiMetadata6SetTagEjPKvjj+0x168>
0x9000 <_ZN11ChiMetadata6SetTagEjPKvjj+0x17c>
0xc000 <_ZN11ChiMetadata6SetTagEjPKvjj+0x1a4>
0x9000 <_ZN11ChiMetadata6SetTagEjPKvjj+0x1a0>
0xc000 <_ZN11ChiMetadata6SetTagEjPKvjj+0x1b0>
0xb000 <_ZN11ChiMetadata6SetTagEjPKvjj+0x1b0>
<_ZN6ChiLog9LogSystemEPKcS1_S1_S1_iS1_z@plt>
<_ZN11ChiMetadata6SetTagEjPKvjj+0x35c>
0x225fc <_ZN11ChiMetadata6SetTagEjPKvjj+0x394>
0x2c000 <_ZN11ChiMetadata6SetTagEjPKvjj+0x2c8>
#0, 0x225b8 <_ZN11ChiMetadata6SetTagEjPKvjj+0x350>
0x2c000 <_ZN11ChiMetadata6SetTagEjPKvjj+0x2d8>
<_ZN11ChiMetadata6SetTagEjPKvjj+0x308>
0x9000 <_ZN11ChiMetadata6SetTagEjPKvjj+0x260>
0xd000 <_ZN11ChiMetadata6SetTagEjPKvjj+0x28c>
0x9000 <_ZN11ChiMetadata6SetTagEjPKvjj+0x280>
0xc000 <_ZN11ChiMetadata6SetTagEjPKvjj+0x290>
0x9000 <_ZN11ChiMetadata6SetTagEjPKvjj+0x2a4>
0xc000 <_ZN11ChiMetadata6SetTagEjPKvjj+0x2cc>
0x9000 <_ZN11ChiMetadata6SetTagEjPKvjj+0x2c8>
0xc000 <_ZN11ChiMetadata6SetTagEjPKvjj+0x2d8>
0xc000 <_ZN11ChiMetadata6SetTagEjPKvjj+0x2dc>
<_ZN6ChiLog9LogSystemEPKcS1_S1_S1_iS1_z@plt>
0x225d4 <_ZN11ChiMetadata6SetTagEjPKvjj+0x36c>
<_ZN11ChiMetadata6SetTagEjPKvjj+0x3a8>
<_ZN11ChiMetadata19ParseAndSetMetadataERNSt3__16vectorIhNS0_9allocatorIhEEEE@plt>
0x225b8 <_ZN11ChiMetadata6SetTagEjPKvjj+0x350>
<_ZN11ChiMetadata6SetTagEjPKvjj+0x35c>

<_ZN11ChiMetadata7DestroyEb+0x114>
0x2c000 <_ZN11ChiMetadata7DestroyEb+0x48>
#0, 0x22718 <_ZN11ChiMetadata7DestroyEb+0x100>
0x2c000 <_ZN11ChiMetadata7DestroyEb+0x58>
0x9000 <_ZN11ChiMetadata6SetTagEjPKvjj+0x380>
<_ZN11ChiMetadata7DestroyEb+0xa4>
0xd000 <_ZN11ChiMetadata7DestroyEb+0x14>
0x9000 <_ZN11ChiMetadata7DestroyEb+0x8>
0xb000 <_ZN11ChiMetadata7DestroyEb+0x14>
0x9000 <_ZN11ChiMetadata7DestroyEb+0x60>
0xc000 <_ZN11ChiMetadata7DestroyEb+0x70>
0xb000 <_ZN11ChiMetadata7DestroyEb+0x70>
0xb000 <_ZN11ChiMetadata7DestroyEb+0x74>
<_ZN6ChiLog9LogSystemEPKcS1_S1_S1_iS1_z@plt>
0x22638 <_ZN11ChiMetadata7DestroyEb+0x20>
<_ZN11ChiMetadata15DestroyInternalEb@plt>

0x22860 <_ZN11ChiMetadata15DestroyInternalEb+0x110>
0x2c000 <_ZN11ChiMetadata15DestroyInternalEb+0x74>
#0, 0x22868 <_ZN11ChiMetadata15DestroyInternalEb+0x118>
0x2c000 <_ZN11ChiMetadata15DestroyInternalEb+0x84>
0x9000 <_ZN11ChiMetadata7DestroyEb+0x134>
<_ZN11ChiMetadata15DestroyInternalEb+0xc0>
0xd000 <_ZN11ChiMetadata15DestroyInternalEb+0x3c>
0xa000 <_ZN11ChiMetadata15DestroyInternalEb+0x34>
0xb000 <_ZN11ChiMetadata15DestroyInternalEb+0x3c>
0x9000 <_ZN11ChiMetadata15DestroyInternalEb+0x78>
0xc000 <_ZN11ChiMetadata15DestroyInternalEb+0x88>
0xb000 <_ZN11ChiMetadata15DestroyInternalEb+0x88>
0xa000 <_ZN11ChiMetadata15DestroyInternalEb+0x88>
<_ZN6ChiLog9LogSystemEPKcS1_S1_S1_iS1_z@plt>
<_ZN11ChiMetadata15DestroyInternalEb+0x118>

<_ZN11ChiMetadata6GetTagEjj+0x90>


<_ZN11ChiMetadata6GetTagEPKcS1_j+0x98>

0x22a98 <_ZNK11ChiMetadata7FindTagEjP21camera_metadata_entry+0x80>
<_ZNK11ChiMetadata7FindTagEjP21camera_metadata_entry+0xa8>




<_ZN11ChiMetadata5CountEv+0x78>

0x2a000 <_ZN11ChiMetadata5ResetEv+0x30>
<_ZN11ChiMetadata5ResetEv+0x30>
<_ZN11ChiMetadata5ResetEv+0x20>

<_ZNSt3__16chrono12steady_clock3nowEv@plt>
<_ZN11ChiMetadata5MergeERS_b+0x60>
<_ZN11ChiMetadata5MergeERS_b+0x70>

0x22df0 <_ZN11ChiMetadata24MergeMultiCameraMetadataEjPPS_Pjj+0x90>
<_ZN11ChiMetadata24MergeMultiCameraMetadataEjPPS_Pjj+0x10c>
0x22db8 <_ZN11ChiMetadata24MergeMultiCameraMetadataEjPPS_Pjj+0x58>
<_ZN11ChiMetadata24MergeMultiCameraMetadataEjPPS_Pjj+0x74>
<_ZN11ChiMetadata24MergeMultiCameraMetadataEjPPS_Pjj+0x98>
0x22e4c <_ZN11ChiMetadata24MergeMultiCameraMetadataEjPPS_Pjj+0xec>
0x22e70 <_ZN11ChiMetadata24MergeMultiCameraMetadataEjPPS_Pjj+0x110>


<_ZN11ChiMetadata5CloneEv+0x78>

0x231dc <_ZN11ChiMetadata32TranslateToCameraPartialMetadataEP15camera_metadataPjj+0x284>
0x2c000 <_ZN11ChiMetadata32TranslateToCameraPartialMetadataEP15camera_metadataPjj+0x68>
0x9000 <_ZN11ChiMetadata5CloneEv+0x68>
<_ZN11ChiMetadata32TranslateToCameraPartialMetadataEP15camera_metadataPjj+0xc4>
0xb000 <_ZN11ChiMetadata32TranslateToCameraPartialMetadataEP15camera_metadataPjj+0x30>
0xc000 <_ZN11ChiMetadata32TranslateToCameraPartialMetadataEP15camera_metadataPjj+0x3c>
0xa000 <_ZN11ChiMetadata32TranslateToCameraPartialMetadataEP15camera_metadataPjj+0x38>
0xb000 <_ZN11ChiMetadata32TranslateToCameraPartialMetadataEP15camera_metadataPjj+0x40>
<_ZN6ChiLog9LogSystemEPKcS1_S1_S1_iS1_z@plt>
<_ZN11ChiMetadata32TranslateToCameraPartialMetadataEP15camera_metadataPjj+0x284>
0x2307c <_ZN11ChiMetadata32TranslateToCameraPartialMetadataEP15camera_metadataPjj+0x124>
0x2307c <_ZN11ChiMetadata32TranslateToCameraPartialMetadataEP15camera_metadataPjj+0x124>
0x230d8 <_ZN11ChiMetadata32TranslateToCameraPartialMetadataEP15camera_metadataPjj+0x180>
0x23010 <_ZN11ChiMetadata32TranslateToCameraPartialMetadataEP15camera_metadataPjj+0xb8>
<_ZN11ChiMetadata32TranslateToCameraPartialMetadataEP15camera_metadataPjj+0x1a4>
#5, 0x23010 <_ZN11ChiMetadata32TranslateToCameraPartialMetadataEP15camera_metadataPjj+0xb8>
0x2c000 <_ZN11ChiMetadata32TranslateToCameraPartialMetadataEP15camera_metadataPjj+0x150>
<_ZN11ChiMetadata32TranslateToCameraPartialMetadataEP15camera_metadataPjj+0x78>
0xd000 <_ZN11ChiMetadata32TranslateToCameraPartialMetadataEP15camera_metadataPjj+0xfc>
0xd000 <_ZN11ChiMetadata32TranslateToCameraPartialMetadataEP15camera_metadataPjj+0x100>
0xa000 <_ZN11ChiMetadata32TranslateToCameraPartialMetadataEP15camera_metadataPjj+0xf8>
<_ZN11ChiMetadata32TranslateToCameraPartialMetadataEP15camera_metadataPjj+0x78>
0x23010 <_ZN11ChiMetadata32TranslateToCameraPartialMetadataEP15camera_metadataPjj+0xb8>
#0, 0x231dc <_ZN11ChiMetadata32TranslateToCameraPartialMetadataEP15camera_metadataPjj+0x284>
0x2c000 <_ZN11ChiMetadata32TranslateToCameraPartialMetadataEP15camera_metadataPjj+0x1d0>
<_ZN11ChiMetadata32TranslateToCameraPartialMetadataEP15camera_metadataPjj+0x220>
0xd000 <_ZN11ChiMetadata32TranslateToCameraPartialMetadataEP15camera_metadataPjj+0x190>
0xa000 <_ZN11ChiMetadata32TranslateToCameraPartialMetadataEP15camera_metadataPjj+0x188>
0xa000 <_ZN11ChiMetadata32TranslateToCameraPartialMetadataEP15camera_metadataPjj+0x18c>
0x9000 <_ZN11ChiMetadata32TranslateToCameraPartialMetadataEP15camera_metadataPjj+0x1e4>
0xc000 <_ZN11ChiMetadata32TranslateToCameraPartialMetadataEP15camera_metadataPjj+0x1f4>
0xa000 <_ZN11ChiMetadata32TranslateToCameraPartialMetadataEP15camera_metadataPjj+0x1f0>
0xa000 <_ZN11ChiMetadata32TranslateToCameraPartialMetadataEP15camera_metadataPjj+0x1f4>
<_ZN6ChiLog9LogSystemEPKcS1_S1_S1_iS1_z@plt>
<_ZN11ChiMetadata32TranslateToCameraPartialMetadataEP15camera_metadataPjj+0x2bc>



0x2a000 <_ZN11ChiMetadata12PrintDetailsEv+0x2c>
<_ZN11ChiMetadata12PrintDetailsEv+0x30>
<_ZN11ChiMetadata12PrintDetailsEv+0x20>

0x2a000 <_ZN11ChiMetadata10InvalidateEv+0x2c>
<_ZN11ChiMetadata10InvalidateEv+0x30>
<_ZN11ChiMetadata10InvalidateEv+0x20>

0x2a000 <_ZN11ChiMetadata21IsMultiCameraMetadataEv+0x2c>
<_ZN11ChiMetadata21IsMultiCameraMetadataEv+0x30>
<_ZN11ChiMetadata21IsMultiCameraMetadataEv+0x20>

<_ZN11ChiMetadata14ReferenceCountEv+0x7c>

0x2377c <_ZN11ChiMetadata12AddReferenceEPKc+0x2fc>
0x2377c <_ZN11ChiMetadata12AddReferenceEPKc+0x2fc>
0x235dc <_ZN11ChiMetadata12AddReferenceEPKc+0x15c>
0x235e4 <_ZN11ChiMetadata12AddReferenceEPKc+0x164>
0x235ec <_ZN11ChiMetadata12AddReferenceEPKc+0x16c>
0x235f4 <_ZN11ChiMetadata12AddReferenceEPKc+0x174>
0x235fc <_ZN11ChiMetadata12AddReferenceEPKc+0x17c>
0x23604 <_ZN11ChiMetadata12AddReferenceEPKc+0x184>
0x2360c <_ZN11ChiMetadata12AddReferenceEPKc+0x18c>
0x23614 <_ZN11ChiMetadata12AddReferenceEPKc+0x194>
0x2361c <_ZN11ChiMetadata12AddReferenceEPKc+0x19c>
0x23624 <_ZN11ChiMetadata12AddReferenceEPKc+0x1a4>
0x2362c <_ZN11ChiMetadata12AddReferenceEPKc+0x1ac>
0x23634 <_ZN11ChiMetadata12AddReferenceEPKc+0x1b4>
0x2363c <_ZN11ChiMetadata12AddReferenceEPKc+0x1bc>
0x23644 <_ZN11ChiMetadata12AddReferenceEPKc+0x1c4>
0x2364c <_ZN11ChiMetadata12AddReferenceEPKc+0x1cc>
0x23654 <_ZN11ChiMetadata12AddReferenceEPKc+0x1d4>
0x2365c <_ZN11ChiMetadata12AddReferenceEPKc+0x1dc>
0x23664 <_ZN11ChiMetadata12AddReferenceEPKc+0x1e4>
0x2366c <_ZN11ChiMetadata12AddReferenceEPKc+0x1ec>
0x23674 <_ZN11ChiMetadata12AddReferenceEPKc+0x1f4>
0x2367c <_ZN11ChiMetadata12AddReferenceEPKc+0x1fc>
0x23684 <_ZN11ChiMetadata12AddReferenceEPKc+0x204>
0x2368c <_ZN11ChiMetadata12AddReferenceEPKc+0x20c>
0x23694 <_ZN11ChiMetadata12AddReferenceEPKc+0x214>
0x2369c <_ZN11ChiMetadata12AddReferenceEPKc+0x21c>
0x236a4 <_ZN11ChiMetadata12AddReferenceEPKc+0x224>
0x236ac <_ZN11ChiMetadata12AddReferenceEPKc+0x22c>
0x236b4 <_ZN11ChiMetadata12AddReferenceEPKc+0x234>
0x236bc <_ZN11ChiMetadata12AddReferenceEPKc+0x23c>
0x236c4 <_ZN11ChiMetadata12AddReferenceEPKc+0x244>
<_ZN11ChiMetadata12AddReferenceEPKc+0x240>
<_ZN11ChiMetadata12AddReferenceEPKc+0x240>
<_ZN11ChiMetadata12AddReferenceEPKc+0x240>
<_ZN11ChiMetadata12AddReferenceEPKc+0x240>
<_ZN11ChiMetadata12AddReferenceEPKc+0x240>
<_ZN11ChiMetadata12AddReferenceEPKc+0x240>
<_ZN11ChiMetadata12AddReferenceEPKc+0x240>
<_ZN11ChiMetadata12AddReferenceEPKc+0x240>
<_ZN11ChiMetadata12AddReferenceEPKc+0x240>
<_ZN11ChiMetadata12AddReferenceEPKc+0x240>
<_ZN11ChiMetadata12AddReferenceEPKc+0x240>
<_ZN11ChiMetadata12AddReferenceEPKc+0x240>
<_ZN11ChiMetadata12AddReferenceEPKc+0x240>
<_ZN11ChiMetadata12AddReferenceEPKc+0x240>
<_ZN11ChiMetadata12AddReferenceEPKc+0x240>
<_ZN11ChiMetadata12AddReferenceEPKc+0x240>
<_ZN11ChiMetadata12AddReferenceEPKc+0x240>
<_ZN11ChiMetadata12AddReferenceEPKc+0x240>
<_ZN11ChiMetadata12AddReferenceEPKc+0x240>
<_ZN11ChiMetadata12AddReferenceEPKc+0x240>
<_ZN11ChiMetadata12AddReferenceEPKc+0x240>
<_ZN11ChiMetadata12AddReferenceEPKc+0x240>
<_ZN11ChiMetadata12AddReferenceEPKc+0x240>
<_ZN11ChiMetadata12AddReferenceEPKc+0x240>
<_ZN11ChiMetadata12AddReferenceEPKc+0x240>
<_ZN11ChiMetadata12AddReferenceEPKc+0x240>
<_ZN11ChiMetadata12AddReferenceEPKc+0x240>
<_ZN11ChiMetadata12AddReferenceEPKc+0x240>
<_ZN11ChiMetadata12AddReferenceEPKc+0x240>
0x2c000 <_ZN11ChiMetadata12AddReferenceEPKc+0x268>
#5, 0x2377c <_ZN11ChiMetadata12AddReferenceEPKc+0x2fc>
0x2c000 <_ZN11ChiMetadata12AddReferenceEPKc+0x278>
0x9000 <_ZN11ChiMetadata12AddReferenceEPKc+0x1f0>
<_ZN11ChiMetadata12AddReferenceEPKc+0x2b4>
0xd000 <_ZN11ChiMetadata12AddReferenceEPKc+0x230>
0x9000 <_ZN11ChiMetadata12AddReferenceEPKc+0x224>
0xd000 <_ZN11ChiMetadata12AddReferenceEPKc+0x238>
0xc000 <_ZN11ChiMetadata12AddReferenceEPKc+0x274>
0xb000 <_ZN11ChiMetadata12AddReferenceEPKc+0x274>
0xd000 <_ZN11ChiMetadata12AddReferenceEPKc+0x280>
0x9000 <_ZN11ChiMetadata12AddReferenceEPKc+0x274>
<_ZN6ChiLog9LogSystemEPKcS1_S1_S1_iS1_z@plt>
<_ZN11ChiMetadata12AddReferenceEPKc+0x310>
<_ZNSt3__16chrono12steady_clock3nowEv@plt>
<_ZN11ChiMetadata12AddReferenceEPKc+0x338>

0x23b34 <_ZN11ChiMetadata16ReleaseReferenceEPKc+0x374>
0x23b34 <_ZN11ChiMetadata16ReleaseReferenceEPKc+0x374>
<_ZN11ChiMetadata16ReleaseReferenceEPKc+0x1d4>
<_ZN11ChiMetadata16ReleaseReferenceEPKc+0x1dc>
<_ZN11ChiMetadata16ReleaseReferenceEPKc+0x1e4>
<_ZN11ChiMetadata16ReleaseReferenceEPKc+0x1ec>
<_ZN11ChiMetadata16ReleaseReferenceEPKc+0x1f4>
<_ZN11ChiMetadata16ReleaseReferenceEPKc+0x1fc>
<_ZN11ChiMetadata16ReleaseReferenceEPKc+0x204>
<_ZN11ChiMetadata16ReleaseReferenceEPKc+0x20c>
<_ZN11ChiMetadata16ReleaseReferenceEPKc+0x214>
<_ZN11ChiMetadata16ReleaseReferenceEPKc+0x21c>
<_ZN11ChiMetadata16ReleaseReferenceEPKc+0x224>
<_ZN11ChiMetadata16ReleaseReferenceEPKc+0x22c>
<_ZN11ChiMetadata16ReleaseReferenceEPKc+0x234>
<_ZN11ChiMetadata16ReleaseReferenceEPKc+0x23c>
<_ZN11ChiMetadata16ReleaseReferenceEPKc+0x244>
<_ZN11ChiMetadata16ReleaseReferenceEPKc+0x24c>
<_ZN11ChiMetadata16ReleaseReferenceEPKc+0x254>
<_ZN11ChiMetadata16ReleaseReferenceEPKc+0x25c>
<_ZN11ChiMetadata16ReleaseReferenceEPKc+0x264>
<_ZN11ChiMetadata16ReleaseReferenceEPKc+0x26c>
<_ZN11ChiMetadata16ReleaseReferenceEPKc+0x274>
<_ZN11ChiMetadata16ReleaseReferenceEPKc+0x27c>
<_ZN11ChiMetadata16ReleaseReferenceEPKc+0x284>
<_ZN11ChiMetadata16ReleaseReferenceEPKc+0x28c>
<_ZN11ChiMetadata16ReleaseReferenceEPKc+0x294>
<_ZN11ChiMetadata16ReleaseReferenceEPKc+0x29c>
<_ZN11ChiMetadata16ReleaseReferenceEPKc+0x2a4>
<_ZN11ChiMetadata16ReleaseReferenceEPKc+0x2ac>
<_ZN11ChiMetadata16ReleaseReferenceEPKc+0x2b4>
<_ZN11ChiMetadata16ReleaseReferenceEPKc+0x2bc>
<_ZN11ChiMetadata16ReleaseReferenceEPKc+0x2b8>
<_ZN11ChiMetadata16ReleaseReferenceEPKc+0x2b8>
<_ZN11ChiMetadata16ReleaseReferenceEPKc+0x2b8>
<_ZN11ChiMetadata16ReleaseReferenceEPKc+0x2b8>
<_ZN11ChiMetadata16ReleaseReferenceEPKc+0x2b8>
<_ZN11ChiMetadata16ReleaseReferenceEPKc+0x2b8>
<_ZN11ChiMetadata16ReleaseReferenceEPKc+0x2b8>
<_ZN11ChiMetadata16ReleaseReferenceEPKc+0x2b8>
<_ZN11ChiMetadata16ReleaseReferenceEPKc+0x2b8>
<_ZN11ChiMetadata16ReleaseReferenceEPKc+0x2b8>
<_ZN11ChiMetadata16ReleaseReferenceEPKc+0x2b8>
<_ZN11ChiMetadata16ReleaseReferenceEPKc+0x2b8>
<_ZN11ChiMetadata16ReleaseReferenceEPKc+0x2b8>
<_ZN11ChiMetadata16ReleaseReferenceEPKc+0x2b8>
<_ZN11ChiMetadata16ReleaseReferenceEPKc+0x2b8>
<_ZN11ChiMetadata16ReleaseReferenceEPKc+0x2b8>
<_ZN11ChiMetadata16ReleaseReferenceEPKc+0x2b8>
<_ZN11ChiMetadata16ReleaseReferenceEPKc+0x2b8>
<_ZN11ChiMetadata16ReleaseReferenceEPKc+0x2b8>
<_ZN11ChiMetadata16ReleaseReferenceEPKc+0x2b8>
<_ZN11ChiMetadata16ReleaseReferenceEPKc+0x2b8>
<_ZN11ChiMetadata16ReleaseReferenceEPKc+0x2b8>
<_ZN11ChiMetadata16ReleaseReferenceEPKc+0x2b8>
<_ZN11ChiMetadata16ReleaseReferenceEPKc+0x2b8>
<_ZN11ChiMetadata16ReleaseReferenceEPKc+0x2b8>
<_ZN11ChiMetadata16ReleaseReferenceEPKc+0x2b8>
<_ZN11ChiMetadata16ReleaseReferenceEPKc+0x2b8>
<_ZN11ChiMetadata16ReleaseReferenceEPKc+0x2b8>
<_ZN11ChiMetadata16ReleaseReferenceEPKc+0x2b8>
0x2c000 <_ZN11ChiMetadata16ReleaseReferenceEPKc+0x2e0>
#5, 0x23b34 <_ZN11ChiMetadata16ReleaseReferenceEPKc+0x374>
0x2c000 <_ZN11ChiMetadata16ReleaseReferenceEPKc+0x2f0>
0x9000 <_ZN11ChiMetadata16ReleaseReferenceEPKc+0x268>
<_ZN11ChiMetadata16ReleaseReferenceEPKc+0x32c>
0xd000 <_ZN11ChiMetadata16ReleaseReferenceEPKc+0x2a8>
0xc000 <_ZN11ChiMetadata16ReleaseReferenceEPKc+0x2a8>
0xa000 <_ZN11ChiMetadata16ReleaseReferenceEPKc+0x2a4>
0xc000 <_ZN11ChiMetadata16ReleaseReferenceEPKc+0x2ec>
0xb000 <_ZN11ChiMetadata16ReleaseReferenceEPKc+0x2ec>
0xa000 <_ZN11ChiMetadata16ReleaseReferenceEPKc+0x2ec>
0xb000 <_ZN11ChiMetadata16ReleaseReferenceEPKc+0x2f4>
<_ZN6ChiLog9LogSystemEPKcS1_S1_S1_iS1_z@plt>
<_ZN11ChiMetadata16ReleaseReferenceEPKc+0x39c>



0x2a000 <_ZN11ChiMetadata8IteratorD2Ev+0x2c>
<_ZN11ChiMetadata8IteratorD2Ev+0x34>
<_ZN11ChiMetadata8IteratorD2Ev+0x24>

0x2a000 <_ZN11ChiMetadata8Iterator5BeginEv+0x2c>
<_ZN11ChiMetadata8Iterator5BeginEv+0x40>
<_ZN11ChiMetadata8Iterator5BeginEv+0x24>

0x2a000 <_ZN11ChiMetadata8Iterator4NextEv+0x2c>
<_ZN11ChiMetadata8Iterator4NextEv+0x40>
<_ZN11ChiMetadata8Iterator4NextEv+0x24>

0x23df0 <_ZN11ChiMetadata8Iterator3GetER16ChiMetadataEntry+0xb8>
0x23df0 <_ZN11ChiMetadata8Iterator3GetER16ChiMetadataEntry+0xb8>
<_ZN11ChiMetadata8Iterator3GetER16ChiMetadataEntry+0xb8>

<_ZN18ChiMetadataManager10MetaClientC2Ev+0x10>
<_ZN18ChiMetadataManager10MetaClientC2Ev+0xd0>
<_ZN18ChiMetadataManager10MetaClientC2Ev+0x17c>
0x23f94 <_ZN18ChiMetadataManager10MetaClientC2Ev+0x194>
<_ZN18ChiMetadataManager10MetaClientC2Ev+0x148>
<_ZN18ChiMetadataManager10MetaClientC2Ev+0x190>
0x23f7c <_ZN18ChiMetadataManager10MetaClientC2Ev+0x17c>
0x23f90 <_ZN18ChiMetadataManager10MetaClientC2Ev+0x190>


<_ZN18ChiMetadataManager10MetaClient14ReleaseBuffersEv@plt>
0x23fd4 <_ZN18ChiMetadataManager10MetaClientD2Ev+0x2c>
0x23fc4 <_ZN18ChiMetadataManager10MetaClientD2Ev+0x1c>
0x23ff0 <_ZN18ChiMetadataManager10MetaClientD2Ev+0x48>
0x24030 <_ZN18ChiMetadataManager10MetaClientD2Ev+0x88>
<_ZNSt3__15mutexD1Ev@plt>
0x24024 <_ZN18ChiMetadataManager10MetaClientD2Ev+0x7c>
0x24030 <_ZN18ChiMetadataManager10MetaClientD2Ev+0x88>

0x2c000 <_ZN18ChiMetadataManager10MetaClient14ReleaseBuffersEv+0x40>
0x9000 <_ZN18ChiMetadataManager10MetaClientD2Ev+0x48>
#3, 0x24144 <_ZN18ChiMetadataManager10MetaClient14ReleaseBuffersEv+0x10c>
0x2c000 <_ZN18ChiMetadataManager10MetaClient14ReleaseBuffersEv+0x5c>
<_ZN18ChiMetadataManager10MetaClient14ReleaseBuffersEv+0xac>
0xd000 <_ZN18ChiMetadataManager10MetaClient14ReleaseBuffersEv+0xc>
0xa000 <_ZN18ChiMetadataManager10MetaClient14ReleaseBuffersEv+0x8>
0x9000 <_ZN18ChiMetadataManager10MetaClient14ReleaseBuffersEv+0xc>
0xb000 <_ZN18ChiMetadataManager10MetaClient14ReleaseBuffersEv+0x60>
0xd000 <_ZN18ChiMetadataManager10MetaClient14ReleaseBuffersEv+0x78>
0x9000 <_ZN18ChiMetadataManager10MetaClient14ReleaseBuffersEv+0x6c>
0xd000 <_ZN18ChiMetadataManager10MetaClient14ReleaseBuffersEv+0x80>
<_ZN6ChiLog9LogSystemEPKcS1_S1_S1_iS1_z@plt>
<_ZN18ChiMetadataManager10MetaClient14ReleaseBuffersEv+0x144>
<_ZN18ChiMetadataManager10MetaClient14ReleaseBuffersEv+0x248>
<_ZN18ChiMetadataManager10MetaClient14ReleaseBuffersEv+0x224>
0x24160 <_ZN18ChiMetadataManager10MetaClient14ReleaseBuffersEv+0x128>
<_ZN11ChiMetadata15DestroyInternalEb@plt>
0x24250 <_ZN18ChiMetadataManager10MetaClient14ReleaseBuffersEv+0x218>
0x2c000 <_ZN18ChiMetadataManager10MetaClient14ReleaseBuffersEv+0x188>
#0, 0x24164 <_ZN18ChiMetadataManager10MetaClient14ReleaseBuffersEv+0x12c>
0x2c000 <_ZN18ChiMetadataManager10MetaClient14ReleaseBuffersEv+0x19c>
<_ZN18ChiMetadataManager10MetaClient14ReleaseBuffersEv+0x1d0>
0xd000 <_ZN18ChiMetadataManager10MetaClient14ReleaseBuffersEv+0x148>
0xa000 <_ZN18ChiMetadataManager10MetaClient14ReleaseBuffersEv+0x140>
0x9000 <_ZN18ChiMetadataManager10MetaClient14ReleaseBuffersEv+0x140>
0xc000 <_ZN18ChiMetadataManager10MetaClient14ReleaseBuffersEv+0x184>
0x9000 <_ZN18ChiMetadataManager10MetaClient14ReleaseBuffersEv+0x180>
0x9000 <_ZN18ChiMetadataManager10MetaClient14ReleaseBuffersEv+0x184>
0xc000 <_ZN18ChiMetadataManager10MetaClient14ReleaseBuffersEv+0x194>
<_ZN6ChiLog9LogSystemEPKcS1_S1_S1_iS1_z@plt>
<_ZN18ChiMetadataManager10MetaClient14ReleaseBuffersEv+0x12c>
<_ZN18ChiMetadataManager10MetaClient14ReleaseBuffersEv+0x12c>

<_ZN18ChiMetadataManager10MetaClient12TrackBuffersERNSt3__16chrono10time_pointINS2_12steady_clockENS2_8durationIxNS1_5ratioILl1ELl1000000000EEEEEEEj+0x2dc>
<_ZN18ChiMetadataManager10MetaClient12TrackBuffersERNSt3__16chrono10time_pointINS2_12steady_clockENS2_8durationIxNS1_5ratioILl1ELl1000000000EEEEEEEj+0x15c>
0x9000 <_ZN18ChiMetadataManager10MetaClient14ReleaseBuffersEv+0x24c>
0xc000 <_ZN18ChiMetadataManager10MetaClient12TrackBuffersERNSt3__16chrono10time_pointINS2_12steady_clockENS2_8durationIxNS1_5ratioILl1ELl1000000000EEEEEEEj+0x78>
0xb000 <_ZN18ChiMetadataManager10MetaClient12TrackBuffersERNSt3__16chrono10time_pointINS2_12steady_clockENS2_8durationIxNS1_5ratioILl1ELl1000000000EEEEEEEj+0x7c>
0x9000 <_ZN18ChiMetadataManager10MetaClient12TrackBuffersERNSt3__16chrono10time_pointINS2_12steady_clockENS2_8durationIxNS1_5ratioILl1ELl1000000000EEEEEEEj+0x7c>
0xd000 <_ZN18ChiMetadataManager10MetaClient12TrackBuffersERNSt3__16chrono10time_pointINS2_12steady_clockENS2_8durationIxNS1_5ratioILl1ELl1000000000EEEEEEEj+0x90>
<_ZN6ChiLog9LogSystemEPKcS1_S1_S1_iS1_z@plt>
0x2a000 <_ZN18ChiMetadataManager10MetaClient12TrackBuffersERNSt3__16chrono10time_pointINS2_12steady_clockENS2_8durationIxNS1_5ratioILl1ELl1000000000EEEEEEEj+0x140>
<_ZN18ChiMetadataManager10MetaClient12TrackBuffersERNSt3__16chrono10time_pointINS2_12steady_clockENS2_8durationIxNS1_5ratioILl1ELl1000000000EEEEEEEj+0x2c0>
<_ZN18ChiMetadataManager10MetaClient12TrackBuffersERNSt3__16chrono10time_pointINS2_12steady_clockENS2_8durationIxNS1_5ratioILl1ELl1000000000EEEEEEEj+0x314>
<_ZN18ChiMetadataManager10MetaClient12TrackBuffersERNSt3__16chrono10time_pointINS2_12steady_clockENS2_8durationIxNS1_5ratioILl1ELl1000000000EEEEEEEj+0x2dc>
<_ZN18ChiMetadataManager10MetaClient12TrackBuffersERNSt3__16chrono10time_pointINS2_12steady_clockENS2_8durationIxNS1_5ratioILl1ELl1000000000EEEEEEEj+0x310>
0x243d0 <_ZN18ChiMetadataManager10MetaClient12TrackBuffersERNSt3__16chrono10time_pointINS2_12steady_clockENS2_8durationIxNS1_5ratioILl1ELl1000000000EEEEEEEj+0x148>
<_ZN18ChiMetadataManager10MetaClient12TrackBuffersERNSt3__16chrono10time_pointINS2_12steady_clockENS2_8durationIxNS1_5ratioILl1ELl1000000000EEEEEEEj+0x148>
0x2c000 <_ZN18ChiMetadataManager10MetaClient12TrackBuffersERNSt3__16chrono10time_pointINS2_12steady_clockENS2_8durationIxNS1_5ratioILl1ELl1000000000EEEEEEEj+0x208>
#5, 0x243ac <_ZN18ChiMetadataManager10MetaClient12TrackBuffersERNSt3__16chrono10time_pointINS2_12steady_clockENS2_8durationIxNS1_5ratioILl1ELl1000000000EEEEEEEj+0x124>
0x2c000 <_ZN18ChiMetadataManager10MetaClient12TrackBuffersERNSt3__16chrono10time_pointINS2_12steady_clockENS2_8durationIxNS1_5ratioILl1ELl1000000000EEEEEEEj+0x218>
<_ZN18ChiMetadataManager10MetaClient12TrackBuffersERNSt3__16chrono10time_pointINS2_12steady_clockENS2_8durationIxNS1_5ratioILl1ELl1000000000EEEEEEEj+0x68>
0x9000 <_ZN18ChiMetadataManager10MetaClient12TrackBuffersERNSt3__16chrono10time_pointINS2_12steady_clockENS2_8durationIxNS1_5ratioILl1ELl1000000000EEEEEEEj+0x1a0>
0xd000 <_ZN18ChiMetadataManager10MetaClient12TrackBuffersERNSt3__16chrono10time_pointINS2_12steady_clockENS2_8durationIxNS1_5ratioILl1ELl1000000000EEEEEEEj+0x218>
0xc000 <_ZN18ChiMetadataManager10MetaClient12TrackBuffersERNSt3__16chrono10time_pointINS2_12steady_clockENS2_8durationIxNS1_5ratioILl1ELl1000000000EEEEEEEj+0x218>
0x9000 <_ZN18ChiMetadataManager10MetaClient12TrackBuffersERNSt3__16chrono10time_pointINS2_12steady_clockENS2_8durationIxNS1_5ratioILl1ELl1000000000EEEEEEEj+0x210>
<_ZN18ChiMetadataManager10MetaClient12TrackBuffersERNSt3__16chrono10time_pointINS2_12steady_clockENS2_8durationIxNS1_5ratioILl1ELl1000000000EEEEEEEj+0x68>
<_ZN18ChiMetadataManager10MetaClient12TrackBuffersERNSt3__16chrono10time_pointINS2_12steady_clockENS2_8durationIxNS1_5ratioILl1ELl1000000000EEEEEEEj+0x13c>
<_ZN18ChiMetadataManager10MetaClient12TrackBuffersERNSt3__16chrono10time_pointINS2_12steady_clockENS2_8durationIxNS1_5ratioILl1ELl1000000000EEEEEEEj+0x318>


0x2c000 <_ZN18ChiMetadataManager10MetaClient15AllocateBuffersEPjjjjj+0x40>
0x24774 <_ZN18ChiMetadataManager10MetaClient15AllocateBuffersEPjjjjj+0x1bc>
<_ZN18ChiMetadataManager10MetaClient15AllocateBuffersEPjjjjj+0x1cc>
<_ZN18ChiMetadataManager10MetaClient15AllocateBuffersEPjjjjj+0xac>
<_ZN18ChiMetadataManager10MetaClient15AllocateBuffersEPjjjjj+0x2ac>
<_ZN11ChiMetadata6CreateEPKjjbP18ChiMetadataManagerj@plt>
0x2485c <_ZN18ChiMetadataManager10MetaClient15AllocateBuffersEPjjjjj+0x2a4>
<_ZN18ChiMetadataManager10MetaClient15AllocateBuffersEPjjjjj+0x78>
<_ZN18ChiMetadataManager10MetaClient15AllocateBuffersEPjjjjj+0x474>
0x24a30 <_ZN18ChiMetadataManager10MetaClient15AllocateBuffersEPjjjjj+0x478>
<_ZN18ChiMetadataManager10MetaClient15AllocateBuffersEPjjjjj+0x180>
<_ZN18ChiMetadataManager10MetaClient15AllocateBuffersEPjjjjj+0x470>
0x24658 <_ZN18ChiMetadataManager10MetaClient15AllocateBuffersEPjjjjj+0xa0>
0x24a28 <_ZN18ChiMetadataManager10MetaClient15AllocateBuffersEPjjjjj+0x470>
<_ZN18ChiMetadataManager10MetaClient15AllocateBuffersEPjjjjj+0xa0>
#0, 0x24794 <_ZN18ChiMetadataManager10MetaClient15AllocateBuffersEPjjjjj+0x1dc>
<_ZN18ChiMetadataManager10MetaClient15AllocateBuffersEPjjjjj+0x370>
#3, 0x2487c <_ZN18ChiMetadataManager10MetaClient15AllocateBuffersEPjjjjj+0x2c4>
<_ZN18ChiMetadataManager10MetaClient15AllocateBuffersEPjjjjj+0x370>
0x2c000 <_ZN18ChiMetadataManager10MetaClient15AllocateBuffersEPjjjjj+0x1fc>
<_ZN18ChiMetadataManager10MetaClient15AllocateBuffersEPjjjjj+0x244>
0x9000 <_ZN18ChiMetadataManager10MetaClient15AllocateBuffersEPjjjjj+0x188>
0xd000 <_ZN18ChiMetadataManager10MetaClient15AllocateBuffersEPjjjjj+0x1b4>
0xb000 <_ZN18ChiMetadataManager10MetaClient15AllocateBuffersEPjjjjj+0x1b0>
0x9000 <_ZN18ChiMetadataManager10MetaClient15AllocateBuffersEPjjjjj+0x1ac>
0x9000 <_ZN18ChiMetadataManager10MetaClient15AllocateBuffersEPjjjjj+0x1d8>
0xc000 <_ZN18ChiMetadataManager10MetaClient15AllocateBuffersEPjjjjj+0x200>
0x9000 <_ZN18ChiMetadataManager10MetaClient15AllocateBuffersEPjjjjj+0x1fc>
0x9000 <_ZN18ChiMetadataManager10MetaClient15AllocateBuffersEPjjjjj+0x200>
0xc000 <_ZN18ChiMetadataManager10MetaClient15AllocateBuffersEPjjjjj+0x210>
<_ZN6ChiLog9LogSystemEPKcS1_S1_S1_iS1_z@plt>
<_ZN18ChiMetadataManager10MetaClient15AllocateBuffersEPjjjjj+0x370>
<_ZN18ChiMetadataManager10MetaClient15AllocateBuffersEPjjjjj+0x2b0>
0x2c000 <_ZN18ChiMetadataManager10MetaClient15AllocateBuffersEPjjjjj+0x2d0>
#3, 0x24928 <_ZN18ChiMetadataManager10MetaClient15AllocateBuffersEPjjjjj+0x370>
0x2c000 <_ZN18ChiMetadataManager10MetaClient15AllocateBuffersEPjjjjj+0x2e4>
0x9000 <_ZN18ChiMetadataManager10MetaClient15AllocateBuffersEPjjjjj+0x25c>
<_ZN18ChiMetadataManager10MetaClient15AllocateBuffersEPjjjjj+0x328>
0xd000 <_ZN18ChiMetadataManager10MetaClient15AllocateBuffersEPjjjjj+0x29c>
0x9000 <_ZN18ChiMetadataManager10MetaClient15AllocateBuffersEPjjjjj+0x290>
0x9000 <_ZN18ChiMetadataManager10MetaClient15AllocateBuffersEPjjjjj+0x294>
0xb000 <_ZN18ChiMetadataManager10MetaClient15AllocateBuffersEPjjjjj+0x2d8>
0xd000 <_ZN18ChiMetadataManager10MetaClient15AllocateBuffersEPjjjjj+0x2e8>
0x9000 <_ZN18ChiMetadataManager10MetaClient15AllocateBuffersEPjjjjj+0x2dc>
0xa000 <_ZN18ChiMetadataManager10MetaClient15AllocateBuffersEPjjjjj+0x2e4>
<_ZN6ChiLog9LogSystemEPKcS1_S1_S1_iS1_z@plt>
#3, 0x249f0 <_ZN18ChiMetadataManager10MetaClient15AllocateBuffersEPjjjjj+0x438>
0x2c000 <_ZN18ChiMetadataManager10MetaClient15AllocateBuffersEPjjjjj+0x398>
<_ZN18ChiMetadataManager10MetaClient15AllocateBuffersEPjjjjj+0x3e0>
0x9000 <_ZN18ChiMetadataManager10MetaClient15AllocateBuffersEPjjjjj+0x320>
0xd000 <_ZN18ChiMetadataManager10MetaClient15AllocateBuffersEPjjjjj+0x350>
0x9000 <_ZN18ChiMetadataManager10MetaClient15AllocateBuffersEPjjjjj+0x348>
0xa000 <_ZN18ChiMetadataManager10MetaClient15AllocateBuffersEPjjjjj+0x35c>
0x9000 <_ZN18ChiMetadataManager10MetaClient15AllocateBuffersEPjjjjj+0x374>
0xc000 <_ZN18ChiMetadataManager10MetaClient15AllocateBuffersEPjjjjj+0x3a0>
0xb000 <_ZN18ChiMetadataManager10MetaClient15AllocateBuffersEPjjjjj+0x3b4>
0xd000 <_ZN18ChiMetadataManager10MetaClient15AllocateBuffersEPjjjjj+0x3c4>
0x9000 <_ZN18ChiMetadataManager10MetaClient15AllocateBuffersEPjjjjj+0x3b8>
<_ZN6ChiLog9LogSystemEPKcS1_S1_S1_iS1_z@plt>
<_ZN18ChiMetadataManager10MetaClient15AllocateBuffersEPjjjjj+0x480>
<_ZNKSt3__120__vector_base_commonILb1EE20__throw_length_errorEv@plt>



0x24ba4 <_ZN18ChiMetadataManager21AndroidMetadataHolderD2Ev+0x13c>
0x2c000 <_ZN18ChiMetadataManager21AndroidMetadataHolderD2Ev+0x44>
#3, 0x24b98 <_ZN18ChiMetadataManager21AndroidMetadataHolderD2Ev+0x130>
0x2c000 <_ZN18ChiMetadataManager21AndroidMetadataHolderD2Ev+0x54>
0x9000 <_ZN18ChiMetadataManager10MetaClient15AllocateBuffersEPjjjjj+0x47c>
<_ZN18ChiMetadataManager21AndroidMetadataHolderD2Ev+0xbc>
0xd000 <_ZN18ChiMetadataManager21AndroidMetadataHolderD2Ev+0x28>
0xb000 <_ZN18ChiMetadataManager21AndroidMetadataHolderD2Ev+0x24>
0xb000 <_ZN18ChiMetadataManager21AndroidMetadataHolderD2Ev+0x28>
0xd000 <_ZN18ChiMetadataManager21AndroidMetadataHolderD2Ev+0x98>
0xb000 <_ZN18ChiMetadataManager21AndroidMetadataHolderD2Ev+0x94>
0xb000 <_ZN18ChiMetadataManager21AndroidMetadataHolderD2Ev+0x98>
0xa000 <_ZN18ChiMetadataManager21AndroidMetadataHolderD2Ev+0x98>
<_ZN6ChiLog9LogSystemEPKcS1_S1_S1_iS1_z@plt>
0x24ba0 <_ZN18ChiMetadataManager21AndroidMetadataHolderD2Ev+0x138>
<_ZN18ChiMetadataManagerC2Ejjj@plt>
0x24c34 <_ZN18ChiMetadataManager21AndroidMetadataHolderD2Ev+0x1cc>
<_ZN11ChiMetadata21InitializeMetadataOpsEP14ChiMetadataOps@plt>
0x24c20 <_ZN18ChiMetadataManager21AndroidMetadataHolderD2Ev+0x1b8>
<_ZN18ChiMetadataManager10InitializeEv@plt>
0x24c34 <_ZN18ChiMetadataManager21AndroidMetadataHolderD2Ev+0x1cc>
<_ZN18ChiMetadataManagerD2Ev@plt>

0x2551c <_ZN18ChiMetadataManager10InitializeEv+0x8d4>
0x2551c <_ZN18ChiMetadataManager10InitializeEv+0x8d4>
<_ZN18ChiMetadataManager10InitializeEv+0x12c>
<_ZN18ChiMetadataManager10InitializeEv+0x134>
<_ZN18ChiMetadataManager10InitializeEv+0xcc>
0x24dd0 <_ZN18ChiMetadataManager10InitializeEv+0x188>
<_ZN18ChiMetadataManager10InitializeEv+0x138>
<_ZN18ChiMetadataManager10InitializeEv+0x16c>
<_ZN18ChiMetadataManager10InitializeEv+0x16c>
<_ZN18ChiMetadataManager10InitializeEv+0x188>
<_ZN18ChiMetadataManager10InitializeEv+0x178>
<_ZN18ChiMetadataManager10InitializeEv+0x200>
<_ZN18ChiMetadataManager10InitializeEv+0x9e0>
<_ZN18ChiMetadataManager10InitializeEv+0x4c0>
0x24e8c <_ZN18ChiMetadataManager10InitializeEv+0x244>
<_ZN18ChiMetadataManager10InitializeEv+0x24c>
<_ZN18ChiMetadataManager10InitializeEv+0x260>
<_ZN18ChiMetadataManager10InitializeEv+0x2dc>
<_ZN18ChiMetadataManager10InitializeEv+0x260>
0x24f24 <_ZN18ChiMetadataManager10InitializeEv+0x2dc>
<_ZN18ChiMetadataManager10InitializeEv+0x2b4>
0x24f24 <_ZN18ChiMetadataManager10InitializeEv+0x2dc>
<_ZN18ChiMetadataManager10InitializeEv+0x2dc>
<_ZN18ChiMetadataManager10InitializeEv+0x274>
<_ZN18ChiMetadataManager10InitializeEv+0x1e0>
<_ZN18ChiMetadataManager10InitializeEv+0x2dc>
<_ZN18ChiMetadataManager10InitializeEv+0x1e0>
0x24f24 <_ZN18ChiMetadataManager10InitializeEv+0x2dc>
<_ZN18ChiMetadataManager10InitializeEv+0x2a8>
<_ZN18ChiMetadataManager10InitializeEv+0x2a0>
<_ZN18ChiMetadataManager10InitializeEv+0x2a0>
<_ZN18ChiMetadataManager10InitializeEv+0x9e0>
0x24f70 <_ZN18ChiMetadataManager10InitializeEv+0x328>
<_ZN18ChiMetadataManager10InitializeEv+0x444>
<_ZN18ChiMetadataManager10InitializeEv+0x9e4>
<_ZN18ChiMetadataManager10InitializeEv+0x36c>
<_ZN18ChiMetadataManager10InitializeEv+0x384>
<_ZN18ChiMetadataManager10InitializeEv+0x384>
<_ZNSt3__112__next_primeEm@plt>
<_ZN18ChiMetadataManager10InitializeEv+0x39c>
<_ZN18ChiMetadataManager25AllocateFrameworkMetadataEjjbjj+0x1c8>
<_ZN18ChiMetadataManager10InitializeEv+0x410>
<_ZN18ChiMetadataManager10InitializeEv+0x410>
<_ZN18ChiMetadataManager10InitializeEv+0x3f4>
<_ZN18ChiMetadataManager10InitializeEv+0x3f4>
<_ZN18ChiMetadataManager10InitializeEv+0x3f8>
<_ZN18ChiMetadataManager10InitializeEv+0x3f8>
<_ZNSt3__112__next_primeEm@plt>
<_ZN18ChiMetadataManager10InitializeEv+0x410>
<_ZN18ChiMetadataManager10InitializeEv+0x394>
<_ZN18ChiMetadataManager10InitializeEv+0x9e8>
<_ZN18ChiMetadataManager10InitializeEv+0x434>
<_ZN18ChiMetadataManager10InitializeEv+0x43c>
<_ZN18ChiMetadataManager10InitializeEv+0x444>
<_ZN18ChiMetadataManager10InitializeEv+0x444>
0x250a8 <_ZN18ChiMetadataManager10InitializeEv+0x460>
<_ZN18ChiMetadataManager10InitializeEv+0x4ac>
0x250f4 <_ZN18ChiMetadataManager10InitializeEv+0x4ac>
<_ZN18ChiMetadataManager10InitializeEv+0x494>
<_ZN18ChiMetadataManager10InitializeEv+0x4a4>
<_ZN18ChiMetadataManager10InitializeEv+0x4a4>
<_ZN18ChiMetadataManager10InitializeEv+0x9e0>
<_ZN18ChiMetadataManager10InitializeEv+0x1e0>
0x254f8 <_ZN18ChiMetadataManager10InitializeEv+0x8b0>
<_ZN18ChiMetadataManager10InitializeEv+0x590>
<_ZN18ChiMetadataManager10InitializeEv+0x56c>
<_ZN18ChiMetadataManager10InitializeEv+0x514>
<_ZN18ChiMetadataManager10InitializeEv+0x564>
<_ZN18ChiMetadataManager21AndroidMetadataHolderD2Ev@plt>
<_ZN18ChiMetadataManager10InitializeEv+0x54c>
0x251c0 <_ZN18ChiMetadataManager10InitializeEv+0x578>
<_ZN18ChiMetadataManager10InitializeEv+0x590>
0x251d8 <_ZN18ChiMetadataManager10InitializeEv+0x590>
0x2562c <_ZN18ChiMetadataManager10InitializeEv+0x9e4>
<_ZN18ChiMetadataManager10InitializeEv+0x76c>
<_ZN18ChiMetadataManager10InitializeEv+0x7b0>
<_ZN18ChiMetadataManager10InitializeEv+0x7e0>
<_ZN18ChiMetadataManager10InitializeEv+0x620>
0x25440 <_ZN18ChiMetadataManager10InitializeEv+0x7f8>
<_ZN18ChiMetadataManager10InitializeEv+0x73c>
<_ZN18ChiMetadataManager10InitializeEv+0x7f8>
<_ZN18ChiMetadataManager10InitializeEv+0x750>
<_ZN18ChiMetadataManager10InitializeEv+0x7f8>
<_ZN18ChiMetadataManager10InitializeEv+0x88c>
<_ZN18ChiMetadataManager10InitializeEv+0x7a8>
<_ZN18ChiMetadataManager21AndroidMetadataHolderD2Ev@plt>
<_ZN18ChiMetadataManager10InitializeEv+0x790>
<_ZN18ChiMetadataManager10InitializeEv+0x88c>
<_ZN18ChiMetadataManager10InitializeEv+0x7bc>
<_ZN18ChiMetadataManager10InitializeEv+0x88c>
<_ZN18ChiMetadataManager10InitializeEv+0x7e4>
<_ZN18ChiMetadataManager10InitializeEv+0x830>
<_ZN18ChiMetadataManager10InitializeEv+0x810>
<_ZN18ChiMetadataManager10InitializeEv+0x838>
<_ZN18ChiMetadataManager10InitializeEv+0x86c>
<_ZN18ChiMetadataManager21AndroidMetadataHolderD2Ev@plt>
<_ZN18ChiMetadataManager10InitializeEv+0x854>
0x254d4 <_ZN18ChiMetadataManager10InitializeEv+0x88c>
0x2562c <_ZN18ChiMetadataManager10InitializeEv+0x9e4>
<_ZN18ChiMetadataManager25AllocateFrameworkMetadataEjjbjj@plt>
0x255fc <_ZN18ChiMetadataManager10InitializeEv+0x9b4>
0x2551c <_ZN18ChiMetadataManager10InitializeEv+0x8d4>
0x2562c <_ZN18ChiMetadataManager10InitializeEv+0x9e4>
0x255c8 <_ZN18ChiMetadataManager10InitializeEv+0x980>
0x2c000 <_ZN18ChiMetadataManager10InitializeEv+0x8f4>
#3, 0x255c8 <_ZN18ChiMetadataManager10InitializeEv+0x980>
0x2c000 <_ZN18ChiMetadataManager10InitializeEv+0x904>
0x9000 <_ZN18ChiMetadataManager10InitializeEv+0x87c>
<_ZN18ChiMetadataManager10InitializeEv+0x940>
0xd000 <_ZN18ChiMetadataManager10InitializeEv+0x8b8>
0x9000 <_ZN18ChiMetadataManager10InitializeEv+0x8ac>
0xc000 <_ZN18ChiMetadataManager10InitializeEv+0x8bc>
0xb000 <_ZN18ChiMetadataManager10InitializeEv+0x8ec>
0xd000 <_ZN18ChiMetadataManager10InitializeEv+0x8fc>
0xc000 <_ZN18ChiMetadataManager10InitializeEv+0x8fc>
0x9000 <_ZN18ChiMetadataManager10InitializeEv+0x8f4>
<_ZN6ChiLog9LogSystemEPKcS1_S1_S1_iS1_z@plt>
<_ZN18ChiMetadataManager10InitializeEv+0x9ec>
<_ZN18ChiMetadataManager25AllocateFrameworkMetadataEjjbjj@plt>
0x25500 <_ZN18ChiMetadataManager10InitializeEv+0x8b8>
<_ZN18ChiMetadataManager10InitializeEv+0x8d4>

0x25678 <_ZN18ChiMetadataManagerD2Ev+0x40>
<_ZN11ChiMetadata15DestroyInternalEb@plt>
0x25688 <_ZN18ChiMetadataManagerD2Ev+0x50>
<_ZdaPv@plt>
0x256e0 <_ZN18ChiMetadataManagerD2Ev+0xa8>
<_ZN18ChiMetadataManagerD2Ev+0x88>
<_ZN18ChiMetadataManager21AndroidMetadataHolderD2Ev@plt>
<_ZN18ChiMetadataManagerD2Ev+0x68>
<_ZN18ChiMetadataManagerD2Ev+0x8c>
0x25974 <_ZN18ChiMetadataManagerD2Ev+0x33c>
<_ZNSt3__15mutexD1Ev@plt>
<_ZNSt3__15mutexD1Ev@plt>
0x25718 <_ZN18ChiMetadataManagerD2Ev+0xe0>
0x25708 <_ZN18ChiMetadataManagerD2Ev+0xd0>
0x25734 <_ZN18ChiMetadataManagerD2Ev+0xfc>
0x25974 <_ZN18ChiMetadataManagerD2Ev+0x33c>
<_ZN18ChiMetadataManager10MetaClientD2Ev@plt>
<_ZN18ChiMetadataManager10MetaClientD2Ev@plt>
<_ZN18ChiMetadataManager10MetaClientD2Ev@plt>
<_ZN18ChiMetadataManager10MetaClientD2Ev@plt>
<_ZN18ChiMetadataManager10MetaClientD2Ev@plt>
<_ZN18ChiMetadataManager10MetaClientD2Ev@plt>
<_ZN18ChiMetadataManager10MetaClientD2Ev@plt>
<_ZN18ChiMetadataManager10MetaClientD2Ev@plt>
<_ZN18ChiMetadataManager10MetaClientD2Ev@plt>
<_ZN18ChiMetadataManager10MetaClientD2Ev@plt>
<_ZN18ChiMetadataManager10MetaClientD2Ev@plt>
<_ZN18ChiMetadataManager10MetaClientD2Ev@plt>
<_ZN18ChiMetadataManager10MetaClientD2Ev@plt>
<_ZN18ChiMetadataManager10MetaClientD2Ev@plt>
<_ZN18ChiMetadataManager10MetaClientD2Ev@plt>
<_ZN18ChiMetadataManager10MetaClientD2Ev@plt>
<_ZN18ChiMetadataManager10MetaClientD2Ev@plt>
<_ZN18ChiMetadataManager10MetaClientD2Ev@plt>
<_ZN18ChiMetadataManager10MetaClientD2Ev@plt>
<_ZN18ChiMetadataManager10MetaClientD2Ev@plt>
<_ZN18ChiMetadataManager10MetaClientD2Ev@plt>
<_ZN18ChiMetadataManager10MetaClientD2Ev@plt>
<_ZN18ChiMetadataManager10MetaClientD2Ev@plt>
<_ZN18ChiMetadataManager10MetaClientD2Ev@plt>
<_ZN18ChiMetadataManager10MetaClientD2Ev@plt>
<_ZN18ChiMetadataManager10MetaClientD2Ev@plt>
<_ZN18ChiMetadataManager10MetaClientD2Ev@plt>
<_ZN18ChiMetadataManager10MetaClientD2Ev@plt>
<_ZN18ChiMetadataManager10MetaClientD2Ev@plt>
<_ZN18ChiMetadataManager10MetaClientD2Ev@plt>
<_ZN18ChiMetadataManager10MetaClientD2Ev@plt>
<_ZN18ChiMetadataManager10MetaClientD2Ev@plt>
<_ZN18ChiMetadataManagerD2Ev+0x13c>

<_ZN18ChiMetadataManager25AllocateFrameworkMetadataEjjbjj+0x19c>
0x2c000 <_ZN18ChiMetadataManager25AllocateFrameworkMetadataEjjbjj+0x44>
<_ZN18ChiMetadataManager25AllocateFrameworkMetadataEjjbjj+0xe4>
0x9000 <_ZN18ChiMetadataManagerD2Ev+0x32c>
0xd000 <_ZN18ChiMetadataManager25AllocateFrameworkMetadataEjjbjj+0x34>
0xb000 <_ZN18ChiMetadataManager25AllocateFrameworkMetadataEjjbjj+0x30>
0x9000 <_ZN18ChiMetadataManager25AllocateFrameworkMetadataEjjbjj+0x2c>
0x9000 <_ZN18ChiMetadataManager25AllocateFrameworkMetadataEjjbjj+0x30>
<_ZN6ChiLog9LogSystemEPKcS1_S1_S1_iS1_z@plt>
<_ZN18ChiMetadataManager25AllocateFrameworkMetadataEjjbjj+0x19c>
0x25b1c <_ZN18ChiMetadataManager25AllocateFrameworkMetadataEjjbjj+0x1a4>
#3, 0x25a4c <_ZN18ChiMetadataManager25AllocateFrameworkMetadataEjjbjj+0xd4>
0x2c000 <_ZN18ChiMetadataManager25AllocateFrameworkMetadataEjjbjj+0x130>
<_ZN18ChiMetadataManager25AllocateFrameworkMetadataEjjbjj+0x5c>
0x9000 <_ZN18ChiMetadataManager25AllocateFrameworkMetadataEjjbjj+0xbc>
0xd000 <_ZN18ChiMetadataManager25AllocateFrameworkMetadataEjjbjj+0x100>
0xb000 <_ZN18ChiMetadataManager25AllocateFrameworkMetadataEjjbjj+0xfc>
0x9000 <_ZN18ChiMetadataManager25AllocateFrameworkMetadataEjjbjj+0xf8>
<_ZN18ChiMetadataManager25AllocateFrameworkMetadataEjjbjj+0x5c>
<_ZN18ChiMetadataManager25AllocateFrameworkMetadataEjjbjj+0x1a8>
0x25b74 <_ZN18ChiMetadataManager25AllocateFrameworkMetadataEjjbjj+0x1fc>
0x25de8 <_ZN18ChiMetadataManager25AllocateFrameworkMetadataEjjbjj+0x470>
<_ZN18ChiMetadataManager25AllocateFrameworkMetadataEjjbjj+0x200>
0x25b94 <_ZN18ChiMetadataManager25AllocateFrameworkMetadataEjjbjj+0x21c>
0x25dec <_ZN18ChiMetadataManager25AllocateFrameworkMetadataEjjbjj+0x474>
0x25d4c <_ZN18ChiMetadataManager25AllocateFrameworkMetadataEjjbjj+0x3d4>
<_ZN18ChiMetadataManager25AllocateFrameworkMetadataEjjbjj+0x248>
<_ZN18ChiMetadataManager25AllocateFrameworkMetadataEjjbjj+0x3e0>
<_ZN18ChiMetadataManager25AllocateFrameworkMetadataEjjbjj+0x3e0>
<_ZN18ChiMetadataManager25AllocateFrameworkMetadataEjjbjj+0x250>
0x25d4c <_ZN18ChiMetadataManager25AllocateFrameworkMetadataEjjbjj+0x3d4>
<_ZN18ChiMetadataManager25AllocateFrameworkMetadataEjjbjj+0x29c>
<_ZN18ChiMetadataManager25AllocateFrameworkMetadataEjjbjj+0x2ac>
<_ZN18ChiMetadataManager25AllocateFrameworkMetadataEjjbjj+0x2ac>
0x25d4c <_ZN18ChiMetadataManager25AllocateFrameworkMetadataEjjbjj+0x3d4>
<_ZN18ChiMetadataManager25AllocateFrameworkMetadataEjjbjj+0x354>
<_ZN18ChiMetadataManager25AllocateFrameworkMetadataEjjbjj+0x2d4>
0x25d4c <_ZN18ChiMetadataManager25AllocateFrameworkMetadataEjjbjj+0x3d4>
<_ZN18ChiMetadataManager25AllocateFrameworkMetadataEjjbjj+0x2c8>
0x25cb0 <_ZN18ChiMetadataManager25AllocateFrameworkMetadataEjjbjj+0x338>
0x25c88 <_ZN18ChiMetadataManager25AllocateFrameworkMetadataEjjbjj+0x310>
<_ZN18ChiMetadataManager25AllocateFrameworkMetadataEjjbjj+0x2f4>
<_ZN18ChiMetadataManager25AllocateFrameworkMetadataEjjbjj+0x2cc>
<_ZN18ChiMetadataManager25AllocateFrameworkMetadataEjjbjj+0x2cc>
0x25d4c <_ZN18ChiMetadataManager25AllocateFrameworkMetadataEjjbjj+0x3d4>
<_ZN18ChiMetadataManager25AllocateFrameworkMetadataEjjbjj+0x368>
<_ZN18ChiMetadataManager25AllocateFrameworkMetadataEjjbjj+0x348>
0x25d3c <_ZN18ChiMetadataManager25AllocateFrameworkMetadataEjjbjj+0x3c4>
0x25d14 <_ZN18ChiMetadataManager25AllocateFrameworkMetadataEjjbjj+0x39c>
<_ZN18ChiMetadataManager25AllocateFrameworkMetadataEjjbjj+0x380>
<_ZN18ChiMetadataManager25AllocateFrameworkMetadataEjjbjj+0x34c>
<_ZN18ChiMetadataManager25AllocateFrameworkMetadataEjjbjj+0x34c>
<_ZN18ChiMetadataManager25AllocateFrameworkMetadataEjjbjj+0x3f4>
0x25be0 <_ZN18ChiMetadataManager25AllocateFrameworkMetadataEjjbjj+0x268>
<_ZN18ChiMetadataManager25AllocateFrameworkMetadataEjjbjj+0x438>
<_ZN18ChiMetadataManager25AllocateFrameworkMetadataEjjbjj+0x268>
#2, 0x25dc8 <_ZN18ChiMetadataManager25AllocateFrameworkMetadataEjjbjj+0x450>
<_ZN18ChiMetadataManager25AllocateFrameworkMetadataEjjbjj+0x268>
#1, 0x25de0 <_ZN18ChiMetadataManager25AllocateFrameworkMetadataEjjbjj+0x468>
<_ZN18ChiMetadataManager25AllocateFrameworkMetadataEjjbjj+0x268>
<_ZN18ChiMetadataManager25AllocateFrameworkMetadataEjjbjj+0x268>

<_ZN18ChiMetadataManagerC2Ejjj+0x7c>
<_ZN18ChiMetadataManager10MetaClientC2Ev+0xd0>
<_ZN18ChiMetadataManagerC2Ejjj+0x64>

0x26098 <_ZN18ChiMetadataManager7DestroyEv+0x28>
<_ZN18ChiMetadataManagerD2Ev@plt>

<_ZNSt3__15mutex4lockEv@plt>
0x2c000 <_ZN18ChiMetadataManager30InitializeFrameworkInputClientEjb+0x64>
0x261c8 <_ZN18ChiMetadataManager30InitializeFrameworkInputClientEjb+0x128>
0x261c8 <_ZN18ChiMetadataManager30InitializeFrameworkInputClientEjb+0x128>
#3, 0x261c0 <_ZN18ChiMetadataManager30InitializeFrameworkInputClientEjb+0x120>
0x2c000 <_ZN18ChiMetadataManager30InitializeFrameworkInputClientEjb+0x90>
<_ZN18ChiMetadataManager30InitializeFrameworkInputClientEjb+0xd4>
0x9000 <_ZN18ChiMetadataManager30InitializeFrameworkInputClientEjb+0x18>
0xd000 <_ZN18ChiMetadataManager30InitializeFrameworkInputClientEjb+0x44>
0xd000 <_ZN18ChiMetadataManager30InitializeFrameworkInputClientEjb+0x48>
0xc000 <_ZN18ChiMetadataManager30InitializeFrameworkInputClientEjb+0x48>
0x9000 <_ZN18ChiMetadataManager30InitializeFrameworkInputClientEjb+0x60>
0xb000 <_ZN18ChiMetadataManager30InitializeFrameworkInputClientEjb+0x84>
0xd000 <_ZN18ChiMetadataManager30InitializeFrameworkInputClientEjb+0x94>
0xc000 <_ZN18ChiMetadataManager30InitializeFrameworkInputClientEjb+0x94>
0xd000 <_ZN18ChiMetadataManager30InitializeFrameworkInputClientEjb+0x9c>
<_ZN6ChiLog9LogSystemEPKcS1_S1_S1_iS1_z@plt>
<_ZN18ChiMetadataManager30InitializeFrameworkInputClientEjb+0x430>
<_ZN15ExtensionModule11GetInstanceEv@plt>
<_ZN15ExtensionModule23GetAvailableRequestKeysEjPjjS0_@plt>
0x262e4 <_ZN18ChiMetadataManager30InitializeFrameworkInputClientEjb+0x244>
#0, 0x2630c <_ZN18ChiMetadataManager30InitializeFrameworkInputClientEjb+0x26c>
0x2c000 <_ZN18ChiMetadataManager30InitializeFrameworkInputClientEjb+0x1bc>
0x9000 <_ZN18ChiMetadataManager30InitializeFrameworkInputClientEjb+0x134>
<_ZN18ChiMetadataManager30InitializeFrameworkInputClientEjb+0x204>
0xd000 <_ZN18ChiMetadataManager30InitializeFrameworkInputClientEjb+0x174>
0xc000 <_ZN18ChiMetadataManager30InitializeFrameworkInputClientEjb+0x174>
0xc000 <_ZN18ChiMetadataManager30InitializeFrameworkInputClientEjb+0x178>
0xc000 <_ZN18ChiMetadataManager30InitializeFrameworkInputClientEjb+0x1b0>
0x9000 <_ZN18ChiMetadataManager30InitializeFrameworkInputClientEjb+0x1ac>
0xc000 <_ZN18ChiMetadataManager30InitializeFrameworkInputClientEjb+0x1bc>
0xa000 <_ZN18ChiMetadataManager30InitializeFrameworkInputClientEjb+0x1b8>
<_ZN18ChiMetadataManager30InitializeFrameworkInputClientEjb+0x418>
<_ZN18ChiMetadataManager10MetaClient15AllocateBuffersEPjjjjj@plt>
0x26318 <_ZN18ChiMetadataManager30InitializeFrameworkInputClientEjb+0x278>
#0, 0x26414 <_ZN18ChiMetadataManager30InitializeFrameworkInputClientEjb+0x374>
0x264c8 <_ZN18ChiMetadataManager30InitializeFrameworkInputClientEjb+0x428>
<_ZN18ChiMetadataManager30InitializeFrameworkInputClientEjb+0x430>
0x265bc <_ZN18ChiMetadataManager30InitializeFrameworkInputClientEjb+0x51c>
0x264c4 <_ZN18ChiMetadataManager30InitializeFrameworkInputClientEjb+0x424>
#0, 0x2630c <_ZN18ChiMetadataManager30InitializeFrameworkInputClientEjb+0x26c>
0x2c000 <_ZN18ChiMetadataManager30InitializeFrameworkInputClientEjb+0x2e8>
<_ZN18ChiMetadataManager30InitializeFrameworkInputClientEjb+0x328>
0x9000 <_ZN18ChiMetadataManager30InitializeFrameworkInputClientEjb+0x270>
0xd000 <_ZN18ChiMetadataManager30InitializeFrameworkInputClientEjb+0x29c>
0x9000 <_ZN18ChiMetadataManager30InitializeFrameworkInputClientEjb+0x290>
0xc000 <_ZN18ChiMetadataManager30InitializeFrameworkInputClientEjb+0x2a0>
0x9000 <_ZN18ChiMetadataManager30InitializeFrameworkInputClientEjb+0x2b4>
0xc000 <_ZN18ChiMetadataManager30InitializeFrameworkInputClientEjb+0x2dc>
0x9000 <_ZN18ChiMetadataManager30InitializeFrameworkInputClientEjb+0x2d8>
0xc000 <_ZN18ChiMetadataManager30InitializeFrameworkInputClientEjb+0x2e8>
0xc000 <_ZN18ChiMetadataManager30InitializeFrameworkInputClientEjb+0x2ec>
<_ZN6ChiLog9LogSystemEPKcS1_S1_S1_iS1_z@plt>
<_ZN18ChiMetadataManager30InitializeFrameworkInputClientEjb+0x26c>
0x2c000 <_ZN18ChiMetadataManager30InitializeFrameworkInputClientEjb+0x38c>
<_ZN18ChiMetadataManager30InitializeFrameworkInputClientEjb+0x3d4>
0x9000 <_ZN18ChiMetadataManager30InitializeFrameworkInputClientEjb+0x318>
0xd000 <_ZN18ChiMetadataManager30InitializeFrameworkInputClientEjb+0x344>
0xa000 <_ZN18ChiMetadataManager30InitializeFrameworkInputClientEjb+0x33c>
0xc000 <_ZN18ChiMetadataManager30InitializeFrameworkInputClientEjb+0x348>
0x9000 <_ZN18ChiMetadataManager30InitializeFrameworkInputClientEjb+0x360>
0xc000 <_ZN18ChiMetadataManager30InitializeFrameworkInputClientEjb+0x388>
0x9000 <_ZN18ChiMetadataManager30InitializeFrameworkInputClientEjb+0x384>
0xc000 <_ZN18ChiMetadataManager30InitializeFrameworkInputClientEjb+0x394>
0xa000 <_ZN18ChiMetadataManager30InitializeFrameworkInputClientEjb+0x390>
<_ZN6ChiLog9LogSystemEPKcS1_S1_S1_iS1_z@plt>
0x264d0 <_ZN18ChiMetadataManager30InitializeFrameworkInputClientEjb+0x430>
#3, 0x26580 <_ZN18ChiMetadataManager30InitializeFrameworkInputClientEjb+0x4e0>
0x2c000 <_ZN18ChiMetadataManager30InitializeFrameworkInputClientEjb+0x450>
<_ZN18ChiMetadataManager30InitializeFrameworkInputClientEjb+0x494>
0x9000 <_ZN18ChiMetadataManager30InitializeFrameworkInputClientEjb+0x3d8>
0xd000 <_ZN18ChiMetadataManager30InitializeFrameworkInputClientEjb+0x404>
0xa000 <_ZN18ChiMetadataManager30InitializeFrameworkInputClientEjb+0x3fc>
0xc000 <_ZN18ChiMetadataManager30InitializeFrameworkInputClientEjb+0x408>
0x9000 <_ZN18ChiMetadataManager30InitializeFrameworkInputClientEjb+0x420>
0xb000 <_ZN18ChiMetadataManager30InitializeFrameworkInputClientEjb+0x444>
0xd000 <_ZN18ChiMetadataManager30InitializeFrameworkInputClientEjb+0x454>
0xc000 <_ZN18ChiMetadataManager30InitializeFrameworkInputClientEjb+0x454>
0xc000 <_ZN18ChiMetadataManager30InitializeFrameworkInputClientEjb+0x458>
<_ZN6ChiLog9LogSystemEPKcS1_S1_S1_iS1_z@plt>
<_ZNSt3__15mutex6unlockEv@plt>
<_ZN18ChiMetadataManager30InitializeFrameworkInputClientEjb+0x574>
0x26364 <_ZN18ChiMetadataManager30InitializeFrameworkInputClientEjb+0x2c4>
0x264c8 <_ZN18ChiMetadataManager30InitializeFrameworkInputClientEjb+0x428>
<_ZN18ChiMetadataManager30InitializeFrameworkInputClientEjb+0x430>

0x26668 <_ZN18ChiMetadataManager14RegisterClientEiPjjjj16ChiMetadataUsage+0x50>
<_ZN18ChiMetadataManager23RegisterExclusiveClientEPjjj16ChiMetadataUsage@plt>
0x26684 <_ZN18ChiMetadataManager14RegisterClientEiPjjjj16ChiMetadataUsage+0x6c>
<_ZN18ChiMetadataManager14RegisterClientEiPjjjj16ChiMetadataUsage+0x23c>
<_ZN18ChiMetadataManager20RegisterSharedClientEPjjj16ChiMetadataUsage@plt>
0x26854 <_ZN18ChiMetadataManager14RegisterClientEiPjjjj16ChiMetadataUsage+0x23c>
0x26754 <_ZN18ChiMetadataManager14RegisterClientEiPjjjj16ChiMetadataUsage+0x13c>
0x2c000 <_ZN18ChiMetadataManager14RegisterClientEiPjjjj16ChiMetadataUsage+0x98>
#3, 0x26854 <_ZN18ChiMetadataManager14RegisterClientEiPjjjj16ChiMetadataUsage+0x23c>
0x2c000 <_ZN18ChiMetadataManager14RegisterClientEiPjjjj16ChiMetadataUsage+0xa8>
0x9000 <_ZN18ChiMetadataManager14RegisterClientEiPjjjj16ChiMetadataUsage+0x20>
<_ZN18ChiMetadataManager14RegisterClientEiPjjjj16ChiMetadataUsage+0xf0>
0xd000 <_ZN18ChiMetadataManager14RegisterClientEiPjjjj16ChiMetadataUsage+0x5c>
0xc000 <_ZN18ChiMetadataManager14RegisterClientEiPjjjj16ChiMetadataUsage+0x5c>
0x9000 <_ZN18ChiMetadataManager14RegisterClientEiPjjjj16ChiMetadataUsage+0x54>
0xb000 <_ZN18ChiMetadataManager14RegisterClientEiPjjjj16ChiMetadataUsage+0x98>
0xd000 <_ZN18ChiMetadataManager14RegisterClientEiPjjjj16ChiMetadataUsage+0xa8>
0x9000 <_ZN18ChiMetadataManager14RegisterClientEiPjjjj16ChiMetadataUsage+0x9c>
0x9000 <_ZN18ChiMetadataManager14RegisterClientEiPjjjj16ChiMetadataUsage+0xa0>
<_ZN6ChiLog9LogSystemEPKcS1_S1_S1_iS1_z@plt>
<_ZN18ChiMetadataManager14RegisterClientEiPjjjj16ChiMetadataUsage+0x23c>
0x26784 <_ZN18ChiMetadataManager14RegisterClientEiPjjjj16ChiMetadataUsage+0x16c>
0x26784 <_ZN18ChiMetadataManager14RegisterClientEiPjjjj16ChiMetadataUsage+0x16c>
0x2c000 <_ZN18ChiMetadataManager14RegisterClientEiPjjjj16ChiMetadataUsage+0x184>
#3, 0x26854 <_ZN18ChiMetadataManager14RegisterClientEiPjjjj16ChiMetadataUsage+0x23c>
0x2c000 <_ZN18ChiMetadataManager14RegisterClientEiPjjjj16ChiMetadataUsage+0x194>
<_ZN18ChiMetadataManager14RegisterClientEiPjjjj16ChiMetadataUsage+0x1e4>
0x9000 <_ZN18ChiMetadataManager14RegisterClientEiPjjjj16ChiMetadataUsage+0x11c>
0xd000 <_ZN18ChiMetadataManager14RegisterClientEiPjjjj16ChiMetadataUsage+0x148>
0xa000 <_ZN18ChiMetadataManager14RegisterClientEiPjjjj16ChiMetadataUsage+0x140>
0x9000 <_ZN18ChiMetadataManager14RegisterClientEiPjjjj16ChiMetadataUsage+0x140>
0x9000 <_ZN18ChiMetadataManager14RegisterClientEiPjjjj16ChiMetadataUsage+0x170>
0xb000 <_ZN18ChiMetadataManager14RegisterClientEiPjjjj16ChiMetadataUsage+0x194>
0xd000 <_ZN18ChiMetadataManager14RegisterClientEiPjjjj16ChiMetadataUsage+0x1a4>
0x9000 <_ZN18ChiMetadataManager14RegisterClientEiPjjjj16ChiMetadataUsage+0x198>
0xa000 <_ZN18ChiMetadataManager14RegisterClientEiPjjjj16ChiMetadataUsage+0x1a0>
<_ZN6ChiLog9LogSystemEPKcS1_S1_S1_iS1_z@plt>

<_ZNSt3__15mutex4lockEv@plt>
0x269f8 <_ZN18ChiMetadataManager23RegisterExclusiveClientEPjjj16ChiMetadataUsage+0x180>
0x26a00 <_ZN18ChiMetadataManager23RegisterExclusiveClientEPjjj16ChiMetadataUsage+0x188>
0x26a0c <_ZN18ChiMetadataManager23RegisterExclusiveClientEPjjj16ChiMetadataUsage+0x194>
0x26a18 <_ZN18ChiMetadataManager23RegisterExclusiveClientEPjjj16ChiMetadataUsage+0x1a0>
0x26a24 <_ZN18ChiMetadataManager23RegisterExclusiveClientEPjjj16ChiMetadataUsage+0x1ac>
0x26a30 <_ZN18ChiMetadataManager23RegisterExclusiveClientEPjjj16ChiMetadataUsage+0x1b8>
0x26a3c <_ZN18ChiMetadataManager23RegisterExclusiveClientEPjjj16ChiMetadataUsage+0x1c4>
0x26a48 <_ZN18ChiMetadataManager23RegisterExclusiveClientEPjjj16ChiMetadataUsage+0x1d0>
0x26a54 <_ZN18ChiMetadataManager23RegisterExclusiveClientEPjjj16ChiMetadataUsage+0x1dc>
0x26a60 <_ZN18ChiMetadataManager23RegisterExclusiveClientEPjjj16ChiMetadataUsage+0x1e8>
0x26a6c <_ZN18ChiMetadataManager23RegisterExclusiveClientEPjjj16ChiMetadataUsage+0x1f4>
0x26a78 <_ZN18ChiMetadataManager23RegisterExclusiveClientEPjjj16ChiMetadataUsage+0x200>
0x26a84 <_ZN18ChiMetadataManager23RegisterExclusiveClientEPjjj16ChiMetadataUsage+0x20c>
0x26a90 <_ZN18ChiMetadataManager23RegisterExclusiveClientEPjjj16ChiMetadataUsage+0x218>
0x26a9c <_ZN18ChiMetadataManager23RegisterExclusiveClientEPjjj16ChiMetadataUsage+0x224>
0x26aa8 <_ZN18ChiMetadataManager23RegisterExclusiveClientEPjjj16ChiMetadataUsage+0x230>
0x26ab4 <_ZN18ChiMetadataManager23RegisterExclusiveClientEPjjj16ChiMetadataUsage+0x23c>
<_ZN18ChiMetadataManager23RegisterExclusiveClientEPjjj16ChiMetadataUsage+0x94>
<_ZN18ChiMetadataManager23RegisterExclusiveClientEPjjj16ChiMetadataUsage+0x2a0>
<_ZN18ChiMetadataManager23RegisterExclusiveClientEPjjj16ChiMetadataUsage+0x244>
<_ZN18ChiMetadataManager23RegisterExclusiveClientEPjjj16ChiMetadataUsage+0x244>
<_ZN18ChiMetadataManager23RegisterExclusiveClientEPjjj16ChiMetadataUsage+0x244>
<_ZN18ChiMetadataManager23RegisterExclusiveClientEPjjj16ChiMetadataUsage+0x244>
<_ZN18ChiMetadataManager23RegisterExclusiveClientEPjjj16ChiMetadataUsage+0x244>
<_ZN18ChiMetadataManager23RegisterExclusiveClientEPjjj16ChiMetadataUsage+0x244>
<_ZN18ChiMetadataManager23RegisterExclusiveClientEPjjj16ChiMetadataUsage+0x244>
<_ZN18ChiMetadataManager23RegisterExclusiveClientEPjjj16ChiMetadataUsage+0x244>
<_ZN18ChiMetadataManager23RegisterExclusiveClientEPjjj16ChiMetadataUsage+0x244>
<_ZN18ChiMetadataManager23RegisterExclusiveClientEPjjj16ChiMetadataUsage+0x244>
<_ZN18ChiMetadataManager23RegisterExclusiveClientEPjjj16ChiMetadataUsage+0x244>
<_ZN18ChiMetadataManager23RegisterExclusiveClientEPjjj16ChiMetadataUsage+0x244>
<_ZN18ChiMetadataManager23RegisterExclusiveClientEPjjj16ChiMetadataUsage+0x244>
<_ZN18ChiMetadataManager23RegisterExclusiveClientEPjjj16ChiMetadataUsage+0x244>
<_ZN18ChiMetadataManager23RegisterExclusiveClientEPjjj16ChiMetadataUsage+0x244>
<_ZN18ChiMetadataManager23RegisterExclusiveClientEPjjj16ChiMetadataUsage+0x244>
<_ZN18ChiMetadataManager23RegisterExclusiveClientEPjjj16ChiMetadataUsage+0x278>
<_ZN18ChiMetadataManager10MetaClientC2Ev+0xd0>
<_ZN18ChiMetadataManager10MetaClient15AllocateBuffersEPjjjjj@plt>
0x26bd0 <_ZN18ChiMetadataManager23RegisterExclusiveClientEPjjj16ChiMetadataUsage+0x358>
0x2c000 <_ZN18ChiMetadataManager23RegisterExclusiveClientEPjjj16ChiMetadataUsage+0x2b8>
#0, 0x26bc8 <_ZN18ChiMetadataManager23RegisterExclusiveClientEPjjj16ChiMetadataUsage+0x350>
0x2c000 <_ZN18ChiMetadataManager23RegisterExclusiveClientEPjjj16ChiMetadataUsage+0x2c8>
0x9000 <_ZN18ChiMetadataManager23RegisterExclusiveClientEPjjj16ChiMetadataUsage+0x240>
<_ZN18ChiMetadataManager23RegisterExclusiveClientEPjjj16ChiMetadataUsage+0x30c>
0xd000 <_ZN18ChiMetadataManager23RegisterExclusiveClientEPjjj16ChiMetadataUsage+0x27c>
0x9000 <_ZN18ChiMetadataManager23RegisterExclusiveClientEPjjj16ChiMetadataUsage+0x270>
0xa000 <_ZN18ChiMetadataManager23RegisterExclusiveClientEPjjj16ChiMetadataUsage+0x278>
0xc000 <_ZN18ChiMetadataManager23RegisterExclusiveClientEPjjj16ChiMetadataUsage+0x2b8>
0x9000 <_ZN18ChiMetadataManager23RegisterExclusiveClientEPjjj16ChiMetadataUsage+0x2b4>
0xa000 <_ZN18ChiMetadataManager23RegisterExclusiveClientEPjjj16ChiMetadataUsage+0x2bc>
0xb000 <_ZN18ChiMetadataManager23RegisterExclusiveClientEPjjj16ChiMetadataUsage+0x2c4>
<_ZN6ChiLog9LogSystemEPKcS1_S1_S1_iS1_z@plt>
<_ZN18ChiMetadataManager23RegisterExclusiveClientEPjjj16ChiMetadataUsage+0x434>
0x2c000 <_ZN18ChiMetadataManager23RegisterExclusiveClientEPjjj16ChiMetadataUsage+0x374>
#3, 0x26cac <_ZN18ChiMetadataManager23RegisterExclusiveClientEPjjj16ChiMetadataUsage+0x434>
0x2c000 <_ZN18ChiMetadataManager23RegisterExclusiveClientEPjjj16ChiMetadataUsage+0x38c>
<_ZN18ChiMetadataManager23RegisterExclusiveClientEPjjj16ChiMetadataUsage+0x3dc>
0x9000 <_ZN18ChiMetadataManager23RegisterExclusiveClientEPjjj16ChiMetadataUsage+0x314>
0xd000 <_ZN18ChiMetadataManager23RegisterExclusiveClientEPjjj16ChiMetadataUsage+0x340>
0xb000 <_ZN18ChiMetadataManager23RegisterExclusiveClientEPjjj16ChiMetadataUsage+0x33c>
0xa000 <_ZN18ChiMetadataManager23RegisterExclusiveClientEPjjj16ChiMetadataUsage+0x33c>
0x9000 <_ZN18ChiMetadataManager23RegisterExclusiveClientEPjjj16ChiMetadataUsage+0x368>
0xb000 <_ZN18ChiMetadataManager23RegisterExclusiveClientEPjjj16ChiMetadataUsage+0x38c>
0xd000 <_ZN18ChiMetadataManager23RegisterExclusiveClientEPjjj16ChiMetadataUsage+0x39c>
0xa000 <_ZN18ChiMetadataManager23RegisterExclusiveClientEPjjj16ChiMetadataUsage+0x394>
0xd000 <_ZN18ChiMetadataManager23RegisterExclusiveClientEPjjj16ChiMetadataUsage+0x3a4>
<_ZN6ChiLog9LogSystemEPKcS1_S1_S1_iS1_z@plt>
<_ZNSt3__15mutex6unlockEv@plt>

<_ZNSt3__15mutex4lockEv@plt>
0x26db4 <_ZN18ChiMetadataManager20RegisterSharedClientEPjjj16ChiMetadataUsage+0xdc>
0x26fe0 <_ZN18ChiMetadataManager20RegisterSharedClientEPjjj16ChiMetadataUsage+0x308>
0x26dc4 <_ZN18ChiMetadataManager20RegisterSharedClientEPjjj16ChiMetadataUsage+0xec>
0x26fe8 <_ZN18ChiMetadataManager20RegisterSharedClientEPjjj16ChiMetadataUsage+0x310>
0x26dd8 <_ZN18ChiMetadataManager20RegisterSharedClientEPjjj16ChiMetadataUsage+0x100>
0x26ff0 <_ZN18ChiMetadataManager20RegisterSharedClientEPjjj16ChiMetadataUsage+0x318>
0x26dec <_ZN18ChiMetadataManager20RegisterSharedClientEPjjj16ChiMetadataUsage+0x114>
0x26ff8 <_ZN18ChiMetadataManager20RegisterSharedClientEPjjj16ChiMetadataUsage+0x320>
0x26dfc <_ZN18ChiMetadataManager20RegisterSharedClientEPjjj16ChiMetadataUsage+0x124>
0x27004 <_ZN18ChiMetadataManager20RegisterSharedClientEPjjj16ChiMetadataUsage+0x32c>
0x26e0c <_ZN18ChiMetadataManager20RegisterSharedClientEPjjj16ChiMetadataUsage+0x134>
0x27010 <_ZN18ChiMetadataManager20RegisterSharedClientEPjjj16ChiMetadataUsage+0x338>
0x26e28 <_ZN18ChiMetadataManager20RegisterSharedClientEPjjj16ChiMetadataUsage+0x150>
0x2701c <_ZN18ChiMetadataManager20RegisterSharedClientEPjjj16ChiMetadataUsage+0x344>
0x26e40 <_ZN18ChiMetadataManager20RegisterSharedClientEPjjj16ChiMetadataUsage+0x168>
0x27028 <_ZN18ChiMetadataManager20RegisterSharedClientEPjjj16ChiMetadataUsage+0x350>
0x26e58 <_ZN18ChiMetadataManager20RegisterSharedClientEPjjj16ChiMetadataUsage+0x180>
0x27034 <_ZN18ChiMetadataManager20RegisterSharedClientEPjjj16ChiMetadataUsage+0x35c>
0x26e68 <_ZN18ChiMetadataManager20RegisterSharedClientEPjjj16ChiMetadataUsage+0x190>
0x27040 <_ZN18ChiMetadataManager20RegisterSharedClientEPjjj16ChiMetadataUsage+0x368>
0x26e78 <_ZN18ChiMetadataManager20RegisterSharedClientEPjjj16ChiMetadataUsage+0x1a0>
0x2704c <_ZN18ChiMetadataManager20RegisterSharedClientEPjjj16ChiMetadataUsage+0x374>
0x26e88 <_ZN18ChiMetadataManager20RegisterSharedClientEPjjj16ChiMetadataUsage+0x1b0>
0x27058 <_ZN18ChiMetadataManager20RegisterSharedClientEPjjj16ChiMetadataUsage+0x380>
0x26e98 <_ZN18ChiMetadataManager20RegisterSharedClientEPjjj16ChiMetadataUsage+0x1c0>
0x27064 <_ZN18ChiMetadataManager20RegisterSharedClientEPjjj16ChiMetadataUsage+0x38c>
0x26ea8 <_ZN18ChiMetadataManager20RegisterSharedClientEPjjj16ChiMetadataUsage+0x1d0>
0x27070 <_ZN18ChiMetadataManager20RegisterSharedClientEPjjj16ChiMetadataUsage+0x398>
0x26eb8 <_ZN18ChiMetadataManager20RegisterSharedClientEPjjj16ChiMetadataUsage+0x1e0>
0x2707c <_ZN18ChiMetadataManager20RegisterSharedClientEPjjj16ChiMetadataUsage+0x3a4>
0x26ec8 <_ZN18ChiMetadataManager20RegisterSharedClientEPjjj16ChiMetadataUsage+0x1f0>
0x27088 <_ZN18ChiMetadataManager20RegisterSharedClientEPjjj16ChiMetadataUsage+0x3b0>
0x26edc <_ZN18ChiMetadataManager20RegisterSharedClientEPjjj16ChiMetadataUsage+0x204>
0x27094 <_ZN18ChiMetadataManager20RegisterSharedClientEPjjj16ChiMetadataUsage+0x3bc>
<_ZN18ChiMetadataManager20RegisterSharedClientEPjjj16ChiMetadataUsage+0xc8>
0x27824 <_ZN18ChiMetadataManager20RegisterSharedClientEPjjj16ChiMetadataUsage+0xb4c>
0x2782c <_ZN18ChiMetadataManager20RegisterSharedClientEPjjj16ChiMetadataUsage+0xb54>
0x27834 <_ZN18ChiMetadataManager20RegisterSharedClientEPjjj16ChiMetadataUsage+0xb5c>
0x2783c <_ZN18ChiMetadataManager20RegisterSharedClientEPjjj16ChiMetadataUsage+0xb64>
0x27848 <_ZN18ChiMetadataManager20RegisterSharedClientEPjjj16ChiMetadataUsage+0xb70>
0x27854 <_ZN18ChiMetadataManager20RegisterSharedClientEPjjj16ChiMetadataUsage+0xb7c>
0x27860 <_ZN18ChiMetadataManager20RegisterSharedClientEPjjj16ChiMetadataUsage+0xb88>
0x2786c <_ZN18ChiMetadataManager20RegisterSharedClientEPjjj16ChiMetadataUsage+0xb94>
0x27878 <_ZN18ChiMetadataManager20RegisterSharedClientEPjjj16ChiMetadataUsage+0xba0>
0x27884 <_ZN18ChiMetadataManager20RegisterSharedClientEPjjj16ChiMetadataUsage+0xbac>
0x27890 <_ZN18ChiMetadataManager20RegisterSharedClientEPjjj16ChiMetadataUsage+0xbb8>
0x2789c <_ZN18ChiMetadataManager20RegisterSharedClientEPjjj16ChiMetadataUsage+0xbc4>
0x278a8 <_ZN18ChiMetadataManager20RegisterSharedClientEPjjj16ChiMetadataUsage+0xbd0>
0x278b4 <_ZN18ChiMetadataManager20RegisterSharedClientEPjjj16ChiMetadataUsage+0xbdc>
0x278c0 <_ZN18ChiMetadataManager20RegisterSharedClientEPjjj16ChiMetadataUsage+0xbe8>
0x278cc <_ZN18ChiMetadataManager20RegisterSharedClientEPjjj16ChiMetadataUsage+0xbf4>
0x278d8 <_ZN18ChiMetadataManager20RegisterSharedClientEPjjj16ChiMetadataUsage+0xc00>
<_ZN18ChiMetadataManager20RegisterSharedClientEPjjj16ChiMetadataUsage+0x250>
<_ZN18ChiMetadataManager20RegisterSharedClientEPjjj16ChiMetadataUsage+0x93c>
<_ZN18ChiMetadataManager20RegisterSharedClientEPjjj16ChiMetadataUsage+0x3c4>
<_ZN18ChiMetadataManager20RegisterSharedClientEPjjj16ChiMetadataUsage+0x3c4>
<_ZN18ChiMetadataManager20RegisterSharedClientEPjjj16ChiMetadataUsage+0x3c4>
<_ZN18ChiMetadataManager20RegisterSharedClientEPjjj16ChiMetadataUsage+0x3c4>
<_ZN18ChiMetadataManager20RegisterSharedClientEPjjj16ChiMetadataUsage+0x3c4>
<_ZN18ChiMetadataManager20RegisterSharedClientEPjjj16ChiMetadataUsage+0x3c4>
<_ZN18ChiMetadataManager20RegisterSharedClientEPjjj16ChiMetadataUsage+0x3c4>
<_ZN18ChiMetadataManager20RegisterSharedClientEPjjj16ChiMetadataUsage+0x3c4>
<_ZN18ChiMetadataManager20RegisterSharedClientEPjjj16ChiMetadataUsage+0x3c4>
<_ZN18ChiMetadataManager20RegisterSharedClientEPjjj16ChiMetadataUsage+0x3c4>
<_ZN18ChiMetadataManager20RegisterSharedClientEPjjj16ChiMetadataUsage+0x3c4>
<_ZN18ChiMetadataManager20RegisterSharedClientEPjjj16ChiMetadataUsage+0x3c4>
<_ZN18ChiMetadataManager20RegisterSharedClientEPjjj16ChiMetadataUsage+0x3c4>
<_ZN18ChiMetadataManager20RegisterSharedClientEPjjj16ChiMetadataUsage+0x3c4>
<_ZN18ChiMetadataManager20RegisterSharedClientEPjjj16ChiMetadataUsage+0x3c4>
<_ZN18ChiMetadataManager20RegisterSharedClientEPjjj16ChiMetadataUsage+0x3c4>
0x271d8 <_ZN18ChiMetadataManager20RegisterSharedClientEPjjj16ChiMetadataUsage+0x500>
0x271e0 <_ZN18ChiMetadataManager20RegisterSharedClientEPjjj16ChiMetadataUsage+0x508>
0x271e8 <_ZN18ChiMetadataManager20RegisterSharedClientEPjjj16ChiMetadataUsage+0x510>
0x271f0 <_ZN18ChiMetadataManager20RegisterSharedClientEPjjj16ChiMetadataUsage+0x518>
0x271f8 <_ZN18ChiMetadataManager20RegisterSharedClientEPjjj16ChiMetadataUsage+0x520>
0x27200 <_ZN18ChiMetadataManager20RegisterSharedClientEPjjj16ChiMetadataUsage+0x528>
0x27208 <_ZN18ChiMetadataManager20RegisterSharedClientEPjjj16ChiMetadataUsage+0x530>
0x27210 <_ZN18ChiMetadataManager20RegisterSharedClientEPjjj16ChiMetadataUsage+0x538>
0x27218 <_ZN18ChiMetadataManager20RegisterSharedClientEPjjj16ChiMetadataUsage+0x540>
0x27220 <_ZN18ChiMetadataManager20RegisterSharedClientEPjjj16ChiMetadataUsage+0x548>
0x27228 <_ZN18ChiMetadataManager20RegisterSharedClientEPjjj16ChiMetadataUsage+0x550>
0x27230 <_ZN18ChiMetadataManager20RegisterSharedClientEPjjj16ChiMetadataUsage+0x558>
0x27238 <_ZN18ChiMetadataManager20RegisterSharedClientEPjjj16ChiMetadataUsage+0x560>
0x27240 <_ZN18ChiMetadataManager20RegisterSharedClientEPjjj16ChiMetadataUsage+0x568>
0x27248 <_ZN18ChiMetadataManager20RegisterSharedClientEPjjj16ChiMetadataUsage+0x570>
0x27250 <_ZN18ChiMetadataManager20RegisterSharedClientEPjjj16ChiMetadataUsage+0x578>
0x27258 <_ZN18ChiMetadataManager20RegisterSharedClientEPjjj16ChiMetadataUsage+0x580>
0x27260 <_ZN18ChiMetadataManager20RegisterSharedClientEPjjj16ChiMetadataUsage+0x588>
0x27268 <_ZN18ChiMetadataManager20RegisterSharedClientEPjjj16ChiMetadataUsage+0x590>
0x27270 <_ZN18ChiMetadataManager20RegisterSharedClientEPjjj16ChiMetadataUsage+0x598>
0x27278 <_ZN18ChiMetadataManager20RegisterSharedClientEPjjj16ChiMetadataUsage+0x5a0>
0x27280 <_ZN18ChiMetadataManager20RegisterSharedClientEPjjj16ChiMetadataUsage+0x5a8>
0x27288 <_ZN18ChiMetadataManager20RegisterSharedClientEPjjj16ChiMetadataUsage+0x5b0>
0x27290 <_ZN18ChiMetadataManager20RegisterSharedClientEPjjj16ChiMetadataUsage+0x5b8>
0x27298 <_ZN18ChiMetadataManager20RegisterSharedClientEPjjj16ChiMetadataUsage+0x5c0>
0x272a0 <_ZN18ChiMetadataManager20RegisterSharedClientEPjjj16ChiMetadataUsage+0x5c8>
0x272a8 <_ZN18ChiMetadataManager20RegisterSharedClientEPjjj16ChiMetadataUsage+0x5d0>
0x272b0 <_ZN18ChiMetadataManager20RegisterSharedClientEPjjj16ChiMetadataUsage+0x5d8>
0x272b8 <_ZN18ChiMetadataManager20RegisterSharedClientEPjjj16ChiMetadataUsage+0x5e0>
0x272c0 <_ZN18ChiMetadataManager20RegisterSharedClientEPjjj16ChiMetadataUsage+0x5e8>
0x272c8 <_ZN18ChiMetadataManager20RegisterSharedClientEPjjj16ChiMetadataUsage+0x5f0>
0x272d0 <_ZN18ChiMetadataManager20RegisterSharedClientEPjjj16ChiMetadataUsage+0x5f8>
<_ZN18ChiMetadataManager20RegisterSharedClientEPjjj16ChiMetadataUsage+0x3e8>
<_ZN18ChiMetadataManager20RegisterSharedClientEPjjj16ChiMetadataUsage+0x93c>
<_ZN18ChiMetadataManager20RegisterSharedClientEPjjj16ChiMetadataUsage+0x5fc>
<_ZN18ChiMetadataManager20RegisterSharedClientEPjjj16ChiMetadataUsage+0x5fc>
<_ZN18ChiMetadataManager20RegisterSharedClientEPjjj16ChiMetadataUsage+0x5fc>
<_ZN18ChiMetadataManager20RegisterSharedClientEPjjj16ChiMetadataUsage+0x5fc>
<_ZN18ChiMetadataManager20RegisterSharedClientEPjjj16ChiMetadataUsage+0x5fc>
<_ZN18ChiMetadataManager20RegisterSharedClientEPjjj16ChiMetadataUsage+0x5fc>
<_ZN18ChiMetadataManager20RegisterSharedClientEPjjj16ChiMetadataUsage+0x5fc>
<_ZN18ChiMetadataManager20RegisterSharedClientEPjjj16ChiMetadataUsage+0x5fc>
<_ZN18ChiMetadataManager20RegisterSharedClientEPjjj16ChiMetadataUsage+0x5fc>
<_ZN18ChiMetadataManager20RegisterSharedClientEPjjj16ChiMetadataUsage+0x5fc>
<_ZN18ChiMetadataManager20RegisterSharedClientEPjjj16ChiMetadataUsage+0x5fc>
<_ZN18ChiMetadataManager20RegisterSharedClientEPjjj16ChiMetadataUsage+0x5fc>
<_ZN18ChiMetadataManager20RegisterSharedClientEPjjj16ChiMetadataUsage+0x5fc>
<_ZN18ChiMetadataManager20RegisterSharedClientEPjjj16ChiMetadataUsage+0x5fc>
<_ZN18ChiMetadataManager20RegisterSharedClientEPjjj16ChiMetadataUsage+0x5fc>
<_ZN18ChiMetadataManager20RegisterSharedClientEPjjj16ChiMetadataUsage+0x5fc>
<_ZN18ChiMetadataManager20RegisterSharedClientEPjjj16ChiMetadataUsage+0x5fc>
<_ZN18ChiMetadataManager20RegisterSharedClientEPjjj16ChiMetadataUsage+0x5fc>
<_ZN18ChiMetadataManager20RegisterSharedClientEPjjj16ChiMetadataUsage+0x5fc>
<_ZN18ChiMetadataManager20RegisterSharedClientEPjjj16ChiMetadataUsage+0x5fc>
<_ZN18ChiMetadataManager20RegisterSharedClientEPjjj16ChiMetadataUsage+0x5fc>
<_ZN18ChiMetadataManager20RegisterSharedClientEPjjj16ChiMetadataUsage+0x5fc>
<_ZN18ChiMetadataManager20RegisterSharedClientEPjjj16ChiMetadataUsage+0x5fc>
<_ZN18ChiMetadataManager20RegisterSharedClientEPjjj16ChiMetadataUsage+0x5fc>
<_ZN18ChiMetadataManager20RegisterSharedClientEPjjj16ChiMetadataUsage+0x5fc>
<_ZN18ChiMetadataManager20RegisterSharedClientEPjjj16ChiMetadataUsage+0x5fc>
<_ZN18ChiMetadataManager20RegisterSharedClientEPjjj16ChiMetadataUsage+0x5fc>
<_ZN18ChiMetadataManager20RegisterSharedClientEPjjj16ChiMetadataUsage+0x5fc>
<_ZN18ChiMetadataManager20RegisterSharedClientEPjjj16ChiMetadataUsage+0x5fc>
<_ZN18ChiMetadataManager20RegisterSharedClientEPjjj16ChiMetadataUsage+0x5fc>
<_ZN18ChiMetadataManager20RegisterSharedClientEPjjj16ChiMetadataUsage+0x5fc>
<_ZN18ChiMetadataManager20RegisterSharedClientEPjjj16ChiMetadataUsage+0x93c>
<_ZN18ChiMetadataManager20RegisterSharedClientEPjjj16ChiMetadataUsage+0x67c>
0x27394 <_ZN18ChiMetadataManager20RegisterSharedClientEPjjj16ChiMetadataUsage+0x6bc>
<_ZN18ChiMetadataManager20RegisterSharedClientEPjjj16ChiMetadataUsage+0xc44>
<_ZN18ChiMetadataManager20RegisterSharedClientEPjjj16ChiMetadataUsage+0xc44>
<_ZN18ChiMetadataManager20RegisterSharedClientEPjjj16ChiMetadataUsage+0x8f4>
0x2738c <_ZN18ChiMetadataManager20RegisterSharedClientEPjjj16ChiMetadataUsage+0x6b4>
<_ZN18ChiMetadataManager20RegisterSharedClientEPjjj16ChiMetadataUsage+0x6f0>
<_ZN18ChiMetadataManager20RegisterSharedClientEPjjj16ChiMetadataUsage+0x704>
<_ZN18ChiMetadataManager20RegisterSharedClientEPjjj16ChiMetadataUsage+0x780>
0x27330 <_ZN18ChiMetadataManager20RegisterSharedClientEPjjj16ChiMetadataUsage+0x658>
<_ZN18ChiMetadataManager20RegisterSharedClientEPjjj16ChiMetadataUsage+0x88c>
<_ZN18ChiMetadataManager20RegisterSharedClientEPjjj16ChiMetadataUsage+0x89c>
<_ZN18ChiMetadataManager20RegisterSharedClientEPjjj16ChiMetadataUsage+0x704>
0x27458 <_ZN18ChiMetadataManager20RegisterSharedClientEPjjj16ChiMetadataUsage+0x780>
<_ZN18ChiMetadataManager20RegisterSharedClientEPjjj16ChiMetadataUsage+0x758>
0x27458 <_ZN18ChiMetadataManager20RegisterSharedClientEPjjj16ChiMetadataUsage+0x780>
<_ZN18ChiMetadataManager20RegisterSharedClientEPjjj16ChiMetadataUsage+0x780>
<_ZN18ChiMetadataManager20RegisterSharedClientEPjjj16ChiMetadataUsage+0x718>
<_ZN18ChiMetadataManager20RegisterSharedClientEPjjj16ChiMetadataUsage+0x668>
<_ZN18ChiMetadataManager20RegisterSharedClientEPjjj16ChiMetadataUsage+0x780>
<_ZN18ChiMetadataManager20RegisterSharedClientEPjjj16ChiMetadataUsage+0x668>
0x27458 <_ZN18ChiMetadataManager20RegisterSharedClientEPjjj16ChiMetadataUsage+0x780>
<_ZN18ChiMetadataManager20RegisterSharedClientEPjjj16ChiMetadataUsage+0x74c>
<_ZN18ChiMetadataManager20RegisterSharedClientEPjjj16ChiMetadataUsage+0x744>
<_ZN18ChiMetadataManager20RegisterSharedClientEPjjj16ChiMetadataUsage+0x744>
<_ZN18ChiMetadataManager20RegisterSharedClientEPjjj16ChiMetadataUsage+0xc44>
0x27498 <_ZN18ChiMetadataManager20RegisterSharedClientEPjjj16ChiMetadataUsage+0x7c0>
<_ZN18ChiMetadataManager20RegisterSharedClientEPjjj16ChiMetadataUsage+0x640>
<_ZN18ChiMetadataManager20RegisterSharedClientEPjjj16ChiMetadataUsage+0xc48>
<_ZN18ChiMetadataManager20RegisterSharedClientEPjjj16ChiMetadataUsage+0x804>
<_ZN18ChiMetadataManager20RegisterSharedClientEPjjj16ChiMetadataUsage+0x818>
<_ZN18ChiMetadataManager20RegisterSharedClientEPjjj16ChiMetadataUsage+0x818>
<_ZNSt3__112__next_primeEm@plt>
<_ZN18ChiMetadataManager20RegisterSharedClientEPjjj16ChiMetadataUsage+0x834>
<_ZN18ChiMetadataManager20RegisterSharedClientEPjjj16ChiMetadataUsage+0xe18>
<_ZN18ChiMetadataManager20RegisterSharedClientEPjjj16ChiMetadataUsage+0x8c4>
<_ZN18ChiMetadataManager20RegisterSharedClientEPjjj16ChiMetadataUsage+0x8c4>
<_ZN18ChiMetadataManager20RegisterSharedClientEPjjj16ChiMetadataUsage+0x8a8>
<_ZN18ChiMetadataManager20RegisterSharedClientEPjjj16ChiMetadataUsage+0x8a8>
<_ZN18ChiMetadataManager20RegisterSharedClientEPjjj16ChiMetadataUsage+0x8ac>
<_ZN18ChiMetadataManager20RegisterSharedClientEPjjj16ChiMetadataUsage+0x8ac>
<_ZN18ChiMetadataManager20RegisterSharedClientEPjjj16ChiMetadataUsage+0x89c>
<_ZN18ChiMetadataManager20RegisterSharedClientEPjjj16ChiMetadataUsage+0x658>
<_ZNSt3__112__next_primeEm@plt>
<_ZN18ChiMetadataManager20RegisterSharedClientEPjjj16ChiMetadataUsage+0x8c4>
<_ZN18ChiMetadataManager20RegisterSharedClientEPjjj16ChiMetadataUsage+0x82c>
<_ZN18ChiMetadataManager20RegisterSharedClientEPjjj16ChiMetadataUsage+0xc4c>
<_ZN18ChiMetadataManager20RegisterSharedClientEPjjj16ChiMetadataUsage+0x63c>
<_ZN18ChiMetadataManager20RegisterSharedClientEPjjj16ChiMetadataUsage+0x8e8>
<_ZN18ChiMetadataManager20RegisterSharedClientEPjjj16ChiMetadataUsage+0x640>
<_ZN18ChiMetadataManager20RegisterSharedClientEPjjj16ChiMetadataUsage+0x640>
<_ZN18ChiMetadataManager20RegisterSharedClientEPjjj16ChiMetadataUsage+0xc78>
<_ZN18ChiMetadataManager10MetaClient15AllocateBuffersEPjjjjj@plt>
0x2772c <_ZN18ChiMetadataManager20RegisterSharedClientEPjjj16ChiMetadataUsage+0xa54>
0x2c000 <_ZN18ChiMetadataManager20RegisterSharedClientEPjjj16ChiMetadataUsage+0x950>
#0, 0x276c8 <_ZN18ChiMetadataManager20RegisterSharedClientEPjjj16ChiMetadataUsage+0x9f0>
0x2c000 <_ZN18ChiMetadataManager20RegisterSharedClientEPjjj16ChiMetadataUsage+0x964>
0x9000 <_ZN18ChiMetadataManager20RegisterSharedClientEPjjj16ChiMetadataUsage+0x8dc>
<_ZN18ChiMetadataManager20RegisterSharedClientEPjjj16ChiMetadataUsage+0x9ac>
0xd000 <_ZN18ChiMetadataManager20RegisterSharedClientEPjjj16ChiMetadataUsage+0x918>
0x9000 <_ZN18ChiMetadataManager20RegisterSharedClientEPjjj16ChiMetadataUsage+0x90c>
0xc000 <_ZN18ChiMetadataManager20RegisterSharedClientEPjjj16ChiMetadataUsage+0x91c>
0xc000 <_ZN18ChiMetadataManager20RegisterSharedClientEPjjj16ChiMetadataUsage+0x954>
0x9000 <_ZN18ChiMetadataManager20RegisterSharedClientEPjjj16ChiMetadataUsage+0x950>
0xc000 <_ZN18ChiMetadataManager20RegisterSharedClientEPjjj16ChiMetadataUsage+0x960>
0xb000 <_ZN18ChiMetadataManager20RegisterSharedClientEPjjj16ChiMetadataUsage+0x960>
<_ZN6ChiLog9LogSystemEPKcS1_S1_S1_iS1_z@plt>
<_ZNSt3__15mutex6unlockEv@plt>
0x276f8 <_ZN18ChiMetadataManager20RegisterSharedClientEPjjj16ChiMetadataUsage+0xa20>
0x27920 <_ZN18ChiMetadataManager20RegisterSharedClientEPjjj16ChiMetadataUsage+0xc48>
<_ZN18ChiMetadataManager20RegisterSharedClientEPjjj16ChiMetadataUsage+0xc50>
<_ZN18ChiMetadataManager20RegisterSharedClientEPjjj16ChiMetadataUsage+0xc54>
0x2c000 <_ZN18ChiMetadataManager20RegisterSharedClientEPjjj16ChiMetadataUsage+0xa80>
<_ZN18ChiMetadataManager20RegisterSharedClientEPjjj16ChiMetadataUsage+0x94c>
#3, 0x276cc <_ZN18ChiMetadataManager20RegisterSharedClientEPjjj16ChiMetadataUsage+0x9f4>
0x2c000 <_ZN18ChiMetadataManager20RegisterSharedClientEPjjj16ChiMetadataUsage+0xaa4>
<_ZN18ChiMetadataManager20RegisterSharedClientEPjjj16ChiMetadataUsage+0xaf4>
0x9000 <_ZN18ChiMetadataManager20RegisterSharedClientEPjjj16ChiMetadataUsage+0xa2c>
0xd000 <_ZN18ChiMetadataManager20RegisterSharedClientEPjjj16ChiMetadataUsage+0xa58>
0x9000 <_ZN18ChiMetadataManager20RegisterSharedClientEPjjj16ChiMetadataUsage+0xa4c>
0xc000 <_ZN18ChiMetadataManager20RegisterSharedClientEPjjj16ChiMetadataUsage+0xa5c>
0x9000 <_ZN18ChiMetadataManager20RegisterSharedClientEPjjj16ChiMetadataUsage+0xa7c>
0xb000 <_ZN18ChiMetadataManager20RegisterSharedClientEPjjj16ChiMetadataUsage+0xaa0>
0xd000 <_ZN18ChiMetadataManager20RegisterSharedClientEPjjj16ChiMetadataUsage+0xab0>
0xc000 <_ZN18ChiMetadataManager20RegisterSharedClientEPjjj16ChiMetadataUsage+0xab0>
0xa000 <_ZN18ChiMetadataManager20RegisterSharedClientEPjjj16ChiMetadataUsage+0xaac>
<_ZN6ChiLog9LogSystemEPKcS1_S1_S1_iS1_z@plt>
<_ZN18ChiMetadataManager20RegisterSharedClientEPjjj16ChiMetadataUsage+0x9f4>
<_ZN18ChiMetadataManager20RegisterSharedClientEPjjj16ChiMetadataUsage+0xc08>
<_ZN18ChiMetadataManager20RegisterSharedClientEPjjj16ChiMetadataUsage+0xc08>
<_ZN18ChiMetadataManager20RegisterSharedClientEPjjj16ChiMetadataUsage+0xc08>
<_ZN18ChiMetadataManager20RegisterSharedClientEPjjj16ChiMetadataUsage+0xc08>
<_ZN18ChiMetadataManager20RegisterSharedClientEPjjj16ChiMetadataUsage+0xc08>
<_ZN18ChiMetadataManager20RegisterSharedClientEPjjj16ChiMetadataUsage+0xc08>
<_ZN18ChiMetadataManager20RegisterSharedClientEPjjj16ChiMetadataUsage+0xc08>
<_ZN18ChiMetadataManager20RegisterSharedClientEPjjj16ChiMetadataUsage+0xc08>
<_ZN18ChiMetadataManager20RegisterSharedClientEPjjj16ChiMetadataUsage+0xc08>
<_ZN18ChiMetadataManager20RegisterSharedClientEPjjj16ChiMetadataUsage+0xc08>
<_ZN18ChiMetadataManager20RegisterSharedClientEPjjj16ChiMetadataUsage+0xc08>
<_ZN18ChiMetadataManager20RegisterSharedClientEPjjj16ChiMetadataUsage+0xc08>
<_ZN18ChiMetadataManager20RegisterSharedClientEPjjj16ChiMetadataUsage+0xc08>
<_ZN18ChiMetadataManager20RegisterSharedClientEPjjj16ChiMetadataUsage+0xc08>
<_ZN18ChiMetadataManager20RegisterSharedClientEPjjj16ChiMetadataUsage+0xc08>
<_ZN18ChiMetadataManager20RegisterSharedClientEPjjj16ChiMetadataUsage+0xc08>
<_ZN18ChiMetadataManager10MetaClientC2Ev+0xd0>
<_ZN18ChiMetadataManager20RegisterSharedClientEPjjj16ChiMetadataUsage+0x604>
0x2798c <_ZN18ChiMetadataManager20RegisterSharedClientEPjjj16ChiMetadataUsage+0xcb4>
<_ZN18ChiMetadataManager20RegisterSharedClientEPjjj16ChiMetadataUsage+0xe00>
0x27974 <_ZN18ChiMetadataManager20RegisterSharedClientEPjjj16ChiMetadataUsage+0xc9c>
<_ZN18ChiMetadataManager20RegisterSharedClientEPjjj16ChiMetadataUsage+0xcb8>
<_ZN18ChiMetadataManager20RegisterSharedClientEPjjj16ChiMetadataUsage+0xd54>
0x279c8 <_ZN18ChiMetadataManager20RegisterSharedClientEPjjj16ChiMetadataUsage+0xcf0>
0x27ae4 <_ZN18ChiMetadataManager20RegisterSharedClientEPjjj16ChiMetadataUsage+0xe0c>
0x27adc <_ZN18ChiMetadataManager20RegisterSharedClientEPjjj16ChiMetadataUsage+0xe04>
0x27ac8 <_ZN18ChiMetadataManager20RegisterSharedClientEPjjj16ChiMetadataUsage+0xdf0>
0x27a10 <_ZN18ChiMetadataManager20RegisterSharedClientEPjjj16ChiMetadataUsage+0xd38>
<_ZN18ChiMetadataManager20RegisterSharedClientEPjjj16ChiMetadataUsage+0xdf0>
<_ZN18ChiMetadataManager20RegisterSharedClientEPjjj16ChiMetadataUsage+0xd90>
<_ZN18ChiMetadataManager20RegisterSharedClientEPjjj16ChiMetadataUsage+0xd9c>
<_ZN18ChiMetadataManager20RegisterSharedClientEPjjj16ChiMetadataUsage+0xd78>
<_ZN18ChiMetadataManager20RegisterSharedClientEPjjj16ChiMetadataUsage+0xdb4>
<_ZN18ChiMetadataManager20RegisterSharedClientEPjjj16ChiMetadataUsage+0xdb4>
<_ZN18ChiMetadataManager20RegisterSharedClientEPjjj16ChiMetadataUsage+0xdb4>
<_ZN18ChiMetadataManager20RegisterSharedClientEPjjj16ChiMetadataUsage+0xda8>
0x27ac4 <_ZN18ChiMetadataManager20RegisterSharedClientEPjjj16ChiMetadataUsage+0xdec>
<_ZN18ChiMetadataManager20RegisterSharedClientEPjjj16ChiMetadataUsage+0xe10>
0x27ac8 <_ZN18ChiMetadataManager20RegisterSharedClientEPjjj16ChiMetadataUsage+0xdf0>
0x27aa8 <_ZN18ChiMetadataManager20RegisterSharedClientEPjjj16ChiMetadataUsage+0xdd0>
<_ZN18ChiMetadataManager20RegisterSharedClientEPjjj16ChiMetadataUsage+0xdf0>
<_ZNKSt3__120__vector_base_commonILb1EE20__throw_length_errorEv@plt>
0x27b24 <_ZN18ChiMetadataManager20RegisterSharedClientEPjjj16ChiMetadataUsage+0xe4c>
0x27d98 <_ZN18ChiMetadataManager20RegisterSharedClientEPjjj16ChiMetadataUsage+0x10c0>
<_ZN18ChiMetadataManager20RegisterSharedClientEPjjj16ChiMetadataUsage+0xe50>
0x27b44 <_ZN18ChiMetadataManager20RegisterSharedClientEPjjj16ChiMetadataUsage+0xe6c>
0x27d9c <_ZN18ChiMetadataManager20RegisterSharedClientEPjjj16ChiMetadataUsage+0x10c4>
0x27cfc <_ZN18ChiMetadataManager20RegisterSharedClientEPjjj16ChiMetadataUsage+0x1024>
<_ZN18ChiMetadataManager20RegisterSharedClientEPjjj16ChiMetadataUsage+0xe98>
<_ZN18ChiMetadataManager20RegisterSharedClientEPjjj16ChiMetadataUsage+0x1030>
<_ZN18ChiMetadataManager20RegisterSharedClientEPjjj16ChiMetadataUsage+0x1030>
<_ZN18ChiMetadataManager20RegisterSharedClientEPjjj16ChiMetadataUsage+0xea0>
0x27cfc <_ZN18ChiMetadataManager20RegisterSharedClientEPjjj16ChiMetadataUsage+0x1024>
<_ZN18ChiMetadataManager20RegisterSharedClientEPjjj16ChiMetadataUsage+0xeec>
<_ZN18ChiMetadataManager20RegisterSharedClientEPjjj16ChiMetadataUsage+0xefc>
<_ZN18ChiMetadataManager20RegisterSharedClientEPjjj16ChiMetadataUsage+0xefc>
0x27cfc <_ZN18ChiMetadataManager20RegisterSharedClientEPjjj16ChiMetadataUsage+0x1024>
<_ZN18ChiMetadataManager20RegisterSharedClientEPjjj16ChiMetadataUsage+0xfa4>
<_ZN18ChiMetadataManager20RegisterSharedClientEPjjj16ChiMetadataUsage+0xf24>
0x27cfc <_ZN18ChiMetadataManager20RegisterSharedClientEPjjj16ChiMetadataUsage+0x1024>
<_ZN18ChiMetadataManager20RegisterSharedClientEPjjj16ChiMetadataUsage+0xf18>
0x27c60 <_ZN18ChiMetadataManager20RegisterSharedClientEPjjj16ChiMetadataUsage+0xf88>
0x27c38 <_ZN18ChiMetadataManager20RegisterSharedClientEPjjj16ChiMetadataUsage+0xf60>
<_ZN18ChiMetadataManager20RegisterSharedClientEPjjj16ChiMetadataUsage+0xf44>
<_ZN18ChiMetadataManager20RegisterSharedClientEPjjj16ChiMetadataUsage+0xf1c>
<_ZN18ChiMetadataManager20RegisterSharedClientEPjjj16ChiMetadataUsage+0xf1c>
0x27cfc <_ZN18ChiMetadataManager20RegisterSharedClientEPjjj16ChiMetadataUsage+0x1024>
<_ZN18ChiMetadataManager20RegisterSharedClientEPjjj16ChiMetadataUsage+0xfb8>
<_ZN18ChiMetadataManager20RegisterSharedClientEPjjj16ChiMetadataUsage+0xf98>
0x27cec <_ZN18ChiMetadataManager20RegisterSharedClientEPjjj16ChiMetadataUsage+0x1014>
0x27cc4 <_ZN18ChiMetadataManager20RegisterSharedClientEPjjj16ChiMetadataUsage+0xfec>
<_ZN18ChiMetadataManager20RegisterSharedClientEPjjj16ChiMetadataUsage+0xfd0>
<_ZN18ChiMetadataManager20RegisterSharedClientEPjjj16ChiMetadataUsage+0xf9c>
<_ZN18ChiMetadataManager20RegisterSharedClientEPjjj16ChiMetadataUsage+0xf9c>
<_ZN18ChiMetadataManager20RegisterSharedClientEPjjj16ChiMetadataUsage+0x1044>
0x27b90 <_ZN18ChiMetadataManager20RegisterSharedClientEPjjj16ChiMetadataUsage+0xeb8>
<_ZN18ChiMetadataManager20RegisterSharedClientEPjjj16ChiMetadataUsage+0x1088>
<_ZN18ChiMetadataManager20RegisterSharedClientEPjjj16ChiMetadataUsage+0xeb8>
#2, 0x27d78 <_ZN18ChiMetadataManager20RegisterSharedClientEPjjj16ChiMetadataUsage+0x10a0>
<_ZN18ChiMetadataManager20RegisterSharedClientEPjjj16ChiMetadataUsage+0xeb8>
#1, 0x27d90 <_ZN18ChiMetadataManager20RegisterSharedClientEPjjj16ChiMetadataUsage+0x10b8>
<_ZN18ChiMetadataManager20RegisterSharedClientEPjjj16ChiMetadataUsage+0xeb8>
<_ZN18ChiMetadataManager20RegisterSharedClientEPjjj16ChiMetadataUsage+0xeb8>
0x27db8 <_ZN18ChiMetadataManager20RegisterSharedClientEPjjj16ChiMetadataUsage+0x10e0>
0x27dd8 <_ZN18ChiMetadataManager20RegisterSharedClientEPjjj16ChiMetadataUsage+0x1100>



<_ZNSt3__15mutex4lockEv@plt>
0x27e64 <_ZN18ChiMetadataManager16UnregisterClientEj+0x64>
<_ZN18ChiMetadataManager16UnregisterClientEj+0x64>
<_ZN18ChiMetadataManager16UnregisterClientEj+0x118>
0x2c000 <_ZN18ChiMetadataManager16UnregisterClientEj+0x78>
#0, 0x27f14 <_ZN18ChiMetadataManager16UnregisterClientEj+0x114>
0x2c000 <_ZN18ChiMetadataManager16UnregisterClientEj+0x88>
0x9000 <_ZN18ChiMetadataManager16UnregisterClientEj>
<_ZN18ChiMetadataManager16UnregisterClientEj+0xd0>
0xd000 <_ZN18ChiMetadataManager16UnregisterClientEj+0x3c>
0xa000 <_ZN18ChiMetadataManager16UnregisterClientEj+0x34>
0xb000 <_ZN18ChiMetadataManager16UnregisterClientEj+0x3c>
0xc000 <_ZN18ChiMetadataManager16UnregisterClientEj+0x78>
0x9000 <_ZN18ChiMetadataManager16UnregisterClientEj+0x74>
0xb000 <_ZN18ChiMetadataManager16UnregisterClientEj+0x80>
0xc000 <_ZN18ChiMetadataManager16UnregisterClientEj+0x88>
<_ZN6ChiLog9LogSystemEPKcS1_S1_S1_iS1_z@plt>
<_ZNSt3__15mutex6unlockEv@plt>

<_ZNSt3__15mutex4lockEv@plt>
<_ZN18ChiMetadataManager5FlushEv+0x80>
<_ZNSt3__15mutex6unlockEv@plt>
<_ZN18ChiMetadataManager5FlushEv+0x19c>
0x28050 <_ZN18ChiMetadataManager5FlushEv+0x118>
<_ZNSt3__15mutex4lockEv@plt>
<_ZN18ChiMetadataManager5FlushEv+0x104>
<_ZN18ChiMetadataManager5FlushEv+0xb0>
<_ZN18ChiMetadataManager5FlushEv+0x198>
<_ZNSt3__15mutex6unlockEv@plt>
0x27fac <_ZN18ChiMetadataManager5FlushEv+0x74>
<_ZNSt3__15mutex4lockEv@plt>
<_ZN18ChiMetadataManager5FlushEv+0x60>
<_ZN18ChiMetadataManager5FlushEv+0x148>
<_ZNSt3__15mutex6unlockEv@plt>

<_ZNSt3__15mutex4lockEv@plt>
0x28178 <_ZN18ChiMetadataManager13SetPipelineIdEjj+0x78>
<_ZN18ChiMetadataManager13SetPipelineIdEjj+0x78>
0x28224 <_ZN18ChiMetadataManager13SetPipelineIdEjj+0x124>
<_ZN18ChiMetadataManager13SetPipelineIdEjj+0x1e0>
0x2c000 <_ZN18ChiMetadataManager13SetPipelineIdEjj+0x88>
#1, 0x282dc <_ZN18ChiMetadataManager13SetPipelineIdEjj+0x1dc>
0x2c000 <_ZN18ChiMetadataManager13SetPipelineIdEjj+0x98>
0x9000 <_ZN18ChiMetadataManager13SetPipelineIdEjj+0x10>
<_ZN18ChiMetadataManager13SetPipelineIdEjj+0xe4>
0xd000 <_ZN18ChiMetadataManager13SetPipelineIdEjj+0x4c>
0xb000 <_ZN18ChiMetadataManager13SetPipelineIdEjj+0x48>
0xb000 <_ZN18ChiMetadataManager13SetPipelineIdEjj+0x4c>
0xa000 <_ZN18ChiMetadataManager13SetPipelineIdEjj+0x80>
0xc000 <_ZN18ChiMetadataManager13SetPipelineIdEjj+0x90>
0xb000 <_ZN18ChiMetadataManager13SetPipelineIdEjj+0x90>
0xc000 <_ZN18ChiMetadataManager13SetPipelineIdEjj+0x98>
<_ZN18ChiMetadataManager13SetPipelineIdEjj+0x1d4>
0x2c000 <_ZN18ChiMetadataManager13SetPipelineIdEjj+0x134>
#0, 0x282dc <_ZN18ChiMetadataManager13SetPipelineIdEjj+0x1dc>
0x2c000 <_ZN18ChiMetadataManager13SetPipelineIdEjj+0x144>
<_ZN18ChiMetadataManager13SetPipelineIdEjj+0x190>
0x9000 <_ZN18ChiMetadataManager13SetPipelineIdEjj+0xcc>
0xd000 <_ZN18ChiMetadataManager13SetPipelineIdEjj+0xf8>
0xb000 <_ZN18ChiMetadataManager13SetPipelineIdEjj+0xf4>
0xb000 <_ZN18ChiMetadataManager13SetPipelineIdEjj+0xf8>
0x9000 <_ZN18ChiMetadataManager13SetPipelineIdEjj+0x114>
0xc000 <_ZN18ChiMetadataManager13SetPipelineIdEjj+0x13c>
0x9000 <_ZN18ChiMetadataManager13SetPipelineIdEjj+0x138>
0xb000 <_ZN18ChiMetadataManager13SetPipelineIdEjj+0x144>
0xd000 <_ZN18ChiMetadataManager13SetPipelineIdEjj+0x150>
<_ZN6ChiLog9LogSystemEPKcS1_S1_S1_iS1_z@plt>
<_ZNSt3__15mutex6unlockEv@plt>

<_ZN18ChiMetadataManager13GetFreeHolderEjjjRNSt3__16chrono10time_pointINS1_12steady_clockENS1_8durationIxNS0_5ratioILl1ELl1000000000EEEEEEE+0xb28>
0x283f8 <_ZN18ChiMetadataManager13GetFreeHolderEjjjRNSt3__16chrono10time_pointINS1_12steady_clockENS1_8durationIxNS0_5ratioILl1ELl1000000000EEEEEEE+0xf8>
<_ZN18ChiMetadataManager13GetFreeHolderEjjjRNSt3__16chrono10time_pointINS1_12steady_clockENS1_8durationIxNS0_5ratioILl1ELl1000000000EEEEEEE+0xb28>
0x283f8 <_ZN18ChiMetadataManager13GetFreeHolderEjjjRNSt3__16chrono10time_pointINS1_12steady_clockENS1_8durationIxNS0_5ratioILl1ELl1000000000EEEEEEE+0xf8>
<_ZNSt3__15mutex4lockEv@plt>
<_ZN18ChiMetadataManager13GetFreeHolderEjjjRNSt3__16chrono10time_pointINS1_12steady_clockENS1_8durationIxNS0_5ratioILl1ELl1000000000EEEEEEE+0x1d4>
0x284c8 <_ZN18ChiMetadataManager13GetFreeHolderEjjjRNSt3__16chrono10time_pointINS1_12steady_clockENS1_8durationIxNS0_5ratioILl1ELl1000000000EEEEEEE+0x1c8>
<_ZN18ChiMetadataManager13GetFreeHolderEjjjRNSt3__16chrono10time_pointINS1_12steady_clockENS1_8durationIxNS0_5ratioILl1ELl1000000000EEEEEEE+0xd0>
0x2c000 <_ZN18ChiMetadataManager13GetFreeHolderEjjjRNSt3__16chrono10time_pointINS1_12steady_clockENS1_8durationIxNS0_5ratioILl1ELl1000000000EEEEEEE+0x108>
#0, 0x284c0 <_ZN18ChiMetadataManager13GetFreeHolderEjjjRNSt3__16chrono10time_pointINS1_12steady_clockENS1_8durationIxNS0_5ratioILl1ELl1000000000EEEEEEE+0x1c0>
0x2c000 <_ZN18ChiMetadataManager13GetFreeHolderEjjjRNSt3__16chrono10time_pointINS1_12steady_clockENS1_8durationIxNS0_5ratioILl1ELl1000000000EEEEEEE+0x118>
<_ZN18ChiMetadataManager13GetFreeHolderEjjjRNSt3__16chrono10time_pointINS1_12steady_clockENS1_8durationIxNS0_5ratioILl1ELl1000000000EEEEEEE+0x16c>
0x9000 <_ZN18ChiMetadataManager13GetFreeHolderEjjjRNSt3__16chrono10time_pointINS1_12steady_clockENS1_8durationIxNS0_5ratioILl1ELl1000000000EEEEEEE+0xa0>
0xd000 <_ZN18ChiMetadataManager13GetFreeHolderEjjjRNSt3__16chrono10time_pointINS1_12steady_clockENS1_8durationIxNS0_5ratioILl1ELl1000000000EEEEEEE+0xcc>
0xb000 <_ZN18ChiMetadataManager13GetFreeHolderEjjjRNSt3__16chrono10time_pointINS1_12steady_clockENS1_8durationIxNS0_5ratioILl1ELl1000000000EEEEEEE+0xc8>
0xc000 <_ZN18ChiMetadataManager13GetFreeHolderEjjjRNSt3__16chrono10time_pointINS1_12steady_clockENS1_8durationIxNS0_5ratioILl1ELl1000000000EEEEEEE+0xd0>
0x9000 <_ZN18ChiMetadataManager13GetFreeHolderEjjjRNSt3__16chrono10time_pointINS1_12steady_clockENS1_8durationIxNS0_5ratioILl1ELl1000000000EEEEEEE+0xf0>
0xc000 <_ZN18ChiMetadataManager13GetFreeHolderEjjjRNSt3__16chrono10time_pointINS1_12steady_clockENS1_8durationIxNS0_5ratioILl1ELl1000000000EEEEEEE+0x118>
0x9000 <_ZN18ChiMetadataManager13GetFreeHolderEjjjRNSt3__16chrono10time_pointINS1_12steady_clockENS1_8durationIxNS0_5ratioILl1ELl1000000000EEEEEEE+0x114>
0xc000 <_ZN18ChiMetadataManager13GetFreeHolderEjjjRNSt3__16chrono10time_pointINS1_12steady_clockENS1_8durationIxNS0_5ratioILl1ELl1000000000EEEEEEE+0x124>
0x9000 <_ZN18ChiMetadataManager13GetFreeHolderEjjjRNSt3__16chrono10time_pointINS1_12steady_clockENS1_8durationIxNS0_5ratioILl1ELl1000000000EEEEEEE+0x11c>
<_ZN6ChiLog9LogSystemEPKcS1_S1_S1_iS1_z@plt>
<_ZN18ChiMetadataManager13GetFreeHolderEjjjRNSt3__16chrono10time_pointINS1_12steady_clockENS1_8durationIxNS0_5ratioILl1ELl1000000000EEEEEEE+0xad8>
0x28c3c <_ZN18ChiMetadataManager13GetFreeHolderEjjjRNSt3__16chrono10time_pointINS1_12steady_clockENS1_8durationIxNS0_5ratioILl1ELl1000000000EEEEEEE+0x93c>
<_ZN18ChiMetadataManager13GetFreeHolderEjjjRNSt3__16chrono10time_pointINS1_12steady_clockENS1_8durationIxNS0_5ratioILl1ELl1000000000EEEEEEE+0x24c>
0x286d0 <_ZN18ChiMetadataManager13GetFreeHolderEjjjRNSt3__16chrono10time_pointINS1_12steady_clockENS1_8durationIxNS0_5ratioILl1ELl1000000000EEEEEEE+0x3d0>
<_ZN18ChiMetadataManager13GetFreeHolderEjjjRNSt3__16chrono10time_pointINS1_12steady_clockENS1_8durationIxNS0_5ratioILl1ELl1000000000EEEEEEE+0xf4>
<_ZN18ChiMetadataManager13GetFreeHolderEjjjRNSt3__16chrono10time_pointINS1_12steady_clockENS1_8durationIxNS0_5ratioILl1ELl1000000000EEEEEEE+0x1f8>
<_ZN18ChiMetadataManager13GetFreeHolderEjjjRNSt3__16chrono10time_pointINS1_12steady_clockENS1_8durationIxNS0_5ratioILl1ELl1000000000EEEEEEE+0x39c>
<_ZN18ChiMetadataManager20RegisterSharedClientEPjjj16ChiMetadataUsage+0xc78>
0x2c000 <_ZN18ChiMetadataManager13GetFreeHolderEjjjRNSt3__16chrono10time_pointINS1_12steady_clockENS1_8durationIxNS0_5ratioILl1ELl1000000000EEEEEEE+0x2a4>
#5, 0x2866c <_ZN18ChiMetadataManager13GetFreeHolderEjjjRNSt3__16chrono10time_pointINS1_12steady_clockENS1_8durationIxNS0_5ratioILl1ELl1000000000EEEEEEE+0x36c>
0x2c000 <_ZN18ChiMetadataManager13GetFreeHolderEjjjRNSt3__16chrono10time_pointINS1_12steady_clockENS1_8durationIxNS0_5ratioILl1ELl1000000000EEEEEEE+0x2c4>
<_ZN18ChiMetadataManager13GetFreeHolderEjjjRNSt3__16chrono10time_pointINS1_12steady_clockENS1_8durationIxNS0_5ratioILl1ELl1000000000EEEEEEE+0x314>
0x9000 <_ZN18ChiMetadataManager13GetFreeHolderEjjjRNSt3__16chrono10time_pointINS1_12steady_clockENS1_8durationIxNS0_5ratioILl1ELl1000000000EEEEEEE+0x24c>
0xd000 <_ZN18ChiMetadataManager13GetFreeHolderEjjjRNSt3__16chrono10time_pointINS1_12steady_clockENS1_8durationIxNS0_5ratioILl1ELl1000000000EEEEEEE+0x278>
0x9000 <_ZN18ChiMetadataManager13GetFreeHolderEjjjRNSt3__16chrono10time_pointINS1_12steady_clockENS1_8durationIxNS0_5ratioILl1ELl1000000000EEEEEEE+0x26c>
0xc000 <_ZN18ChiMetadataManager13GetFreeHolderEjjjRNSt3__16chrono10time_pointINS1_12steady_clockENS1_8durationIxNS0_5ratioILl1ELl1000000000EEEEEEE+0x27c>
0x9000 <_ZN18ChiMetadataManager13GetFreeHolderEjjjRNSt3__16chrono10time_pointINS1_12steady_clockENS1_8durationIxNS0_5ratioILl1ELl1000000000EEEEEEE+0x298>
0xb000 <_ZN18ChiMetadataManager13GetFreeHolderEjjjRNSt3__16chrono10time_pointINS1_12steady_clockENS1_8durationIxNS0_5ratioILl1ELl1000000000EEEEEEE+0x2bc>
0xc000 <_ZN18ChiMetadataManager13GetFreeHolderEjjjRNSt3__16chrono10time_pointINS1_12steady_clockENS1_8durationIxNS0_5ratioILl1ELl1000000000EEEEEEE+0x2c8>
0xc000 <_ZN18ChiMetadataManager13GetFreeHolderEjjjRNSt3__16chrono10time_pointINS1_12steady_clockENS1_8durationIxNS0_5ratioILl1ELl1000000000EEEEEEE+0x2cc>
0xc000 <_ZN18ChiMetadataManager13GetFreeHolderEjjjRNSt3__16chrono10time_pointINS1_12steady_clockENS1_8durationIxNS0_5ratioILl1ELl1000000000EEEEEEE+0x2d0>
<_ZN6ChiLog9LogSystemEPKcS1_S1_S1_iS1_z@plt>
<_ZN18ChiMetadataManager13GetFreeHolderEjjjRNSt3__16chrono10time_pointINS1_12steady_clockENS1_8durationIxNS0_5ratioILl1ELl1000000000EEEEEEE+0xf4>
<_ZN18ChiMetadataManager10MetaClient15AllocateBuffersEPjjjjj@plt>
0x28ac8 <_ZN18ChiMetadataManager13GetFreeHolderEjjjRNSt3__16chrono10time_pointINS1_12steady_clockENS1_8durationIxNS0_5ratioILl1ELl1000000000EEEEEEE+0x7c8>
0x286b4 <_ZN18ChiMetadataManager13GetFreeHolderEjjjRNSt3__16chrono10time_pointINS1_12steady_clockENS1_8durationIxNS0_5ratioILl1ELl1000000000EEEEEEE+0x3b4>
<_ZN18ChiMetadataManager13GetFreeHolderEjjjRNSt3__16chrono10time_pointINS1_12steady_clockENS1_8durationIxNS0_5ratioILl1ELl1000000000EEEEEEE+0x5b4>
0x2c000 <_ZN18ChiMetadataManager13GetFreeHolderEjjjRNSt3__16chrono10time_pointINS1_12steady_clockENS1_8durationIxNS0_5ratioILl1ELl1000000000EEEEEEE+0x3c4>
#0, 0x287e8 <_ZN18ChiMetadataManager13GetFreeHolderEjjjRNSt3__16chrono10time_pointINS1_12steady_clockENS1_8durationIxNS0_5ratioILl1ELl1000000000EEEEEEE+0x4e8>
<_ZN18ChiMetadataManager13GetFreeHolderEjjjRNSt3__16chrono10time_pointINS1_12steady_clockENS1_8durationIxNS0_5ratioILl1ELl1000000000EEEEEEE+0xaac>
0x2c000 <_ZN18ChiMetadataManager13GetFreeHolderEjjjRNSt3__16chrono10time_pointINS1_12steady_clockENS1_8durationIxNS0_5ratioILl1ELl1000000000EEEEEEE+0x3e0>
#5, 0x28700 <_ZN18ChiMetadataManager13GetFreeHolderEjjjRNSt3__16chrono10time_pointINS1_12steady_clockENS1_8durationIxNS0_5ratioILl1ELl1000000000EEEEEEE+0x400>
0x28ae0 <_ZN18ChiMetadataManager13GetFreeHolderEjjjRNSt3__16chrono10time_pointINS1_12steady_clockENS1_8durationIxNS0_5ratioILl1ELl1000000000EEEEEEE+0x7e0>
<_ZN18ChiMetadataManager13GetFreeHolderEjjjRNSt3__16chrono10time_pointINS1_12steady_clockENS1_8durationIxNS0_5ratioILl1ELl1000000000EEEEEEE+0x93c>
0x2c000 <_ZN18ChiMetadataManager13GetFreeHolderEjjjRNSt3__16chrono10time_pointINS1_12steady_clockENS1_8durationIxNS0_5ratioILl1ELl1000000000EEEEEEE+0x410>
<_ZN18ChiMetadataManager13GetFreeHolderEjjjRNSt3__16chrono10time_pointINS1_12steady_clockENS1_8durationIxNS0_5ratioILl1ELl1000000000EEEEEEE+0x484>
0x9000 <_ZN18ChiMetadataManager13GetFreeHolderEjjjRNSt3__16chrono10time_pointINS1_12steady_clockENS1_8durationIxNS0_5ratioILl1ELl1000000000EEEEEEE+0x3a4>
0xd000 <_ZN18ChiMetadataManager13GetFreeHolderEjjjRNSt3__16chrono10time_pointINS1_12steady_clockENS1_8durationIxNS0_5ratioILl1ELl1000000000EEEEEEE+0x3d8>
0x9000 <_ZN18ChiMetadataManager13GetFreeHolderEjjjRNSt3__16chrono10time_pointINS1_12steady_clockENS1_8durationIxNS0_5ratioILl1ELl1000000000EEEEEEE+0x3cc>
0xc000 <_ZN18ChiMetadataManager13GetFreeHolderEjjjRNSt3__16chrono10time_pointINS1_12steady_clockENS1_8durationIxNS0_5ratioILl1ELl1000000000EEEEEEE+0x3dc>
0x9000 <_ZN18ChiMetadataManager13GetFreeHolderEjjjRNSt3__16chrono10time_pointINS1_12steady_clockENS1_8durationIxNS0_5ratioILl1ELl1000000000EEEEEEE+0x408>
0xc000 <_ZN18ChiMetadataManager13GetFreeHolderEjjjRNSt3__16chrono10time_pointINS1_12steady_clockENS1_8durationIxNS0_5ratioILl1ELl1000000000EEEEEEE+0x43c>
0xb000 <_ZN18ChiMetadataManager13GetFreeHolderEjjjRNSt3__16chrono10time_pointINS1_12steady_clockENS1_8durationIxNS0_5ratioILl1ELl1000000000EEEEEEE+0x43c>
0xc000 <_ZN18ChiMetadataManager13GetFreeHolderEjjjRNSt3__16chrono10time_pointINS1_12steady_clockENS1_8durationIxNS0_5ratioILl1ELl1000000000EEEEEEE+0x444>
0xc000 <_ZN18ChiMetadataManager13GetFreeHolderEjjjRNSt3__16chrono10time_pointINS1_12steady_clockENS1_8durationIxNS0_5ratioILl1ELl1000000000EEEEEEE+0x448>
<_ZN18ChiMetadataManager13GetFreeHolderEjjjRNSt3__16chrono10time_pointINS1_12steady_clockENS1_8durationIxNS0_5ratioILl1ELl1000000000EEEEEEE+0x930>
0x2c000 <_ZN18ChiMetadataManager13GetFreeHolderEjjjRNSt3__16chrono10time_pointINS1_12steady_clockENS1_8durationIxNS0_5ratioILl1ELl1000000000EEEEEEE+0x4f8>
<_ZN18ChiMetadataManager13GetFreeHolderEjjjRNSt3__16chrono10time_pointINS1_12steady_clockENS1_8durationIxNS0_5ratioILl1ELl1000000000EEEEEEE+0x554>
0x9000 <_ZN18ChiMetadataManager13GetFreeHolderEjjjRNSt3__16chrono10time_pointINS1_12steady_clockENS1_8durationIxNS0_5ratioILl1ELl1000000000EEEEEEE+0x488>
0xd000 <_ZN18ChiMetadataManager13GetFreeHolderEjjjRNSt3__16chrono10time_pointINS1_12steady_clockENS1_8durationIxNS0_5ratioILl1ELl1000000000EEEEEEE+0x4b4>
0xb000 <_ZN18ChiMetadataManager13GetFreeHolderEjjjRNSt3__16chrono10time_pointINS1_12steady_clockENS1_8durationIxNS0_5ratioILl1ELl1000000000EEEEEEE+0x4b0>
0xc000 <_ZN18ChiMetadataManager13GetFreeHolderEjjjRNSt3__16chrono10time_pointINS1_12steady_clockENS1_8durationIxNS0_5ratioILl1ELl1000000000EEEEEEE+0x4b8>
0x9000 <_ZN18ChiMetadataManager13GetFreeHolderEjjjRNSt3__16chrono10time_pointINS1_12steady_clockENS1_8durationIxNS0_5ratioILl1ELl1000000000EEEEEEE+0x4d8>
0xc000 <_ZN18ChiMetadataManager13GetFreeHolderEjjjRNSt3__16chrono10time_pointINS1_12steady_clockENS1_8durationIxNS0_5ratioILl1ELl1000000000EEEEEEE+0x500>
0x9000 <_ZN18ChiMetadataManager13GetFreeHolderEjjjRNSt3__16chrono10time_pointINS1_12steady_clockENS1_8durationIxNS0_5ratioILl1ELl1000000000EEEEEEE+0x4fc>
0xc000 <_ZN18ChiMetadataManager13GetFreeHolderEjjjRNSt3__16chrono10time_pointINS1_12steady_clockENS1_8durationIxNS0_5ratioILl1ELl1000000000EEEEEEE+0x50c>
0x9000 <_ZN18ChiMetadataManager13GetFreeHolderEjjjRNSt3__16chrono10time_pointINS1_12steady_clockENS1_8durationIxNS0_5ratioILl1ELl1000000000EEEEEEE+0x504>
<_ZN6ChiLog9LogSystemEPKcS1_S1_S1_iS1_z@plt>
<_ZN18ChiMetadataManager13GetFreeHolderEjjjRNSt3__16chrono10time_pointINS1_12steady_clockENS1_8durationIxNS0_5ratioILl1ELl1000000000EEEEEEE+0xaac>
<_ZN18ChiMetadataManager13GetFreeHolderEjjjRNSt3__16chrono10time_pointINS1_12steady_clockENS1_8durationIxNS0_5ratioILl1ELl1000000000EEEEEEE+0x7f4>
<_ZN18ChiMetadataManager13GetFreeHolderEjjjRNSt3__16chrono10time_pointINS1_12steady_clockENS1_8durationIxNS0_5ratioILl1ELl1000000000EEEEEEE+0x7f4>
<_ZN18ChiMetadataManager13GetFreeHolderEjjjRNSt3__16chrono10time_pointINS1_12steady_clockENS1_8durationIxNS0_5ratioILl1ELl1000000000EEEEEEE+0x7f0>
<_ZN18ChiMetadataManager13GetFreeHolderEjjjRNSt3__16chrono10time_pointINS1_12steady_clockENS1_8durationIxNS0_5ratioILl1ELl1000000000EEEEEEE+0x7f4>
<_ZN18ChiMetadataManager13GetFreeHolderEjjjRNSt3__16chrono10time_pointINS1_12steady_clockENS1_8durationIxNS0_5ratioILl1ELl1000000000EEEEEEE+0x7f4>
<_ZN18ChiMetadataManager13GetFreeHolderEjjjRNSt3__16chrono10time_pointINS1_12steady_clockENS1_8durationIxNS0_5ratioILl1ELl1000000000EEEEEEE+0x7f4>
<_ZN18ChiMetadataManager13GetFreeHolderEjjjRNSt3__16chrono10time_pointINS1_12steady_clockENS1_8durationIxNS0_5ratioILl1ELl1000000000EEEEEEE+0x7f4>
<_ZN18ChiMetadataManager13GetFreeHolderEjjjRNSt3__16chrono10time_pointINS1_12steady_clockENS1_8durationIxNS0_5ratioILl1ELl1000000000EEEEEEE+0x7f4>
<_ZN18ChiMetadataManager13GetFreeHolderEjjjRNSt3__16chrono10time_pointINS1_12steady_clockENS1_8durationIxNS0_5ratioILl1ELl1000000000EEEEEEE+0x7f4>
<_ZN18ChiMetadataManager13GetFreeHolderEjjjRNSt3__16chrono10time_pointINS1_12steady_clockENS1_8durationIxNS0_5ratioILl1ELl1000000000EEEEEEE+0x7f4>
<_ZN18ChiMetadataManager13GetFreeHolderEjjjRNSt3__16chrono10time_pointINS1_12steady_clockENS1_8durationIxNS0_5ratioILl1ELl1000000000EEEEEEE+0x7f4>
<_ZN18ChiMetadataManager13GetFreeHolderEjjjRNSt3__16chrono10time_pointINS1_12steady_clockENS1_8durationIxNS0_5ratioILl1ELl1000000000EEEEEEE+0x7f4>
<_ZN18ChiMetadataManager13GetFreeHolderEjjjRNSt3__16chrono10time_pointINS1_12steady_clockENS1_8durationIxNS0_5ratioILl1ELl1000000000EEEEEEE+0x7f4>
<_ZN18ChiMetadataManager13GetFreeHolderEjjjRNSt3__16chrono10time_pointINS1_12steady_clockENS1_8durationIxNS0_5ratioILl1ELl1000000000EEEEEEE+0x7f4>
<_ZN18ChiMetadataManager13GetFreeHolderEjjjRNSt3__16chrono10time_pointINS1_12steady_clockENS1_8durationIxNS0_5ratioILl1ELl1000000000EEEEEEE+0x7f4>
<_ZN18ChiMetadataManager13GetFreeHolderEjjjRNSt3__16chrono10time_pointINS1_12steady_clockENS1_8durationIxNS0_5ratioILl1ELl1000000000EEEEEEE+0x5d0>
<_ZN18ChiMetadataManager13GetFreeHolderEjjjRNSt3__16chrono10time_pointINS1_12steady_clockENS1_8durationIxNS0_5ratioILl1ELl1000000000EEEEEEE+0xf4>
0x28c3c <_ZN18ChiMetadataManager13GetFreeHolderEjjjRNSt3__16chrono10time_pointINS1_12steady_clockENS1_8durationIxNS0_5ratioILl1ELl1000000000EEEEEEE+0x93c>
<_ZN18ChiMetadataManager13GetFreeHolderEjjjRNSt3__16chrono10time_pointINS1_12steady_clockENS1_8durationIxNS0_5ratioILl1ELl1000000000EEEEEEE+0x39c>
<_ZN18ChiMetadataManager13GetFreeHolderEjjjRNSt3__16chrono10time_pointINS1_12steady_clockENS1_8durationIxNS0_5ratioILl1ELl1000000000EEEEEEE+0x258>
0x2a000 <_ZN18ChiMetadataManager13GetFreeHolderEjjjRNSt3__16chrono10time_pointINS1_12steady_clockENS1_8durationIxNS0_5ratioILl1ELl1000000000EEEEEEE+0x834>
<_ZN18ChiMetadataManager13GetFreeHolderEjjjRNSt3__16chrono10time_pointINS1_12steady_clockENS1_8durationIxNS0_5ratioILl1ELl1000000000EEEEEEE+0xb0c>
0x2c000 <_ZN18ChiMetadataManager13GetFreeHolderEjjjRNSt3__16chrono10time_pointINS1_12steady_clockENS1_8durationIxNS0_5ratioILl1ELl1000000000EEEEEEE+0x854>
#3, 0x28c3c <_ZN18ChiMetadataManager13GetFreeHolderEjjjRNSt3__16chrono10time_pointINS1_12steady_clockENS1_8durationIxNS0_5ratioILl1ELl1000000000EEEEEEE+0x93c>
0x2c000 <_ZN18ChiMetadataManager13GetFreeHolderEjjjRNSt3__16chrono10time_pointINS1_12steady_clockENS1_8durationIxNS0_5ratioILl1ELl1000000000EEEEEEE+0x864>
<_ZN18ChiMetadataManager13GetFreeHolderEjjjRNSt3__16chrono10time_pointINS1_12steady_clockENS1_8durationIxNS0_5ratioILl1ELl1000000000EEEEEEE+0x8d0>
0x9000 <_ZN18ChiMetadataManager13GetFreeHolderEjjjRNSt3__16chrono10time_pointINS1_12steady_clockENS1_8durationIxNS0_5ratioILl1ELl1000000000EEEEEEE+0x7ec>
0xd000 <_ZN18ChiMetadataManager13GetFreeHolderEjjjRNSt3__16chrono10time_pointINS1_12steady_clockENS1_8durationIxNS0_5ratioILl1ELl1000000000EEEEEEE+0x820>
0xa000 <_ZN18ChiMetadataManager13GetFreeHolderEjjjRNSt3__16chrono10time_pointINS1_12steady_clockENS1_8durationIxNS0_5ratioILl1ELl1000000000EEEEEEE+0x818>
0xc000 <_ZN18ChiMetadataManager13GetFreeHolderEjjjRNSt3__16chrono10time_pointINS1_12steady_clockENS1_8durationIxNS0_5ratioILl1ELl1000000000EEEEEEE+0x824>
0x9000 <_ZN18ChiMetadataManager13GetFreeHolderEjjjRNSt3__16chrono10time_pointINS1_12steady_clockENS1_8durationIxNS0_5ratioILl1ELl1000000000EEEEEEE+0x854>
0xd000 <_ZN18ChiMetadataManager13GetFreeHolderEjjjRNSt3__16chrono10time_pointINS1_12steady_clockENS1_8durationIxNS0_5ratioILl1ELl1000000000EEEEEEE+0x88c>
0xb000 <_ZN18ChiMetadataManager13GetFreeHolderEjjjRNSt3__16chrono10time_pointINS1_12steady_clockENS1_8durationIxNS0_5ratioILl1ELl1000000000EEEEEEE+0x888>
0xc000 <_ZN18ChiMetadataManager13GetFreeHolderEjjjRNSt3__16chrono10time_pointINS1_12steady_clockENS1_8durationIxNS0_5ratioILl1ELl1000000000EEEEEEE+0x890>
0xc000 <_ZN18ChiMetadataManager13GetFreeHolderEjjjRNSt3__16chrono10time_pointINS1_12steady_clockENS1_8durationIxNS0_5ratioILl1ELl1000000000EEEEEEE+0x89c>
<_ZN6ChiLog9LogSystemEPKcS1_S1_S1_iS1_z@plt>
<_ZN18ChiMetadataManager13GetFreeHolderEjjjRNSt3__16chrono10time_pointINS1_12steady_clockENS1_8durationIxNS0_5ratioILl1ELl1000000000EEEEEEE+0x9a8>
<_ZNSt3__16chrono12steady_clock3nowEv@plt>
0x2c000 <_ZN18ChiMetadataManager13GetFreeHolderEjjjRNSt3__16chrono10time_pointINS1_12steady_clockENS1_8durationIxNS0_5ratioILl1ELl1000000000EEEEEEE+0x9c0>
#5, 0x28dac <_ZN18ChiMetadataManager13GetFreeHolderEjjjRNSt3__16chrono10time_pointINS1_12steady_clockENS1_8durationIxNS0_5ratioILl1ELl1000000000EEEEEEE+0xaac>
0x2c000 <_ZN18ChiMetadataManager13GetFreeHolderEjjjRNSt3__16chrono10time_pointINS1_12steady_clockENS1_8durationIxNS0_5ratioILl1ELl1000000000EEEEEEE+0x9e4>
0x9000 <_ZN18ChiMetadataManager13GetFreeHolderEjjjRNSt3__16chrono10time_pointINS1_12steady_clockENS1_8durationIxNS0_5ratioILl1ELl1000000000EEEEEEE+0x95c>
<_ZN18ChiMetadataManager13GetFreeHolderEjjjRNSt3__16chrono10time_pointINS1_12steady_clockENS1_8durationIxNS0_5ratioILl1ELl1000000000EEEEEEE+0xa4c>
0xd000 <_ZN18ChiMetadataManager13GetFreeHolderEjjjRNSt3__16chrono10time_pointINS1_12steady_clockENS1_8durationIxNS0_5ratioILl1ELl1000000000EEEEEEE+0x9a0>
0xd000 <_ZN18ChiMetadataManager13GetFreeHolderEjjjRNSt3__16chrono10time_pointINS1_12steady_clockENS1_8durationIxNS0_5ratioILl1ELl1000000000EEEEEEE+0x9a4>
0xc000 <_ZN18ChiMetadataManager13GetFreeHolderEjjjRNSt3__16chrono10time_pointINS1_12steady_clockENS1_8durationIxNS0_5ratioILl1ELl1000000000EEEEEEE+0x9a4>
0xc000 <_ZN18ChiMetadataManager13GetFreeHolderEjjjRNSt3__16chrono10time_pointINS1_12steady_clockENS1_8durationIxNS0_5ratioILl1ELl1000000000EEEEEEE+0x9fc>
0xb000 <_ZN18ChiMetadataManager13GetFreeHolderEjjjRNSt3__16chrono10time_pointINS1_12steady_clockENS1_8durationIxNS0_5ratioILl1ELl1000000000EEEEEEE+0x9fc>
0xc000 <_ZN18ChiMetadataManager13GetFreeHolderEjjjRNSt3__16chrono10time_pointINS1_12steady_clockENS1_8durationIxNS0_5ratioILl1ELl1000000000EEEEEEE+0xa04>
0xb000 <_ZN18ChiMetadataManager13GetFreeHolderEjjjRNSt3__16chrono10time_pointINS1_12steady_clockENS1_8durationIxNS0_5ratioILl1ELl1000000000EEEEEEE+0xa04>
<_ZN6ChiLog9LogSystemEPKcS1_S1_S1_iS1_z@plt>
<_ZNSt3__15mutex6unlockEv@plt>
0x28dd8 <_ZN18ChiMetadataManager13GetFreeHolderEjjjRNSt3__16chrono10time_pointINS1_12steady_clockENS1_8durationIxNS0_5ratioILl1ELl1000000000EEEEEEE+0xad8>
0x28e30 <_ZN18ChiMetadataManager13GetFreeHolderEjjjRNSt3__16chrono10time_pointINS1_12steady_clockENS1_8durationIxNS0_5ratioILl1ELl1000000000EEEEEEE+0xb30>
<_ZN18ChiMetadataManager13GetFreeHolderEjjjRNSt3__16chrono10time_pointINS1_12steady_clockENS1_8durationIxNS0_5ratioILl1ELl1000000000EEEEEEE+0xb2c>
<_ZN18ChiMetadataManager13GetFreeHolderEjjjRNSt3__16chrono10time_pointINS1_12steady_clockENS1_8durationIxNS0_5ratioILl1ELl1000000000EEEEEEE+0x83c>

<_ZNSt3__16chrono12steady_clock3nowEv@plt>
0x28ea8 <_ZN18ChiMetadataManager3GetEjj+0x70>
<_ZN18ChiMetadataManager3GetEjj+0x70>
<_ZN18ChiMetadataManager13GetFreeHolderEjjjRNSt3__16chrono10time_pointINS1_12steady_clockENS1_8durationIxNS0_5ratioILl1ELl1000000000EEEEEEE@plt>
<_ZN18ChiMetadataManager3GetEjj+0x134>
0x2c000 <_ZN18ChiMetadataManager3GetEjj+0x80>
#0, 0x28f68 <_ZN18ChiMetadataManager3GetEjj+0x130>
0x2c000 <_ZN18ChiMetadataManager3GetEjj+0x90>
0x9000 <_ZN18ChiMetadataManager3GetEjj+0x8>
<_ZN18ChiMetadataManager3GetEjj+0xe4>
0xd000 <_ZN18ChiMetadataManager3GetEjj+0x44>
0x9000 <_ZN18ChiMetadataManager3GetEjj+0x38>
0xb000 <_ZN18ChiMetadataManager3GetEjj+0x44>
0xc000 <_ZN18ChiMetadataManager3GetEjj+0x88>
0x9000 <_ZN18ChiMetadataManager3GetEjj+0x84>
0xb000 <_ZN18ChiMetadataManager3GetEjj+0x90>
0xa000 <_ZN18ChiMetadataManager3GetEjj+0x90>
<_ZN6ChiLog9LogSystemEPKcS1_S1_S1_iS1_z@plt>
<_ZN18ChiMetadataManager3GetEjj+0x15c>

0x29000 <_ZN18ChiMetadataManager24RestoreNonstickyMetadataEPK15camera_metadataP11ChiMetadata+0x68>
<_ZN18ChiMetadataManager24RestoreNonstickyMetadataEPK15camera_metadataP11ChiMetadata+0x6c>
0x29040 <_ZN18ChiMetadataManager24RestoreNonstickyMetadataEPK15camera_metadataP11ChiMetadata+0xa8>
0x29078 <_ZN18ChiMetadataManager24RestoreNonstickyMetadataEPK15camera_metadataP11ChiMetadata+0xe0>
<_ZN18ChiMetadataManager24RestoreNonstickyMetadataEPK15camera_metadataP11ChiMetadata+0xe4>
0x290c8 <_ZN18ChiMetadataManager24RestoreNonstickyMetadataEPK15camera_metadataP11ChiMetadata+0x130>
<_ZN18ChiMetadataManager24RestoreNonstickyMetadataEPK15camera_metadataP11ChiMetadata+0x15c>
<_ZN18ChiMetadataManager24RestoreNonstickyMetadataEPK15camera_metadataP11ChiMetadata+0xfc>
<_ZN18ChiMetadataManager24RestoreNonstickyMetadataEPK15camera_metadataP11ChiMetadata+0x160>

<_ZNSt3__16chrono12steady_clock3nowEv@plt>
0x2938c <_ZN18ChiMetadataManager8GetInputEPK15camera_metadatajbb+0x28c>
0x29170 <_ZN18ChiMetadataManager8GetInputEPK15camera_metadatajbb+0x70>
<_ZN18ChiMetadataManager8GetInputEPK15camera_metadatajbb+0x208>
#0, 0x29308 <_ZN18ChiMetadataManager8GetInputEPK15camera_metadatajbb+0x208>
<_ZN18ChiMetadataManager8GetInputEPK15camera_metadatajbb+0x208>
0x29308 <_ZN18ChiMetadataManager8GetInputEPK15camera_metadatajbb+0x208>
<_ZN18ChiMetadataManager8GetInputEPK15camera_metadatajbb+0x118>
<_ZNSt3__16chrono12steady_clock3nowEv@plt>
0x2c000 <_ZN18ChiMetadataManager8GetInputEPK15camera_metadatajbb+0x124>
#5, 0x29570 <_ZN18ChiMetadataManager8GetInputEPK15camera_metadatajbb+0x470>
0x2c000 <_ZN18ChiMetadataManager8GetInputEPK15camera_metadatajbb+0x138>
<_ZN18ChiMetadataManager8GetInputEPK15camera_metadatajbb+0x1a0>
0x9000 <_ZN18ChiMetadataManager8GetInputEPK15camera_metadatajbb+0xc0>
0xd000 <_ZN18ChiMetadataManager8GetInputEPK15camera_metadatajbb+0xf4>
0x9000 <_ZN18ChiMetadataManager8GetInputEPK15camera_metadatajbb+0xec>
0x9000 <_ZN18ChiMetadataManager8GetInputEPK15camera_metadatajbb+0xf0>
0x9000 <_ZN18ChiMetadataManager8GetInputEPK15camera_metadatajbb+0x120>
0xc000 <_ZN18ChiMetadataManager8GetInputEPK15camera_metadatajbb+0x158>
0xb000 <_ZN18ChiMetadataManager8GetInputEPK15camera_metadatajbb+0x158>
0x9000 <_ZN18ChiMetadataManager8GetInputEPK15camera_metadatajbb+0x154>
0xa000 <_ZN18ChiMetadataManager8GetInputEPK15camera_metadatajbb+0x15c>
<_ZN6ChiLog9LogSystemEPKcS1_S1_S1_iS1_z@plt>
<_ZN18ChiMetadataManager8GetInputEPK15camera_metadatajbb+0x470>
<_ZN18ChiMetadataManager13GetFreeHolderEjjjRNSt3__16chrono10time_pointINS1_12steady_clockENS1_8durationIxNS0_5ratioILl1ELl1000000000EEEEEEE@plt>
0x2945c <_ZN18ChiMetadataManager8GetInputEPK15camera_metadatajbb+0x35c>
0x2945c <_ZN18ChiMetadataManager8GetInputEPK15camera_metadatajbb+0x35c>
#0, 0x29554 <_ZN18ChiMetadataManager8GetInputEPK15camera_metadatajbb+0x454>
0x29498 <_ZN18ChiMetadataManager8GetInputEPK15camera_metadatajbb+0x398>
<_ZN18ChiMetadataManager8GetInputEPK15camera_metadatajbb+0x38c>
0x2c000 <_ZN18ChiMetadataManager8GetInputEPK15camera_metadatajbb+0x298>
#0, 0x2944c <_ZN18ChiMetadataManager8GetInputEPK15camera_metadatajbb+0x34c>
0x2c000 <_ZN18ChiMetadataManager8GetInputEPK15camera_metadatajbb+0x2a8>
<_ZN18ChiMetadataManager8GetInputEPK15camera_metadatajbb+0x2fc>
0x9000 <_ZN18ChiMetadataManager8GetInputEPK15camera_metadatajbb+0x230>
0xd000 <_ZN18ChiMetadataManager8GetInputEPK15camera_metadatajbb+0x260>
0x9000 <_ZN18ChiMetadataManager8GetInputEPK15camera_metadatajbb+0x254>
0x9000 <_ZN18ChiMetadataManager8GetInputEPK15camera_metadatajbb+0x258>
0x9000 <_ZN18ChiMetadataManager8GetInputEPK15camera_metadatajbb+0x27c>
0x9000 <_ZN18ChiMetadataManager8GetInputEPK15camera_metadatajbb+0x2a0>
0xc000 <_ZN18ChiMetadataManager8GetInputEPK15camera_metadatajbb+0x2b0>
0x9000 <_ZN18ChiMetadataManager8GetInputEPK15camera_metadatajbb+0x2a8>
0xc000 <_ZN18ChiMetadataManager8GetInputEPK15camera_metadatajbb+0x2b8>
<_ZN6ChiLog9LogSystemEPKcS1_S1_S1_iS1_z@plt>
0x29588 <_ZN18ChiMetadataManager8GetInputEPK15camera_metadatajbb+0x488>
<_ZN18ChiMetadataManager8GetInputEPK15camera_metadatajbb+0x5b0>
0x29498 <_ZN18ChiMetadataManager8GetInputEPK15camera_metadatajbb+0x398>
#0, 0x29570 <_ZN18ChiMetadataManager8GetInputEPK15camera_metadatajbb+0x470>
0x29570 <_ZN18ChiMetadataManager8GetInputEPK15camera_metadatajbb+0x470>
0x2c000 <_ZN18ChiMetadataManager8GetInputEPK15camera_metadatajbb+0x3a4>
#0, 0x29548 <_ZN18ChiMetadataManager8GetInputEPK15camera_metadatajbb+0x448>
0x2c000 <_ZN18ChiMetadataManager8GetInputEPK15camera_metadatajbb+0x3b4>
0x9000 <_ZN18ChiMetadataManager8GetInputEPK15camera_metadatajbb+0x32c>
<_ZN18ChiMetadataManager8GetInputEPK15camera_metadatajbb+0x404>
0xd000 <_ZN18ChiMetadataManager8GetInputEPK15camera_metadatajbb+0x368>
0xd000 <_ZN18ChiMetadataManager8GetInputEPK15camera_metadatajbb+0x36c>
0x9000 <_ZN18ChiMetadataManager8GetInputEPK15camera_metadatajbb+0x360>
0xc000 <_ZN18ChiMetadataManager8GetInputEPK15camera_metadatajbb+0x3a4>
0x9000 <_ZN18ChiMetadataManager8GetInputEPK15camera_metadatajbb+0x3a0>
0x9000 <_ZN18ChiMetadataManager8GetInputEPK15camera_metadatajbb+0x3a4>
0xd000 <_ZN18ChiMetadataManager8GetInputEPK15camera_metadatajbb+0x3b8>
<_ZN6ChiLog9LogSystemEPKcS1_S1_S1_iS1_z@plt>
0x29588 <_ZN18ChiMetadataManager8GetInputEPK15camera_metadatajbb+0x488>
<_ZN18ChiMetadataManager8GetInputEPK15camera_metadatajbb+0x5b0>
0x29498 <_ZN18ChiMetadataManager8GetInputEPK15camera_metadatajbb+0x398>
<_ZN18ChiMetadataManager24RestoreNonstickyMetadataEPK15camera_metadataP11ChiMetadata@plt>
0x296b0 <_ZN18ChiMetadataManager8GetInputEPK15camera_metadatajbb+0x5b0>
<_ZN18ChiMetadataManager8GetInputEPK15camera_metadatajbb+0x5e8>
<_ZN18ChiMetadataManager8GetInputEPK15camera_metadatajbb+0x5b0>
<_ZN18ChiMetadataManager8GetInputEPK15camera_metadatajbb+0x4d0>
<_ZN18ChiMetadataManager8GetInputEPK15camera_metadatajbb+0x5a4>
0x295ec <_ZN18ChiMetadataManager8GetInputEPK15camera_metadatajbb+0x4ec>
<_ZN18ChiMetadataManager10MetaClient12TrackBuffersERNSt3__16chrono10time_pointINS2_12steady_clockENS2_8durationIxNS1_5ratioILl1ELl1000000000EEEEEEEj@plt>
0x29604 <_ZN18ChiMetadataManager8GetInputEPK15camera_metadatajbb+0x504>
<_ZN18ChiMetadataManager10MetaClient12TrackBuffersERNSt3__16chrono10time_pointINS2_12steady_clockENS2_8durationIxNS1_5ratioILl1ELl1000000000EEEEEEEj@plt>
0x2961c <_ZN18ChiMetadataManager8GetInputEPK15camera_metadatajbb+0x51c>
<_ZN18ChiMetadataManager10MetaClient12TrackBuffersERNSt3__16chrono10time_pointINS2_12steady_clockENS2_8durationIxNS1_5ratioILl1ELl1000000000EEEEEEEj@plt>
0x2963c <_ZN18ChiMetadataManager8GetInputEPK15camera_metadatajbb+0x53c>
<_ZN18ChiMetadataManager10MetaClient12TrackBuffersERNSt3__16chrono10time_pointINS2_12steady_clockENS2_8durationIxNS1_5ratioILl1ELl1000000000EEEEEEEj@plt>
0x29658 <_ZN18ChiMetadataManager8GetInputEPK15camera_metadatajbb+0x558>
<_ZN18ChiMetadataManager10MetaClient12TrackBuffersERNSt3__16chrono10time_pointINS2_12steady_clockENS2_8durationIxNS1_5ratioILl1ELl1000000000EEEEEEEj@plt>
0x29670 <_ZN18ChiMetadataManager8GetInputEPK15camera_metadatajbb+0x570>
<_ZN18ChiMetadataManager10MetaClient12TrackBuffersERNSt3__16chrono10time_pointINS2_12steady_clockENS2_8durationIxNS1_5ratioILl1ELl1000000000EEEEEEEj@plt>
0x29688 <_ZN18ChiMetadataManager8GetInputEPK15camera_metadatajbb+0x588>
<_ZN18ChiMetadataManager10MetaClient12TrackBuffersERNSt3__16chrono10time_pointINS2_12steady_clockENS2_8durationIxNS1_5ratioILl1ELl1000000000EEEEEEEj@plt>
0x295c0 <_ZN18ChiMetadataManager8GetInputEPK15camera_metadatajbb+0x4c0>
<_ZN18ChiMetadataManager10MetaClient12TrackBuffersERNSt3__16chrono10time_pointINS2_12steady_clockENS2_8durationIxNS1_5ratioILl1ELl1000000000EEEEEEEj@plt>
<_ZN18ChiMetadataManager8GetInputEPK15camera_metadatajbb+0x4c0>
<_ZN18ChiMetadataManager8GetInputEPK15camera_metadatajbb+0x5e4>

<_ZN18ChiMetadataManager12TrackBuffersERNSt3__16chrono10time_pointINS1_12steady_clockENS1_8durationIxNS0_5ratioILl1ELl1000000000EEEEEEE+0x16c>
<_ZN18ChiMetadataManager12TrackBuffersERNSt3__16chrono10time_pointINS1_12steady_clockENS1_8durationIxNS0_5ratioILl1ELl1000000000EEEEEEE+0x150>
<_ZN18ChiMetadataManager12TrackBuffersERNSt3__16chrono10time_pointINS1_12steady_clockENS1_8durationIxNS0_5ratioILl1ELl1000000000EEEEEEE+0x74>
<_ZN18ChiMetadataManager12TrackBuffersERNSt3__16chrono10time_pointINS1_12steady_clockENS1_8durationIxNS0_5ratioILl1ELl1000000000EEEEEEE+0x148>
0x29780 <_ZN18ChiMetadataManager12TrackBuffersERNSt3__16chrono10time_pointINS1_12steady_clockENS1_8durationIxNS0_5ratioILl1ELl1000000000EEEEEEE+0x90>
<_ZN18ChiMetadataManager10MetaClient12TrackBuffersERNSt3__16chrono10time_pointINS2_12steady_clockENS2_8durationIxNS1_5ratioILl1ELl1000000000EEEEEEEj@plt>
0x29798 <_ZN18ChiMetadataManager12TrackBuffersERNSt3__16chrono10time_pointINS1_12steady_clockENS1_8durationIxNS0_5ratioILl1ELl1000000000EEEEEEE+0xa8>
<_ZN18ChiMetadataManager10MetaClient12TrackBuffersERNSt3__16chrono10time_pointINS2_12steady_clockENS2_8durationIxNS1_5ratioILl1ELl1000000000EEEEEEEj@plt>
0x297b0 <_ZN18ChiMetadataManager12TrackBuffersERNSt3__16chrono10time_pointINS1_12steady_clockENS1_8durationIxNS0_5ratioILl1ELl1000000000EEEEEEE+0xc0>
<_ZN18ChiMetadataManager10MetaClient12TrackBuffersERNSt3__16chrono10time_pointINS2_12steady_clockENS2_8durationIxNS1_5ratioILl1ELl1000000000EEEEEEEj@plt>
0x297d0 <_ZN18ChiMetadataManager12TrackBuffersERNSt3__16chrono10time_pointINS1_12steady_clockENS1_8durationIxNS0_5ratioILl1ELl1000000000EEEEEEE+0xe0>
<_ZN18ChiMetadataManager10MetaClient12TrackBuffersERNSt3__16chrono10time_pointINS2_12steady_clockENS2_8durationIxNS1_5ratioILl1ELl1000000000EEEEEEEj@plt>
0x297ec <_ZN18ChiMetadataManager12TrackBuffersERNSt3__16chrono10time_pointINS1_12steady_clockENS1_8durationIxNS0_5ratioILl1ELl1000000000EEEEEEE+0xfc>
<_ZN18ChiMetadataManager10MetaClient12TrackBuffersERNSt3__16chrono10time_pointINS2_12steady_clockENS2_8durationIxNS1_5ratioILl1ELl1000000000EEEEEEEj@plt>
0x29804 <_ZN18ChiMetadataManager12TrackBuffersERNSt3__16chrono10time_pointINS1_12steady_clockENS1_8durationIxNS0_5ratioILl1ELl1000000000EEEEEEE+0x114>
<_ZN18ChiMetadataManager10MetaClient12TrackBuffersERNSt3__16chrono10time_pointINS2_12steady_clockENS2_8durationIxNS1_5ratioILl1ELl1000000000EEEEEEEj@plt>
0x2981c <_ZN18ChiMetadataManager12TrackBuffersERNSt3__16chrono10time_pointINS1_12steady_clockENS1_8durationIxNS0_5ratioILl1ELl1000000000EEEEEEE+0x12c>
<_ZN18ChiMetadataManager10MetaClient12TrackBuffersERNSt3__16chrono10time_pointINS2_12steady_clockENS2_8durationIxNS1_5ratioILl1ELl1000000000EEEEEEEj@plt>
0x29754 <_ZN18ChiMetadataManager12TrackBuffersERNSt3__16chrono10time_pointINS1_12steady_clockENS1_8durationIxNS0_5ratioILl1ELl1000000000EEEEEEE+0x64>
<_ZN18ChiMetadataManager10MetaClient12TrackBuffersERNSt3__16chrono10time_pointINS2_12steady_clockENS2_8durationIxNS1_5ratioILl1ELl1000000000EEEEEEEj@plt>
<_ZN18ChiMetadataManager12TrackBuffersERNSt3__16chrono10time_pointINS1_12steady_clockENS1_8durationIxNS0_5ratioILl1ELl1000000000EEEEEEE+0x64>

0x29970 <_ZN18ChiMetadataManager21GetMetadataFromHandleEPv+0x110>
0x29970 <_ZN18ChiMetadataManager21GetMetadataFromHandleEPv+0x110>
0x2c000 <_ZN18ChiMetadataManager21GetMetadataFromHandleEPv+0x6c>
#1, 0x29970 <_ZN18ChiMetadataManager21GetMetadataFromHandleEPv+0x110>
0x2c000 <_ZN18ChiMetadataManager21GetMetadataFromHandleEPv+0x7c>
0x9000 <_ZN18ChiMetadataManager12TrackBuffersERNSt3__16chrono10time_pointINS1_12steady_clockENS1_8durationIxNS0_5ratioILl1ELl1000000000EEEEEEE+0x164>
<_ZN18ChiMetadataManager21GetMetadataFromHandleEPv+0xcc>
0xd000 <_ZN18ChiMetadataManager21GetMetadataFromHandleEPv+0x30>
0xb000 <_ZN18ChiMetadataManager21GetMetadataFromHandleEPv+0x2c>
0xd000 <_ZN18ChiMetadataManager21GetMetadataFromHandleEPv+0x38>
0xa000 <_ZN18ChiMetadataManager21GetMetadataFromHandleEPv+0x64>
0xc000 <_ZN18ChiMetadataManager21GetMetadataFromHandleEPv+0x74>
0xd000 <_ZN18ChiMetadataManager21GetMetadataFromHandleEPv+0x7c>
0xd000 <_ZN18ChiMetadataManager21GetMetadataFromHandleEPv+0x80>
<_ZN6ChiLog9LogSystemEPKcS1_S1_S1_iS1_z@plt>
<_ZN18ChiMetadataManager21GetMetadataFromHandleEPv+0x138>

<_ZN18ChiMetadataManager13ReleaseHolderEjjP11ChiMetadata+0x2a8>
<_ZNSt3__15mutex4lockEv@plt>
<_ZN18ChiMetadataManager13ReleaseHolderEjjP11ChiMetadata+0xfc>
0x9000 <_ZN18ChiMetadataManager21GetMetadataFromHandleEPv+0x134>
0xc000 <_ZN18ChiMetadataManager13ReleaseHolderEjjP11ChiMetadata+0x28>
0xb000 <_ZN18ChiMetadataManager13ReleaseHolderEjjP11ChiMetadata+0x28>
0x9000 <_ZN18ChiMetadataManager13ReleaseHolderEjjP11ChiMetadata+0x24>
0xa000 <_ZN18ChiMetadataManager13ReleaseHolderEjjP11ChiMetadata+0x2c>
<_ZN6ChiLog9LogSystemEPKcS1_S1_S1_iS1_z@plt>
<_ZN18ChiMetadataManager13ReleaseHolderEjjP11ChiMetadata+0x2a4>
<_ZN18ChiMetadataManager13ReleaseHolderEjjP11ChiMetadata+0x264>
<_ZN18ChiMetadataManager13ReleaseHolderEjjP11ChiMetadata+0xe8>
0x2a000 <_ZN18ChiMetadataManager13ReleaseHolderEjjP11ChiMetadata+0x154>
<_ZN18ChiMetadataManager13ReleaseHolderEjjP11ChiMetadata+0x22c>
0x29b38 <_ZN18ChiMetadataManager13ReleaseHolderEjjP11ChiMetadata+0x198>
0x2a000 <_ZN18ChiMetadataManager13ReleaseHolderEjjP11ChiMetadata+0x178>
<_ZN18ChiMetadataManager13ReleaseHolderEjjP11ChiMetadata+0x248>
0x2c000 <_ZN18ChiMetadataManager13ReleaseHolderEjjP11ChiMetadata+0x1a4>
#5, 0x29a84 <_ZN18ChiMetadataManager13ReleaseHolderEjjP11ChiMetadata+0xe4>
0x2c000 <_ZN18ChiMetadataManager13ReleaseHolderEjjP11ChiMetadata+0x1b4>
<_ZN18ChiMetadataManager13ReleaseHolderEjjP11ChiMetadata+0x74>
0x9000 <_ZN18ChiMetadataManager13ReleaseHolderEjjP11ChiMetadata+0x13c>
0xd000 <_ZN18ChiMetadataManager13ReleaseHolderEjjP11ChiMetadata+0x170>
0x9000 <_ZN18ChiMetadataManager13ReleaseHolderEjjP11ChiMetadata+0x164>
0x9000 <_ZN18ChiMetadataManager13ReleaseHolderEjjP11ChiMetadata+0x168>
<_ZN18ChiMetadataManager13ReleaseHolderEjjP11ChiMetadata+0x74>
<_ZN18ChiMetadataManager13ReleaseHolderEjjP11ChiMetadata+0x164>
<_ZN18ChiMetadataManager13ReleaseHolderEjjP11ChiMetadata+0x184>
<_ZNSt3__15mutex6unlockEv@plt>
<_ZN18ChiMetadataManager13ReleaseHolderEjjP11ChiMetadata+0x2ac>

0x29cb0 <_ZN18ChiMetadataManager7ReleaseEP11ChiMetadata+0x60>
0x29c8c <_ZN18ChiMetadataManager7ReleaseEP11ChiMetadata+0x3c>
<_ZN18ChiMetadataManager7ReleaseEP11ChiMetadata+0x3c>
<_ZN18ChiMetadataManager13ReleaseHolderEjjP11ChiMetadata@plt>
<_ZN18ChiMetadataManager7ReleaseEP11ChiMetadata+0x60>
0x2a000 <_ZN18ChiMetadataManager7ReleaseEP11ChiMetadata+0x4c>
<_ZN18ChiMetadataManager7ReleaseEP11ChiMetadata+0x70>
<_ZN18ChiMetadataManager7ReleaseEP11ChiMetadata+0x58>

<_ZN18ChiMetadataManager21ReleaseHolderByHandleEjjPv+0x288>
<_ZNSt3__15mutex4lockEv@plt>
<_ZN18ChiMetadataManager21ReleaseHolderByHandleEjjPv+0x104>
0x9000 <_ZN18ChiMetadataManager7ReleaseEP11ChiMetadata+0x90>
0xc000 <_ZN18ChiMetadataManager21ReleaseHolderByHandleEjjPv+0x28>
0xb000 <_ZN18ChiMetadataManager21ReleaseHolderByHandleEjjPv+0x28>
0xb000 <_ZN18ChiMetadataManager21ReleaseHolderByHandleEjjPv+0x2c>
0xa000 <_ZN18ChiMetadataManager21ReleaseHolderByHandleEjjPv+0x2c>
<_ZN6ChiLog9LogSystemEPKcS1_S1_S1_iS1_z@plt>
<_ZN18ChiMetadataManager21ReleaseHolderByHandleEjjPv+0x284>
<_ZN18ChiMetadataManager21ReleaseHolderByHandleEjjPv+0x244>
<_ZN18ChiMetadataManager21ReleaseHolderByHandleEjjPv+0xf0>
0x2a000 <_ZN18ChiMetadataManager21ReleaseHolderByHandleEjjPv+0x160>
<_ZN18ChiMetadataManager21ReleaseHolderByHandleEjjPv+0x228>
0x29e74 <_ZN18ChiMetadataManager21ReleaseHolderByHandleEjjPv+0x18c>
0x2c000 <_ZN18ChiMetadataManager21ReleaseHolderByHandleEjjPv+0x198>
#5, 0x29dd4 <_ZN18ChiMetadataManager21ReleaseHolderByHandleEjjPv+0xec>
0x2c000 <_ZN18ChiMetadataManager21ReleaseHolderByHandleEjjPv+0x1a8>
<_ZN18ChiMetadataManager21ReleaseHolderByHandleEjjPv+0x78>
0x9000 <_ZN18ChiMetadataManager21ReleaseHolderByHandleEjjPv+0x134>
0xd000 <_ZN18ChiMetadataManager21ReleaseHolderByHandleEjjPv+0x164>
0x9000 <_ZN18ChiMetadataManager21ReleaseHolderByHandleEjjPv+0x158>
0xb000 <_ZN18ChiMetadataManager21ReleaseHolderByHandleEjjPv+0x164>
<_ZN18ChiMetadataManager21ReleaseHolderByHandleEjjPv+0x78>
<_ZN18ChiMetadataManager21ReleaseHolderByHandleEjjPv+0x174>
<_ZNSt3__15mutex6unlockEv@plt>
<_ZN18ChiMetadataManager21ReleaseHolderByHandleEjjPv+0x28c>

<_ZNSt3__15mutex4lockEv@plt>
<_ZN18ChiMetadataManager33GetAndroidFrameworkOutputMetadataEb+0x84>
<_ZN18ChiMetadataManager33GetAndroidFrameworkOutputMetadataEb+0x570>
<_ZN18ChiMetadataManager33GetAndroidFrameworkOutputMetadataEb+0xb8>
<_ZN18ChiMetadataManager33GetAndroidFrameworkOutputMetadataEb+0x70>
0x29fe8 <_ZN18ChiMetadataManager33GetAndroidFrameworkOutputMetadataEb+0x70>
0x2a1ac <_ZN18ChiMetadataManager33GetAndroidFrameworkOutputMetadataEb+0x234>
<_ZN18ChiMetadataManager33GetAndroidFrameworkOutputMetadataEb+0x350>
<_ZN18ChiMetadataManager33GetAndroidFrameworkOutputMetadataEb+0x124>
0x2a09c <_ZN18ChiMetadataManager33GetAndroidFrameworkOutputMetadataEb+0x124>
<_ZN18ChiMetadataManager33GetAndroidFrameworkOutputMetadataEb+0x1e4>
<_ZN18ChiMetadataManager33GetAndroidFrameworkOutputMetadataEb+0x32c>
0x2c000 <_ZN18ChiMetadataManager33GetAndroidFrameworkOutputMetadataEb+0x12c>
#0, 0x2a154 <_ZN18ChiMetadataManager33GetAndroidFrameworkOutputMetadataEb+0x1dc>
0x2c000 <_ZN18ChiMetadataManager33GetAndroidFrameworkOutputMetadataEb+0x13c>
<_ZN18ChiMetadataManager33GetAndroidFrameworkOutputMetadataEb+0x190>
0x9000 <_ZN18ChiMetadataManager33GetAndroidFrameworkOutputMetadataEb+0xc4>
0xd000 <_ZN18ChiMetadataManager33GetAndroidFrameworkOutputMetadataEb+0xf0>
0xa000 <_ZN18ChiMetadataManager33GetAndroidFrameworkOutputMetadataEb+0xe8>
0xd000 <_ZN18ChiMetadataManager33GetAndroidFrameworkOutputMetadataEb+0xf8>
0x9000 <_ZN18ChiMetadataManager33GetAndroidFrameworkOutputMetadataEb+0x10c>
0xc000 <_ZN18ChiMetadataManager33GetAndroidFrameworkOutputMetadataEb+0x134>
0x9000 <_ZN18ChiMetadataManager33GetAndroidFrameworkOutputMetadataEb+0x130>
0xd000 <_ZN18ChiMetadataManager33GetAndroidFrameworkOutputMetadataEb+0x144>
0xd000 <_ZN18ChiMetadataManager33GetAndroidFrameworkOutputMetadataEb+0x148>
<_ZN6ChiLog9LogSystemEPKcS1_S1_S1_iS1_z@plt>
<_ZN18ChiMetadataManager33GetAndroidFrameworkOutputMetadataEb+0x350>
<_ZN18ChiMetadataManager33GetAndroidFrameworkOutputMetadataEb+0x570>
0x2a4f0 <_ZN18ChiMetadataManager33GetAndroidFrameworkOutputMetadataEb+0x578>
<_ZN18ChiMetadataManager33GetAndroidFrameworkOutputMetadataEb+0x23c>
0x2a1b8 <_ZN18ChiMetadataManager33GetAndroidFrameworkOutputMetadataEb+0x240>
<_ZN18ChiMetadataManager33GetAndroidFrameworkOutputMetadataEb+0x24c>
<_ZN18ChiMetadataManager33GetAndroidFrameworkOutputMetadataEb+0xbc>
<_ZN18ChiMetadataManager33GetAndroidFrameworkOutputMetadataEb+0x2ac>
<_ZN18ChiMetadataManager33GetAndroidFrameworkOutputMetadataEb+0x2b8>
<_ZN18ChiMetadataManager33GetAndroidFrameworkOutputMetadataEb+0x2b8>
#0, 0x2a230 <_ZN18ChiMetadataManager33GetAndroidFrameworkOutputMetadataEb+0x2b8>
<_ZN18ChiMetadataManager33GetAndroidFrameworkOutputMetadataEb+0x454>
<_ZN18ChiMetadataManager33GetAndroidFrameworkOutputMetadataEb+0x2d8>
<_ZN18ChiMetadataManager33GetAndroidFrameworkOutputMetadataEb+0x30c>
<_ZN18ChiMetadataManager33GetAndroidFrameworkOutputMetadataEb+0x2bc>
<_ZN18ChiMetadataManager33GetAndroidFrameworkOutputMetadataEb+0x30c>
<_ZN18ChiMetadataManager21AndroidMetadataHolderD2Ev@plt>
<_ZN18ChiMetadataManager33GetAndroidFrameworkOutputMetadataEb+0x2f4>
0x2a2a4 <_ZN18ChiMetadataManager33GetAndroidFrameworkOutputMetadataEb+0x32c>
0x2a4f8 <_ZN18ChiMetadataManager33GetAndroidFrameworkOutputMetadataEb+0x580>
<_ZN18ChiMetadataManager21AndroidMetadataHolderD2Ev@plt>
0x2c000 <_ZN18ChiMetadataManager33GetAndroidFrameworkOutputMetadataEb+0x358>
#5, 0x2a390 <_ZN18ChiMetadataManager33GetAndroidFrameworkOutputMetadataEb+0x418>
0x2c000 <_ZN18ChiMetadataManager33GetAndroidFrameworkOutputMetadataEb+0x368>
0x9000 <_ZN18ChiMetadataManager33GetAndroidFrameworkOutputMetadataEb+0x2e0>
<_ZN18ChiMetadataManager33GetAndroidFrameworkOutputMetadataEb+0x3c8>
0xd000 <_ZN18ChiMetadataManager33GetAndroidFrameworkOutputMetadataEb+0x31c>
0xb000 <_ZN18ChiMetadataManager33GetAndroidFrameworkOutputMetadataEb+0x318>
0xd000 <_ZN18ChiMetadataManager33GetAndroidFrameworkOutputMetadataEb+0x324>
0xb000 <_ZN18ChiMetadataManager33GetAndroidFrameworkOutputMetadataEb+0x360>
0xc000 <_ZN18ChiMetadataManager33GetAndroidFrameworkOutputMetadataEb+0x36c>
0xd000 <_ZN18ChiMetadataManager33GetAndroidFrameworkOutputMetadataEb+0x374>
0xa000 <_ZN18ChiMetadataManager33GetAndroidFrameworkOutputMetadataEb+0x36c>
<_ZN6ChiLog9LogSystemEPKcS1_S1_S1_iS1_z@plt>
<_ZNSt3__15mutex6unlockEv@plt>
<_ZN18ChiMetadataManager33GetAndroidFrameworkOutputMetadataEb+0x574>
<_ZN18ChiMetadataManager33GetAndroidFrameworkOutputMetadataEb+0x2a8>
<_ZN18ChiMetadataManager33GetAndroidFrameworkOutputMetadataEb+0x538>
<_ZN18ChiMetadataManager33GetAndroidFrameworkOutputMetadataEb+0x488>
0x2a4b4 <_ZN18ChiMetadataManager33GetAndroidFrameworkOutputMetadataEb+0x53c>
<_ZN18ChiMetadataManager33GetAndroidFrameworkOutputMetadataEb+0x2d8>
<_ZN18ChiMetadataManager33GetAndroidFrameworkOutputMetadataEb+0x550>
<_ZN18ChiMetadataManager33GetAndroidFrameworkOutputMetadataEb+0x2d8>
<_ZNKSt3__120__vector_base_commonILb1EE20__throw_length_errorEv@plt>

<_ZNSt3__15mutex4lockEv@plt>
<_ZN18ChiMetadataManager37ReleaseAndroidFrameworkOutputMetadataEPK15camera_metadata+0x7c>
<_ZN18ChiMetadataManager37ReleaseAndroidFrameworkOutputMetadataEPK15camera_metadata+0x140>
<_ZN18ChiMetadataManager37ReleaseAndroidFrameworkOutputMetadataEPK15camera_metadata+0x50>
0x2c000 <_ZN18ChiMetadataManager37ReleaseAndroidFrameworkOutputMetadataEPK15camera_metadata+0x84>
#0, 0x2a638 <_ZN18ChiMetadataManager37ReleaseAndroidFrameworkOutputMetadataEPK15camera_metadata+0x138>
0x2c000 <_ZN18ChiMetadataManager37ReleaseAndroidFrameworkOutputMetadataEPK15camera_metadata+0x98>
<_ZN18ChiMetadataManager37ReleaseAndroidFrameworkOutputMetadataEPK15camera_metadata+0xec>
0x9000 <_ZN18ChiMetadataManager37ReleaseAndroidFrameworkOutputMetadataEPK15camera_metadata+0x20>
0xd000 <_ZN18ChiMetadataManager37ReleaseAndroidFrameworkOutputMetadataEPK15camera_metadata+0x4c>
0xd000 <_ZN18ChiMetadataManager37ReleaseAndroidFrameworkOutputMetadataEPK15camera_metadata+0x50>
0xa000 <_ZN18ChiMetadataManager37ReleaseAndroidFrameworkOutputMetadataEPK15camera_metadata+0x48>
0x9000 <_ZN18ChiMetadataManager37ReleaseAndroidFrameworkOutputMetadataEPK15camera_metadata+0x68>
0xc000 <_ZN18ChiMetadataManager37ReleaseAndroidFrameworkOutputMetadataEPK15camera_metadata+0x90>
0x9000 <_ZN18ChiMetadataManager37ReleaseAndroidFrameworkOutputMetadataEPK15camera_metadata+0x8c>
0xa000 <_ZN18ChiMetadataManager37ReleaseAndroidFrameworkOutputMetadataEPK15camera_metadata+0x94>
0xb000 <_ZN18ChiMetadataManager37ReleaseAndroidFrameworkOutputMetadataEPK15camera_metadata+0x9c>
<_ZN6ChiLog9LogSystemEPKcS1_S1_S1_iS1_z@plt>
<_ZN18ChiMetadataManager37ReleaseAndroidFrameworkOutputMetadataEPK15camera_metadata+0x158>
<_ZN8ChxUtils15AndroidMetadata13ResetMetadataEP15camera_metadata@plt>
0x2c000 <_ZN18ChiMetadataManager37ReleaseAndroidFrameworkOutputMetadataEPK15camera_metadata+0x160>
#5, 0x2a708 <_ZN18ChiMetadataManager37ReleaseAndroidFrameworkOutputMetadataEPK15camera_metadata+0x208>
0x2c000 <_ZN18ChiMetadataManager37ReleaseAndroidFrameworkOutputMetadataEPK15camera_metadata+0x170>
0x9000 <_ZN18ChiMetadataManager37ReleaseAndroidFrameworkOutputMetadataEPK15camera_metadata+0xe8>
<_ZN18ChiMetadataManager37ReleaseAndroidFrameworkOutputMetadataEPK15camera_metadata+0x1c4>
0xd000 <_ZN18ChiMetadataManager37ReleaseAndroidFrameworkOutputMetadataEPK15camera_metadata+0x124>
0xa000 <_ZN18ChiMetadataManager37ReleaseAndroidFrameworkOutputMetadataEPK15camera_metadata+0x11c>
0xa000 <_ZN18ChiMetadataManager37ReleaseAndroidFrameworkOutputMetadataEPK15camera_metadata+0x120>
0xb000 <_ZN18ChiMetadataManager37ReleaseAndroidFrameworkOutputMetadataEPK15camera_metadata+0x15c>
0xc000 <_ZN18ChiMetadataManager37ReleaseAndroidFrameworkOutputMetadataEPK15camera_metadata+0x168>
0xa000 <_ZN18ChiMetadataManager37ReleaseAndroidFrameworkOutputMetadataEPK15camera_metadata+0x164>
0xa000 <_ZN18ChiMetadataManager37ReleaseAndroidFrameworkOutputMetadataEPK15camera_metadata+0x168>
<_ZN6ChiLog9LogSystemEPKcS1_S1_S1_iS1_z@plt>
<_ZNSt3__15mutex6unlockEv@plt>

<_ZN18ChiMetadataManager15PrintAllBuffersEjj+0x580>
<_ZNSt3__15mutex4lockEv@plt>
<_ZN18ChiMetadataManager15PrintAllBuffersEjj+0xa0>
<_ZN18ChiMetadataManager15PrintAllBuffersEjj+0x57c>
<_ZN18ChiMetadataManager15PrintAllBuffersEjj+0x53c>
<_ZN18ChiMetadataManager15PrintAllBuffersEjj+0xe8>
<_ZN18ChiMetadataManager15PrintAllBuffersEjj+0x348>
0x2a8b8 <_ZN18ChiMetadataManager15PrintAllBuffersEjj+0x190>
<_ZNSt3__112basic_stringIcNS_11char_traitsIcEENS_9allocatorIcEEE6__initEPKcm@plt>
<_ZNSt3__112basic_stringIcNS_11char_traitsIcEENS_9allocatorIcEEE6appendEPKcm@plt>
<_ZNSt3__112basic_stringIcNS_11char_traitsIcEENS_9allocatorIcEEE6appendEPKcm@plt>
#0, 0x2a9fc <_ZN18ChiMetadataManager15PrintAllBuffersEjj+0x2d4>
#0, 0x2aa0c <_ZN18ChiMetadataManager15PrintAllBuffersEjj+0x2e4>
#0, 0x2a8b4 <_ZN18ChiMetadataManager15PrintAllBuffersEjj+0x18c>
0x2a960 <_ZN18ChiMetadataManager15PrintAllBuffersEjj+0x238>
<_ZNSt3__112basic_stringIcNS_11char_traitsIcEENS_9allocatorIcEEE6__initEPKcm@plt>
<_ZNSt3__112basic_stringIcNS_11char_traitsIcEENS_9allocatorIcEEE6appendEPKcm@plt>
<_ZNSt3__112basic_stringIcNS_11char_traitsIcEENS_9allocatorIcEEE6appendEPKcm@plt>
#0, 0x2aa20 <_ZN18ChiMetadataManager15PrintAllBuffersEjj+0x2f8>
#0, 0x2aa30 <_ZN18ChiMetadataManager15PrintAllBuffersEjj+0x308>
#0, 0x2a95c <_ZN18ChiMetadataManager15PrintAllBuffersEjj+0x234>
0x2a800 <_ZN18ChiMetadataManager15PrintAllBuffersEjj+0xd8>
<_ZNSt3__112basic_stringIcNS_11char_traitsIcEENS_9allocatorIcEEE6__initEPKcm@plt>
<_ZNSt3__112basic_stringIcNS_11char_traitsIcEENS_9allocatorIcEEE6appendEPKcm@plt>
<_ZNSt3__112basic_stringIcNS_11char_traitsIcEENS_9allocatorIcEEE6appendEPKcm@plt>
#0, 0x2aa44 <_ZN18ChiMetadataManager15PrintAllBuffersEjj+0x31c>
#0, 0x2aa54 <_ZN18ChiMetadataManager15PrintAllBuffersEjj+0x32c>
#0, 0x2a7fc <_ZN18ChiMetadataManager15PrintAllBuffersEjj+0xd4>
<_ZN18ChiMetadataManager15PrintAllBuffersEjj+0x33c>
#0, 0x2a8a4 <_ZN18ChiMetadataManager15PrintAllBuffersEjj+0x17c>
#0, 0x2a8ac <_ZN18ChiMetadataManager15PrintAllBuffersEjj+0x184>
<_ZN18ChiMetadataManager15PrintAllBuffersEjj+0x18c>
#0, 0x2a94c <_ZN18ChiMetadataManager15PrintAllBuffersEjj+0x224>
#0, 0x2a954 <_ZN18ChiMetadataManager15PrintAllBuffersEjj+0x22c>
<_ZN18ChiMetadataManager15PrintAllBuffersEjj+0x234>
#0, 0x2a9f0 <_ZN18ChiMetadataManager15PrintAllBuffersEjj+0x2c8>
#0, 0x2a7fc <_ZN18ChiMetadataManager15PrintAllBuffersEjj+0xd4>
<_ZN18ChiMetadataManager15PrintAllBuffersEjj+0xd4>
0x2a000 <_ZN18ChiMetadataManager15PrintAllBuffersEjj+0x34c>
<_ZN18ChiMetadataManager15PrintAllBuffersEjj+0x520>
0x2c000 <_ZN18ChiMetadataManager15PrintAllBuffersEjj+0x36c>
#3, 0x2ac34 <_ZN18ChiMetadataManager15PrintAllBuffersEjj+0x50c>
0x2c000 <_ZN18ChiMetadataManager15PrintAllBuffersEjj+0x37c>
<_ZN18ChiMetadataManager15PrintAllBuffersEjj+0x448>
0x9000 <_ZN18ChiMetadataManager15PrintAllBuffersEjj+0x304>
0xd000 <_ZN18ChiMetadataManager15PrintAllBuffersEjj+0x374>
0xd000 <_ZN18ChiMetadataManager15PrintAllBuffersEjj+0x37c>
0xc000 <_ZN18ChiMetadataManager15PrintAllBuffersEjj+0x3ac>
0x9000 <_ZN18ChiMetadataManager15PrintAllBuffersEjj+0x3c4>
0xd000 <_ZN18ChiMetadataManager15PrintAllBuffersEjj+0x434>
0xc000 <_ZN18ChiMetadataManager15PrintAllBuffersEjj+0x438>
0xc000 <_ZN18ChiMetadataManager15PrintAllBuffersEjj+0x460>
0xb000 <_ZN18ChiMetadataManager15PrintAllBuffersEjj+0x474>
<_ZN6ChiLog9LogSystemEPKcS1_S1_S1_iS1_z@plt>
#0, 0x2a7b4 <_ZN18ChiMetadataManager15PrintAllBuffersEjj+0x8c>
<_ZN18ChiMetadataManager15PrintAllBuffersEjj+0x8c>
<_ZN18ChiMetadataManager15PrintAllBuffersEjj+0x35c>
<_ZNSt3__15mutex6unlockEv@plt>
<_ZN18ChiMetadataManager15PrintAllBuffersEjj+0x584>

0x2acec <_ZN18ChiMetadataManager15PrintAllBuffersEj+0x3c>
<_ZN18ChiMetadataManager15PrintAllBuffersEj+0x3c>
<_ZN18ChiMetadataManager15PrintAllBuffersEjj@plt>

<_ZN25ChiFeature2DerivedOfflineD2Ev+0x8>
<_ZN25ChiFeature2DerivedOfflineD2Ev+0x10>
<_ZN25ChiFeature2DerivedOfflineD2Ev+0xa8>
<_ZN25ChiFeature2DerivedOfflineD2Ev+0x290>



<_ZN5Mutex15GetNativeHandleEv+0x10>

<_ZN9Condition9BroadcastEv+0x8>

<_ZN9Semaphore7DestroyEv+0xd8>

<_ZN9Semaphore7DestroyEv+0x70>

<_ZN9Semaphore7DestroyEv+0x168>

<_ZN9Semaphore7DestroyEv+0x170>

<_ZN9Semaphore7DestroyEv+0x190>

<_ZN9Semaphore7DestroyEv+0x38>

<_ZN9Semaphore7DestroyEv+0x88>

<_ZN9Semaphore7DestroyEv+0x1a0>

<_ZN9Semaphore7DestroyEv+0x1b0>

<_ZN9Semaphore7DestroyEv+0x1c0>

<_ZN9Semaphore7DestroyEv+0x260>

<_ZN9Semaphore7DestroyEv+0x290>

<_ZN9Semaphore7DestroyEv+0x2c0>

<_ZN9Semaphore7DestroyEv+0x2c8>

<_ZN9Semaphore7DestroyEv+0x300>


<_ZN9Semaphore7DestroyEv+0x328>

<_ZN9Semaphore7DestroyEv+0x370>

<_ZN9Semaphore7DestroyEv+0x3a0>

<_ZN9Semaphore7DestroyEv+0x3c0>

<_ZN9Semaphore7DestroyEv+0x3c8>

<_ZN9Semaphore7DestroyEv+0x3d0>

<_ZN9Semaphore7DestroyEv+0x3d8>

<_ZN9Semaphore7DestroyEv+0x3f0>

<_ZN9Semaphore7DestroyEv+0x3f8>

<_ZN9Semaphore7DestroyEv+0x410>

<_ZN9Semaphore7DestroyEv+0x428>

<_ZN9Semaphore7DestroyEv+0x440>

<_ZN9Semaphore7DestroyEv+0x510>

<_ZN9Semaphore7DestroyEv+0x520>

<_ZN9Semaphore7DestroyEv+0x620>

<_ZN9Semaphore7DestroyEv+0x6a8>

<_ZN9Semaphore7DestroyEv+0x7e0>

<_ZN9Semaphore7DestroyEv+0x878>

<_ZN9Semaphore7DestroyEv+0x948>
<_ZN25ChiFeature2DerivedOfflineD2Ev+0xa0>

<_ZN9Semaphore7DestroyEv+0x368>

<_ZN9Semaphore7DestroyEv+0xad8>

<_ZN9Semaphore7DestroyEv+0xae8>

<_ZN9Semaphore7DestroyEv+0xc20>

<_ZN9Semaphore7DestroyEv+0xc30>

<_ZN9Semaphore7DestroyEv+0xcc8>

<_ZN9Semaphore7DestroyEv+0xcf0>

<_ZN9Semaphore7DestroyEv+0xe28>

<_ZN9Semaphore7DestroyEv+0xea0>

<_ZN9Semaphore7DestroyEv+0xec0>

<_ZN9Semaphore7DestroyEv+0x1358>

<_ZN9Semaphore7DestroyEv+0x15b0>

<_ZN9Semaphore7DestroyEv+0x1750>

<_ZN9Semaphore7DestroyEv+0x1830>

<_ZN9Semaphore7DestroyEv+0x1840>

<_ZN9Semaphore7DestroyEv+0x1908>

<_ZN9Semaphore7DestroyEv+0x1a78>

<_ZN9Semaphore7DestroyEv+0x1b10>

<_ZN9Semaphore7DestroyEv+0x1c38>

<_ZN9Semaphore7DestroyEv+0x1c68>

<_ZN9Semaphore7DestroyEv+0x1d48>

<_ZN9Semaphore7DestroyEv+0x1eb8>

<_ZN9Semaphore7DestroyEv+0x2028>

<_ZN9Semaphore7DestroyEv+0x21e0>

<_ZN9Semaphore7DestroyEv+0x2390>

<_ZN9Semaphore7DestroyEv+0x2528>

<_ZN9Semaphore7DestroyEv+0x26d0>

<_ZN9Semaphore7DestroyEv+0x2810>

<_ZN9Semaphore7DestroyEv+0x2938>

<_ZN9Semaphore7DestroyEv+0x2a78>

<_ZN9Semaphore7DestroyEv+0x2d80>

<_ZN9Semaphore7DestroyEv+0x2f90>

<_ZN9Semaphore7DestroyEv+0x33f0>

<_ZN9Semaphore7DestroyEv+0x3480>

<_ZN9Semaphore7DestroyEv+0x3590>

<_ZN9Semaphore7DestroyEv+0x3650>

<_ZN9Semaphore7DestroyEv+0x37b0>

<_ZN9Semaphore7DestroyEv+0x3928>

<_ZN9Semaphore7DestroyEv+0x3bb8>

<_ZN9Semaphore7DestroyEv+0x3bd8>

<_ZN9Semaphore7DestroyEv+0x3dd0>

<_ZN9Semaphore7DestroyEv+0x3ef0>

<_ZN9Semaphore7DestroyEv+0x3f48>

<_ZN9Semaphore7DestroyEv+0x3f98>

<_ZN9Semaphore7DestroyEv+0x4220>

<_ZN9Semaphore7DestroyEv+0x42f0>

<_ZN9Semaphore7DestroyEv+0x4380>

<_ZN9Semaphore7DestroyEv+0x44e8>

<_ZN9Semaphore7DestroyEv+0x4530>

<_ZN9Semaphore7DestroyEv+0x4538>

<_ZN9Semaphore7DestroyEv+0x4bf8>

<_ZN9Semaphore7DestroyEv+0x50f0>

<_ZN9Semaphore7DestroyEv+0x51b8>

<_ZN9Semaphore7DestroyEv+0x55f8>

<_ZN9Semaphore7DestroyEv+0x5698>

<_ZN9Semaphore7DestroyEv+0x3000>

<_ZN9Semaphore7DestroyEv+0x3150>

<_ZN9Semaphore7DestroyEv+0x32a0>

<_ZN9Semaphore7DestroyEv+0x4fa0>

<_ZN9Semaphore7DestroyEv+0x58e0>

<_ZN9Semaphore7DestroyEv+0x5a48>

<_ZN9Semaphore7DestroyEv+0x5b18>

<_ZN9Semaphore7DestroyEv+0x5bc0>

<_ZN9Semaphore7DestroyEv+0x5d30>

<_ZN11ChiMetadata10InitializeEPKjji+0x170>

<_ZN11ChiMetadata10InitializeEPKjji+0x4b0>

<_ZN11ChiMetadata10InitializeEPKjji+0x4b8>

<_ZN11ChiMetadata10InitializeEPKjji+0x4d8>

<_ZN11ChiMetadata10InitializeEPKjji+0x4e0>

<_ZN11ChiMetadata10InitializeEPKjji+0x540>

<_ZN11ChiMetadata6SetTagEjPKvjj+0x78>

<_ZN11ChiMetadata8Iterator3GetER16ChiMetadataEntry+0x60>

<_ZN18ChiMetadataManager21AndroidMetadataHolderD2Ev+0x158>

<_ZN18ChiMetadataManager20RegisterSharedClientEPjjj16ChiMetadataUsage+0xc58>

<_ZN18ChiMetadataManager20RegisterSharedClientEPjjj16ChiMetadataUsage+0xc68>

<_ZN18ChiMetadataManager20RegisterSharedClientEPjjj16ChiMetadataUsage+0x10c8>

<_ZN18ChiMetadataManager20RegisterSharedClientEPjjj16ChiMetadataUsage+0x10e8>

0x2c000 <_ZN7android8hardware11hidl_stringC1EPKc@plt+0x4>

0x2c000 <_ZN7android8hardware11hidl_stringC1ERKNSt3__112basic_stringIcNS2_11char_traitsIcEENS2_9allocatorIcEEEE@plt+0x4>

0x2c000 <_ZNSt3__112basic_stringIcNS_11char_traitsIcEENS_9allocatorIcEEEC1ERKS5_@plt+0x4>

0x2c000 <_ZN7android8hardware11hidl_stringD1Ev@plt+0x4>

0x2c000 <_ZN6ChiLog9LogSystemEPKcS1_S1_S1_iS1_z@plt+0x4>

0x2c000 <_ZN15ChiFeature2Base10InitializeEP26ChiFeature2CreateInputInfo@plt+0x4>

0x2c000 <_ZN18ChiFeature2GenericD2Ev@plt+0x4>

0x2c000 <_ZN15ChiFeature2Base18OnInitializeStreamEPK23ChiTargetPortDescriptorPK25ChiFeature2PortDescriptorPNS_20ChiFeatureStreamDataE@plt+0x4>

0x2c000 <_ZN25ChiFeature2DerivedOffline6CreateEP26ChiFeature2CreateInputInfo@plt+0x4>

0x2c000 <_ZNSt3__15mutex4lockEv@plt+0x4>

0x2c000 <_ZNSt3__118condition_variable10notify_allEv@plt+0x4>

0x2c000 <_ZNSt3__15mutex6unlockEv@plt+0x4>

0x2c000 <_ZNSt3__16chrono12steady_clock3nowEv@plt+0x4>

0x2c000 <_ZNSt3__16chrono12system_clock3nowEv@plt+0x4>

0x2c000 <_ZNSt3__118condition_variable15__do_timed_waitERNS_11unique_lockINS_5mutexEEENS_6chrono10time_pointINS5_12system_clockENS5_8durationIxNS_5ratioILl1ELl1000000000EEEEEEE@plt+0x4>

0x2c000 <_ZNSt3__118condition_variableD1Ev@plt+0x4>

0x2c000 <_ZNSt3__15mutexD1Ev@plt+0x4>

0x2c000 <_ZN15ExtensionModule11GetInstanceEv@plt+0x4>

0x2c000 <_ZN15ExtensionModule18GetBufferAllocatorEP9ChiStreamPPv@plt+0x4>

0x2c000 <_ZN15UsecaseSelector13IsVideoStreamEPK14camera3_stream@plt+0x4>

0x2c000 <_ZN15UsecaseSelector19IsYUVSnapshotStreamEPK14camera3_stream@plt+0x4>

0x2c000 <_ZN15UsecaseSelector20IsJPEGSnapshotStreamEPK14camera3_stream@plt+0x4>

0x2c000 <_ZN15UsecaseSelector20IsHeicSnapshotStreamEPK14camera3_stream@plt+0x4>

0x2c000 <_ZN15UsecaseSelector15IsPreviewStreamEPK14camera3_stream@plt+0x4>

0x2c000 <_ZN8ChxUtils15NativeFenceWaitEij@plt+0x4>

0x2c000 <_ZN8ChxUtils14GetUsecaseModeEP23camera3_capture_request@plt+0x4>

0x2c000 <_ZN8ChxUtils15AndroidMetadata15GetFeature1ModeEPvPj@plt+0x4>

0x2c000 <_ZN8ChxUtils17GetVendorTagValueEP11ChiMetadata9VendorTagPPv@plt+0x4>

0x2c000 <_ZN8ChxUtils15GetFeature1ModeEP11ChiMetadataPj@plt+0x4>

0x2c000 <_ZN8ChxUtils12GetSceneModeEP11ChiMetadataPj@plt+0x4>

0x2c000 <_ZN8ChxUtils13DebugDataSizeE13DebugDataType@plt+0x4>

0x2c000 <_ZN15UsecaseSelector20IsYUVOutResThresholdEP9ChiStream@plt+0x4>

0x2c000 <_ZN11ChiMetadata21InitializeMetadataOpsEP14ChiMetadataOps@plt+0x4>

0x2c000 <_ZN15ExtensionModule23GetAvailableRequestKeysEjPjjS0_@plt+0x4>

0x2c000 <_ZN11ChiMetadata10InitializeEPKjji@plt+0x4>

0x2c000 <_ZN15ExtensionModule14GetMetadataOpsEP14ChiMetadataOps@plt+0x4>

0x2c000 <_ZNKSt3__120__vector_base_commonILb1EE20__throw_length_errorEv@plt+0x4>

0x2c000 <_ZN11ChiMetadata16ReadDataFromFileEPKcRNSt3__16vectorIhNS2_9allocatorIhEEEE@plt+0x4>

0x2c000 <_ZN11ChiMetadata19ParseAndSetMetadataERNSt3__16vectorIhNS0_9allocatorIhEEEE@plt+0x4>

0x2c000 <_ZN11ChiMetadata15DestroyInternalEb@plt+0x4>

0x2c000 <_ZN18ChiMetadataManager10MetaClient14ReleaseBuffersEv@plt+0x4>

0x2c000 <_ZN11ChiMetadata6CreateEPKjjbP18ChiMetadataManagerj@plt+0x4>

0x2c000 <_ZN18ChiMetadataManagerC2Ejjj@plt+0x4>

0x2c000 <_ZN18ChiMetadataManager10InitializeEv@plt+0x4>

0x2c000 <_ZN18ChiMetadataManagerD2Ev@plt+0x4>

0x2c000 <_ZNSt3__112__next_primeEm@plt+0x4>

0x2c000 <_ZN18ChiMetadataManager21AndroidMetadataHolderD2Ev@plt+0x4>

0x2c000 <_ZN18ChiMetadataManager25AllocateFrameworkMetadataEjjbjj@plt+0x4>

0x2c000 <_ZdaPv@plt+0x4>

0x2c000 <_ZN18ChiMetadataManager10MetaClientD2Ev@plt+0x4>

0x2c000 <_ZN18ChiMetadataManager10MetaClient15AllocateBuffersEPjjjjj@plt+0x4>

0x2c000 <_ZN18ChiMetadataManager23RegisterExclusiveClientEPjjj16ChiMetadataUsage@plt+0x4>

0x2c000 <_ZN18ChiMetadataManager20RegisterSharedClientEPjjj16ChiMetadataUsage@plt+0x4>

0x2c000 <_ZN18ChiMetadataManager13GetFreeHolderEjjjRNSt3__16chrono10time_pointINS1_12steady_clockENS1_8durationIxNS0_5ratioILl1ELl1000000000EEEEEEE@plt+0x4>

0x2c000 <_ZN18ChiMetadataManager24RestoreNonstickyMetadataEPK15camera_metadataP11ChiMetadata@plt+0x4>

0x2c000 <_ZN18ChiMetadataManager10MetaClient12TrackBuffersERNSt3__16chrono10time_pointINS2_12steady_clockENS2_8durationIxNS1_5ratioILl1ELl1000000000EEEEEEEj@plt+0x4>

0x2c000 <_ZN18ChiMetadataManager13ReleaseHolderEjjP11ChiMetadata@plt+0x4>

0x2c000 <_ZN8ChxUtils15AndroidMetadata13ResetMetadataEP15camera_metadata@plt+0x4>

0x2c000 <_ZNSt3__112basic_stringIcNS_11char_traitsIcEENS_9allocatorIcEEE6__initEPKcm@plt+0x4>

0x2c000 <_ZNSt3__112basic_stringIcNS_11char_traitsIcEENS_9allocatorIcEEE6appendEPKcm@plt+0x4>

0x2c000 <_ZN18ChiMetadataManager15PrintAllBuffersEjj@plt+0x4>

