   10e64: 10 9b 12 9c  	ldr	q16, 0x361c4 <_ZN11ChiMetadata5CloneEv+0x54>
   10ef4: 10 9b 12 9c  	ldr	q16, 0x36254 <_ZN11ChiMetadata32TranslateToCameraPartialMetadataEP15camera_metadataPjj+0x2c>
   10f24: 10 9b 12 9c  	ldr	q16, 0x36284 <_ZN11ChiMetadata32TranslateToCameraPartialMetadataEP15camera_metadataPjj+0x5c>
   1100c: 10 9b 12 9c  	ldr	q16, 0x3636c <_ZN11ChiMetadata32TranslateToCameraPartialMetadataEP15camera_metadataPjj+0x144>
   1108c: 10 9b 12 9c  	ldr	q16, 0x363ec <_ZN11ChiMetadata32TranslateToCameraPartialMetadataEP15camera_metadataPjj+0x1c4>
   11174: 10 9b 12 9c  	ldr	q16, 0x364d4 <_ZN11ChiMetadata25TranslateToCameraMetadataEP15camera_metadatabbjPj+0x4>
   1121c: 10 9b 12 9c  	ldr	q16, 0x3657c <_ZN11ChiMetadata14ReferenceCountEv+0x44>
   1124c: 10 9b 12 9c  	ldr	q16, 0x365ac <_ZN11ChiMetadata12AddReferenceEPKc+0x14>
   113f4: 10 9b 12 9c  	ldr	q16, 0x36754 <_ZN11ChiMetadata12AddReferenceEPKc+0x1bc>
   11464: 10 9b 12 9c  	ldr	q16, 0x367c4 <_ZN11ChiMetadata12AddReferenceEPKc+0x22c>
   114e4: 10 9b 12 9c  	ldr	q16, 0x36844 <_ZN11ChiMetadata12AddReferenceEPKc+0x2ac>
   11774: 10 9b 12 9c  	ldr	q16, 0x36ad4 <_ZN11ChiMetadata16ReleaseReferenceEPKc+0x214>
   11f9c: 10 9b 12 9c  	ldr	q16, 0x372fc <_ZN18ChiMetadataManager10MetaClient12TrackBuffersERNSt3__16chrono10time_pointINS2_12steady_clockENS2_8durationIxNS1_5ratioILl1ELl1000000000EEEEEEEj+0xb4>
   1215c: 10 9b 12 9c  	ldr	q16, 0x374bc <_ZN18ChiMetadataManager10MetaClient12TrackBuffersERNSt3__16chrono10time_pointINS2_12steady_clockENS2_8durationIxNS1_5ratioILl1ELl1000000000EEEEEEEj+0x274>
   124a4: 10 9b 12 9c  	ldr	q16, 0x37804 <_ZN18ChiMetadataManager10MetaClient15AllocateBuffersEPjjjjj+0x304>
   12584: 10 9b 12 9c  	ldr	q16, 0x378e4 <_ZN18ChiMetadataManager10MetaClient15AllocateBuffersEPjjjjj+0x3e4>
   1265c: 10 9b 12 9c  	ldr	q16, 0x379bc <_ZN18ChiMetadataManager10MetaClient15AllocateBuffersEPjjjjj+0x4bc>
   12884: 10 9b 12 9c  	ldr	q16, 0x37be4 <_ZN18ChiMetadataManager21AndroidMetadataHolderD2Ev+0x24>
   12aac: 10 9b 12 9c  	ldr	q16, 0x37e0c <_ZN18ChiMetadataManager6CreateEjj+0xf4>
   12adc: 10 9b 12 9c  	ldr	q16, 0x37e3c <_ZN18ChiMetadataManager6CreateEjj+0x124>
   12b3c: 10 9b 12 9c  	ldr	q16, 0x37e9c <_ZN18ChiMetadataManager6CreateEjj+0x184>
   12bc4: 10 9b 12 9c  	ldr	q16, 0x37f24 <_ZN18ChiMetadataManager6CreateEjj+0x20c>
   12bf4: 10 9b 12 9c  	ldr	q16, 0x37f54 <_ZN18ChiMetadataManager6CreateEjj+0x23c>
   12c44: 10 9b 12 9c  	ldr	q16, 0x37fa4 <_ZN18ChiMetadataManager6CreateEjj+0x28c>
   12c74: 10 9b 12 9c  	ldr	q16, 0x37fd4 <_ZN18ChiMetadataManager6CreateEjj+0x2bc>
   12ccc: 10 9b 12 9c  	ldr	q16, 0x3802c <_ZN18ChiMetadataManager6CreateEjj+0x314>
   12d24: 10 9b 12 9c  	ldr	q16, 0x38084 <_ZN18ChiMetadataManager6CreateEjj+0x36c>
   12d54: 10 9b 12 9c  	ldr	q16, 0x380b4 <_ZN18ChiMetadataManager6CreateEjj+0x39c>
   12e5c: 10 9b 12 9c  	ldr	q16, 0x381bc <_ZN18ChiMetadataManager10InitializeEv+0x5c>
   12eb4: 10 9b 12 9c  	ldr	q16, 0x38214 <_ZN18ChiMetadataManager10InitializeEv+0xb4>
   12f34: 10 9b 12 9c  	ldr	q16, 0x38294 <_ZN18ChiMetadataManager10InitializeEv+0x134>
   12f64: 10 9b 12 9c  	ldr	q16, 0x382c4 <_ZN18ChiMetadataManager10InitializeEv+0x164>
   12fb4: 10 9b 12 9c  	ldr	q16, 0x38314 <_ZN18ChiMetadataManager10InitializeEv+0x1b4>
   13004: 10 9b 12 9c  	ldr	q16, 0x38364 <_ZN18ChiMetadataManager10InitializeEv+0x204>
   13034: 10 9b 12 9c  	ldr	q16, 0x38394 <_ZN18ChiMetadataManager10InitializeEv+0x234>
   1308c: 10 9b 12 9c  	ldr	q16, 0x383ec <_ZN18ChiMetadataManager10InitializeEv+0x28c>
   14018: 8e a9 00 14  	b	0x3e650 <_ZN7android8hardware11hidl_stringD1Ev@plt>
   14204: 23 a9 00 94  	bl	0x3e690 <_ZN6ChiLog9LogSystemEPKcS1_S1_S1_iS1_z@plt>
   14334: db a8 00 94  	bl	0x3e6a0 <_ZN15ExtensionModule11GetInstanceEv@plt>
   14340: d8 a8 00 94  	bl	0x3e6a0 <_ZN15ExtensionModule11GetInstanceEv@plt>
   1450c: 65 a8 00 94  	bl	0x3e6a0 <_ZN15ExtensionModule11GetInstanceEv@plt>
   14724: db a7 00 94  	bl	0x3e690 <_ZN6ChiLog9LogSystemEPKcS1_S1_S1_iS1_z@plt>
   14770: cc a7 00 94  	bl	0x3e6a0 <_ZN15ExtensionModule11GetInstanceEv@plt>
   14ae0: ec a6 00 94  	bl	0x3e690 <_ZN6ChiLog9LogSystemEPKcS1_S1_S1_iS1_z@plt>
   14dac: 39 a6 00 94  	bl	0x3e690 <_ZN6ChiLog9LogSystemEPKcS1_S1_S1_iS1_z@plt>
   14f6c: c9 a5 00 94  	bl	0x3e690 <_ZN6ChiLog9LogSystemEPKcS1_S1_S1_iS1_z@plt>
   14fd4: af a5 00 94  	bl	0x3e690 <_ZN6ChiLog9LogSystemEPKcS1_S1_S1_iS1_z@plt>
   1512c: 59 a5 00 94  	bl	0x3e690 <_ZN6ChiLog9LogSystemEPKcS1_S1_S1_iS1_z@plt>
   1528c: a7 72 00 94  	bl	0x31d28 <_ZN8ChxUtils11GetTotalRamEv+0x240>
   15298: a4 72 00 94  	bl	0x31d28 <_ZN8ChxUtils11GetTotalRamEv+0x240>
   1567c: 05 a4 00 94  	bl	0x3e690 <_ZN6ChiLog9LogSystemEPKcS1_S1_S1_iS1_z@plt>
   157b8: b6 a3 00 94  	bl	0x3e690 <_ZN6ChiLog9LogSystemEPKcS1_S1_S1_iS1_z@plt>
   159d8: 2e a3 00 94  	bl	0x3e690 <_ZN6ChiLog9LogSystemEPKcS1_S1_S1_iS1_z@plt>
   15cfc: 65 a2 00 94  	bl	0x3e690 <_ZN6ChiLog9LogSystemEPKcS1_S1_S1_iS1_z@plt>
   1605c: 8d a1 00 94  	bl	0x3e690 <_ZN6ChiLog9LogSystemEPKcS1_S1_S1_iS1_z@plt>
   163d4: af a0 00 94  	bl	0x3e690 <_ZN6ChiLog9LogSystemEPKcS1_S1_S1_iS1_z@plt>
   164d0: 70 a0 00 94  	bl	0x3e690 <_ZN6ChiLog9LogSystemEPKcS1_S1_S1_iS1_z@plt>
   16650: 10 a0 00 94  	bl	0x3e690 <_ZN6ChiLog9LogSystemEPKcS1_S1_S1_iS1_z@plt>
   16a8c: 01 9f 00 94  	bl	0x3e690 <_ZN6ChiLog9LogSystemEPKcS1_S1_S1_iS1_z@plt>
   16e00: 24 9e 00 94  	bl	0x3e690 <_ZN6ChiLog9LogSystemEPKcS1_S1_S1_iS1_z@plt>
   16fa0: bc 9d 00 94  	bl	0x3e690 <_ZN6ChiLog9LogSystemEPKcS1_S1_S1_iS1_z@plt>
   17070: 88 9d 00 94  	bl	0x3e690 <_ZN6ChiLog9LogSystemEPKcS1_S1_S1_iS1_z@plt>
   1723c: 15 9d 00 94  	bl	0x3e690 <_ZN6ChiLog9LogSystemEPKcS1_S1_S1_iS1_z@plt>
   175f8: 26 9c 00 94  	bl	0x3e690 <_ZN6ChiLog9LogSystemEPKcS1_S1_S1_iS1_z@plt>
   177cc: b1 9b 00 94  	bl	0x3e690 <_ZN6ChiLog9LogSystemEPKcS1_S1_S1_iS1_z@plt>
   178d8: 6e 9b 00 94  	bl	0x3e690 <_ZN6ChiLog9LogSystemEPKcS1_S1_S1_iS1_z@plt>
   179f8: 26 9b 00 94  	bl	0x3e690 <_ZN6ChiLog9LogSystemEPKcS1_S1_S1_iS1_z@plt>
   17c08: a2 9a 00 94  	bl	0x3e690 <_ZN6ChiLog9LogSystemEPKcS1_S1_S1_iS1_z@plt>
   17f40: d4 99 00 94  	bl	0x3e690 <_ZN6ChiLog9LogSystemEPKcS1_S1_S1_iS1_z@plt>
   18154: 4f 99 00 94  	bl	0x3e690 <_ZN6ChiLog9LogSystemEPKcS1_S1_S1_iS1_z@plt>
   18564: 4b 98 00 94  	bl	0x3e690 <_ZN6ChiLog9LogSystemEPKcS1_S1_S1_iS1_z@plt>
   1864c: 11 98 00 94  	bl	0x3e690 <_ZN6ChiLog9LogSystemEPKcS1_S1_S1_iS1_z@plt>
   18778: c6 97 00 94  	bl	0x3e690 <_ZN6ChiLog9LogSystemEPKcS1_S1_S1_iS1_z@plt>
   1890c: 61 97 00 94  	bl	0x3e690 <_ZN6ChiLog9LogSystemEPKcS1_S1_S1_iS1_z@plt>
   18b18: de 96 00 94  	bl	0x3e690 <_ZN6ChiLog9LogSystemEPKcS1_S1_S1_iS1_z@plt>
   18be0: ac 96 00 94  	bl	0x3e690 <_ZN6ChiLog9LogSystemEPKcS1_S1_S1_iS1_z@plt>
   18f78: c6 95 00 94  	bl	0x3e690 <_ZN6ChiLog9LogSystemEPKcS1_S1_S1_iS1_z@plt>
   19054: 93 95 00 94  	bl	0x3e6a0 <_ZN15ExtensionModule11GetInstanceEv@plt>
   1905c: b5 95 00 94  	bl	0x3e730 <_ZN15ExtensionModule15GetVendorTagOpsEP16ChiVendorTagsOps@plt>
   19140: 54 95 00 94  	bl	0x3e690 <_ZN6ChiLog9LogSystemEPKcS1_S1_S1_iS1_z@plt>
   192a4: fb 94 00 94  	bl	0x3e690 <_ZN6ChiLog9LogSystemEPKcS1_S1_S1_iS1_z@plt>
   19360: cc 94 00 94  	bl	0x3e690 <_ZN6ChiLog9LogSystemEPKcS1_S1_S1_iS1_z@plt>
   19600: 28 94 00 94  	bl	0x3e6a0 <_ZN15ExtensionModule11GetInstanceEv@plt>
   196d8: ee 93 00 94  	bl	0x3e690 <_ZN6ChiLog9LogSystemEPKcS1_S1_S1_iS1_z@plt>
   19800: a4 93 00 94  	bl	0x3e690 <_ZN6ChiLog9LogSystemEPKcS1_S1_S1_iS1_z@plt>
   19820: a0 93 00 94  	bl	0x3e6a0 <_ZN15ExtensionModule11GetInstanceEv@plt>
   198f0: 68 93 00 94  	bl	0x3e690 <_ZN6ChiLog9LogSystemEPKcS1_S1_S1_iS1_z@plt>
   198f4: 6b 93 00 94  	bl	0x3e6a0 <_ZN15ExtensionModule11GetInstanceEv@plt>
   199c8: 32 93 00 94  	bl	0x3e690 <_ZN6ChiLog9LogSystemEPKcS1_S1_S1_iS1_z@plt>
   19ad4: ef 92 00 94  	bl	0x3e690 <_ZN6ChiLog9LogSystemEPKcS1_S1_S1_iS1_z@plt>
   19f9c: bd 91 00 94  	bl	0x3e690 <_ZN6ChiLog9LogSystemEPKcS1_S1_S1_iS1_z@plt>
   1a21c: 1d 91 00 94  	bl	0x3e690 <_ZN6ChiLog9LogSystemEPKcS1_S1_S1_iS1_z@plt>
   1a220: 20 91 00 94  	bl	0x3e6a0 <_ZN15ExtensionModule11GetInstanceEv@plt>
   1a2f8: e6 90 00 94  	bl	0x3e690 <_ZN6ChiLog9LogSystemEPKcS1_S1_S1_iS1_z@plt>
   1a30c: e5 90 00 94  	bl	0x3e6a0 <_ZN15ExtensionModule11GetInstanceEv@plt>
   1a3dc: ad 90 00 94  	bl	0x3e690 <_ZN6ChiLog9LogSystemEPKcS1_S1_S1_iS1_z@plt>
   1a504: 63 90 00 94  	bl	0x3e690 <_ZN6ChiLog9LogSystemEPKcS1_S1_S1_iS1_z@plt>
   1a658: 0e 90 00 94  	bl	0x3e690 <_ZN6ChiLog9LogSystemEPKcS1_S1_S1_iS1_z@plt>
   1a7f4: a7 8f 00 94  	bl	0x3e690 <_ZN6ChiLog9LogSystemEPKcS1_S1_S1_iS1_z@plt>
   1ab14: 0f 8f 00 94  	bl	0x3e750 <_ZNSt3__15mutex4lockEv@plt>
   1ac28: 9a 8e 00 94  	bl	0x3e690 <_ZN6ChiLog9LogSystemEPKcS1_S1_S1_iS1_z@plt>
   1ace0: 6c 8e 00 94  	bl	0x3e690 <_ZN6ChiLog9LogSystemEPKcS1_S1_S1_iS1_z@plt>
   1ade4: 2b 8e 00 94  	bl	0x3e690 <_ZN6ChiLog9LogSystemEPKcS1_S1_S1_iS1_z@plt>
   1aefc: e5 8d 00 94  	bl	0x3e690 <_ZN6ChiLog9LogSystemEPKcS1_S1_S1_iS1_z@plt>
   1b09c: 7d 8d 00 94  	bl	0x3e690 <_ZN6ChiLog9LogSystemEPKcS1_S1_S1_iS1_z@plt>
   1b104: 97 8d 00 94  	bl	0x3e760 <_ZNSt3__15mutex6unlockEv@plt>
   1b2e0: ec 8c 00 94  	bl	0x3e690 <_ZN6ChiLog9LogSystemEPKcS1_S1_S1_iS1_z@plt>
   1b364: cf 8c 00 94  	bl	0x3e6a0 <_ZN15ExtensionModule11GetInstanceEv@plt>
   1b394: c3 8c 00 94  	bl	0x3e6a0 <_ZN15ExtensionModule11GetInstanceEv@plt>
   1b4d0: 70 8c 00 94  	bl	0x3e690 <_ZN6ChiLog9LogSystemEPKcS1_S1_S1_iS1_z@plt>
   1b4d4: 73 8c 00 94  	bl	0x3e6a0 <_ZN15ExtensionModule11GetInstanceEv@plt>
   1b5b4: 37 8c 00 94  	bl	0x3e690 <_ZN6ChiLog9LogSystemEPKcS1_S1_S1_iS1_z@plt>
   1b5b8: 3a 8c 00 94  	bl	0x3e6a0 <_ZN15ExtensionModule11GetInstanceEv@plt>
   1b6b0: f8 8b 00 94  	bl	0x3e690 <_ZN6ChiLog9LogSystemEPKcS1_S1_S1_iS1_z@plt>
   1b6cc: f5 8b 00 94  	bl	0x3e6a0 <_ZN15ExtensionModule11GetInstanceEv@plt>
   1b6e4: ef 8b 00 94  	bl	0x3e6a0 <_ZN15ExtensionModule11GetInstanceEv@plt>
   1b808: a2 8b 00 94  	bl	0x3e690 <_ZN6ChiLog9LogSystemEPKcS1_S1_S1_iS1_z@plt>
   1b908: 62 8b 00 94  	bl	0x3e690 <_ZN6ChiLog9LogSystemEPKcS1_S1_S1_iS1_z@plt>
   1ba04: 23 8b 00 94  	bl	0x3e690 <_ZN6ChiLog9LogSystemEPKcS1_S1_S1_iS1_z@plt>
   1bb34: d7 8a 00 94  	bl	0x3e690 <_ZN6ChiLog9LogSystemEPKcS1_S1_S1_iS1_z@plt>
   1bb7c: c9 8a 00 94  	bl	0x3e6a0 <_ZN15ExtensionModule11GetInstanceEv@plt>
   1bc6c: 89 8a 00 94  	bl	0x3e690 <_ZN6ChiLog9LogSystemEPKcS1_S1_S1_iS1_z@plt>
   1bdc8: 32 8a 00 94  	bl	0x3e690 <_ZN6ChiLog9LogSystemEPKcS1_S1_S1_iS1_z@plt>
   1bf60: cc 89 00 94  	bl	0x3e690 <_ZN6ChiLog9LogSystemEPKcS1_S1_S1_iS1_z@plt>
   1c12c: 59 89 00 94  	bl	0x3e690 <_ZN6ChiLog9LogSystemEPKcS1_S1_S1_iS1_z@plt>
   1c200: 24 89 00 94  	bl	0x3e690 <_ZN6ChiLog9LogSystemEPKcS1_S1_S1_iS1_z@plt>
   1c388: c2 88 00 94  	bl	0x3e690 <_ZN6ChiLog9LogSystemEPKcS1_S1_S1_iS1_z@plt>
   1c440: 98 88 00 94  	bl	0x3e6a0 <_ZN15ExtensionModule11GetInstanceEv@plt>
   1c448: ba 88 00 94  	bl	0x3e730 <_ZN15ExtensionModule15GetVendorTagOpsEP16ChiVendorTagsOps@plt>
   1c508: 62 88 00 94  	bl	0x3e690 <_ZN6ChiLog9LogSystemEPKcS1_S1_S1_iS1_z@plt>
   1c65c: 0d 88 00 94  	bl	0x3e690 <_ZN6ChiLog9LogSystemEPKcS1_S1_S1_iS1_z@plt>
   1c7c0: b4 87 00 94  	bl	0x3e690 <_ZN6ChiLog9LogSystemEPKcS1_S1_S1_iS1_z@plt>
   1cb30: d8 86 00 94  	bl	0x3e690 <_ZN6ChiLog9LogSystemEPKcS1_S1_S1_iS1_z@plt>
   1cc80: 84 86 00 94  	bl	0x3e690 <_ZN6ChiLog9LogSystemEPKcS1_S1_S1_iS1_z@plt>
   1ce70: 08 86 00 94  	bl	0x3e690 <_ZN6ChiLog9LogSystemEPKcS1_S1_S1_iS1_z@plt>
   1d168: 4a 85 00 94  	bl	0x3e690 <_ZN6ChiLog9LogSystemEPKcS1_S1_S1_iS1_z@plt>
   1d200: 54 85 00 94  	bl	0x3e750 <_ZNSt3__15mutex4lockEv@plt>
   1d2d4: ef 84 00 94  	bl	0x3e690 <_ZN6ChiLog9LogSystemEPKcS1_S1_S1_iS1_z@plt>
   1d3c0: b4 84 00 94  	bl	0x3e690 <_ZN6ChiLog9LogSystemEPKcS1_S1_S1_iS1_z@plt>
   1d6c0: f4 83 00 94  	bl	0x3e690 <_ZN6ChiLog9LogSystemEPKcS1_S1_S1_iS1_z@plt>
   1d8ec: 69 83 00 94  	bl	0x3e690 <_ZN6ChiLog9LogSystemEPKcS1_S1_S1_iS1_z@plt>
   1d9cc: 31 83 00 94  	bl	0x3e690 <_ZN6ChiLog9LogSystemEPKcS1_S1_S1_iS1_z@plt>
   1dafc: e5 82 00 94  	bl	0x3e690 <_ZN6ChiLog9LogSystemEPKcS1_S1_S1_iS1_z@plt>
   1dc54: 8f 82 00 94  	bl	0x3e690 <_ZN6ChiLog9LogSystemEPKcS1_S1_S1_iS1_z@plt>
   1dd20: 5c 82 00 94  	bl	0x3e690 <_ZN6ChiLog9LogSystemEPKcS1_S1_S1_iS1_z@plt>
   1de04: 23 82 00 94  	bl	0x3e690 <_ZN6ChiLog9LogSystemEPKcS1_S1_S1_iS1_z@plt>
   1e03c: 95 81 00 94  	bl	0x3e690 <_ZN6ChiLog9LogSystemEPKcS1_S1_S1_iS1_z@plt>
   1e174: 47 81 00 94  	bl	0x3e690 <_ZN6ChiLog9LogSystemEPKcS1_S1_S1_iS1_z@plt>
   1e2a0: fc 80 00 94  	bl	0x3e690 <_ZN6ChiLog9LogSystemEPKcS1_S1_S1_iS1_z@plt>
   1e444: 93 80 00 94  	bl	0x3e690 <_ZN6ChiLog9LogSystemEPKcS1_S1_S1_iS1_z@plt>
   1e4ac: ad 80 00 94  	bl	0x3e760 <_ZNSt3__15mutex6unlockEv@plt>
   1e7e4: ab 7f 00 94  	bl	0x3e690 <_ZN6ChiLog9LogSystemEPKcS1_S1_S1_iS1_z@plt>
   1e9b4: 37 7f 00 94  	bl	0x3e690 <_ZN6ChiLog9LogSystemEPKcS1_S1_S1_iS1_z@plt>
   1ecb0: c4 7e 00 94  	bl	0x3e7c0 <_ZNSt3__15mutexD1Ev@plt>
   1ecc0: c4 7e 00 14  	b	0x3e7d0 <_ZN18ChiMcxStaticPolicyD2Ev@plt>
   1ed08: ae 7e 00 94  	bl	0x3e7c0 <_ZNSt3__15mutexD1Ev@plt>
   1ed10: b0 7e 00 94  	bl	0x3e7d0 <_ZN18ChiMcxStaticPolicyD2Ev@plt>
   1ee2c: 19 7e 00 94  	bl	0x3e690 <_ZN6ChiLog9LogSystemEPKcS1_S1_S1_iS1_z@plt>
   1ef48: d2 7d 00 94  	bl	0x3e690 <_ZN6ChiLog9LogSystemEPKcS1_S1_S1_iS1_z@plt>
   1f734: 3b 7c 00 94  	bl	0x3e820 <_ZN7android8hardware11hidl_stringC1EPKc@plt>
   1f76c: 2d 7c 00 94  	bl	0x3e820 <_ZN7android8hardware11hidl_stringC1EPKc@plt>
   1f794: 23 7c 00 94  	bl	0x3e820 <_ZN7android8hardware11hidl_stringC1EPKc@plt>
   1f7bc: 19 7c 00 94  	bl	0x3e820 <_ZN7android8hardware11hidl_stringC1EPKc@plt>
   1f7e4: 0f 7c 00 94  	bl	0x3e820 <_ZN7android8hardware11hidl_stringC1EPKc@plt>
   1f80c: 05 7c 00 94  	bl	0x3e820 <_ZN7android8hardware11hidl_stringC1EPKc@plt>
   1f834: fb 7b 00 94  	bl	0x3e820 <_ZN7android8hardware11hidl_stringC1EPKc@plt>
   1f85c: f1 7b 00 94  	bl	0x3e820 <_ZN7android8hardware11hidl_stringC1EPKc@plt>
   1f884: e7 7b 00 94  	bl	0x3e820 <_ZN7android8hardware11hidl_stringC1EPKc@plt>
   1f8ac: dd 7b 00 94  	bl	0x3e820 <_ZN7android8hardware11hidl_stringC1EPKc@plt>
   1f8d4: d3 7b 00 94  	bl	0x3e820 <_ZN7android8hardware11hidl_stringC1EPKc@plt>
   1f8fc: c9 7b 00 94  	bl	0x3e820 <_ZN7android8hardware11hidl_stringC1EPKc@plt>
   1f924: bf 7b 00 94  	bl	0x3e820 <_ZN7android8hardware11hidl_stringC1EPKc@plt>
   1f94c: b5 7b 00 94  	bl	0x3e820 <_ZN7android8hardware11hidl_stringC1EPKc@plt>
   1f974: ab 7b 00 94  	bl	0x3e820 <_ZN7android8hardware11hidl_stringC1EPKc@plt>
   1f99c: a1 7b 00 94  	bl	0x3e820 <_ZN7android8hardware11hidl_stringC1EPKc@plt>
   1f9c4: 97 7b 00 94  	bl	0x3e820 <_ZN7android8hardware11hidl_stringC1EPKc@plt>
   1f9ec: 8d 7b 00 94  	bl	0x3e820 <_ZN7android8hardware11hidl_stringC1EPKc@plt>
   1fa14: 83 7b 00 94  	bl	0x3e820 <_ZN7android8hardware11hidl_stringC1EPKc@plt>
   1fa3c: 79 7b 00 94  	bl	0x3e820 <_ZN7android8hardware11hidl_stringC1EPKc@plt>
   1fa64: 6f 7b 00 94  	bl	0x3e820 <_ZN7android8hardware11hidl_stringC1EPKc@plt>
   1ffd8: 1a 7a 00 94  	bl	0x3e840 <_ZN7android8hardware11hidl_stringC1ERKNSt3__112basic_stringIcNS2_11char_traitsIcEENS2_9allocatorIcEEEE@plt>
   20000: 10 7a 00 94  	bl	0x3e840 <_ZN7android8hardware11hidl_stringC1ERKNSt3__112basic_stringIcNS2_11char_traitsIcEENS2_9allocatorIcEEEE@plt>
   20028: 06 7a 00 94  	bl	0x3e840 <_ZN7android8hardware11hidl_stringC1ERKNSt3__112basic_stringIcNS2_11char_traitsIcEENS2_9allocatorIcEEEE@plt>
   20050: fc 79 00 94  	bl	0x3e840 <_ZN7android8hardware11hidl_stringC1ERKNSt3__112basic_stringIcNS2_11char_traitsIcEENS2_9allocatorIcEEEE@plt>
   20078: f2 79 00 94  	bl	0x3e840 <_ZN7android8hardware11hidl_stringC1ERKNSt3__112basic_stringIcNS2_11char_traitsIcEENS2_9allocatorIcEEEE@plt>
   200a0: e8 79 00 94  	bl	0x3e840 <_ZN7android8hardware11hidl_stringC1ERKNSt3__112basic_stringIcNS2_11char_traitsIcEENS2_9allocatorIcEEEE@plt>
   200c8: de 79 00 94  	bl	0x3e840 <_ZN7android8hardware11hidl_stringC1ERKNSt3__112basic_stringIcNS2_11char_traitsIcEENS2_9allocatorIcEEEE@plt>
   200f0: d4 79 00 94  	bl	0x3e840 <_ZN7android8hardware11hidl_stringC1ERKNSt3__112basic_stringIcNS2_11char_traitsIcEENS2_9allocatorIcEEEE@plt>
   20118: ca 79 00 94  	bl	0x3e840 <_ZN7android8hardware11hidl_stringC1ERKNSt3__112basic_stringIcNS2_11char_traitsIcEENS2_9allocatorIcEEEE@plt>
   20140: c0 79 00 94  	bl	0x3e840 <_ZN7android8hardware11hidl_stringC1ERKNSt3__112basic_stringIcNS2_11char_traitsIcEENS2_9allocatorIcEEEE@plt>
   20168: b6 79 00 94  	bl	0x3e840 <_ZN7android8hardware11hidl_stringC1ERKNSt3__112basic_stringIcNS2_11char_traitsIcEENS2_9allocatorIcEEEE@plt>
   20190: ac 79 00 94  	bl	0x3e840 <_ZN7android8hardware11hidl_stringC1ERKNSt3__112basic_stringIcNS2_11char_traitsIcEENS2_9allocatorIcEEEE@plt>
   201b8: a2 79 00 94  	bl	0x3e840 <_ZN7android8hardware11hidl_stringC1ERKNSt3__112basic_stringIcNS2_11char_traitsIcEENS2_9allocatorIcEEEE@plt>
   201e0: 98 79 00 94  	bl	0x3e840 <_ZN7android8hardware11hidl_stringC1ERKNSt3__112basic_stringIcNS2_11char_traitsIcEENS2_9allocatorIcEEEE@plt>
   20208: 8e 79 00 94  	bl	0x3e840 <_ZN7android8hardware11hidl_stringC1ERKNSt3__112basic_stringIcNS2_11char_traitsIcEENS2_9allocatorIcEEEE@plt>
   20230: 84 79 00 94  	bl	0x3e840 <_ZN7android8hardware11hidl_stringC1ERKNSt3__112basic_stringIcNS2_11char_traitsIcEENS2_9allocatorIcEEEE@plt>
   20258: 7a 79 00 94  	bl	0x3e840 <_ZN7android8hardware11hidl_stringC1ERKNSt3__112basic_stringIcNS2_11char_traitsIcEENS2_9allocatorIcEEEE@plt>
   20280: 70 79 00 94  	bl	0x3e840 <_ZN7android8hardware11hidl_stringC1ERKNSt3__112basic_stringIcNS2_11char_traitsIcEENS2_9allocatorIcEEEE@plt>
   202a8: 66 79 00 94  	bl	0x3e840 <_ZN7android8hardware11hidl_stringC1ERKNSt3__112basic_stringIcNS2_11char_traitsIcEENS2_9allocatorIcEEEE@plt>
   202d0: 5c 79 00 94  	bl	0x3e840 <_ZN7android8hardware11hidl_stringC1ERKNSt3__112basic_stringIcNS2_11char_traitsIcEENS2_9allocatorIcEEEE@plt>
   202f8: 52 79 00 94  	bl	0x3e840 <_ZN7android8hardware11hidl_stringC1ERKNSt3__112basic_stringIcNS2_11char_traitsIcEENS2_9allocatorIcEEEE@plt>
   20320: 48 79 00 94  	bl	0x3e840 <_ZN7android8hardware11hidl_stringC1ERKNSt3__112basic_stringIcNS2_11char_traitsIcEENS2_9allocatorIcEEEE@plt>
   20348: 3e 79 00 94  	bl	0x3e840 <_ZN7android8hardware11hidl_stringC1ERKNSt3__112basic_stringIcNS2_11char_traitsIcEENS2_9allocatorIcEEEE@plt>
   20370: 34 79 00 94  	bl	0x3e840 <_ZN7android8hardware11hidl_stringC1ERKNSt3__112basic_stringIcNS2_11char_traitsIcEENS2_9allocatorIcEEEE@plt>
   20398: 2a 79 00 94  	bl	0x3e840 <_ZN7android8hardware11hidl_stringC1ERKNSt3__112basic_stringIcNS2_11char_traitsIcEENS2_9allocatorIcEEEE@plt>
   203c0: 20 79 00 94  	bl	0x3e840 <_ZN7android8hardware11hidl_stringC1ERKNSt3__112basic_stringIcNS2_11char_traitsIcEENS2_9allocatorIcEEEE@plt>
   203e4: 1b 79 00 94  	bl	0x3e850 <_ZNSt3__112basic_stringIcNS_11char_traitsIcEENS_9allocatorIcEEEC1ERKS5_@plt>
   2040c: 11 79 00 94  	bl	0x3e850 <_ZNSt3__112basic_stringIcNS_11char_traitsIcEENS_9allocatorIcEEEC1ERKS5_@plt>
   20434: 07 79 00 94  	bl	0x3e850 <_ZNSt3__112basic_stringIcNS_11char_traitsIcEENS_9allocatorIcEEEC1ERKS5_@plt>
   2045c: fd 78 00 94  	bl	0x3e850 <_ZNSt3__112basic_stringIcNS_11char_traitsIcEENS_9allocatorIcEEEC1ERKS5_@plt>
   204c4: 77 78 00 94  	bl	0x3e6a0 <_ZN15ExtensionModule11GetInstanceEv@plt>
   204e0: 70 78 00 94  	bl	0x3e6a0 <_ZN15ExtensionModule11GetInstanceEv@plt>
   20590: 44 78 00 94  	bl	0x3e6a0 <_ZN15ExtensionModule11GetInstanceEv@plt>
   205cc: 35 78 00 94  	bl	0x3e6a0 <_ZN15ExtensionModule11GetInstanceEv@plt>
   205f0: 2c 78 00 94  	bl	0x3e6a0 <_ZN15ExtensionModule11GetInstanceEv@plt>
   20718: de 77 00 94  	bl	0x3e690 <_ZN6ChiLog9LogSystemEPKcS1_S1_S1_iS1_z@plt>
   207c8: b6 77 00 94  	bl	0x3e6a0 <_ZN15ExtensionModule11GetInstanceEv@plt>
   207d8: b2 77 00 94  	bl	0x3e6a0 <_ZN15ExtensionModule11GetInstanceEv@plt>
   208f4: 67 77 00 94  	bl	0x3e690 <_ZN6ChiLog9LogSystemEPKcS1_S1_S1_iS1_z@plt>
   20958: 9e 77 00 14  	b	0x3e7d0 <_ZN18ChiMcxStaticPolicyD2Ev@plt>
   20998: 8e 77 00 94  	bl	0x3e7d0 <_ZN18ChiMcxStaticPolicyD2Ev@plt>
   209cc: 35 77 00 94  	bl	0x3e6a0 <_ZN15ExtensionModule11GetInstanceEv@plt>
   209d0: a4 77 00 94  	bl	0x3e860 <_ZNK15ExtensionModule26GetAvailableTransitionKeysEv@plt>
   209dc: 43 76 00 94  	bl	0x3e2e8 <_ZN18ChiMetadataManager15PrintAllBuffersEj+0x598>
   20afc: e5 76 00 94  	bl	0x3e690 <_ZN6ChiLog9LogSystemEPKcS1_S1_S1_iS1_z@plt>
   20b34: db 76 00 94  	bl	0x3e6a0 <_ZN15ExtensionModule11GetInstanceEv@plt>
   20b38: 4a 77 00 94  	bl	0x3e860 <_ZNK15ExtensionModule26GetAvailableTransitionKeysEv@plt>
   20b44: e9 75 00 94  	bl	0x3e2e8 <_ZN18ChiMetadataManager15PrintAllBuffersEj+0x598>
   20c64: 8b 76 00 94  	bl	0x3e690 <_ZN6ChiLog9LogSystemEPKcS1_S1_S1_iS1_z@plt>
   20cf8: 6a 76 00 94  	bl	0x3e6a0 <_ZN15ExtensionModule11GetInstanceEv@plt>
   20de0: a4 76 00 94  	bl	0x3e870 <_ZNSt3__112basic_stringIcNS_11char_traitsIcEENS_9allocatorIcEEE6appendEPKc@plt>
   20ed4: ef 75 00 94  	bl	0x3e690 <_ZN6ChiLog9LogSystemEPKcS1_S1_S1_iS1_z@plt>
   20fb4: 33 76 00 94  	bl	0x3e880 <_ZNSt3__19to_stringEj@plt>
   20fc8: 32 76 00 94  	bl	0x3e890 <_ZNSt3__112basic_stringIcNS_11char_traitsIcEENS_9allocatorIcEEE6insertEmPKc@plt>
   20ff0: 20 76 00 94  	bl	0x3e870 <_ZNSt3__112basic_stringIcNS_11char_traitsIcEENS_9allocatorIcEEE6appendEPKc@plt>
   21018: 22 76 00 94  	bl	0x3e8a0 <_ZNSt3__19to_stringEi@plt>
   21038: 1e 76 00 94  	bl	0x3e8b0 <_ZNSt3__112basic_stringIcNS_11char_traitsIcEENS_9allocatorIcEEE6appendEPKcm@plt>
   21060: 04 76 00 94  	bl	0x3e870 <_ZNSt3__112basic_stringIcNS_11char_traitsIcEENS_9allocatorIcEEE6appendEPKc@plt>
   21098: 06 76 00 94  	bl	0x3e8b0 <_ZNSt3__112basic_stringIcNS_11char_traitsIcEENS_9allocatorIcEEE6appendEPKcm@plt>
   21460: 1c 75 00 94  	bl	0x3e8d0 <_ZNKSt3__120__vector_base_commonILb1EE20__throw_length_errorEv@plt>
   21468: 1a 75 00 94  	bl	0x3e8d0 <_ZNKSt3__120__vector_base_commonILb1EE20__throw_length_errorEv@plt>
   21818: 1a 74 00 94  	bl	0x3e880 <_ZNSt3__19to_stringEj@plt>
   2182c: 19 74 00 94  	bl	0x3e890 <_ZNSt3__112basic_stringIcNS_11char_traitsIcEENS_9allocatorIcEEE6insertEmPKc@plt>
   21854: 07 74 00 94  	bl	0x3e870 <_ZNSt3__112basic_stringIcNS_11char_traitsIcEENS_9allocatorIcEEE6appendEPKc@plt>
   21878: 02 74 00 94  	bl	0x3e880 <_ZNSt3__19to_stringEj@plt>
   2189c: 05 74 00 94  	bl	0x3e8b0 <_ZNSt3__112basic_stringIcNS_11char_traitsIcEENS_9allocatorIcEEE6appendEPKcm@plt>
   218c4: eb 73 00 94  	bl	0x3e870 <_ZNSt3__112basic_stringIcNS_11char_traitsIcEENS_9allocatorIcEEE6appendEPKc@plt>
   218e8: e6 73 00 94  	bl	0x3e880 <_ZNSt3__19to_stringEj@plt>
   21908: ea 73 00 94  	bl	0x3e8b0 <_ZNSt3__112basic_stringIcNS_11char_traitsIcEENS_9allocatorIcEEE6appendEPKcm@plt>
   21930: d0 73 00 94  	bl	0x3e870 <_ZNSt3__112basic_stringIcNS_11char_traitsIcEENS_9allocatorIcEEE6appendEPKc@plt>
   2196c: d1 73 00 94  	bl	0x3e8b0 <_ZNSt3__112basic_stringIcNS_11char_traitsIcEENS_9allocatorIcEEE6appendEPKcm@plt>
   21bb0: b8 72 00 94  	bl	0x3e690 <_ZN6ChiLog9LogSystemEPKcS1_S1_S1_iS1_z@plt>
   21c6c: 89 72 00 94  	bl	0x3e690 <_ZN6ChiLog9LogSystemEPKcS1_S1_S1_iS1_z@plt>
   21ef0: e8 71 00 94  	bl	0x3e690 <_ZN6ChiLog9LogSystemEPKcS1_S1_S1_iS1_z@plt>
   21f14: 77 72 00 94  	bl	0x3e8f0 <_ZNK18ChiMcxStaticPolicy34GetPhysicalCameraMaskBasedOnCbModeERNS_11RequestInfoE12ChiMcxCbModeS2_jjRj@plt>
   221e8: 2a 71 00 94  	bl	0x3e690 <_ZN6ChiLog9LogSystemEPKcS1_S1_S1_iS1_z@plt>
   228a8: 7a 6f 00 94  	bl	0x3e690 <_ZN6ChiLog9LogSystemEPKcS1_S1_S1_iS1_z@plt>
   2297c: 45 6f 00 94  	bl	0x3e690 <_ZN6ChiLog9LogSystemEPKcS1_S1_S1_iS1_z@plt>
   22aa4: fb 6e 00 94  	bl	0x3e690 <_ZN6ChiLog9LogSystemEPKcS1_S1_S1_iS1_z@plt>
   22c84: 83 6e 00 94  	bl	0x3e690 <_ZN6ChiLog9LogSystemEPKcS1_S1_S1_iS1_z@plt>
   22d5c: 4d 6e 00 94  	bl	0x3e690 <_ZN6ChiLog9LogSystemEPKcS1_S1_S1_iS1_z@plt>
   23104: 63 6d 00 94  	bl	0x3e690 <_ZN6ChiLog9LogSystemEPKcS1_S1_S1_iS1_z@plt>
   232f0: e8 6c 00 94  	bl	0x3e690 <_ZN6ChiLog9LogSystemEPKcS1_S1_S1_iS1_z@plt>
   234e8: 6a 6c 00 94  	bl	0x3e690 <_ZN6ChiLog9LogSystemEPKcS1_S1_S1_iS1_z@plt>
   238d0: 70 6b 00 94  	bl	0x3e690 <_ZN6ChiLog9LogSystemEPKcS1_S1_S1_iS1_z@plt>
   23c34: 97 6a 00 94  	bl	0x3e690 <_ZN6ChiLog9LogSystemEPKcS1_S1_S1_iS1_z@plt>
   23f30: d8 69 00 94  	bl	0x3e690 <_ZN6ChiLog9LogSystemEPKcS1_S1_S1_iS1_z@plt>
   240ac: 79 69 00 94  	bl	0x3e690 <_ZN6ChiLog9LogSystemEPKcS1_S1_S1_iS1_z@plt>
   24234: 17 69 00 94  	bl	0x3e690 <_ZN6ChiLog9LogSystemEPKcS1_S1_S1_iS1_z@plt>
   24648: 12 68 00 94  	bl	0x3e690 <_ZN6ChiLog9LogSystemEPKcS1_S1_S1_iS1_z@plt>
   24660: 10 68 00 94  	bl	0x3e6a0 <_ZN15ExtensionModule11GetInstanceEv@plt>
   24740: d4 67 00 94  	bl	0x3e690 <_ZN6ChiLog9LogSystemEPKcS1_S1_S1_iS1_z@plt>
   24b08: e2 66 00 94  	bl	0x3e690 <_ZN6ChiLog9LogSystemEPKcS1_S1_S1_iS1_z@plt>
   24b9c: 4d 67 00 94  	bl	0x3e8d0 <_ZNKSt3__120__vector_base_commonILb1EE20__throw_length_errorEv@plt>
   24ba8: 4a 67 00 94  	bl	0x3e8d0 <_ZNKSt3__120__vector_base_commonILb1EE20__throw_length_errorEv@plt>
   24bb0: 48 67 00 94  	bl	0x3e8d0 <_ZNKSt3__120__vector_base_commonILb1EE20__throw_length_errorEv@plt>
   24bb8: 46 67 00 94  	bl	0x3e8d0 <_ZNKSt3__120__vector_base_commonILb1EE20__throw_length_errorEv@plt>
   24bc0: 44 67 00 94  	bl	0x3e8d0 <_ZNKSt3__120__vector_base_commonILb1EE20__throw_length_errorEv@plt>
   24bc8: 42 67 00 94  	bl	0x3e8d0 <_ZNKSt3__120__vector_base_commonILb1EE20__throw_length_errorEv@plt>
   25090: 20 66 00 94  	bl	0x3e910 <_ZNK18ChiMcxStaticPolicy13UpdateStreamsERNS_11RequestInfoERNS_23L2PConvertedRequestInfoEi@plt>
   25188: e6 65 00 94  	bl	0x3e920 <_ZN18ChiMcxStaticPolicy23GetUsecaseConfigurationER26ChiMcxUsecaseConfiguration@plt>
   25240: 18 65 00 94  	bl	0x3e6a0 <_ZN15ExtensionModule11GetInstanceEv@plt>
   25250: 14 65 00 94  	bl	0x3e6a0 <_ZN15ExtensionModule11GetInstanceEv@plt>
   25260: 10 65 00 94  	bl	0x3e6a0 <_ZN15ExtensionModule11GetInstanceEv@plt>
   25278: 0a 65 00 94  	bl	0x3e6a0 <_ZN15ExtensionModule11GetInstanceEv@plt>
   25288: 06 65 00 94  	bl	0x3e6a0 <_ZN15ExtensionModule11GetInstanceEv@plt>
   25318: e2 64 00 94  	bl	0x3e6a0 <_ZN15ExtensionModule11GetInstanceEv@plt>
   25328: de 64 00 94  	bl	0x3e6a0 <_ZN15ExtensionModule11GetInstanceEv@plt>
   25338: da 64 00 94  	bl	0x3e6a0 <_ZN15ExtensionModule11GetInstanceEv@plt>
   25350: d4 64 00 94  	bl	0x3e6a0 <_ZN15ExtensionModule11GetInstanceEv@plt>
   25360: d0 64 00 94  	bl	0x3e6a0 <_ZN15ExtensionModule11GetInstanceEv@plt>
   253c4: b3 64 00 94  	bl	0x3e690 <_ZN6ChiLog9LogSystemEPKcS1_S1_S1_iS1_z@plt>
   26260: bc 61 00 94  	bl	0x3e950 <_ZNSt3__14stoiERKNS_12basic_stringIcNS_11char_traitsIcEENS_9allocatorIcEEEEPmi@plt>
   262ac: ad 61 00 94  	bl	0x3e960 <_ZNKSt3__121__basic_string_commonILb1EE20__throw_length_errorEv@plt>
   2738c: c1 5c 00 94  	bl	0x3e690 <_ZN6ChiLog9LogSystemEPKcS1_S1_S1_iS1_z@plt>
   274f4: 67 5c 00 94  	bl	0x3e690 <_ZN6ChiLog9LogSystemEPKcS1_S1_S1_iS1_z@plt>
   27784: 53 5c 00 94  	bl	0x3e8d0 <_ZNKSt3__120__vector_base_commonILb1EE20__throw_length_errorEv@plt>
   27aa8: 8a 5b 00 94  	bl	0x3e8d0 <_ZNKSt3__120__vector_base_commonILb1EE20__throw_length_errorEv@plt>
   27ab0: 88 5b 00 94  	bl	0x3e8d0 <_ZNKSt3__120__vector_base_commonILb1EE20__throw_length_errorEv@plt>
   27ab8: 86 5b 00 94  	bl	0x3e8d0 <_ZNKSt3__120__vector_base_commonILb1EE20__throw_length_errorEv@plt>
   27ac0: 84 5b 00 94  	bl	0x3e8d0 <_ZNKSt3__120__vector_base_commonILb1EE20__throw_length_errorEv@plt>
   27c50: 4c 5b 00 94  	bl	0x3e980 <_ZNSt3__112__next_primeEm@plt>
   27d24: 17 5b 00 94  	bl	0x3e980 <_ZNSt3__112__next_primeEm@plt>
   280b8: da 59 00 94  	bl	0x3e820 <_ZN7android8hardware11hidl_stringC1EPKc@plt>
   280f0: cc 59 00 94  	bl	0x3e820 <_ZN7android8hardware11hidl_stringC1EPKc@plt>
   28118: c2 59 00 94  	bl	0x3e820 <_ZN7android8hardware11hidl_stringC1EPKc@plt>
   28140: b8 59 00 94  	bl	0x3e820 <_ZN7android8hardware11hidl_stringC1EPKc@plt>
   28168: ae 59 00 94  	bl	0x3e820 <_ZN7android8hardware11hidl_stringC1EPKc@plt>
   28190: a4 59 00 94  	bl	0x3e820 <_ZN7android8hardware11hidl_stringC1EPKc@plt>
   281b8: 9a 59 00 94  	bl	0x3e820 <_ZN7android8hardware11hidl_stringC1EPKc@plt>
   281e0: 90 59 00 94  	bl	0x3e820 <_ZN7android8hardware11hidl_stringC1EPKc@plt>
   28208: 86 59 00 94  	bl	0x3e820 <_ZN7android8hardware11hidl_stringC1EPKc@plt>
   28230: 7c 59 00 94  	bl	0x3e820 <_ZN7android8hardware11hidl_stringC1EPKc@plt>
   28258: 72 59 00 94  	bl	0x3e820 <_ZN7android8hardware11hidl_stringC1EPKc@plt>
   28280: 68 59 00 94  	bl	0x3e820 <_ZN7android8hardware11hidl_stringC1EPKc@plt>
   282a8: 5e 59 00 94  	bl	0x3e820 <_ZN7android8hardware11hidl_stringC1EPKc@plt>
   282d0: 54 59 00 94  	bl	0x3e820 <_ZN7android8hardware11hidl_stringC1EPKc@plt>
   282f8: 4a 59 00 94  	bl	0x3e820 <_ZN7android8hardware11hidl_stringC1EPKc@plt>
   28320: 40 59 00 94  	bl	0x3e820 <_ZN7android8hardware11hidl_stringC1EPKc@plt>
   28348: 36 59 00 94  	bl	0x3e820 <_ZN7android8hardware11hidl_stringC1EPKc@plt>
   28370: 2c 59 00 94  	bl	0x3e820 <_ZN7android8hardware11hidl_stringC1EPKc@plt>
   28398: 22 59 00 94  	bl	0x3e820 <_ZN7android8hardware11hidl_stringC1EPKc@plt>
   283c0: 18 59 00 94  	bl	0x3e820 <_ZN7android8hardware11hidl_stringC1EPKc@plt>
   283e8: 0e 59 00 94  	bl	0x3e820 <_ZN7android8hardware11hidl_stringC1EPKc@plt>
   28958: ba 57 00 94  	bl	0x3e840 <_ZN7android8hardware11hidl_stringC1ERKNSt3__112basic_stringIcNS2_11char_traitsIcEENS2_9allocatorIcEEEE@plt>
   28980: b0 57 00 94  	bl	0x3e840 <_ZN7android8hardware11hidl_stringC1ERKNSt3__112basic_stringIcNS2_11char_traitsIcEENS2_9allocatorIcEEEE@plt>
   289a8: a6 57 00 94  	bl	0x3e840 <_ZN7android8hardware11hidl_stringC1ERKNSt3__112basic_stringIcNS2_11char_traitsIcEENS2_9allocatorIcEEEE@plt>
   289d0: 9c 57 00 94  	bl	0x3e840 <_ZN7android8hardware11hidl_stringC1ERKNSt3__112basic_stringIcNS2_11char_traitsIcEENS2_9allocatorIcEEEE@plt>
   289f8: 92 57 00 94  	bl	0x3e840 <_ZN7android8hardware11hidl_stringC1ERKNSt3__112basic_stringIcNS2_11char_traitsIcEENS2_9allocatorIcEEEE@plt>
   28a20: 88 57 00 94  	bl	0x3e840 <_ZN7android8hardware11hidl_stringC1ERKNSt3__112basic_stringIcNS2_11char_traitsIcEENS2_9allocatorIcEEEE@plt>
   28a48: 7e 57 00 94  	bl	0x3e840 <_ZN7android8hardware11hidl_stringC1ERKNSt3__112basic_stringIcNS2_11char_traitsIcEENS2_9allocatorIcEEEE@plt>
   28a70: 74 57 00 94  	bl	0x3e840 <_ZN7android8hardware11hidl_stringC1ERKNSt3__112basic_stringIcNS2_11char_traitsIcEENS2_9allocatorIcEEEE@plt>
   28a98: 6a 57 00 94  	bl	0x3e840 <_ZN7android8hardware11hidl_stringC1ERKNSt3__112basic_stringIcNS2_11char_traitsIcEENS2_9allocatorIcEEEE@plt>
   28ac0: 60 57 00 94  	bl	0x3e840 <_ZN7android8hardware11hidl_stringC1ERKNSt3__112basic_stringIcNS2_11char_traitsIcEENS2_9allocatorIcEEEE@plt>
   28ae8: 56 57 00 94  	bl	0x3e840 <_ZN7android8hardware11hidl_stringC1ERKNSt3__112basic_stringIcNS2_11char_traitsIcEENS2_9allocatorIcEEEE@plt>
   28b10: 4c 57 00 94  	bl	0x3e840 <_ZN7android8hardware11hidl_stringC1ERKNSt3__112basic_stringIcNS2_11char_traitsIcEENS2_9allocatorIcEEEE@plt>
   28b38: 42 57 00 94  	bl	0x3e840 <_ZN7android8hardware11hidl_stringC1ERKNSt3__112basic_stringIcNS2_11char_traitsIcEENS2_9allocatorIcEEEE@plt>
   28b60: 38 57 00 94  	bl	0x3e840 <_ZN7android8hardware11hidl_stringC1ERKNSt3__112basic_stringIcNS2_11char_traitsIcEENS2_9allocatorIcEEEE@plt>
   28b88: 2e 57 00 94  	bl	0x3e840 <_ZN7android8hardware11hidl_stringC1ERKNSt3__112basic_stringIcNS2_11char_traitsIcEENS2_9allocatorIcEEEE@plt>
   28bb0: 24 57 00 94  	bl	0x3e840 <_ZN7android8hardware11hidl_stringC1ERKNSt3__112basic_stringIcNS2_11char_traitsIcEENS2_9allocatorIcEEEE@plt>
   28bd8: 1a 57 00 94  	bl	0x3e840 <_ZN7android8hardware11hidl_stringC1ERKNSt3__112basic_stringIcNS2_11char_traitsIcEENS2_9allocatorIcEEEE@plt>
   28c00: 10 57 00 94  	bl	0x3e840 <_ZN7android8hardware11hidl_stringC1ERKNSt3__112basic_stringIcNS2_11char_traitsIcEENS2_9allocatorIcEEEE@plt>
   28c28: 06 57 00 94  	bl	0x3e840 <_ZN7android8hardware11hidl_stringC1ERKNSt3__112basic_stringIcNS2_11char_traitsIcEENS2_9allocatorIcEEEE@plt>
   28c50: fc 56 00 94  	bl	0x3e840 <_ZN7android8hardware11hidl_stringC1ERKNSt3__112basic_stringIcNS2_11char_traitsIcEENS2_9allocatorIcEEEE@plt>
   28c78: f2 56 00 94  	bl	0x3e840 <_ZN7android8hardware11hidl_stringC1ERKNSt3__112basic_stringIcNS2_11char_traitsIcEENS2_9allocatorIcEEEE@plt>
   28ca0: e8 56 00 94  	bl	0x3e840 <_ZN7android8hardware11hidl_stringC1ERKNSt3__112basic_stringIcNS2_11char_traitsIcEENS2_9allocatorIcEEEE@plt>
   28cc8: de 56 00 94  	bl	0x3e840 <_ZN7android8hardware11hidl_stringC1ERKNSt3__112basic_stringIcNS2_11char_traitsIcEENS2_9allocatorIcEEEE@plt>
   28cf0: d4 56 00 94  	bl	0x3e840 <_ZN7android8hardware11hidl_stringC1ERKNSt3__112basic_stringIcNS2_11char_traitsIcEENS2_9allocatorIcEEEE@plt>
   28d18: ca 56 00 94  	bl	0x3e840 <_ZN7android8hardware11hidl_stringC1ERKNSt3__112basic_stringIcNS2_11char_traitsIcEENS2_9allocatorIcEEEE@plt>
   28d40: c0 56 00 94  	bl	0x3e840 <_ZN7android8hardware11hidl_stringC1ERKNSt3__112basic_stringIcNS2_11char_traitsIcEENS2_9allocatorIcEEEE@plt>
   28d64: bb 56 00 94  	bl	0x3e850 <_ZNSt3__112basic_stringIcNS_11char_traitsIcEENS_9allocatorIcEEEC1ERKS5_@plt>
   28d8c: b1 56 00 94  	bl	0x3e850 <_ZNSt3__112basic_stringIcNS_11char_traitsIcEENS_9allocatorIcEEEC1ERKS5_@plt>
   28db4: a7 56 00 94  	bl	0x3e850 <_ZNSt3__112basic_stringIcNS_11char_traitsIcEENS_9allocatorIcEEEC1ERKS5_@plt>
   28ddc: 9d 56 00 94  	bl	0x3e850 <_ZNSt3__112basic_stringIcNS_11char_traitsIcEENS_9allocatorIcEEEC1ERKS5_@plt>
   28e1c: b5 23 00 14  	b	0x31cf0 <_ZN8ChxUtils11GetTotalRamEv+0x208>
0000000000028e20 <_Znwm>:
0000000000028e30 <_ZdlPv>:
0000000000028e38 <_ZN5Mutex6CreateEv>:
   28e70: 40 02 00 b4  	cbz	x0, 0x28eb8 <_ZN5Mutex6CreateEv+0x80>
   28e80: 60 01 00 35  	cbnz	w0, 0x28eac <_ZN5Mutex6CreateEv+0x74>
   28e90: a0 00 00 35  	cbnz	w0, 0x28ea4 <_ZN5Mutex6CreateEv+0x6c>
   28ea0: e0 01 00 34  	cbz	w0, 0x28edc <_ZN5Mutex6CreateEv+0xa4>
   28ec4: c1 01 00 54  	b.ne	0x28efc <_ZN5Mutex6CreateEv+0xc4>
   28ef8: 80 fe ff 54  	b.eq	0x28ec8 <_ZN5Mutex6CreateEv+0x90>
0000000000028f00 <_ZN5Mutex10InitializeEv>:
   28f30: 80 01 00 34  	cbz	w0, 0x28f60 <_ZN5Mutex10InitializeEv+0x60>
   28f44: 21 03 00 54  	b.ne	0x28fa8 <_ZN5Mutex10InitializeEv+0xa8>
   28f70: 00 01 00 35  	cbnz	w0, 0x28f90 <_ZN5Mutex10InitializeEv+0x90>
   28f84: 60 00 00 35  	cbnz	w0, 0x28f90 <_ZN5Mutex10InitializeEv+0x90>
   28fa4: 20 fd ff 54  	b.eq	0x28f48 <_ZN5Mutex10InitializeEv+0x48>
0000000000028fb0 <_ZN5Mutex7DestroyEv>:
   28fc8: 61 00 00 54  	b.ne	0x28fd4 <_ZN5Mutex7DestroyEv+0x24>
0000000000028fe8 <_ZN5Mutex4LockEv>:
0000000000028ff0 <_ZN5Mutex7TryLockEv>:
0000000000029018 <_ZN5Mutex6UnlockEv>:
0000000000029020 <_ZN5Mutex15GetNativeHandleEv>:
0000000000029030 <_ZN9Condition6CreateEv>:
   2905c: 00 01 00 b4  	cbz	x0, 0x2907c <_ZN9Condition6CreateEv+0x4c>
   2906c: 00 01 00 34  	cbz	w0, 0x2908c <_ZN9Condition6CreateEv+0x5c>
00000000000290a8 <_ZN9Condition10InitializeEv>:
   290c8: 88 00 00 34  	cbz	w8, 0x290d8 <_ZN9Condition10InitializeEv+0x30>
00000000000290f0 <_ZN9Condition7DestroyEv>:
   29108: 61 00 00 54  	b.ne	0x29114 <_ZN9Condition7DestroyEv+0x24>
0000000000029128 <_ZN9Condition4WaitEP15pthread_mutex_t>:
0000000000029148 <_ZN9Condition9TimedWaitEP15pthread_mutex_tj>:
   2920c: e1 00 00 54  	b.ne	0x29228 <_ZN9Condition9TimedWaitEP15pthread_mutex_tj+0xe0>
0000000000029230 <_ZN9Condition6SignalEv>:
0000000000029238 <_ZN9Condition9BroadcastEv>:
0000000000029240 <_ZN9Semaphore6CreateEi>:
   2926c: 40 00 00 b4  	cbz	x0, 0x29274 <_ZN9Semaphore6CreateEi+0x34>
0000000000029280 <_ZN9Semaphore10InitializeEi>:
0000000000029290 <_ZN9Semaphore16NotifyAllThreadsEv>:
   292a0: 2c 55 00 94  	bl	0x3e750 <_ZNSt3__15mutex4lockEv@plt>
   292b4: 69 05 00 54  	b.ls	0x29360 <_ZN9Semaphore16NotifyAllThreadsEv+0xd0>
   292b8: a8 00 00 d0  	adrp	x8, 0x3f000 <_ZN9Semaphore16NotifyAllThreadsEv+0x80>
   292c4: e8 04 08 36  	tbz	w8, #1, 0x29360 <_ZN9Semaphore16NotifyAllThreadsEv+0xd0>
   292c8: a9 00 00 d0  	adrp	x9, 0x3f000 <_ZN9Semaphore16NotifyAllThreadsEv+0x90>
   292cc: 34 ff ff 90  	adrp	x20, 0xd000 <_ZN9Semaphore6CreateEi+0x1c>
   292e0: 01 02 00 54  	b.ne	0x29320 <_ZN9Semaphore16NotifyAllThreadsEv+0x90>
   292f8: 21 ff ff d0  	adrp	x1, 0xf000 <_ZN9Semaphore16NotifyAllThreadsEv>
   292fc: 02 ff ff f0  	adrp	x2, 0xc000 <_ZN9Semaphore10InitializeEi+0x8>
   29300: e5 fe ff d0  	adrp	x5, 0x7000 <_ZN9Semaphore6CreateEi+0x38>
   29334: 01 ff ff 90  	adrp	x1, 0x9000 <_ZN9Semaphore16NotifyAllThreadsEv+0x24>
   2933c: 20 ff ff 90  	adrp	x0, 0xd000 <_ZN9Semaphore16NotifyAllThreadsEv+0x3c>
   29340: e3 fe ff d0  	adrp	x3, 0x7000 <_ZN9Semaphore16NotifyAllThreadsEv+0x28>
   29344: e5 fe ff f0  	adrp	x5, 0x8000 <_ZN9Semaphore16NotifyAllThreadsEv+0x30>
   2935c: cd 54 00 94  	bl	0x3e690 <_ZN6ChiLog9LogSystemEPKcS1_S1_S1_iS1_z@plt>
   29364: c3 55 00 94  	bl	0x3ea70 <_ZNSt3__118condition_variable10notify_allEv@plt>
   29374: fb 54 00 14  	b	0x3e760 <_ZNSt3__15mutex6unlockEv@plt>
0000000000029378 <_ZN9Semaphore5ResetEv>:
   29388: f2 54 00 94  	bl	0x3e750 <_ZNSt3__15mutex4lockEv@plt>
   2938c: a8 00 00 d0  	adrp	x8, 0x3f000 <_ZN9Semaphore5ResetEv+0x6c>
   293a0: e8 04 18 36  	tbz	w8, #3, 0x2943c <_ZN9Semaphore5ResetEv+0xc4>
   293a4: a9 00 00 d0  	adrp	x9, 0x3f000 <_ZN9Semaphore5ResetEv+0x84>
   293a8: 34 ff ff 90  	adrp	x20, 0xd000 <_ZN9Semaphore16NotifyAllThreadsEv+0xa8>
   293bc: 01 02 00 54  	b.ne	0x293fc <_ZN9Semaphore5ResetEv+0x84>
   293d4: 21 ff ff d0  	adrp	x1, 0xf000 <_ZN9Semaphore16NotifyAllThreadsEv+0xdc>
   293d8: 02 ff ff b0  	adrp	x2, 0xa000 <_ZN9Semaphore16NotifyAllThreadsEv+0xcc>
   293dc: 25 ff ff b0  	adrp	x5, 0xe000 <_ZN9Semaphore16NotifyAllThreadsEv+0xe0>
   29410: 01 ff ff f0  	adrp	x1, 0xc000 <_ZN9Semaphore5ResetEv+0x24>
   29418: 20 ff ff d0  	adrp	x0, 0xf000 <_ZN9Semaphore5ResetEv+0x38>
   2941c: 23 ff ff b0  	adrp	x3, 0xe000 <_ZN9Semaphore5ResetEv+0x38>
   29420: 05 ff ff 90  	adrp	x5, 0x9000 <_ZN9Semaphore5ResetEv+0x28>
   29438: 96 54 00 94  	bl	0x3e690 <_ZN6ChiLog9LogSystemEPKcS1_S1_S1_iS1_z@plt>
   29440: 8c 55 00 94  	bl	0x3ea70 <_ZNSt3__118condition_variable10notify_allEv@plt>
   29450: c4 54 00 14  	b	0x3e760 <_ZNSt3__15mutex6unlockEv@plt>
0000000000029458 <_ZN9Semaphore16WaitForSemaphoreEv>:
   29494: af 54 00 94  	bl	0x3e750 <_ZNSt3__15mutex4lockEv@plt>
   2949c: 88 00 00 34  	cbz	w8, 0x294ac <_ZN9Semaphore16WaitForSemaphoreEv+0x54>
   294a8: 79 00 00 14  	b	0x2968c <_ZN9Semaphore16WaitForSemaphoreEv+0x234>
   294ac: e8 fe ff d0  	adrp	x8, 0x7000 <_ZN9Semaphore5ResetEv+0xac>
   294b0: e9 fe ff d0  	adrp	x9, 0x7000 <_ZN9Semaphore5ResetEv+0xb0>
   294b4: b6 00 00 d0  	adrp	x22, 0x3f000 <_ZN9Semaphore16WaitForSemaphoreEv+0xb4>
   294c0: 37 ff ff 90  	adrp	x23, 0xd000 <_ZN9Semaphore5ResetEv+0xd8>
   294cc: 18 ff ff 90  	adrp	x24, 0x9000 <_ZN9Semaphore5ResetEv+0xd4>
   294f8: 12 00 00 14  	b	0x29540 <_ZN9Semaphore16WaitForSemaphoreEv+0xe8>
   29510: 01 ff ff f0  	adrp	x1, 0xc000 <_ZN9Semaphore16WaitForSemaphoreEv+0x44>
   29518: 20 ff ff d0  	adrp	x0, 0xf000 <_ZN9Semaphore16WaitForSemaphoreEv+0x58>
   2951c: 05 ff ff d0  	adrp	x5, 0xb000 <_ZN9Semaphore16WaitForSemaphoreEv+0x4c>
   29534: 57 54 00 94  	bl	0x3e690 <_ZN6ChiLog9LogSystemEPKcS1_S1_S1_iS1_z@plt>
   2953c: c9 09 00 35  	cbnz	w9, 0x29674 <_ZN9Semaphore16WaitForSemaphoreEv+0x21c>
   29540: 50 55 00 94  	bl	0x3ea80 <_ZNSt3__16chrono12steady_clock3nowEv@plt>
   29548: 52 55 00 94  	bl	0x3ea90 <_ZNSt3__16chrono12system_clock3nowEv@plt>
   2957c: 55 55 00 94  	bl	0x3ead0 <_ZNSt3__118condition_variable15__do_timed_waitERNS_11unique_lockINS_5mutexEEENS_6chrono10time_pointINS5_12system_clockENS5_8durationIxNS_5ratioILl1ELl1000000000EEEEEEE@plt>
   29580: 40 55 00 94  	bl	0x3ea80 <_ZNSt3__16chrono12steady_clock3nowEv@plt>
   29590: ca 02 00 54  	b.ge	0x295e8 <_ZN9Semaphore16WaitForSemaphoreEv+0x190>
   29594: 28 fd 1f 36  	tbz	w8, #3, 0x29538 <_ZN9Semaphore16WaitForSemaphoreEv+0xe0>
   29598: aa 00 00 d0  	adrp	x10, 0x3f000 <_ZN9Semaphore16WaitForSemaphoreEv+0x198>
   295a8: a1 fa ff 54  	b.ne	0x294fc <_ZN9Semaphore16WaitForSemaphoreEv+0xa4>
   295c0: 21 ff ff d0  	adrp	x1, 0xf000 <_ZN9Semaphore16WaitForSemaphoreEv+0x100>
   295c4: 22 ff ff 90  	adrp	x2, 0xd000 <_ZN9Semaphore16WaitForSemaphoreEv+0xfc>
   295e4: c6 ff ff 17  	b	0x294fc <_ZN9Semaphore16WaitForSemaphoreEv+0xa4>
   295e8: 88 fa 07 36  	tbz	w8, #0, 0x29538 <_ZN9Semaphore16WaitForSemaphoreEv+0xe0>
   295ec: ab 00 00 d0  	adrp	x11, 0x3f000 <_ZN9Semaphore16WaitForSemaphoreEv+0x1ec>
   295fc: e1 01 00 54  	b.ne	0x29638 <_ZN9Semaphore16WaitForSemaphoreEv+0x1e0>
   29614: 21 ff ff d0  	adrp	x1, 0xf000 <_ZN9Semaphore16WaitForSemaphoreEv+0x154>
   29618: 22 ff ff b0  	adrp	x2, 0xe000 <_ZN9Semaphore16WaitForSemaphoreEv+0x154>
   2964c: 21 ff ff b0  	adrp	x1, 0xe000 <_ZN9Semaphore16WaitForSemaphoreEv+0x188>
   29654: e0 fe ff f0  	adrp	x0, 0x8000 <_ZN9Semaphore16WaitForSemaphoreEv+0x178>
   29658: 25 ff ff b0  	adrp	x5, 0xe000 <_ZN9Semaphore16WaitForSemaphoreEv+0x194>
   29670: b1 ff ff 17  	b	0x29534 <_ZN9Semaphore16WaitForSemaphoreEv+0xdc>
   29684: 8a 00 00 34  	cbz	w10, 0x29694 <_ZN9Semaphore16WaitForSemaphoreEv+0x23c>
   29690: 34 54 00 94  	bl	0x3e760 <_ZNSt3__15mutex6unlockEv@plt>
   296a0: 21 01 00 54  	b.ne	0x296c4 <_ZN9Semaphore16WaitForSemaphoreEv+0x26c>
00000000000296c8 <_ZN9Semaphore7DestroyEv>:
   296c8: a0 01 00 b4  	cbz	x0, 0x296fc <_ZN9Semaphore7DestroyEv+0x34>
   296e0: 00 55 00 94  	bl	0x3eae0 <_ZNSt3__118condition_variableD1Ev@plt>
   296e8: 36 54 00 94  	bl	0x3e7c0 <_ZNSt3__15mutexD1Ev@plt>
0000000000029700 <_ZN8ChxUtils14AlignGeneric32Ejj>:
0000000000029720 <_ZN8ChxUtils17EvenCeilingUINT32Ej>:
0000000000029738 <_ZN8ChxUtils9DownscaleEjj>:
   2973c: 80 01 00 54  	b.eq	0x2976c <_ZN8ChxUtils9DownscaleEjj+0x34>
0000000000029770 <_ZN8ChxUtils9DownscaleE12ChiDimensionj>:
   29778: e0 02 00 54  	b.eq	0x297d4 <_ZN8ChxUtils9DownscaleE12ChiDimensionj+0x64>
00000000000297e0 <_ZN8ChxUtils15EvenFloorUINT32Ej>:
00000000000297e8 <_ZN8ChxUtils12FEqualCoarseEff>:
   297ec: e8 fe ff d0  	adrp	x8, 0x7000 <_ZN8ChxUtils9DownscaleEjj+0x2c>
0000000000029808 <_ZN8ChxUtils8IsBitSetEjj>:
0000000000029818 <_ZN8ChxUtils8BitResetEjj>:
0000000000029828 <_ZN8ChxUtils6BitSetEjj>:
0000000000029838 <_ZN8ChxUtils7DPrintFEiPKcz>:
   298c0: a1 00 00 54  	b.ne	0x298d4 <_ZN8ChxUtils7DPrintFEiPKcz+0x9c>
00000000000298d8 <_ZN8ChxUtils11GetFileNameEPKc>:
0000000000029908 <_ZN8ChxUtils6MemMapEimm>:
0000000000029938 <_ZN8ChxUtils8MemUnmapEPvm>:
0000000000029940 <_ZN8ChxUtils6MemcpyEPvPKvm>:
   29954: b3 00 00 b4  	cbz	x19, 0x29968 <_ZN8ChxUtils6MemcpyEPvPKvm+0x28>
   29958: 81 00 00 b4  	cbz	x1, 0x29968 <_ZN8ChxUtils6MemcpyEPvPKvm+0x28>
0000000000029978 <_ZN8ChxUtils6MemsetEPvim>:
00000000000299a0 <_ZN8ChxUtils6CallocEm>:
   299b8: a0 00 00 b4  	cbz	x0, 0x299cc <_ZN8ChxUtils6CallocEm+0x2c>
00000000000299e0 <_ZN8ChxUtils4FreeEPv>:
00000000000299e8 <_ZN8ChxUtils12ThreadCreateEPFPvS0_ES0_Pl>:
   29a44: c0 02 00 54  	b.eq	0x29a9c <_ZN8ChxUtils12ThreadCreateEPFPvS0_ES0_Pl+0xb4>
   29a4c: b7 20 00 94  	bl	0x31d28 <_ZN8ChxUtils11GetTotalRamEv+0x240>
   29a50: 60 02 00 34  	cbz	w0, 0x29a9c <_ZN8ChxUtils12ThreadCreateEPFPvS0_ES0_Pl+0xb4>
   29a58: b4 20 00 94  	bl	0x31d28 <_ZN8ChxUtils11GetTotalRamEv+0x240>
   29a5c: 00 02 00 34  	cbz	w0, 0x29a9c <_ZN8ChxUtils12ThreadCreateEPFPvS0_ES0_Pl+0xb4>
   29ac4: c1 00 00 54  	b.ne	0x29adc <_ZN8ChxUtils12ThreadCreateEPFPvS0_ES0_Pl+0xf4>
0000000000029ae0 <_ZN8ChxUtils13ThreadSetNameElPKc>:
0000000000029b00 <_ZN8ChxUtils15ThreadTerminateEl>:
0000000000029b08 <_ZN8ChxUtils13AtomicStore64EPVll>:
0000000000029b10 <_ZN8ChxUtils14AtomicStoreU64EPVmm>:
0000000000029b18 <_ZN8ChxUtils13AtomicLoadU64EPVm>:
   29b24: c9 ff ff 35  	cbnz	w9, 0x29b1c <_ZN8ChxUtils13AtomicLoadU64EPVm+0x4>
0000000000029b30 <_ZN8ChxUtils14AtomicStoreU32EPVjj>:
0000000000029b38 <_ZN8ChxUtils13AtomicLoadU32EPVj>:
   29b44: c9 ff ff 35  	cbnz	w9, 0x29b3c <_ZN8ChxUtils13AtomicLoadU32EPVj+0x4>
0000000000029b50 <_ZN8ChxUtils12AtomicIncU32EPVj>:
   29b5c: a9 ff ff 35  	cbnz	w9, 0x29b50 <_ZN8ChxUtils12AtomicIncU32EPVj>
0000000000029b68 <_ZN8ChxUtils12AtomicDecU32EPVj>:
   29b74: aa ff ff 35  	cbnz	w10, 0x29b68 <_ZN8ChxUtils12AtomicDecU32EPVj>
0000000000029b80 <_ZN8ChxUtils17SleepMicrosecondsEj>:
   29b8c: a8 00 00 d0  	adrp	x8, 0x3f000 <_ZN8ChxUtils17SleepMicrosecondsEj+0x64>
   29b9c: 28 05 30 36  	tbz	w8, #6, 0x29c40 <_ZN8ChxUtils17SleepMicrosecondsEj+0xc0>
   29ba0: a9 00 00 d0  	adrp	x9, 0x3f000 <_ZN8ChxUtils17SleepMicrosecondsEj+0x78>
   29ba4: 34 ff ff 90  	adrp	x20, 0xd000 <_ZN8ChxUtils14AtomicStoreU32EPVjj+0x4>
   29bb8: 21 02 00 54  	b.ne	0x29bfc <_ZN8ChxUtils17SleepMicrosecondsEj+0x7c>
   29bd0: 21 ff ff d0  	adrp	x1, 0xf000 <_ZN8ChxUtils12AtomicDecU32EPVj>
   29bd4: 22 ff ff 90  	adrp	x2, 0xd000 <_ZN8ChxUtils12AtomicIncU32EPVj+0x14>
   29bd8: e5 fe ff f0  	adrp	x5, 0x8000 <_ZN8ChxUtils12AtomicIncU32EPVj+0x4>
   29c10: e1 fe ff f0  	adrp	x1, 0x8000 <_ZN8ChxUtils17SleepMicrosecondsEj+0xc>
   29c18: 20 ff ff 90  	adrp	x0, 0xd000 <_ZN8ChxUtils17SleepMicrosecondsEj+0x28>
   29c1c: e3 fe ff f0  	adrp	x3, 0x8000 <_ZN8ChxUtils17SleepMicrosecondsEj+0x18>
   29c20: 05 ff ff b0  	adrp	x5, 0xa000 <_ZN8ChxUtils17SleepMicrosecondsEj+0x24>
   29c3c: 95 52 00 94  	bl	0x3e690 <_ZN6ChiLog9LogSystemEPKcS1_S1_S1_iS1_z@plt>
0000000000029c50 <_ZN8ChxUtils10LibGetAddrEPvPKc>:
   29c50: 40 00 00 b4  	cbz	x0, 0x29c58 <_ZN8ChxUtils10LibGetAddrEPvPKc+0x8>
0000000000029c60 <_ZN8ChxUtils6LibMapEPKc>:
   29c80: 60 06 00 b5  	cbnz	x0, 0x29d4c <_ZN8ChxUtils6LibMapEPKc+0xec>
   29c84: a8 00 00 d0  	adrp	x8, 0x3f000 <_ZN8ChxUtils6LibMapEPKc+0x7c>
   29c90: e8 05 08 36  	tbz	w8, #1, 0x29d4c <_ZN8ChxUtils6LibMapEPKc+0xec>
   29c94: a9 00 00 d0  	adrp	x9, 0x3f000 <_ZN8ChxUtils6LibMapEPKc+0x8c>
   29c98: 35 ff ff 90  	adrp	x21, 0xd000 <_ZN8ChxUtils17SleepMicrosecondsEj+0xa8>
   29cac: 81 02 00 54  	b.ne	0x29cfc <_ZN8ChxUtils6LibMapEPKc+0x9c>
   29ccc: 21 ff ff d0  	adrp	x1, 0xf000 <_ZN8ChxUtils6LibMapEPKc+0x4>
   29cd0: 02 ff ff f0  	adrp	x2, 0xc000 <_ZN8ChxUtils10LibGetAddrEPvPKc+0xc>
   29cd4: 05 ff ff f0  	adrp	x5, 0xc000 <_ZN8ChxUtils6LibMapEPKc>
   29d1c: 20 ff ff 90  	adrp	x0, 0xd000 <_ZN8ChxUtils6LibMapEPKc+0x4c>
   29d20: 01 ff ff 90  	adrp	x1, 0x9000 <_ZN8ChxUtils6LibMapEPKc+0x40>
   29d24: 03 ff ff f0  	adrp	x3, 0xc000 <_ZN8ChxUtils6LibMapEPKc+0x50>
   29d28: 25 ff ff 90  	adrp	x5, 0xd000 <_ZN8ChxUtils6LibMapEPKc+0x58>
   29d48: 52 52 00 94  	bl	0x3e690 <_ZN6ChiLog9LogSystemEPKcS1_S1_S1_iS1_z@plt>
0000000000029d60 <_ZN8ChxUtils15AndroidMetadata18IsVendorTagPresentEPKv9VendorTag>:
   29d90: 44 52 00 94  	bl	0x3e6a0 <_ZN15ExtensionModule11GetInstanceEv@plt>
   29dc0: c1 00 00 54  	b.ne	0x29dd8 <_ZN8ChxUtils15AndroidMetadata18IsVendorTagPresentEPKv9VendorTag+0x78>
0000000000029de0 <_ZN8ChxUtils15AndroidMetadata21IsLongExposureCaptureEPKv>:
   29e14: a0 06 00 35  	cbnz	w0, 0x29ee8 <_ZN8ChxUtils15AndroidMetadata21IsLongExposureCaptureEPKv+0x108>
   29e2c: e3 05 00 54  	b.lo	0x29ee8 <_ZN8ChxUtils15AndroidMetadata21IsLongExposureCaptureEPKv+0x108>
   29e30: a9 00 00 d0  	adrp	x9, 0x3f000 <_ZN8ChxUtils15AndroidMetadata21IsLongExposureCaptureEPKv+0xa8>
   29e3c: 28 05 30 36  	tbz	w8, #6, 0x29ee0 <_ZN8ChxUtils15AndroidMetadata21IsLongExposureCaptureEPKv+0x100>
   29e40: aa 00 00 d0  	adrp	x10, 0x3f000 <_ZN8ChxUtils15AndroidMetadata21IsLongExposureCaptureEPKv+0xb8>
   29e44: 34 ff ff 90  	adrp	x20, 0xd000 <_ZN8ChxUtils15AndroidMetadata18IsVendorTagPresentEPKv9VendorTag+0x74>
   29e58: 21 02 00 54  	b.ne	0x29e9c <_ZN8ChxUtils15AndroidMetadata21IsLongExposureCaptureEPKv+0xbc>
   29e70: 21 ff ff d0  	adrp	x1, 0xf000 <_ZN8ChxUtils15AndroidMetadata21IsLongExposureCaptureEPKv+0x28>
   29e74: 22 ff ff b0  	adrp	x2, 0xe000 <_ZN8ChxUtils15AndroidMetadata21IsLongExposureCaptureEPKv+0x28>
   29e78: 25 ff ff b0  	adrp	x5, 0xe000 <_ZN8ChxUtils15AndroidMetadata21IsLongExposureCaptureEPKv+0x2c>
   29eb0: e1 fe ff f0  	adrp	x1, 0x8000 <_ZN8ChxUtils15AndroidMetadata21IsLongExposureCaptureEPKv+0x4c>
   29eb8: 20 ff ff 90  	adrp	x0, 0xd000 <_ZN8ChxUtils15AndroidMetadata21IsLongExposureCaptureEPKv+0x68>
   29ebc: 23 ff ff b0  	adrp	x3, 0xe000 <_ZN8ChxUtils15AndroidMetadata21IsLongExposureCaptureEPKv+0x70>
   29ec0: 25 ff ff b0  	adrp	x5, 0xe000 <_ZN8ChxUtils15AndroidMetadata21IsLongExposureCaptureEPKv+0x74>
   29edc: ed 51 00 94  	bl	0x3e690 <_ZN6ChiLog9LogSystemEPKcS1_S1_S1_iS1_z@plt>
   29ee4: 02 00 00 14  	b	0x29eec <_ZN8ChxUtils15AndroidMetadata21IsLongExposureCaptureEPKv+0x10c>
   29ef8: c1 00 00 54  	b.ne	0x29f10 <_ZN8ChxUtils15AndroidMetadata21IsLongExposureCaptureEPKv+0x130>
0000000000029f18 <_ZN8ChxUtils15AndroidMetadata17GetVendorTagValueEPKv9VendorTagPPv>:
   29f50: d4 51 00 94  	bl	0x3e6a0 <_ZN15ExtensionModule11GetInstanceEv@plt>
   29f6c: 60 00 00 35  	cbnz	w0, 0x29f78 <_ZN8ChxUtils15AndroidMetadata17GetVendorTagValueEPKv9VendorTagPPv+0x60>
   29f84: c1 00 00 54  	b.ne	0x29f9c <_ZN8ChxUtils15AndroidMetadata17GetVendorTagValueEPKv9VendorTagPPv+0x84>
0000000000029fa0 <_ZN8ChxUtils15AndroidMetadata17SetVendorTagValueEPv9VendorTagjS1_>:
   29fdc: b1 51 00 94  	bl	0x3e6a0 <_ZN15ExtensionModule11GetInstanceEv@plt>
   29ffc: 00 02 00 34  	cbz	w0, 0x2a03c <_ZN8ChxUtils15AndroidMetadata17SetVendorTagValueEPv9VendorTagjS1_+0x9c>
   2a020: 61 02 00 54  	b.ne	0x2a06c <_ZN8ChxUtils15AndroidMetadata17SetVendorTagValueEPv9VendorTagjS1_+0xcc>
   2a068: e0 fd ff 54  	b.eq	0x2a024 <_ZN8ChxUtils15AndroidMetadata17SetVendorTagValueEPv9VendorTagjS1_+0x84>
000000000002a070 <_ZN8ChxUtils15AndroidMetadata13MergeMetadataEPvS1_>:
   2a0a4: 14 08 00 b4  	cbz	x20, 0x2a1a4 <_ZN8ChxUtils15AndroidMetadata13MergeMetadataEPvS1_+0x134>
   2a0ac: c1 07 00 b4  	cbz	x1, 0x2a1a4 <_ZN8ChxUtils15AndroidMetadata13MergeMetadataEPvS1_+0x134>
   2a0b8: 60 07 00 b4  	cbz	x0, 0x2a1a4 <_ZN8ChxUtils15AndroidMetadata13MergeMetadataEPvS1_+0x134>
   2a0bc: b9 00 00 b0  	adrp	x25, 0x3f000 <_ZN8ChxUtils15AndroidMetadata13MergeMetadataEPvS1_+0xa0>
   2a0fc: 60 01 00 34  	cbz	w0, 0x2a128 <_ZN8ChxUtils15AndroidMetadata13MergeMetadataEPvS1_+0xb8>
   2a110: a0 04 00 35  	cbnz	w0, 0x2a1a4 <_ZN8ChxUtils15AndroidMetadata13MergeMetadataEPvS1_+0x134>
   2a120: 88 fd ff 54  	b.hi	0x2a0d0 <_ZN8ChxUtils15AndroidMetadata13MergeMetadataEPvS1_+0x60>
   2a124: 1f 00 00 14  	b	0x2a1a0 <_ZN8ChxUtils15AndroidMetadata13MergeMetadataEPvS1_+0x130>
   2a12c: 36 02 00 b4  	cbz	x22, 0x2a170 <_ZN8ChxUtils15AndroidMetadata13MergeMetadataEPvS1_+0x100>
   2a14c: c0 01 00 35  	cbnz	w0, 0x2a184 <_ZN8ChxUtils15AndroidMetadata13MergeMetadataEPvS1_+0x114>
   2a158: 61 01 00 54  	b.ne	0x2a184 <_ZN8ChxUtils15AndroidMetadata13MergeMetadataEPvS1_+0x114>
   2a164: 01 01 00 54  	b.ne	0x2a184 <_ZN8ChxUtils15AndroidMetadata13MergeMetadataEPvS1_+0x114>
   2a16c: e9 ff ff 17  	b	0x2a110 <_ZN8ChxUtils15AndroidMetadata13MergeMetadataEPvS1_+0xa0>
   2a17c: a0 fc ff 35  	cbnz	w0, 0x2a110 <_ZN8ChxUtils15AndroidMetadata13MergeMetadataEPvS1_+0xa0>
   2a180: e0 ff ff 17  	b	0x2a100 <_ZN8ChxUtils15AndroidMetadata13MergeMetadataEPvS1_+0x90>
   2a19c: dd ff ff 17  	b	0x2a110 <_ZN8ChxUtils15AndroidMetadata13MergeMetadataEPvS1_+0xa0>
   2a1b0: 21 01 00 54  	b.ne	0x2a1d4 <_ZN8ChxUtils15AndroidMetadata13MergeMetadataEPvS1_+0x164>
000000000002a1d8 <_ZN8ChxUtils15AndroidMetadata12FreeMetaDataEPv>:
   2a1d8: 40 00 00 b4  	cbz	x0, 0x2a1e0 <_ZN8ChxUtils15AndroidMetadata12FreeMetaDataEPv+0x8>
000000000002a1e8 <_ZN8ChxUtils15AndroidMetadata13ResetMetadataEP15camera_metadata>:
   2a230: a8 00 00 b0  	adrp	x8, 0x3f000 <_ZN8ChxUtils15AndroidMetadata13ResetMetadataEP15camera_metadata+0x9c>
   2a240: a8 05 30 36  	tbz	w8, #6, 0x2a2f4 <_ZN8ChxUtils15AndroidMetadata13ResetMetadataEP15camera_metadata+0x10c>
   2a244: a9 00 00 b0  	adrp	x9, 0x3f000 <_ZN8ChxUtils15AndroidMetadata13ResetMetadataEP15camera_metadata+0xb0>
   2a248: 19 ff ff f0  	adrp	x25, 0xd000 <_ZN8ChxUtils15AndroidMetadata13MergeMetadataEPvS1_+0x164>
   2a25c: 61 02 00 54  	b.ne	0x2a2a8 <_ZN8ChxUtils15AndroidMetadata13ResetMetadataEP15camera_metadata+0xc0>
   2a274: 21 ff ff b0  	adrp	x1, 0xf000 <_ZN8ChxUtils15AndroidMetadata13ResetMetadataEP15camera_metadata+0x20>
   2a278: 02 ff ff f0  	adrp	x2, 0xd000 <_ZN8ChxUtils15AndroidMetadata13ResetMetadataEP15camera_metadata+0x1c>
   2a27c: e5 fe ff f0  	adrp	x5, 0x9000 <_ZN8ChxUtils15AndroidMetadata13ResetMetadataEP15camera_metadata+0x10>
   2a2bc: e1 fe ff d0  	adrp	x1, 0x8000 <_ZN8ChxUtils15AndroidMetadata13ResetMetadataEP15camera_metadata+0x4c>
   2a2c4: 00 ff ff f0  	adrp	x0, 0xd000 <_ZN8ChxUtils15AndroidMetadata13ResetMetadataEP15camera_metadata+0x68>
   2a2c8: e3 fe ff f0  	adrp	x3, 0x9000 <_ZN8ChxUtils15AndroidMetadata13ResetMetadataEP15camera_metadata+0x5c>
   2a2cc: 05 ff ff f0  	adrp	x5, 0xd000 <_ZN8ChxUtils15AndroidMetadata13ResetMetadataEP15camera_metadata+0x70>
   2a2f0: e8 50 00 94  	bl	0x3e690 <_ZN6ChiLog9LogSystemEPKcS1_S1_S1_iS1_z@plt>
000000000002a320 <_ZN8ChxUtils15AndroidMetadata16AllocateMetaDataEjj>:
000000000002a330 <_ZN8ChxUtils15AndroidMetadata22AllocateAppendMetaDataEPKvjj>:
   2a340: 00 03 00 b4  	cbz	x0, 0x2a3a0 <_ZN8ChxUtils15AndroidMetadata22AllocateAppendMetaDataEPKvjj+0x70>
   2a370: 00 01 00 b4  	cbz	x0, 0x2a390 <_ZN8ChxUtils15AndroidMetadata22AllocateAppendMetaDataEPKvjj+0x60>
   2a380: 80 00 00 34  	cbz	w0, 0x2a390 <_ZN8ChxUtils15AndroidMetadata22AllocateAppendMetaDataEPKvjj+0x60>
   2a39c: 02 00 00 14  	b	0x2a3a4 <_ZN8ChxUtils15AndroidMetadata22AllocateAppendMetaDataEPKvjj+0x74>
000000000002a3b8 <_ZN8ChxUtils15AndroidMetadata20AllocateCopyMetaDataEPKv>:
000000000002a3e0 <_ZN8ChxUtils15AndroidMetadata15GetFeature1ModeEPvPj>:
   2a410: a4 50 00 94  	bl	0x3e6a0 <_ZN15ExtensionModule11GetInstanceEv@plt>
   2a424: e0 00 00 34  	cbz	w0, 0x2a440 <_ZN8ChxUtils15AndroidMetadata15GetFeature1ModeEPvPj+0x60>
   2a42c: a9 00 00 b0  	adrp	x9, 0x3f000 <_ZN8ChxUtils15AndroidMetadata15GetFeature1ModeEPvPj+0xa0>
   2a438: 28 01 30 37  	tbnz	w8, #6, 0x2a45c <_ZN8ChxUtils15AndroidMetadata15GetFeature1ModeEPvPj+0x7c>
   2a43c: 30 00 00 14  	b	0x2a4fc <_ZN8ChxUtils15AndroidMetadata15GetFeature1ModeEPvPj+0x11c>
   2a44c: a9 00 00 b0  	adrp	x9, 0x3f000 <_ZN8ChxUtils15AndroidMetadata15GetFeature1ModeEPvPj+0xc0>
   2a458: 28 05 30 36  	tbz	w8, #6, 0x2a4fc <_ZN8ChxUtils15AndroidMetadata15GetFeature1ModeEPvPj+0x11c>
   2a45c: aa 00 00 b0  	adrp	x10, 0x3f000 <_ZN8ChxUtils15AndroidMetadata15GetFeature1ModeEPvPj+0xd0>
   2a460: 14 ff ff f0  	adrp	x20, 0xd000 <_ZN8ChxUtils15AndroidMetadata15GetFeature1ModeEPvPj+0xc>
   2a474: 21 02 00 54  	b.ne	0x2a4b8 <_ZN8ChxUtils15AndroidMetadata15GetFeature1ModeEPvPj+0xd8>
   2a48c: 21 ff ff b0  	adrp	x1, 0xf000 <_ZN8ChxUtils15AndroidMetadata15GetFeature1ModeEPvPj+0x40>
   2a490: 22 ff ff b0  	adrp	x2, 0xf000 <_ZN8ChxUtils15AndroidMetadata15GetFeature1ModeEPvPj+0x44>
   2a494: 05 ff ff b0  	adrp	x5, 0xb000 <_ZN8ChxUtils15AndroidMetadata15GetFeature1ModeEPvPj+0x38>
   2a4cc: e1 fe ff d0  	adrp	x1, 0x8000 <_ZN8ChxUtils15AndroidMetadata15GetFeature1ModeEPvPj+0x64>
   2a4d4: 00 ff ff f0  	adrp	x0, 0xd000 <_ZN8ChxUtils15AndroidMetadata15GetFeature1ModeEPvPj+0x80>
   2a4d8: 03 ff ff b0  	adrp	x3, 0xb000 <_ZN8ChxUtils15AndroidMetadata15GetFeature1ModeEPvPj+0x7c>
   2a4dc: e5 fe ff f0  	adrp	x5, 0x9000 <_ZN8ChxUtils15AndroidMetadata15GetFeature1ModeEPvPj+0x78>
   2a4f8: 66 50 00 94  	bl	0x3e690 <_ZN6ChiLog9LogSystemEPKcS1_S1_S1_iS1_z@plt>
   2a508: e1 00 00 54  	b.ne	0x2a524 <_ZN8ChxUtils15AndroidMetadata15GetFeature1ModeEPvPj+0x144>
000000000002a528 <_ZN8ChxUtils15AndroidMetadata24GetMetadataOwnerCameraIdEPv>:
   2a550: 54 50 00 94  	bl	0x3e6a0 <_ZN15ExtensionModule11GetInstanceEv@plt>
   2a564: 40 01 00 34  	cbz	w0, 0x2a58c <_ZN8ChxUtils15AndroidMetadata24GetMetadataOwnerCameraIdEPv+0x64>
   2a578: 61 01 00 54  	b.ne	0x2a5a4 <_ZN8ChxUtils15AndroidMetadata24GetMetadataOwnerCameraIdEPv+0x7c>
   2a5a0: e0 fe ff 54  	b.eq	0x2a57c <_ZN8ChxUtils15AndroidMetadata24GetMetadataOwnerCameraIdEPv+0x54>
000000000002a5a8 <_ZN8ChxUtils15GetFeature2ModeEP11ChiMetadataPj>:
   2a5d0: 34 50 00 94  	bl	0x3e6a0 <_ZN15ExtensionModule11GetInstanceEv@plt>
   2a5f4: 08 01 00 b4  	cbz	x8, 0x2a614 <_ZN8ChxUtils15GetFeature2ModeEP11ChiMetadataPj+0x6c>
   2a600: a9 00 00 b0  	adrp	x9, 0x3f000 <_ZN8ChxUtils15GetFeature2ModeEP11ChiMetadataPj+0xac>
   2a60c: e8 00 30 37  	tbnz	w8, #6, 0x2a628 <_ZN8ChxUtils15GetFeature2ModeEP11ChiMetadataPj+0x80>
   2a610: 2e 00 00 14  	b	0x2a6c8 <_ZN8ChxUtils15GetFeature2ModeEP11ChiMetadataPj+0x120>
   2a618: a9 00 00 b0  	adrp	x9, 0x3f000 <_ZN8ChxUtils15GetFeature2ModeEP11ChiMetadataPj+0xc4>
   2a624: 28 05 30 36  	tbz	w8, #6, 0x2a6c8 <_ZN8ChxUtils15GetFeature2ModeEP11ChiMetadataPj+0x120>
   2a628: aa 00 00 b0  	adrp	x10, 0x3f000 <_ZN8ChxUtils15GetFeature2ModeEP11ChiMetadataPj+0xd4>
   2a62c: 14 ff ff f0  	adrp	x20, 0xd000 <_ZN8ChxUtils15GetFeature2ModeEP11ChiMetadataPj+0x10>
   2a640: 21 02 00 54  	b.ne	0x2a684 <_ZN8ChxUtils15GetFeature2ModeEP11ChiMetadataPj+0xdc>
   2a658: 21 ff ff b0  	adrp	x1, 0xf000 <_ZN8ChxUtils15GetFeature2ModeEP11ChiMetadataPj+0x44>
   2a65c: e2 fe ff f0  	adrp	x2, 0x9000 <_ZN8ChxUtils15GetFeature2ModeEP11ChiMetadataPj+0x30>
   2a660: 05 ff ff d0  	adrp	x5, 0xc000 <_ZN8ChxUtils15GetFeature2ModeEP11ChiMetadataPj+0x40>
   2a698: e1 fe ff d0  	adrp	x1, 0x8000 <_ZN8ChxUtils15GetFeature2ModeEP11ChiMetadataPj+0x68>
   2a6a0: 00 ff ff f0  	adrp	x0, 0xd000 <_ZN8ChxUtils15GetFeature2ModeEP11ChiMetadataPj+0x84>
   2a6a4: 03 ff ff d0  	adrp	x3, 0xc000 <_ZN8ChxUtils15GetFeature2ModeEP11ChiMetadataPj+0x84>
   2a6a8: 05 ff ff 90  	adrp	x5, 0xa000 <_ZN8ChxUtils15GetFeature2ModeEP11ChiMetadataPj+0x80>
   2a6c4: f3 4f 00 94  	bl	0x3e690 <_ZN6ChiLog9LogSystemEPKcS1_S1_S1_iS1_z@plt>
   2a6d4: e1 00 00 54  	b.ne	0x2a6f0 <_ZN8ChxUtils15GetFeature2ModeEP11ChiMetadataPj+0x148>
000000000002a6f8 <_ZN8ChxUtils15GetFeature2ModeEPj>:
   2a704: 63 00 00 54  	b.lo	0x2a710 <_ZN8ChxUtils15GetFeature2ModeEPj+0x18>
000000000002a718 <_ZN8ChxUtils28PopulateHALToChiStreamBufferEPK21camera3_stream_bufferP15ChiStreamBufferi>:
   2a744: d7 4f 00 94  	bl	0x3e6a0 <_ZN15ExtensionModule11GetInstanceEv@plt>
   2a74c: 2d 00 00 94  	bl	0x2a800 <_ZN8ChxUtils28PopulateHALToChiStreamBufferEPK21camera3_stream_bufferP15ChiStreamBufferi+0xe8>
   2a768: ce 4f 00 94  	bl	0x3e6a0 <_ZN15ExtensionModule11GetInstanceEv@plt>
   2a778: c1 00 00 54  	b.ne	0x2a790 <_ZN8ChxUtils28PopulateHALToChiStreamBufferEPK21camera3_stream_bufferP15ChiStreamBufferi+0x78>
   2a784: 6b 00 00 35  	cbnz	w11, 0x2a790 <_ZN8ChxUtils28PopulateHALToChiStreamBufferEPK21camera3_stream_bufferP15ChiStreamBufferi+0x78>
   2a78c: cc 02 00 34  	cbz	w12, 0x2a7e4 <_ZN8ChxUtils28PopulateHALToChiStreamBufferEPK21camera3_stream_bufferP15ChiStreamBufferi+0xcc>
   2a7ac: 80 00 00 54  	b.eq	0x2a7bc <_ZN8ChxUtils28PopulateHALToChiStreamBufferEPK21camera3_stream_bufferP15ChiStreamBufferi+0xa4>
   2a7c4: 80 00 00 54  	b.eq	0x2a7d4 <_ZN8ChxUtils28PopulateHALToChiStreamBufferEPK21camera3_stream_bufferP15ChiStreamBufferi+0xbc>
   2a7e4: af 4f 00 94  	bl	0x3e6a0 <_ZN15ExtensionModule11GetInstanceEv@plt>
   2a7f0: 24 51 00 94  	bl	0x3ec80 <_ZN15ExtensionModule18GetBufferAllocatorEP9ChiStreamPPv@plt>
   2a7fc: e7 ff ff 17  	b	0x2a798 <_ZN8ChxUtils28PopulateHALToChiStreamBufferEPK21camera3_stream_bufferP15ChiStreamBufferi+0x80>
   2a81c: 58 0b 00 b4  	cbz	x24, 0x2a984 <_ZN8ChxUtils28PopulateHALToChiStreamBufferEPK21camera3_stream_bufferP15ChiStreamBufferi+0x26c>
   2a834: 03 00 00 14  	b	0x2a840 <_ZN8ChxUtils28PopulateHALToChiStreamBufferEPK21camera3_stream_bufferP15ChiStreamBufferi+0x128>
   2a83c: 48 0a 00 b4  	cbz	x8, 0x2a984 <_ZN8ChxUtils28PopulateHALToChiStreamBufferEPK21camera3_stream_bufferP15ChiStreamBufferi+0x26c>
   2a848: 88 ff ff 54  	b.hi	0x2a838 <_ZN8ChxUtils28PopulateHALToChiStreamBufferEPK21camera3_stream_bufferP15ChiStreamBufferi+0x120>
   2a84c: 62 00 00 54  	b.hs	0x2a858 <_ZN8ChxUtils28PopulateHALToChiStreamBufferEPK21camera3_stream_bufferP15ChiStreamBufferi+0x140>
   2a854: f9 ff ff 17  	b	0x2a838 <_ZN8ChxUtils28PopulateHALToChiStreamBufferEPK21camera3_stream_bufferP15ChiStreamBufferi+0x120>
   2a864: 05 00 00 14  	b	0x2a878 <_ZN8ChxUtils28PopulateHALToChiStreamBufferEPK21camera3_stream_bufferP15ChiStreamBufferi+0x160>
   2a870: 29 01 00 b4  	cbz	x9, 0x2a894 <_ZN8ChxUtils28PopulateHALToChiStreamBufferEPK21camera3_stream_bufferP15ChiStreamBufferi+0x17c>
   2a880: 48 ff ff 54  	b.hi	0x2a868 <_ZN8ChxUtils28PopulateHALToChiStreamBufferEPK21camera3_stream_bufferP15ChiStreamBufferi+0x150>
   2a884: 82 00 00 54  	b.hs	0x2a894 <_ZN8ChxUtils28PopulateHALToChiStreamBufferEPK21camera3_stream_bufferP15ChiStreamBufferi+0x17c>
   2a890: 29 ff ff b5  	cbnz	x9, 0x2a874 <_ZN8ChxUtils28PopulateHALToChiStreamBufferEPK21camera3_stream_bufferP15ChiStreamBufferi+0x15c>
   2a898: 75 02 00 b4  	cbz	x21, 0x2a8e4 <_ZN8ChxUtils28PopulateHALToChiStreamBufferEPK21camera3_stream_bufferP15ChiStreamBufferi+0x1cc>
   2a8a0: 2e 07 00 b4  	cbz	x14, 0x2a984 <_ZN8ChxUtils28PopulateHALToChiStreamBufferEPK21camera3_stream_bufferP15ChiStreamBufferi+0x26c>
   2a8a8: b8 03 00 b4  	cbz	x24, 0x2a91c <_ZN8ChxUtils28PopulateHALToChiStreamBufferEPK21camera3_stream_bufferP15ChiStreamBufferi+0x204>
   2a8b4: c9 00 00 54  	b.ls	0x2a8cc <_ZN8ChxUtils28PopulateHALToChiStreamBufferEPK21camera3_stream_bufferP15ChiStreamBufferi+0x1b4>
   2a8bc: 28 07 00 b4  	cbz	x8, 0x2a9a0 <_ZN8ChxUtils28PopulateHALToChiStreamBufferEPK21camera3_stream_bufferP15ChiStreamBufferi+0x288>
   2a8c8: f9 ff ff 17  	b	0x2a8ac <_ZN8ChxUtils28PopulateHALToChiStreamBufferEPK21camera3_stream_bufferP15ChiStreamBufferi+0x194>
   2a8cc: c2 02 00 54  	b.hs	0x2a924 <_ZN8ChxUtils28PopulateHALToChiStreamBufferEPK21camera3_stream_bufferP15ChiStreamBufferi+0x20c>
   2a8d8: 68 02 00 b4  	cbz	x8, 0x2a924 <_ZN8ChxUtils28PopulateHALToChiStreamBufferEPK21camera3_stream_bufferP15ChiStreamBufferi+0x20c>
   2a8e0: f3 ff ff 17  	b	0x2a8ac <_ZN8ChxUtils28PopulateHALToChiStreamBufferEPK21camera3_stream_bufferP15ChiStreamBufferi+0x194>
   2a90c: ca 02 00 b4  	cbz	x10, 0x2a964 <_ZN8ChxUtils28PopulateHALToChiStreamBufferEPK21camera3_stream_bufferP15ChiStreamBufferi+0x24c>
   2a918: 14 00 00 14  	b	0x2a968 <_ZN8ChxUtils28PopulateHALToChiStreamBufferEPK21camera3_stream_bufferP15ChiStreamBufferi+0x250>
   2a928: 15 05 00 b5  	cbnz	x21, 0x2a9c8 <_ZN8ChxUtils28PopulateHALToChiStreamBufferEPK21camera3_stream_bufferP15ChiStreamBufferi+0x2b0>
   2a954: eb 02 00 b4  	cbz	x11, 0x2a9b0 <_ZN8ChxUtils28PopulateHALToChiStreamBufferEPK21camera3_stream_bufferP15ChiStreamBufferi+0x298>
   2a960: 15 00 00 14  	b	0x2a9b4 <_ZN8ChxUtils28PopulateHALToChiStreamBufferEPK21camera3_stream_bufferP15ChiStreamBufferi+0x29c>
   2a980: 2e f9 ff b5  	cbnz	x14, 0x2a8a4 <_ZN8ChxUtils28PopulateHALToChiStreamBufferEPK21camera3_stream_bufferP15ChiStreamBufferi+0x18c>
   2a9a8: 15 01 00 b5  	cbnz	x21, 0x2a9c8 <_ZN8ChxUtils28PopulateHALToChiStreamBufferEPK21camera3_stream_bufferP15ChiStreamBufferi+0x2b0>
   2a9ac: e0 ff ff 17  	b	0x2a92c <_ZN8ChxUtils28PopulateHALToChiStreamBufferEPK21camera3_stream_bufferP15ChiStreamBufferi+0x214>
   2a9d0: ee ff ff 17  	b	0x2a988 <_ZN8ChxUtils28PopulateHALToChiStreamBufferEPK21camera3_stream_bufferP15ChiStreamBufferi+0x270>
000000000002a9d8 <_ZN8ChxUtils28PopulateChiToHALStreamBufferEPK15ChiStreamBufferP21camera3_stream_bufferi>:
   2a9f4: c1 04 00 54  	b.ne	0x2aa8c <_ZN8ChxUtils28PopulateChiToHALStreamBufferEPK15ChiStreamBufferP21camera3_stream_bufferi+0xb4>
   2aa04: c3 00 00 54  	b.lo	0x2aa1c <_ZN8ChxUtils28PopulateChiToHALStreamBufferEPK15ChiStreamBufferP21camera3_stream_bufferi+0x44>
   2aa0c: 25 4f 00 94  	bl	0x3e6a0 <_ZN15ExtensionModule11GetInstanceEv@plt>
   2aa14: 7b ff ff 97  	bl	0x2a800 <_ZN8ChxUtils28PopulateHALToChiStreamBufferEPK21camera3_stream_bufferP15ChiStreamBufferi+0xe8>
   2aa18: 60 0a 00 34  	cbz	w0, 0x2ab64 <_ZN8ChxUtils28PopulateChiToHALStreamBufferEPK15ChiStreamBufferP21camera3_stream_bufferi+0x18c>
   2aa40: 01 01 00 54  	b.ne	0x2aa60 <_ZN8ChxUtils28PopulateChiToHALStreamBufferEPK15ChiStreamBufferP21camera3_stream_bufferi+0x88>
   2aa4c: a1 00 00 54  	b.ne	0x2aa60 <_ZN8ChxUtils28PopulateChiToHALStreamBufferEPK15ChiStreamBufferP21camera3_stream_bufferi+0x88>
   2aa58: 40 00 00 54  	b.eq	0x2aa60 <_ZN8ChxUtils28PopulateChiToHALStreamBufferEPK15ChiStreamBufferP21camera3_stream_bufferi+0x88>
   2aa68: a1 01 00 54  	b.ne	0x2aa9c <_ZN8ChxUtils28PopulateChiToHALStreamBufferEPK15ChiStreamBufferP21camera3_stream_bufferi+0xc4>
   2aa74: 41 01 00 54  	b.ne	0x2aa9c <_ZN8ChxUtils28PopulateChiToHALStreamBufferEPK15ChiStreamBufferP21camera3_stream_bufferi+0xc4>
   2aa80: e0 00 00 54  	b.eq	0x2aa9c <_ZN8ChxUtils28PopulateChiToHALStreamBufferEPK15ChiStreamBufferP21camera3_stream_bufferi+0xc4>
   2aa88: 05 00 00 14  	b	0x2aa9c <_ZN8ChxUtils28PopulateChiToHALStreamBufferEPK15ChiStreamBufferP21camera3_stream_bufferi+0xc4>
   2aa8c: a8 00 00 b0  	adrp	x8, 0x3f000 <_ZN8ChxUtils28PopulateChiToHALStreamBufferEPK15ChiStreamBufferP21camera3_stream_bufferi+0x108>
   2aa98: a8 00 00 37  	tbnz	w8, #0, 0x2aaac <_ZN8ChxUtils28PopulateChiToHALStreamBufferEPK15ChiStreamBufferP21camera3_stream_bufferi+0xd4>
   2aaac: a9 00 00 b0  	adrp	x9, 0x3f000 <_ZN8ChxUtils28PopulateChiToHALStreamBufferEPK15ChiStreamBufferP21camera3_stream_bufferi+0x128>
   2aab0: 14 ff ff f0  	adrp	x20, 0xd000 <_ZN8ChxUtils28PopulateChiToHALStreamBufferEPK15ChiStreamBufferP21camera3_stream_bufferi+0x64>
   2aac4: 41 02 00 54  	b.ne	0x2ab0c <_ZN8ChxUtils28PopulateChiToHALStreamBufferEPK15ChiStreamBufferP21camera3_stream_bufferi+0x134>
   2aae0: 21 ff ff b0  	adrp	x1, 0xf000 <_ZN8ChxUtils28PopulateChiToHALStreamBufferEPK15ChiStreamBufferP21camera3_stream_bufferi+0x9c>
   2aae4: 22 ff ff 90  	adrp	x2, 0xe000 <_ZN8ChxUtils28PopulateChiToHALStreamBufferEPK15ChiStreamBufferP21camera3_stream_bufferi+0x9c>
   2aae8: 05 ff ff d0  	adrp	x5, 0xc000 <_ZN8ChxUtils28PopulateChiToHALStreamBufferEPK15ChiStreamBufferP21camera3_stream_bufferi+0x98>
   2ab30: e8 fe ff d0  	adrp	x8, 0x8000 <_ZN8ChxUtils28PopulateChiToHALStreamBufferEPK15ChiStreamBufferP21camera3_stream_bufferi+0xd0>
   2ab34: 21 ff ff 90  	adrp	x1, 0xe000 <_ZN8ChxUtils28PopulateChiToHALStreamBufferEPK15ChiStreamBufferP21camera3_stream_bufferi+0xec>
   2ab3c: 03 ff ff d0  	adrp	x3, 0xc000 <_ZN8ChxUtils28PopulateChiToHALStreamBufferEPK15ChiStreamBufferP21camera3_stream_bufferi+0xec>
   2ab40: 05 ff ff 90  	adrp	x5, 0xa000 <_ZN8ChxUtils28PopulateChiToHALStreamBufferEPK15ChiStreamBufferP21camera3_stream_bufferi+0xe8>
   2ab60: cc 4e 00 14  	b	0x3e690 <_ZN6ChiLog9LogSystemEPKcS1_S1_S1_iS1_z@plt>
   2ab64: aa 00 00 b0  	adrp	x10, 0x3f000 <_ZN8ChxUtils28PopulateChiToHALStreamBufferEPK15ChiStreamBufferP21camera3_stream_bufferi+0x1e0>
   2ab70: 69 f9 07 36  	tbz	w9, #0, 0x2aa9c <_ZN8ChxUtils28PopulateChiToHALStreamBufferEPK15ChiStreamBufferP21camera3_stream_bufferi+0xc4>
   2ab74: ab 00 00 b0  	adrp	x11, 0x3f000 <_ZN8ChxUtils28PopulateChiToHALStreamBufferEPK15ChiStreamBufferP21camera3_stream_bufferi+0x1f0>
   2ab84: 61 02 00 54  	b.ne	0x2abd0 <_ZN8ChxUtils28PopulateChiToHALStreamBufferEPK15ChiStreamBufferP21camera3_stream_bufferi+0x1f8>
   2ab88: 14 ff ff f0  	adrp	x20, 0xd000 <_ZN8ChxUtils28PopulateChiToHALStreamBufferEPK15ChiStreamBufferP21camera3_stream_bufferi+0x13c>
   2aba8: 21 ff ff b0  	adrp	x1, 0xf000 <_ZN8ChxUtils28PopulateChiToHALStreamBufferEPK15ChiStreamBufferP21camera3_stream_bufferi+0x164>
   2abac: 02 ff ff d0  	adrp	x2, 0xc000 <_ZN8ChxUtils28PopulateChiToHALStreamBufferEPK15ChiStreamBufferP21camera3_stream_bufferi+0x15c>
   2abb0: 05 ff ff d0  	adrp	x5, 0xc000 <_ZN8ChxUtils28PopulateChiToHALStreamBufferEPK15ChiStreamBufferP21camera3_stream_bufferi+0x160>
   2abd0: 14 ff ff f0  	adrp	x20, 0xd000 <_ZN8ChxUtils28PopulateChiToHALStreamBufferEPK15ChiStreamBufferP21camera3_stream_bufferi+0x184>
   2abfc: e9 fe ff d0  	adrp	x9, 0x8000 <_ZN8ChxUtils28PopulateChiToHALStreamBufferEPK15ChiStreamBufferP21camera3_stream_bufferi+0x19c>
   2ac00: 21 ff ff 90  	adrp	x1, 0xe000 <_ZN8ChxUtils28PopulateChiToHALStreamBufferEPK15ChiStreamBufferP21camera3_stream_bufferi+0x1b8>
   2ac08: 03 ff ff d0  	adrp	x3, 0xc000 <_ZN8ChxUtils28PopulateChiToHALStreamBufferEPK15ChiStreamBufferP21camera3_stream_bufferi+0x1b8>
   2ac0c: e5 fe ff d0  	adrp	x5, 0x8000 <_ZN8ChxUtils28PopulateChiToHALStreamBufferEPK15ChiStreamBufferP21camera3_stream_bufferi+0x1ac>
   2ac28: 9a 4e 00 14  	b	0x3e690 <_ZN6ChiLog9LogSystemEPKcS1_S1_S1_iS1_z@plt>
000000000002ac30 <_ZN8ChxUtils29DeepCopyCamera3CaptureRequestEPK23camera3_capture_requestPS0_>:
   2ac4c: a9 03 00 34  	cbz	w9, 0x2acc0 <_ZN8ChxUtils29DeepCopyCamera3CaptureRequestEPK23camera3_capture_requestPS0_+0x90>
   2ac5c: 83 01 00 54  	b.lo	0x2ac8c <_ZN8ChxUtils29DeepCopyCamera3CaptureRequestEPK23camera3_capture_requestPS0_+0x5c>
   2ac74: 89 02 00 54  	b.ls	0x2acc4 <_ZN8ChxUtils29DeepCopyCamera3CaptureRequestEPK23camera3_capture_requestPS0_+0x94>
   2ac88: e9 01 00 54  	b.ls	0x2acc4 <_ZN8ChxUtils29DeepCopyCamera3CaptureRequestEPK23camera3_capture_requestPS0_+0x94>
   2acbc: c1 fe ff 54  	b.ne	0x2ac94 <_ZN8ChxUtils29DeepCopyCamera3CaptureRequestEPK23camera3_capture_requestPS0_+0x64>
   2ad48: 81 fc ff 54  	b.ne	0x2acd8 <_ZN8ChxUtils29DeepCopyCamera3CaptureRequestEPK23camera3_capture_requestPS0_+0xa8>
   2ad4c: ac fb ff b4  	cbz	x12, 0x2acc0 <_ZN8ChxUtils29DeepCopyCamera3CaptureRequestEPK23camera3_capture_requestPS0_+0x90>
   2ad54: 60 02 00 54  	b.eq	0x2ada0 <_ZN8ChxUtils29DeepCopyCamera3CaptureRequestEPK23camera3_capture_requestPS0_+0x170>
   2ad9c: 2a f9 ff 54  	b.ge	0x2acc0 <_ZN8ChxUtils29DeepCopyCamera3CaptureRequestEPK23camera3_capture_requestPS0_+0x90>
000000000002adc8 <_ZN8ChxUtils14GetUsecaseModeEP23camera3_capture_request>:
   2ade4: 2f 4e 00 94  	bl	0x3e6a0 <_ZN15ExtensionModule11GetInstanceEv@plt>
   2adf0: 2c 4e 00 94  	bl	0x3e6a0 <_ZN15ExtensionModule11GetInstanceEv@plt>
   2ae00: e9 05 00 34  	cbz	w9, 0x2aebc <_ZN8ChxUtils14GetUsecaseModeEP23camera3_capture_request+0xf4>
   2ae18: 0c 00 00 14  	b	0x2ae48 <_ZN8ChxUtils14GetUsecaseModeEP23camera3_capture_request+0x80>
   2ae28: 9a 4f 00 94  	bl	0x3ec90 <_ZN15UsecaseSelector19IsYUVSnapshotStreamEPK14camera3_stream@plt>
   2ae44: 22 03 00 54  	b.hs	0x2aea8 <_ZN8ChxUtils14GetUsecaseModeEP23camera3_capture_request+0xe0>
   2ae50: 94 4f 00 94  	bl	0x3eca0 <_ZN15UsecaseSelector13IsVideoStreamEPK14camera3_stream@plt>
   2ae54: 40 fe ff 35  	cbnz	w0, 0x2ae1c <_ZN8ChxUtils14GetUsecaseModeEP23camera3_capture_request+0x54>
   2ae60: 8c 4f 00 94  	bl	0x3ec90 <_ZN15UsecaseSelector19IsYUVSnapshotStreamEPK14camera3_stream@plt>
   2ae64: 20 01 00 35  	cbnz	w0, 0x2ae88 <_ZN8ChxUtils14GetUsecaseModeEP23camera3_capture_request+0xc0>
   2ae70: 90 4f 00 94  	bl	0x3ecb0 <_ZN15UsecaseSelector20IsJPEGSnapshotStreamEPK14camera3_stream@plt>
   2ae74: a0 00 00 35  	cbnz	w0, 0x2ae88 <_ZN8ChxUtils14GetUsecaseModeEP23camera3_capture_request+0xc0>
   2ae80: 90 4f 00 94  	bl	0x3ecc0 <_ZN15UsecaseSelector20IsHeicSnapshotStreamEPK14camera3_stream@plt>
   2ae84: 60 00 00 34  	cbz	w0, 0x2ae90 <_ZN8ChxUtils14GetUsecaseModeEP23camera3_capture_request+0xc8>
   2ae8c: e5 ff ff 17  	b	0x2ae20 <_ZN8ChxUtils14GetUsecaseModeEP23camera3_capture_request+0x58>
   2ae98: 8e 4f 00 94  	bl	0x3ecd0 <_ZN15UsecaseSelector15IsPreviewStreamEPK14camera3_stream@plt>
   2aea4: df ff ff 17  	b	0x2ae20 <_ZN8ChxUtils14GetUsecaseModeEP23camera3_capture_request+0x58>
   2aeb0: e1 00 00 54  	b.ne	0x2aecc <_ZN8ChxUtils14GetUsecaseModeEP23camera3_capture_request+0x104>
   2aeb8: 0b 00 00 14  	b	0x2aee4 <_ZN8ChxUtils14GetUsecaseModeEP23camera3_capture_request+0x11c>
   2aec8: 05 00 00 14  	b	0x2aedc <_ZN8ChxUtils14GetUsecaseModeEP23camera3_capture_request+0x114>
   2aed8: 68 00 00 35  	cbnz	w8, 0x2aee4 <_ZN8ChxUtils14GetUsecaseModeEP23camera3_capture_request+0x11c>
   2aee4: af 00 00 b0  	adrp	x15, 0x3f000 <_ZN8ChxUtils14GetUsecaseModeEP23camera3_capture_request+0x170>
   2aef0: 6b 05 28 36  	tbz	w11, #5, 0x2af9c <_ZN8ChxUtils14GetUsecaseModeEP23camera3_capture_request+0x1d4>
   2aef4: b0 00 00 b0  	adrp	x16, 0x3f000 <_ZN8ChxUtils14GetUsecaseModeEP23camera3_capture_request+0x180>
   2aef8: 15 ff ff f0  	adrp	x21, 0xd000 <_ZN8ChxUtils14GetUsecaseModeEP23camera3_capture_request+0xbc>
   2af0c: 41 02 00 54  	b.ne	0x2af54 <_ZN8ChxUtils14GetUsecaseModeEP23camera3_capture_request+0x18c>
   2af24: 21 ff ff b0  	adrp	x1, 0xf000 <_ZN8ChxUtils14GetUsecaseModeEP23camera3_capture_request+0xf0>
   2af28: 22 ff ff b0  	adrp	x2, 0xf000 <_ZN8ChxUtils14GetUsecaseModeEP23camera3_capture_request+0xf4>
   2af2c: 05 ff ff d0  	adrp	x5, 0xc000 <_ZN8ChxUtils14GetUsecaseModeEP23camera3_capture_request+0xec>
   2af68: 01 ff ff d0  	adrp	x1, 0xc000 <_ZN8ChxUtils14GetUsecaseModeEP23camera3_capture_request+0x128>
   2af70: 20 ff ff 90  	adrp	x0, 0xe000 <_ZN8ChxUtils14GetUsecaseModeEP23camera3_capture_request+0x138>
   2af74: 03 ff ff d0  	adrp	x3, 0xc000 <_ZN8ChxUtils14GetUsecaseModeEP23camera3_capture_request+0x134>
   2af78: e5 fe ff b0  	adrp	x5, 0x7000 <_ZN8ChxUtils14GetUsecaseModeEP23camera3_capture_request+0x124>
   2af98: be 4d 00 94  	bl	0x3e690 <_ZN6ChiLog9LogSystemEPKcS1_S1_S1_iS1_z@plt>
   2afac: bd 4d 00 94  	bl	0x3e6a0 <_ZN15ExtensionModule11GetInstanceEv@plt>
000000000002afd8 <_ZN8ChxUtils9SkipFrameEP21camera3_stream_buffer>:
000000000002afe8 <_ZN8ChxUtils15AndroidMetadata12GetSceneModeEPvPj>:
   2b028: 60 01 00 35  	cbnz	w0, 0x2b054 <_ZN8ChxUtils15AndroidMetadata12GetSceneModeEPvPj+0x6c>
   2b038: e1 00 00 54  	b.ne	0x2b054 <_ZN8ChxUtils15AndroidMetadata12GetSceneModeEPvPj+0x6c>
   2b050: e0 01 00 34  	cbz	w0, 0x2b08c <_ZN8ChxUtils15AndroidMetadata12GetSceneModeEPvPj+0xa4>
   2b064: 21 02 00 54  	b.ne	0x2b0a8 <_ZN8ChxUtils15AndroidMetadata12GetSceneModeEPvPj+0xc0>
   2b068: 2a ff ff b0  	adrp	x10, 0x10000 <_ZN8ChxUtils15AndroidMetadata12GetSceneModeEPvPj+0x14>
   2b0a4: 20 fe ff 54  	b.eq	0x2b068 <_ZN8ChxUtils15AndroidMetadata12GetSceneModeEPvPj+0x80>
000000000002b0b0 <_ZN8ChxUtils17GetVendorTagValueEP11ChiMetadata9VendorTagPPv>:
   2b0e0: 70 4d 00 94  	bl	0x3e6a0 <_ZN15ExtensionModule11GetInstanceEv@plt>
   2b114: aa 00 00 b5  	cbnz	x10, 0x2b128 <_ZN8ChxUtils17GetVendorTagValueEP11ChiMetadata9VendorTagPPv+0x78>
   2b118: a9 00 00 90  	adrp	x9, 0x3f000 <_ZN8ChxUtils17GetVendorTagValueEP11ChiMetadata9VendorTagPPv+0xb8>
   2b124: 49 01 30 37  	tbnz	w9, #6, 0x2b14c <_ZN8ChxUtils17GetVendorTagValueEP11ChiMetadata9VendorTagPPv+0x9c>
   2b134: 41 06 00 54  	b.ne	0x2b1fc <_ZN8ChxUtils17GetVendorTagValueEP11ChiMetadata9VendorTagPPv+0x14c>
   2b14c: aa 00 00 90  	adrp	x10, 0x3f000 <_ZN8ChxUtils17GetVendorTagValueEP11ChiMetadata9VendorTagPPv+0xec>
   2b150: 14 ff ff d0  	adrp	x20, 0xd000 <_ZN8ChxUtils17GetVendorTagValueEP11ChiMetadata9VendorTagPPv+0x28>
   2b164: 21 02 00 54  	b.ne	0x2b1a8 <_ZN8ChxUtils17GetVendorTagValueEP11ChiMetadata9VendorTagPPv+0xf8>
   2b17c: 21 ff ff 90  	adrp	x1, 0xf000 <_ZN8ChxUtils17GetVendorTagValueEP11ChiMetadata9VendorTagPPv+0x5c>
   2b180: 02 ff ff f0  	adrp	x2, 0xe000 <_ZN8ChxUtils17GetVendorTagValueEP11ChiMetadata9VendorTagPPv+0x5c>
   2b184: 05 ff ff 90  	adrp	x5, 0xb000 <_ZN8ChxUtils17GetVendorTagValueEP11ChiMetadata9VendorTagPPv+0x54>
   2b1bc: e1 fe ff b0  	adrp	x1, 0x8000 <_ZN8ChxUtils17GetVendorTagValueEP11ChiMetadata9VendorTagPPv+0x80>
   2b1c4: 00 ff ff d0  	adrp	x0, 0xd000 <_ZN8ChxUtils17GetVendorTagValueEP11ChiMetadata9VendorTagPPv+0x9c>
   2b1c8: 03 ff ff 90  	adrp	x3, 0xb000 <_ZN8ChxUtils17GetVendorTagValueEP11ChiMetadata9VendorTagPPv+0x98>
   2b1cc: e5 fe ff d0  	adrp	x5, 0x9000 <_ZN8ChxUtils17GetVendorTagValueEP11ChiMetadata9VendorTagPPv+0x94>
   2b1e8: 2a 4d 00 94  	bl	0x3e690 <_ZN6ChiLog9LogSystemEPKcS1_S1_S1_iS1_z@plt>
   2b1f8: 00 fa ff 54  	b.eq	0x2b138 <_ZN8ChxUtils17GetVendorTagValueEP11ChiMetadata9VendorTagPPv+0x88>
000000000002b200 <_ZN8ChxUtils15AndroidMetadata13GetEffectModeEPvPj>:
   2b238: c0 01 00 34  	cbz	w0, 0x2b270 <_ZN8ChxUtils15AndroidMetadata13GetEffectModeEPvPj+0x70>
   2b24c: 01 02 00 54  	b.ne	0x2b28c <_ZN8ChxUtils15AndroidMetadata13GetEffectModeEPvPj+0x8c>
   2b250: 29 ff ff b0  	adrp	x9, 0x10000 <_ZN8ChxUtils17GetVendorTagValueEP11ChiMetadata9VendorTagPPv+0x134>
   2b288: 40 fe ff 54  	b.eq	0x2b250 <_ZN8ChxUtils15AndroidMetadata13GetEffectModeEPvPj+0x50>
000000000002b290 <_ZN8ChxUtils15NativeFenceWaitEij>:
   2b2b0: 80 07 00 34  	cbz	w0, 0x2b3a0 <_ZN8ChxUtils15NativeFenceWaitEij+0x110>
   2b2b4: a8 00 00 90  	adrp	x8, 0x3f000 <_ZN8ChxUtils15NativeFenceWaitEij+0x74>
   2b2c0: e8 06 00 36  	tbz	w8, #0, 0x2b39c <_ZN8ChxUtils15NativeFenceWaitEij+0x10c>
   2b2c4: a9 00 00 90  	adrp	x9, 0x3f000 <_ZN8ChxUtils15NativeFenceWaitEij+0x84>
   2b2c8: 15 ff ff d0  	adrp	x21, 0xd000 <_ZN8ChxUtils15AndroidMetadata13GetEffectModeEPvPj+0x50>
   2b2dc: 01 03 00 54  	b.ne	0x2b33c <_ZN8ChxUtils15NativeFenceWaitEij+0xac>
   2b304: 21 ff ff 90  	adrp	x1, 0xf000 <_ZN8ChxUtils15NativeFenceWaitEij+0x4>
   2b308: 02 ff ff 90  	adrp	x2, 0xb000 <_ZN8ChxUtils15AndroidMetadata13GetEffectModeEPvPj+0x88>
   2b30c: e5 fe ff f0  	adrp	x5, 0xa000 <_ZN8ChxUtils15AndroidMetadata13GetEffectModeEPvPj+0x88>
   2b364: e0 fe ff b0  	adrp	x0, 0x8000 <_ZN8ChxUtils15NativeFenceWaitEij+0x48>
   2b368: 01 ff ff f0  	adrp	x1, 0xe000 <_ZN8ChxUtils15NativeFenceWaitEij+0x64>
   2b36c: e3 fe ff f0  	adrp	x3, 0xa000 <_ZN8ChxUtils15NativeFenceWaitEij+0x58>
   2b370: 05 ff ff 90  	adrp	x5, 0xb000 <_ZN8ChxUtils15NativeFenceWaitEij+0x60>
   2b398: be 4c 00 94  	bl	0x3e690 <_ZN6ChiLog9LogSystemEPKcS1_S1_S1_iS1_z@plt>
000000000002b3b8 <_ZN8ChxUtils5CloseEi>:
   2b3bc: 00 01 00 54  	b.eq	0x2b3dc <_ZN8ChxUtils5CloseEi+0x24>
000000000002b3e8 <_ZN8ChxUtils9ReadSocIDEv>:
   2b400: 13 ff ff d0  	adrp	x19, 0xd000 <_ZN8ChxUtils15NativeFenceWaitEij+0xf8>
   2b41c: 09 ff ff f0  	adrp	x9, 0xe000 <_ZN8ChxUtils15NativeFenceWaitEij+0x118>
   2b438: a0 01 00 54  	b.eq	0x2b46c <_ZN8ChxUtils9ReadSocIDEv+0x84>
   2b468: 03 00 00 14  	b	0x2b474 <_ZN8ChxUtils9ReadSocIDEv+0x8c>
   2b484: e1 00 00 54  	b.ne	0x2b4a0 <_ZN8ChxUtils9ReadSocIDEv+0xb8>
000000000002b4a8 <_ZN8ChxUtils10GetDDRRankEv>:
   2b4c0: e0 fe ff b0  	adrp	x0, 0x8000 <_ZN8ChxUtils9ReadSocIDEv+0x4c>
   2b4dc: 80 01 00 54  	b.eq	0x2b50c <_ZN8ChxUtils10GetDDRRankEv+0x64>
   2b4f8: 00 01 00 54  	b.eq	0x2b518 <_ZN8ChxUtils10GetDDRRankEv+0x70>
   2b508: 30 00 00 14  	b	0x2b5c8 <_ZN8ChxUtils10GetDDRRankEv+0x120>
   2b514: 2d 00 00 14  	b	0x2b5c8 <_ZN8ChxUtils10GetDDRRankEv+0x120>
   2b518: a8 00 00 90  	adrp	x8, 0x3f000 <_ZN8ChxUtils10GetDDRRankEv+0xc0>
   2b524: e8 04 00 36  	tbz	w8, #0, 0x2b5c0 <_ZN8ChxUtils10GetDDRRankEv+0x118>
   2b528: a9 00 00 90  	adrp	x9, 0x3f000 <_ZN8ChxUtils10GetDDRRankEv+0xd0>
   2b52c: 14 ff ff d0  	adrp	x20, 0xd000 <_ZN8ChxUtils10GetDDRRankEv+0xc>
   2b540: 01 02 00 54  	b.ne	0x2b580 <_ZN8ChxUtils10GetDDRRankEv+0xd8>
   2b558: 21 ff ff 90  	adrp	x1, 0xf000 <_ZN8ChxUtils10GetDDRRankEv+0x40>
   2b55c: 02 ff ff f0  	adrp	x2, 0xe000 <_ZN8ChxUtils10GetDDRRankEv+0x40>
   2b560: 05 ff ff f0  	adrp	x5, 0xe000 <_ZN8ChxUtils10GetDDRRankEv+0x44>
   2b594: 01 ff ff f0  	adrp	x1, 0xe000 <_ZN8ChxUtils10GetDDRRankEv+0x78>
   2b59c: e0 fe ff b0  	adrp	x0, 0x8000 <_ZN8ChxUtils10GetDDRRankEv+0x68>
   2b5a0: 03 ff ff f0  	adrp	x3, 0xe000 <_ZN8ChxUtils10GetDDRRankEv+0x84>
   2b5a4: 05 ff ff f0  	adrp	x5, 0xe000 <_ZN8ChxUtils10GetDDRRankEv+0x88>
   2b5bc: 35 4c 00 94  	bl	0x3e690 <_ZN6ChiLog9LogSystemEPKcS1_S1_S1_iS1_z@plt>
   2b5d8: e1 00 00 54  	b.ne	0x2b5f4 <_ZN8ChxUtils10GetDDRRankEv+0x14c>
000000000002b5f8 <_ZN8ChxUtils10GetDDRTypeEv>:
   2b610: 00 ff ff 90  	adrp	x0, 0xb000 <_ZN8ChxUtils10GetDDRRankEv+0xe8>
   2b62c: 80 06 00 54  	b.eq	0x2b6fc <_ZN8ChxUtils10GetDDRTypeEv+0x104>
   2b644: 20 06 00 b4  	cbz	x0, 0x2b708 <_ZN8ChxUtils10GetDDRTypeEv+0x110>
   2b648: a8 00 00 90  	adrp	x8, 0x3f000 <_ZN8ChxUtils10GetDDRTypeEv+0xa0>
   2b654: e8 04 00 36  	tbz	w8, #0, 0x2b6f0 <_ZN8ChxUtils10GetDDRTypeEv+0xf8>
   2b658: a9 00 00 90  	adrp	x9, 0x3f000 <_ZN8ChxUtils10GetDDRTypeEv+0xb0>
   2b65c: 14 ff ff d0  	adrp	x20, 0xd000 <_ZN8ChxUtils10GetDDRRankEv+0x13c>
   2b670: 01 02 00 54  	b.ne	0x2b6b0 <_ZN8ChxUtils10GetDDRTypeEv+0xb8>
   2b688: 21 ff ff 90  	adrp	x1, 0xf000 <_ZN8ChxUtils10GetDDRTypeEv+0x20>
   2b68c: 02 ff ff f0  	adrp	x2, 0xe000 <_ZN8ChxUtils10GetDDRTypeEv+0x20>
   2b690: e5 fe ff f0  	adrp	x5, 0xa000 <_ZN8ChxUtils10GetDDRTypeEv+0x14>
   2b6c4: 01 ff ff f0  	adrp	x1, 0xe000 <_ZN8ChxUtils10GetDDRTypeEv+0x58>
   2b6cc: e0 fe ff b0  	adrp	x0, 0x8000 <_ZN8ChxUtils10GetDDRTypeEv+0x48>
   2b6d0: e3 fe ff f0  	adrp	x3, 0xa000 <_ZN8ChxUtils10GetDDRTypeEv+0x54>
   2b6d4: 05 ff ff f0  	adrp	x5, 0xe000 <_ZN8ChxUtils10GetDDRTypeEv+0x68>
   2b6ec: e9 4b 00 94  	bl	0x3e690 <_ZN6ChiLog9LogSystemEPKcS1_S1_S1_iS1_z@plt>
   2b6f8: 07 00 00 14  	b	0x2b714 <_ZN8ChxUtils10GetDDRTypeEv+0x11c>
   2b704: 04 00 00 14  	b	0x2b714 <_ZN8ChxUtils10GetDDRTypeEv+0x11c>
   2b724: e1 00 00 54  	b.ne	0x2b740 <_ZN8ChxUtils10GetDDRTypeEv+0x148>
000000000002b748 <_ZN8ChxUtils11Is32bitModeEv>:
   2b7b0: 60 01 00 34  	cbz	w0, 0x2b7dc <_ZN8ChxUtils11Is32bitModeEv+0x94>
   2b7c4: 21 0a 00 54  	b.ne	0x2b908 <_ZN8ChxUtils11Is32bitModeEv+0x1c0>
   2b7dc: a8 00 00 90  	adrp	x8, 0x3f000 <_ZN8ChxUtils11Is32bitModeEv+0xe4>
   2b7e8: e8 06 28 36  	tbz	w8, #5, 0x2b8c4 <_ZN8ChxUtils11Is32bitModeEv+0x17c>
   2b7ec: a9 00 00 90  	adrp	x9, 0x3f000 <_ZN8ChxUtils11Is32bitModeEv+0xf4>
   2b7f0: 13 ff ff d0  	adrp	x19, 0xd000 <_ZN8ChxUtils11Is32bitModeEv+0x30>
   2b804: 01 03 00 54  	b.ne	0x2b864 <_ZN8ChxUtils11Is32bitModeEv+0x11c>
   2b820: 21 ff ff 90  	adrp	x1, 0xf000 <_ZN8ChxUtils11Is32bitModeEv+0x68>
   2b824: 02 ff ff 90  	adrp	x2, 0xb000 <_ZN8ChxUtils11Is32bitModeEv+0x5c>
   2b828: 25 ff ff 90  	adrp	x5, 0xf000 <_ZN8ChxUtils11Is32bitModeEv+0x70>
   2b880: 00 ff ff f0  	adrp	x0, 0xe000 <_ZN8ChxUtils11Is32bitModeEv+0xc4>
   2b884: 01 ff ff b0  	adrp	x1, 0xc000 <_ZN8ChxUtils11Is32bitModeEv+0xc0>
   2b888: 23 ff ff 90  	adrp	x3, 0xf000 <_ZN8ChxUtils11Is32bitModeEv+0xd0>
   2b88c: 25 ff ff 90  	adrp	x5, 0xf000 <_ZN8ChxUtils11Is32bitModeEv+0xd4>
   2b8c0: 74 4b 00 94  	bl	0x3e690 <_ZN6ChiLog9LogSystemEPKcS1_S1_S1_iS1_z@plt>
   2b904: 20 f6 ff 54  	b.eq	0x2b7c8 <_ZN8ChxUtils11Is32bitModeEv+0x80>
000000000002b910 <_ZN8ChxUtils18WaitOnAcquireFenceEPK15ChiStreamBuffer>:
   2b928: 01 0c 00 54  	b.ne	0x2baa8 <_ZN8ChxUtils18WaitOnAcquireFenceEPK15ChiStreamBuffer+0x198>
   2b934: a1 0b 00 54  	b.ne	0x2baa8 <_ZN8ChxUtils18WaitOnAcquireFenceEPK15ChiStreamBuffer+0x198>
   2b940: 40 0b 00 54  	b.eq	0x2baa8 <_ZN8ChxUtils18WaitOnAcquireFenceEPK15ChiStreamBuffer+0x198>
   2b944: b5 00 00 90  	adrp	x21, 0x3f000 <_ZN8ChxUtils18WaitOnAcquireFenceEPK15ChiStreamBuffer+0x84>
   2b948: b6 00 00 90  	adrp	x22, 0x3f000 <_ZN8ChxUtils18WaitOnAcquireFenceEPK15ChiStreamBuffer+0x88>
   2b94c: 14 ff ff d0  	adrp	x20, 0xd000 <_ZN8ChxUtils11Is32bitModeEv+0x18c>
   2b960: a8 04 30 36  	tbz	w8, #6, 0x2b9f4 <_ZN8ChxUtils18WaitOnAcquireFenceEPK15ChiStreamBuffer+0xe4>
   2b96c: 21 02 00 54  	b.ne	0x2b9b0 <_ZN8ChxUtils18WaitOnAcquireFenceEPK15ChiStreamBuffer+0xa0>
   2b984: 21 ff ff 90  	adrp	x1, 0xf000 <_ZN8ChxUtils18WaitOnAcquireFenceEPK15ChiStreamBuffer+0x4>
   2b988: 22 ff ff 90  	adrp	x2, 0xf000 <_ZN8ChxUtils18WaitOnAcquireFenceEPK15ChiStreamBuffer+0x8>
   2b98c: 05 ff ff 90  	adrp	x5, 0xb000 <_ZN8ChxUtils11Is32bitModeEv+0x1c4>
   2b9c4: e1 fe ff b0  	adrp	x1, 0x8000 <_ZN8ChxUtils18WaitOnAcquireFenceEPK15ChiStreamBuffer+0x28>
   2b9cc: 00 ff ff d0  	adrp	x0, 0xd000 <_ZN8ChxUtils18WaitOnAcquireFenceEPK15ChiStreamBuffer+0x44>
   2b9d0: 03 ff ff 90  	adrp	x3, 0xb000 <_ZN8ChxUtils18WaitOnAcquireFenceEPK15ChiStreamBuffer+0x40>
   2b9d4: e5 fe ff b0  	adrp	x5, 0x8000 <_ZN8ChxUtils18WaitOnAcquireFenceEPK15ChiStreamBuffer+0x38>
   2b9f0: 28 4b 00 94  	bl	0x3e690 <_ZN6ChiLog9LogSystemEPKcS1_S1_S1_iS1_z@plt>
   2b9fc: d9 4c 00 94  	bl	0x3ed60 <_ZN8ChxUtils15NativeFenceWaitEij@plt>
   2ba08: a9 04 30 36  	tbz	w9, #6, 0x2ba9c <_ZN8ChxUtils18WaitOnAcquireFenceEPK15ChiStreamBuffer+0x18c>
   2ba14: 21 02 00 54  	b.ne	0x2ba58 <_ZN8ChxUtils18WaitOnAcquireFenceEPK15ChiStreamBuffer+0x148>
   2ba2c: 21 ff ff 90  	adrp	x1, 0xf000 <_ZN8ChxUtils18WaitOnAcquireFenceEPK15ChiStreamBuffer+0xac>
   2ba30: 22 ff ff b0  	adrp	x2, 0x10000 <_ZN8ChxUtils18WaitOnAcquireFenceEPK15ChiStreamBuffer+0xb4>
   2ba34: 05 ff ff 90  	adrp	x5, 0xb000 <_ZN8ChxUtils18WaitOnAcquireFenceEPK15ChiStreamBuffer+0xa4>
   2ba6c: e1 fe ff b0  	adrp	x1, 0x8000 <_ZN8ChxUtils18WaitOnAcquireFenceEPK15ChiStreamBuffer+0xd0>
   2ba74: 00 ff ff d0  	adrp	x0, 0xd000 <_ZN8ChxUtils18WaitOnAcquireFenceEPK15ChiStreamBuffer+0xec>
   2ba78: 03 ff ff 90  	adrp	x3, 0xb000 <_ZN8ChxUtils18WaitOnAcquireFenceEPK15ChiStreamBuffer+0xe8>
   2ba7c: 05 ff ff b0  	adrp	x5, 0xc000 <_ZN8ChxUtils18WaitOnAcquireFenceEPK15ChiStreamBuffer+0xf0>
   2ba98: fe 4a 00 94  	bl	0x3e690 <_ZN6ChiLog9LogSystemEPKcS1_S1_S1_iS1_z@plt>
   2baa4: 02 00 00 14  	b	0x2baac <_ZN8ChxUtils18WaitOnAcquireFenceEPK15ChiStreamBuffer+0x19c>
000000000002bac0 <_ZN8ChxUtils18WaitOnAcquireFenceEPK21camera3_stream_buffer>:
   2bad8: 40 0b 00 54  	b.eq	0x2bc40 <_ZN8ChxUtils18WaitOnAcquireFenceEPK21camera3_stream_buffer+0x180>
   2badc: b5 00 00 90  	adrp	x21, 0x3f000 <_ZN8ChxUtils18WaitOnAcquireFenceEPK21camera3_stream_buffer+0x6c>
   2bae0: b6 00 00 90  	adrp	x22, 0x3f000 <_ZN8ChxUtils18WaitOnAcquireFenceEPK21camera3_stream_buffer+0x70>
   2bae4: 14 ff ff d0  	adrp	x20, 0xd000 <_ZN8ChxUtils18WaitOnAcquireFenceEPK15ChiStreamBuffer+0x15c>
   2baf8: a8 04 30 36  	tbz	w8, #6, 0x2bb8c <_ZN8ChxUtils18WaitOnAcquireFenceEPK21camera3_stream_buffer+0xcc>
   2bb04: 21 02 00 54  	b.ne	0x2bb48 <_ZN8ChxUtils18WaitOnAcquireFenceEPK21camera3_stream_buffer+0x88>
   2bb1c: 21 ff ff 90  	adrp	x1, 0xf000 <_ZN8ChxUtils18WaitOnAcquireFenceEPK15ChiStreamBuffer+0x19c>
   2bb20: 22 ff ff 90  	adrp	x2, 0xf000 <_ZN8ChxUtils18WaitOnAcquireFenceEPK15ChiStreamBuffer+0x1a0>
   2bb24: 05 ff ff 90  	adrp	x5, 0xb000 <_ZN8ChxUtils18WaitOnAcquireFenceEPK15ChiStreamBuffer+0x194>
   2bb5c: e1 fe ff b0  	adrp	x1, 0x8000 <_ZN8ChxUtils18WaitOnAcquireFenceEPK21camera3_stream_buffer+0x10>
   2bb64: 00 ff ff d0  	adrp	x0, 0xd000 <_ZN8ChxUtils18WaitOnAcquireFenceEPK21camera3_stream_buffer+0x2c>
   2bb68: 03 ff ff 90  	adrp	x3, 0xb000 <_ZN8ChxUtils18WaitOnAcquireFenceEPK21camera3_stream_buffer+0x28>
   2bb6c: e5 fe ff b0  	adrp	x5, 0x8000 <_ZN8ChxUtils18WaitOnAcquireFenceEPK21camera3_stream_buffer+0x20>
   2bb88: c2 4a 00 94  	bl	0x3e690 <_ZN6ChiLog9LogSystemEPKcS1_S1_S1_iS1_z@plt>
   2bb94: 73 4c 00 94  	bl	0x3ed60 <_ZN8ChxUtils15NativeFenceWaitEij@plt>
   2bba0: a9 04 30 36  	tbz	w9, #6, 0x2bc34 <_ZN8ChxUtils18WaitOnAcquireFenceEPK21camera3_stream_buffer+0x174>
   2bbac: 21 02 00 54  	b.ne	0x2bbf0 <_ZN8ChxUtils18WaitOnAcquireFenceEPK21camera3_stream_buffer+0x130>
   2bbc4: 21 ff ff 90  	adrp	x1, 0xf000 <_ZN8ChxUtils18WaitOnAcquireFenceEPK21camera3_stream_buffer+0x94>
   2bbc8: 22 ff ff b0  	adrp	x2, 0x10000 <_ZN8ChxUtils18WaitOnAcquireFenceEPK21camera3_stream_buffer+0x9c>
   2bbcc: 05 ff ff 90  	adrp	x5, 0xb000 <_ZN8ChxUtils18WaitOnAcquireFenceEPK21camera3_stream_buffer+0x8c>
   2bc04: e1 fe ff b0  	adrp	x1, 0x8000 <_ZN8ChxUtils18WaitOnAcquireFenceEPK21camera3_stream_buffer+0xb8>
   2bc0c: 00 ff ff d0  	adrp	x0, 0xd000 <_ZN8ChxUtils18WaitOnAcquireFenceEPK21camera3_stream_buffer+0xd4>
   2bc10: 03 ff ff 90  	adrp	x3, 0xb000 <_ZN8ChxUtils18WaitOnAcquireFenceEPK21camera3_stream_buffer+0xd0>
   2bc14: 05 ff ff b0  	adrp	x5, 0xc000 <_ZN8ChxUtils18WaitOnAcquireFenceEPK21camera3_stream_buffer+0xd8>
   2bc30: 98 4a 00 94  	bl	0x3e690 <_ZN6ChiLog9LogSystemEPKcS1_S1_S1_iS1_z@plt>
   2bc3c: 02 00 00 14  	b	0x2bc44 <_ZN8ChxUtils18WaitOnAcquireFenceEPK21camera3_stream_buffer+0x184>
000000000002bc58 <_ZN8ChxUtils15AndroidMetadata12FillCameraIdEPvj>:
   2bc78: e0 09 00 b4  	cbz	x0, 0x2bdb4 <_ZN8ChxUtils15AndroidMetadata12FillCameraIdEPvj+0x15c>
   2bc94: 83 4a 00 94  	bl	0x3e6a0 <_ZN15ExtensionModule11GetInstanceEv@plt>
   2bca8: e0 00 00 35  	cbnz	w0, 0x2bcc4 <_ZN8ChxUtils15AndroidMetadata12FillCameraIdEPvj+0x6c>
   2bcb0: a8 00 00 b4  	cbz	x8, 0x2bcc4 <_ZN8ChxUtils15AndroidMetadata12FillCameraIdEPvj+0x6c>
   2bcc4: a9 00 00 90  	adrp	x9, 0x3f000 <_ZN8ChxUtils15AndroidMetadata12FillCameraIdEPvj+0xbc>
   2bcd8: 48 05 18 36  	tbz	w8, #3, 0x2bd80 <_ZN8ChxUtils15AndroidMetadata12FillCameraIdEPvj+0x128>
   2bcdc: aa 00 00 90  	adrp	x10, 0x3f000 <_ZN8ChxUtils15AndroidMetadata12FillCameraIdEPvj+0xd4>
   2bce0: 15 ff ff d0  	adrp	x21, 0xd000 <_ZN8ChxUtils15AndroidMetadata12FillCameraIdEPvj+0x10>
   2bcf4: 21 02 00 54  	b.ne	0x2bd38 <_ZN8ChxUtils15AndroidMetadata12FillCameraIdEPvj+0xe0>
   2bd0c: 21 ff ff 90  	adrp	x1, 0xf000 <_ZN8ChxUtils15AndroidMetadata12FillCameraIdEPvj+0x44>
   2bd10: e2 fe ff f0  	adrp	x2, 0xa000 <_ZN8ChxUtils15AndroidMetadata12FillCameraIdEPvj+0x34>
   2bd14: 25 ff ff 90  	adrp	x5, 0xf000 <_ZN8ChxUtils15AndroidMetadata12FillCameraIdEPvj+0x4c>
   2bd4c: 01 ff ff b0  	adrp	x1, 0xc000 <_ZN8ChxUtils15AndroidMetadata12FillCameraIdEPvj+0x78>
   2bd54: 20 ff ff 90  	adrp	x0, 0xf000 <_ZN8ChxUtils15AndroidMetadata12FillCameraIdEPvj+0x8c>
   2bd58: 23 ff ff 90  	adrp	x3, 0xf000 <_ZN8ChxUtils15AndroidMetadata12FillCameraIdEPvj+0x90>
   2bd5c: e5 fe ff f0  	adrp	x5, 0xa000 <_ZN8ChxUtils15AndroidMetadata12FillCameraIdEPvj+0x80>
   2bd78: 46 4a 00 94  	bl	0x3e690 <_ZN6ChiLog9LogSystemEPKcS1_S1_S1_iS1_z@plt>
   2bd84: 47 4a 00 94  	bl	0x3e6a0 <_ZN15ExtensionModule11GetInstanceEv@plt>
   2bd9c: e0 01 00 34  	cbz	w0, 0x2bdd8 <_ZN8ChxUtils15AndroidMetadata12FillCameraIdEPvj+0x180>
   2bdc0: 41 02 00 54  	b.ne	0x2be08 <_ZN8ChxUtils15AndroidMetadata12FillCameraIdEPvj+0x1b0>
   2be04: 00 fe ff 54  	b.eq	0x2bdc4 <_ZN8ChxUtils15AndroidMetadata12FillCameraIdEPvj+0x16c>
000000000002be10 <_ZN8ChxUtils15AndroidMetadata11GetFpsRangeEPKvPiS3_>:
   2be50: 60 01 00 34  	cbz	w0, 0x2be7c <_ZN8ChxUtils15AndroidMetadata11GetFpsRangeEPKvPiS3_+0x6c>
   2be64: 81 07 00 54  	b.ne	0x2bf54 <_ZN8ChxUtils15AndroidMetadata11GetFpsRangeEPKvPiS3_+0x144>
   2be88: a8 00 00 90  	adrp	x8, 0x3f000 <_ZN8ChxUtils15AndroidMetadata11GetFpsRangeEPKvPiS3_+0xc8>
   2be9c: 2a 05 18 36  	tbz	w10, #3, 0x2bf40 <_ZN8ChxUtils15AndroidMetadata11GetFpsRangeEPKvPiS3_+0x130>
   2bea0: a9 00 00 90  	adrp	x9, 0x3f000 <_ZN8ChxUtils15AndroidMetadata11GetFpsRangeEPKvPiS3_+0xe0>
   2bea4: 13 ff ff d0  	adrp	x19, 0xd000 <_ZN8ChxUtils15AndroidMetadata11GetFpsRangeEPKvPiS3_+0x1c>
   2beb8: 21 02 00 54  	b.ne	0x2befc <_ZN8ChxUtils15AndroidMetadata11GetFpsRangeEPKvPiS3_+0xec>
   2bed4: 21 ff ff 90  	adrp	x1, 0xf000 <_ZN8ChxUtils15AndroidMetadata11GetFpsRangeEPKvPiS3_+0x54>
   2bed8: 02 ff ff b0  	adrp	x2, 0xc000 <_ZN8ChxUtils15AndroidMetadata11GetFpsRangeEPKvPiS3_+0x4c>
   2bedc: e5 fe ff d0  	adrp	x5, 0x9000 <_ZN8ChxUtils15AndroidMetadata11GetFpsRangeEPKvPiS3_+0x44>
   2bf10: 01 ff ff b0  	adrp	x1, 0xc000 <_ZN8ChxUtils15AndroidMetadata11GetFpsRangeEPKvPiS3_+0x84>
   2bf1c: 20 ff ff 90  	adrp	x0, 0xf000 <_ZN8ChxUtils15AndroidMetadata11GetFpsRangeEPKvPiS3_+0x9c>
   2bf20: e3 fe ff d0  	adrp	x3, 0x9000 <_ZN8ChxUtils15AndroidMetadata11GetFpsRangeEPKvPiS3_+0x88>
   2bf24: 05 ff ff b0  	adrp	x5, 0xc000 <_ZN8ChxUtils15AndroidMetadata11GetFpsRangeEPKvPiS3_+0x98>
   2bf3c: d5 49 00 94  	bl	0x3e690 <_ZN6ChiLog9LogSystemEPKcS1_S1_S1_iS1_z@plt>
   2bf50: c0 f8 ff 54  	b.eq	0x2be68 <_ZN8ChxUtils15AndroidMetadata11GetFpsRangeEPKvPiS3_+0x58>
000000000002bf58 <_ZN8ChxUtils15AndroidMetadata10GetZSLModeEPv>:
   2bf90: e0 00 00 34  	cbz	w0, 0x2bfac <_ZN8ChxUtils15AndroidMetadata10GetZSLModeEPv+0x54>
   2bf98: a9 00 00 90  	adrp	x9, 0x3f000 <_ZN8ChxUtils15AndroidMetadata10GetZSLModeEPv+0x90>
   2bfa4: 08 01 30 37  	tbnz	w8, #6, 0x2bfc4 <_ZN8ChxUtils15AndroidMetadata10GetZSLModeEPv+0x6c>
   2bfa8: 2f 00 00 14  	b	0x2c064 <_ZN8ChxUtils15AndroidMetadata10GetZSLModeEPv+0x10c>
   2bfb4: a9 00 00 90  	adrp	x9, 0x3f000 <_ZN8ChxUtils15AndroidMetadata10GetZSLModeEPv+0xac>
   2bfc0: 28 05 30 36  	tbz	w8, #6, 0x2c064 <_ZN8ChxUtils15AndroidMetadata10GetZSLModeEPv+0x10c>
   2bfc4: aa 00 00 90  	adrp	x10, 0x3f000 <_ZN8ChxUtils15AndroidMetadata10GetZSLModeEPv+0xbc>
   2bfc8: 14 ff ff d0  	adrp	x20, 0xd000 <_ZN8ChxUtils15AndroidMetadata11GetFpsRangeEPKvPiS3_+0x140>
   2bfdc: 21 02 00 54  	b.ne	0x2c020 <_ZN8ChxUtils15AndroidMetadata10GetZSLModeEPv+0xc8>
   2bff4: 21 ff ff 90  	adrp	x1, 0xf000 <_ZN8ChxUtils15AndroidMetadata10GetZSLModeEPv+0x2c>
   2bff8: 02 ff ff d0  	adrp	x2, 0xd000 <_ZN8ChxUtils15AndroidMetadata10GetZSLModeEPv+0x28>
   2bffc: 05 ff ff b0  	adrp	x5, 0xc000 <_ZN8ChxUtils15AndroidMetadata10GetZSLModeEPv+0x28>
   2c034: e1 fe ff 90  	adrp	x1, 0x8000 <_ZN8ChxUtils15AndroidMetadata10GetZSLModeEPv+0x4c>
   2c03c: 00 ff ff b0  	adrp	x0, 0xd000 <_ZN8ChxUtils15AndroidMetadata10GetZSLModeEPv+0x68>
   2c040: 03 ff ff 90  	adrp	x3, 0xc000 <_ZN8ChxUtils15AndroidMetadata10GetZSLModeEPv+0x68>
   2c044: 05 ff ff b0  	adrp	x5, 0xd000 <_ZN8ChxUtils15AndroidMetadata10GetZSLModeEPv+0x70>
   2c060: 8c 49 00 94  	bl	0x3e690 <_ZN6ChiLog9LogSystemEPKcS1_S1_S1_iS1_z@plt>
   2c070: e1 00 00 54  	b.ne	0x2c08c <_ZN8ChxUtils15AndroidMetadata10GetZSLModeEPv+0x134>
000000000002c090 <_ZN8ChxUtils15AndroidMetadata12GetBokehModeEPKv>:
   2c0b4: 20 01 00 b4  	cbz	x0, 0x2c0d8 <_ZN8ChxUtils15AndroidMetadata12GetBokehModeEPKv+0x48>
   2c0d4: e0 00 00 34  	cbz	w0, 0x2c0f0 <_ZN8ChxUtils15AndroidMetadata12GetBokehModeEPKv+0x60>
   2c0dc: 89 00 00 f0  	adrp	x9, 0x3f000 <_ZN8ChxUtils15AndroidMetadata12GetBokehModeEPKv+0x98>
   2c0e8: 08 01 18 37  	tbnz	w8, #3, 0x2c108 <_ZN8ChxUtils15AndroidMetadata12GetBokehModeEPKv+0x78>
   2c0ec: 31 00 00 14  	b	0x2c1b0 <_ZN8ChxUtils15AndroidMetadata12GetBokehModeEPKv+0x120>
   2c0f8: 89 00 00 f0  	adrp	x9, 0x3f000 <_ZN8ChxUtils15AndroidMetadata12GetBokehModeEPKv+0xb4>
   2c104: 68 05 18 36  	tbz	w8, #3, 0x2c1b0 <_ZN8ChxUtils15AndroidMetadata12GetBokehModeEPKv+0x120>
   2c108: 8a 00 00 f0  	adrp	x10, 0x3f000 <_ZN8ChxUtils15AndroidMetadata12GetBokehModeEPKv+0xc4>
   2c10c: 15 ff ff b0  	adrp	x21, 0xd000 <_ZN8ChxUtils15AndroidMetadata12GetBokehModeEPKv>
   2c120: 41 02 00 54  	b.ne	0x2c168 <_ZN8ChxUtils15AndroidMetadata12GetBokehModeEPKv+0xd8>
   2c138: 01 ff ff f0  	adrp	x1, 0xf000 <_ZN8ChxUtils15AndroidMetadata12GetBokehModeEPKv+0x34>
   2c13c: 02 ff ff b0  	adrp	x2, 0xd000 <_ZN8ChxUtils15AndroidMetadata12GetBokehModeEPKv+0x30>
   2c140: 05 ff ff f0  	adrp	x5, 0xf000 <_ZN8ChxUtils15AndroidMetadata12GetBokehModeEPKv+0x3c>
   2c17c: 01 ff ff 90  	adrp	x1, 0xc000 <_ZN8ChxUtils15AndroidMetadata12GetBokehModeEPKv+0x6c>
   2c184: 00 ff ff f0  	adrp	x0, 0xf000 <_ZN8ChxUtils15AndroidMetadata12GetBokehModeEPKv+0x80>
   2c188: 03 ff ff f0  	adrp	x3, 0xf000 <_ZN8ChxUtils15AndroidMetadata12GetBokehModeEPKv+0x84>
   2c18c: e5 fe ff f0  	adrp	x5, 0xb000 <_ZN8ChxUtils15AndroidMetadata12GetBokehModeEPKv+0x78>
   2c1ac: 39 49 00 94  	bl	0x3e690 <_ZN6ChiLog9LogSystemEPKcS1_S1_S1_iS1_z@plt>
   2c1bc: e1 00 00 54  	b.ne	0x2c1d8 <_ZN8ChxUtils15AndroidMetadata12GetBokehModeEPKv+0x148>
000000000002c1e0 <_ZN8ChxUtils15AndroidMetadata18FillTuningModeDataEPvP23camera3_capture_requestjPjS4_S4_S4_>:
   2c20c: c0 1a 00 b4  	cbz	x0, 0x2c564 <_ZN8ChxUtils15AndroidMetadata18FillTuningModeDataEPvP23camera3_capture_requestjPjS4_S4_S4_+0x384>
   2c210: c8 fe ff f0  	adrp	x8, 0x7000 <_ZN8ChxUtils15AndroidMetadata12GetBokehModeEPKv+0xec>
   2c260: c4 4a 00 94  	bl	0x3ed70 <_ZN8ChxUtils14GetUsecaseModeEP23camera3_capture_request@plt>
   2c274: 0b 49 00 94  	bl	0x3e6a0 <_ZN15ExtensionModule11GetInstanceEv@plt>
   2c288: 60 00 00 34  	cbz	w0, 0x2c294 <_ZN8ChxUtils15AndroidMetadata18FillTuningModeDataEPvP23camera3_capture_requestjPjS4_S4_S4_+0xb4>
   2c290: 04 00 00 14  	b	0x2c2a0 <_ZN8ChxUtils15AndroidMetadata18FillTuningModeDataEPvP23camera3_capture_requestjPjS4_S4_S4_+0xc0>
   2c2a0: 9c 00 00 f0  	adrp	x28, 0x3f000 <_ZN8ChxUtils15AndroidMetadata18FillTuningModeDataEPvP23camera3_capture_requestjPjS4_S4_S4_+0x10c>
   2c2a4: 9b 00 00 f0  	adrp	x27, 0x3f000 <_ZN8ChxUtils15AndroidMetadata18FillTuningModeDataEPvP23camera3_capture_requestjPjS4_S4_S4_+0x110>
   2c2ac: 14 ff ff b0  	adrp	x20, 0xd000 <_ZN8ChxUtils15AndroidMetadata18FillTuningModeDataEPvP23camera3_capture_requestjPjS4_S4_S4_+0x50>
   2c2c0: cd 04 30 36  	tbz	w13, #6, 0x2c358 <_ZN8ChxUtils15AndroidMetadata18FillTuningModeDataEPvP23camera3_capture_requestjPjS4_S4_S4_+0x178>
   2c2cc: 21 02 00 54  	b.ne	0x2c310 <_ZN8ChxUtils15AndroidMetadata18FillTuningModeDataEPvP23camera3_capture_requestjPjS4_S4_S4_+0x130>
   2c2e4: 01 ff ff f0  	adrp	x1, 0xf000 <_ZN8ChxUtils15AndroidMetadata18FillTuningModeDataEPvP23camera3_capture_requestjPjS4_S4_S4_+0x90>
   2c2e8: 02 ff ff f0  	adrp	x2, 0xf000 <_ZN8ChxUtils15AndroidMetadata18FillTuningModeDataEPvP23camera3_capture_requestjPjS4_S4_S4_+0x94>
   2c2ec: e5 fe ff f0  	adrp	x5, 0xb000 <_ZN8ChxUtils15AndroidMetadata18FillTuningModeDataEPvP23camera3_capture_requestjPjS4_S4_S4_+0x88>
   2c324: e1 fe ff 90  	adrp	x1, 0x8000 <_ZN8ChxUtils15AndroidMetadata18FillTuningModeDataEPvP23camera3_capture_requestjPjS4_S4_S4_+0xb4>
   2c32c: 00 ff ff b0  	adrp	x0, 0xd000 <_ZN8ChxUtils15AndroidMetadata18FillTuningModeDataEPvP23camera3_capture_requestjPjS4_S4_S4_+0xd0>
   2c330: e3 fe ff f0  	adrp	x3, 0xb000 <_ZN8ChxUtils15AndroidMetadata18FillTuningModeDataEPvP23camera3_capture_requestjPjS4_S4_S4_+0xcc>
   2c334: e5 fe ff b0  	adrp	x5, 0x9000 <_ZN8ChxUtils15AndroidMetadata18FillTuningModeDataEPvP23camera3_capture_requestjPjS4_S4_S4_+0xc8>
   2c350: d0 48 00 94  	bl	0x3e690 <_ZN6ChiLog9LogSystemEPKcS1_S1_S1_iS1_z@plt>
   2c398: 60 01 00 35  	cbnz	w0, 0x2c3c4 <_ZN8ChxUtils15AndroidMetadata18FillTuningModeDataEPvP23camera3_capture_requestjPjS4_S4_S4_+0x1e4>
   2c3a8: e1 00 00 54  	b.ne	0x2c3c4 <_ZN8ChxUtils15AndroidMetadata18FillTuningModeDataEPvP23camera3_capture_requestjPjS4_S4_S4_+0x1e4>
   2c3c0: a0 0e 00 34  	cbz	w0, 0x2c594 <_ZN8ChxUtils15AndroidMetadata18FillTuningModeDataEPvP23camera3_capture_requestjPjS4_S4_S4_+0x3b4>
   2c3c8: 2c ff ff 90  	adrp	x12, 0x10000 <_ZN8ChxUtils15AndroidMetadata18FillTuningModeDataEPvP23camera3_capture_requestjPjS4_S4_S4_+0x178>
   2c3fc: 60 00 00 34  	cbz	w0, 0x2c408 <_ZN8ChxUtils15AndroidMetadata18FillTuningModeDataEPvP23camera3_capture_requestjPjS4_S4_S4_+0x228>
   2c404: 04 00 00 14  	b	0x2c414 <_ZN8ChxUtils15AndroidMetadata18FillTuningModeDataEPvP23camera3_capture_requestjPjS4_S4_S4_+0x234>
   2c414: 2e ff ff 90  	adrp	x14, 0x10000 <_ZN8ChxUtils15AndroidMetadata18FillTuningModeDataEPvP23camera3_capture_requestjPjS4_S4_S4_+0x1c4>
   2c430: 9c 48 00 94  	bl	0x3e6a0 <_ZN15ExtensionModule11GetInstanceEv@plt>
   2c448: 20 01 00 34  	cbz	w0, 0x2c46c <_ZN8ChxUtils15AndroidMetadata18FillTuningModeDataEPvP23camera3_capture_requestjPjS4_S4_S4_+0x28c>
   2c464: 86 01 28 37  	tbnz	w6, #5, 0x2c494 <_ZN8ChxUtils15AndroidMetadata18FillTuningModeDataEPvP23camera3_capture_requestjPjS4_S4_S4_+0x2b4>
   2c468: 3f 00 00 14  	b	0x2c564 <_ZN8ChxUtils15AndroidMetadata18FillTuningModeDataEPvP23camera3_capture_requestjPjS4_S4_S4_+0x384>
   2c490: a6 06 28 36  	tbz	w6, #5, 0x2c564 <_ZN8ChxUtils15AndroidMetadata18FillTuningModeDataEPvP23camera3_capture_requestjPjS4_S4_S4_+0x384>
   2c49c: 21 03 00 54  	b.ne	0x2c500 <_ZN8ChxUtils15AndroidMetadata18FillTuningModeDataEPvP23camera3_capture_requestjPjS4_S4_S4_+0x320>
   2c4bc: 01 ff ff f0  	adrp	x1, 0xf000 <_ZN8ChxUtils15AndroidMetadata18FillTuningModeDataEPvP23camera3_capture_requestjPjS4_S4_S4_+0x268>
   2c4c4: e2 fe ff d0  	adrp	x2, 0xa000 <_ZN8ChxUtils15AndroidMetadata18FillTuningModeDataEPvP23camera3_capture_requestjPjS4_S4_S4_+0x25c>
   2c4cc: e5 fe ff f0  	adrp	x5, 0xb000 <_ZN8ChxUtils15AndroidMetadata18FillTuningModeDataEPvP23camera3_capture_requestjPjS4_S4_S4_+0x268>
   2c524: 00 ff ff d0  	adrp	x0, 0xe000 <_ZN8ChxUtils15AndroidMetadata18FillTuningModeDataEPvP23camera3_capture_requestjPjS4_S4_S4_+0x2cc>
   2c52c: 01 ff ff 90  	adrp	x1, 0xc000 <_ZN8ChxUtils15AndroidMetadata18FillTuningModeDataEPvP23camera3_capture_requestjPjS4_S4_S4_+0x2cc>
   2c530: e3 fe ff f0  	adrp	x3, 0xb000 <_ZN8ChxUtils15AndroidMetadata18FillTuningModeDataEPvP23camera3_capture_requestjPjS4_S4_S4_+0x2cc>
   2c534: e5 fe ff d0  	adrp	x5, 0xa000 <_ZN8ChxUtils15AndroidMetadata18FillTuningModeDataEPvP23camera3_capture_requestjPjS4_S4_S4_+0x2cc>
   2c560: 4c 48 00 94  	bl	0x3e690 <_ZN6ChiLog9LogSystemEPKcS1_S1_S1_iS1_z@plt>
   2c570: a1 01 00 54  	b.ne	0x2c5a4 <_ZN8ChxUtils15AndroidMetadata18FillTuningModeDataEPvP23camera3_capture_requestjPjS4_S4_S4_+0x3c4>
   2c5a0: 8a ff ff 17  	b	0x2c3c8 <_ZN8ChxUtils15AndroidMetadata18FillTuningModeDataEPvP23camera3_capture_requestjPjS4_S4_S4_+0x1e8>
000000000002c5a8 <_ZN8ChxUtils15AndroidMetadata15UpdateTimeStampEP15camera_metadatamj>:
   2c5f8: 00 01 00 34  	cbz	w0, 0x2c618 <_ZN8ChxUtils15AndroidMetadata15UpdateTimeStampEP15camera_metadatamj+0x70>
   2c614: 11 00 00 14  	b	0x2c658 <_ZN8ChxUtils15AndroidMetadata15UpdateTimeStampEP15camera_metadatamj+0xb0>
   2c624: e1 00 00 54  	b.ne	0x2c640 <_ZN8ChxUtils15AndroidMetadata15UpdateTimeStampEP15camera_metadatamj+0x98>
   2c62c: 89 00 00 f0  	adrp	x9, 0x3f000 <_ZN8ChxUtils15AndroidMetadata15UpdateTimeStampEP15camera_metadatamj+0xd0>
   2c638: a8 01 30 37  	tbnz	w8, #6, 0x2c66c <_ZN8ChxUtils15AndroidMetadata15UpdateTimeStampEP15camera_metadatamj+0xc4>
   2c63c: 54 00 00 14  	b	0x2c78c <_ZN8ChxUtils15AndroidMetadata15UpdateTimeStampEP15camera_metadatamj+0x1e4>
   2c65c: 89 00 00 f0  	adrp	x9, 0x3f000 <_ZN8ChxUtils15AndroidMetadata15UpdateTimeStampEP15camera_metadatamj+0x100>
   2c668: 28 09 30 36  	tbz	w8, #6, 0x2c78c <_ZN8ChxUtils15AndroidMetadata15UpdateTimeStampEP15camera_metadatamj+0x1e4>
   2c66c: 8a 00 00 f0  	adrp	x10, 0x3f000 <_ZN8ChxUtils15AndroidMetadata15UpdateTimeStampEP15camera_metadatamj+0x110>
   2c670: 16 ff ff b0  	adrp	x22, 0xd000 <_ZN8ChxUtils15AndroidMetadata15UpdateTimeStampEP15camera_metadatamj+0x4c>
   2c684: 21 04 00 54  	b.ne	0x2c708 <_ZN8ChxUtils15AndroidMetadata15UpdateTimeStampEP15camera_metadatamj+0x160>
   2c6c4: 60 00 00 35  	cbnz	w0, 0x2c6d0 <_ZN8ChxUtils15AndroidMetadata15UpdateTimeStampEP15camera_metadatamj+0x128>
   2c6d0: 01 ff ff f0  	adrp	x1, 0xf000 <_ZN8ChxUtils15AndroidMetadata15UpdateTimeStampEP15camera_metadatamj+0xb4>
   2c6d4: e2 fe ff f0  	adrp	x2, 0xb000 <_ZN8ChxUtils15AndroidMetadata15UpdateTimeStampEP15camera_metadatamj+0xa8>
   2c6d8: 05 ff ff b0  	adrp	x5, 0xd000 <_ZN8ChxUtils15AndroidMetadata15UpdateTimeStampEP15camera_metadatamj+0xb4>
   2c744: 60 00 00 35  	cbnz	w0, 0x2c750 <_ZN8ChxUtils15AndroidMetadata15UpdateTimeStampEP15camera_metadatamj+0x1a8>
   2c750: 00 ff ff b0  	adrp	x0, 0xd000 <_ZN8ChxUtils15AndroidMetadata15UpdateTimeStampEP15camera_metadatamj+0x12c>
   2c754: e1 fe ff 90  	adrp	x1, 0x8000 <_ZN8ChxUtils15AndroidMetadata15UpdateTimeStampEP15camera_metadatamj+0x11c>
   2c758: 03 ff ff b0  	adrp	x3, 0xd000 <_ZN8ChxUtils15AndroidMetadata15UpdateTimeStampEP15camera_metadatamj+0x134>
   2c75c: c5 fe ff f0  	adrp	x5, 0x7000 <_ZN8ChxUtils15AndroidMetadata15UpdateTimeStampEP15camera_metadatamj+0x120>
   2c788: c2 47 00 94  	bl	0x3e690 <_ZN6ChiLog9LogSystemEPKcS1_S1_S1_iS1_z@plt>
   2c7a0: 01 01 00 54  	b.ne	0x2c7c0 <_ZN8ChxUtils15AndroidMetadata15UpdateTimeStampEP15camera_metadatamj+0x218>
000000000002c7c8 <_ZN8ChxUtils15AndroidMetadata12GetTimeStampEP15camera_metadata>:
   2c800: 60 00 00 35  	cbnz	w0, 0x2c80c <_ZN8ChxUtils15AndroidMetadata12GetTimeStampEP15camera_metadata+0x44>
   2c818: c1 00 00 54  	b.ne	0x2c830 <_ZN8ChxUtils15AndroidMetadata12GetTimeStampEP15camera_metadata+0x68>
000000000002c838 <_ZN8ChxUtils10GetZSLModeEP11ChiMetadata>:
   2c87c: e8 00 00 b4  	cbz	x8, 0x2c898 <_ZN8ChxUtils10GetZSLModeEP11ChiMetadata+0x60>
   2c884: 89 00 00 f0  	adrp	x9, 0x3f000 <_ZN8ChxUtils10GetZSLModeEP11ChiMetadata+0x98>
   2c890: e8 00 30 37  	tbnz	w8, #6, 0x2c8ac <_ZN8ChxUtils10GetZSLModeEP11ChiMetadata+0x74>
   2c894: 2e 00 00 14  	b	0x2c94c <_ZN8ChxUtils10GetZSLModeEP11ChiMetadata+0x114>
   2c89c: 89 00 00 f0  	adrp	x9, 0x3f000 <_ZN8ChxUtils10GetZSLModeEP11ChiMetadata+0xb0>
   2c8a8: 28 05 30 36  	tbz	w8, #6, 0x2c94c <_ZN8ChxUtils10GetZSLModeEP11ChiMetadata+0x114>
   2c8ac: 8a 00 00 f0  	adrp	x10, 0x3f000 <_ZN8ChxUtils10GetZSLModeEP11ChiMetadata+0xc0>
   2c8b0: 14 ff ff b0  	adrp	x20, 0xd000 <_ZN8ChxUtils15AndroidMetadata12GetTimeStampEP15camera_metadata+0x6c>
   2c8c4: 21 02 00 54  	b.ne	0x2c908 <_ZN8ChxUtils10GetZSLModeEP11ChiMetadata+0xd0>
   2c8dc: 01 ff ff f0  	adrp	x1, 0xf000 <_ZN8ChxUtils10GetZSLModeEP11ChiMetadata+0x30>
   2c8e0: 02 ff ff b0  	adrp	x2, 0xd000 <_ZN8ChxUtils10GetZSLModeEP11ChiMetadata+0x2c>
   2c8e4: 05 ff ff 90  	adrp	x5, 0xc000 <_ZN8ChxUtils10GetZSLModeEP11ChiMetadata+0x2c>
   2c91c: e1 fe ff 90  	adrp	x1, 0x8000 <_ZN8ChxUtils10GetZSLModeEP11ChiMetadata+0x54>
   2c924: 00 ff ff b0  	adrp	x0, 0xd000 <_ZN8ChxUtils10GetZSLModeEP11ChiMetadata+0x70>
   2c928: 03 ff ff 90  	adrp	x3, 0xc000 <_ZN8ChxUtils10GetZSLModeEP11ChiMetadata+0x70>
   2c92c: 05 ff ff b0  	adrp	x5, 0xd000 <_ZN8ChxUtils10GetZSLModeEP11ChiMetadata+0x78>
   2c948: 52 47 00 94  	bl	0x3e690 <_ZN6ChiLog9LogSystemEPKcS1_S1_S1_iS1_z@plt>
   2c958: e1 00 00 54  	b.ne	0x2c974 <_ZN8ChxUtils10GetZSLModeEP11ChiMetadata+0x13c>
000000000002c978 <_ZN8ChxUtils12GetFlashModeEP11ChiMetadata>:
   2c9bc: e8 00 00 b4  	cbz	x8, 0x2c9d8 <_ZN8ChxUtils12GetFlashModeEP11ChiMetadata+0x60>
   2c9c4: 89 00 00 f0  	adrp	x9, 0x3f000 <_ZN8ChxUtils12GetFlashModeEP11ChiMetadata+0x98>
   2c9d0: e8 00 18 37  	tbnz	w8, #3, 0x2c9ec <_ZN8ChxUtils12GetFlashModeEP11ChiMetadata+0x74>
   2c9d4: 2e 00 00 14  	b	0x2ca8c <_ZN8ChxUtils12GetFlashModeEP11ChiMetadata+0x114>
   2c9dc: 89 00 00 f0  	adrp	x9, 0x3f000 <_ZN8ChxUtils12GetFlashModeEP11ChiMetadata+0xb0>
   2c9e8: 28 05 18 36  	tbz	w8, #3, 0x2ca8c <_ZN8ChxUtils12GetFlashModeEP11ChiMetadata+0x114>
   2c9ec: 8a 00 00 f0  	adrp	x10, 0x3f000 <_ZN8ChxUtils12GetFlashModeEP11ChiMetadata+0xc0>
   2c9f0: 14 ff ff b0  	adrp	x20, 0xd000 <_ZN8ChxUtils10GetZSLModeEP11ChiMetadata+0x13c>
   2ca04: 21 02 00 54  	b.ne	0x2ca48 <_ZN8ChxUtils12GetFlashModeEP11ChiMetadata+0xd0>
   2ca1c: 01 ff ff f0  	adrp	x1, 0xf000 <_ZN8ChxUtils12GetFlashModeEP11ChiMetadata+0x30>
   2ca20: 02 ff ff d0  	adrp	x2, 0xe000 <_ZN8ChxUtils12GetFlashModeEP11ChiMetadata+0x30>
   2ca24: 25 ff ff 90  	adrp	x5, 0x10000 <_ZN8ChxUtils12GetFlashModeEP11ChiMetadata+0x3c>
   2ca5c: 01 ff ff 90  	adrp	x1, 0xc000 <_ZN8ChxUtils12GetFlashModeEP11ChiMetadata+0x64>
   2ca64: 00 ff ff f0  	adrp	x0, 0xf000 <_ZN8ChxUtils12GetFlashModeEP11ChiMetadata+0x78>
   2ca68: 23 ff ff 90  	adrp	x3, 0x10000 <_ZN8ChxUtils12GetFlashModeEP11ChiMetadata+0x80>
   2ca6c: 05 ff ff 90  	adrp	x5, 0xc000 <_ZN8ChxUtils12GetFlashModeEP11ChiMetadata+0x74>
   2ca88: 02 47 00 94  	bl	0x3e690 <_ZN6ChiLog9LogSystemEPKcS1_S1_S1_iS1_z@plt>
   2caa0: c1 00 00 54  	b.ne	0x2cab8 <_ZN8ChxUtils12GetFlashModeEP11ChiMetadata+0x140>
000000000002cac0 <_ZN8ChxUtils18GetFlashFiredStateEP11ChiMetadata>:
   2cb04: e8 00 00 b4  	cbz	x8, 0x2cb20 <_ZN8ChxUtils18GetFlashFiredStateEP11ChiMetadata+0x60>
   2cb0c: 89 00 00 f0  	adrp	x9, 0x3f000 <_ZN8ChxUtils18GetFlashFiredStateEP11ChiMetadata+0x98>
   2cb18: e8 00 18 37  	tbnz	w8, #3, 0x2cb34 <_ZN8ChxUtils18GetFlashFiredStateEP11ChiMetadata+0x74>
   2cb1c: 2e 00 00 14  	b	0x2cbd4 <_ZN8ChxUtils18GetFlashFiredStateEP11ChiMetadata+0x114>
   2cb24: 89 00 00 f0  	adrp	x9, 0x3f000 <_ZN8ChxUtils18GetFlashFiredStateEP11ChiMetadata+0xb0>
   2cb30: 28 05 18 36  	tbz	w8, #3, 0x2cbd4 <_ZN8ChxUtils18GetFlashFiredStateEP11ChiMetadata+0x114>
   2cb34: 8a 00 00 f0  	adrp	x10, 0x3f000 <_ZN8ChxUtils18GetFlashFiredStateEP11ChiMetadata+0xc0>
   2cb38: 14 ff ff b0  	adrp	x20, 0xd000 <_ZN8ChxUtils12GetFlashModeEP11ChiMetadata+0x144>
   2cb4c: 21 02 00 54  	b.ne	0x2cb90 <_ZN8ChxUtils18GetFlashFiredStateEP11ChiMetadata+0xd0>
   2cb64: 01 ff ff f0  	adrp	x1, 0xf000 <_ZN8ChxUtils18GetFlashFiredStateEP11ChiMetadata+0x30>
   2cb68: e2 fe ff b0  	adrp	x2, 0x9000 <_ZN8ChxUtils18GetFlashFiredStateEP11ChiMetadata+0x1c>
   2cb6c: 05 ff ff 90  	adrp	x5, 0xc000 <_ZN8ChxUtils18GetFlashFiredStateEP11ChiMetadata+0x2c>
   2cba4: 01 ff ff 90  	adrp	x1, 0xc000 <_ZN8ChxUtils18GetFlashFiredStateEP11ChiMetadata+0x64>
   2cbac: 00 ff ff f0  	adrp	x0, 0xf000 <_ZN8ChxUtils18GetFlashFiredStateEP11ChiMetadata+0x78>
   2cbb0: 03 ff ff 90  	adrp	x3, 0xc000 <_ZN8ChxUtils18GetFlashFiredStateEP11ChiMetadata+0x70>
   2cbb4: 05 ff ff b0  	adrp	x5, 0xd000 <_ZN8ChxUtils18GetFlashFiredStateEP11ChiMetadata+0x78>
   2cbd0: b0 46 00 94  	bl	0x3e690 <_ZN6ChiLog9LogSystemEPKcS1_S1_S1_iS1_z@plt>
   2cbe8: c1 00 00 54  	b.ne	0x2cc00 <_ZN8ChxUtils18GetFlashFiredStateEP11ChiMetadata+0x140>
000000000002cc08 <_ZN8ChxUtils17SetVendorTagValueEP11ChiMetadata9VendorTagjPv>:
   2cc28: 9e 46 00 94  	bl	0x3e6a0 <_ZN15ExtensionModule11GetInstanceEv@plt>
000000000002cc60 <_ZN8ChxUtils12GetSceneModeEP11ChiMetadataPj>:
   2ccac: 08 02 00 b4  	cbz	x8, 0x2ccec <_ZN8ChxUtils12GetSceneModeEP11ChiMetadataPj+0x8c>
   2ccd8: a1 00 00 54  	b.ne	0x2ccec <_ZN8ChxUtils12GetSceneModeEP11ChiMetadataPj+0x8c>
   2cce0: 69 00 00 b4  	cbz	x9, 0x2ccec <_ZN8ChxUtils12GetSceneModeEP11ChiMetadataPj+0x8c>
   2ccec: 6d 46 00 94  	bl	0x3e6a0 <_ZN15ExtensionModule11GetInstanceEv@plt>
   2cd20: a8 00 00 54  	b.hi	0x2cd34 <_ZN8ChxUtils12GetSceneModeEP11ChiMetadataPj+0xd4>
   2cd24: 2c ff ff 90  	adrp	x12, 0x10000 <_ZN8ChxUtils12GetSceneModeEP11ChiMetadataPj+0x54>
   2cd40: c1 00 00 54  	b.ne	0x2cd58 <_ZN8ChxUtils12GetSceneModeEP11ChiMetadataPj+0xf8>
000000000002cd60 <_ZN8ChxUtils13GetEffectModeEP11ChiMetadataPj>:
   2cda4: 48 02 00 b4  	cbz	x8, 0x2cdec <_ZN8ChxUtils13GetEffectModeEP11ChiMetadataPj+0x8c>
   2cdb8: a2 00 00 54  	b.hs	0x2cdcc <_ZN8ChxUtils13GetEffectModeEP11ChiMetadataPj+0x6c>
   2cdbc: 29 ff ff 90  	adrp	x9, 0x10000 <_ZN8ChxUtils12GetSceneModeEP11ChiMetadataPj+0xec>
   2cdd8: 41 01 00 54  	b.ne	0x2ce00 <_ZN8ChxUtils13GetEffectModeEP11ChiMetadataPj+0xa0>
   2cdf8: 23 fe ff 54  	b.lo	0x2cdbc <_ZN8ChxUtils13GetEffectModeEP11ChiMetadataPj+0x5c>
   2cdfc: f4 ff ff 17  	b	0x2cdcc <_ZN8ChxUtils13GetEffectModeEP11ChiMetadataPj+0x6c>
000000000002ce08 <_ZN8ChxUtils15GetFeature1ModeEP11ChiMetadataPj>:
   2ce30: 1c 46 00 94  	bl	0x3e6a0 <_ZN15ExtensionModule11GetInstanceEv@plt>
   2ce54: 08 01 00 b4  	cbz	x8, 0x2ce74 <_ZN8ChxUtils15GetFeature1ModeEP11ChiMetadataPj+0x6c>
   2ce60: 89 00 00 f0  	adrp	x9, 0x3f000 <_ZN8ChxUtils15GetFeature1ModeEP11ChiMetadataPj+0xa4>
   2ce6c: e8 00 30 37  	tbnz	w8, #6, 0x2ce88 <_ZN8ChxUtils15GetFeature1ModeEP11ChiMetadataPj+0x80>
   2ce70: 2e 00 00 14  	b	0x2cf28 <_ZN8ChxUtils15GetFeature1ModeEP11ChiMetadataPj+0x120>
   2ce78: 89 00 00 f0  	adrp	x9, 0x3f000 <_ZN8ChxUtils15GetFeature1ModeEP11ChiMetadataPj+0xbc>
   2ce84: 28 05 30 36  	tbz	w8, #6, 0x2cf28 <_ZN8ChxUtils15GetFeature1ModeEP11ChiMetadataPj+0x120>
   2ce88: 8a 00 00 f0  	adrp	x10, 0x3f000 <_ZN8ChxUtils15GetFeature1ModeEP11ChiMetadataPj+0xcc>
   2ce8c: 14 ff ff b0  	adrp	x20, 0xd000 <_ZN8ChxUtils15GetFeature1ModeEP11ChiMetadataPj+0x8>
   2cea0: 21 02 00 54  	b.ne	0x2cee4 <_ZN8ChxUtils15GetFeature1ModeEP11ChiMetadataPj+0xdc>
   2ceb8: 01 ff ff f0  	adrp	x1, 0xf000 <_ZN8ChxUtils15GetFeature1ModeEP11ChiMetadataPj+0x3c>
   2cebc: 02 ff ff f0  	adrp	x2, 0xf000 <_ZN8ChxUtils15GetFeature1ModeEP11ChiMetadataPj+0x40>
   2cec0: e5 fe ff f0  	adrp	x5, 0xb000 <_ZN8ChxUtils15GetFeature1ModeEP11ChiMetadataPj+0x34>
   2cef8: e1 fe ff 90  	adrp	x1, 0x8000 <_ZN8ChxUtils15GetFeature1ModeEP11ChiMetadataPj+0x60>
   2cf00: 00 ff ff b0  	adrp	x0, 0xd000 <_ZN8ChxUtils15GetFeature1ModeEP11ChiMetadataPj+0x7c>
   2cf04: e3 fe ff f0  	adrp	x3, 0xb000 <_ZN8ChxUtils15GetFeature1ModeEP11ChiMetadataPj+0x78>
   2cf08: e5 fe ff b0  	adrp	x5, 0x9000 <_ZN8ChxUtils15GetFeature1ModeEP11ChiMetadataPj+0x74>
   2cf24: db 45 00 94  	bl	0x3e690 <_ZN6ChiLog9LogSystemEPKcS1_S1_S1_iS1_z@plt>
   2cf34: e1 00 00 54  	b.ne	0x2cf50 <_ZN8ChxUtils15GetFeature1ModeEP11ChiMetadataPj+0x148>
000000000002cf58 <_ZN8ChxUtils12FillCameraIdEP11ChiMetadataj>:
   2cf7c: c0 0e 00 b4  	cbz	x0, 0x2d154 <_ZN8ChxUtils12FillCameraIdEP11ChiMetadataj+0x1fc>
   2cf90: c4 45 00 94  	bl	0x3e6a0 <_ZN15ExtensionModule11GetInstanceEv@plt>
   2cfb4: 98 00 00 f0  	adrp	x24, 0x3f000 <_ZN8ChxUtils12FillCameraIdEP11ChiMetadataj+0xa8>
   2cfc0: c8 00 00 b4  	cbz	x8, 0x2cfd8 <_ZN8ChxUtils12FillCameraIdEP11ChiMetadataj+0x80>
   2cfd4: 2d 00 00 14  	b	0x2d088 <_ZN8ChxUtils12FillCameraIdEP11ChiMetadataj+0x130>
   2cfdc: 68 05 30 36  	tbz	w8, #6, 0x2d088 <_ZN8ChxUtils12FillCameraIdEP11ChiMetadataj+0x130>
   2cfe0: 89 00 00 f0  	adrp	x9, 0x3f000 <_ZN8ChxUtils12FillCameraIdEP11ChiMetadataj+0xd4>
   2cff0: 61 02 00 54  	b.ne	0x2d03c <_ZN8ChxUtils12FillCameraIdEP11ChiMetadataj+0xe4>
   2cff4: 16 ff ff b0  	adrp	x22, 0xd000 <_ZN8ChxUtils12FillCameraIdEP11ChiMetadataj+0x20>
   2d010: 01 ff ff d0  	adrp	x1, 0xf000 <_ZN8ChxUtils12FillCameraIdEP11ChiMetadataj+0x40>
   2d014: 02 ff ff b0  	adrp	x2, 0xe000 <_ZN8ChxUtils12FillCameraIdEP11ChiMetadataj+0x40>
   2d018: e5 fe ff d0  	adrp	x5, 0xb000 <_ZN8ChxUtils12FillCameraIdEP11ChiMetadataj+0x38>
   2d03c: 16 ff ff 90  	adrp	x22, 0xd000 <_ZN8ChxUtils12FillCameraIdEP11ChiMetadataj+0x64>
   2d058: c1 fe ff f0  	adrp	x1, 0x8000 <_ZN8ChxUtils12FillCameraIdEP11ChiMetadataj+0x6c>
   2d060: 00 ff ff 90  	adrp	x0, 0xd000 <_ZN8ChxUtils12FillCameraIdEP11ChiMetadataj+0x88>
   2d064: e3 fe ff d0  	adrp	x3, 0xb000 <_ZN8ChxUtils12FillCameraIdEP11ChiMetadataj+0x84>
   2d068: e5 fe ff 90  	adrp	x5, 0x9000 <_ZN8ChxUtils12FillCameraIdEP11ChiMetadataj+0x80>
   2d084: 83 45 00 94  	bl	0x3e690 <_ZN6ChiLog9LogSystemEPKcS1_S1_S1_iS1_z@plt>
   2d090: 29 05 30 36  	tbz	w9, #6, 0x2d134 <_ZN8ChxUtils12FillCameraIdEP11ChiMetadataj+0x1dc>
   2d094: 8a 00 00 d0  	adrp	x10, 0x3f000 <_ZN8ChxUtils12FillCameraIdEP11ChiMetadataj+0x184>
   2d098: 15 ff ff 90  	adrp	x21, 0xd000 <_ZN8ChxUtils12FillCameraIdEP11ChiMetadataj+0xc0>
   2d0ac: 21 02 00 54  	b.ne	0x2d0f0 <_ZN8ChxUtils12FillCameraIdEP11ChiMetadataj+0x198>
   2d0c4: 01 ff ff d0  	adrp	x1, 0xf000 <_ZN8ChxUtils12FillCameraIdEP11ChiMetadataj+0xf4>
   2d0c8: 02 ff ff d0  	adrp	x2, 0xf000 <_ZN8ChxUtils12FillCameraIdEP11ChiMetadataj+0xf8>
   2d0cc: 05 ff ff d0  	adrp	x5, 0xf000 <_ZN8ChxUtils12FillCameraIdEP11ChiMetadataj+0xfc>
   2d104: c1 fe ff f0  	adrp	x1, 0x8000 <_ZN8ChxUtils12FillCameraIdEP11ChiMetadataj+0x118>
   2d10c: 00 ff ff 90  	adrp	x0, 0xd000 <_ZN8ChxUtils12FillCameraIdEP11ChiMetadataj+0x134>
   2d110: 03 ff ff d0  	adrp	x3, 0xf000 <_ZN8ChxUtils12FillCameraIdEP11ChiMetadataj+0x140>
   2d114: e5 fe ff b0  	adrp	x5, 0xa000 <_ZN8ChxUtils12FillCameraIdEP11ChiMetadataj+0x130>
   2d130: 58 45 00 94  	bl	0x3e690 <_ZN6ChiLog9LogSystemEPKcS1_S1_S1_iS1_z@plt>
   2d134: 5b 45 00 94  	bl	0x3e6a0 <_ZN15ExtensionModule11GetInstanceEv@plt>
   2d160: e1 00 00 54  	b.ne	0x2d17c <_ZN8ChxUtils12FillCameraIdEP11ChiMetadataj+0x224>
000000000002d180 <_ZN8ChxUtils15GetFeatureValueEP23camera3_capture_requestPv26ChiModeFeature2SubModeType25ChiModeUsecaseSubModeTypeS3_>:
   2d1a4: 3f 45 00 94  	bl	0x3e6a0 <_ZN15ExtensionModule11GetInstanceEv@plt>
   2d1bc: 49 04 00 b4  	cbz	x9, 0x2d244 <_ZN8ChxUtils15GetFeatureValueEP23camera3_capture_requestPv26ChiModeFeature2SubModeType25ChiModeUsecaseSubModeTypeS3_+0xc4>
   2d1c8: 61 09 00 54  	b.ne	0x2d2f4 <_ZN8ChxUtils15GetFeatureValueEP23camera3_capture_requestPv26ChiModeFeature2SubModeType25ChiModeUsecaseSubModeTypeS3_+0x174>
   2d1dc: c1 08 00 54  	b.ne	0x2d2f4 <_ZN8ChxUtils15GetFeatureValueEP23camera3_capture_requestPv26ChiModeFeature2SubModeType25ChiModeUsecaseSubModeTypeS3_+0x174>
   2d1ec: 41 08 00 54  	b.ne	0x2d2f4 <_ZN8ChxUtils15GetFeatureValueEP23camera3_capture_requestPv26ChiModeFeature2SubModeType25ChiModeUsecaseSubModeTypeS3_+0x174>
   2d200: a1 07 00 54  	b.ne	0x2d2f4 <_ZN8ChxUtils15GetFeatureValueEP23camera3_capture_requestPv26ChiModeFeature2SubModeType25ChiModeUsecaseSubModeTypeS3_+0x174>
   2d210: 21 07 00 54  	b.ne	0x2d2f4 <_ZN8ChxUtils15GetFeatureValueEP23camera3_capture_requestPv26ChiModeFeature2SubModeType25ChiModeUsecaseSubModeTypeS3_+0x174>
   2d21c: c0 06 00 54  	b.eq	0x2d2f4 <_ZN8ChxUtils15GetFeatureValueEP23camera3_capture_requestPv26ChiModeFeature2SubModeType25ChiModeUsecaseSubModeTypeS3_+0x174>
   2d220: a8 06 00 35  	cbnz	w8, 0x2d2f4 <_ZN8ChxUtils15GetFeatureValueEP23camera3_capture_requestPv26ChiModeFeature2SubModeType25ChiModeUsecaseSubModeTypeS3_+0x174>
   2d230: 20 06 00 54  	b.eq	0x2d2f4 <_ZN8ChxUtils15GetFeatureValueEP23camera3_capture_requestPv26ChiModeFeature2SubModeType25ChiModeUsecaseSubModeTypeS3_+0x174>
   2d238: e9 05 00 35  	cbnz	w9, 0x2d2f4 <_ZN8ChxUtils15GetFeatureValueEP23camera3_capture_requestPv26ChiModeFeature2SubModeType25ChiModeUsecaseSubModeTypeS3_+0x174>
   2d240: a4 02 00 14  	b	0x2dcd0 <_ZN8ChxUtils15GetFeatureValueEP23camera3_capture_requestPv26ChiModeFeature2SubModeType25ChiModeUsecaseSubModeTypeS3_+0xb50>
   2d244: 80 00 00 d0  	adrp	x0, 0x3f000 <_ZN8ChxUtils15GetFeatureValueEP23camera3_capture_requestPv26ChiModeFeature2SubModeType25ChiModeUsecaseSubModeTypeS3_+0x10c>
   2d250: 28 05 00 36  	tbz	w8, #0, 0x2d2f4 <_ZN8ChxUtils15GetFeatureValueEP23camera3_capture_requestPv26ChiModeFeature2SubModeType25ChiModeUsecaseSubModeTypeS3_+0x174>
   2d254: 88 00 00 d0  	adrp	x8, 0x3f000 <_ZN8ChxUtils15GetFeatureValueEP23camera3_capture_requestPv26ChiModeFeature2SubModeType25ChiModeUsecaseSubModeTypeS3_+0x11c>
   2d258: 17 ff ff 90  	adrp	x23, 0xd000 <_ZN8ChxUtils15GetFeatureValueEP23camera3_capture_requestPv26ChiModeFeature2SubModeType25ChiModeUsecaseSubModeTypeS3_+0x58>
   2d26c: 21 02 00 54  	b.ne	0x2d2b0 <_ZN8ChxUtils15GetFeatureValueEP23camera3_capture_requestPv26ChiModeFeature2SubModeType25ChiModeUsecaseSubModeTypeS3_+0x130>
   2d288: 01 ff ff d0  	adrp	x1, 0xf000 <_ZN8ChxUtils15GetFeatureValueEP23camera3_capture_requestPv26ChiModeFeature2SubModeType25ChiModeUsecaseSubModeTypeS3_+0x90>
   2d28c: 02 ff ff d0  	adrp	x2, 0xf000 <_ZN8ChxUtils15GetFeatureValueEP23camera3_capture_requestPv26ChiModeFeature2SubModeType25ChiModeUsecaseSubModeTypeS3_+0x94>
   2d290: 05 ff ff b0  	adrp	x5, 0xe000 <_ZN8ChxUtils15GetFeatureValueEP23camera3_capture_requestPv26ChiModeFeature2SubModeType25ChiModeUsecaseSubModeTypeS3_+0x94>
   2d2cc: c0 fe ff f0  	adrp	x0, 0x8000 <_ZN8ChxUtils15GetFeatureValueEP23camera3_capture_requestPv26ChiModeFeature2SubModeType25ChiModeUsecaseSubModeTypeS3_+0xb8>
   2d2d0: 01 ff ff b0  	adrp	x1, 0xe000 <_ZN8ChxUtils15GetFeatureValueEP23camera3_capture_requestPv26ChiModeFeature2SubModeType25ChiModeUsecaseSubModeTypeS3_+0xd4>
   2d2d4: 03 ff ff b0  	adrp	x3, 0xe000 <_ZN8ChxUtils15GetFeatureValueEP23camera3_capture_requestPv26ChiModeFeature2SubModeType25ChiModeUsecaseSubModeTypeS3_+0xd8>
   2d2d8: 05 ff ff b0  	adrp	x5, 0xe000 <_ZN8ChxUtils15GetFeatureValueEP23camera3_capture_requestPv26ChiModeFeature2SubModeType25ChiModeUsecaseSubModeTypeS3_+0xdc>
   2d2f0: e8 44 00 94  	bl	0x3e690 <_ZN6ChiLog9LogSystemEPKcS1_S1_S1_iS1_z@plt>
   2d2fc: 21 02 00 54  	b.ne	0x2d340 <_ZN8ChxUtils15GetFeatureValueEP23camera3_capture_requestPv26ChiModeFeature2SubModeType25ChiModeUsecaseSubModeTypeS3_+0x1c0>
   2d304: 89 02 00 34  	cbz	w9, 0x2d354 <_ZN8ChxUtils15GetFeatureValueEP23camera3_capture_requestPv26ChiModeFeature2SubModeType25ChiModeUsecaseSubModeTypeS3_+0x1d4>
   2d338: 01 ff ff 54  	b.ne	0x2d318 <_ZN8ChxUtils15GetFeatureValueEP23camera3_capture_requestPv26ChiModeFeature2SubModeType25ChiModeUsecaseSubModeTypeS3_+0x198>
   2d33c: 08 00 00 14  	b	0x2d35c <_ZN8ChxUtils15GetFeatureValueEP23camera3_capture_requestPv26ChiModeFeature2SubModeType25ChiModeUsecaseSubModeTypeS3_+0x1dc>
   2d350: 60 02 00 14  	b	0x2dcd0 <_ZN8ChxUtils15GetFeatureValueEP23camera3_capture_requestPv26ChiModeFeature2SubModeType25ChiModeUsecaseSubModeTypeS3_+0xb50>
   2d35c: b6 00 00 90  	adrp	x22, 0x41000 <_ZN8ChxUtils15GetFeatureValueEP23camera3_capture_requestPv26ChiModeFeature2SubModeType25ChiModeUsecaseSubModeTypeS3_+0x22c>
   2d36c: c8 02 00 b4  	cbz	x8, 0x2d3c4 <_ZN8ChxUtils15GetFeatureValueEP23camera3_capture_requestPv26ChiModeFeature2SubModeType25ChiModeUsecaseSubModeTypeS3_+0x244>
   2d374: 05 00 00 14  	b	0x2d388 <_ZN8ChxUtils15GetFeatureValueEP23camera3_capture_requestPv26ChiModeFeature2SubModeType25ChiModeUsecaseSubModeTypeS3_+0x208>
   2d37c: aa 04 00 b4  	cbz	x10, 0x2d410 <_ZN8ChxUtils15GetFeatureValueEP23camera3_capture_requestPv26ChiModeFeature2SubModeType25ChiModeUsecaseSubModeTypeS3_+0x290>
   2d390: 4a ff ff 54  	b.ge	0x2d378 <_ZN8ChxUtils15GetFeatureValueEP23camera3_capture_requestPv26ChiModeFeature2SubModeType25ChiModeUsecaseSubModeTypeS3_+0x1f8>
   2d398: 80 00 00 54  	b.eq	0x2d3a8 <_ZN8ChxUtils15GetFeatureValueEP23camera3_capture_requestPv26ChiModeFeature2SubModeType25ChiModeUsecaseSubModeTypeS3_+0x228>
   2d3a4: 0a ff ff b5  	cbnz	x10, 0x2d384 <_ZN8ChxUtils15GetFeatureValueEP23camera3_capture_requestPv26ChiModeFeature2SubModeType25ChiModeUsecaseSubModeTypeS3_+0x204>
   2d3b0: 13 01 00 b4  	cbz	x19, 0x2d3d0 <_ZN8ChxUtils15GetFeatureValueEP23camera3_capture_requestPv26ChiModeFeature2SubModeType25ChiModeUsecaseSubModeTypeS3_+0x250>
   2d3bc: 68 04 00 54  	b.hi	0x2d448 <_ZN8ChxUtils15GetFeatureValueEP23camera3_capture_requestPv26ChiModeFeature2SubModeType25ChiModeUsecaseSubModeTypeS3_+0x2c8>
   2d3c0: ad 00 00 14  	b	0x2d674 <_ZN8ChxUtils15GetFeatureValueEP23camera3_capture_requestPv26ChiModeFeature2SubModeType25ChiModeUsecaseSubModeTypeS3_+0x4f4>
   2d3cc: 53 ff ff b5  	cbnz	x19, 0x2d3b4 <_ZN8ChxUtils15GetFeatureValueEP23camera3_capture_requestPv26ChiModeFeature2SubModeType25ChiModeUsecaseSubModeTypeS3_+0x234>
   2d400: 22 01 00 b4  	cbz	x2, 0x2d424 <_ZN8ChxUtils15GetFeatureValueEP23camera3_capture_requestPv26ChiModeFeature2SubModeType25ChiModeUsecaseSubModeTypeS3_+0x2a4>
   2d40c: 07 00 00 14  	b	0x2d428 <_ZN8ChxUtils15GetFeatureValueEP23camera3_capture_requestPv26ChiModeFeature2SubModeType25ChiModeUsecaseSubModeTypeS3_+0x2a8>
   2d41c: d3 fc ff b5  	cbnz	x19, 0x2d3b4 <_ZN8ChxUtils15GetFeatureValueEP23camera3_capture_requestPv26ChiModeFeature2SubModeType25ChiModeUsecaseSubModeTypeS3_+0x234>
   2d420: ec ff ff 17  	b	0x2d3d0 <_ZN8ChxUtils15GetFeatureValueEP23camera3_capture_requestPv26ChiModeFeature2SubModeType25ChiModeUsecaseSubModeTypeS3_+0x250>
   2d444: 89 11 00 54  	b.ls	0x2d674 <_ZN8ChxUtils15GetFeatureValueEP23camera3_capture_requestPv26ChiModeFeature2SubModeType25ChiModeUsecaseSubModeTypeS3_+0x4f4>
   2d450: c9 02 00 b4  	cbz	x9, 0x2d4a8 <_ZN8ChxUtils15GetFeatureValueEP23camera3_capture_requestPv26ChiModeFeature2SubModeType25ChiModeUsecaseSubModeTypeS3_+0x328>
   2d458: 05 00 00 14  	b	0x2d46c <_ZN8ChxUtils15GetFeatureValueEP23camera3_capture_requestPv26ChiModeFeature2SubModeType25ChiModeUsecaseSubModeTypeS3_+0x2ec>
   2d460: ab 04 00 b4  	cbz	x11, 0x2d4f4 <_ZN8ChxUtils15GetFeatureValueEP23camera3_capture_requestPv26ChiModeFeature2SubModeType25ChiModeUsecaseSubModeTypeS3_+0x374>
   2d474: 4a ff ff 54  	b.ge	0x2d45c <_ZN8ChxUtils15GetFeatureValueEP23camera3_capture_requestPv26ChiModeFeature2SubModeType25ChiModeUsecaseSubModeTypeS3_+0x2dc>
   2d47c: 80 00 00 54  	b.eq	0x2d48c <_ZN8ChxUtils15GetFeatureValueEP23camera3_capture_requestPv26ChiModeFeature2SubModeType25ChiModeUsecaseSubModeTypeS3_+0x30c>
   2d488: 0b ff ff b5  	cbnz	x11, 0x2d468 <_ZN8ChxUtils15GetFeatureValueEP23camera3_capture_requestPv26ChiModeFeature2SubModeType25ChiModeUsecaseSubModeTypeS3_+0x2e8>
   2d494: 13 01 00 b4  	cbz	x19, 0x2d4b4 <_ZN8ChxUtils15GetFeatureValueEP23camera3_capture_requestPv26ChiModeFeature2SubModeType25ChiModeUsecaseSubModeTypeS3_+0x334>
   2d4a0: 69 04 00 54  	b.ls	0x2d52c <_ZN8ChxUtils15GetFeatureValueEP23camera3_capture_requestPv26ChiModeFeature2SubModeType25ChiModeUsecaseSubModeTypeS3_+0x3ac>
   2d4a4: 74 00 00 14  	b	0x2d674 <_ZN8ChxUtils15GetFeatureValueEP23camera3_capture_requestPv26ChiModeFeature2SubModeType25ChiModeUsecaseSubModeTypeS3_+0x4f4>
   2d4b0: 53 ff ff b5  	cbnz	x19, 0x2d498 <_ZN8ChxUtils15GetFeatureValueEP23camera3_capture_requestPv26ChiModeFeature2SubModeType25ChiModeUsecaseSubModeTypeS3_+0x318>
   2d4e4: 23 01 00 b4  	cbz	x3, 0x2d508 <_ZN8ChxUtils15GetFeatureValueEP23camera3_capture_requestPv26ChiModeFeature2SubModeType25ChiModeUsecaseSubModeTypeS3_+0x388>
   2d4f0: 07 00 00 14  	b	0x2d50c <_ZN8ChxUtils15GetFeatureValueEP23camera3_capture_requestPv26ChiModeFeature2SubModeType25ChiModeUsecaseSubModeTypeS3_+0x38c>
   2d500: d3 fc ff b5  	cbnz	x19, 0x2d498 <_ZN8ChxUtils15GetFeatureValueEP23camera3_capture_requestPv26ChiModeFeature2SubModeType25ChiModeUsecaseSubModeTypeS3_+0x318>
   2d504: ec ff ff 17  	b	0x2d4b4 <_ZN8ChxUtils15GetFeatureValueEP23camera3_capture_requestPv26ChiModeFeature2SubModeType25ChiModeUsecaseSubModeTypeS3_+0x334>
   2d528: 68 0a 00 54  	b.hi	0x2d674 <_ZN8ChxUtils15GetFeatureValueEP23camera3_capture_requestPv26ChiModeFeature2SubModeType25ChiModeUsecaseSubModeTypeS3_+0x4f4>
   2d534: ea 02 00 b4  	cbz	x10, 0x2d590 <_ZN8ChxUtils15GetFeatureValueEP23camera3_capture_requestPv26ChiModeFeature2SubModeType25ChiModeUsecaseSubModeTypeS3_+0x410>
   2d53c: 02 00 00 14  	b	0x2d544 <_ZN8ChxUtils15GetFeatureValueEP23camera3_capture_requestPv26ChiModeFeature2SubModeType25ChiModeUsecaseSubModeTypeS3_+0x3c4>
   2d54c: ab 00 00 54  	b.lt	0x2d560 <_ZN8ChxUtils15GetFeatureValueEP23camera3_capture_requestPv26ChiModeFeature2SubModeType25ChiModeUsecaseSubModeTypeS3_+0x3e0>
   2d554: 4c 04 00 b4  	cbz	x12, 0x2d5dc <_ZN8ChxUtils15GetFeatureValueEP23camera3_capture_requestPv26ChiModeFeature2SubModeType25ChiModeUsecaseSubModeTypeS3_+0x45c>
   2d55c: f9 ff ff 17  	b	0x2d540 <_ZN8ChxUtils15GetFeatureValueEP23camera3_capture_requestPv26ChiModeFeature2SubModeType25ChiModeUsecaseSubModeTypeS3_+0x3c0>
   2d564: 80 00 00 54  	b.eq	0x2d574 <_ZN8ChxUtils15GetFeatureValueEP23camera3_capture_requestPv26ChiModeFeature2SubModeType25ChiModeUsecaseSubModeTypeS3_+0x3f4>
   2d570: 8c fe ff b5  	cbnz	x12, 0x2d540 <_ZN8ChxUtils15GetFeatureValueEP23camera3_capture_requestPv26ChiModeFeature2SubModeType25ChiModeUsecaseSubModeTypeS3_+0x3c0>
   2d57c: 13 01 00 b4  	cbz	x19, 0x2d59c <_ZN8ChxUtils15GetFeatureValueEP23camera3_capture_requestPv26ChiModeFeature2SubModeType25ChiModeUsecaseSubModeTypeS3_+0x41c>
   2d588: 68 04 00 54  	b.hi	0x2d614 <_ZN8ChxUtils15GetFeatureValueEP23camera3_capture_requestPv26ChiModeFeature2SubModeType25ChiModeUsecaseSubModeTypeS3_+0x494>
   2d58c: 3a 00 00 14  	b	0x2d674 <_ZN8ChxUtils15GetFeatureValueEP23camera3_capture_requestPv26ChiModeFeature2SubModeType25ChiModeUsecaseSubModeTypeS3_+0x4f4>
   2d598: 53 ff ff b5  	cbnz	x19, 0x2d580 <_ZN8ChxUtils15GetFeatureValueEP23camera3_capture_requestPv26ChiModeFeature2SubModeType25ChiModeUsecaseSubModeTypeS3_+0x400>
   2d5cc: 25 01 00 b4  	cbz	x5, 0x2d5f0 <_ZN8ChxUtils15GetFeatureValueEP23camera3_capture_requestPv26ChiModeFeature2SubModeType25ChiModeUsecaseSubModeTypeS3_+0x470>
   2d5d8: 07 00 00 14  	b	0x2d5f4 <_ZN8ChxUtils15GetFeatureValueEP23camera3_capture_requestPv26ChiModeFeature2SubModeType25ChiModeUsecaseSubModeTypeS3_+0x474>
   2d5e8: d3 fc ff b5  	cbnz	x19, 0x2d580 <_ZN8ChxUtils15GetFeatureValueEP23camera3_capture_requestPv26ChiModeFeature2SubModeType25ChiModeUsecaseSubModeTypeS3_+0x400>
   2d5ec: ec ff ff 17  	b	0x2d59c <_ZN8ChxUtils15GetFeatureValueEP23camera3_capture_requestPv26ChiModeFeature2SubModeType25ChiModeUsecaseSubModeTypeS3_+0x41c>
   2d610: 29 03 00 54  	b.ls	0x2d674 <_ZN8ChxUtils15GetFeatureValueEP23camera3_capture_requestPv26ChiModeFeature2SubModeType25ChiModeUsecaseSubModeTypeS3_+0x4f4>
   2d61c: 4b 17 00 b4  	cbz	x11, 0x2d904 <_ZN8ChxUtils15GetFeatureValueEP23camera3_capture_requestPv26ChiModeFeature2SubModeType25ChiModeUsecaseSubModeTypeS3_+0x784>
   2d624: 02 00 00 14  	b	0x2d62c <_ZN8ChxUtils15GetFeatureValueEP23camera3_capture_requestPv26ChiModeFeature2SubModeType25ChiModeUsecaseSubModeTypeS3_+0x4ac>
   2d634: ab 00 00 54  	b.lt	0x2d648 <_ZN8ChxUtils15GetFeatureValueEP23camera3_capture_requestPv26ChiModeFeature2SubModeType25ChiModeUsecaseSubModeTypeS3_+0x4c8>
   2d63c: 8d 1b 00 b4  	cbz	x13, 0x2d9ac <_ZN8ChxUtils15GetFeatureValueEP23camera3_capture_requestPv26ChiModeFeature2SubModeType25ChiModeUsecaseSubModeTypeS3_+0x82c>
   2d644: f9 ff ff 17  	b	0x2d628 <_ZN8ChxUtils15GetFeatureValueEP23camera3_capture_requestPv26ChiModeFeature2SubModeType25ChiModeUsecaseSubModeTypeS3_+0x4a8>
   2d64c: 80 00 00 54  	b.eq	0x2d65c <_ZN8ChxUtils15GetFeatureValueEP23camera3_capture_requestPv26ChiModeFeature2SubModeType25ChiModeUsecaseSubModeTypeS3_+0x4dc>
   2d658: 8d fe ff b5  	cbnz	x13, 0x2d628 <_ZN8ChxUtils15GetFeatureValueEP23camera3_capture_requestPv26ChiModeFeature2SubModeType25ChiModeUsecaseSubModeTypeS3_+0x4a8>
   2d664: d3 1a 00 b4  	cbz	x19, 0x2d9bc <_ZN8ChxUtils15GetFeatureValueEP23camera3_capture_requestPv26ChiModeFeature2SubModeType25ChiModeUsecaseSubModeTypeS3_+0x83c>
   2d670: 09 20 00 54  	b.ls	0x2da70 <_ZN8ChxUtils15GetFeatureValueEP23camera3_capture_requestPv26ChiModeFeature2SubModeType25ChiModeUsecaseSubModeTypeS3_+0x8f0>
   2d67c: ec 02 00 b4  	cbz	x12, 0x2d6d8 <_ZN8ChxUtils15GetFeatureValueEP23camera3_capture_requestPv26ChiModeFeature2SubModeType25ChiModeUsecaseSubModeTypeS3_+0x558>
   2d684: 02 00 00 14  	b	0x2d68c <_ZN8ChxUtils15GetFeatureValueEP23camera3_capture_requestPv26ChiModeFeature2SubModeType25ChiModeUsecaseSubModeTypeS3_+0x50c>
   2d694: ab 00 00 54  	b.lt	0x2d6a8 <_ZN8ChxUtils15GetFeatureValueEP23camera3_capture_requestPv26ChiModeFeature2SubModeType25ChiModeUsecaseSubModeTypeS3_+0x528>
   2d69c: 4e 04 00 b4  	cbz	x14, 0x2d724 <_ZN8ChxUtils15GetFeatureValueEP23camera3_capture_requestPv26ChiModeFeature2SubModeType25ChiModeUsecaseSubModeTypeS3_+0x5a4>
   2d6a4: f9 ff ff 17  	b	0x2d688 <_ZN8ChxUtils15GetFeatureValueEP23camera3_capture_requestPv26ChiModeFeature2SubModeType25ChiModeUsecaseSubModeTypeS3_+0x508>
   2d6ac: 80 00 00 54  	b.eq	0x2d6bc <_ZN8ChxUtils15GetFeatureValueEP23camera3_capture_requestPv26ChiModeFeature2SubModeType25ChiModeUsecaseSubModeTypeS3_+0x53c>
   2d6b8: 8e fe ff b5  	cbnz	x14, 0x2d688 <_ZN8ChxUtils15GetFeatureValueEP23camera3_capture_requestPv26ChiModeFeature2SubModeType25ChiModeUsecaseSubModeTypeS3_+0x508>
   2d6c4: 13 01 00 b4  	cbz	x19, 0x2d6e4 <_ZN8ChxUtils15GetFeatureValueEP23camera3_capture_requestPv26ChiModeFeature2SubModeType25ChiModeUsecaseSubModeTypeS3_+0x564>
   2d6d0: 68 04 00 54  	b.hi	0x2d75c <_ZN8ChxUtils15GetFeatureValueEP23camera3_capture_requestPv26ChiModeFeature2SubModeType25ChiModeUsecaseSubModeTypeS3_+0x5dc>
   2d6d4: f2 00 00 14  	b	0x2da9c <_ZN8ChxUtils15GetFeatureValueEP23camera3_capture_requestPv26ChiModeFeature2SubModeType25ChiModeUsecaseSubModeTypeS3_+0x91c>
   2d6e0: 53 ff ff b5  	cbnz	x19, 0x2d6c8 <_ZN8ChxUtils15GetFeatureValueEP23camera3_capture_requestPv26ChiModeFeature2SubModeType25ChiModeUsecaseSubModeTypeS3_+0x548>
   2d714: 28 01 00 b4  	cbz	x8, 0x2d738 <_ZN8ChxUtils15GetFeatureValueEP23camera3_capture_requestPv26ChiModeFeature2SubModeType25ChiModeUsecaseSubModeTypeS3_+0x5b8>
   2d720: 07 00 00 14  	b	0x2d73c <_ZN8ChxUtils15GetFeatureValueEP23camera3_capture_requestPv26ChiModeFeature2SubModeType25ChiModeUsecaseSubModeTypeS3_+0x5bc>
   2d730: d3 fc ff b5  	cbnz	x19, 0x2d6c8 <_ZN8ChxUtils15GetFeatureValueEP23camera3_capture_requestPv26ChiModeFeature2SubModeType25ChiModeUsecaseSubModeTypeS3_+0x548>
   2d734: ec ff ff 17  	b	0x2d6e4 <_ZN8ChxUtils15GetFeatureValueEP23camera3_capture_requestPv26ChiModeFeature2SubModeType25ChiModeUsecaseSubModeTypeS3_+0x564>
   2d758: 29 1a 00 54  	b.ls	0x2da9c <_ZN8ChxUtils15GetFeatureValueEP23camera3_capture_requestPv26ChiModeFeature2SubModeType25ChiModeUsecaseSubModeTypeS3_+0x91c>
   2d764: ed 02 00 b4  	cbz	x13, 0x2d7c0 <_ZN8ChxUtils15GetFeatureValueEP23camera3_capture_requestPv26ChiModeFeature2SubModeType25ChiModeUsecaseSubModeTypeS3_+0x640>
   2d76c: 02 00 00 14  	b	0x2d774 <_ZN8ChxUtils15GetFeatureValueEP23camera3_capture_requestPv26ChiModeFeature2SubModeType25ChiModeUsecaseSubModeTypeS3_+0x5f4>
   2d77c: ab 00 00 54  	b.lt	0x2d790 <_ZN8ChxUtils15GetFeatureValueEP23camera3_capture_requestPv26ChiModeFeature2SubModeType25ChiModeUsecaseSubModeTypeS3_+0x610>
   2d784: 4f 04 00 b4  	cbz	x15, 0x2d80c <_ZN8ChxUtils15GetFeatureValueEP23camera3_capture_requestPv26ChiModeFeature2SubModeType25ChiModeUsecaseSubModeTypeS3_+0x68c>
   2d78c: f9 ff ff 17  	b	0x2d770 <_ZN8ChxUtils15GetFeatureValueEP23camera3_capture_requestPv26ChiModeFeature2SubModeType25ChiModeUsecaseSubModeTypeS3_+0x5f0>
   2d794: 80 00 00 54  	b.eq	0x2d7a4 <_ZN8ChxUtils15GetFeatureValueEP23camera3_capture_requestPv26ChiModeFeature2SubModeType25ChiModeUsecaseSubModeTypeS3_+0x624>
   2d7a0: 8f fe ff b5  	cbnz	x15, 0x2d770 <_ZN8ChxUtils15GetFeatureValueEP23camera3_capture_requestPv26ChiModeFeature2SubModeType25ChiModeUsecaseSubModeTypeS3_+0x5f0>
   2d7ac: 13 01 00 b4  	cbz	x19, 0x2d7cc <_ZN8ChxUtils15GetFeatureValueEP23camera3_capture_requestPv26ChiModeFeature2SubModeType25ChiModeUsecaseSubModeTypeS3_+0x64c>
   2d7b8: 28 17 00 54  	b.hi	0x2da9c <_ZN8ChxUtils15GetFeatureValueEP23camera3_capture_requestPv26ChiModeFeature2SubModeType25ChiModeUsecaseSubModeTypeS3_+0x91c>
   2d7bc: 22 00 00 14  	b	0x2d844 <_ZN8ChxUtils15GetFeatureValueEP23camera3_capture_requestPv26ChiModeFeature2SubModeType25ChiModeUsecaseSubModeTypeS3_+0x6c4>
   2d7c8: 53 ff ff b5  	cbnz	x19, 0x2d7b0 <_ZN8ChxUtils15GetFeatureValueEP23camera3_capture_requestPv26ChiModeFeature2SubModeType25ChiModeUsecaseSubModeTypeS3_+0x630>
   2d7fc: 29 01 00 b4  	cbz	x9, 0x2d820 <_ZN8ChxUtils15GetFeatureValueEP23camera3_capture_requestPv26ChiModeFeature2SubModeType25ChiModeUsecaseSubModeTypeS3_+0x6a0>
   2d808: 07 00 00 14  	b	0x2d824 <_ZN8ChxUtils15GetFeatureValueEP23camera3_capture_requestPv26ChiModeFeature2SubModeType25ChiModeUsecaseSubModeTypeS3_+0x6a4>
   2d818: d3 fc ff b5  	cbnz	x19, 0x2d7b0 <_ZN8ChxUtils15GetFeatureValueEP23camera3_capture_requestPv26ChiModeFeature2SubModeType25ChiModeUsecaseSubModeTypeS3_+0x630>
   2d81c: ec ff ff 17  	b	0x2d7cc <_ZN8ChxUtils15GetFeatureValueEP23camera3_capture_requestPv26ChiModeFeature2SubModeType25ChiModeUsecaseSubModeTypeS3_+0x64c>
   2d840: e8 12 00 54  	b.hi	0x2da9c <_ZN8ChxUtils15GetFeatureValueEP23camera3_capture_requestPv26ChiModeFeature2SubModeType25ChiModeUsecaseSubModeTypeS3_+0x91c>
   2d84c: ce 02 00 b4  	cbz	x14, 0x2d8a4 <_ZN8ChxUtils15GetFeatureValueEP23camera3_capture_requestPv26ChiModeFeature2SubModeType25ChiModeUsecaseSubModeTypeS3_+0x724>
   2d854: 05 00 00 14  	b	0x2d868 <_ZN8ChxUtils15GetFeatureValueEP23camera3_capture_requestPv26ChiModeFeature2SubModeType25ChiModeUsecaseSubModeTypeS3_+0x6e8>
   2d85c: b0 04 00 b4  	cbz	x16, 0x2d8f0 <_ZN8ChxUtils15GetFeatureValueEP23camera3_capture_requestPv26ChiModeFeature2SubModeType25ChiModeUsecaseSubModeTypeS3_+0x770>
   2d870: 4a ff ff 54  	b.ge	0x2d858 <_ZN8ChxUtils15GetFeatureValueEP23camera3_capture_requestPv26ChiModeFeature2SubModeType25ChiModeUsecaseSubModeTypeS3_+0x6d8>
   2d878: 80 00 00 54  	b.eq	0x2d888 <_ZN8ChxUtils15GetFeatureValueEP23camera3_capture_requestPv26ChiModeFeature2SubModeType25ChiModeUsecaseSubModeTypeS3_+0x708>
   2d884: 10 ff ff b5  	cbnz	x16, 0x2d864 <_ZN8ChxUtils15GetFeatureValueEP23camera3_capture_requestPv26ChiModeFeature2SubModeType25ChiModeUsecaseSubModeTypeS3_+0x6e4>
   2d890: 13 01 00 b4  	cbz	x19, 0x2d8b0 <_ZN8ChxUtils15GetFeatureValueEP23camera3_capture_requestPv26ChiModeFeature2SubModeType25ChiModeUsecaseSubModeTypeS3_+0x730>
   2d89c: 03 10 00 54  	b.lo	0x2da9c <_ZN8ChxUtils15GetFeatureValueEP23camera3_capture_requestPv26ChiModeFeature2SubModeType25ChiModeUsecaseSubModeTypeS3_+0x91c>
   2d8a0: 26 00 00 14  	b	0x2d938 <_ZN8ChxUtils15GetFeatureValueEP23camera3_capture_requestPv26ChiModeFeature2SubModeType25ChiModeUsecaseSubModeTypeS3_+0x7b8>
   2d8ac: 53 ff ff b5  	cbnz	x19, 0x2d894 <_ZN8ChxUtils15GetFeatureValueEP23camera3_capture_requestPv26ChiModeFeature2SubModeType25ChiModeUsecaseSubModeTypeS3_+0x714>
   2d8e0: aa 01 00 b4  	cbz	x10, 0x2d914 <_ZN8ChxUtils15GetFeatureValueEP23camera3_capture_requestPv26ChiModeFeature2SubModeType25ChiModeUsecaseSubModeTypeS3_+0x794>
   2d8ec: 0b 00 00 14  	b	0x2d918 <_ZN8ChxUtils15GetFeatureValueEP23camera3_capture_requestPv26ChiModeFeature2SubModeType25ChiModeUsecaseSubModeTypeS3_+0x798>
   2d8fc: d3 fc ff b5  	cbnz	x19, 0x2d894 <_ZN8ChxUtils15GetFeatureValueEP23camera3_capture_requestPv26ChiModeFeature2SubModeType25ChiModeUsecaseSubModeTypeS3_+0x714>
   2d900: ec ff ff 17  	b	0x2d8b0 <_ZN8ChxUtils15GetFeatureValueEP23camera3_capture_requestPv26ChiModeFeature2SubModeType25ChiModeUsecaseSubModeTypeS3_+0x730>
   2d90c: f3 ea ff b5  	cbnz	x19, 0x2d668 <_ZN8ChxUtils15GetFeatureValueEP23camera3_capture_requestPv26ChiModeFeature2SubModeType25ChiModeUsecaseSubModeTypeS3_+0x4e8>
   2d910: 2b 00 00 14  	b	0x2d9bc <_ZN8ChxUtils15GetFeatureValueEP23camera3_capture_requestPv26ChiModeFeature2SubModeType25ChiModeUsecaseSubModeTypeS3_+0x83c>
   2d934: 43 0b 00 54  	b.lo	0x2da9c <_ZN8ChxUtils15GetFeatureValueEP23camera3_capture_requestPv26ChiModeFeature2SubModeType25ChiModeUsecaseSubModeTypeS3_+0x91c>
   2d940: ef 02 00 b4  	cbz	x15, 0x2d99c <_ZN8ChxUtils15GetFeatureValueEP23camera3_capture_requestPv26ChiModeFeature2SubModeType25ChiModeUsecaseSubModeTypeS3_+0x81c>
   2d948: 02 00 00 14  	b	0x2d950 <_ZN8ChxUtils15GetFeatureValueEP23camera3_capture_requestPv26ChiModeFeature2SubModeType25ChiModeUsecaseSubModeTypeS3_+0x7d0>
   2d958: ab 00 00 54  	b.lt	0x2d96c <_ZN8ChxUtils15GetFeatureValueEP23camera3_capture_requestPv26ChiModeFeature2SubModeType25ChiModeUsecaseSubModeTypeS3_+0x7ec>
   2d960: f1 04 00 b4  	cbz	x17, 0x2d9fc <_ZN8ChxUtils15GetFeatureValueEP23camera3_capture_requestPv26ChiModeFeature2SubModeType25ChiModeUsecaseSubModeTypeS3_+0x87c>
   2d968: f9 ff ff 17  	b	0x2d94c <_ZN8ChxUtils15GetFeatureValueEP23camera3_capture_requestPv26ChiModeFeature2SubModeType25ChiModeUsecaseSubModeTypeS3_+0x7cc>
   2d970: 80 00 00 54  	b.eq	0x2d980 <_ZN8ChxUtils15GetFeatureValueEP23camera3_capture_requestPv26ChiModeFeature2SubModeType25ChiModeUsecaseSubModeTypeS3_+0x800>
   2d97c: 91 fe ff b5  	cbnz	x17, 0x2d94c <_ZN8ChxUtils15GetFeatureValueEP23camera3_capture_requestPv26ChiModeFeature2SubModeType25ChiModeUsecaseSubModeTypeS3_+0x7cc>
   2d988: 33 04 00 b4  	cbz	x19, 0x2da0c <_ZN8ChxUtils15GetFeatureValueEP23camera3_capture_requestPv26ChiModeFeature2SubModeType25ChiModeUsecaseSubModeTypeS3_+0x88c>
   2d994: 42 08 00 54  	b.hs	0x2da9c <_ZN8ChxUtils15GetFeatureValueEP23camera3_capture_requestPv26ChiModeFeature2SubModeType25ChiModeUsecaseSubModeTypeS3_+0x91c>
   2d998: cd 00 00 14  	b	0x2dccc <_ZN8ChxUtils15GetFeatureValueEP23camera3_capture_requestPv26ChiModeFeature2SubModeType25ChiModeUsecaseSubModeTypeS3_+0xb4c>
   2d9a4: 53 ff ff b5  	cbnz	x19, 0x2d98c <_ZN8ChxUtils15GetFeatureValueEP23camera3_capture_requestPv26ChiModeFeature2SubModeType25ChiModeUsecaseSubModeTypeS3_+0x80c>
   2d9a8: 19 00 00 14  	b	0x2da0c <_ZN8ChxUtils15GetFeatureValueEP23camera3_capture_requestPv26ChiModeFeature2SubModeType25ChiModeUsecaseSubModeTypeS3_+0x88c>
   2d9b8: 93 e5 ff b5  	cbnz	x19, 0x2d668 <_ZN8ChxUtils15GetFeatureValueEP23camera3_capture_requestPv26ChiModeFeature2SubModeType25ChiModeUsecaseSubModeTypeS3_+0x4e8>
   2d9ec: 00 03 00 b4  	cbz	x0, 0x2da4c <_ZN8ChxUtils15GetFeatureValueEP23camera3_capture_requestPv26ChiModeFeature2SubModeType25ChiModeUsecaseSubModeTypeS3_+0x8cc>
   2d9f8: 16 00 00 14  	b	0x2da50 <_ZN8ChxUtils15GetFeatureValueEP23camera3_capture_requestPv26ChiModeFeature2SubModeType25ChiModeUsecaseSubModeTypeS3_+0x8d0>
   2da08: 33 fc ff b5  	cbnz	x19, 0x2d98c <_ZN8ChxUtils15GetFeatureValueEP23camera3_capture_requestPv26ChiModeFeature2SubModeType25ChiModeUsecaseSubModeTypeS3_+0x80c>
   2da3c: eb 01 00 b4  	cbz	x11, 0x2da78 <_ZN8ChxUtils15GetFeatureValueEP23camera3_capture_requestPv26ChiModeFeature2SubModeType25ChiModeUsecaseSubModeTypeS3_+0x8f8>
   2da48: 0d 00 00 14  	b	0x2da7c <_ZN8ChxUtils15GetFeatureValueEP23camera3_capture_requestPv26ChiModeFeature2SubModeType25ChiModeUsecaseSubModeTypeS3_+0x8fc>
   2da6c: 48 e0 ff 54  	b.hi	0x2d674 <_ZN8ChxUtils15GetFeatureValueEP23camera3_capture_requestPv26ChiModeFeature2SubModeType25ChiModeUsecaseSubModeTypeS3_+0x4f4>
   2da74: 97 00 00 14  	b	0x2dcd0 <_ZN8ChxUtils15GetFeatureValueEP23camera3_capture_requestPv26ChiModeFeature2SubModeType25ChiModeUsecaseSubModeTypeS3_+0xb50>
   2da98: a3 11 00 54  	b.lo	0x2dccc <_ZN8ChxUtils15GetFeatureValueEP23camera3_capture_requestPv26ChiModeFeature2SubModeType25ChiModeUsecaseSubModeTypeS3_+0xb4c>
   2daa4: f0 02 00 b4  	cbz	x16, 0x2db00 <_ZN8ChxUtils15GetFeatureValueEP23camera3_capture_requestPv26ChiModeFeature2SubModeType25ChiModeUsecaseSubModeTypeS3_+0x980>
   2daac: 02 00 00 14  	b	0x2dab4 <_ZN8ChxUtils15GetFeatureValueEP23camera3_capture_requestPv26ChiModeFeature2SubModeType25ChiModeUsecaseSubModeTypeS3_+0x934>
   2dabc: ab 00 00 54  	b.lt	0x2dad0 <_ZN8ChxUtils15GetFeatureValueEP23camera3_capture_requestPv26ChiModeFeature2SubModeType25ChiModeUsecaseSubModeTypeS3_+0x950>
   2dac4: 44 04 00 b4  	cbz	x4, 0x2db4c <_ZN8ChxUtils15GetFeatureValueEP23camera3_capture_requestPv26ChiModeFeature2SubModeType25ChiModeUsecaseSubModeTypeS3_+0x9cc>
   2dacc: f9 ff ff 17  	b	0x2dab0 <_ZN8ChxUtils15GetFeatureValueEP23camera3_capture_requestPv26ChiModeFeature2SubModeType25ChiModeUsecaseSubModeTypeS3_+0x930>
   2dad4: 80 00 00 54  	b.eq	0x2dae4 <_ZN8ChxUtils15GetFeatureValueEP23camera3_capture_requestPv26ChiModeFeature2SubModeType25ChiModeUsecaseSubModeTypeS3_+0x964>
   2dae0: 84 fe ff b5  	cbnz	x4, 0x2dab0 <_ZN8ChxUtils15GetFeatureValueEP23camera3_capture_requestPv26ChiModeFeature2SubModeType25ChiModeUsecaseSubModeTypeS3_+0x930>
   2daec: 13 01 00 b4  	cbz	x19, 0x2db0c <_ZN8ChxUtils15GetFeatureValueEP23camera3_capture_requestPv26ChiModeFeature2SubModeType25ChiModeUsecaseSubModeTypeS3_+0x98c>
   2daf8: a3 0e 00 54  	b.lo	0x2dccc <_ZN8ChxUtils15GetFeatureValueEP23camera3_capture_requestPv26ChiModeFeature2SubModeType25ChiModeUsecaseSubModeTypeS3_+0xb4c>
   2dafc: 22 00 00 14  	b	0x2db84 <_ZN8ChxUtils15GetFeatureValueEP23camera3_capture_requestPv26ChiModeFeature2SubModeType25ChiModeUsecaseSubModeTypeS3_+0xa04>
   2db08: 53 ff ff b5  	cbnz	x19, 0x2daf0 <_ZN8ChxUtils15GetFeatureValueEP23camera3_capture_requestPv26ChiModeFeature2SubModeType25ChiModeUsecaseSubModeTypeS3_+0x970>
   2db3c: 2c 01 00 b4  	cbz	x12, 0x2db60 <_ZN8ChxUtils15GetFeatureValueEP23camera3_capture_requestPv26ChiModeFeature2SubModeType25ChiModeUsecaseSubModeTypeS3_+0x9e0>
   2db48: 07 00 00 14  	b	0x2db64 <_ZN8ChxUtils15GetFeatureValueEP23camera3_capture_requestPv26ChiModeFeature2SubModeType25ChiModeUsecaseSubModeTypeS3_+0x9e4>
   2db58: d3 fc ff b5  	cbnz	x19, 0x2daf0 <_ZN8ChxUtils15GetFeatureValueEP23camera3_capture_requestPv26ChiModeFeature2SubModeType25ChiModeUsecaseSubModeTypeS3_+0x970>
   2db5c: ec ff ff 17  	b	0x2db0c <_ZN8ChxUtils15GetFeatureValueEP23camera3_capture_requestPv26ChiModeFeature2SubModeType25ChiModeUsecaseSubModeTypeS3_+0x98c>
   2db80: 63 0a 00 54  	b.lo	0x2dccc <_ZN8ChxUtils15GetFeatureValueEP23camera3_capture_requestPv26ChiModeFeature2SubModeType25ChiModeUsecaseSubModeTypeS3_+0xb4c>
   2db8c: 71 05 00 b4  	cbz	x17, 0x2dc38 <_ZN8ChxUtils15GetFeatureValueEP23camera3_capture_requestPv26ChiModeFeature2SubModeType25ChiModeUsecaseSubModeTypeS3_+0xab8>
   2db94: 02 00 00 14  	b	0x2db9c <_ZN8ChxUtils15GetFeatureValueEP23camera3_capture_requestPv26ChiModeFeature2SubModeType25ChiModeUsecaseSubModeTypeS3_+0xa1c>
   2dba4: ab 00 00 54  	b.lt	0x2dbb8 <_ZN8ChxUtils15GetFeatureValueEP23camera3_capture_requestPv26ChiModeFeature2SubModeType25ChiModeUsecaseSubModeTypeS3_+0xa38>
   2dbac: c6 06 00 b4  	cbz	x6, 0x2dc84 <_ZN8ChxUtils15GetFeatureValueEP23camera3_capture_requestPv26ChiModeFeature2SubModeType25ChiModeUsecaseSubModeTypeS3_+0xb04>
   2dbb4: f9 ff ff 17  	b	0x2db98 <_ZN8ChxUtils15GetFeatureValueEP23camera3_capture_requestPv26ChiModeFeature2SubModeType25ChiModeUsecaseSubModeTypeS3_+0xa18>
   2dbbc: 80 00 00 54  	b.eq	0x2dbcc <_ZN8ChxUtils15GetFeatureValueEP23camera3_capture_requestPv26ChiModeFeature2SubModeType25ChiModeUsecaseSubModeTypeS3_+0xa4c>
   2dbc8: 86 fe ff b5  	cbnz	x6, 0x2db98 <_ZN8ChxUtils15GetFeatureValueEP23camera3_capture_requestPv26ChiModeFeature2SubModeType25ChiModeUsecaseSubModeTypeS3_+0xa18>
   2dbd4: 93 03 00 b4  	cbz	x19, 0x2dc44 <_ZN8ChxUtils15GetFeatureValueEP23camera3_capture_requestPv26ChiModeFeature2SubModeType25ChiModeUsecaseSubModeTypeS3_+0xac4>
   2dbe0: 62 07 00 54  	b.hs	0x2dccc <_ZN8ChxUtils15GetFeatureValueEP23camera3_capture_requestPv26ChiModeFeature2SubModeType25ChiModeUsecaseSubModeTypeS3_+0xb4c>
   2dbec: 61 05 00 b4  	cbz	x1, 0x2dc98 <_ZN8ChxUtils15GetFeatureValueEP23camera3_capture_requestPv26ChiModeFeature2SubModeType25ChiModeUsecaseSubModeTypeS3_+0xb18>
   2dbf4: 05 00 00 14  	b	0x2dc08 <_ZN8ChxUtils15GetFeatureValueEP23camera3_capture_requestPv26ChiModeFeature2SubModeType25ChiModeUsecaseSubModeTypeS3_+0xa88>
   2dbfc: 67 07 00 b4  	cbz	x7, 0x2dce8 <_ZN8ChxUtils15GetFeatureValueEP23camera3_capture_requestPv26ChiModeFeature2SubModeType25ChiModeUsecaseSubModeTypeS3_+0xb68>
   2dc10: 4a ff ff 54  	b.ge	0x2dbf8 <_ZN8ChxUtils15GetFeatureValueEP23camera3_capture_requestPv26ChiModeFeature2SubModeType25ChiModeUsecaseSubModeTypeS3_+0xa78>
   2dc18: 80 00 00 54  	b.eq	0x2dc28 <_ZN8ChxUtils15GetFeatureValueEP23camera3_capture_requestPv26ChiModeFeature2SubModeType25ChiModeUsecaseSubModeTypeS3_+0xaa8>
   2dc24: 07 ff ff b5  	cbnz	x7, 0x2dc04 <_ZN8ChxUtils15GetFeatureValueEP23camera3_capture_requestPv26ChiModeFeature2SubModeType25ChiModeUsecaseSubModeTypeS3_+0xa84>
   2dc30: 13 09 00 b5  	cbnz	x19, 0x2dd50 <_ZN8ChxUtils15GetFeatureValueEP23camera3_capture_requestPv26ChiModeFeature2SubModeType25ChiModeUsecaseSubModeTypeS3_+0xbd0>
   2dc34: 31 00 00 14  	b	0x2dcf8 <_ZN8ChxUtils15GetFeatureValueEP23camera3_capture_requestPv26ChiModeFeature2SubModeType25ChiModeUsecaseSubModeTypeS3_+0xb78>
   2dc40: d3 fc ff b5  	cbnz	x19, 0x2dbd8 <_ZN8ChxUtils15GetFeatureValueEP23camera3_capture_requestPv26ChiModeFeature2SubModeType25ChiModeUsecaseSubModeTypeS3_+0xa58>
   2dc74: ad 01 00 b4  	cbz	x13, 0x2dca8 <_ZN8ChxUtils15GetFeatureValueEP23camera3_capture_requestPv26ChiModeFeature2SubModeType25ChiModeUsecaseSubModeTypeS3_+0xb28>
   2dc80: 0b 00 00 14  	b	0x2dcac <_ZN8ChxUtils15GetFeatureValueEP23camera3_capture_requestPv26ChiModeFeature2SubModeType25ChiModeUsecaseSubModeTypeS3_+0xb2c>
   2dc90: 53 fa ff b5  	cbnz	x19, 0x2dbd8 <_ZN8ChxUtils15GetFeatureValueEP23camera3_capture_requestPv26ChiModeFeature2SubModeType25ChiModeUsecaseSubModeTypeS3_+0xa58>
   2dc94: ec ff ff 17  	b	0x2dc44 <_ZN8ChxUtils15GetFeatureValueEP23camera3_capture_requestPv26ChiModeFeature2SubModeType25ChiModeUsecaseSubModeTypeS3_+0xac4>
   2dca0: 93 05 00 b5  	cbnz	x19, 0x2dd50 <_ZN8ChxUtils15GetFeatureValueEP23camera3_capture_requestPv26ChiModeFeature2SubModeType25ChiModeUsecaseSubModeTypeS3_+0xbd0>
   2dca4: 15 00 00 14  	b	0x2dcf8 <_ZN8ChxUtils15GetFeatureValueEP23camera3_capture_requestPv26ChiModeFeature2SubModeType25ChiModeUsecaseSubModeTypeS3_+0xb78>
   2dcc8: e3 f8 ff 54  	b.lo	0x2dbe4 <_ZN8ChxUtils15GetFeatureValueEP23camera3_capture_requestPv26ChiModeFeature2SubModeType25ChiModeUsecaseSubModeTypeS3_+0xa64>
   2dcf4: f3 02 00 b5  	cbnz	x19, 0x2dd50 <_ZN8ChxUtils15GetFeatureValueEP23camera3_capture_requestPv26ChiModeFeature2SubModeType25ChiModeUsecaseSubModeTypeS3_+0xbd0>
   2dd28: 8e 00 00 b4  	cbz	x14, 0x2dd38 <_ZN8ChxUtils15GetFeatureValueEP23camera3_capture_requestPv26ChiModeFeature2SubModeType25ChiModeUsecaseSubModeTypeS3_+0xbb8>
   2dd34: 02 00 00 14  	b	0x2dd3c <_ZN8ChxUtils15GetFeatureValueEP23camera3_capture_requestPv26ChiModeFeature2SubModeType25ChiModeUsecaseSubModeTypeS3_+0xbbc>
   2dd5c: a3 fb ff 54  	b.lo	0x2dcd0 <_ZN8ChxUtils15GetFeatureValueEP23camera3_capture_requestPv26ChiModeFeature2SubModeType25ChiModeUsecaseSubModeTypeS3_+0xb50>
   2dd68: 62 02 00 b4  	cbz	x2, 0x2ddb4 <_ZN8ChxUtils15GetFeatureValueEP23camera3_capture_requestPv26ChiModeFeature2SubModeType25ChiModeUsecaseSubModeTypeS3_+0xc34>
   2dd70: 05 00 00 14  	b	0x2dd84 <_ZN8ChxUtils15GetFeatureValueEP23camera3_capture_requestPv26ChiModeFeature2SubModeType25ChiModeUsecaseSubModeTypeS3_+0xc04>
   2dd78: 61 02 00 b4  	cbz	x1, 0x2ddc4 <_ZN8ChxUtils15GetFeatureValueEP23camera3_capture_requestPv26ChiModeFeature2SubModeType25ChiModeUsecaseSubModeTypeS3_+0xc44>
   2dd8c: 4a ff ff 54  	b.ge	0x2dd74 <_ZN8ChxUtils15GetFeatureValueEP23camera3_capture_requestPv26ChiModeFeature2SubModeType25ChiModeUsecaseSubModeTypeS3_+0xbf4>
   2dd94: 80 00 00 54  	b.eq	0x2dda4 <_ZN8ChxUtils15GetFeatureValueEP23camera3_capture_requestPv26ChiModeFeature2SubModeType25ChiModeUsecaseSubModeTypeS3_+0xc24>
   2dda0: 01 ff ff b5  	cbnz	x1, 0x2dd80 <_ZN8ChxUtils15GetFeatureValueEP23camera3_capture_requestPv26ChiModeFeature2SubModeType25ChiModeUsecaseSubModeTypeS3_+0xc00>
   2ddac: 14 04 00 b5  	cbnz	x20, 0x2de2c <_ZN8ChxUtils15GetFeatureValueEP23camera3_capture_requestPv26ChiModeFeature2SubModeType25ChiModeUsecaseSubModeTypeS3_+0xcac>
   2ddb0: 09 00 00 14  	b	0x2ddd4 <_ZN8ChxUtils15GetFeatureValueEP23camera3_capture_requestPv26ChiModeFeature2SubModeType25ChiModeUsecaseSubModeTypeS3_+0xc54>
   2ddbc: 94 03 00 b5  	cbnz	x20, 0x2de2c <_ZN8ChxUtils15GetFeatureValueEP23camera3_capture_requestPv26ChiModeFeature2SubModeType25ChiModeUsecaseSubModeTypeS3_+0xcac>
   2ddc0: 05 00 00 14  	b	0x2ddd4 <_ZN8ChxUtils15GetFeatureValueEP23camera3_capture_requestPv26ChiModeFeature2SubModeType25ChiModeUsecaseSubModeTypeS3_+0xc54>
   2ddd0: f4 02 00 b5  	cbnz	x20, 0x2de2c <_ZN8ChxUtils15GetFeatureValueEP23camera3_capture_requestPv26ChiModeFeature2SubModeType25ChiModeUsecaseSubModeTypeS3_+0xcac>
   2de04: 8f 00 00 b4  	cbz	x15, 0x2de14 <_ZN8ChxUtils15GetFeatureValueEP23camera3_capture_requestPv26ChiModeFeature2SubModeType25ChiModeUsecaseSubModeTypeS3_+0xc94>
   2de10: 02 00 00 14  	b	0x2de18 <_ZN8ChxUtils15GetFeatureValueEP23camera3_capture_requestPv26ChiModeFeature2SubModeType25ChiModeUsecaseSubModeTypeS3_+0xc98>
   2de3c: a5 ff ff 17  	b	0x2dcd0 <_ZN8ChxUtils15GetFeatureValueEP23camera3_capture_requestPv26ChiModeFeature2SubModeType25ChiModeUsecaseSubModeTypeS3_+0xb50>
000000000002de40 <_ZN8ChxUtils28FillTuningModeDataThirdPartyEP11ChiMetadataP23camera3_capture_requestjPjS4_S4_S4_S4_>:
   2de6c: e0 25 00 b4  	cbz	x0, 0x2e328 <_ZN8ChxUtils28FillTuningModeDataThirdPartyEP11ChiMetadataP23camera3_capture_requestjPjS4_S4_S4_S4_+0x4e8>
   2de74: 85 00 00 d0  	adrp	x5, 0x3f000 <_ZN8ChxUtils28FillTuningModeDataThirdPartyEP11ChiMetadataP23camera3_capture_requestjPjS4_S4_S4_S4_+0x7c>
   2deb4: 68 05 30 36  	tbz	w8, #6, 0x2df60 <_ZN8ChxUtils28FillTuningModeDataThirdPartyEP11ChiMetadataP23camera3_capture_requestjPjS4_S4_S4_S4_+0x120>
   2deb8: 82 00 00 d0  	adrp	x2, 0x3f000 <_ZN8ChxUtils28FillTuningModeDataThirdPartyEP11ChiMetadataP23camera3_capture_requestjPjS4_S4_S4_S4_+0xc0>
   2dec8: 61 02 00 54  	b.ne	0x2df14 <_ZN8ChxUtils28FillTuningModeDataThirdPartyEP11ChiMetadataP23camera3_capture_requestjPjS4_S4_S4_S4_+0xd4>
   2decc: 17 ff ff 90  	adrp	x23, 0xd000 <_ZN8ChxUtils28FillTuningModeDataThirdPartyEP11ChiMetadataP23camera3_capture_requestjPjS4_S4_S4_S4_+0xc>
   2dee8: 01 ff ff d0  	adrp	x1, 0xf000 <_ZN8ChxUtils28FillTuningModeDataThirdPartyEP11ChiMetadataP23camera3_capture_requestjPjS4_S4_S4_S4_+0x30>
   2deec: 02 ff ff 90  	adrp	x2, 0xd000 <_ZN8ChxUtils28FillTuningModeDataThirdPartyEP11ChiMetadataP23camera3_capture_requestjPjS4_S4_S4_S4_+0x2c>
   2def0: 05 ff ff 90  	adrp	x5, 0xd000 <_ZN8ChxUtils28FillTuningModeDataThirdPartyEP11ChiMetadataP23camera3_capture_requestjPjS4_S4_S4_S4_+0x30>
   2df14: 17 ff ff 90  	adrp	x23, 0xd000 <_ZN8ChxUtils28FillTuningModeDataThirdPartyEP11ChiMetadataP23camera3_capture_requestjPjS4_S4_S4_S4_+0x54>
   2df30: c1 fe ff f0  	adrp	x1, 0x8000 <_ZN8ChxUtils28FillTuningModeDataThirdPartyEP11ChiMetadataP23camera3_capture_requestjPjS4_S4_S4_S4_+0x5c>
   2df38: 00 ff ff 90  	adrp	x0, 0xd000 <_ZN8ChxUtils28FillTuningModeDataThirdPartyEP11ChiMetadataP23camera3_capture_requestjPjS4_S4_S4_S4_+0x78>
   2df3c: 03 ff ff 90  	adrp	x3, 0xd000 <_ZN8ChxUtils28FillTuningModeDataThirdPartyEP11ChiMetadataP23camera3_capture_requestjPjS4_S4_S4_S4_+0x7c>
   2df40: c5 fe ff f0  	adrp	x5, 0x8000 <_ZN8ChxUtils28FillTuningModeDataThirdPartyEP11ChiMetadataP23camera3_capture_requestjPjS4_S4_S4_S4_+0x6c>
   2df5c: cd 41 00 94  	bl	0x3e690 <_ZN6ChiLog9LogSystemEPKcS1_S1_S1_iS1_z@plt>
   2df60: cc fe ff d0  	adrp	x12, 0x7000 <_ZN8ChxUtils28FillTuningModeDataThirdPartyEP11ChiMetadataP23camera3_capture_requestjPjS4_S4_S4_S4_+0x88>
   2df88: 7a 43 00 94  	bl	0x3ed70 <_ZN8ChxUtils14GetUsecaseModeEP23camera3_capture_request@plt>
   2df98: c2 41 00 94  	bl	0x3e6a0 <_ZN15ExtensionModule11GetInstanceEv@plt>
   2dfbc: 08 01 00 b4  	cbz	x8, 0x2dfdc <_ZN8ChxUtils28FillTuningModeDataThirdPartyEP11ChiMetadataP23camera3_capture_requestjPjS4_S4_S4_S4_+0x19c>
   2dfc8: 84 00 00 d0  	adrp	x4, 0x3f000 <_ZN8ChxUtils28FillTuningModeDataThirdPartyEP11ChiMetadataP23camera3_capture_requestjPjS4_S4_S4_S4_+0x1d0>
   2dfd4: ec 00 30 37  	tbnz	w12, #6, 0x2dff0 <_ZN8ChxUtils28FillTuningModeDataThirdPartyEP11ChiMetadataP23camera3_capture_requestjPjS4_S4_S4_S4_+0x1b0>
   2dfd8: 30 00 00 14  	b	0x2e098 <_ZN8ChxUtils28FillTuningModeDataThirdPartyEP11ChiMetadataP23camera3_capture_requestjPjS4_S4_S4_S4_+0x258>
   2dfe0: 84 00 00 d0  	adrp	x4, 0x3f000 <_ZN8ChxUtils28FillTuningModeDataThirdPartyEP11ChiMetadataP23camera3_capture_requestjPjS4_S4_S4_S4_+0x1e8>
   2dfec: 6c 05 30 36  	tbz	w12, #6, 0x2e098 <_ZN8ChxUtils28FillTuningModeDataThirdPartyEP11ChiMetadataP23camera3_capture_requestjPjS4_S4_S4_S4_+0x258>
   2dff0: 91 00 00 d0  	adrp	x17, 0x3f000 <_ZN8ChxUtils28FillTuningModeDataThirdPartyEP11ChiMetadataP23camera3_capture_requestjPjS4_S4_S4_S4_+0x1f8>
   2e000: 61 02 00 54  	b.ne	0x2e04c <_ZN8ChxUtils28FillTuningModeDataThirdPartyEP11ChiMetadataP23camera3_capture_requestjPjS4_S4_S4_S4_+0x20c>
   2e004: f9 fe ff f0  	adrp	x25, 0xd000 <_ZN8ChxUtils28FillTuningModeDataThirdPartyEP11ChiMetadataP23camera3_capture_requestjPjS4_S4_S4_S4_+0x140>
   2e020: 01 ff ff b0  	adrp	x1, 0xf000 <_ZN8ChxUtils28FillTuningModeDataThirdPartyEP11ChiMetadataP23camera3_capture_requestjPjS4_S4_S4_S4_+0x164>
   2e024: 02 ff ff b0  	adrp	x2, 0xf000 <_ZN8ChxUtils28FillTuningModeDataThirdPartyEP11ChiMetadataP23camera3_capture_requestjPjS4_S4_S4_S4_+0x168>
   2e028: e5 fe ff b0  	adrp	x5, 0xb000 <_ZN8ChxUtils28FillTuningModeDataThirdPartyEP11ChiMetadataP23camera3_capture_requestjPjS4_S4_S4_S4_+0x15c>
   2e04c: f9 fe ff f0  	adrp	x25, 0xd000 <_ZN8ChxUtils28FillTuningModeDataThirdPartyEP11ChiMetadataP23camera3_capture_requestjPjS4_S4_S4_S4_+0x188>
   2e068: c1 fe ff d0  	adrp	x1, 0x8000 <_ZN8ChxUtils28FillTuningModeDataThirdPartyEP11ChiMetadataP23camera3_capture_requestjPjS4_S4_S4_S4_+0x190>
   2e070: e0 fe ff f0  	adrp	x0, 0xd000 <_ZN8ChxUtils28FillTuningModeDataThirdPartyEP11ChiMetadataP23camera3_capture_requestjPjS4_S4_S4_S4_+0x1ac>
   2e074: e3 fe ff b0  	adrp	x3, 0xb000 <_ZN8ChxUtils28FillTuningModeDataThirdPartyEP11ChiMetadataP23camera3_capture_requestjPjS4_S4_S4_S4_+0x1a8>
   2e078: c5 fe ff f0  	adrp	x5, 0x9000 <_ZN8ChxUtils28FillTuningModeDataThirdPartyEP11ChiMetadataP23camera3_capture_requestjPjS4_S4_S4_S4_+0x1a4>
   2e094: 7f 41 00 94  	bl	0x3e690 <_ZN6ChiLog9LogSystemEPKcS1_S1_S1_iS1_z@plt>
   2e0a8: 48 16 00 54  	b.hi	0x2e370 <_ZN8ChxUtils28FillTuningModeDataThirdPartyEP11ChiMetadataP23camera3_capture_requestjPjS4_S4_S4_S4_+0x530>
   2e0bc: 40 01 00 54  	b.eq	0x2e0e4 <_ZN8ChxUtils28FillTuningModeDataThirdPartyEP11ChiMetadataP23camera3_capture_requestjPjS4_S4_S4_S4_+0x2a4>
   2e0d0: 2c 43 00 94  	bl	0x3ed80 <_ZN8ChxUtils15GetFeatureValueEP23camera3_capture_requestPv26ChiModeFeature2SubModeType25ChiModeUsecaseSubModeTypeS3_@plt>
   2e0d8: d7 01 00 35  	cbnz	w23, 0x2e110 <_ZN8ChxUtils28FillTuningModeDataThirdPartyEP11ChiMetadataP23camera3_capture_requestjPjS4_S4_S4_S4_+0x2d0>
   2e0e0: 0c 00 00 14  	b	0x2e110 <_ZN8ChxUtils28FillTuningModeDataThirdPartyEP11ChiMetadataP23camera3_capture_requestjPjS4_S4_S4_S4_+0x2d0>
   2e0e8: 60 00 00 54  	b.eq	0x2e0f4 <_ZN8ChxUtils28FillTuningModeDataThirdPartyEP11ChiMetadataP23camera3_capture_requestjPjS4_S4_S4_S4_+0x2b4>
   2e0f0: 01 14 00 54  	b.ne	0x2e370 <_ZN8ChxUtils28FillTuningModeDataThirdPartyEP11ChiMetadataP23camera3_capture_requestjPjS4_S4_S4_S4_+0x530>
   2e108: 1e 43 00 94  	bl	0x3ed80 <_ZN8ChxUtils15GetFeatureValueEP23camera3_capture_requestPv26ChiModeFeature2SubModeType25ChiModeUsecaseSubModeTypeS3_@plt>
   2e13c: 09 02 00 b4  	cbz	x9, 0x2e17c <_ZN8ChxUtils28FillTuningModeDataThirdPartyEP11ChiMetadataP23camera3_capture_requestjPjS4_S4_S4_S4_+0x33c>
   2e168: a1 00 00 54  	b.ne	0x2e17c <_ZN8ChxUtils28FillTuningModeDataThirdPartyEP11ChiMetadataP23camera3_capture_requestjPjS4_S4_S4_S4_+0x33c>
   2e170: 6a 00 00 b4  	cbz	x10, 0x2e17c <_ZN8ChxUtils28FillTuningModeDataThirdPartyEP11ChiMetadataP23camera3_capture_requestjPjS4_S4_S4_S4_+0x33c>
   2e17c: 49 41 00 94  	bl	0x3e6a0 <_ZN15ExtensionModule11GetInstanceEv@plt>
   2e1b0: a8 00 00 54  	b.hi	0x2e1c4 <_ZN8ChxUtils28FillTuningModeDataThirdPartyEP11ChiMetadataP23camera3_capture_requestjPjS4_S4_S4_S4_+0x384>
   2e1b4: 0e ff ff d0  	adrp	x14, 0x10000 <_ZN8ChxUtils28FillTuningModeDataThirdPartyEP11ChiMetadataP23camera3_capture_requestjPjS4_S4_S4_S4_+0x2fc>
   2e1f0: 4b 0b 00 b4  	cbz	x11, 0x2e358 <_ZN8ChxUtils28FillTuningModeDataThirdPartyEP11ChiMetadataP23camera3_capture_requestjPjS4_S4_S4_S4_+0x518>
   2e208: a2 00 00 54  	b.hs	0x2e21c <_ZN8ChxUtils28FillTuningModeDataThirdPartyEP11ChiMetadataP23camera3_capture_requestjPjS4_S4_S4_S4_+0x3dc>
   2e20c: 10 ff ff d0  	adrp	x16, 0x10000 <_ZN8ChxUtils28FillTuningModeDataThirdPartyEP11ChiMetadataP23camera3_capture_requestjPjS4_S4_S4_S4_+0x354>
   2e21c: 83 00 00 b0  	adrp	x3, 0x3f000 <_ZN8ChxUtils28FillTuningModeDataThirdPartyEP11ChiMetadataP23camera3_capture_requestjPjS4_S4_S4_S4_+0x420>
   2e22c: e5 06 18 36  	tbz	w5, #3, 0x2e308 <_ZN8ChxUtils28FillTuningModeDataThirdPartyEP11ChiMetadataP23camera3_capture_requestjPjS4_S4_S4_S4_+0x4c8>
   2e230: 81 00 00 b0  	adrp	x1, 0x3f000 <_ZN8ChxUtils28FillTuningModeDataThirdPartyEP11ChiMetadataP23camera3_capture_requestjPjS4_S4_S4_S4_+0x434>
   2e240: 21 03 00 54  	b.ne	0x2e2a4 <_ZN8ChxUtils28FillTuningModeDataThirdPartyEP11ChiMetadataP23camera3_capture_requestjPjS4_S4_S4_S4_+0x464>
   2e244: fb fe ff f0  	adrp	x27, 0xd000 <_ZN8ChxUtils28FillTuningModeDataThirdPartyEP11ChiMetadataP23camera3_capture_requestjPjS4_S4_S4_S4_+0x380>
   2e264: 01 ff ff b0  	adrp	x1, 0xf000 <_ZN8ChxUtils28FillTuningModeDataThirdPartyEP11ChiMetadataP23camera3_capture_requestjPjS4_S4_S4_S4_+0x3a8>
   2e268: e2 fe ff 90  	adrp	x2, 0xa000 <_ZN8ChxUtils28FillTuningModeDataThirdPartyEP11ChiMetadataP23camera3_capture_requestjPjS4_S4_S4_S4_+0x398>
   2e26c: e5 fe ff f0  	adrp	x5, 0xd000 <_ZN8ChxUtils28FillTuningModeDataThirdPartyEP11ChiMetadataP23camera3_capture_requestjPjS4_S4_S4_S4_+0x3a8>
   2e2a4: f9 fe ff f0  	adrp	x25, 0xd000 <_ZN8ChxUtils28FillTuningModeDataThirdPartyEP11ChiMetadataP23camera3_capture_requestjPjS4_S4_S4_S4_+0x3e0>
   2e2c8: 00 ff ff b0  	adrp	x0, 0xf000 <_ZN8ChxUtils28FillTuningModeDataThirdPartyEP11ChiMetadataP23camera3_capture_requestjPjS4_S4_S4_S4_+0x40c>
   2e2cc: e1 fe ff d0  	adrp	x1, 0xc000 <_ZN8ChxUtils28FillTuningModeDataThirdPartyEP11ChiMetadataP23camera3_capture_requestjPjS4_S4_S4_S4_+0x404>
   2e2d0: e3 fe ff f0  	adrp	x3, 0xd000 <_ZN8ChxUtils28FillTuningModeDataThirdPartyEP11ChiMetadataP23camera3_capture_requestjPjS4_S4_S4_S4_+0x40c>
   2e2d4: e5 fe ff b0  	adrp	x5, 0xb000 <_ZN8ChxUtils28FillTuningModeDataThirdPartyEP11ChiMetadataP23camera3_capture_requestjPjS4_S4_S4_S4_+0x408>
   2e304: e3 40 00 94  	bl	0x3e690 <_ZN6ChiLog9LogSystemEPKcS1_S1_S1_iS1_z@plt>
   2e308: e6 40 00 94  	bl	0x3e6a0 <_ZN15ExtensionModule11GetInstanceEv@plt>
   2e334: 41 02 00 54  	b.ne	0x2e37c <_ZN8ChxUtils28FillTuningModeDataThirdPartyEP11ChiMetadataP23camera3_capture_requestjPjS4_S4_S4_S4_+0x53c>
   2e368: 23 f5 ff 54  	b.lo	0x2e20c <_ZN8ChxUtils28FillTuningModeDataThirdPartyEP11ChiMetadataP23camera3_capture_requestjPjS4_S4_S4_S4_+0x3cc>
   2e36c: ac ff ff 17  	b	0x2e21c <_ZN8ChxUtils28FillTuningModeDataThirdPartyEP11ChiMetadataP23camera3_capture_requestjPjS4_S4_S4_S4_+0x3dc>
   2e378: 52 ff ff 17  	b	0x2e0c0 <_ZN8ChxUtils28FillTuningModeDataThirdPartyEP11ChiMetadataP23camera3_capture_requestjPjS4_S4_S4_S4_+0x280>
000000000002e380 <_ZN8ChxUtils18FillTuningModeDataEP11ChiMetadata25ChiModeUsecaseSubModeTypejPjS3_S3_S3_>:
   2e3ac: 40 21 00 b4  	cbz	x0, 0x2e7d4 <_ZN8ChxUtils18FillTuningModeDataEP11ChiMetadata25ChiModeUsecaseSubModeTypejPjS3_S3_S3_+0x454>
   2e3b0: ce fe ff b0  	adrp	x14, 0x7000 <_ZN8ChxUtils28FillTuningModeDataThirdPartyEP11ChiMetadataP23camera3_capture_requestjPjS4_S4_S4_S4_+0x4d4>
   2e400: a8 40 00 94  	bl	0x3e6a0 <_ZN15ExtensionModule11GetInstanceEv@plt>
   2e424: 89 00 00 b4  	cbz	x9, 0x2e434 <_ZN8ChxUtils18FillTuningModeDataEP11ChiMetadata25ChiModeUsecaseSubModeTypejPjS3_S3_S3_+0xb4>
   2e430: 02 00 00 14  	b	0x2e438 <_ZN8ChxUtils18FillTuningModeDataEP11ChiMetadata25ChiModeUsecaseSubModeTypejPjS3_S3_S3_+0xb8>
   2e438: 9b 00 00 b0  	adrp	x27, 0x3f000 <_ZN8ChxUtils18FillTuningModeDataEP11ChiMetadata25ChiModeUsecaseSubModeTypejPjS3_S3_S3_+0xfc>
   2e43c: 9a 00 00 b0  	adrp	x26, 0x3f000 <_ZN8ChxUtils18FillTuningModeDataEP11ChiMetadata25ChiModeUsecaseSubModeTypejPjS3_S3_S3_+0x100>
   2e440: f3 fe ff f0  	adrp	x19, 0xd000 <_ZN8ChxUtils18FillTuningModeDataEP11ChiMetadata25ChiModeUsecaseSubModeTypejPjS3_S3_S3_+0x3c>
   2e454: ab 04 30 36  	tbz	w11, #6, 0x2e4e8 <_ZN8ChxUtils18FillTuningModeDataEP11ChiMetadata25ChiModeUsecaseSubModeTypejPjS3_S3_S3_+0x168>
   2e460: 21 02 00 54  	b.ne	0x2e4a4 <_ZN8ChxUtils18FillTuningModeDataEP11ChiMetadata25ChiModeUsecaseSubModeTypejPjS3_S3_S3_+0x124>
   2e478: 01 ff ff b0  	adrp	x1, 0xf000 <_ZN8ChxUtils18FillTuningModeDataEP11ChiMetadata25ChiModeUsecaseSubModeTypejPjS3_S3_S3_+0x7c>
   2e47c: 02 ff ff b0  	adrp	x2, 0xf000 <_ZN8ChxUtils18FillTuningModeDataEP11ChiMetadata25ChiModeUsecaseSubModeTypejPjS3_S3_S3_+0x80>
   2e480: e5 fe ff b0  	adrp	x5, 0xb000 <_ZN8ChxUtils18FillTuningModeDataEP11ChiMetadata25ChiModeUsecaseSubModeTypejPjS3_S3_S3_+0x74>
   2e4b8: c1 fe ff d0  	adrp	x1, 0x8000 <_ZN8ChxUtils18FillTuningModeDataEP11ChiMetadata25ChiModeUsecaseSubModeTypejPjS3_S3_S3_+0xa0>
   2e4c0: e0 fe ff f0  	adrp	x0, 0xd000 <_ZN8ChxUtils18FillTuningModeDataEP11ChiMetadata25ChiModeUsecaseSubModeTypejPjS3_S3_S3_+0xbc>
   2e4c4: e3 fe ff b0  	adrp	x3, 0xb000 <_ZN8ChxUtils18FillTuningModeDataEP11ChiMetadata25ChiModeUsecaseSubModeTypejPjS3_S3_S3_+0xb8>
   2e4c8: c5 fe ff f0  	adrp	x5, 0x9000 <_ZN8ChxUtils18FillTuningModeDataEP11ChiMetadata25ChiModeUsecaseSubModeTypejPjS3_S3_S3_+0xb4>
   2e4e4: 6b 40 00 94  	bl	0x3e690 <_ZN6ChiLog9LogSystemEPKcS1_S1_S1_iS1_z@plt>
   2e4f0: 6c 40 00 94  	bl	0x3e6a0 <_ZN15ExtensionModule11GetInstanceEv@plt>
   2e514: ca 00 00 b4  	cbz	x10, 0x2e52c <_ZN8ChxUtils18FillTuningModeDataEP11ChiMetadata25ChiModeUsecaseSubModeTypejPjS3_S3_S3_+0x1ac>
   2e524: ad 00 30 37  	tbnz	w13, #6, 0x2e538 <_ZN8ChxUtils18FillTuningModeDataEP11ChiMetadata25ChiModeUsecaseSubModeTypejPjS3_S3_S3_+0x1b8>
   2e528: 28 00 00 14  	b	0x2e5c8 <_ZN8ChxUtils18FillTuningModeDataEP11ChiMetadata25ChiModeUsecaseSubModeTypejPjS3_S3_S3_+0x248>
   2e534: ad 04 30 36  	tbz	w13, #6, 0x2e5c8 <_ZN8ChxUtils18FillTuningModeDataEP11ChiMetadata25ChiModeUsecaseSubModeTypejPjS3_S3_S3_+0x248>
   2e540: 21 02 00 54  	b.ne	0x2e584 <_ZN8ChxUtils18FillTuningModeDataEP11ChiMetadata25ChiModeUsecaseSubModeTypejPjS3_S3_S3_+0x204>
   2e558: 01 ff ff b0  	adrp	x1, 0xf000 <_ZN8ChxUtils18FillTuningModeDataEP11ChiMetadata25ChiModeUsecaseSubModeTypejPjS3_S3_S3_+0x15c>
   2e55c: c2 fe ff f0  	adrp	x2, 0x9000 <_ZN8ChxUtils18FillTuningModeDataEP11ChiMetadata25ChiModeUsecaseSubModeTypejPjS3_S3_S3_+0x148>
   2e560: e5 fe ff d0  	adrp	x5, 0xc000 <_ZN8ChxUtils18FillTuningModeDataEP11ChiMetadata25ChiModeUsecaseSubModeTypejPjS3_S3_S3_+0x158>
   2e598: c1 fe ff d0  	adrp	x1, 0x8000 <_ZN8ChxUtils18FillTuningModeDataEP11ChiMetadata25ChiModeUsecaseSubModeTypejPjS3_S3_S3_+0x180>
   2e5a0: e0 fe ff f0  	adrp	x0, 0xd000 <_ZN8ChxUtils18FillTuningModeDataEP11ChiMetadata25ChiModeUsecaseSubModeTypejPjS3_S3_S3_+0x19c>
   2e5a4: e3 fe ff d0  	adrp	x3, 0xc000 <_ZN8ChxUtils18FillTuningModeDataEP11ChiMetadata25ChiModeUsecaseSubModeTypejPjS3_S3_S3_+0x19c>
   2e5a8: e5 fe ff 90  	adrp	x5, 0xa000 <_ZN8ChxUtils18FillTuningModeDataEP11ChiMetadata25ChiModeUsecaseSubModeTypejPjS3_S3_S3_+0x198>
   2e5c4: 33 40 00 94  	bl	0x3e690 <_ZN6ChiLog9LogSystemEPKcS1_S1_S1_iS1_z@plt>
   2e5f4: 0b 02 00 b4  	cbz	x11, 0x2e634 <_ZN8ChxUtils18FillTuningModeDataEP11ChiMetadata25ChiModeUsecaseSubModeTypejPjS3_S3_S3_+0x2b4>
   2e620: a1 00 00 54  	b.ne	0x2e634 <_ZN8ChxUtils18FillTuningModeDataEP11ChiMetadata25ChiModeUsecaseSubModeTypejPjS3_S3_S3_+0x2b4>
   2e628: 6c 00 00 b4  	cbz	x12, 0x2e634 <_ZN8ChxUtils18FillTuningModeDataEP11ChiMetadata25ChiModeUsecaseSubModeTypejPjS3_S3_S3_+0x2b4>
   2e634: 1b 40 00 94  	bl	0x3e6a0 <_ZN15ExtensionModule11GetInstanceEv@plt>
   2e668: a8 00 00 54  	b.hi	0x2e67c <_ZN8ChxUtils18FillTuningModeDataEP11ChiMetadata25ChiModeUsecaseSubModeTypejPjS3_S3_S3_+0x2fc>
   2e66c: 0f ff ff d0  	adrp	x15, 0x10000 <_ZN8ChxUtils18FillTuningModeDataEP11ChiMetadata25ChiModeUsecaseSubModeTypejPjS3_S3_S3_+0x274>
   2e6a8: ed 0a 00 b4  	cbz	x13, 0x2e804 <_ZN8ChxUtils18FillTuningModeDataEP11ChiMetadata25ChiModeUsecaseSubModeTypejPjS3_S3_S3_+0x484>
   2e6bc: a2 00 00 54  	b.hs	0x2e6d0 <_ZN8ChxUtils18FillTuningModeDataEP11ChiMetadata25ChiModeUsecaseSubModeTypejPjS3_S3_S3_+0x350>
   2e6c0: 01 ff ff d0  	adrp	x1, 0x10000 <_ZN8ChxUtils18FillTuningModeDataEP11ChiMetadata25ChiModeUsecaseSubModeTypejPjS3_S3_S3_+0x2c8>
   2e6d4: f3 3f 00 94  	bl	0x3e6a0 <_ZN15ExtensionModule11GetInstanceEv@plt>
   2e6f8: f1 06 28 36  	tbz	w17, #5, 0x2e7d4 <_ZN8ChxUtils18FillTuningModeDataEP11ChiMetadata25ChiModeUsecaseSubModeTypejPjS3_S3_S3_+0x454>
   2e704: 41 03 00 54  	b.ne	0x2e76c <_ZN8ChxUtils18FillTuningModeDataEP11ChiMetadata25ChiModeUsecaseSubModeTypejPjS3_S3_S3_+0x3ec>
   2e724: 01 ff ff b0  	adrp	x1, 0xf000 <_ZN8ChxUtils18FillTuningModeDataEP11ChiMetadata25ChiModeUsecaseSubModeTypejPjS3_S3_S3_+0x328>
   2e72c: e2 fe ff 90  	adrp	x2, 0xa000 <_ZN8ChxUtils18FillTuningModeDataEP11ChiMetadata25ChiModeUsecaseSubModeTypejPjS3_S3_S3_+0x31c>
   2e734: e5 fe ff b0  	adrp	x5, 0xb000 <_ZN8ChxUtils18FillTuningModeDataEP11ChiMetadata25ChiModeUsecaseSubModeTypejPjS3_S3_S3_+0x328>
   2e790: 00 ff ff 90  	adrp	x0, 0xe000 <_ZN8ChxUtils18FillTuningModeDataEP11ChiMetadata25ChiModeUsecaseSubModeTypejPjS3_S3_S3_+0x390>
   2e798: e1 fe ff d0  	adrp	x1, 0xc000 <_ZN8ChxUtils18FillTuningModeDataEP11ChiMetadata25ChiModeUsecaseSubModeTypejPjS3_S3_S3_+0x390>
   2e7a0: e3 fe ff b0  	adrp	x3, 0xb000 <_ZN8ChxUtils18FillTuningModeDataEP11ChiMetadata25ChiModeUsecaseSubModeTypejPjS3_S3_S3_+0x394>
   2e7a8: e5 fe ff 90  	adrp	x5, 0xa000 <_ZN8ChxUtils18FillTuningModeDataEP11ChiMetadata25ChiModeUsecaseSubModeTypejPjS3_S3_S3_+0x398>
   2e7d0: b0 3f 00 94  	bl	0x3e690 <_ZN6ChiLog9LogSystemEPKcS1_S1_S1_iS1_z@plt>
   2e7e0: c1 01 00 54  	b.ne	0x2e818 <_ZN8ChxUtils18FillTuningModeDataEP11ChiMetadata25ChiModeUsecaseSubModeTypejPjS3_S3_S3_+0x498>
   2e810: 83 f5 ff 54  	b.lo	0x2e6c0 <_ZN8ChxUtils18FillTuningModeDataEP11ChiMetadata25ChiModeUsecaseSubModeTypejPjS3_S3_S3_+0x340>
   2e814: af ff ff 17  	b	0x2e6d0 <_ZN8ChxUtils18FillTuningModeDataEP11ChiMetadata25ChiModeUsecaseSubModeTypejPjS3_S3_S3_+0x350>
000000000002e820 <_ZN8ChxUtils21IPEMFHDRDebugDataSizeEv>:
   2e828: 9e 3f 00 94  	bl	0x3e6a0 <_ZN15ExtensionModule11GetInstanceEv@plt>
000000000002e840 <_ZN8ChxUtils13DebugDataSizeE13DebugDataType>:
   2e850: 94 3f 00 94  	bl	0x3e6a0 <_ZN15ExtensionModule11GetInstanceEv@plt>
   2e860: 21 01 00 54  	b.ne	0x2e884 <_ZN8ChxUtils13DebugDataSizeE13DebugDataType+0x44>
   2e868: 60 08 00 54  	b.eq	0x2e974 <_ZN8ChxUtils13DebugDataSizeE13DebugDataType+0x134>
   2e870: 80 08 00 54  	b.eq	0x2e980 <_ZN8ChxUtils13DebugDataSizeE13DebugDataType+0x140>
   2e874: 93 00 00 35  	cbnz	w19, 0x2e884 <_ZN8ChxUtils13DebugDataSizeE13DebugDataType+0x44>
   2e880: 02 00 00 14  	b	0x2e888 <_ZN8ChxUtils13DebugDataSizeE13DebugDataType+0x48>
   2e898: a1 01 00 54  	b.ne	0x2e8cc <_ZN8ChxUtils13DebugDataSizeE13DebugDataType+0x8c>
   2e8a4: 48 03 00 54  	b.hi	0x2e90c <_ZN8ChxUtils13DebugDataSizeE13DebugDataType+0xcc>
   2e8a8: 0c ff ff d0  	adrp	x12, 0x10000 <_ZN8ChxUtils21IPEMFHDRDebugDataSizeEv+0x10>
   2e8c8: 11 00 00 14  	b	0x2e90c <_ZN8ChxUtils13DebugDataSizeE13DebugDataType+0xcc>
   2e8d0: e1 01 00 54  	b.ne	0x2e90c <_ZN8ChxUtils13DebugDataSizeE13DebugDataType+0xcc>
   2e8d8: 21 02 00 54  	b.ne	0x2e91c <_ZN8ChxUtils13DebugDataSizeE13DebugDataType+0xdc>
   2e900: 40 01 00 54  	b.eq	0x2e928 <_ZN8ChxUtils13DebugDataSizeE13DebugDataType+0xe8>
   2e908: 16 00 00 14  	b	0x2e960 <_ZN8ChxUtils13DebugDataSizeE13DebugDataType+0x120>
   2e924: 01 ff ff 54  	b.ne	0x2e904 <_ZN8ChxUtils13DebugDataSizeE13DebugDataType+0xc4>
   2e97c: c3 ff ff 17  	b	0x2e888 <_ZN8ChxUtils13DebugDataSizeE13DebugDataType+0x48>
   2e988: c0 ff ff 17  	b	0x2e888 <_ZN8ChxUtils13DebugDataSizeE13DebugDataType+0x48>
000000000002e9f0 <_ZN8ChxUtils20DebugDataAllocBufferEP9DebugData>:
   2ea04: 27 3f 00 94  	bl	0x3e6a0 <_ZN15ExtensionModule11GetInstanceEv@plt>
   2ea1c: 81 03 00 54  	b.ne	0x2ea8c <_ZN8ChxUtils20DebugDataAllocBufferEP9DebugData+0x9c>
   2ea44: a0 02 00 54  	b.eq	0x2ea98 <_ZN8ChxUtils20DebugDataAllocBufferEP9DebugData+0xa8>
   2ea4c: 53 04 00 b4  	cbz	x19, 0x2ead4 <_ZN8ChxUtils20DebugDataAllocBufferEP9DebugData+0xe4>
   2ea54: b4 04 00 b4  	cbz	x20, 0x2eae8 <_ZN8ChxUtils20DebugDataAllocBufferEP9DebugData+0xf8>
   2ea60: e0 04 00 b4  	cbz	x0, 0x2eafc <_ZN8ChxUtils20DebugDataAllocBufferEP9DebugData+0x10c>
   2ea94: a1 fd ff 54  	b.ne	0x2ea48 <_ZN8ChxUtils20DebugDataAllocBufferEP9DebugData+0x58>
   2ead0: 13 fc ff b5  	cbnz	x19, 0x2ea50 <_ZN8ChxUtils20DebugDataAllocBufferEP9DebugData+0x60>
   2eafc: 81 00 00 b0  	adrp	x1, 0x3f000 <_ZN8ChxUtils20DebugDataAllocBufferEP9DebugData+0x150>
   2eb0c: e5 04 08 36  	tbz	w5, #1, 0x2eba8 <_ZN8ChxUtils20DebugDataAllocBufferEP9DebugData+0x1b8>
   2eb10: 82 00 00 b0  	adrp	x2, 0x3f000 <_ZN8ChxUtils20DebugDataAllocBufferEP9DebugData+0x164>
   2eb14: f3 fe ff f0  	adrp	x19, 0xd000 <_ZN8ChxUtils20DebugDataAllocBufferEP9DebugData+0xa0>
   2eb28: 01 02 00 54  	b.ne	0x2eb68 <_ZN8ChxUtils20DebugDataAllocBufferEP9DebugData+0x178>
   2eb40: 01 ff ff b0  	adrp	x1, 0xf000 <_ZN8ChxUtils20DebugDataAllocBufferEP9DebugData+0xd4>
   2eb44: e2 fe ff f0  	adrp	x2, 0xd000 <_ZN8ChxUtils20DebugDataAllocBufferEP9DebugData+0xd0>
   2eb48: 05 ff ff 90  	adrp	x5, 0xe000 <_ZN8ChxUtils20DebugDataAllocBufferEP9DebugData+0xd8>
   2eb7c: c1 fe ff f0  	adrp	x1, 0x9000 <_ZN8ChxUtils20DebugDataAllocBufferEP9DebugData+0xf8>
   2eb84: e0 fe ff f0  	adrp	x0, 0xd000 <_ZN8ChxUtils20DebugDataAllocBufferEP9DebugData+0x110>
   2eb88: 03 ff ff 90  	adrp	x3, 0xe000 <_ZN8ChxUtils20DebugDataAllocBufferEP9DebugData+0x118>
   2eb8c: c5 fe ff d0  	adrp	x5, 0x8000 <_ZN8ChxUtils20DebugDataAllocBufferEP9DebugData+0x104>
   2eba4: bb 3e 00 94  	bl	0x3e690 <_ZN6ChiLog9LogSystemEPKcS1_S1_S1_iS1_z@plt>
000000000002ebc0 <_ZN8ChxUtils21GetPartialResultCountE19PartialResultSender>:
   2ebd0: b4 3e 00 94  	bl	0x3e6a0 <_ZN15ExtensionModule11GetInstanceEv@plt>
   2ebd8: b2 3e 00 94  	bl	0x3e6a0 <_ZN15ExtensionModule11GetInstanceEv@plt>
   2ebe0: e1 00 00 54  	b.ne	0x2ebfc <_ZN8ChxUtils21GetPartialResultCountE19PartialResultSender+0x3c>
000000000002ec20 <_ZN8ChxUtils16MatchAspectRatioEPK12CHIDimensionPS0_>:
   2ec44: a5 00 00 54  	b.pl	0x2ec58 <_ZN8ChxUtils16MatchAspectRatioEPK12CHIDimensionPS0_+0x38>
   2ec58: 8d 00 00 54  	b.le	0x2ec68 <_ZN8ChxUtils16MatchAspectRatioEPK12CHIDimensionPS0_+0x48>
000000000002ec70 <_ZN8ChxUtils15UpdateTimeStampEP11ChiMetadatamj>:
   2ec98: 40 02 00 b4  	cbz	x0, 0x2ece0 <_ZN8ChxUtils15UpdateTimeStampEP11ChiMetadatamj+0x70>
   2eccc: c8 06 00 b4  	cbz	x8, 0x2eda4 <_ZN8ChxUtils15UpdateTimeStampEP11ChiMetadatamj+0x134>
   2ecd8: c1 06 00 54  	b.ne	0x2edb0 <_ZN8ChxUtils15UpdateTimeStampEP11ChiMetadatamj+0x140>
   2ecdc: 71 00 00 14  	b	0x2eea0 <_ZN8ChxUtils15UpdateTimeStampEP11ChiMetadatamj+0x230>
   2ece0: 8b 00 00 b0  	adrp	x11, 0x3f000 <_ZN8ChxUtils15UpdateTimeStampEP11ChiMetadatamj+0xb4>
   2ecec: a9 0d 08 36  	tbz	w9, #1, 0x2eea0 <_ZN8ChxUtils15UpdateTimeStampEP11ChiMetadatamj+0x230>
   2ecf0: 8c 00 00 b0  	adrp	x12, 0x3f000 <_ZN8ChxUtils15UpdateTimeStampEP11ChiMetadatamj+0xc4>
   2ed00: 41 02 00 54  	b.ne	0x2ed48 <_ZN8ChxUtils15UpdateTimeStampEP11ChiMetadatamj+0xd8>
   2ed04: f5 fe ff f0  	adrp	x21, 0xd000 <_ZN8ChxUtils15UpdateTimeStampEP11ChiMetadatamj+0x10>
   2ed20: 01 ff ff b0  	adrp	x1, 0xf000 <_ZN8ChxUtils15UpdateTimeStampEP11ChiMetadatamj+0x34>
   2ed24: c2 fe ff d0  	adrp	x2, 0x8000 <_ZN8ChxUtils15UpdateTimeStampEP11ChiMetadatamj+0x1c>
   2ed28: e5 fe ff f0  	adrp	x5, 0xd000 <_ZN8ChxUtils15UpdateTimeStampEP11ChiMetadatamj+0x34>
   2ed48: f6 fe ff f0  	adrp	x22, 0xd000 <_ZN8ChxUtils15UpdateTimeStampEP11ChiMetadatamj+0x54>
   2ed64: c1 fe ff f0  	adrp	x1, 0x9000 <_ZN8ChxUtils15UpdateTimeStampEP11ChiMetadatamj+0x60>
   2ed6c: e0 fe ff f0  	adrp	x0, 0xd000 <_ZN8ChxUtils15UpdateTimeStampEP11ChiMetadatamj+0x78>
   2ed70: e3 fe ff f0  	adrp	x3, 0xd000 <_ZN8ChxUtils15UpdateTimeStampEP11ChiMetadatamj+0x7c>
   2ed74: 05 ff ff b0  	adrp	x5, 0xf000 <_ZN8ChxUtils15UpdateTimeStampEP11ChiMetadatamj+0x88>
   2ed8c: 41 3e 00 94  	bl	0x3e690 <_ZN6ChiLog9LogSystemEPKcS1_S1_S1_iS1_z@plt>
   2ed9c: a0 08 00 54  	b.eq	0x2eeb0 <_ZN8ChxUtils15UpdateTimeStampEP11ChiMetadatamj+0x240>
   2edac: a0 07 00 54  	b.eq	0x2eea0 <_ZN8ChxUtils15UpdateTimeStampEP11ChiMetadatamj+0x230>
   2edd0: 89 00 00 b0  	adrp	x9, 0x3f000 <_ZN8ChxUtils15UpdateTimeStampEP11ChiMetadatamj+0x1a4>
   2eddc: 28 06 18 36  	tbz	w8, #3, 0x2eea0 <_ZN8ChxUtils15UpdateTimeStampEP11ChiMetadatamj+0x230>
   2ede0: 8a 00 00 b0  	adrp	x10, 0x3f000 <_ZN8ChxUtils15UpdateTimeStampEP11ChiMetadatamj+0x1b4>
   2ede4: f6 fe ff f0  	adrp	x22, 0xd000 <_ZN8ChxUtils15UpdateTimeStampEP11ChiMetadatamj+0xf0>
   2edf8: a1 02 00 54  	b.ne	0x2ee4c <_ZN8ChxUtils15UpdateTimeStampEP11ChiMetadatamj+0x1dc>
   2ee18: 01 ff ff b0  	adrp	x1, 0xf000 <_ZN8ChxUtils15UpdateTimeStampEP11ChiMetadatamj+0x12c>
   2ee1c: 02 ff ff b0  	adrp	x2, 0xf000 <_ZN8ChxUtils15UpdateTimeStampEP11ChiMetadatamj+0x130>
   2ee20: e5 fe ff f0  	adrp	x5, 0xd000 <_ZN8ChxUtils15UpdateTimeStampEP11ChiMetadatamj+0x12c>
   2ee6c: 00 ff ff b0  	adrp	x0, 0xf000 <_ZN8ChxUtils15UpdateTimeStampEP11ChiMetadatamj+0x180>
   2ee70: e1 fe ff d0  	adrp	x1, 0xc000 <_ZN8ChxUtils15UpdateTimeStampEP11ChiMetadatamj+0x178>
   2ee74: e3 fe ff f0  	adrp	x3, 0xd000 <_ZN8ChxUtils15UpdateTimeStampEP11ChiMetadatamj+0x180>
   2ee78: c5 fe ff f0  	adrp	x5, 0x9000 <_ZN8ChxUtils15UpdateTimeStampEP11ChiMetadatamj+0x174>
   2ee9c: fd 3d 00 94  	bl	0x3e690 <_ZN6ChiLog9LogSystemEPKcS1_S1_S1_iS1_z@plt>
   2eeac: a1 f7 ff 54  	b.ne	0x2eda0 <_ZN8ChxUtils15UpdateTimeStampEP11ChiMetadatamj+0x130>
000000000002eec8 <_ZN8ChxUtils18IsVendorTagPresentEP11ChiMetadata9VendorTag>:
   2eee8: a0 02 00 b4  	cbz	x0, 0x2ef3c <_ZN8ChxUtils18IsVendorTagPresentEP11ChiMetadata9VendorTag+0x74>
   2eef4: eb 3d 00 94  	bl	0x3e6a0 <_ZN15ExtensionModule11GetInstanceEv@plt>
   2ef34: e0 00 00 54  	b.eq	0x2ef50 <_ZN8ChxUtils18IsVendorTagPresentEP11ChiMetadata9VendorTag+0x88>
   2ef38: 0b 00 00 14  	b	0x2ef64 <_ZN8ChxUtils18IsVendorTagPresentEP11ChiMetadata9VendorTag+0x9c>
   2ef48: e1 00 00 54  	b.ne	0x2ef64 <_ZN8ChxUtils18IsVendorTagPresentEP11ChiMetadata9VendorTag+0x9c>
000000000002ef68 <_ZN8ChxUtils19HasInputBufferErrorEP18ChiPipelineRequest>:
   2ef6c: e8 02 00 34  	cbz	w8, 0x2efc8 <_ZN8ChxUtils19HasInputBufferErrorEP18ChiPipelineRequest+0x60>
   2ef7c: 04 00 00 14  	b	0x2ef8c <_ZN8ChxUtils19HasInputBufferErrorEP18ChiPipelineRequest+0x24>
   2ef88: 00 02 00 54  	b.eq	0x2efc8 <_ZN8ChxUtils19HasInputBufferErrorEP18ChiPipelineRequest+0x60>
   2ef94: 6c ff ff 34  	cbz	w12, 0x2ef80 <_ZN8ChxUtils19HasInputBufferErrorEP18ChiPipelineRequest+0x18>
   2efa8: cf 00 00 35  	cbnz	w15, 0x2efc0 <_ZN8ChxUtils19HasInputBufferErrorEP18ChiPipelineRequest+0x58>
   2efb8: 61 ff ff 54  	b.ne	0x2efa4 <_ZN8ChxUtils19HasInputBufferErrorEP18ChiPipelineRequest+0x3c>
   2efbc: f1 ff ff 17  	b	0x2ef80 <_ZN8ChxUtils19HasInputBufferErrorEP18ChiPipelineRequest+0x18>
000000000002efd0 <_ZN8ChxUtils25FillDefaultTuningMetadataEP11ChiMetadata25ChiModeUsecaseSubModeTypej>:
   2eff4: 80 20 00 b4  	cbz	x0, 0x2f404 <_ZN8ChxUtils25FillDefaultTuningMetadataEP11ChiMetadata25ChiModeUsecaseSubModeTypej+0x434>
   2eff8: ce fe ff b0  	adrp	x14, 0x7000 <_ZN8ChxUtils18IsVendorTagPresentEP11ChiMetadata9VendorTag+0x94>
   2f03c: 99 3d 00 94  	bl	0x3e6a0 <_ZN15ExtensionModule11GetInstanceEv@plt>
   2f060: 6b 00 00 b4  	cbz	x11, 0x2f06c <_ZN8ChxUtils25FillDefaultTuningMetadataEP11ChiMetadata25ChiModeUsecaseSubModeTypej+0x9c>
   2f068: 02 00 00 14  	b	0x2f070 <_ZN8ChxUtils25FillDefaultTuningMetadataEP11ChiMetadata25ChiModeUsecaseSubModeTypej+0xa0>
   2f070: 98 00 00 90  	adrp	x24, 0x3f000 <_ZN8ChxUtils25FillDefaultTuningMetadataEP11ChiMetadata25ChiModeUsecaseSubModeTypej+0xe0>
   2f074: 97 00 00 90  	adrp	x23, 0x3f000 <_ZN8ChxUtils25FillDefaultTuningMetadataEP11ChiMetadata25ChiModeUsecaseSubModeTypej+0xe4>
   2f078: f3 fe ff d0  	adrp	x19, 0xd000 <_ZN8ChxUtils25FillDefaultTuningMetadataEP11ChiMetadata25ChiModeUsecaseSubModeTypej+0x20>
   2f08c: ab 04 30 36  	tbz	w11, #6, 0x2f120 <_ZN8ChxUtils25FillDefaultTuningMetadataEP11ChiMetadata25ChiModeUsecaseSubModeTypej+0x150>
   2f098: 21 02 00 54  	b.ne	0x2f0dc <_ZN8ChxUtils25FillDefaultTuningMetadataEP11ChiMetadata25ChiModeUsecaseSubModeTypej+0x10c>
   2f0b0: 01 ff ff 90  	adrp	x1, 0xf000 <_ZN8ChxUtils25FillDefaultTuningMetadataEP11ChiMetadata25ChiModeUsecaseSubModeTypej+0x60>
   2f0b4: 02 ff ff 90  	adrp	x2, 0xf000 <_ZN8ChxUtils25FillDefaultTuningMetadataEP11ChiMetadata25ChiModeUsecaseSubModeTypej+0x64>
   2f0b8: e5 fe ff 90  	adrp	x5, 0xb000 <_ZN8ChxUtils25FillDefaultTuningMetadataEP11ChiMetadata25ChiModeUsecaseSubModeTypej+0x58>
   2f0f0: c1 fe ff b0  	adrp	x1, 0x8000 <_ZN8ChxUtils25FillDefaultTuningMetadataEP11ChiMetadata25ChiModeUsecaseSubModeTypej+0x84>
   2f0f8: e0 fe ff d0  	adrp	x0, 0xd000 <_ZN8ChxUtils25FillDefaultTuningMetadataEP11ChiMetadata25ChiModeUsecaseSubModeTypej+0xa0>
   2f0fc: e3 fe ff 90  	adrp	x3, 0xb000 <_ZN8ChxUtils25FillDefaultTuningMetadataEP11ChiMetadata25ChiModeUsecaseSubModeTypej+0x9c>
   2f100: c5 fe ff d0  	adrp	x5, 0x9000 <_ZN8ChxUtils25FillDefaultTuningMetadataEP11ChiMetadata25ChiModeUsecaseSubModeTypej+0x98>
   2f11c: 5d 3d 00 94  	bl	0x3e690 <_ZN6ChiLog9LogSystemEPKcS1_S1_S1_iS1_z@plt>
   2f128: 5e 3d 00 94  	bl	0x3e6a0 <_ZN15ExtensionModule11GetInstanceEv@plt>
   2f14c: ac 00 00 b4  	cbz	x12, 0x2f160 <_ZN8ChxUtils25FillDefaultTuningMetadataEP11ChiMetadata25ChiModeUsecaseSubModeTypej+0x190>
   2f158: ad 00 30 37  	tbnz	w13, #6, 0x2f16c <_ZN8ChxUtils25FillDefaultTuningMetadataEP11ChiMetadata25ChiModeUsecaseSubModeTypej+0x19c>
   2f15c: 28 00 00 14  	b	0x2f1fc <_ZN8ChxUtils25FillDefaultTuningMetadataEP11ChiMetadata25ChiModeUsecaseSubModeTypej+0x22c>
   2f168: ad 04 30 36  	tbz	w13, #6, 0x2f1fc <_ZN8ChxUtils25FillDefaultTuningMetadataEP11ChiMetadata25ChiModeUsecaseSubModeTypej+0x22c>
   2f174: 21 02 00 54  	b.ne	0x2f1b8 <_ZN8ChxUtils25FillDefaultTuningMetadataEP11ChiMetadata25ChiModeUsecaseSubModeTypej+0x1e8>
   2f18c: 01 ff ff 90  	adrp	x1, 0xf000 <_ZN8ChxUtils25FillDefaultTuningMetadataEP11ChiMetadata25ChiModeUsecaseSubModeTypej+0x13c>
   2f190: c2 fe ff d0  	adrp	x2, 0x9000 <_ZN8ChxUtils25FillDefaultTuningMetadataEP11ChiMetadata25ChiModeUsecaseSubModeTypej+0x128>
   2f194: e5 fe ff b0  	adrp	x5, 0xc000 <_ZN8ChxUtils25FillDefaultTuningMetadataEP11ChiMetadata25ChiModeUsecaseSubModeTypej+0x138>
   2f1cc: c1 fe ff b0  	adrp	x1, 0x8000 <_ZN8ChxUtils25FillDefaultTuningMetadataEP11ChiMetadata25ChiModeUsecaseSubModeTypej+0x160>
   2f1d4: e0 fe ff d0  	adrp	x0, 0xd000 <_ZN8ChxUtils25FillDefaultTuningMetadataEP11ChiMetadata25ChiModeUsecaseSubModeTypej+0x17c>
   2f1d8: e3 fe ff b0  	adrp	x3, 0xc000 <_ZN8ChxUtils25FillDefaultTuningMetadataEP11ChiMetadata25ChiModeUsecaseSubModeTypej+0x17c>
   2f1dc: c5 fe ff f0  	adrp	x5, 0xa000 <_ZN8ChxUtils25FillDefaultTuningMetadataEP11ChiMetadata25ChiModeUsecaseSubModeTypej+0x178>
   2f1f8: 26 3d 00 94  	bl	0x3e690 <_ZN6ChiLog9LogSystemEPKcS1_S1_S1_iS1_z@plt>
   2f228: 09 02 00 b4  	cbz	x9, 0x2f268 <_ZN8ChxUtils25FillDefaultTuningMetadataEP11ChiMetadata25ChiModeUsecaseSubModeTypej+0x298>
   2f254: a1 00 00 54  	b.ne	0x2f268 <_ZN8ChxUtils25FillDefaultTuningMetadataEP11ChiMetadata25ChiModeUsecaseSubModeTypej+0x298>
   2f25c: 6a 00 00 b4  	cbz	x10, 0x2f268 <_ZN8ChxUtils25FillDefaultTuningMetadataEP11ChiMetadata25ChiModeUsecaseSubModeTypej+0x298>
   2f268: 0e 3d 00 94  	bl	0x3e6a0 <_ZN15ExtensionModule11GetInstanceEv@plt>
   2f2a0: a8 00 00 54  	b.hi	0x2f2b4 <_ZN8ChxUtils25FillDefaultTuningMetadataEP11ChiMetadata25ChiModeUsecaseSubModeTypej+0x2e4>
   2f2a4: 0e ff ff b0  	adrp	x14, 0x10000 <_ZN8ChxUtils25FillDefaultTuningMetadataEP11ChiMetadata25ChiModeUsecaseSubModeTypej+0x258>
   2f2e0: ad 00 00 b4  	cbz	x13, 0x2f2f4 <_ZN8ChxUtils25FillDefaultTuningMetadataEP11ChiMetadata25ChiModeUsecaseSubModeTypej+0x324>
   2f2ec: 63 00 00 54  	b.lo	0x2f2f8 <_ZN8ChxUtils25FillDefaultTuningMetadataEP11ChiMetadata25ChiModeUsecaseSubModeTypej+0x328>
   2f2f0: 06 00 00 14  	b	0x2f308 <_ZN8ChxUtils25FillDefaultTuningMetadataEP11ChiMetadata25ChiModeUsecaseSubModeTypej+0x338>
   2f2f8: 02 ff ff b0  	adrp	x2, 0x10000 <_ZN8ChxUtils25FillDefaultTuningMetadataEP11ChiMetadata25ChiModeUsecaseSubModeTypej+0x2ac>
   2f30c: e5 3c 00 94  	bl	0x3e6a0 <_ZN15ExtensionModule11GetInstanceEv@plt>
   2f330: b1 06 28 36  	tbz	w17, #5, 0x2f404 <_ZN8ChxUtils25FillDefaultTuningMetadataEP11ChiMetadata25ChiModeUsecaseSubModeTypej+0x434>
   2f33c: 21 03 00 54  	b.ne	0x2f3a0 <_ZN8ChxUtils25FillDefaultTuningMetadataEP11ChiMetadata25ChiModeUsecaseSubModeTypej+0x3d0>
   2f35c: 01 ff ff 90  	adrp	x1, 0xf000 <_ZN8ChxUtils25FillDefaultTuningMetadataEP11ChiMetadata25ChiModeUsecaseSubModeTypej+0x30c>
   2f364: c2 fe ff f0  	adrp	x2, 0xa000 <_ZN8ChxUtils25FillDefaultTuningMetadataEP11ChiMetadata25ChiModeUsecaseSubModeTypej+0x300>
   2f36c: e5 fe ff f0  	adrp	x5, 0xe000 <_ZN8ChxUtils25FillDefaultTuningMetadataEP11ChiMetadata25ChiModeUsecaseSubModeTypej+0x318>
   2f3c4: e0 fe ff f0  	adrp	x0, 0xe000 <_ZN8ChxUtils25FillDefaultTuningMetadataEP11ChiMetadata25ChiModeUsecaseSubModeTypej+0x370>
   2f3cc: e1 fe ff b0  	adrp	x1, 0xc000 <_ZN8ChxUtils25FillDefaultTuningMetadataEP11ChiMetadata25ChiModeUsecaseSubModeTypej+0x370>
   2f3d4: e3 fe ff f0  	adrp	x3, 0xe000 <_ZN8ChxUtils25FillDefaultTuningMetadataEP11ChiMetadata25ChiModeUsecaseSubModeTypej+0x380>
   2f3d8: c5 fe ff f0  	adrp	x5, 0xa000 <_ZN8ChxUtils25FillDefaultTuningMetadataEP11ChiMetadata25ChiModeUsecaseSubModeTypej+0x374>
   2f400: a4 3c 00 94  	bl	0x3e690 <_ZN6ChiLog9LogSystemEPKcS1_S1_S1_iS1_z@plt>
   2f410: e1 00 00 54  	b.ne	0x2f42c <_ZN8ChxUtils25FillDefaultTuningMetadataEP11ChiMetadata25ChiModeUsecaseSubModeTypej+0x45c>
000000000002f430 <_ZN8ChxUtils21GetCameraIdFromStreamEPK9ChiStream>:
   2f43c: 60 01 00 b4  	cbz	x0, 0x2f468 <_ZN8ChxUtils21GetCameraIdFromStreamEPK9ChiStream+0x38>
   2f448: 00 01 00 b4  	cbz	x0, 0x2f468 <_ZN8ChxUtils21GetCameraIdFromStreamEPK9ChiStream+0x38>
   2f454: a0 00 00 b4  	cbz	x0, 0x2f468 <_ZN8ChxUtils21GetCameraIdFromStreamEPK9ChiStream+0x38>
000000000002f478 <_ZN8ChxUtils31UpdateMetadataWithInputSettingsER11ChiMetadataS1_>:
   2f4c4: e2 00 00 b4  	cbz	x2, 0x2f4e0 <_ZN8ChxUtils31UpdateMetadataWithInputSettingsER11ChiMetadataS1_+0x68>
   2f504: 02 01 00 b4  	cbz	x2, 0x2f524 <_ZN8ChxUtils31UpdateMetadataWithInputSettingsER11ChiMetadataS1_+0xac>
   2f548: 02 01 00 b4  	cbz	x2, 0x2f568 <_ZN8ChxUtils31UpdateMetadataWithInputSettingsER11ChiMetadataS1_+0xf0>
   2f58c: 02 01 00 b4  	cbz	x2, 0x2f5ac <_ZN8ChxUtils31UpdateMetadataWithInputSettingsER11ChiMetadataS1_+0x134>
   2f5d0: 02 01 00 b4  	cbz	x2, 0x2f5f0 <_ZN8ChxUtils31UpdateMetadataWithInputSettingsER11ChiMetadataS1_+0x178>
   2f614: 02 01 00 b4  	cbz	x2, 0x2f634 <_ZN8ChxUtils31UpdateMetadataWithInputSettingsER11ChiMetadataS1_+0x1bc>
   2f654: e2 00 00 b4  	cbz	x2, 0x2f670 <_ZN8ChxUtils31UpdateMetadataWithInputSettingsER11ChiMetadataS1_+0x1f8>
   2f694: 02 01 00 b4  	cbz	x2, 0x2f6b4 <_ZN8ChxUtils31UpdateMetadataWithInputSettingsER11ChiMetadataS1_+0x23c>
   2f6b4: fb 3b 00 94  	bl	0x3e6a0 <_ZN15ExtensionModule11GetInstanceEv@plt>
   2f6dc: 56 01 00 b4  	cbz	x22, 0x2f704 <_ZN8ChxUtils31UpdateMetadataWithInputSettingsER11ChiMetadataS1_+0x28c>
   2f6e0: f0 3b 00 94  	bl	0x3e6a0 <_ZN15ExtensionModule11GetInstanceEv@plt>
   2f700: 2d 00 00 14  	b	0x2f7b4 <_ZN8ChxUtils31UpdateMetadataWithInputSettingsER11ChiMetadataS1_+0x33c>
   2f704: 88 00 00 90  	adrp	x8, 0x3f000 <_ZN8ChxUtils31UpdateMetadataWithInputSettingsER11ChiMetadataS1_+0x2cc>
   2f710: 28 05 30 36  	tbz	w8, #6, 0x2f7b4 <_ZN8ChxUtils31UpdateMetadataWithInputSettingsER11ChiMetadataS1_+0x33c>
   2f714: 89 00 00 90  	adrp	x9, 0x3f000 <_ZN8ChxUtils31UpdateMetadataWithInputSettingsER11ChiMetadataS1_+0x2dc>
   2f718: f6 fe ff d0  	adrp	x22, 0xd000 <_ZN8ChxUtils31UpdateMetadataWithInputSettingsER11ChiMetadataS1_+0x218>
   2f72c: 21 02 00 54  	b.ne	0x2f770 <_ZN8ChxUtils31UpdateMetadataWithInputSettingsER11ChiMetadataS1_+0x2f8>
   2f744: 01 ff ff 90  	adrp	x1, 0xf000 <_ZN8ChxUtils31UpdateMetadataWithInputSettingsER11ChiMetadataS1_+0x24c>
   2f748: e2 fe ff f0  	adrp	x2, 0xe000 <_ZN8ChxUtils31UpdateMetadataWithInputSettingsER11ChiMetadataS1_+0x24c>
   2f74c: e5 fe ff 90  	adrp	x5, 0xb000 <_ZN8ChxUtils31UpdateMetadataWithInputSettingsER11ChiMetadataS1_+0x244>
   2f784: c1 fe ff b0  	adrp	x1, 0x8000 <_ZN8ChxUtils31UpdateMetadataWithInputSettingsER11ChiMetadataS1_+0x270>
   2f78c: e0 fe ff d0  	adrp	x0, 0xd000 <_ZN8ChxUtils31UpdateMetadataWithInputSettingsER11ChiMetadataS1_+0x28c>
   2f790: e3 fe ff 90  	adrp	x3, 0xb000 <_ZN8ChxUtils31UpdateMetadataWithInputSettingsER11ChiMetadataS1_+0x288>
   2f794: c5 fe ff d0  	adrp	x5, 0x9000 <_ZN8ChxUtils31UpdateMetadataWithInputSettingsER11ChiMetadataS1_+0x284>
   2f7b0: b8 3b 00 94  	bl	0x3e690 <_ZN6ChiLog9LogSystemEPKcS1_S1_S1_iS1_z@plt>
   2f7d8: 02 01 00 b4  	cbz	x2, 0x2f7f8 <_ZN8ChxUtils31UpdateMetadataWithInputSettingsER11ChiMetadataS1_+0x380>
   2f804: 01 01 00 54  	b.ne	0x2f824 <_ZN8ChxUtils31UpdateMetadataWithInputSettingsER11ChiMetadataS1_+0x3ac>
000000000002f828 <_ZN8ChxUtils34UpdateMetadataWithSnapshotSettingsER11ChiMetadata>:
   2f848: e1 fe ff d0  	adrp	x1, 0xd000 <_ZN8ChxUtils31UpdateMetadataWithInputSettingsER11ChiMetadataS1_+0x348>
   2f84c: e2 fe ff b0  	adrp	x2, 0xc000 <_ZN8ChxUtils31UpdateMetadataWithInputSettingsER11ChiMetadataS1_+0x348>
   2f878: 0a 07 00 b5  	cbnz	x10, 0x2f958 <_ZN8ChxUtils34UpdateMetadataWithSnapshotSettingsER11ChiMetadata+0x130>
   2f87c: 88 00 00 90  	adrp	x8, 0x3f000 <_ZN8ChxUtils34UpdateMetadataWithSnapshotSettingsER11ChiMetadata+0x94>
   2f888: 28 05 30 36  	tbz	w8, #6, 0x2f92c <_ZN8ChxUtils34UpdateMetadataWithSnapshotSettingsER11ChiMetadata+0x104>
   2f88c: 89 00 00 90  	adrp	x9, 0x3f000 <_ZN8ChxUtils34UpdateMetadataWithSnapshotSettingsER11ChiMetadata+0xa4>
   2f89c: 41 02 00 54  	b.ne	0x2f8e4 <_ZN8ChxUtils34UpdateMetadataWithSnapshotSettingsER11ChiMetadata+0xbc>
   2f8a0: f4 fe ff d0  	adrp	x20, 0xd000 <_ZN8ChxUtils31UpdateMetadataWithInputSettingsER11ChiMetadataS1_+0x3a0>
   2f8bc: 01 ff ff 90  	adrp	x1, 0xf000 <_ZN8ChxUtils34UpdateMetadataWithSnapshotSettingsER11ChiMetadata+0x14>
   2f8c0: e2 fe ff b0  	adrp	x2, 0xc000 <_ZN8ChxUtils34UpdateMetadataWithSnapshotSettingsER11ChiMetadata+0xc>
   2f8c4: e5 fe ff d0  	adrp	x5, 0xd000 <_ZN8ChxUtils34UpdateMetadataWithSnapshotSettingsER11ChiMetadata+0x14>
   2f8e4: f4 fe ff d0  	adrp	x20, 0xd000 <_ZN8ChxUtils34UpdateMetadataWithSnapshotSettingsER11ChiMetadata+0x34>
   2f900: c1 fe ff b0  	adrp	x1, 0x8000 <_ZN8ChxUtils34UpdateMetadataWithSnapshotSettingsER11ChiMetadata+0x3c>
   2f908: e0 fe ff d0  	adrp	x0, 0xd000 <_ZN8ChxUtils34UpdateMetadataWithSnapshotSettingsER11ChiMetadata+0x58>
   2f90c: e3 fe ff d0  	adrp	x3, 0xd000 <_ZN8ChxUtils34UpdateMetadataWithSnapshotSettingsER11ChiMetadata+0x5c>
   2f910: e5 fe ff b0  	adrp	x5, 0xc000 <_ZN8ChxUtils34UpdateMetadataWithSnapshotSettingsER11ChiMetadata+0x5c>
   2f928: 5a 3b 00 94  	bl	0x3e690 <_ZN6ChiLog9LogSystemEPKcS1_S1_S1_iS1_z@plt>
   2f930: e1 fe ff d0  	adrp	x1, 0xd000 <_ZN8ChxUtils34UpdateMetadataWithSnapshotSettingsER11ChiMetadata+0x80>
   2f938: e2 fe ff b0  	adrp	x2, 0xc000 <_ZN8ChxUtils34UpdateMetadataWithSnapshotSettingsER11ChiMetadata+0x84>
   2f95c: e1 fe ff d0  	adrp	x1, 0xd000 <_ZN8ChxUtils34UpdateMetadataWithSnapshotSettingsER11ChiMetadata+0xac>
   2f964: c2 fe ff d0  	adrp	x2, 0x9000 <_ZN8ChxUtils34UpdateMetadataWithSnapshotSettingsER11ChiMetadata+0xa4>
   2f984: 2d 07 00 b5  	cbnz	x13, 0x2fa68 <_ZN8ChxUtils34UpdateMetadataWithSnapshotSettingsER11ChiMetadata+0x240>
   2f988: 8a 00 00 90  	adrp	x10, 0x3f000 <_ZN8ChxUtils34UpdateMetadataWithSnapshotSettingsER11ChiMetadata+0x1a0>
   2f994: 29 05 30 36  	tbz	w9, #6, 0x2fa38 <_ZN8ChxUtils34UpdateMetadataWithSnapshotSettingsER11ChiMetadata+0x210>
   2f998: 8b 00 00 90  	adrp	x11, 0x3f000 <_ZN8ChxUtils34UpdateMetadataWithSnapshotSettingsER11ChiMetadata+0x1b0>
   2f9a8: 41 02 00 54  	b.ne	0x2f9f0 <_ZN8ChxUtils34UpdateMetadataWithSnapshotSettingsER11ChiMetadata+0x1c8>
   2f9ac: f4 fe ff d0  	adrp	x20, 0xd000 <_ZN8ChxUtils34UpdateMetadataWithSnapshotSettingsER11ChiMetadata+0xfc>
   2f9c8: 01 ff ff 90  	adrp	x1, 0xf000 <_ZN8ChxUtils34UpdateMetadataWithSnapshotSettingsER11ChiMetadata+0x120>
   2f9cc: e2 fe ff b0  	adrp	x2, 0xc000 <_ZN8ChxUtils34UpdateMetadataWithSnapshotSettingsER11ChiMetadata+0x118>
   2f9d0: e5 fe ff d0  	adrp	x5, 0xd000 <_ZN8ChxUtils34UpdateMetadataWithSnapshotSettingsER11ChiMetadata+0x120>
   2f9f0: f4 fe ff d0  	adrp	x20, 0xd000 <_ZN8ChxUtils34UpdateMetadataWithSnapshotSettingsER11ChiMetadata+0x140>
   2fa0c: c1 fe ff b0  	adrp	x1, 0x8000 <_ZN8ChxUtils34UpdateMetadataWithSnapshotSettingsER11ChiMetadata+0x148>
   2fa14: e0 fe ff d0  	adrp	x0, 0xd000 <_ZN8ChxUtils34UpdateMetadataWithSnapshotSettingsER11ChiMetadata+0x164>
   2fa18: e3 fe ff d0  	adrp	x3, 0xd000 <_ZN8ChxUtils34UpdateMetadataWithSnapshotSettingsER11ChiMetadata+0x168>
   2fa1c: e5 fe ff b0  	adrp	x5, 0xc000 <_ZN8ChxUtils34UpdateMetadataWithSnapshotSettingsER11ChiMetadata+0x168>
   2fa34: 17 3b 00 94  	bl	0x3e690 <_ZN6ChiLog9LogSystemEPKcS1_S1_S1_iS1_z@plt>
   2fa3c: e1 fe ff d0  	adrp	x1, 0xd000 <_ZN8ChxUtils34UpdateMetadataWithSnapshotSettingsER11ChiMetadata+0x18c>
   2fa44: c2 fe ff d0  	adrp	x2, 0x9000 <_ZN8ChxUtils34UpdateMetadataWithSnapshotSettingsER11ChiMetadata+0x184>
   2fa6c: 01 ff ff 90  	adrp	x1, 0xf000 <_ZN8ChxUtils34UpdateMetadataWithSnapshotSettingsER11ChiMetadata+0x1c4>
   2fa74: e2 fe ff f0  	adrp	x2, 0xe000 <_ZN8ChxUtils34UpdateMetadataWithSnapshotSettingsER11ChiMetadata+0x1c8>
   2fa94: 70 05 00 b5  	cbnz	x16, 0x2fb40 <_ZN8ChxUtils34UpdateMetadataWithSnapshotSettingsER11ChiMetadata+0x318>
   2fa98: 8c 00 00 90  	adrp	x12, 0x3f000 <_ZN8ChxUtils34UpdateMetadataWithSnapshotSettingsER11ChiMetadata+0x2b0>
   2faa4: eb 04 30 36  	tbz	w11, #6, 0x2fb40 <_ZN8ChxUtils34UpdateMetadataWithSnapshotSettingsER11ChiMetadata+0x318>
   2faa8: 8d 00 00 90  	adrp	x13, 0x3f000 <_ZN8ChxUtils34UpdateMetadataWithSnapshotSettingsER11ChiMetadata+0x2c0>
   2faac: f3 fe ff d0  	adrp	x19, 0xd000 <_ZN8ChxUtils34UpdateMetadataWithSnapshotSettingsER11ChiMetadata+0x1fc>
   2fac0: 01 02 00 54  	b.ne	0x2fb00 <_ZN8ChxUtils34UpdateMetadataWithSnapshotSettingsER11ChiMetadata+0x2d8>
   2fad8: 01 ff ff 90  	adrp	x1, 0xf000 <_ZN8ChxUtils34UpdateMetadataWithSnapshotSettingsER11ChiMetadata+0x230>
   2fadc: c2 fe ff 90  	adrp	x2, 0x7000 <_ZN8ChxUtils34UpdateMetadataWithSnapshotSettingsER11ChiMetadata+0x214>
   2fae0: e5 fe ff d0  	adrp	x5, 0xd000 <_ZN8ChxUtils34UpdateMetadataWithSnapshotSettingsER11ChiMetadata+0x230>
   2fb14: c1 fe ff b0  	adrp	x1, 0x8000 <_ZN8ChxUtils34UpdateMetadataWithSnapshotSettingsER11ChiMetadata+0x250>
   2fb1c: e0 fe ff d0  	adrp	x0, 0xd000 <_ZN8ChxUtils34UpdateMetadataWithSnapshotSettingsER11ChiMetadata+0x26c>
   2fb20: e3 fe ff d0  	adrp	x3, 0xd000 <_ZN8ChxUtils34UpdateMetadataWithSnapshotSettingsER11ChiMetadata+0x270>
   2fb24: e5 fe ff d0  	adrp	x5, 0xd000 <_ZN8ChxUtils34UpdateMetadataWithSnapshotSettingsER11ChiMetadata+0x274>
   2fb3c: d5 3a 00 94  	bl	0x3e690 <_ZN6ChiLog9LogSystemEPKcS1_S1_S1_iS1_z@plt>
   2fb4c: e1 00 00 54  	b.ne	0x2fb68 <_ZN8ChxUtils34UpdateMetadataWithSnapshotSettingsER11ChiMetadata+0x340>
000000000002fb70 <_ZN8ChxUtils21GetCaptureIntentValueEP11ChiMetadata>:
   2fb90: 40 01 00 b4  	cbz	x0, 0x2fbb8 <_ZN8ChxUtils21GetCaptureIntentValueEP11ChiMetadata+0x48>
   2fbb4: 80 01 00 34  	cbz	w0, 0x2fbe4 <_ZN8ChxUtils21GetCaptureIntentValueEP11ChiMetadata+0x74>
   2fbc8: c1 06 00 54  	b.ne	0x2fca0 <_ZN8ChxUtils21GetCaptureIntentValueEP11ChiMetadata+0x130>
   2fbe4: 88 00 00 90  	adrp	x8, 0x3f000 <_ZN8ChxUtils21GetCaptureIntentValueEP11ChiMetadata+0xb4>
   2fbf8: 28 fe 2f 36  	tbz	w8, #5, 0x2fbbc <_ZN8ChxUtils21GetCaptureIntentValueEP11ChiMetadata+0x4c>
   2fbfc: 8a 00 00 90  	adrp	x10, 0x3f000 <_ZN8ChxUtils21GetCaptureIntentValueEP11ChiMetadata+0xcc>
   2fc00: f4 fe ff d0  	adrp	x20, 0xd000 <_ZN8ChxUtils21GetCaptureIntentValueEP11ChiMetadata+0x8>
   2fc14: 21 02 00 54  	b.ne	0x2fc58 <_ZN8ChxUtils21GetCaptureIntentValueEP11ChiMetadata+0xe8>
   2fc2c: 01 ff ff 90  	adrp	x1, 0xf000 <_ZN8ChxUtils21GetCaptureIntentValueEP11ChiMetadata+0x3c>
   2fc30: e2 fe ff 90  	adrp	x2, 0xb000 <_ZN8ChxUtils21GetCaptureIntentValueEP11ChiMetadata+0x30>
   2fc34: e5 fe ff 90  	adrp	x5, 0xb000 <_ZN8ChxUtils21GetCaptureIntentValueEP11ChiMetadata+0x34>
   2fc6c: e1 fe ff b0  	adrp	x1, 0xc000 <_ZN8ChxUtils21GetCaptureIntentValueEP11ChiMetadata+0x70>
   2fc74: e0 fe ff f0  	adrp	x0, 0xe000 <_ZN8ChxUtils21GetCaptureIntentValueEP11ChiMetadata+0x80>
   2fc78: e3 fe ff 90  	adrp	x3, 0xb000 <_ZN8ChxUtils21GetCaptureIntentValueEP11ChiMetadata+0x78>
   2fc7c: e5 fe ff b0  	adrp	x5, 0xc000 <_ZN8ChxUtils21GetCaptureIntentValueEP11ChiMetadata+0x80>
   2fc98: 7e 3a 00 94  	bl	0x3e690 <_ZN6ChiLog9LogSystemEPKcS1_S1_S1_iS1_z@plt>
   2fc9c: c8 ff ff 17  	b	0x2fbbc <_ZN8ChxUtils21GetCaptureIntentValueEP11ChiMetadata+0x4c>
000000000002fca8 <_ZN8ChxUtils28DoesCameraHaveOnlyRawStreamsEP19ChiStreamConfigInfoj>:
   2fcc4: 48 04 00 34  	cbz	w8, 0x2fd4c <_ZN8ChxUtils28DoesCameraHaveOnlyRawStreamsEP19ChiStreamConfigInfoj+0xa4>
   2fce0: 06 00 00 14  	b	0x2fcf8 <_ZN8ChxUtils28DoesCameraHaveOnlyRawStreamsEP19ChiStreamConfigInfoj+0x50>
   2fcf4: e2 02 00 54  	b.hs	0x2fd50 <_ZN8ChxUtils28DoesCameraHaveOnlyRawStreamsEP19ChiStreamConfigInfoj+0xa8>
   2fd04: 20 ff ff b4  	cbz	x0, 0x2fce8 <_ZN8ChxUtils28DoesCameraHaveOnlyRawStreamsEP19ChiStreamConfigInfoj+0x40>
   2fd08: 39 01 00 b4  	cbz	x25, 0x2fd2c <_ZN8ChxUtils28DoesCameraHaveOnlyRawStreamsEP19ChiStreamConfigInfoj+0x84>
   2fd14: c0 00 00 b4  	cbz	x0, 0x2fd2c <_ZN8ChxUtils28DoesCameraHaveOnlyRawStreamsEP19ChiStreamConfigInfoj+0x84>
   2fd28: 01 fe ff 54  	b.ne	0x2fce8 <_ZN8ChxUtils28DoesCameraHaveOnlyRawStreamsEP19ChiStreamConfigInfoj+0x40>
   2fd38: 68 00 00 54  	b.hi	0x2fd44 <_ZN8ChxUtils28DoesCameraHaveOnlyRawStreamsEP19ChiStreamConfigInfoj+0x9c>
   2fd40: 29 fd 07 37  	tbnz	w9, #0, 0x2fce4 <_ZN8ChxUtils28DoesCameraHaveOnlyRawStreamsEP19ChiStreamConfigInfoj+0x3c>
   2fd48: 04 00 00 14  	b	0x2fd58 <_ZN8ChxUtils28DoesCameraHaveOnlyRawStreamsEP19ChiStreamConfigInfoj+0xb0>
000000000002fd70 <_ZN8ChxUtils23UpdateOptimalDimensionsE12ChiDimensionRK16ChiBufferOptionsRS0_>:
   2fd94: 68 05 00 34  	cbz	w8, 0x2fe40 <_ZN8ChxUtils23UpdateOptimalDimensionsE12ChiDimensionRK16ChiBufferOptionsRS0_+0xd0>
   2fdd8: 0d 04 00 54  	b.le	0x2fe58 <_ZN8ChxUtils23UpdateOptimalDimensionsE12ChiDimensionRK16ChiBufferOptionsRS0_+0xe8>
   2fe14: 99 00 00 90  	adrp	x25, 0x3f000 <_ZN8ChxUtils23UpdateOptimalDimensionsE12ChiDimensionRK16ChiBufferOptionsRS0_+0xe4>
   2fe20: 63 02 28 37  	tbnz	w3, #5, 0x2fe6c <_ZN8ChxUtils23UpdateOptimalDimensionsE12ChiDimensionRK16ChiBufferOptionsRS0_+0xfc>
   2fe2c: 42 08 00 54  	b.hs	0x2ff34 <_ZN8ChxUtils23UpdateOptimalDimensionsE12ChiDimensionRK16ChiBufferOptionsRS0_+0x1c4>
   2fe3c: cd 00 00 14  	b	0x30170 <_ZN8ChxUtils23UpdateOptimalDimensionsE12ChiDimensionRK16ChiBufferOptionsRS0_+0x400>
   2fe40: 88 00 00 90  	adrp	x8, 0x3f000 <_ZN8ChxUtils23UpdateOptimalDimensionsE12ChiDimensionRK16ChiBufferOptionsRS0_+0x110>
   2fe4c: 8b 0d 00 37  	tbnz	w11, #0, 0x2fffc <_ZN8ChxUtils23UpdateOptimalDimensionsE12ChiDimensionRK16ChiBufferOptionsRS0_+0x28c>
   2fe54: c7 00 00 14  	b	0x30170 <_ZN8ChxUtils23UpdateOptimalDimensionsE12ChiDimensionRK16ChiBufferOptionsRS0_+0x400>
   2fe5c: 99 00 00 90  	adrp	x25, 0x3f000 <_ZN8ChxUtils23UpdateOptimalDimensionsE12ChiDimensionRK16ChiBufferOptionsRS0_+0x12c>
   2fe68: e3 fd 2f 36  	tbz	w3, #5, 0x2fe24 <_ZN8ChxUtils23UpdateOptimalDimensionsE12ChiDimensionRK16ChiBufferOptionsRS0_+0xb4>
   2fe6c: 8a 00 00 90  	adrp	x10, 0x3f000 <_ZN8ChxUtils23UpdateOptimalDimensionsE12ChiDimensionRK16ChiBufferOptionsRS0_+0x13c>
   2fe70: f6 fe ff d0  	adrp	x22, 0xd000 <_ZN8ChxUtils23UpdateOptimalDimensionsE12ChiDimensionRK16ChiBufferOptionsRS0_+0x78>
   2fe84: 81 02 00 54  	b.ne	0x2fed4 <_ZN8ChxUtils23UpdateOptimalDimensionsE12ChiDimensionRK16ChiBufferOptionsRS0_+0x164>
   2fea0: 01 ff ff 90  	adrp	x1, 0xf000 <_ZN8ChxUtils23UpdateOptimalDimensionsE12ChiDimensionRK16ChiBufferOptionsRS0_+0xb0>
   2fea4: e2 fe ff b0  	adrp	x2, 0xc000 <_ZN8ChxUtils23UpdateOptimalDimensionsE12ChiDimensionRK16ChiBufferOptionsRS0_+0xa8>
   2fea8: c5 fe ff b0  	adrp	x5, 0x8000 <_ZN8ChxUtils23UpdateOptimalDimensionsE12ChiDimensionRK16ChiBufferOptionsRS0_+0x9c>
   2feec: e1 fe ff b0  	adrp	x1, 0xc000 <_ZN8ChxUtils23UpdateOptimalDimensionsE12ChiDimensionRK16ChiBufferOptionsRS0_+0xf0>
   2fef4: e0 fe ff f0  	adrp	x0, 0xe000 <_ZN8ChxUtils23UpdateOptimalDimensionsE12ChiDimensionRK16ChiBufferOptionsRS0_+0x100>
   2fef8: c3 fe ff b0  	adrp	x3, 0x8000 <_ZN8ChxUtils23UpdateOptimalDimensionsE12ChiDimensionRK16ChiBufferOptionsRS0_+0xec>
   2fefc: c5 fe ff 90  	adrp	x5, 0x7000 <_ZN8ChxUtils23UpdateOptimalDimensionsE12ChiDimensionRK16ChiBufferOptionsRS0_+0xec>
   2ff20: dc 39 00 94  	bl	0x3e690 <_ZN6ChiLog9LogSystemEPKcS1_S1_S1_iS1_z@plt>
   2ff30: 03 f8 ff 54  	b.lo	0x2fe30 <_ZN8ChxUtils23UpdateOptimalDimensionsE12ChiDimensionRK16ChiBufferOptionsRS0_+0xc0>
   2ff44: 49 0b 00 54  	b.ls	0x300ac <_ZN8ChxUtils23UpdateOptimalDimensionsE12ChiDimensionRK16ChiBufferOptionsRS0_+0x33c>
   2ff48: 0a 11 08 36  	tbz	w10, #1, 0x30168 <_ZN8ChxUtils23UpdateOptimalDimensionsE12ChiDimensionRK16ChiBufferOptionsRS0_+0x3f8>
   2ff4c: 8b 00 00 90  	adrp	x11, 0x3f000 <_ZN8ChxUtils23UpdateOptimalDimensionsE12ChiDimensionRK16ChiBufferOptionsRS0_+0x21c>
   2ff5c: a1 02 00 54  	b.ne	0x2ffb0 <_ZN8ChxUtils23UpdateOptimalDimensionsE12ChiDimensionRK16ChiBufferOptionsRS0_+0x240>
   2ff60: f6 fe ff d0  	adrp	x22, 0xd000 <_ZN8ChxUtils23UpdateOptimalDimensionsE12ChiDimensionRK16ChiBufferOptionsRS0_+0x168>
   2ff80: 01 ff ff 90  	adrp	x1, 0xf000 <_ZN8ChxUtils23UpdateOptimalDimensionsE12ChiDimensionRK16ChiBufferOptionsRS0_+0x190>
   2ff84: c2 fe ff b0  	adrp	x2, 0x8000 <_ZN8ChxUtils23UpdateOptimalDimensionsE12ChiDimensionRK16ChiBufferOptionsRS0_+0x178>
   2ff88: c5 fe ff b0  	adrp	x5, 0x8000 <_ZN8ChxUtils23UpdateOptimalDimensionsE12ChiDimensionRK16ChiBufferOptionsRS0_+0x17c>
   2ffb0: f6 fe ff d0  	adrp	x22, 0xd000 <_ZN8ChxUtils23UpdateOptimalDimensionsE12ChiDimensionRK16ChiBufferOptionsRS0_+0x1b8>
   2ffcc: c1 fe ff d0  	adrp	x1, 0x9000 <_ZN8ChxUtils23UpdateOptimalDimensionsE12ChiDimensionRK16ChiBufferOptionsRS0_+0x1c4>
   2ffd8: e0 fe ff d0  	adrp	x0, 0xd000 <_ZN8ChxUtils23UpdateOptimalDimensionsE12ChiDimensionRK16ChiBufferOptionsRS0_+0x1e0>
   2ffdc: c3 fe ff b0  	adrp	x3, 0x8000 <_ZN8ChxUtils23UpdateOptimalDimensionsE12ChiDimensionRK16ChiBufferOptionsRS0_+0x1d0>
   2ffe0: c5 fe ff b0  	adrp	x5, 0x8000 <_ZN8ChxUtils23UpdateOptimalDimensionsE12ChiDimensionRK16ChiBufferOptionsRS0_+0x1d4>
   2fff8: 59 00 00 14  	b	0x3015c <_ZN8ChxUtils23UpdateOptimalDimensionsE12ChiDimensionRK16ChiBufferOptionsRS0_+0x3ec>
   2fffc: 89 00 00 90  	adrp	x9, 0x3f000 <_ZN8ChxUtils23UpdateOptimalDimensionsE12ChiDimensionRK16ChiBufferOptionsRS0_+0x2cc>
   3000c: 61 02 00 54  	b.ne	0x30058 <_ZN8ChxUtils23UpdateOptimalDimensionsE12ChiDimensionRK16ChiBufferOptionsRS0_+0x2e8>
   30010: f6 fe ff b0  	adrp	x22, 0xd000 <_ZN8ChxUtils23UpdateOptimalDimensionsE12ChiDimensionRK16ChiBufferOptionsRS0_+0x214>
   30030: e1 fe ff f0  	adrp	x1, 0xf000 <_ZN8ChxUtils23UpdateOptimalDimensionsE12ChiDimensionRK16ChiBufferOptionsRS0_+0x23c>
   30034: e2 fe ff b0  	adrp	x2, 0xd000 <_ZN8ChxUtils23UpdateOptimalDimensionsE12ChiDimensionRK16ChiBufferOptionsRS0_+0x238>
   30038: c5 fe ff 90  	adrp	x5, 0x8000 <_ZN8ChxUtils23UpdateOptimalDimensionsE12ChiDimensionRK16ChiBufferOptionsRS0_+0x228>
   30058: f6 fe ff b0  	adrp	x22, 0xd000 <_ZN8ChxUtils23UpdateOptimalDimensionsE12ChiDimensionRK16ChiBufferOptionsRS0_+0x25c>
   3007c: c0 fe ff 90  	adrp	x0, 0x8000 <_ZN8ChxUtils23UpdateOptimalDimensionsE12ChiDimensionRK16ChiBufferOptionsRS0_+0x26c>
   30080: e1 fe ff d0  	adrp	x1, 0xe000 <_ZN8ChxUtils23UpdateOptimalDimensionsE12ChiDimensionRK16ChiBufferOptionsRS0_+0x288>
   30084: c3 fe ff 90  	adrp	x3, 0x8000 <_ZN8ChxUtils23UpdateOptimalDimensionsE12ChiDimensionRK16ChiBufferOptionsRS0_+0x274>
   30088: e5 fe ff d0  	adrp	x5, 0xe000 <_ZN8ChxUtils23UpdateOptimalDimensionsE12ChiDimensionRK16ChiBufferOptionsRS0_+0x290>
   300a0: 7c 39 00 94  	bl	0x3e690 <_ZN6ChiLog9LogSystemEPKcS1_S1_S1_iS1_z@plt>
   300a8: 32 00 00 14  	b	0x30170 <_ZN8ChxUtils23UpdateOptimalDimensionsE12ChiDimensionRK16ChiBufferOptionsRS0_+0x400>
   300ac: ea 05 18 36  	tbz	w10, #3, 0x30168 <_ZN8ChxUtils23UpdateOptimalDimensionsE12ChiDimensionRK16ChiBufferOptionsRS0_+0x3f8>
   300b0: 6c 00 00 f0  	adrp	x12, 0x3f000 <_ZN8ChxUtils23UpdateOptimalDimensionsE12ChiDimensionRK16ChiBufferOptionsRS0_+0x37c>
   300c0: a1 02 00 54  	b.ne	0x30114 <_ZN8ChxUtils23UpdateOptimalDimensionsE12ChiDimensionRK16ChiBufferOptionsRS0_+0x3a4>
   300c4: f6 fe ff b0  	adrp	x22, 0xd000 <_ZN8ChxUtils23UpdateOptimalDimensionsE12ChiDimensionRK16ChiBufferOptionsRS0_+0x2c8>
   300e4: e1 fe ff f0  	adrp	x1, 0xf000 <_ZN8ChxUtils23UpdateOptimalDimensionsE12ChiDimensionRK16ChiBufferOptionsRS0_+0x2f0>
   300e8: e2 fe ff b0  	adrp	x2, 0xd000 <_ZN8ChxUtils23UpdateOptimalDimensionsE12ChiDimensionRK16ChiBufferOptionsRS0_+0x2ec>
   300ec: c5 fe ff 90  	adrp	x5, 0x8000 <_ZN8ChxUtils23UpdateOptimalDimensionsE12ChiDimensionRK16ChiBufferOptionsRS0_+0x2dc>
   30114: f6 fe ff b0  	adrp	x22, 0xd000 <_ZN8ChxUtils23UpdateOptimalDimensionsE12ChiDimensionRK16ChiBufferOptionsRS0_+0x318>
   30134: e1 fe ff 90  	adrp	x1, 0xc000 <_ZN8ChxUtils23UpdateOptimalDimensionsE12ChiDimensionRK16ChiBufferOptionsRS0_+0x334>
   3013c: e0 fe ff f0  	adrp	x0, 0xf000 <_ZN8ChxUtils23UpdateOptimalDimensionsE12ChiDimensionRK16ChiBufferOptionsRS0_+0x348>
   30140: c3 fe ff 90  	adrp	x3, 0x8000 <_ZN8ChxUtils23UpdateOptimalDimensionsE12ChiDimensionRK16ChiBufferOptionsRS0_+0x330>
   30144: c5 fe ff d0  	adrp	x5, 0xa000 <_ZN8ChxUtils23UpdateOptimalDimensionsE12ChiDimensionRK16ChiBufferOptionsRS0_+0x33c>
   30164: 4b 39 00 94  	bl	0x3e690 <_ZN6ChiLog9LogSystemEPKcS1_S1_S1_iS1_z@plt>
0000000000030190 <_ZN8ChxUtils18SetStreamDimensionEP11ChiMetadataPKcjj>:
   301ac: a0 01 00 b4  	cbz	x0, 0x301e0 <_ZN8ChxUtils18SetStreamDimensionEP11ChiMetadataPKcjj+0x50>
   301b8: 41 01 00 b4  	cbz	x1, 0x301e0 <_ZN8ChxUtils18SetStreamDimensionEP11ChiMetadataPKcjj+0x50>
   301c0: a1 fe ff f0  	adrp	x1, 0x7000 <_ZN8ChxUtils23UpdateOptimalDimensionsE12ChiDimensionRK16ChiBufferOptionsRS0_+0x3ac>
   301ec: c1 00 00 54  	b.ne	0x30204 <_ZN8ChxUtils18SetStreamDimensionEP11ChiMetadataPKcjj+0x74>
0000000000030208 <_ZN8ChxUtils22UpdatePhysicalMetadataEP15camera_metadataP11ChiMetadata12CHIRectangleii>:
   30238: 41 02 00 54  	b.ne	0x30280 <_ZN8ChxUtils22UpdatePhysicalMetadataEP15camera_metadataP11ChiMetadata12CHIRectangleii+0x78>
   3024c: e0 00 00 34  	cbz	w0, 0x30268 <_ZN8ChxUtils22UpdatePhysicalMetadataEP15camera_metadataP11ChiMetadata12CHIRectangleii+0x60>
   30264: 07 00 00 14  	b	0x30280 <_ZN8ChxUtils22UpdatePhysicalMetadataEP15camera_metadataP11ChiMetadata12CHIRectangleii+0x78>
   30294: 80 00 00 35  	cbnz	w0, 0x302a4 <_ZN8ChxUtils22UpdatePhysicalMetadataEP15camera_metadataP11ChiMetadata12CHIRectangleii+0x9c>
   302b0: a1 00 00 54  	b.ne	0x302c4 <_ZN8ChxUtils22UpdatePhysicalMetadataEP15camera_metadataP11ChiMetadata12CHIRectangleii+0xbc>
00000000000302c8 <_ZN8ChxUtils18IsSnapshotMetadataEP11ChiMetadata>:
   302dc: c1 fe ff 90  	adrp	x1, 0x8000 <_ZN8ChxUtils22UpdatePhysicalMetadataEP15camera_metadataP11ChiMetadata12CHIRectangleii+0x34>
   302e4: c2 fe ff d0  	adrp	x2, 0xa000 <_ZN8ChxUtils22UpdatePhysicalMetadataEP15camera_metadataP11ChiMetadata12CHIRectangleii+0x44>
   30310: a8 01 00 b4  	cbz	x8, 0x30344 <_ZN8ChxUtils18IsSnapshotMetadataEP11ChiMetadata+0x7c>
   30330: 01 07 00 54  	b.ne	0x30410 <_ZN8ChxUtils18IsSnapshotMetadataEP11ChiMetadata+0x148>
   30344: 69 00 00 f0  	adrp	x9, 0x3f000 <_ZN8ChxUtils18IsSnapshotMetadataEP11ChiMetadata+0xb8>
   30350: e8 04 00 36  	tbz	w8, #0, 0x303ec <_ZN8ChxUtils18IsSnapshotMetadataEP11ChiMetadata+0x124>
   30354: 6a 00 00 f0  	adrp	x10, 0x3f000 <_ZN8ChxUtils18IsSnapshotMetadataEP11ChiMetadata+0xc8>
   30358: f3 fe ff b0  	adrp	x19, 0xd000 <_ZN8ChxUtils18IsSnapshotMetadataEP11ChiMetadata+0x4>
   3036c: 01 02 00 54  	b.ne	0x303ac <_ZN8ChxUtils18IsSnapshotMetadataEP11ChiMetadata+0xe4>
   30384: e1 fe ff f0  	adrp	x1, 0xf000 <_ZN8ChxUtils18IsSnapshotMetadataEP11ChiMetadata+0x38>
   30388: c2 fe ff f0  	adrp	x2, 0xb000 <_ZN8ChxUtils18IsSnapshotMetadataEP11ChiMetadata+0x2c>
   3038c: c5 fe ff d0  	adrp	x5, 0xa000 <_ZN8ChxUtils18IsSnapshotMetadataEP11ChiMetadata+0x2c>
   303c0: e1 fe ff d0  	adrp	x1, 0xe000 <_ZN8ChxUtils18IsSnapshotMetadataEP11ChiMetadata+0x70>
   303c8: c0 fe ff 90  	adrp	x0, 0x8000 <_ZN8ChxUtils18IsSnapshotMetadataEP11ChiMetadata+0x60>
   303cc: c3 fe ff d0  	adrp	x3, 0xa000 <_ZN8ChxUtils18IsSnapshotMetadataEP11ChiMetadata+0x6c>
   303d0: c5 fe ff f0  	adrp	x5, 0xb000 <_ZN8ChxUtils18IsSnapshotMetadataEP11ChiMetadata+0x74>
   303e8: aa 38 00 94  	bl	0x3e690 <_ZN6ChiLog9LogSystemEPKcS1_S1_S1_iS1_z@plt>
   303f8: c1 00 00 54  	b.ne	0x30410 <_ZN8ChxUtils18IsSnapshotMetadataEP11ChiMetadata+0x148>
0000000000030418 <_ZN8ChxUtils27UpdatePartialTuningModeDataEP11ChiMetadatajjj>:
   30444: 60 13 00 b4  	cbz	x0, 0x306b0 <_ZN8ChxUtils27UpdatePartialTuningModeDataEP11ChiMetadatajjj+0x298>
   30448: 96 38 00 94  	bl	0x3e6a0 <_ZN15ExtensionModule11GetInstanceEv@plt>
   30468: 76 00 00 f0  	adrp	x22, 0x3f000 <_ZN8ChxUtils27UpdatePartialTuningModeDataEP11ChiMetadatajjj+0x8c>
   30470: 20 05 00 34  	cbz	w0, 0x30514 <_ZN8ChxUtils27UpdatePartialTuningModeDataEP11ChiMetadatajjj+0xfc>
   30478: e8 04 08 36  	tbz	w8, #1, 0x30514 <_ZN8ChxUtils27UpdatePartialTuningModeDataEP11ChiMetadatajjj+0xfc>
   3047c: 68 00 00 f0  	adrp	x8, 0x3f000 <_ZN8ChxUtils27UpdatePartialTuningModeDataEP11ChiMetadatajjj+0xa0>
   30480: f4 fe ff b0  	adrp	x20, 0xd000 <_ZN8ChxUtils18IsSnapshotMetadataEP11ChiMetadata+0x12c>
   30494: 01 02 00 54  	b.ne	0x304d4 <_ZN8ChxUtils27UpdatePartialTuningModeDataEP11ChiMetadatajjj+0xbc>
   304ac: e1 fe ff f0  	adrp	x1, 0xf000 <_ZN8ChxUtils27UpdatePartialTuningModeDataEP11ChiMetadatajjj+0x10>
   304b0: c2 fe ff b0  	adrp	x2, 0x9000 <_ZN8ChxUtils18IsSnapshotMetadataEP11ChiMetadata+0x14c>
   304b4: e5 fe ff 90  	adrp	x5, 0xc000 <_ZN8ChxUtils27UpdatePartialTuningModeDataEP11ChiMetadatajjj+0xc>
   304e8: c1 fe ff b0  	adrp	x1, 0x9000 <_ZN8ChxUtils27UpdatePartialTuningModeDataEP11ChiMetadatajjj+0x34>
   304f0: e0 fe ff b0  	adrp	x0, 0xd000 <_ZN8ChxUtils27UpdatePartialTuningModeDataEP11ChiMetadatajjj+0x4c>
   304f4: e3 fe ff 90  	adrp	x3, 0xc000 <_ZN8ChxUtils27UpdatePartialTuningModeDataEP11ChiMetadatajjj+0x4c>
   304f8: e5 fe ff b0  	adrp	x5, 0xd000 <_ZN8ChxUtils27UpdatePartialTuningModeDataEP11ChiMetadatajjj+0x54>
   30510: 60 38 00 94  	bl	0x3e690 <_ZN6ChiLog9LogSystemEPKcS1_S1_S1_iS1_z@plt>
   30514: 63 38 00 94  	bl	0x3e6a0 <_ZN15ExtensionModule11GetInstanceEv@plt>
   30534: 60 05 00 34  	cbz	w0, 0x305e0 <_ZN8ChxUtils27UpdatePartialTuningModeDataEP11ChiMetadatajjj+0x1c8>
   3053c: 29 05 08 36  	tbz	w9, #1, 0x305e0 <_ZN8ChxUtils27UpdatePartialTuningModeDataEP11ChiMetadatajjj+0x1c8>
   30540: 69 00 00 f0  	adrp	x9, 0x3f000 <_ZN8ChxUtils27UpdatePartialTuningModeDataEP11ChiMetadatajjj+0x164>
   30550: 41 02 00 54  	b.ne	0x30598 <_ZN8ChxUtils27UpdatePartialTuningModeDataEP11ChiMetadatajjj+0x180>
   30554: f4 fe ff b0  	adrp	x20, 0xd000 <_ZN8ChxUtils27UpdatePartialTuningModeDataEP11ChiMetadatajjj+0xb0>
   30570: e1 fe ff f0  	adrp	x1, 0xf000 <_ZN8ChxUtils27UpdatePartialTuningModeDataEP11ChiMetadatajjj+0xd4>
   30574: e2 fe ff 90  	adrp	x2, 0xc000 <_ZN8ChxUtils27UpdatePartialTuningModeDataEP11ChiMetadatajjj+0xcc>
   30578: e5 fe ff 90  	adrp	x5, 0xc000 <_ZN8ChxUtils27UpdatePartialTuningModeDataEP11ChiMetadatajjj+0xd0>
   30598: f4 fe ff b0  	adrp	x20, 0xd000 <_ZN8ChxUtils27UpdatePartialTuningModeDataEP11ChiMetadatajjj+0xf4>
   305b4: c1 fe ff b0  	adrp	x1, 0x9000 <_ZN8ChxUtils27UpdatePartialTuningModeDataEP11ChiMetadatajjj+0x100>
   305bc: e0 fe ff b0  	adrp	x0, 0xd000 <_ZN8ChxUtils27UpdatePartialTuningModeDataEP11ChiMetadatajjj+0x118>
   305c0: e3 fe ff 90  	adrp	x3, 0xc000 <_ZN8ChxUtils27UpdatePartialTuningModeDataEP11ChiMetadatajjj+0x118>
   305c4: a5 fe ff f0  	adrp	x5, 0x7000 <_ZN8ChxUtils27UpdatePartialTuningModeDataEP11ChiMetadatajjj+0x108>
   305dc: 2d 38 00 94  	bl	0x3e690 <_ZN6ChiLog9LogSystemEPKcS1_S1_S1_iS1_z@plt>
   305e0: 30 38 00 94  	bl	0x3e6a0 <_ZN15ExtensionModule11GetInstanceEv@plt>
   30604: 60 05 00 34  	cbz	w0, 0x306b0 <_ZN8ChxUtils27UpdatePartialTuningModeDataEP11ChiMetadatajjj+0x298>
   3060c: 2a 05 08 36  	tbz	w10, #1, 0x306b0 <_ZN8ChxUtils27UpdatePartialTuningModeDataEP11ChiMetadatajjj+0x298>
   30610: 6a 00 00 f0  	adrp	x10, 0x3f000 <_ZN8ChxUtils27UpdatePartialTuningModeDataEP11ChiMetadatajjj+0x234>
   30620: 41 02 00 54  	b.ne	0x30668 <_ZN8ChxUtils27UpdatePartialTuningModeDataEP11ChiMetadatajjj+0x250>
   30624: f4 fe ff b0  	adrp	x20, 0xd000 <_ZN8ChxUtils27UpdatePartialTuningModeDataEP11ChiMetadatajjj+0x180>
   30640: e1 fe ff f0  	adrp	x1, 0xf000 <_ZN8ChxUtils27UpdatePartialTuningModeDataEP11ChiMetadatajjj+0x1a4>
   30644: e2 fe ff 90  	adrp	x2, 0xc000 <_ZN8ChxUtils27UpdatePartialTuningModeDataEP11ChiMetadatajjj+0x19c>
   30648: e5 fe ff 90  	adrp	x5, 0xc000 <_ZN8ChxUtils27UpdatePartialTuningModeDataEP11ChiMetadatajjj+0x1a0>
   30668: f4 fe ff b0  	adrp	x20, 0xd000 <_ZN8ChxUtils27UpdatePartialTuningModeDataEP11ChiMetadatajjj+0x1c4>
   30684: c1 fe ff b0  	adrp	x1, 0x9000 <_ZN8ChxUtils27UpdatePartialTuningModeDataEP11ChiMetadatajjj+0x1d0>
   3068c: e0 fe ff b0  	adrp	x0, 0xd000 <_ZN8ChxUtils27UpdatePartialTuningModeDataEP11ChiMetadatajjj+0x1e8>
   30690: e3 fe ff 90  	adrp	x3, 0xc000 <_ZN8ChxUtils27UpdatePartialTuningModeDataEP11ChiMetadatajjj+0x1e8>
   30694: c5 fe ff f0  	adrp	x5, 0xb000 <_ZN8ChxUtils27UpdatePartialTuningModeDataEP11ChiMetadatajjj+0x1e8>
   306ac: f9 37 00 94  	bl	0x3e690 <_ZN6ChiLog9LogSystemEPKcS1_S1_S1_iS1_z@plt>
   306bc: e1 00 00 54  	b.ne	0x306d8 <_ZN8ChxUtils27UpdatePartialTuningModeDataEP11ChiMetadatajjj+0x2c0>
00000000000306e0 <_ZN8ChxUtils31GetFeatureValueForInternelVideoE13VideoSizeType>:
   306e8: a2 00 00 54  	b.hs	0x306fc <_ZN8ChxUtils31GetFeatureValueForInternelVideoE13VideoSizeType+0x1c>
   306ec: 09 ff ff 90  	adrp	x9, 0x10000 <_ZN8ChxUtils27UpdatePartialTuningModeDataEP11ChiMetadatajjj+0x254>
0000000000030710 <_ZN8ChxUtils19SetOfflineDebugDataEP11ChiMetadatam>:
   30760: e8 00 00 b4  	cbz	x8, 0x3077c <_ZN8ChxUtils19SetOfflineDebugDataEP11ChiMetadatam+0x6c>
   30768: 78 00 00 f0  	adrp	x24, 0x3f000 <_ZN8ChxUtils19SetOfflineDebugDataEP11ChiMetadatam+0x94>
   30774: ea 00 18 37  	tbnz	w10, #3, 0x30790 <_ZN8ChxUtils19SetOfflineDebugDataEP11ChiMetadatam+0x80>
   30778: 30 00 00 14  	b	0x30838 <_ZN8ChxUtils19SetOfflineDebugDataEP11ChiMetadatam+0x128>
   30780: 78 00 00 f0  	adrp	x24, 0x3f000 <_ZN8ChxUtils19SetOfflineDebugDataEP11ChiMetadatam+0xac>
   3078c: 6a 05 18 36  	tbz	w10, #3, 0x30838 <_ZN8ChxUtils19SetOfflineDebugDataEP11ChiMetadatam+0x128>
   30790: 69 00 00 f0  	adrp	x9, 0x3f000 <_ZN8ChxUtils19SetOfflineDebugDataEP11ChiMetadatam+0xbc>
   30794: f6 fe ff b0  	adrp	x22, 0xd000 <_ZN8ChxUtils31GetFeatureValueForInternelVideoE13VideoSizeType+0x28>
   307a8: 41 02 00 54  	b.ne	0x307f0 <_ZN8ChxUtils19SetOfflineDebugDataEP11ChiMetadatam+0xe0>
   307c0: e1 fe ff f0  	adrp	x1, 0xf000 <_ZN8ChxUtils19SetOfflineDebugDataEP11ChiMetadatam+0x2c>
   307c4: c2 fe ff f0  	adrp	x2, 0xb000 <_ZN8ChxUtils19SetOfflineDebugDataEP11ChiMetadatam+0x20>
   307c8: c5 fe ff f0  	adrp	x5, 0xb000 <_ZN8ChxUtils19SetOfflineDebugDataEP11ChiMetadatam+0x24>
   30804: e1 fe ff 90  	adrp	x1, 0xc000 <_ZN8ChxUtils19SetOfflineDebugDataEP11ChiMetadatam+0x64>
   3080c: e0 fe ff f0  	adrp	x0, 0xf000 <_ZN8ChxUtils19SetOfflineDebugDataEP11ChiMetadatam+0x78>
   30810: c3 fe ff f0  	adrp	x3, 0xb000 <_ZN8ChxUtils19SetOfflineDebugDataEP11ChiMetadatam+0x6c>
   30814: e5 fe ff f0  	adrp	x5, 0xf000 <_ZN8ChxUtils19SetOfflineDebugDataEP11ChiMetadatam+0x80>
   30834: 97 37 00 94  	bl	0x3e690 <_ZN6ChiLog9LogSystemEPKcS1_S1_S1_iS1_z@plt>
   30838: 9a 37 00 94  	bl	0x3e6a0 <_ZN15ExtensionModule11GetInstanceEv@plt>
   30864: 34 14 00 b4  	cbz	x20, 0x30ae8 <_ZN8ChxUtils19SetOfflineDebugDataEP11ChiMetadatam+0x3d8>
   30868: e8 05 18 36  	tbz	w8, #3, 0x30924 <_ZN8ChxUtils19SetOfflineDebugDataEP11ChiMetadatam+0x214>
   3086c: 6b 00 00 f0  	adrp	x11, 0x3f000 <_ZN8ChxUtils19SetOfflineDebugDataEP11ChiMetadatam+0x198>
   3087c: a1 02 00 54  	b.ne	0x308d0 <_ZN8ChxUtils19SetOfflineDebugDataEP11ChiMetadatam+0x1c0>
   30880: f5 fe ff b0  	adrp	x21, 0xd000 <_ZN8ChxUtils19SetOfflineDebugDataEP11ChiMetadatam+0xe4>
   308a0: e1 fe ff f0  	adrp	x1, 0xf000 <_ZN8ChxUtils19SetOfflineDebugDataEP11ChiMetadatam+0x10c>
   308a4: e2 fe ff 90  	adrp	x2, 0xc000 <_ZN8ChxUtils19SetOfflineDebugDataEP11ChiMetadatam+0x104>
   308a8: c5 fe ff f0  	adrp	x5, 0xb000 <_ZN8ChxUtils19SetOfflineDebugDataEP11ChiMetadatam+0x104>
   308d0: f6 fe ff b0  	adrp	x22, 0xd000 <_ZN8ChxUtils19SetOfflineDebugDataEP11ChiMetadatam+0x134>
   308ec: e1 fe ff 90  	adrp	x1, 0xc000 <_ZN8ChxUtils19SetOfflineDebugDataEP11ChiMetadatam+0x14c>
   308f8: e0 fe ff f0  	adrp	x0, 0xf000 <_ZN8ChxUtils19SetOfflineDebugDataEP11ChiMetadatam+0x164>
   308fc: c3 fe ff f0  	adrp	x3, 0xb000 <_ZN8ChxUtils19SetOfflineDebugDataEP11ChiMetadatam+0x158>
   30900: c5 fe ff f0  	adrp	x5, 0xb000 <_ZN8ChxUtils19SetOfflineDebugDataEP11ChiMetadatam+0x15c>
   30920: 5c 37 00 94  	bl	0x3e690 <_ZN6ChiLog9LogSystemEPKcS1_S1_S1_iS1_z@plt>
   30928: 6d 13 00 b4  	cbz	x13, 0x30b94 <_ZN8ChxUtils19SetOfflineDebugDataEP11ChiMetadatam+0x484>
   30930: 2e 13 00 b4  	cbz	x14, 0x30b94 <_ZN8ChxUtils19SetOfflineDebugDataEP11ChiMetadatam+0x484>
   30934: 5b 37 00 94  	bl	0x3e6a0 <_ZN15ExtensionModule11GetInstanceEv@plt>
   30938: 16 39 00 94  	bl	0x3ed90 <_ZN15ExtensionModule33GetDebugDataBufferAndAddReferenceEv@plt>
   3093c: 20 18 00 b4  	cbz	x0, 0x30c40 <_ZN8ChxUtils19SetOfflineDebugDataEP11ChiMetadatam+0x530>
   30948: 6b 05 18 36  	tbz	w11, #3, 0x309f4 <_ZN8ChxUtils19SetOfflineDebugDataEP11ChiMetadatam+0x2e4>
   3094c: 6c 00 00 f0  	adrp	x12, 0x3f000 <_ZN8ChxUtils19SetOfflineDebugDataEP11ChiMetadatam+0x278>
   3095c: 61 02 00 54  	b.ne	0x309a8 <_ZN8ChxUtils19SetOfflineDebugDataEP11ChiMetadatam+0x298>
   30960: f6 fe ff b0  	adrp	x22, 0xd000 <_ZN8ChxUtils19SetOfflineDebugDataEP11ChiMetadatam+0x1c4>
   30980: e1 fe ff f0  	adrp	x1, 0xf000 <_ZN8ChxUtils19SetOfflineDebugDataEP11ChiMetadatam+0x1ec>
   30984: c2 fe ff f0  	adrp	x2, 0xb000 <_ZN8ChxUtils19SetOfflineDebugDataEP11ChiMetadatam+0x1e0>
   30988: c5 fe ff f0  	adrp	x5, 0xb000 <_ZN8ChxUtils19SetOfflineDebugDataEP11ChiMetadatam+0x1e4>
   309a8: f6 fe ff b0  	adrp	x22, 0xd000 <_ZN8ChxUtils19SetOfflineDebugDataEP11ChiMetadatam+0x20c>
   309cc: e0 fe ff f0  	adrp	x0, 0xf000 <_ZN8ChxUtils19SetOfflineDebugDataEP11ChiMetadatam+0x238>
   309d0: e1 fe ff 90  	adrp	x1, 0xc000 <_ZN8ChxUtils19SetOfflineDebugDataEP11ChiMetadatam+0x230>
   309d4: c3 fe ff f0  	adrp	x3, 0xb000 <_ZN8ChxUtils19SetOfflineDebugDataEP11ChiMetadatam+0x230>
   309d8: c5 fe ff f0  	adrp	x5, 0xb000 <_ZN8ChxUtils19SetOfflineDebugDataEP11ChiMetadatam+0x234>
   309f0: 28 37 00 94  	bl	0x3e690 <_ZN6ChiLog9LogSystemEPKcS1_S1_S1_iS1_z@plt>
   309f8: 40 12 00 b4  	cbz	x0, 0x30c40 <_ZN8ChxUtils19SetOfflineDebugDataEP11ChiMetadatam+0x530>
   30a00: 42 1e 00 b4  	cbz	x2, 0x30dc8 <_ZN8ChxUtils19SetOfflineDebugDataEP11ChiMetadatam+0x6b8>
   30a0c: e1 12 00 54  	b.ne	0x30c68 <_ZN8ChxUtils19SetOfflineDebugDataEP11ChiMetadatam+0x558>
   30a14: 41 00 00 b4  	cbz	x1, 0x30a1c <_ZN8ChxUtils19SetOfflineDebugDataEP11ChiMetadatam+0x30c>
   30a1c: 21 37 00 94  	bl	0x3e6a0 <_ZN15ExtensionModule11GetInstanceEv@plt>
   30a40: 20 17 00 34  	cbz	w0, 0x30d24 <_ZN8ChxUtils19SetOfflineDebugDataEP11ChiMetadatam+0x614>
   30a44: c9 0f 00 36  	tbz	w9, #0, 0x30c3c <_ZN8ChxUtils19SetOfflineDebugDataEP11ChiMetadatam+0x52c>
   30a48: 6e 00 00 f0  	adrp	x14, 0x3f000 <_ZN8ChxUtils19SetOfflineDebugDataEP11ChiMetadatam+0x374>
   30a58: 41 02 00 54  	b.ne	0x30aa0 <_ZN8ChxUtils19SetOfflineDebugDataEP11ChiMetadatam+0x390>
   30a5c: f4 fe ff b0  	adrp	x20, 0xd000 <_ZN8ChxUtils19SetOfflineDebugDataEP11ChiMetadatam+0x2c0>
   30a78: e1 fe ff f0  	adrp	x1, 0xf000 <_ZN8ChxUtils19SetOfflineDebugDataEP11ChiMetadatam+0x2e4>
   30a7c: c2 fe ff f0  	adrp	x2, 0xb000 <_ZN8ChxUtils19SetOfflineDebugDataEP11ChiMetadatam+0x2d8>
   30a80: c5 fe ff f0  	adrp	x5, 0xb000 <_ZN8ChxUtils19SetOfflineDebugDataEP11ChiMetadatam+0x2dc>
   30aa0: f5 fe ff b0  	adrp	x21, 0xd000 <_ZN8ChxUtils19SetOfflineDebugDataEP11ChiMetadatam+0x304>
   30abc: e1 fe ff d0  	adrp	x1, 0xe000 <_ZN8ChxUtils19SetOfflineDebugDataEP11ChiMetadatam+0x324>
   30ac4: c0 fe ff 90  	adrp	x0, 0x8000 <_ZN8ChxUtils19SetOfflineDebugDataEP11ChiMetadatam+0x314>
   30ac8: c3 fe ff f0  	adrp	x3, 0xb000 <_ZN8ChxUtils19SetOfflineDebugDataEP11ChiMetadatam+0x324>
   30acc: c5 fe ff d0  	adrp	x5, 0xa000 <_ZN8ChxUtils19SetOfflineDebugDataEP11ChiMetadatam+0x324>
   30ae4: 55 00 00 14  	b	0x30c38 <_ZN8ChxUtils19SetOfflineDebugDataEP11ChiMetadatam+0x528>
   30ae8: 68 05 30 36  	tbz	w8, #6, 0x30b94 <_ZN8ChxUtils19SetOfflineDebugDataEP11ChiMetadatam+0x484>
   30aec: 6a 00 00 f0  	adrp	x10, 0x3f000 <_ZN8ChxUtils19SetOfflineDebugDataEP11ChiMetadatam+0x418>
   30afc: 61 02 00 54  	b.ne	0x30b48 <_ZN8ChxUtils19SetOfflineDebugDataEP11ChiMetadatam+0x438>
   30b00: f4 fe ff b0  	adrp	x20, 0xd000 <_ZN8ChxUtils19SetOfflineDebugDataEP11ChiMetadatam+0x364>
   30b1c: e1 fe ff f0  	adrp	x1, 0xf000 <_ZN8ChxUtils19SetOfflineDebugDataEP11ChiMetadatam+0x388>
   30b20: e2 fe ff d0  	adrp	x2, 0xe000 <_ZN8ChxUtils19SetOfflineDebugDataEP11ChiMetadatam+0x388>
   30b24: c5 fe ff f0  	adrp	x5, 0xb000 <_ZN8ChxUtils19SetOfflineDebugDataEP11ChiMetadatam+0x380>
   30b48: f6 fe ff b0  	adrp	x22, 0xd000 <_ZN8ChxUtils19SetOfflineDebugDataEP11ChiMetadatam+0x3ac>
   30b64: c1 fe ff 90  	adrp	x1, 0x8000 <_ZN8ChxUtils19SetOfflineDebugDataEP11ChiMetadatam+0x3b4>
   30b6c: e0 fe ff b0  	adrp	x0, 0xd000 <_ZN8ChxUtils19SetOfflineDebugDataEP11ChiMetadatam+0x3d0>
   30b70: c3 fe ff f0  	adrp	x3, 0xb000 <_ZN8ChxUtils19SetOfflineDebugDataEP11ChiMetadatam+0x3cc>
   30b74: c5 fe ff b0  	adrp	x5, 0x9000 <_ZN8ChxUtils19SetOfflineDebugDataEP11ChiMetadatam+0x3c8>
   30b90: c0 36 00 94  	bl	0x3e690 <_ZN6ChiLog9LogSystemEPKcS1_S1_S1_iS1_z@plt>
   30b98: 2d 05 00 36  	tbz	w13, #0, 0x30c3c <_ZN8ChxUtils19SetOfflineDebugDataEP11ChiMetadatam+0x52c>
   30b9c: 70 00 00 f0  	adrp	x16, 0x3f000 <_ZN8ChxUtils19SetOfflineDebugDataEP11ChiMetadatam+0x4c8>
   30bac: 41 02 00 54  	b.ne	0x30bf4 <_ZN8ChxUtils19SetOfflineDebugDataEP11ChiMetadatam+0x4e4>
   30bb0: f5 fe ff b0  	adrp	x21, 0xd000 <_ZN8ChxUtils19SetOfflineDebugDataEP11ChiMetadatam+0x414>
   30bcc: e1 fe ff f0  	adrp	x1, 0xf000 <_ZN8ChxUtils19SetOfflineDebugDataEP11ChiMetadatam+0x438>
   30bd0: e2 fe ff f0  	adrp	x2, 0xf000 <_ZN8ChxUtils19SetOfflineDebugDataEP11ChiMetadatam+0x43c>
   30bd4: c5 fe ff f0  	adrp	x5, 0xb000 <_ZN8ChxUtils19SetOfflineDebugDataEP11ChiMetadatam+0x430>
   30bf4: f6 fe ff b0  	adrp	x22, 0xd000 <_ZN8ChxUtils19SetOfflineDebugDataEP11ChiMetadatam+0x458>
   30c10: e1 fe ff d0  	adrp	x1, 0xe000 <_ZN8ChxUtils19SetOfflineDebugDataEP11ChiMetadatam+0x478>
   30c18: c0 fe ff 90  	adrp	x0, 0x8000 <_ZN8ChxUtils19SetOfflineDebugDataEP11ChiMetadatam+0x468>
   30c1c: c3 fe ff f0  	adrp	x3, 0xb000 <_ZN8ChxUtils19SetOfflineDebugDataEP11ChiMetadatam+0x478>
   30c20: c5 fe ff 90  	adrp	x5, 0x8000 <_ZN8ChxUtils19SetOfflineDebugDataEP11ChiMetadatam+0x470>
   30c38: 96 36 00 94  	bl	0x3e690 <_ZN6ChiLog9LogSystemEPKcS1_S1_S1_iS1_z@plt>
   30c4c: 81 0c 00 54  	b.ne	0x30ddc <_ZN8ChxUtils19SetOfflineDebugDataEP11ChiMetadatam+0x6cc>
   30c6c: 8c fe 07 36  	tbz	w12, #0, 0x30c3c <_ZN8ChxUtils19SetOfflineDebugDataEP11ChiMetadatam+0x52c>
   30c70: 6d 00 00 f0  	adrp	x13, 0x3f000 <_ZN8ChxUtils19SetOfflineDebugDataEP11ChiMetadatam+0x59c>
   30c80: 81 02 00 54  	b.ne	0x30cd0 <_ZN8ChxUtils19SetOfflineDebugDataEP11ChiMetadatam+0x5c0>
   30c84: f6 fe ff b0  	adrp	x22, 0xd000 <_ZN8ChxUtils19SetOfflineDebugDataEP11ChiMetadatam+0x4e8>
   30ca8: e1 fe ff f0  	adrp	x1, 0xf000 <_ZN8ChxUtils19SetOfflineDebugDataEP11ChiMetadatam+0x514>
   30cac: e2 fe ff 90  	adrp	x2, 0xc000 <_ZN8ChxUtils19SetOfflineDebugDataEP11ChiMetadatam+0x50c>
   30cb0: c5 fe ff f0  	adrp	x5, 0xb000 <_ZN8ChxUtils19SetOfflineDebugDataEP11ChiMetadatam+0x50c>
   30cd0: f6 fe ff b0  	adrp	x22, 0xd000 <_ZN8ChxUtils19SetOfflineDebugDataEP11ChiMetadatam+0x534>
   30cf8: c0 fe ff 90  	adrp	x0, 0x8000 <_ZN8ChxUtils19SetOfflineDebugDataEP11ChiMetadatam+0x548>
   30cfc: e1 fe ff d0  	adrp	x1, 0xe000 <_ZN8ChxUtils19SetOfflineDebugDataEP11ChiMetadatam+0x564>
   30d00: c3 fe ff f0  	adrp	x3, 0xb000 <_ZN8ChxUtils19SetOfflineDebugDataEP11ChiMetadatam+0x55c>
   30d04: c5 fe ff 90  	adrp	x5, 0x8000 <_ZN8ChxUtils19SetOfflineDebugDataEP11ChiMetadatam+0x554>
   30d1c: 5d 36 00 94  	bl	0x3e690 <_ZN6ChiLog9LogSystemEPKcS1_S1_S1_iS1_z@plt>
   30d20: c7 ff ff 17  	b	0x30c3c <_ZN8ChxUtils19SetOfflineDebugDataEP11ChiMetadatam+0x52c>
   30d24: 29 05 18 36  	tbz	w9, #3, 0x30dc8 <_ZN8ChxUtils19SetOfflineDebugDataEP11ChiMetadatam+0x6b8>
   30d28: 6f 00 00 f0  	adrp	x15, 0x3f000 <_ZN8ChxUtils19SetOfflineDebugDataEP11ChiMetadatam+0x654>
   30d38: 41 02 00 54  	b.ne	0x30d80 <_ZN8ChxUtils19SetOfflineDebugDataEP11ChiMetadatam+0x670>
   30d3c: f6 fe ff b0  	adrp	x22, 0xd000 <_ZN8ChxUtils19SetOfflineDebugDataEP11ChiMetadatam+0x5a0>
   30d58: e1 fe ff f0  	adrp	x1, 0xf000 <_ZN8ChxUtils19SetOfflineDebugDataEP11ChiMetadatam+0x5c4>
   30d5c: a2 fe ff f0  	adrp	x2, 0x7000 <_ZN8ChxUtils19SetOfflineDebugDataEP11ChiMetadatam+0x5a8>
   30d60: c5 fe ff f0  	adrp	x5, 0xb000 <_ZN8ChxUtils19SetOfflineDebugDataEP11ChiMetadatam+0x5bc>
   30d80: f4 fe ff b0  	adrp	x20, 0xd000 <_ZN8ChxUtils19SetOfflineDebugDataEP11ChiMetadatam+0x5e4>
   30d9c: e1 fe ff 90  	adrp	x1, 0xc000 <_ZN8ChxUtils19SetOfflineDebugDataEP11ChiMetadatam+0x5fc>
   30da4: e0 fe ff f0  	adrp	x0, 0xf000 <_ZN8ChxUtils19SetOfflineDebugDataEP11ChiMetadatam+0x610>
   30da8: c3 fe ff f0  	adrp	x3, 0xb000 <_ZN8ChxUtils19SetOfflineDebugDataEP11ChiMetadatam+0x604>
   30dac: a5 fe ff f0  	adrp	x5, 0x7000 <_ZN8ChxUtils19SetOfflineDebugDataEP11ChiMetadatam+0x5f8>
   30dc4: 33 36 00 94  	bl	0x3e690 <_ZN6ChiLog9LogSystemEPKcS1_S1_S1_iS1_z@plt>
   30dd8: c0 f3 ff 54  	b.eq	0x30c50 <_ZN8ChxUtils19SetOfflineDebugDataEP11ChiMetadatam+0x540>
0000000000030de0 <_ZN8ChxUtils23ReleaseOfflineDebugDataEP11ChiMetadata>:
   30e2c: e8 00 00 b4  	cbz	x8, 0x30e48 <_ZN8ChxUtils23ReleaseOfflineDebugDataEP11ChiMetadata+0x68>
   30e34: 77 00 00 f0  	adrp	x23, 0x3f000 <_ZN8ChxUtils23ReleaseOfflineDebugDataEP11ChiMetadata+0x90>
   30e40: e8 00 18 37  	tbnz	w8, #3, 0x30e5c <_ZN8ChxUtils23ReleaseOfflineDebugDataEP11ChiMetadata+0x7c>
   30e44: 2e 00 00 14  	b	0x30efc <_ZN8ChxUtils23ReleaseOfflineDebugDataEP11ChiMetadata+0x11c>
   30e4c: 77 00 00 f0  	adrp	x23, 0x3f000 <_ZN8ChxUtils23ReleaseOfflineDebugDataEP11ChiMetadata+0xa8>
   30e58: 28 05 18 36  	tbz	w8, #3, 0x30efc <_ZN8ChxUtils23ReleaseOfflineDebugDataEP11ChiMetadata+0x11c>
   30e5c: 69 00 00 f0  	adrp	x9, 0x3f000 <_ZN8ChxUtils23ReleaseOfflineDebugDataEP11ChiMetadata+0xb8>
   30e60: f5 fe ff b0  	adrp	x21, 0xd000 <_ZN8ChxUtils19SetOfflineDebugDataEP11ChiMetadatam+0x6c4>
   30e74: 21 02 00 54  	b.ne	0x30eb8 <_ZN8ChxUtils23ReleaseOfflineDebugDataEP11ChiMetadata+0xd8>
   30e8c: e1 fe ff f0  	adrp	x1, 0xf000 <_ZN8ChxUtils23ReleaseOfflineDebugDataEP11ChiMetadata+0x28>
   30e90: c2 fe ff f0  	adrp	x2, 0xb000 <_ZN8ChxUtils23ReleaseOfflineDebugDataEP11ChiMetadata+0x1c>
   30e94: e5 fe ff f0  	adrp	x5, 0xf000 <_ZN8ChxUtils23ReleaseOfflineDebugDataEP11ChiMetadata+0x30>
   30ecc: e1 fe ff 90  	adrp	x1, 0xc000 <_ZN8ChxUtils23ReleaseOfflineDebugDataEP11ChiMetadata+0x5c>
   30ed4: e0 fe ff f0  	adrp	x0, 0xf000 <_ZN8ChxUtils23ReleaseOfflineDebugDataEP11ChiMetadata+0x70>
   30ed8: e3 fe ff f0  	adrp	x3, 0xf000 <_ZN8ChxUtils23ReleaseOfflineDebugDataEP11ChiMetadata+0x74>
   30edc: e5 fe ff d0  	adrp	x5, 0xe000 <_ZN8ChxUtils23ReleaseOfflineDebugDataEP11ChiMetadata+0x74>
   30ef8: e6 35 00 94  	bl	0x3e690 <_ZN6ChiLog9LogSystemEPKcS1_S1_S1_iS1_z@plt>
   30efc: e9 35 00 94  	bl	0x3e6a0 <_ZN15ExtensionModule11GetInstanceEv@plt>
   30f24: 73 06 00 b4  	cbz	x19, 0x30ff0 <_ZN8ChxUtils23ReleaseOfflineDebugDataEP11ChiMetadata+0x210>
   30f2c: ab 0b 00 b4  	cbz	x11, 0x310a0 <_ZN8ChxUtils23ReleaseOfflineDebugDataEP11ChiMetadata+0x2c0>
   30f34: 6a 05 00 36  	tbz	w10, #0, 0x30fe0 <_ZN8ChxUtils23ReleaseOfflineDebugDataEP11ChiMetadata+0x200>
   30f38: 6b 00 00 f0  	adrp	x11, 0x3f000 <_ZN8ChxUtils23ReleaseOfflineDebugDataEP11ChiMetadata+0x194>
   30f48: 61 02 00 54  	b.ne	0x30f94 <_ZN8ChxUtils23ReleaseOfflineDebugDataEP11ChiMetadata+0x1b4>
   30f4c: f4 fe ff b0  	adrp	x20, 0xd000 <_ZN8ChxUtils23ReleaseOfflineDebugDataEP11ChiMetadata+0xe0>
   30f6c: e1 fe ff f0  	adrp	x1, 0xf000 <_ZN8ChxUtils23ReleaseOfflineDebugDataEP11ChiMetadata+0x108>
   30f70: a2 fe ff f0  	adrp	x2, 0x7000 <_ZN8ChxUtils23ReleaseOfflineDebugDataEP11ChiMetadata+0xec>
   30f74: e5 fe ff f0  	adrp	x5, 0xf000 <_ZN8ChxUtils23ReleaseOfflineDebugDataEP11ChiMetadata+0x110>
   30f94: f5 fe ff b0  	adrp	x21, 0xd000 <_ZN8ChxUtils23ReleaseOfflineDebugDataEP11ChiMetadata+0x128>
   30fb8: c0 fe ff 90  	adrp	x0, 0x8000 <_ZN8ChxUtils23ReleaseOfflineDebugDataEP11ChiMetadata+0x138>
   30fbc: e1 fe ff d0  	adrp	x1, 0xe000 <_ZN8ChxUtils23ReleaseOfflineDebugDataEP11ChiMetadata+0x154>
   30fc0: e3 fe ff f0  	adrp	x3, 0xf000 <_ZN8ChxUtils23ReleaseOfflineDebugDataEP11ChiMetadata+0x15c>
   30fc4: e5 fe ff f0  	adrp	x5, 0xf000 <_ZN8ChxUtils23ReleaseOfflineDebugDataEP11ChiMetadata+0x160>
   30fdc: ad 35 00 94  	bl	0x3e690 <_ZN6ChiLog9LogSystemEPKcS1_S1_S1_iS1_z@plt>
   30fe0: b0 35 00 94  	bl	0x3e6a0 <_ZN15ExtensionModule11GetInstanceEv@plt>
   30fe8: 6e 37 00 94  	bl	0x3eda0 <_ZN15ExtensionModule31DebugDataBufferReleaseReferenceEP9DebugData@plt>
   30fec: 57 00 00 14  	b	0x31148 <_ZN8ChxUtils23ReleaseOfflineDebugDataEP11ChiMetadata+0x368>
   30ff4: 69 05 30 36  	tbz	w9, #6, 0x310a0 <_ZN8ChxUtils23ReleaseOfflineDebugDataEP11ChiMetadata+0x2c0>
   30ff8: 6a 00 00 f0  	adrp	x10, 0x3f000 <_ZN8ChxUtils23ReleaseOfflineDebugDataEP11ChiMetadata+0x254>
   31008: 61 02 00 54  	b.ne	0x31054 <_ZN8ChxUtils23ReleaseOfflineDebugDataEP11ChiMetadata+0x274>
   3100c: f5 fe ff 90  	adrp	x21, 0xd000 <_ZN8ChxUtils23ReleaseOfflineDebugDataEP11ChiMetadata+0x19c>
   31028: e1 fe ff d0  	adrp	x1, 0xf000 <_ZN8ChxUtils23ReleaseOfflineDebugDataEP11ChiMetadata+0x1c0>
   3102c: e2 fe ff b0  	adrp	x2, 0xe000 <_ZN8ChxUtils23ReleaseOfflineDebugDataEP11ChiMetadata+0x1c0>
   31030: c5 fe ff d0  	adrp	x5, 0xb000 <_ZN8ChxUtils23ReleaseOfflineDebugDataEP11ChiMetadata+0x1b8>
   31054: f5 fe ff 90  	adrp	x21, 0xd000 <_ZN8ChxUtils23ReleaseOfflineDebugDataEP11ChiMetadata+0x1e4>
   31070: a1 fe ff f0  	adrp	x1, 0x8000 <_ZN8ChxUtils23ReleaseOfflineDebugDataEP11ChiMetadata+0x1ec>
   31078: e0 fe ff 90  	adrp	x0, 0xd000 <_ZN8ChxUtils23ReleaseOfflineDebugDataEP11ChiMetadata+0x208>
   3107c: c3 fe ff d0  	adrp	x3, 0xb000 <_ZN8ChxUtils23ReleaseOfflineDebugDataEP11ChiMetadata+0x204>
   31080: c5 fe ff 90  	adrp	x5, 0x9000 <_ZN8ChxUtils23ReleaseOfflineDebugDataEP11ChiMetadata+0x200>
   3109c: 7d 35 00 94  	bl	0x3e690 <_ZN6ChiLog9LogSystemEPKcS1_S1_S1_iS1_z@plt>
   310a4: 2b 05 00 36  	tbz	w11, #0, 0x31148 <_ZN8ChxUtils23ReleaseOfflineDebugDataEP11ChiMetadata+0x368>
   310a8: 6c 00 00 d0  	adrp	x12, 0x3f000 <_ZN8ChxUtils23ReleaseOfflineDebugDataEP11ChiMetadata+0x300>
   310b8: 41 02 00 54  	b.ne	0x31100 <_ZN8ChxUtils23ReleaseOfflineDebugDataEP11ChiMetadata+0x320>
   310bc: f4 fe ff 90  	adrp	x20, 0xd000 <_ZN8ChxUtils23ReleaseOfflineDebugDataEP11ChiMetadata+0x24c>
   310d8: e1 fe ff d0  	adrp	x1, 0xf000 <_ZN8ChxUtils23ReleaseOfflineDebugDataEP11ChiMetadata+0x270>
   310dc: c2 fe ff f0  	adrp	x2, 0xc000 <_ZN8ChxUtils23ReleaseOfflineDebugDataEP11ChiMetadata+0x268>
   310e0: e5 fe ff d0  	adrp	x5, 0xf000 <_ZN8ChxUtils23ReleaseOfflineDebugDataEP11ChiMetadata+0x278>
   31100: f5 fe ff 90  	adrp	x21, 0xd000 <_ZN8ChxUtils23ReleaseOfflineDebugDataEP11ChiMetadata+0x290>
   3111c: e1 fe ff b0  	adrp	x1, 0xe000 <_ZN8ChxUtils23ReleaseOfflineDebugDataEP11ChiMetadata+0x2b0>
   31124: a0 fe ff f0  	adrp	x0, 0x8000 <_ZN8ChxUtils23ReleaseOfflineDebugDataEP11ChiMetadata+0x2a0>
   31128: e3 fe ff d0  	adrp	x3, 0xf000 <_ZN8ChxUtils23ReleaseOfflineDebugDataEP11ChiMetadata+0x2c0>
   3112c: c5 fe ff b0  	adrp	x5, 0xa000 <_ZN8ChxUtils23ReleaseOfflineDebugDataEP11ChiMetadata+0x2b0>
   31144: 53 35 00 94  	bl	0x3e690 <_ZN6ChiLog9LogSystemEPKcS1_S1_S1_iS1_z@plt>
   31154: 01 01 00 54  	b.ne	0x31174 <_ZN8ChxUtils23ReleaseOfflineDebugDataEP11ChiMetadata+0x394>
0000000000031178 <_ZN8ChxUtils26isDebugDataSetForBurstShotEP11ChiMetadataj>:
   311a8: e0 fe ff 90  	adrp	x0, 0xd000 <_ZN8ChxUtils23ReleaseOfflineDebugDataEP11ChiMetadata+0x338>
   311ac: e2 fe ff d0  	adrp	x2, 0xf000 <_ZN8ChxUtils23ReleaseOfflineDebugDataEP11ChiMetadata+0x344>
   311e0: 15 02 00 b4  	cbz	x21, 0x31220 <_ZN8ChxUtils26isDebugDataSetForBurstShotEP11ChiMetadataj+0xa8>
   311f0: e1 fe ff b0  	adrp	x1, 0xe000 <_ZN8ChxUtils23ReleaseOfflineDebugDataEP11ChiMetadata+0x384>
   311f4: c2 fe ff f0  	adrp	x2, 0xc000 <_ZN8ChxUtils23ReleaseOfflineDebugDataEP11ChiMetadata+0x380>
   31214: 2a 06 00 b4  	cbz	x10, 0x312d8 <_ZN8ChxUtils26isDebugDataSetForBurstShotEP11ChiMetadataj+0x160>
   3121c: 30 00 00 14  	b	0x312dc <_ZN8ChxUtils26isDebugDataSetForBurstShotEP11ChiMetadataj+0x164>
   31220: 6e 00 00 d0  	adrp	x14, 0x3f000 <_ZN8ChxUtils26isDebugDataSetForBurstShotEP11ChiMetadataj+0xe0>
   3122c: 2e 05 00 36  	tbz	w14, #0, 0x312d0 <_ZN8ChxUtils26isDebugDataSetForBurstShotEP11ChiMetadataj+0x158>
   31230: 6f 00 00 d0  	adrp	x15, 0x3f000 <_ZN8ChxUtils26isDebugDataSetForBurstShotEP11ChiMetadataj+0xf0>
   31240: 41 02 00 54  	b.ne	0x31288 <_ZN8ChxUtils26isDebugDataSetForBurstShotEP11ChiMetadataj+0x110>
   31244: f6 fe ff 90  	adrp	x22, 0xd000 <_ZN8ChxUtils26isDebugDataSetForBurstShotEP11ChiMetadataj+0x3c>
   31260: e1 fe ff d0  	adrp	x1, 0xf000 <_ZN8ChxUtils26isDebugDataSetForBurstShotEP11ChiMetadataj+0x60>
   31264: a2 fe ff d0  	adrp	x2, 0x7000 <_ZN8ChxUtils26isDebugDataSetForBurstShotEP11ChiMetadataj+0x44>
   31268: e5 fe ff 90  	adrp	x5, 0xd000 <_ZN8ChxUtils26isDebugDataSetForBurstShotEP11ChiMetadataj+0x60>
   31288: f6 fe ff 90  	adrp	x22, 0xd000 <_ZN8ChxUtils26isDebugDataSetForBurstShotEP11ChiMetadataj+0x80>
   312a4: e1 fe ff b0  	adrp	x1, 0xe000 <_ZN8ChxUtils26isDebugDataSetForBurstShotEP11ChiMetadataj+0xa0>
   312ac: a0 fe ff f0  	adrp	x0, 0x8000 <_ZN8ChxUtils26isDebugDataSetForBurstShotEP11ChiMetadataj+0x90>
   312b0: e3 fe ff 90  	adrp	x3, 0xd000 <_ZN8ChxUtils26isDebugDataSetForBurstShotEP11ChiMetadataj+0xa8>
   312b4: a5 fe ff f0  	adrp	x5, 0x8000 <_ZN8ChxUtils26isDebugDataSetForBurstShotEP11ChiMetadataj+0x98>
   312cc: f1 34 00 94  	bl	0x3e690 <_ZN6ChiLog9LogSystemEPKcS1_S1_S1_iS1_z@plt>
   312d4: e1 00 00 14  	b	0x31658 <_ZN8ChxUtils26isDebugDataSetForBurstShotEP11ChiMetadataj+0x4e0>
   312e0: c1 fe ff f0  	adrp	x1, 0xc000 <_ZN8ChxUtils26isDebugDataSetForBurstShotEP11ChiMetadataj+0xd4>
   312e8: a2 fe ff d0  	adrp	x2, 0x7000 <_ZN8ChxUtils26isDebugDataSetForBurstShotEP11ChiMetadataj+0xc8>
   31308: 0b 01 00 b4  	cbz	x11, 0x31328 <_ZN8ChxUtils26isDebugDataSetForBurstShotEP11ChiMetadataj+0x1b0>
   31324: 03 00 00 14  	b	0x31330 <_ZN8ChxUtils26isDebugDataSetForBurstShotEP11ChiMetadataj+0x1b8>
   31330: 7b 00 00 d0  	adrp	x27, 0x3f000 <_ZN8ChxUtils26isDebugDataSetForBurstShotEP11ChiMetadataj+0x1f0>
   31334: f6 fe ff 90  	adrp	x22, 0xd000 <_ZN8ChxUtils26isDebugDataSetForBurstShotEP11ChiMetadataj+0x12c>
   31344: 6a 05 18 36  	tbz	w10, #3, 0x313f0 <_ZN8ChxUtils26isDebugDataSetForBurstShotEP11ChiMetadataj+0x278>
   31348: 71 00 00 d0  	adrp	x17, 0x3f000 <_ZN8ChxUtils26isDebugDataSetForBurstShotEP11ChiMetadataj+0x208>
   31358: 61 02 00 54  	b.ne	0x313a4 <_ZN8ChxUtils26isDebugDataSetForBurstShotEP11ChiMetadataj+0x22c>
   31370: e1 fe ff d0  	adrp	x1, 0xf000 <_ZN8ChxUtils26isDebugDataSetForBurstShotEP11ChiMetadataj+0x170>
   31374: e2 fe ff 90  	adrp	x2, 0xd000 <_ZN8ChxUtils26isDebugDataSetForBurstShotEP11ChiMetadataj+0x16c>
   31378: e5 fe ff 90  	adrp	x5, 0xd000 <_ZN8ChxUtils26isDebugDataSetForBurstShotEP11ChiMetadataj+0x170>
   313b8: c1 fe ff f0  	adrp	x1, 0xc000 <_ZN8ChxUtils26isDebugDataSetForBurstShotEP11ChiMetadataj+0x1ac>
   313c0: e0 fe ff d0  	adrp	x0, 0xf000 <_ZN8ChxUtils26isDebugDataSetForBurstShotEP11ChiMetadataj+0x1c0>
   313c4: e3 fe ff 90  	adrp	x3, 0xd000 <_ZN8ChxUtils26isDebugDataSetForBurstShotEP11ChiMetadataj+0x1bc>
   313c8: e5 fe ff b0  	adrp	x5, 0xe000 <_ZN8ChxUtils26isDebugDataSetForBurstShotEP11ChiMetadataj+0x1c4>
   313ec: a9 34 00 94  	bl	0x3e690 <_ZN6ChiLog9LogSystemEPKcS1_S1_S1_iS1_z@plt>
   313f4: e1 fe ff d0  	adrp	x1, 0xf000 <_ZN8ChxUtils26isDebugDataSetForBurstShotEP11ChiMetadataj+0x1f4>
   313fc: a2 fe ff f0  	adrp	x2, 0x8000 <_ZN8ChxUtils26isDebugDataSetForBurstShotEP11ChiMetadataj+0x1e0>
   3141c: 6c 00 00 b4  	cbz	x12, 0x31428 <_ZN8ChxUtils26isDebugDataSetForBurstShotEP11ChiMetadataj+0x2b0>
   31424: 02 00 00 14  	b	0x3142c <_ZN8ChxUtils26isDebugDataSetForBurstShotEP11ChiMetadataj+0x2b4>
   31430: c1 fe ff f0  	adrp	x1, 0xc000 <_ZN8ChxUtils26isDebugDataSetForBurstShotEP11ChiMetadataj+0x224>
   31438: a2 fe ff d0  	adrp	x2, 0x7000 <_ZN8ChxUtils26isDebugDataSetForBurstShotEP11ChiMetadataj+0x218>
   31458: 48 00 00 b4  	cbz	x8, 0x31460 <_ZN8ChxUtils26isDebugDataSetForBurstShotEP11ChiMetadataj+0x2e8>
   3147c: 6c 05 18 36  	tbz	w12, #3, 0x31528 <_ZN8ChxUtils26isDebugDataSetForBurstShotEP11ChiMetadataj+0x3b0>
   31480: 70 00 00 d0  	adrp	x16, 0x3f000 <_ZN8ChxUtils26isDebugDataSetForBurstShotEP11ChiMetadataj+0x340>
   31490: 61 02 00 54  	b.ne	0x314dc <_ZN8ChxUtils26isDebugDataSetForBurstShotEP11ChiMetadataj+0x364>
   314a8: e1 fe ff d0  	adrp	x1, 0xf000 <_ZN8ChxUtils26isDebugDataSetForBurstShotEP11ChiMetadataj+0x2a8>
   314ac: e2 fe ff b0  	adrp	x2, 0xe000 <_ZN8ChxUtils26isDebugDataSetForBurstShotEP11ChiMetadataj+0x2a8>
   314b0: e5 fe ff 90  	adrp	x5, 0xd000 <_ZN8ChxUtils26isDebugDataSetForBurstShotEP11ChiMetadataj+0x2a8>
   314f0: c1 fe ff f0  	adrp	x1, 0xc000 <_ZN8ChxUtils26isDebugDataSetForBurstShotEP11ChiMetadataj+0x2e4>
   314f8: e0 fe ff d0  	adrp	x0, 0xf000 <_ZN8ChxUtils26isDebugDataSetForBurstShotEP11ChiMetadataj+0x2f8>
   314fc: e3 fe ff 90  	adrp	x3, 0xd000 <_ZN8ChxUtils26isDebugDataSetForBurstShotEP11ChiMetadataj+0x2f4>
   31500: e5 fe ff b0  	adrp	x5, 0xe000 <_ZN8ChxUtils26isDebugDataSetForBurstShotEP11ChiMetadataj+0x2fc>
   31524: 5b 34 00 94  	bl	0x3e690 <_ZN6ChiLog9LogSystemEPKcS1_S1_S1_iS1_z@plt>
   3152c: e1 fe ff b0  	adrp	x1, 0xe000 <_ZN8ChxUtils26isDebugDataSetForBurstShotEP11ChiMetadataj+0x328>
   31534: c2 fe ff f0  	adrp	x2, 0xc000 <_ZN8ChxUtils26isDebugDataSetForBurstShotEP11ChiMetadataj+0x328>
   31554: 6d 00 00 b4  	cbz	x13, 0x31560 <_ZN8ChxUtils26isDebugDataSetForBurstShotEP11ChiMetadataj+0x3e8>
   3155c: 02 00 00 14  	b	0x31564 <_ZN8ChxUtils26isDebugDataSetForBurstShotEP11ChiMetadataj+0x3ec>
   31568: c1 fe ff f0  	adrp	x1, 0xc000 <_ZN8ChxUtils26isDebugDataSetForBurstShotEP11ChiMetadataj+0x35c>
   31570: a2 fe ff d0  	adrp	x2, 0x7000 <_ZN8ChxUtils26isDebugDataSetForBurstShotEP11ChiMetadataj+0x350>
   31590: 49 00 00 b4  	cbz	x9, 0x31598 <_ZN8ChxUtils26isDebugDataSetForBurstShotEP11ChiMetadataj+0x420>
   315ac: 6d 05 18 36  	tbz	w13, #3, 0x31658 <_ZN8ChxUtils26isDebugDataSetForBurstShotEP11ChiMetadataj+0x4e0>
   315b0: 61 00 00 d0  	adrp	x1, 0x3f000 <_ZN8ChxUtils26isDebugDataSetForBurstShotEP11ChiMetadataj+0x470>
   315c0: 61 02 00 54  	b.ne	0x3160c <_ZN8ChxUtils26isDebugDataSetForBurstShotEP11ChiMetadataj+0x494>
   315d8: e1 fe ff d0  	adrp	x1, 0xf000 <_ZN8ChxUtils26isDebugDataSetForBurstShotEP11ChiMetadataj+0x3d8>
   315dc: a2 fe ff d0  	adrp	x2, 0x7000 <_ZN8ChxUtils26isDebugDataSetForBurstShotEP11ChiMetadataj+0x3bc>
   315e0: e5 fe ff 90  	adrp	x5, 0xd000 <_ZN8ChxUtils26isDebugDataSetForBurstShotEP11ChiMetadataj+0x3d8>
   31620: c1 fe ff f0  	adrp	x1, 0xc000 <_ZN8ChxUtils26isDebugDataSetForBurstShotEP11ChiMetadataj+0x414>
   31628: e0 fe ff d0  	adrp	x0, 0xf000 <_ZN8ChxUtils26isDebugDataSetForBurstShotEP11ChiMetadataj+0x428>
   3162c: e3 fe ff 90  	adrp	x3, 0xd000 <_ZN8ChxUtils26isDebugDataSetForBurstShotEP11ChiMetadataj+0x424>
   31630: e5 fe ff 90  	adrp	x5, 0xd000 <_ZN8ChxUtils26isDebugDataSetForBurstShotEP11ChiMetadataj+0x428>
   31654: 0f 34 00 94  	bl	0x3e690 <_ZN6ChiLog9LogSystemEPKcS1_S1_S1_iS1_z@plt>
   31664: 41 01 00 54  	b.ne	0x3168c <_ZN8ChxUtils26isDebugDataSetForBurstShotEP11ChiMetadataj+0x514>
0000000000031690 <_ZN8ChxUtils18isBurstShotUsecaseEP11ChiMetadataj>:
   316ac: 79 00 00 d0  	adrp	x25, 0x3f000 <_ZN8ChxUtils18isBurstShotUsecaseEP11ChiMetadataj+0x54>
   316b0: 78 00 00 d0  	adrp	x24, 0x3f000 <_ZN8ChxUtils18isBurstShotUsecaseEP11ChiMetadataj+0x58>
   316b8: f3 fe ff 90  	adrp	x19, 0xd000 <_ZN8ChxUtils26isDebugDataSetForBurstShotEP11ChiMetadataj+0x4b0>
   316d0: 60 02 00 b4  	cbz	x0, 0x3171c <_ZN8ChxUtils18isBurstShotUsecaseEP11ChiMetadataj+0x8c>
   316e0: e1 fe ff b0  	adrp	x1, 0xe000 <_ZN8ChxUtils26isDebugDataSetForBurstShotEP11ChiMetadataj+0x4dc>
   316e8: c2 fe ff f0  	adrp	x2, 0xc000 <_ZN8ChxUtils26isDebugDataSetForBurstShotEP11ChiMetadataj+0x4dc>
   31708: a9 05 00 b4  	cbz	x9, 0x317bc <_ZN8ChxUtils18isBurstShotUsecaseEP11ChiMetadataj+0x12c>
   31714: a8 05 18 37  	tbnz	w8, #3, 0x317c8 <_ZN8ChxUtils18isBurstShotUsecaseEP11ChiMetadataj+0x138>
   31718: 50 00 00 14  	b	0x31858 <_ZN8ChxUtils18isBurstShotUsecaseEP11ChiMetadataj+0x1c8>
   31720: 6d 04 00 36  	tbz	w13, #0, 0x317ac <_ZN8ChxUtils18isBurstShotUsecaseEP11ChiMetadataj+0x11c>
   3172c: 01 02 00 54  	b.ne	0x3176c <_ZN8ChxUtils18isBurstShotUsecaseEP11ChiMetadataj+0xdc>
   31744: e1 fe ff d0  	adrp	x1, 0xf000 <_ZN8ChxUtils18isBurstShotUsecaseEP11ChiMetadataj+0x2c>
   31748: a2 fe ff d0  	adrp	x2, 0x7000 <_ZN8ChxUtils18isBurstShotUsecaseEP11ChiMetadataj+0x10>
   3174c: a5 fe ff f0  	adrp	x5, 0x8000 <_ZN8ChxUtils18isBurstShotUsecaseEP11ChiMetadataj+0x18>
   31780: e1 fe ff b0  	adrp	x1, 0xe000 <_ZN8ChxUtils18isBurstShotUsecaseEP11ChiMetadataj+0x64>
   31788: a0 fe ff f0  	adrp	x0, 0x8000 <_ZN8ChxUtils18isBurstShotUsecaseEP11ChiMetadataj+0x54>
   3178c: a3 fe ff f0  	adrp	x3, 0x8000 <_ZN8ChxUtils18isBurstShotUsecaseEP11ChiMetadataj+0x58>
   31790: a5 fe ff f0  	adrp	x5, 0x8000 <_ZN8ChxUtils18isBurstShotUsecaseEP11ChiMetadataj+0x5c>
   317a8: ba 33 00 94  	bl	0x3e690 <_ZN6ChiLog9LogSystemEPKcS1_S1_S1_iS1_z@plt>
   317b4: 2e 0e 18 36  	tbz	w14, #3, 0x31978 <_ZN8ChxUtils18isBurstShotUsecaseEP11ChiMetadataj+0x2e8>
   317b8: a2 00 00 14  	b	0x31a40 <_ZN8ChxUtils18isBurstShotUsecaseEP11ChiMetadataj+0x3b0>
   317c4: a8 04 18 36  	tbz	w8, #3, 0x31858 <_ZN8ChxUtils18isBurstShotUsecaseEP11ChiMetadataj+0x1c8>
   317d0: 21 02 00 54  	b.ne	0x31814 <_ZN8ChxUtils18isBurstShotUsecaseEP11ChiMetadataj+0x184>
   317e8: e1 fe ff d0  	adrp	x1, 0xf000 <_ZN8ChxUtils18isBurstShotUsecaseEP11ChiMetadataj+0xd0>
   317ec: c2 fe ff f0  	adrp	x2, 0xc000 <_ZN8ChxUtils18isBurstShotUsecaseEP11ChiMetadataj+0xc8>
   317f0: a5 fe ff f0  	adrp	x5, 0x8000 <_ZN8ChxUtils18isBurstShotUsecaseEP11ChiMetadataj+0xbc>
   31828: c1 fe ff f0  	adrp	x1, 0xc000 <_ZN8ChxUtils18isBurstShotUsecaseEP11ChiMetadataj+0x104>
   31830: e0 fe ff d0  	adrp	x0, 0xf000 <_ZN8ChxUtils18isBurstShotUsecaseEP11ChiMetadataj+0x118>
   31834: a3 fe ff f0  	adrp	x3, 0x8000 <_ZN8ChxUtils18isBurstShotUsecaseEP11ChiMetadataj+0x100>
   31838: c5 fe ff f0  	adrp	x5, 0xc000 <_ZN8ChxUtils18isBurstShotUsecaseEP11ChiMetadataj+0x114>
   31854: 8f 33 00 94  	bl	0x3e690 <_ZN6ChiLog9LogSystemEPKcS1_S1_S1_iS1_z@plt>
   3185c: e1 fe ff d0  	adrp	x1, 0xf000 <_ZN8ChxUtils18isBurstShotUsecaseEP11ChiMetadataj+0x144>
   31864: a2 fe ff f0  	adrp	x2, 0x8000 <_ZN8ChxUtils18isBurstShotUsecaseEP11ChiMetadataj+0x130>
   31884: 6a 00 00 b4  	cbz	x10, 0x31890 <_ZN8ChxUtils18isBurstShotUsecaseEP11ChiMetadataj+0x200>
   31894: aa 04 18 36  	tbz	w10, #3, 0x31928 <_ZN8ChxUtils18isBurstShotUsecaseEP11ChiMetadataj+0x298>
   318a0: 21 02 00 54  	b.ne	0x318e4 <_ZN8ChxUtils18isBurstShotUsecaseEP11ChiMetadataj+0x254>
   318b8: e1 fe ff d0  	adrp	x1, 0xf000 <_ZN8ChxUtils18isBurstShotUsecaseEP11ChiMetadataj+0x1a0>
   318bc: c2 fe ff b0  	adrp	x2, 0xa000 <_ZN8ChxUtils18isBurstShotUsecaseEP11ChiMetadataj+0x190>
   318c0: a5 fe ff f0  	adrp	x5, 0x8000 <_ZN8ChxUtils18isBurstShotUsecaseEP11ChiMetadataj+0x18c>
   318f8: c1 fe ff f0  	adrp	x1, 0xc000 <_ZN8ChxUtils18isBurstShotUsecaseEP11ChiMetadataj+0x1d4>
   31900: e0 fe ff d0  	adrp	x0, 0xf000 <_ZN8ChxUtils18isBurstShotUsecaseEP11ChiMetadataj+0x1e8>
   31904: a3 fe ff f0  	adrp	x3, 0x8000 <_ZN8ChxUtils18isBurstShotUsecaseEP11ChiMetadataj+0x1d0>
   31908: c5 fe ff f0  	adrp	x5, 0xc000 <_ZN8ChxUtils18isBurstShotUsecaseEP11ChiMetadataj+0x1e4>
   31924: 5b 33 00 94  	bl	0x3e690 <_ZN6ChiLog9LogSystemEPKcS1_S1_S1_iS1_z@plt>
   3192c: e1 fe ff b0  	adrp	x1, 0xe000 <_ZN8ChxUtils18isBurstShotUsecaseEP11ChiMetadataj+0x210>
   31934: c2 fe ff f0  	adrp	x2, 0xc000 <_ZN8ChxUtils18isBurstShotUsecaseEP11ChiMetadataj+0x210>
   31954: a1 00 00 54  	b.ne	0x31968 <_ZN8ChxUtils18isBurstShotUsecaseEP11ChiMetadataj+0x2d8>
   3195c: 68 00 00 b4  	cbz	x8, 0x31968 <_ZN8ChxUtils18isBurstShotUsecaseEP11ChiMetadataj+0x2d8>
   3196c: ec 01 18 37  	tbnz	w12, #3, 0x319a8 <_ZN8ChxUtils18isBurstShotUsecaseEP11ChiMetadataj+0x318>
   31974: 6e 06 18 37  	tbnz	w14, #3, 0x31a40 <_ZN8ChxUtils18isBurstShotUsecaseEP11ChiMetadataj+0x3b0>
   31984: e1 0a 00 54  	b.ne	0x31ae0 <_ZN8ChxUtils18isBurstShotUsecaseEP11ChiMetadataj+0x450>
   319b0: 21 02 00 54  	b.ne	0x319f4 <_ZN8ChxUtils18isBurstShotUsecaseEP11ChiMetadataj+0x364>
   319c8: e1 fe ff d0  	adrp	x1, 0xf000 <_ZN8ChxUtils18isBurstShotUsecaseEP11ChiMetadataj+0x2b0>
   319cc: c2 fe ff b0  	adrp	x2, 0xa000 <_ZN8ChxUtils18isBurstShotUsecaseEP11ChiMetadataj+0x2a0>
   319d0: a5 fe ff f0  	adrp	x5, 0x8000 <_ZN8ChxUtils18isBurstShotUsecaseEP11ChiMetadataj+0x29c>
   31a08: c1 fe ff f0  	adrp	x1, 0xc000 <_ZN8ChxUtils18isBurstShotUsecaseEP11ChiMetadataj+0x2e4>
   31a10: e0 fe ff d0  	adrp	x0, 0xf000 <_ZN8ChxUtils18isBurstShotUsecaseEP11ChiMetadataj+0x2f8>
   31a14: a3 fe ff f0  	adrp	x3, 0x8000 <_ZN8ChxUtils18isBurstShotUsecaseEP11ChiMetadataj+0x2e0>
   31a18: a5 fe ff f0  	adrp	x5, 0x8000 <_ZN8ChxUtils18isBurstShotUsecaseEP11ChiMetadataj+0x2e4>
   31a34: 17 33 00 94  	bl	0x3e690 <_ZN6ChiLog9LogSystemEPKcS1_S1_S1_iS1_z@plt>
   31a3c: ee f9 1f 36  	tbz	w14, #3, 0x31978 <_ZN8ChxUtils18isBurstShotUsecaseEP11ChiMetadataj+0x2e8>
   31a48: 21 02 00 54  	b.ne	0x31a8c <_ZN8ChxUtils18isBurstShotUsecaseEP11ChiMetadataj+0x3fc>
   31a60: e1 fe ff d0  	adrp	x1, 0xf000 <_ZN8ChxUtils18isBurstShotUsecaseEP11ChiMetadataj+0x348>
   31a64: c2 fe ff 90  	adrp	x2, 0x9000 <_ZN8ChxUtils18isBurstShotUsecaseEP11ChiMetadataj+0x334>
   31a68: a5 fe ff f0  	adrp	x5, 0x8000 <_ZN8ChxUtils18isBurstShotUsecaseEP11ChiMetadataj+0x334>
   31aa0: c1 fe ff f0  	adrp	x1, 0xc000 <_ZN8ChxUtils18isBurstShotUsecaseEP11ChiMetadataj+0x37c>
   31aa8: e0 fe ff d0  	adrp	x0, 0xf000 <_ZN8ChxUtils18isBurstShotUsecaseEP11ChiMetadataj+0x390>
   31aac: a3 fe ff f0  	adrp	x3, 0x8000 <_ZN8ChxUtils18isBurstShotUsecaseEP11ChiMetadataj+0x378>
   31ab0: e5 fe ff b0  	adrp	x5, 0xe000 <_ZN8ChxUtils18isBurstShotUsecaseEP11ChiMetadataj+0x394>
   31acc: f1 32 00 94  	bl	0x3e690 <_ZN6ChiLog9LogSystemEPKcS1_S1_S1_iS1_z@plt>
   31adc: 60 f5 ff 54  	b.eq	0x31988 <_ZN8ChxUtils18isBurstShotUsecaseEP11ChiMetadataj+0x2f8>
0000000000031ae8 <_ZN8ChxUtils11GetTotalRamEv>:
   31b24: 68 00 00 d0  	adrp	x8, 0x3f000 <_ZN8ChxUtils11GetTotalRamEv+0x74>
   31b30: 00 07 00 34  	cbz	w0, 0x31c10 <_ZN8ChxUtils11GetTotalRamEv+0x128>
   31b34: a8 05 00 36  	tbz	w8, #0, 0x31be8 <_ZN8ChxUtils11GetTotalRamEv+0x100>
   31b38: 69 00 00 d0  	adrp	x9, 0x3f000 <_ZN8ChxUtils11GetTotalRamEv+0x88>
   31b3c: f3 fe ff 90  	adrp	x19, 0xd000 <_ZN8ChxUtils18isBurstShotUsecaseEP11ChiMetadataj+0x41c>
   31b50: 61 02 00 54  	b.ne	0x31b9c <_ZN8ChxUtils11GetTotalRamEv+0xb4>
   31b74: e1 fe ff d0  	adrp	x1, 0xf000 <_ZN8ChxUtils11GetTotalRamEv+0x4>
   31b78: e2 fe ff d0  	adrp	x2, 0xf000 <_ZN8ChxUtils11GetTotalRamEv+0x8>
   31b7c: a5 fe ff f0  	adrp	x5, 0x8000 <_ZN8ChxUtils18isBurstShotUsecaseEP11ChiMetadataj+0x448>
   31bbc: a0 fe ff f0  	adrp	x0, 0x8000 <_ZN8ChxUtils11GetTotalRamEv+0x30>
   31bc0: e1 fe ff b0  	adrp	x1, 0xe000 <_ZN8ChxUtils11GetTotalRamEv+0x4c>
   31bc4: a3 fe ff f0  	adrp	x3, 0x8000 <_ZN8ChxUtils11GetTotalRamEv+0x38>
   31bc8: e5 fe ff b0  	adrp	x5, 0xe000 <_ZN8ChxUtils11GetTotalRamEv+0x54>
   31be4: ab 32 00 94  	bl	0x3e690 <_ZN6ChiLog9LogSystemEPKcS1_S1_S1_iS1_z@plt>
   31bf8: 81 07 00 54  	b.ne	0x31ce8 <_ZN8ChxUtils11GetTotalRamEv+0x200>
   31c10: e8 05 18 36  	tbz	w8, #3, 0x31ccc <_ZN8ChxUtils11GetTotalRamEv+0x1e4>
   31c14: 6a 00 00 d0  	adrp	x10, 0x3f000 <_ZN8ChxUtils11GetTotalRamEv+0x164>
   31c24: a1 02 00 54  	b.ne	0x31c78 <_ZN8ChxUtils11GetTotalRamEv+0x190>
   31c28: f4 fe ff 90  	adrp	x20, 0xd000 <_ZN8ChxUtils11GetTotalRamEv+0xb0>
   31c48: e1 fe ff d0  	adrp	x1, 0xf000 <_ZN8ChxUtils11GetTotalRamEv+0xd8>
   31c50: e2 fe ff 90  	adrp	x2, 0xd000 <_ZN8ChxUtils11GetTotalRamEv+0xd8>
   31c54: a5 fe ff f0  	adrp	x5, 0x8000 <_ZN8ChxUtils11GetTotalRamEv+0xc8>
   31c78: f3 fe ff 90  	adrp	x19, 0xd000 <_ZN8ChxUtils11GetTotalRamEv+0x100>
   31ca0: e0 fe ff d0  	adrp	x0, 0xf000 <_ZN8ChxUtils11GetTotalRamEv+0x130>
   31ca4: c1 fe ff f0  	adrp	x1, 0xc000 <_ZN8ChxUtils11GetTotalRamEv+0x128>
   31ca8: a3 fe ff f0  	adrp	x3, 0x8000 <_ZN8ChxUtils11GetTotalRamEv+0x11c>
   31cac: c5 fe ff 90  	adrp	x5, 0x9000 <_ZN8ChxUtils11GetTotalRamEv+0x124>
   31cc8: 72 32 00 94  	bl	0x3e690 <_ZN6ChiLog9LogSystemEPKcS1_S1_S1_iS1_z@plt>
   31ce4: c0 f8 ff 54  	b.eq	0x31bfc <_ZN8ChxUtils11GetTotalRamEv+0x114>
   31cf0: a0 01 00 b4  	cbz	x0, 0x31d24 <_ZN8ChxUtils11GetTotalRamEv+0x23c>
   31d08: fa ff ff 97  	bl	0x31cf0 <_ZN8ChxUtils11GetTotalRamEv+0x208>
   31d10: f8 ff ff 97  	bl	0x31cf0 <_ZN8ChxUtils11GetTotalRamEv+0x208>
   31d78: 52 00 00 94  	bl	0x31ec0 <_ZN8ChxUtils11GetTotalRamEv+0x3d8>
   31d8c: 40 02 00 54  	b.eq	0x31dd4 <_ZN8ChxUtils11GetTotalRamEv+0x2ec>
   31dc0: 68 00 00 d0  	adrp	x8, 0x3f000 <_ZN8ChxUtils11GetTotalRamEv+0x310>
   31dcc: 08 01 08 37  	tbnz	w8, #1, 0x31dec <_ZN8ChxUtils11GetTotalRamEv+0x304>
   31dd0: 31 00 00 14  	b	0x31e94 <_ZN8ChxUtils11GetTotalRamEv+0x3ac>
   31ddc: 68 00 00 d0  	adrp	x8, 0x3f000 <_ZN8ChxUtils11GetTotalRamEv+0x32c>
   31de8: 68 05 08 36  	tbz	w8, #1, 0x31e94 <_ZN8ChxUtils11GetTotalRamEv+0x3ac>
   31dec: 69 00 00 d0  	adrp	x9, 0x3f000 <_ZN8ChxUtils11GetTotalRamEv+0x33c>
   31df0: d4 fe ff b0  	adrp	x20, 0xa000 <_ZN8ChxUtils11GetTotalRamEv+0x26c>
   31e04: 41 02 00 54  	b.ne	0x31e4c <_ZN8ChxUtils11GetTotalRamEv+0x364>
   31e1c: e1 fe ff d0  	adrp	x1, 0xf000 <_ZN8ChxUtils11GetTotalRamEv+0x2ac>
   31e20: c2 fe ff d0  	adrp	x2, 0xb000 <_ZN8ChxUtils11GetTotalRamEv+0x2a0>
   31e24: c5 fe ff f0  	adrp	x5, 0xc000 <_ZN8ChxUtils11GetTotalRamEv+0x2a8>
   31e60: c1 fe ff 90  	adrp	x1, 0x9000 <_ZN8ChxUtils11GetTotalRamEv+0x2d8>
   31e68: e0 fe ff 90  	adrp	x0, 0xd000 <_ZN8ChxUtils11GetTotalRamEv+0x2f0>
   31e6c: c3 fe ff f0  	adrp	x3, 0xc000 <_ZN8ChxUtils11GetTotalRamEv+0x2f0>
   31e70: e5 fe ff d0  	adrp	x5, 0xf000 <_ZN8ChxUtils11GetTotalRamEv+0x300>
   31e90: 00 32 00 94  	bl	0x3e690 <_ZN6ChiLog9LogSystemEPKcS1_S1_S1_iS1_z@plt>
   31ea0: e1 00 00 54  	b.ne	0x31ebc <_ZN8ChxUtils11GetTotalRamEv+0x3d4>
   31f0c: c2 fe ff d0  	adrp	x2, 0xb000 <_ZN8ChxUtils11GetTotalRamEv+0x38c>
   31f4c: a1 00 00 54  	b.ne	0x31f60 <_ZN8ChxUtils11GetTotalRamEv+0x478>
   31f88: 93 00 00 90  	adrp	x19, 0x41000 <_ZN8ChxUtils11GetTotalRamEv+0x4e0>
   31f8c: d6 fe ff f0  	adrp	x22, 0xc000 <_ZN8ChxUtils11GetTotalRamEv+0x410>
   31fa0: 20 32 00 94  	bl	0x3e820 <_ZN7android8hardware11hidl_stringC1EPKc@plt>
   31fa4: 15 ff ff f0  	adrp	x21, 0x14000 <_ZN8ChxUtils11GetTotalRamEv+0x448>
   31fa8: 74 00 00 d0  	adrp	x20, 0x3f000 <_ZN8ChxUtils11GetTotalRamEv+0x4f8>
   31fd8: 12 32 00 94  	bl	0x3e820 <_ZN7android8hardware11hidl_stringC1EPKc@plt>
   32000: 08 32 00 94  	bl	0x3e820 <_ZN7android8hardware11hidl_stringC1EPKc@plt>
   32028: fe 31 00 94  	bl	0x3e820 <_ZN7android8hardware11hidl_stringC1EPKc@plt>
   32050: f4 31 00 94  	bl	0x3e820 <_ZN7android8hardware11hidl_stringC1EPKc@plt>
   32078: ea 31 00 94  	bl	0x3e820 <_ZN7android8hardware11hidl_stringC1EPKc@plt>
   320a0: e0 31 00 94  	bl	0x3e820 <_ZN7android8hardware11hidl_stringC1EPKc@plt>
   320c8: d6 31 00 94  	bl	0x3e820 <_ZN7android8hardware11hidl_stringC1EPKc@plt>
   320f0: cc 31 00 94  	bl	0x3e820 <_ZN7android8hardware11hidl_stringC1EPKc@plt>
   32118: c2 31 00 94  	bl	0x3e820 <_ZN7android8hardware11hidl_stringC1EPKc@plt>
   32140: b8 31 00 94  	bl	0x3e820 <_ZN7android8hardware11hidl_stringC1EPKc@plt>
   32168: ae 31 00 94  	bl	0x3e820 <_ZN7android8hardware11hidl_stringC1EPKc@plt>
   32190: a4 31 00 94  	bl	0x3e820 <_ZN7android8hardware11hidl_stringC1EPKc@plt>
   321b8: 9a 31 00 94  	bl	0x3e820 <_ZN7android8hardware11hidl_stringC1EPKc@plt>
   321e0: 90 31 00 94  	bl	0x3e820 <_ZN7android8hardware11hidl_stringC1EPKc@plt>
   32208: 86 31 00 94  	bl	0x3e820 <_ZN7android8hardware11hidl_stringC1EPKc@plt>
   32230: 7c 31 00 94  	bl	0x3e820 <_ZN7android8hardware11hidl_stringC1EPKc@plt>
   32258: 72 31 00 94  	bl	0x3e820 <_ZN7android8hardware11hidl_stringC1EPKc@plt>
   32280: 68 31 00 94  	bl	0x3e820 <_ZN7android8hardware11hidl_stringC1EPKc@plt>
   322a8: 5e 31 00 94  	bl	0x3e820 <_ZN7android8hardware11hidl_stringC1EPKc@plt>
   322d0: 54 31 00 94  	bl	0x3e820 <_ZN7android8hardware11hidl_stringC1EPKc@plt>
   322f8: ed fe ff b0  	adrp	x13, 0xf000 <_ZN8ChxUtils11GetTotalRamEv+0x784>
   322fc: ac fe ff b0  	adrp	x12, 0x7000 <_ZN8ChxUtils11GetTotalRamEv+0x768>
   32304: 16 ff ff d0  	adrp	x22, 0x14000 <_ZN8ChxUtils11GetTotalRamEv+0x7a4>
   32394: ef fe ff b0  	adrp	x15, 0xf000 <_ZN8ChxUtils11GetTotalRamEv+0x820>
   32398: ae fe ff b0  	adrp	x14, 0x7000 <_ZN8ChxUtils11GetTotalRamEv+0x804>
   3246c: f1 fe ff 90  	adrp	x17, 0xe000 <_ZN8ChxUtils11GetTotalRamEv+0x8f4>
   32470: b0 fe ff b0  	adrp	x16, 0x7000 <_ZN8ChxUtils11GetTotalRamEv+0x8dc>
   32588: a3 fe ff d0  	adrp	x3, 0x8000 <_ZN8ChxUtils11GetTotalRamEv+0x9f8>
   3258c: a2 fe ff b0  	adrp	x2, 0x7000 <_ZN8ChxUtils11GetTotalRamEv+0x9f8>
   32810: 60 00 00 b0  	adrp	x0, 0x3f000 <_ZN8ChxUtils11GetTotalRamEv+0xd5c>
   32840: 00 30 00 94  	bl	0x3e840 <_ZN7android8hardware11hidl_stringC1ERKNSt3__112basic_stringIcNS2_11char_traitsIcEENS2_9allocatorIcEEEE@plt>
   32868: f6 2f 00 94  	bl	0x3e840 <_ZN7android8hardware11hidl_stringC1ERKNSt3__112basic_stringIcNS2_11char_traitsIcEENS2_9allocatorIcEEEE@plt>
   32890: ec 2f 00 94  	bl	0x3e840 <_ZN7android8hardware11hidl_stringC1ERKNSt3__112basic_stringIcNS2_11char_traitsIcEENS2_9allocatorIcEEEE@plt>
   328b8: e2 2f 00 94  	bl	0x3e840 <_ZN7android8hardware11hidl_stringC1ERKNSt3__112basic_stringIcNS2_11char_traitsIcEENS2_9allocatorIcEEEE@plt>
   328e0: d8 2f 00 94  	bl	0x3e840 <_ZN7android8hardware11hidl_stringC1ERKNSt3__112basic_stringIcNS2_11char_traitsIcEENS2_9allocatorIcEEEE@plt>
   32908: ce 2f 00 94  	bl	0x3e840 <_ZN7android8hardware11hidl_stringC1ERKNSt3__112basic_stringIcNS2_11char_traitsIcEENS2_9allocatorIcEEEE@plt>
   32930: c4 2f 00 94  	bl	0x3e840 <_ZN7android8hardware11hidl_stringC1ERKNSt3__112basic_stringIcNS2_11char_traitsIcEENS2_9allocatorIcEEEE@plt>
   32958: ba 2f 00 94  	bl	0x3e840 <_ZN7android8hardware11hidl_stringC1ERKNSt3__112basic_stringIcNS2_11char_traitsIcEENS2_9allocatorIcEEEE@plt>
   32980: b0 2f 00 94  	bl	0x3e840 <_ZN7android8hardware11hidl_stringC1ERKNSt3__112basic_stringIcNS2_11char_traitsIcEENS2_9allocatorIcEEEE@plt>
   329a8: a6 2f 00 94  	bl	0x3e840 <_ZN7android8hardware11hidl_stringC1ERKNSt3__112basic_stringIcNS2_11char_traitsIcEENS2_9allocatorIcEEEE@plt>
   329d0: 9c 2f 00 94  	bl	0x3e840 <_ZN7android8hardware11hidl_stringC1ERKNSt3__112basic_stringIcNS2_11char_traitsIcEENS2_9allocatorIcEEEE@plt>
   329f8: 92 2f 00 94  	bl	0x3e840 <_ZN7android8hardware11hidl_stringC1ERKNSt3__112basic_stringIcNS2_11char_traitsIcEENS2_9allocatorIcEEEE@plt>
   32a20: 88 2f 00 94  	bl	0x3e840 <_ZN7android8hardware11hidl_stringC1ERKNSt3__112basic_stringIcNS2_11char_traitsIcEENS2_9allocatorIcEEEE@plt>
   32a48: 7e 2f 00 94  	bl	0x3e840 <_ZN7android8hardware11hidl_stringC1ERKNSt3__112basic_stringIcNS2_11char_traitsIcEENS2_9allocatorIcEEEE@plt>
   32a70: 74 2f 00 94  	bl	0x3e840 <_ZN7android8hardware11hidl_stringC1ERKNSt3__112basic_stringIcNS2_11char_traitsIcEENS2_9allocatorIcEEEE@plt>
   32a98: 6a 2f 00 94  	bl	0x3e840 <_ZN7android8hardware11hidl_stringC1ERKNSt3__112basic_stringIcNS2_11char_traitsIcEENS2_9allocatorIcEEEE@plt>
   32ac0: 60 2f 00 94  	bl	0x3e840 <_ZN7android8hardware11hidl_stringC1ERKNSt3__112basic_stringIcNS2_11char_traitsIcEENS2_9allocatorIcEEEE@plt>
   32ae8: 56 2f 00 94  	bl	0x3e840 <_ZN7android8hardware11hidl_stringC1ERKNSt3__112basic_stringIcNS2_11char_traitsIcEENS2_9allocatorIcEEEE@plt>
   32b10: 4c 2f 00 94  	bl	0x3e840 <_ZN7android8hardware11hidl_stringC1ERKNSt3__112basic_stringIcNS2_11char_traitsIcEENS2_9allocatorIcEEEE@plt>
   32b38: 42 2f 00 94  	bl	0x3e840 <_ZN7android8hardware11hidl_stringC1ERKNSt3__112basic_stringIcNS2_11char_traitsIcEENS2_9allocatorIcEEEE@plt>
   32b60: 38 2f 00 94  	bl	0x3e840 <_ZN7android8hardware11hidl_stringC1ERKNSt3__112basic_stringIcNS2_11char_traitsIcEENS2_9allocatorIcEEEE@plt>
   32b88: 2e 2f 00 94  	bl	0x3e840 <_ZN7android8hardware11hidl_stringC1ERKNSt3__112basic_stringIcNS2_11char_traitsIcEENS2_9allocatorIcEEEE@plt>
   32bb0: 24 2f 00 94  	bl	0x3e840 <_ZN7android8hardware11hidl_stringC1ERKNSt3__112basic_stringIcNS2_11char_traitsIcEENS2_9allocatorIcEEEE@plt>
   32bd8: 1a 2f 00 94  	bl	0x3e840 <_ZN7android8hardware11hidl_stringC1ERKNSt3__112basic_stringIcNS2_11char_traitsIcEENS2_9allocatorIcEEEE@plt>
   32c00: 10 2f 00 94  	bl	0x3e840 <_ZN7android8hardware11hidl_stringC1ERKNSt3__112basic_stringIcNS2_11char_traitsIcEENS2_9allocatorIcEEEE@plt>
   32c28: 06 2f 00 94  	bl	0x3e840 <_ZN7android8hardware11hidl_stringC1ERKNSt3__112basic_stringIcNS2_11char_traitsIcEENS2_9allocatorIcEEEE@plt>
   32c4c: 01 2f 00 94  	bl	0x3e850 <_ZNSt3__112basic_stringIcNS_11char_traitsIcEENS_9allocatorIcEEEC1ERKS5_@plt>
   32c74: f7 2e 00 94  	bl	0x3e850 <_ZNSt3__112basic_stringIcNS_11char_traitsIcEENS_9allocatorIcEEEC1ERKS5_@plt>
   32c9c: ed 2e 00 94  	bl	0x3e850 <_ZNSt3__112basic_stringIcNS_11char_traitsIcEENS_9allocatorIcEEEC1ERKS5_@plt>
   32cc4: e3 2e 00 94  	bl	0x3e850 <_ZNSt3__112basic_stringIcNS_11char_traitsIcEENS_9allocatorIcEEEC1ERKS5_@plt>
   32cf8: f4 fe ff d0  	adrp	x20, 0x10000 <_ZN8ChxUtils11GetTotalRamEv+0x1188>
   32d1c: 40 00 00 b4  	cbz	x0, 0x32d24 <_ZN8ChxUtils11GetTotalRamEv+0x123c>
   32d44: 00 02 00 54  	b.eq	0x32d84 <_ZN8ChxUtils11GetTotalRamEv+0x129c>
   32d48: c9 00 00 b4  	cbz	x9, 0x32d60 <_ZN8ChxUtils11GetTotalRamEv+0x1278>
   32d58: cb ff ff b5  	cbnz	x11, 0x32d50 <_ZN8ChxUtils11GetTotalRamEv+0x1268>
   32d5c: 07 00 00 14  	b	0x32d78 <_ZN8ChxUtils11GetTotalRamEv+0x1290>
   32d74: 80 ff ff 54  	b.eq	0x32d64 <_ZN8ChxUtils11GetTotalRamEv+0x127c>
   32d80: cc 00 00 54  	b.gt	0x32d98 <_ZN8ChxUtils11GetTotalRamEv+0x12b0>
   32d84: c9 00 00 b4  	cbz	x9, 0x32d9c <_ZN8ChxUtils11GetTotalRamEv+0x12b4>
   32d90: 56 05 00 b5  	cbnz	x22, 0x32e38 <_ZN8ChxUtils11GetTotalRamEv+0x1350>
   32d94: 04 00 00 14  	b	0x32da4 <_ZN8ChxUtils11GetTotalRamEv+0x12bc>
   32d98: a9 02 00 b5  	cbnz	x9, 0x32dec <_ZN8ChxUtils11GetTotalRamEv+0x1304>
   32dd4: 49 02 00 b4  	cbz	x9, 0x32e1c <_ZN8ChxUtils11GetTotalRamEv+0x1334>
   32de0: 10 00 00 14  	b	0x32e20 <_ZN8ChxUtils11GetTotalRamEv+0x1338>
   32de8: c9 fd ff b4  	cbz	x9, 0x32da0 <_ZN8ChxUtils11GetTotalRamEv+0x12b8>
   32df8: 6a ff ff 54  	b.ge	0x32de4 <_ZN8ChxUtils11GetTotalRamEv+0x12fc>
   32e00: c0 01 00 54  	b.eq	0x32e38 <_ZN8ChxUtils11GetTotalRamEv+0x1350>
   32e08: 29 ff ff b5  	cbnz	x9, 0x32dec <_ZN8ChxUtils11GetTotalRamEv+0x1304>
   32e18: e3 ff ff 17  	b	0x32da4 <_ZN8ChxUtils11GetTotalRamEv+0x12bc>
   32e44: e0 00 00 54  	b.eq	0x32e60 <_ZN8ChxUtils11GetTotalRamEv+0x1378>
   32e48: 0a 01 00 b4  	cbz	x10, 0x32e68 <_ZN8ChxUtils11GetTotalRamEv+0x1380>
   32e58: c8 ff ff b5  	cbnz	x8, 0x32e50 <_ZN8ChxUtils11GetTotalRamEv+0x1368>
   32e5c: 09 00 00 14  	b	0x32e80 <_ZN8ChxUtils11GetTotalRamEv+0x1398>
   32e64: 0a 00 00 14  	b	0x32e8c <_ZN8ChxUtils11GetTotalRamEv+0x13a4>
   32e7c: 80 ff ff 54  	b.eq	0x32e6c <_ZN8ChxUtils11GetTotalRamEv+0x1384>
   32e88: cc 00 00 54  	b.gt	0x32ea0 <_ZN8ChxUtils11GetTotalRamEv+0x13b8>
   32e8c: ea 00 00 b4  	cbz	x10, 0x32ea8 <_ZN8ChxUtils11GetTotalRamEv+0x13c0>
   32e98: 30 05 00 b5  	cbnz	x16, 0x32f3c <_ZN8ChxUtils11GetTotalRamEv+0x1454>
   32e9c: 04 00 00 14  	b	0x32eac <_ZN8ChxUtils11GetTotalRamEv+0x13c4>
   32ea0: aa 02 00 b5  	cbnz	x10, 0x32ef4 <_ZN8ChxUtils11GetTotalRamEv+0x140c>
   32edc: 4a 02 00 b4  	cbz	x10, 0x32f24 <_ZN8ChxUtils11GetTotalRamEv+0x143c>
   32ee8: 10 00 00 14  	b	0x32f28 <_ZN8ChxUtils11GetTotalRamEv+0x1440>
   32ef0: ca fd ff b4  	cbz	x10, 0x32ea8 <_ZN8ChxUtils11GetTotalRamEv+0x13c0>
   32f00: 6a ff ff 54  	b.ge	0x32eec <_ZN8ChxUtils11GetTotalRamEv+0x1404>
   32f08: a0 01 00 54  	b.eq	0x32f3c <_ZN8ChxUtils11GetTotalRamEv+0x1454>
   32f10: 2a ff ff b5  	cbnz	x10, 0x32ef4 <_ZN8ChxUtils11GetTotalRamEv+0x140c>
   32f20: e3 ff ff 17  	b	0x32eac <_ZN8ChxUtils11GetTotalRamEv+0x13c4>
   32f40: a0 ff ff d0  	adrp	x0, 0x28000 <_ZN8ChxUtils11GetTotalRamEv+0x1430>
   32f5c: 62 00 00 b0  	adrp	x2, 0x3f000 <_ZN11ChiMetadata6CreateEPKjjbP18ChiMetadataManagerj+0x20>
0000000000032f70 <_ZN11ChiMetadata6CreateEPKjjbP18ChiMetadataManagerj>:
   32fc0: 60 09 00 b4  	cbz	x0, 0x330ec <_ZN11ChiMetadata6CreateEPKjjbP18ChiMetadataManagerj+0x17c>
   32fcc: 79 2f 00 94  	bl	0x3edb0 <_ZN11ChiMetadata21InitializeMetadataOpsEP14ChiMetadataOps@plt>
   32fd4: 00 08 00 35  	cbnz	w0, 0x330d4 <_ZN11ChiMetadata6CreateEPKjjbP18ChiMetadataManagerj+0x164>
   32fe4: b6 03 00 b5  	cbnz	x22, 0x33058 <_ZN11ChiMetadata6CreateEPKjjbP18ChiMetadataManagerj+0xe8>
   32fe8: 97 03 00 36  	tbz	w23, #0, 0x33058 <_ZN11ChiMetadata6CreateEPKjjbP18ChiMetadataManagerj+0xe8>
   33034: 9b 2d 00 94  	bl	0x3e6a0 <_ZN15ExtensionModule11GetInstanceEv@plt>
   33048: 5e 2f 00 94  	bl	0x3edc0 <_ZN15ExtensionModule23GetAvailableRequestKeysEjPjjS0_@plt>
   3306c: 56 01 00 b4  	cbz	x22, 0x33094 <_ZN11ChiMetadata6CreateEPKjjbP18ChiMetadataManagerj+0x124>
   33070: 35 01 00 34  	cbz	w21, 0x33094 <_ZN11ChiMetadata6CreateEPKjjbP18ChiMetadataManagerj+0x124>
   33090: 06 00 00 14  	b	0x330a8 <_ZN11ChiMetadata6CreateEPKjjbP18ChiMetadataManagerj+0x138>
   330d0: 80 00 00 34  	cbz	w0, 0x330e0 <_ZN11ChiMetadata6CreateEPKjjbP18ChiMetadataManagerj+0x170>
   330e0: 74 00 00 b4  	cbz	x20, 0x330ec <_ZN11ChiMetadata6CreateEPKjjbP18ChiMetadataManagerj+0x17c>
   330f8: 21 01 00 54  	b.ne	0x3311c <_ZN11ChiMetadata6CreateEPKjjbP18ChiMetadataManagerj+0x1ac>
0000000000033120 <_ZN11ChiMetadata21InitializeMetadataOpsEP14ChiMetadataOps>:
   33130: 5c 2d 00 94  	bl	0x3e6a0 <_ZN15ExtensionModule11GetInstanceEv@plt>
   33138: 26 2f 00 94  	bl	0x3edd0 <_ZN15ExtensionModule14GetMetadataOpsEP14ChiMetadataOps@plt>
   33140: e8 09 00 b4  	cbz	x8, 0x3327c <_ZN11ChiMetadata21InitializeMetadataOpsEP14ChiMetadataOps+0x15c>
   33148: a9 0f 00 b4  	cbz	x9, 0x3333c <_ZN11ChiMetadata21InitializeMetadataOpsEP14ChiMetadataOps+0x21c>
   33150: 6a 15 00 b4  	cbz	x10, 0x333fc <_ZN11ChiMetadata21InitializeMetadataOpsEP14ChiMetadataOps+0x2dc>
   33158: 2b 1b 00 b4  	cbz	x11, 0x334bc <_ZN11ChiMetadata21InitializeMetadataOpsEP14ChiMetadataOps+0x39c>
   33160: ec 20 00 b4  	cbz	x12, 0x3357c <_ZN11ChiMetadata21InitializeMetadataOpsEP14ChiMetadataOps+0x45c>
   33168: ad 26 00 b4  	cbz	x13, 0x3363c <_ZN11ChiMetadata21InitializeMetadataOpsEP14ChiMetadataOps+0x51c>
   33170: 6e 2c 00 b4  	cbz	x14, 0x336fc <_ZN11ChiMetadata21InitializeMetadataOpsEP14ChiMetadataOps+0x5dc>
   33178: 2f 32 00 b4  	cbz	x15, 0x337bc <_ZN11ChiMetadata21InitializeMetadataOpsEP14ChiMetadataOps+0x69c>
   33180: f0 37 00 b4  	cbz	x16, 0x3387c <_ZN11ChiMetadata21InitializeMetadataOpsEP14ChiMetadataOps+0x75c>
   33188: b1 3d 00 b4  	cbz	x17, 0x3393c <_ZN11ChiMetadata21InitializeMetadataOpsEP14ChiMetadataOps+0x81c>
   33190: 64 43 00 b4  	cbz	x4, 0x339fc <_ZN11ChiMetadata21InitializeMetadataOpsEP14ChiMetadataOps+0x8dc>
   33198: 27 49 00 b4  	cbz	x7, 0x33abc <_ZN11ChiMetadata21InitializeMetadataOpsEP14ChiMetadataOps+0x99c>
   331a0: e2 4e 00 b4  	cbz	x2, 0x33b7c <_ZN11ChiMetadata21InitializeMetadataOpsEP14ChiMetadataOps+0xa5c>
   331a8: a0 54 00 b4  	cbz	x0, 0x33c3c <_ZN11ChiMetadata21InitializeMetadataOpsEP14ChiMetadataOps+0xb1c>
   331b0: 61 5a 00 b4  	cbz	x1, 0x33cfc <_ZN11ChiMetadata21InitializeMetadataOpsEP14ChiMetadataOps+0xbdc>
   331b8: 23 60 00 b4  	cbz	x3, 0x33dbc <_ZN11ChiMetadata21InitializeMetadataOpsEP14ChiMetadataOps+0xc9c>
   331c0: e5 65 00 b4  	cbz	x5, 0x33e7c <_ZN11ChiMetadata21InitializeMetadataOpsEP14ChiMetadataOps+0xd5c>
   331c8: a6 6b 00 b4  	cbz	x6, 0x33f3c <_ZN11ChiMetadata21InitializeMetadataOpsEP14ChiMetadataOps+0xe1c>
   331d0: 68 71 00 b4  	cbz	x8, 0x33ffc <_ZN11ChiMetadata21InitializeMetadataOpsEP14ChiMetadataOps+0xedc>
   331d8: 29 77 00 b4  	cbz	x9, 0x340bc <_ZN11ChiMetadata21InitializeMetadataOpsEP14ChiMetadataOps+0xf9c>
   331e0: ea 7c 00 b4  	cbz	x10, 0x3417c <_ZN11ChiMetadata21InitializeMetadataOpsEP14ChiMetadataOps+0x105c>
   331e8: ab 82 00 b4  	cbz	x11, 0x3423c <_ZN11ChiMetadata21InitializeMetadataOpsEP14ChiMetadataOps+0x111c>
   331f0: 6c 88 00 b4  	cbz	x12, 0x342fc <_ZN11ChiMetadata21InitializeMetadataOpsEP14ChiMetadataOps+0x11dc>
   331f8: 2d 8e 00 b4  	cbz	x13, 0x343bc <_ZN11ChiMetadata21InitializeMetadataOpsEP14ChiMetadataOps+0x129c>
   33200: ee 93 00 b4  	cbz	x14, 0x3447c <_ZN11ChiMetadata21InitializeMetadataOpsEP14ChiMetadataOps+0x135c>
   33208: af 99 00 b4  	cbz	x15, 0x3453c <_ZN11ChiMetadata21InitializeMetadataOpsEP14ChiMetadataOps+0x141c>
   33210: 70 9f 00 b4  	cbz	x16, 0x345fc <_ZN11ChiMetadata21InitializeMetadataOpsEP14ChiMetadataOps+0x14dc>
   33218: 31 a5 00 b4  	cbz	x17, 0x346bc <_ZN11ChiMetadata21InitializeMetadataOpsEP14ChiMetadataOps+0x159c>
   33220: e4 aa 00 b4  	cbz	x4, 0x3477c <_ZN11ChiMetadata21InitializeMetadataOpsEP14ChiMetadataOps+0x165c>
   33228: a7 b0 00 b4  	cbz	x7, 0x3483c <_ZN11ChiMetadata21InitializeMetadataOpsEP14ChiMetadataOps+0x171c>
   33230: 62 b6 00 b4  	cbz	x2, 0x348fc <_ZN11ChiMetadata21InitializeMetadataOpsEP14ChiMetadataOps+0x17dc>
   33238: 20 bc 00 b4  	cbz	x0, 0x349bc <_ZN11ChiMetadata21InitializeMetadataOpsEP14ChiMetadataOps+0x189c>
   33240: e1 c1 00 b4  	cbz	x1, 0x34a7c <_ZN11ChiMetadata21InitializeMetadataOpsEP14ChiMetadataOps+0x195c>
   33248: a3 c7 00 b4  	cbz	x3, 0x34b3c <_ZN11ChiMetadata21InitializeMetadataOpsEP14ChiMetadataOps+0x1a1c>
   33250: 65 cd 00 b4  	cbz	x5, 0x34bfc <_ZN11ChiMetadata21InitializeMetadataOpsEP14ChiMetadataOps+0x1adc>
   33258: 26 d3 00 b4  	cbz	x6, 0x34cbc <_ZN11ChiMetadata21InitializeMetadataOpsEP14ChiMetadataOps+0x1b9c>
   33260: e8 d8 00 b4  	cbz	x8, 0x34d7c <_ZN11ChiMetadata21InitializeMetadataOpsEP14ChiMetadataOps+0x1c5c>
   33268: a9 de 00 b4  	cbz	x9, 0x34e3c <_ZN11ChiMetadata21InitializeMetadataOpsEP14ChiMetadataOps+0x1d1c>
   33270: 73 e4 00 b4  	cbz	x19, 0x34efc <_ZN11ChiMetadata21InitializeMetadataOpsEP14ChiMetadataOps+0x1ddc>
   33278: 50 07 00 14  	b	0x34fb8 <_ZN11ChiMetadata21InitializeMetadataOpsEP14ChiMetadataOps+0x1e98>
   3327c: 68 00 00 90  	adrp	x8, 0x3f000 <_ZN11ChiMetadata21InitializeMetadataOpsEP14ChiMetadataOps+0x18c>
   33288: 68 e9 30 36  	tbz	w8, #6, 0x34fb4 <_ZN11ChiMetadata21InitializeMetadataOpsEP14ChiMetadataOps+0x1e94>
   3328c: 69 00 00 90  	adrp	x9, 0x3f000 <_ZN11ChiMetadata21InitializeMetadataOpsEP14ChiMetadataOps+0x19c>
   3329c: 81 02 00 54  	b.ne	0x332ec <_ZN11ChiMetadata21InitializeMetadataOpsEP14ChiMetadataOps+0x1cc>
   332a0: d3 fe ff b0  	adrp	x19, 0xc000 <_ZN11ChiMetadata21InitializeMetadataOpsEP14ChiMetadataOps+0xe4>
   332bc: e1 fe ff 90  	adrp	x1, 0xf000 <_ZN11ChiMetadata21InitializeMetadataOpsEP14ChiMetadataOps+0x10c>
   332c0: a2 fe ff d0  	adrp	x2, 0x9000 <_ZN11ChiMetadata21InitializeMetadataOpsEP14ChiMetadataOps+0xf8>
   332c4: e5 fe ff b0  	adrp	x5, 0x10000 <_ZN11ChiMetadata21InitializeMetadataOpsEP14ChiMetadataOps+0x118>
   332c8: c6 fe ff b0  	adrp	x6, 0xc000 <_ZN11ChiMetadata21InitializeMetadataOpsEP14ChiMetadataOps+0x10c>
   332ec: d3 fe ff b0  	adrp	x19, 0xc000 <_ZN11ChiMetadata21InitializeMetadataOpsEP14ChiMetadataOps+0x130>
   33308: a1 fe ff b0  	adrp	x1, 0x8000 <_ZN11ChiMetadata21InitializeMetadataOpsEP14ChiMetadataOps+0x13c>
   33310: c0 fe ff d0  	adrp	x0, 0xd000 <_ZN11ChiMetadata21InitializeMetadataOpsEP14ChiMetadataOps+0x158>
   33314: e3 fe ff b0  	adrp	x3, 0x10000 <_ZN11ChiMetadata21InitializeMetadataOpsEP14ChiMetadataOps+0x168>
   33318: a5 fe ff b0  	adrp	x5, 0x8000 <_ZN11ChiMetadata21InitializeMetadataOpsEP14ChiMetadataOps+0x14c>
   3331c: c6 fe ff b0  	adrp	x6, 0xc000 <_ZN11ChiMetadata21InitializeMetadataOpsEP14ChiMetadataOps+0x160>
   33338: 1e 07 00 14  	b	0x34fb0 <_ZN11ChiMetadata21InitializeMetadataOpsEP14ChiMetadataOps+0x1e90>
   3333c: 6a 00 00 90  	adrp	x10, 0x3f000 <_ZN11ChiMetadata21InitializeMetadataOpsEP14ChiMetadataOps+0x24c>
   33348: 69 e3 30 36  	tbz	w9, #6, 0x34fb4 <_ZN11ChiMetadata21InitializeMetadataOpsEP14ChiMetadataOps+0x1e94>
   3334c: 6b 00 00 90  	adrp	x11, 0x3f000 <_ZN11ChiMetadata21InitializeMetadataOpsEP14ChiMetadataOps+0x25c>
   3335c: 81 02 00 54  	b.ne	0x333ac <_ZN11ChiMetadata21InitializeMetadataOpsEP14ChiMetadataOps+0x28c>
   33360: d3 fe ff b0  	adrp	x19, 0xc000 <_ZN11ChiMetadata21InitializeMetadataOpsEP14ChiMetadataOps+0x1a4>
   3337c: e1 fe ff 90  	adrp	x1, 0xf000 <_ZN11ChiMetadata21InitializeMetadataOpsEP14ChiMetadataOps+0x1cc>
   33380: a2 fe ff d0  	adrp	x2, 0x9000 <_ZN11ChiMetadata21InitializeMetadataOpsEP14ChiMetadataOps+0x1b8>
   33384: e5 fe ff b0  	adrp	x5, 0x10000 <_ZN11ChiMetadata21InitializeMetadataOpsEP14ChiMetadataOps+0x1d8>
   33388: c6 fe ff f0  	adrp	x6, 0xe000 <_ZN11ChiMetadata21InitializeMetadataOpsEP14ChiMetadataOps+0x1d4>
   333ac: d3 fe ff b0  	adrp	x19, 0xc000 <_ZN11ChiMetadata21InitializeMetadataOpsEP14ChiMetadataOps+0x1f0>
   333c8: a1 fe ff b0  	adrp	x1, 0x8000 <_ZN11ChiMetadata21InitializeMetadataOpsEP14ChiMetadataOps+0x1fc>
   333d0: c0 fe ff d0  	adrp	x0, 0xd000 <_ZN11ChiMetadata21InitializeMetadataOpsEP14ChiMetadataOps+0x218>
   333d4: e3 fe ff b0  	adrp	x3, 0x10000 <_ZN11ChiMetadata21InitializeMetadataOpsEP14ChiMetadataOps+0x228>
   333d8: a5 fe ff b0  	adrp	x5, 0x8000 <_ZN11ChiMetadata21InitializeMetadataOpsEP14ChiMetadataOps+0x20c>
   333dc: c6 fe ff f0  	adrp	x6, 0xe000 <_ZN11ChiMetadata21InitializeMetadataOpsEP14ChiMetadataOps+0x228>
   333f8: ee 06 00 14  	b	0x34fb0 <_ZN11ChiMetadata21InitializeMetadataOpsEP14ChiMetadataOps+0x1e90>
   333fc: 6c 00 00 90  	adrp	x12, 0x3f000 <_ZN11ChiMetadata21InitializeMetadataOpsEP14ChiMetadataOps+0x30c>
   33408: 6a dd 30 36  	tbz	w10, #6, 0x34fb4 <_ZN11ChiMetadata21InitializeMetadataOpsEP14ChiMetadataOps+0x1e94>
   3340c: 6d 00 00 90  	adrp	x13, 0x3f000 <_ZN11ChiMetadata21InitializeMetadataOpsEP14ChiMetadataOps+0x31c>
   3341c: 81 02 00 54  	b.ne	0x3346c <_ZN11ChiMetadata21InitializeMetadataOpsEP14ChiMetadataOps+0x34c>
   33420: d3 fe ff b0  	adrp	x19, 0xc000 <_ZN11ChiMetadata21InitializeMetadataOpsEP14ChiMetadataOps+0x264>
   3343c: e1 fe ff 90  	adrp	x1, 0xf000 <_ZN11ChiMetadata21InitializeMetadataOpsEP14ChiMetadataOps+0x28c>
   33440: a2 fe ff d0  	adrp	x2, 0x9000 <_ZN11ChiMetadata21InitializeMetadataOpsEP14ChiMetadataOps+0x278>
   33444: e5 fe ff b0  	adrp	x5, 0x10000 <_ZN11ChiMetadata21InitializeMetadataOpsEP14ChiMetadataOps+0x298>
   33448: c6 fe ff 90  	adrp	x6, 0xb000 <_ZN11ChiMetadata21InitializeMetadataOpsEP14ChiMetadataOps+0x288>
   3346c: d3 fe ff b0  	adrp	x19, 0xc000 <_ZN11ChiMetadata21InitializeMetadataOpsEP14ChiMetadataOps+0x2b0>
   33488: a1 fe ff b0  	adrp	x1, 0x8000 <_ZN11ChiMetadata21InitializeMetadataOpsEP14ChiMetadataOps+0x2bc>
   33490: c0 fe ff d0  	adrp	x0, 0xd000 <_ZN11ChiMetadata21InitializeMetadataOpsEP14ChiMetadataOps+0x2d8>
   33494: e3 fe ff b0  	adrp	x3, 0x10000 <_ZN11ChiMetadata21InitializeMetadataOpsEP14ChiMetadataOps+0x2e8>
   33498: a5 fe ff b0  	adrp	x5, 0x8000 <_ZN11ChiMetadata21InitializeMetadataOpsEP14ChiMetadataOps+0x2cc>
   3349c: c6 fe ff 90  	adrp	x6, 0xb000 <_ZN11ChiMetadata21InitializeMetadataOpsEP14ChiMetadataOps+0x2dc>
   334b8: be 06 00 14  	b	0x34fb0 <_ZN11ChiMetadata21InitializeMetadataOpsEP14ChiMetadataOps+0x1e90>
   334bc: 6e 00 00 90  	adrp	x14, 0x3f000 <_ZN11ChiMetadata21InitializeMetadataOpsEP14ChiMetadataOps+0x3cc>
   334c8: 6b d7 30 36  	tbz	w11, #6, 0x34fb4 <_ZN11ChiMetadata21InitializeMetadataOpsEP14ChiMetadataOps+0x1e94>
   334cc: 6f 00 00 90  	adrp	x15, 0x3f000 <_ZN11ChiMetadata21InitializeMetadataOpsEP14ChiMetadataOps+0x3dc>
   334dc: 81 02 00 54  	b.ne	0x3352c <_ZN11ChiMetadata21InitializeMetadataOpsEP14ChiMetadataOps+0x40c>
   334e0: d3 fe ff b0  	adrp	x19, 0xc000 <_ZN11ChiMetadata21InitializeMetadataOpsEP14ChiMetadataOps+0x324>
   334fc: e1 fe ff 90  	adrp	x1, 0xf000 <_ZN11ChiMetadata21InitializeMetadataOpsEP14ChiMetadataOps+0x34c>
   33500: a2 fe ff d0  	adrp	x2, 0x9000 <_ZN11ChiMetadata21InitializeMetadataOpsEP14ChiMetadataOps+0x338>
   33504: e5 fe ff b0  	adrp	x5, 0x10000 <_ZN11ChiMetadata21InitializeMetadataOpsEP14ChiMetadataOps+0x358>
   33508: a6 fe ff f0  	adrp	x6, 0xa000 <_ZN11ChiMetadata21InitializeMetadataOpsEP14ChiMetadataOps+0x344>
   3352c: d3 fe ff b0  	adrp	x19, 0xc000 <_ZN11ChiMetadata21InitializeMetadataOpsEP14ChiMetadataOps+0x370>
   33548: a1 fe ff b0  	adrp	x1, 0x8000 <_ZN11ChiMetadata21InitializeMetadataOpsEP14ChiMetadataOps+0x37c>
   33550: c0 fe ff d0  	adrp	x0, 0xd000 <_ZN11ChiMetadata21InitializeMetadataOpsEP14ChiMetadataOps+0x398>
   33554: e3 fe ff b0  	adrp	x3, 0x10000 <_ZN11ChiMetadata21InitializeMetadataOpsEP14ChiMetadataOps+0x3a8>
   33558: a5 fe ff b0  	adrp	x5, 0x8000 <_ZN11ChiMetadata21InitializeMetadataOpsEP14ChiMetadataOps+0x38c>
   3355c: a6 fe ff f0  	adrp	x6, 0xa000 <_ZN11ChiMetadata21InitializeMetadataOpsEP14ChiMetadataOps+0x398>
   33578: 8e 06 00 14  	b	0x34fb0 <_ZN11ChiMetadata21InitializeMetadataOpsEP14ChiMetadataOps+0x1e90>
   3357c: 70 00 00 90  	adrp	x16, 0x3f000 <_ZN11ChiMetadata21InitializeMetadataOpsEP14ChiMetadataOps+0x48c>
   33588: 6c d1 30 36  	tbz	w12, #6, 0x34fb4 <_ZN11ChiMetadata21InitializeMetadataOpsEP14ChiMetadataOps+0x1e94>
   3358c: 71 00 00 90  	adrp	x17, 0x3f000 <_ZN11ChiMetadata21InitializeMetadataOpsEP14ChiMetadataOps+0x49c>
   3359c: 81 02 00 54  	b.ne	0x335ec <_ZN11ChiMetadata21InitializeMetadataOpsEP14ChiMetadataOps+0x4cc>
   335a0: d3 fe ff b0  	adrp	x19, 0xc000 <_ZN11ChiMetadata21InitializeMetadataOpsEP14ChiMetadataOps+0x3e4>
   335bc: e1 fe ff 90  	adrp	x1, 0xf000 <_ZN11ChiMetadata21InitializeMetadataOpsEP14ChiMetadataOps+0x40c>
   335c0: a2 fe ff d0  	adrp	x2, 0x9000 <_ZN11ChiMetadata21InitializeMetadataOpsEP14ChiMetadataOps+0x3f8>
   335c4: e5 fe ff b0  	adrp	x5, 0x10000 <_ZN11ChiMetadata21InitializeMetadataOpsEP14ChiMetadataOps+0x418>
   335c8: a6 fe ff f0  	adrp	x6, 0xa000 <_ZN11ChiMetadata21InitializeMetadataOpsEP14ChiMetadataOps+0x404>
   335ec: d3 fe ff b0  	adrp	x19, 0xc000 <_ZN11ChiMetadata21InitializeMetadataOpsEP14ChiMetadataOps+0x430>
   33608: a1 fe ff b0  	adrp	x1, 0x8000 <_ZN11ChiMetadata21InitializeMetadataOpsEP14ChiMetadataOps+0x43c>
   33610: c0 fe ff d0  	adrp	x0, 0xd000 <_ZN11ChiMetadata21InitializeMetadataOpsEP14ChiMetadataOps+0x458>
   33614: e3 fe ff b0  	adrp	x3, 0x10000 <_ZN11ChiMetadata21InitializeMetadataOpsEP14ChiMetadataOps+0x468>
   33618: a5 fe ff b0  	adrp	x5, 0x8000 <_ZN11ChiMetadata21InitializeMetadataOpsEP14ChiMetadataOps+0x44c>
   3361c: a6 fe ff f0  	adrp	x6, 0xa000 <_ZN11ChiMetadata21InitializeMetadataOpsEP14ChiMetadataOps+0x458>
   33638: 5e 06 00 14  	b	0x34fb0 <_ZN11ChiMetadata21InitializeMetadataOpsEP14ChiMetadataOps+0x1e90>
   3363c: 61 00 00 90  	adrp	x1, 0x3f000 <_ZN11ChiMetadata21InitializeMetadataOpsEP14ChiMetadataOps+0x54c>
   33648: 6d cb 30 36  	tbz	w13, #6, 0x34fb4 <_ZN11ChiMetadata21InitializeMetadataOpsEP14ChiMetadataOps+0x1e94>
   3364c: 62 00 00 90  	adrp	x2, 0x3f000 <_ZN11ChiMetadata21InitializeMetadataOpsEP14ChiMetadataOps+0x55c>
   3365c: 81 02 00 54  	b.ne	0x336ac <_ZN11ChiMetadata21InitializeMetadataOpsEP14ChiMetadataOps+0x58c>
   33660: d3 fe ff b0  	adrp	x19, 0xc000 <_ZN11ChiMetadata21InitializeMetadataOpsEP14ChiMetadataOps+0x4a4>
   3367c: e1 fe ff 90  	adrp	x1, 0xf000 <_ZN11ChiMetadata21InitializeMetadataOpsEP14ChiMetadataOps+0x4cc>
   33680: a2 fe ff d0  	adrp	x2, 0x9000 <_ZN11ChiMetadata21InitializeMetadataOpsEP14ChiMetadataOps+0x4b8>
   33684: e5 fe ff b0  	adrp	x5, 0x10000 <_ZN11ChiMetadata21InitializeMetadataOpsEP14ChiMetadataOps+0x4d8>
   33688: e6 fe ff 90  	adrp	x6, 0xf000 <_ZN11ChiMetadata21InitializeMetadataOpsEP14ChiMetadataOps+0x4d8>
   336ac: d3 fe ff b0  	adrp	x19, 0xc000 <_ZN11ChiMetadata21InitializeMetadataOpsEP14ChiMetadataOps+0x4f0>
   336c8: a1 fe ff b0  	adrp	x1, 0x8000 <_ZN11ChiMetadata21InitializeMetadataOpsEP14ChiMetadataOps+0x4fc>
   336d0: c0 fe ff d0  	adrp	x0, 0xd000 <_ZN11ChiMetadata21InitializeMetadataOpsEP14ChiMetadataOps+0x518>
   336d4: e3 fe ff b0  	adrp	x3, 0x10000 <_ZN11ChiMetadata21InitializeMetadataOpsEP14ChiMetadataOps+0x528>
   336d8: a5 fe ff b0  	adrp	x5, 0x8000 <_ZN11ChiMetadata21InitializeMetadataOpsEP14ChiMetadataOps+0x50c>
   336dc: e6 fe ff 90  	adrp	x6, 0xf000 <_ZN11ChiMetadata21InitializeMetadataOpsEP14ChiMetadataOps+0x52c>
   336f8: 2e 06 00 14  	b	0x34fb0 <_ZN11ChiMetadata21InitializeMetadataOpsEP14ChiMetadataOps+0x1e90>
   336fc: 63 00 00 90  	adrp	x3, 0x3f000 <_ZN11ChiMetadata21InitializeMetadataOpsEP14ChiMetadataOps+0x60c>
   33708: 6e c5 30 36  	tbz	w14, #6, 0x34fb4 <_ZN11ChiMetadata21InitializeMetadataOpsEP14ChiMetadataOps+0x1e94>
   3370c: 64 00 00 90  	adrp	x4, 0x3f000 <_ZN11ChiMetadata21InitializeMetadataOpsEP14ChiMetadataOps+0x61c>
   3371c: 81 02 00 54  	b.ne	0x3376c <_ZN11ChiMetadata21InitializeMetadataOpsEP14ChiMetadataOps+0x64c>
   33720: d3 fe ff b0  	adrp	x19, 0xc000 <_ZN11ChiMetadata21InitializeMetadataOpsEP14ChiMetadataOps+0x564>
   3373c: e1 fe ff 90  	adrp	x1, 0xf000 <_ZN11ChiMetadata21InitializeMetadataOpsEP14ChiMetadataOps+0x58c>
   33740: a2 fe ff d0  	adrp	x2, 0x9000 <_ZN11ChiMetadata21InitializeMetadataOpsEP14ChiMetadataOps+0x578>
   33744: e5 fe ff b0  	adrp	x5, 0x10000 <_ZN11ChiMetadata21InitializeMetadataOpsEP14ChiMetadataOps+0x598>
   33748: c6 fe ff d0  	adrp	x6, 0xd000 <_ZN11ChiMetadata21InitializeMetadataOpsEP14ChiMetadataOps+0x590>
   3376c: d3 fe ff b0  	adrp	x19, 0xc000 <_ZN11ChiMetadata21InitializeMetadataOpsEP14ChiMetadataOps+0x5b0>
   33788: a1 fe ff b0  	adrp	x1, 0x8000 <_ZN11ChiMetadata21InitializeMetadataOpsEP14ChiMetadataOps+0x5bc>
   33790: c0 fe ff d0  	adrp	x0, 0xd000 <_ZN11ChiMetadata21InitializeMetadataOpsEP14ChiMetadataOps+0x5d8>
   33794: e3 fe ff b0  	adrp	x3, 0x10000 <_ZN11ChiMetadata21InitializeMetadataOpsEP14ChiMetadataOps+0x5e8>
   33798: a5 fe ff b0  	adrp	x5, 0x8000 <_ZN11ChiMetadata21InitializeMetadataOpsEP14ChiMetadataOps+0x5cc>
   3379c: c6 fe ff d0  	adrp	x6, 0xd000 <_ZN11ChiMetadata21InitializeMetadataOpsEP14ChiMetadataOps+0x5e4>
   337b8: fe 05 00 14  	b	0x34fb0 <_ZN11ChiMetadata21InitializeMetadataOpsEP14ChiMetadataOps+0x1e90>
   337bc: 65 00 00 90  	adrp	x5, 0x3f000 <_ZN11ChiMetadata21InitializeMetadataOpsEP14ChiMetadataOps+0x6cc>
   337c8: 6f bf 30 36  	tbz	w15, #6, 0x34fb4 <_ZN11ChiMetadata21InitializeMetadataOpsEP14ChiMetadataOps+0x1e94>
   337cc: 66 00 00 90  	adrp	x6, 0x3f000 <_ZN11ChiMetadata21InitializeMetadataOpsEP14ChiMetadataOps+0x6dc>
   337dc: 81 02 00 54  	b.ne	0x3382c <_ZN11ChiMetadata21InitializeMetadataOpsEP14ChiMetadataOps+0x70c>
   337e0: d3 fe ff b0  	adrp	x19, 0xc000 <_ZN11ChiMetadata21InitializeMetadataOpsEP14ChiMetadataOps+0x624>
   337fc: e1 fe ff 90  	adrp	x1, 0xf000 <_ZN11ChiMetadata21InitializeMetadataOpsEP14ChiMetadataOps+0x64c>
   33800: a2 fe ff d0  	adrp	x2, 0x9000 <_ZN11ChiMetadata21InitializeMetadataOpsEP14ChiMetadataOps+0x638>
   33804: e5 fe ff b0  	adrp	x5, 0x10000 <_ZN11ChiMetadata21InitializeMetadataOpsEP14ChiMetadataOps+0x658>
   33808: a6 fe ff 90  	adrp	x6, 0x7000 <_ZN11ChiMetadata21InitializeMetadataOpsEP14ChiMetadataOps+0x638>
   3382c: d3 fe ff b0  	adrp	x19, 0xc000 <_ZN11ChiMetadata21InitializeMetadataOpsEP14ChiMetadataOps+0x670>
   33848: a1 fe ff b0  	adrp	x1, 0x8000 <_ZN11ChiMetadata21InitializeMetadataOpsEP14ChiMetadataOps+0x67c>
   33850: c0 fe ff d0  	adrp	x0, 0xd000 <_ZN11ChiMetadata21InitializeMetadataOpsEP14ChiMetadataOps+0x698>
   33854: e3 fe ff b0  	adrp	x3, 0x10000 <_ZN11ChiMetadata21InitializeMetadataOpsEP14ChiMetadataOps+0x6a8>
   33858: a5 fe ff b0  	adrp	x5, 0x8000 <_ZN11ChiMetadata21InitializeMetadataOpsEP14ChiMetadataOps+0x68c>
   3385c: a6 fe ff 90  	adrp	x6, 0x7000 <_ZN11ChiMetadata21InitializeMetadataOpsEP14ChiMetadataOps+0x68c>
   33878: ce 05 00 14  	b	0x34fb0 <_ZN11ChiMetadata21InitializeMetadataOpsEP14ChiMetadataOps+0x1e90>
   3387c: 67 00 00 90  	adrp	x7, 0x3f000 <_ZN11ChiMetadata21InitializeMetadataOpsEP14ChiMetadataOps+0x78c>
   33888: 70 b9 30 36  	tbz	w16, #6, 0x34fb4 <_ZN11ChiMetadata21InitializeMetadataOpsEP14ChiMetadataOps+0x1e94>
   3388c: 73 00 00 90  	adrp	x19, 0x3f000 <_ZN11ChiMetadata21InitializeMetadataOpsEP14ChiMetadataOps+0x79c>
   3389c: 81 02 00 54  	b.ne	0x338ec <_ZN11ChiMetadata21InitializeMetadataOpsEP14ChiMetadataOps+0x7cc>
   338a0: d3 fe ff b0  	adrp	x19, 0xc000 <_ZN11ChiMetadata21InitializeMetadataOpsEP14ChiMetadataOps+0x6e4>
   338bc: e1 fe ff 90  	adrp	x1, 0xf000 <_ZN11ChiMetadata21InitializeMetadataOpsEP14ChiMetadataOps+0x70c>
   338c0: a2 fe ff d0  	adrp	x2, 0x9000 <_ZN11ChiMetadata21InitializeMetadataOpsEP14ChiMetadataOps+0x6f8>
   338c4: e5 fe ff b0  	adrp	x5, 0x10000 <_ZN11ChiMetadata21InitializeMetadataOpsEP14ChiMetadataOps+0x718>
   338c8: c6 fe ff b0  	adrp	x6, 0xc000 <_ZN11ChiMetadata21InitializeMetadataOpsEP14ChiMetadataOps+0x70c>
   338ec: d3 fe ff b0  	adrp	x19, 0xc000 <_ZN11ChiMetadata21InitializeMetadataOpsEP14ChiMetadataOps+0x730>
   33908: a1 fe ff b0  	adrp	x1, 0x8000 <_ZN11ChiMetadata21InitializeMetadataOpsEP14ChiMetadataOps+0x73c>
   33910: c0 fe ff d0  	adrp	x0, 0xd000 <_ZN11ChiMetadata21InitializeMetadataOpsEP14ChiMetadataOps+0x758>
   33914: e3 fe ff b0  	adrp	x3, 0x10000 <_ZN11ChiMetadata21InitializeMetadataOpsEP14ChiMetadataOps+0x768>
   33918: a5 fe ff b0  	adrp	x5, 0x8000 <_ZN11ChiMetadata21InitializeMetadataOpsEP14ChiMetadataOps+0x74c>
   3391c: c6 fe ff b0  	adrp	x6, 0xc000 <_ZN11ChiMetadata21InitializeMetadataOpsEP14ChiMetadataOps+0x760>
   33938: 9e 05 00 14  	b	0x34fb0 <_ZN11ChiMetadata21InitializeMetadataOpsEP14ChiMetadataOps+0x1e90>
   3393c: 60 00 00 90  	adrp	x0, 0x3f000 <_ZN11ChiMetadata21InitializeMetadataOpsEP14ChiMetadataOps+0x84c>
   33948: 71 b3 30 36  	tbz	w17, #6, 0x34fb4 <_ZN11ChiMetadata21InitializeMetadataOpsEP14ChiMetadataOps+0x1e94>
   3394c: 68 00 00 90  	adrp	x8, 0x3f000 <_ZN11ChiMetadata21InitializeMetadataOpsEP14ChiMetadataOps+0x85c>
   3395c: 81 02 00 54  	b.ne	0x339ac <_ZN11ChiMetadata21InitializeMetadataOpsEP14ChiMetadataOps+0x88c>
   33960: d3 fe ff b0  	adrp	x19, 0xc000 <_ZN11ChiMetadata21InitializeMetadataOpsEP14ChiMetadataOps+0x7a4>
   3397c: e1 fe ff 90  	adrp	x1, 0xf000 <_ZN11ChiMetadata21InitializeMetadataOpsEP14ChiMetadataOps+0x7cc>
   33980: a2 fe ff d0  	adrp	x2, 0x9000 <_ZN11ChiMetadata21InitializeMetadataOpsEP14ChiMetadataOps+0x7b8>
   33984: e5 fe ff b0  	adrp	x5, 0x10000 <_ZN11ChiMetadata21InitializeMetadataOpsEP14ChiMetadataOps+0x7d8>
   33988: c6 fe ff b0  	adrp	x6, 0xc000 <_ZN11ChiMetadata21InitializeMetadataOpsEP14ChiMetadataOps+0x7cc>
   339ac: d3 fe ff b0  	adrp	x19, 0xc000 <_ZN11ChiMetadata21InitializeMetadataOpsEP14ChiMetadataOps+0x7f0>
   339c8: a1 fe ff b0  	adrp	x1, 0x8000 <_ZN11ChiMetadata21InitializeMetadataOpsEP14ChiMetadataOps+0x7fc>
   339d0: c0 fe ff d0  	adrp	x0, 0xd000 <_ZN11ChiMetadata21InitializeMetadataOpsEP14ChiMetadataOps+0x818>
   339d4: e3 fe ff b0  	adrp	x3, 0x10000 <_ZN11ChiMetadata21InitializeMetadataOpsEP14ChiMetadataOps+0x828>
   339d8: a5 fe ff b0  	adrp	x5, 0x8000 <_ZN11ChiMetadata21InitializeMetadataOpsEP14ChiMetadataOps+0x80c>
   339dc: c6 fe ff b0  	adrp	x6, 0xc000 <_ZN11ChiMetadata21InitializeMetadataOpsEP14ChiMetadataOps+0x820>
   339f8: 6e 05 00 14  	b	0x34fb0 <_ZN11ChiMetadata21InitializeMetadataOpsEP14ChiMetadataOps+0x1e90>
   339fc: 69 00 00 90  	adrp	x9, 0x3f000 <_ZN11ChiMetadata21InitializeMetadataOpsEP14ChiMetadataOps+0x90c>
   33a08: 62 ad 30 36  	tbz	w2, #6, 0x34fb4 <_ZN11ChiMetadata21InitializeMetadataOpsEP14ChiMetadataOps+0x1e94>
   33a0c: 6a 00 00 90  	adrp	x10, 0x3f000 <_ZN11ChiMetadata21InitializeMetadataOpsEP14ChiMetadataOps+0x91c>
   33a1c: 81 02 00 54  	b.ne	0x33a6c <_ZN11ChiMetadata21InitializeMetadataOpsEP14ChiMetadataOps+0x94c>
   33a20: d3 fe ff b0  	adrp	x19, 0xc000 <_ZN11ChiMetadata21InitializeMetadataOpsEP14ChiMetadataOps+0x864>
   33a3c: e1 fe ff 90  	adrp	x1, 0xf000 <_ZN11ChiMetadata21InitializeMetadataOpsEP14ChiMetadataOps+0x88c>
   33a40: a2 fe ff d0  	adrp	x2, 0x9000 <_ZN11ChiMetadata21InitializeMetadataOpsEP14ChiMetadataOps+0x878>
   33a44: e5 fe ff b0  	adrp	x5, 0x10000 <_ZN11ChiMetadata21InitializeMetadataOpsEP14ChiMetadataOps+0x898>
   33a48: e6 fe ff b0  	adrp	x6, 0x10000 <_ZN11ChiMetadata21InitializeMetadataOpsEP14ChiMetadataOps+0x89c>
   33a6c: d3 fe ff b0  	adrp	x19, 0xc000 <_ZN11ChiMetadata21InitializeMetadataOpsEP14ChiMetadataOps+0x8b0>
   33a88: a1 fe ff b0  	adrp	x1, 0x8000 <_ZN11ChiMetadata21InitializeMetadataOpsEP14ChiMetadataOps+0x8bc>
   33a90: c0 fe ff d0  	adrp	x0, 0xd000 <_ZN11ChiMetadata21InitializeMetadataOpsEP14ChiMetadataOps+0x8d8>
   33a94: e3 fe ff b0  	adrp	x3, 0x10000 <_ZN11ChiMetadata21InitializeMetadataOpsEP14ChiMetadataOps+0x8e8>
   33a98: a5 fe ff b0  	adrp	x5, 0x8000 <_ZN11ChiMetadata21InitializeMetadataOpsEP14ChiMetadataOps+0x8cc>
   33a9c: e6 fe ff b0  	adrp	x6, 0x10000 <_ZN11ChiMetadata21InitializeMetadataOpsEP14ChiMetadataOps+0x8f0>
   33ab8: 3e 05 00 14  	b	0x34fb0 <_ZN11ChiMetadata21InitializeMetadataOpsEP14ChiMetadataOps+0x1e90>
   33abc: 6b 00 00 90  	adrp	x11, 0x3f000 <_ZN11ChiMetadata21InitializeMetadataOpsEP14ChiMetadataOps+0x9cc>
   33ac8: 63 a7 30 36  	tbz	w3, #6, 0x34fb4 <_ZN11ChiMetadata21InitializeMetadataOpsEP14ChiMetadataOps+0x1e94>
   33acc: 6c 00 00 90  	adrp	x12, 0x3f000 <_ZN11ChiMetadata21InitializeMetadataOpsEP14ChiMetadataOps+0x9dc>
   33adc: 81 02 00 54  	b.ne	0x33b2c <_ZN11ChiMetadata21InitializeMetadataOpsEP14ChiMetadataOps+0xa0c>
   33ae0: d3 fe ff b0  	adrp	x19, 0xc000 <_ZN11ChiMetadata21InitializeMetadataOpsEP14ChiMetadataOps+0x924>
   33afc: e1 fe ff 90  	adrp	x1, 0xf000 <_ZN11ChiMetadata21InitializeMetadataOpsEP14ChiMetadataOps+0x94c>
   33b00: a2 fe ff d0  	adrp	x2, 0x9000 <_ZN11ChiMetadata21InitializeMetadataOpsEP14ChiMetadataOps+0x938>
   33b04: e5 fe ff b0  	adrp	x5, 0x10000 <_ZN11ChiMetadata21InitializeMetadataOpsEP14ChiMetadataOps+0x958>
   33b08: c6 fe ff d0  	adrp	x6, 0xd000 <_ZN11ChiMetadata21InitializeMetadataOpsEP14ChiMetadataOps+0x950>
   33b2c: d3 fe ff b0  	adrp	x19, 0xc000 <_ZN11ChiMetadata21InitializeMetadataOpsEP14ChiMetadataOps+0x970>
   33b48: a1 fe ff b0  	adrp	x1, 0x8000 <_ZN11ChiMetadata21InitializeMetadataOpsEP14ChiMetadataOps+0x97c>
   33b50: c0 fe ff d0  	adrp	x0, 0xd000 <_ZN11ChiMetadata21InitializeMetadataOpsEP14ChiMetadataOps+0x998>
   33b54: e3 fe ff b0  	adrp	x3, 0x10000 <_ZN11ChiMetadata21InitializeMetadataOpsEP14ChiMetadataOps+0x9a8>
   33b58: a5 fe ff b0  	adrp	x5, 0x8000 <_ZN11ChiMetadata21InitializeMetadataOpsEP14ChiMetadataOps+0x98c>
   33b5c: c6 fe ff d0  	adrp	x6, 0xd000 <_ZN11ChiMetadata21InitializeMetadataOpsEP14ChiMetadataOps+0x9a4>
   33b78: 0e 05 00 14  	b	0x34fb0 <_ZN11ChiMetadata21InitializeMetadataOpsEP14ChiMetadataOps+0x1e90>
   33b7c: 6d 00 00 90  	adrp	x13, 0x3f000 <_ZN11ChiMetadata21InitializeMetadataOpsEP14ChiMetadataOps+0xa8c>
   33b88: 65 a1 30 36  	tbz	w5, #6, 0x34fb4 <_ZN11ChiMetadata21InitializeMetadataOpsEP14ChiMetadataOps+0x1e94>
   33b8c: 6e 00 00 90  	adrp	x14, 0x3f000 <_ZN11ChiMetadata21InitializeMetadataOpsEP14ChiMetadataOps+0xa9c>
   33b9c: 81 02 00 54  	b.ne	0x33bec <_ZN11ChiMetadata21InitializeMetadataOpsEP14ChiMetadataOps+0xacc>
   33ba0: d3 fe ff b0  	adrp	x19, 0xc000 <_ZN11ChiMetadata21InitializeMetadataOpsEP14ChiMetadataOps+0x9e4>
   33bbc: e1 fe ff 90  	adrp	x1, 0xf000 <_ZN11ChiMetadata21InitializeMetadataOpsEP14ChiMetadataOps+0xa0c>
   33bc0: a2 fe ff d0  	adrp	x2, 0x9000 <_ZN11ChiMetadata21InitializeMetadataOpsEP14ChiMetadataOps+0x9f8>
   33bc4: e5 fe ff b0  	adrp	x5, 0x10000 <_ZN11ChiMetadata21InitializeMetadataOpsEP14ChiMetadataOps+0xa18>
   33bc8: a6 fe ff f0  	adrp	x6, 0xa000 <_ZN11ChiMetadata21InitializeMetadataOpsEP14ChiMetadataOps+0xa04>
   33bec: d3 fe ff b0  	adrp	x19, 0xc000 <_ZN11ChiMetadata21InitializeMetadataOpsEP14ChiMetadataOps+0xa30>
   33c08: a1 fe ff b0  	adrp	x1, 0x8000 <_ZN11ChiMetadata21InitializeMetadataOpsEP14ChiMetadataOps+0xa3c>
   33c10: c0 fe ff d0  	adrp	x0, 0xd000 <_ZN11ChiMetadata21InitializeMetadataOpsEP14ChiMetadataOps+0xa58>
   33c14: e3 fe ff b0  	adrp	x3, 0x10000 <_ZN11ChiMetadata21InitializeMetadataOpsEP14ChiMetadataOps+0xa68>
   33c18: a5 fe ff b0  	adrp	x5, 0x8000 <_ZN11ChiMetadata21InitializeMetadataOpsEP14ChiMetadataOps+0xa4c>
   33c1c: a6 fe ff f0  	adrp	x6, 0xa000 <_ZN11ChiMetadata21InitializeMetadataOpsEP14ChiMetadataOps+0xa58>
   33c38: de 04 00 14  	b	0x34fb0 <_ZN11ChiMetadata21InitializeMetadataOpsEP14ChiMetadataOps+0x1e90>
   33c3c: 6f 00 00 90  	adrp	x15, 0x3f000 <_ZN11ChiMetadata21InitializeMetadataOpsEP14ChiMetadataOps+0xb4c>
   33c48: 66 9b 30 36  	tbz	w6, #6, 0x34fb4 <_ZN11ChiMetadata21InitializeMetadataOpsEP14ChiMetadataOps+0x1e94>
   33c4c: 70 00 00 90  	adrp	x16, 0x3f000 <_ZN11ChiMetadata21InitializeMetadataOpsEP14ChiMetadataOps+0xb5c>
   33c5c: 81 02 00 54  	b.ne	0x33cac <_ZN11ChiMetadata21InitializeMetadataOpsEP14ChiMetadataOps+0xb8c>
   33c60: d3 fe ff b0  	adrp	x19, 0xc000 <_ZN11ChiMetadata21InitializeMetadataOpsEP14ChiMetadataOps+0xaa4>
   33c7c: e1 fe ff 90  	adrp	x1, 0xf000 <_ZN11ChiMetadata21InitializeMetadataOpsEP14ChiMetadataOps+0xacc>
   33c80: a2 fe ff d0  	adrp	x2, 0x9000 <_ZN11ChiMetadata21InitializeMetadataOpsEP14ChiMetadataOps+0xab8>
   33c84: e5 fe ff b0  	adrp	x5, 0x10000 <_ZN11ChiMetadata21InitializeMetadataOpsEP14ChiMetadataOps+0xad8>
   33c88: c6 fe ff 90  	adrp	x6, 0xb000 <_ZN11ChiMetadata21InitializeMetadataOpsEP14ChiMetadataOps+0xac8>
   33cac: d3 fe ff b0  	adrp	x19, 0xc000 <_ZN11ChiMetadata21InitializeMetadataOpsEP14ChiMetadataOps+0xaf0>
   33cc8: a1 fe ff b0  	adrp	x1, 0x8000 <_ZN11ChiMetadata21InitializeMetadataOpsEP14ChiMetadataOps+0xafc>
   33cd0: c0 fe ff d0  	adrp	x0, 0xd000 <_ZN11ChiMetadata21InitializeMetadataOpsEP14ChiMetadataOps+0xb18>
   33cd4: e3 fe ff b0  	adrp	x3, 0x10000 <_ZN11ChiMetadata21InitializeMetadataOpsEP14ChiMetadataOps+0xb28>
   33cd8: a5 fe ff b0  	adrp	x5, 0x8000 <_ZN11ChiMetadata21InitializeMetadataOpsEP14ChiMetadataOps+0xb0c>
   33cdc: c6 fe ff 90  	adrp	x6, 0xb000 <_ZN11ChiMetadata21InitializeMetadataOpsEP14ChiMetadataOps+0xb1c>
   33cf8: ae 04 00 14  	b	0x34fb0 <_ZN11ChiMetadata21InitializeMetadataOpsEP14ChiMetadataOps+0x1e90>
   33cfc: 71 00 00 90  	adrp	x17, 0x3f000 <_ZN11ChiMetadata21InitializeMetadataOpsEP14ChiMetadataOps+0xc0c>
   33d08: 67 95 30 36  	tbz	w7, #6, 0x34fb4 <_ZN11ChiMetadata21InitializeMetadataOpsEP14ChiMetadataOps+0x1e94>
   33d0c: 61 00 00 90  	adrp	x1, 0x3f000 <_ZN11ChiMetadata21InitializeMetadataOpsEP14ChiMetadataOps+0xc1c>
   33d1c: 81 02 00 54  	b.ne	0x33d6c <_ZN11ChiMetadata21InitializeMetadataOpsEP14ChiMetadataOps+0xc4c>
   33d20: d3 fe ff b0  	adrp	x19, 0xc000 <_ZN11ChiMetadata21InitializeMetadataOpsEP14ChiMetadataOps+0xb64>
   33d3c: e1 fe ff 90  	adrp	x1, 0xf000 <_ZN11ChiMetadata21InitializeMetadataOpsEP14ChiMetadataOps+0xb8c>
   33d40: a2 fe ff d0  	adrp	x2, 0x9000 <_ZN11ChiMetadata21InitializeMetadataOpsEP14ChiMetadataOps+0xb78>
   33d44: e5 fe ff b0  	adrp	x5, 0x10000 <_ZN11ChiMetadata21InitializeMetadataOpsEP14ChiMetadataOps+0xb98>
   33d48: e6 fe ff 90  	adrp	x6, 0xf000 <_ZN11ChiMetadata21InitializeMetadataOpsEP14ChiMetadataOps+0xb98>
   33d6c: d3 fe ff b0  	adrp	x19, 0xc000 <_ZN11ChiMetadata21InitializeMetadataOpsEP14ChiMetadataOps+0xbb0>
   33d88: a1 fe ff b0  	adrp	x1, 0x8000 <_ZN11ChiMetadata21InitializeMetadataOpsEP14ChiMetadataOps+0xbbc>
   33d90: c0 fe ff d0  	adrp	x0, 0xd000 <_ZN11ChiMetadata21InitializeMetadataOpsEP14ChiMetadataOps+0xbd8>
   33d94: e3 fe ff b0  	adrp	x3, 0x10000 <_ZN11ChiMetadata21InitializeMetadataOpsEP14ChiMetadataOps+0xbe8>
   33d98: a5 fe ff b0  	adrp	x5, 0x8000 <_ZN11ChiMetadata21InitializeMetadataOpsEP14ChiMetadataOps+0xbcc>
   33d9c: e6 fe ff 90  	adrp	x6, 0xf000 <_ZN11ChiMetadata21InitializeMetadataOpsEP14ChiMetadataOps+0xbec>
   33db8: 7e 04 00 14  	b	0x34fb0 <_ZN11ChiMetadata21InitializeMetadataOpsEP14ChiMetadataOps+0x1e90>
   33dbc: 62 00 00 90  	adrp	x2, 0x3f000 <_ZN11ChiMetadata21InitializeMetadataOpsEP14ChiMetadataOps+0xccc>
   33dc8: 60 8f 30 36  	tbz	w0, #6, 0x34fb4 <_ZN11ChiMetadata21InitializeMetadataOpsEP14ChiMetadataOps+0x1e94>
   33dcc: 63 00 00 90  	adrp	x3, 0x3f000 <_ZN11ChiMetadata21InitializeMetadataOpsEP14ChiMetadataOps+0xcdc>
   33ddc: 81 02 00 54  	b.ne	0x33e2c <_ZN11ChiMetadata21InitializeMetadataOpsEP14ChiMetadataOps+0xd0c>
   33de0: d3 fe ff b0  	adrp	x19, 0xc000 <_ZN11ChiMetadata21InitializeMetadataOpsEP14ChiMetadataOps+0xc24>
   33dfc: e1 fe ff 90  	adrp	x1, 0xf000 <_ZN11ChiMetadata21InitializeMetadataOpsEP14ChiMetadataOps+0xc4c>
   33e00: a2 fe ff d0  	adrp	x2, 0x9000 <_ZN11ChiMetadata21InitializeMetadataOpsEP14ChiMetadataOps+0xc38>
   33e04: e5 fe ff b0  	adrp	x5, 0x10000 <_ZN11ChiMetadata21InitializeMetadataOpsEP14ChiMetadataOps+0xc58>
   33e08: c6 fe ff f0  	adrp	x6, 0xe000 <_ZN11ChiMetadata21InitializeMetadataOpsEP14ChiMetadataOps+0xc54>
   33e2c: d3 fe ff b0  	adrp	x19, 0xc000 <_ZN11ChiMetadata21InitializeMetadataOpsEP14ChiMetadataOps+0xc70>
   33e48: a1 fe ff b0  	adrp	x1, 0x8000 <_ZN11ChiMetadata21InitializeMetadataOpsEP14ChiMetadataOps+0xc7c>
   33e50: c0 fe ff d0  	adrp	x0, 0xd000 <_ZN11ChiMetadata21InitializeMetadataOpsEP14ChiMetadataOps+0xc98>
   33e54: e3 fe ff b0  	adrp	x3, 0x10000 <_ZN11ChiMetadata21InitializeMetadataOpsEP14ChiMetadataOps+0xca8>
   33e58: a5 fe ff b0  	adrp	x5, 0x8000 <_ZN11ChiMetadata21InitializeMetadataOpsEP14ChiMetadataOps+0xc8c>
   33e5c: c6 fe ff f0  	adrp	x6, 0xe000 <_ZN11ChiMetadata21InitializeMetadataOpsEP14ChiMetadataOps+0xca8>
   33e78: 4e 04 00 14  	b	0x34fb0 <_ZN11ChiMetadata21InitializeMetadataOpsEP14ChiMetadataOps+0x1e90>
   33e7c: 64 00 00 90  	adrp	x4, 0x3f000 <_ZN11ChiMetadata21InitializeMetadataOpsEP14ChiMetadataOps+0xd8c>
   33e88: 61 89 30 36  	tbz	w1, #6, 0x34fb4 <_ZN11ChiMetadata21InitializeMetadataOpsEP14ChiMetadataOps+0x1e94>
   33e8c: 65 00 00 90  	adrp	x5, 0x3f000 <_ZN11ChiMetadata21InitializeMetadataOpsEP14ChiMetadataOps+0xd9c>
   33e9c: 81 02 00 54  	b.ne	0x33eec <_ZN11ChiMetadata21InitializeMetadataOpsEP14ChiMetadataOps+0xdcc>
   33ea0: d3 fe ff b0  	adrp	x19, 0xc000 <_ZN11ChiMetadata21InitializeMetadataOpsEP14ChiMetadataOps+0xce4>
   33ebc: e1 fe ff 90  	adrp	x1, 0xf000 <_ZN11ChiMetadata21InitializeMetadataOpsEP14ChiMetadataOps+0xd0c>
   33ec0: a2 fe ff d0  	adrp	x2, 0x9000 <_ZN11ChiMetadata21InitializeMetadataOpsEP14ChiMetadataOps+0xcf8>
   33ec4: e5 fe ff b0  	adrp	x5, 0x10000 <_ZN11ChiMetadata21InitializeMetadataOpsEP14ChiMetadataOps+0xd18>
   33ec8: a6 fe ff b0  	adrp	x6, 0x8000 <_ZN11ChiMetadata21InitializeMetadataOpsEP14ChiMetadataOps+0xcfc>
   33eec: d3 fe ff b0  	adrp	x19, 0xc000 <_ZN11ChiMetadata21InitializeMetadataOpsEP14ChiMetadataOps+0xd30>
   33f08: a1 fe ff b0  	adrp	x1, 0x8000 <_ZN11ChiMetadata21InitializeMetadataOpsEP14ChiMetadataOps+0xd3c>
   33f10: c0 fe ff d0  	adrp	x0, 0xd000 <_ZN11ChiMetadata21InitializeMetadataOpsEP14ChiMetadataOps+0xd58>
   33f14: e3 fe ff b0  	adrp	x3, 0x10000 <_ZN11ChiMetadata21InitializeMetadataOpsEP14ChiMetadataOps+0xd68>
   33f18: a5 fe ff b0  	adrp	x5, 0x8000 <_ZN11ChiMetadata21InitializeMetadataOpsEP14ChiMetadataOps+0xd4c>
   33f1c: a6 fe ff b0  	adrp	x6, 0x8000 <_ZN11ChiMetadata21InitializeMetadataOpsEP14ChiMetadataOps+0xd50>
   33f38: 1e 04 00 14  	b	0x34fb0 <_ZN11ChiMetadata21InitializeMetadataOpsEP14ChiMetadataOps+0x1e90>
   33f3c: 66 00 00 90  	adrp	x6, 0x3f000 <_ZN11ChiMetadata21InitializeMetadataOpsEP14ChiMetadataOps+0xe4c>
   33f48: 64 83 30 36  	tbz	w4, #6, 0x34fb4 <_ZN11ChiMetadata21InitializeMetadataOpsEP14ChiMetadataOps+0x1e94>
   33f4c: 67 00 00 90  	adrp	x7, 0x3f000 <_ZN11ChiMetadata21InitializeMetadataOpsEP14ChiMetadataOps+0xe5c>
   33f5c: 81 02 00 54  	b.ne	0x33fac <_ZN11ChiMetadata21InitializeMetadataOpsEP14ChiMetadataOps+0xe8c>
   33f60: d3 fe ff b0  	adrp	x19, 0xc000 <_ZN11ChiMetadata21InitializeMetadataOpsEP14ChiMetadataOps+0xda4>
   33f7c: e1 fe ff 90  	adrp	x1, 0xf000 <_ZN11ChiMetadata21InitializeMetadataOpsEP14ChiMetadataOps+0xdcc>
   33f80: a2 fe ff d0  	adrp	x2, 0x9000 <_ZN11ChiMetadata21InitializeMetadataOpsEP14ChiMetadataOps+0xdb8>
   33f84: e5 fe ff b0  	adrp	x5, 0x10000 <_ZN11ChiMetadata21InitializeMetadataOpsEP14ChiMetadataOps+0xdd8>
   33f88: e6 fe ff b0  	adrp	x6, 0x10000 <_ZN11ChiMetadata21InitializeMetadataOpsEP14ChiMetadataOps+0xddc>
   33fac: d3 fe ff b0  	adrp	x19, 0xc000 <_ZN11ChiMetadata21InitializeMetadataOpsEP14ChiMetadataOps+0xdf0>
   33fc8: a1 fe ff b0  	adrp	x1, 0x8000 <_ZN11ChiMetadata21InitializeMetadataOpsEP14ChiMetadataOps+0xdfc>
   33fd0: c0 fe ff d0  	adrp	x0, 0xd000 <_ZN11ChiMetadata21InitializeMetadataOpsEP14ChiMetadataOps+0xe18>
   33fd4: e3 fe ff b0  	adrp	x3, 0x10000 <_ZN11ChiMetadata21InitializeMetadataOpsEP14ChiMetadataOps+0xe28>
   33fd8: a5 fe ff b0  	adrp	x5, 0x8000 <_ZN11ChiMetadata21InitializeMetadataOpsEP14ChiMetadataOps+0xe0c>
   33fdc: e6 fe ff b0  	adrp	x6, 0x10000 <_ZN11ChiMetadata21InitializeMetadataOpsEP14ChiMetadataOps+0xe30>
   33ff8: ee 03 00 14  	b	0x34fb0 <_ZN11ChiMetadata21InitializeMetadataOpsEP14ChiMetadataOps+0x1e90>
   33ffc: 73 00 00 90  	adrp	x19, 0x3f000 <_ZN11ChiMetadata21InitializeMetadataOpsEP14ChiMetadataOps+0xf0c>
   34008: 68 7d 30 36  	tbz	w8, #6, 0x34fb4 <_ZN11ChiMetadata21InitializeMetadataOpsEP14ChiMetadataOps+0x1e94>
   3400c: 40 00 00 f0  	adrp	x0, 0x3f000 <_ZN11ChiMetadata21InitializeMetadataOpsEP14ChiMetadataOps+0xf18>
   3401c: 81 02 00 54  	b.ne	0x3406c <_ZN11ChiMetadata21InitializeMetadataOpsEP14ChiMetadataOps+0xf4c>
   34020: d3 fe ff 90  	adrp	x19, 0xc000 <_ZN11ChiMetadata21InitializeMetadataOpsEP14ChiMetadataOps+0xe60>
   3403c: c1 fe ff f0  	adrp	x1, 0xf000 <_ZN11ChiMetadata21InitializeMetadataOpsEP14ChiMetadataOps+0xe88>
   34040: a2 fe ff b0  	adrp	x2, 0x9000 <_ZN11ChiMetadata21InitializeMetadataOpsEP14ChiMetadataOps+0xe74>
   34044: e5 fe ff 90  	adrp	x5, 0x10000 <_ZN11ChiMetadata21InitializeMetadataOpsEP14ChiMetadataOps+0xe94>
   34048: a6 fe ff f0  	adrp	x6, 0xb000 <_ZN11ChiMetadata21InitializeMetadataOpsEP14ChiMetadataOps+0xe84>
   3406c: d3 fe ff 90  	adrp	x19, 0xc000 <_ZN11ChiMetadata21InitializeMetadataOpsEP14ChiMetadataOps+0xeac>
   34088: a1 fe ff 90  	adrp	x1, 0x8000 <_ZN11ChiMetadata21InitializeMetadataOpsEP14ChiMetadataOps+0xeb8>
   34090: c0 fe ff b0  	adrp	x0, 0xd000 <_ZN11ChiMetadata21InitializeMetadataOpsEP14ChiMetadataOps+0xed4>
   34094: e3 fe ff 90  	adrp	x3, 0x10000 <_ZN11ChiMetadata21InitializeMetadataOpsEP14ChiMetadataOps+0xee4>
   34098: a5 fe ff 90  	adrp	x5, 0x8000 <_ZN11ChiMetadata21InitializeMetadataOpsEP14ChiMetadataOps+0xec8>
   3409c: a6 fe ff f0  	adrp	x6, 0xb000 <_ZN11ChiMetadata21InitializeMetadataOpsEP14ChiMetadataOps+0xed8>
   340b8: be 03 00 14  	b	0x34fb0 <_ZN11ChiMetadata21InitializeMetadataOpsEP14ChiMetadataOps+0x1e90>
   340bc: 48 00 00 f0  	adrp	x8, 0x3f000 <_ZN11ChiMetadata21InitializeMetadataOpsEP14ChiMetadataOps+0xfc8>
   340c8: 69 77 30 36  	tbz	w9, #6, 0x34fb4 <_ZN11ChiMetadata21InitializeMetadataOpsEP14ChiMetadataOps+0x1e94>
   340cc: 49 00 00 f0  	adrp	x9, 0x3f000 <_ZN11ChiMetadata21InitializeMetadataOpsEP14ChiMetadataOps+0xfd8>
   340dc: 81 02 00 54  	b.ne	0x3412c <_ZN11ChiMetadata21InitializeMetadataOpsEP14ChiMetadataOps+0x100c>
   340e0: d3 fe ff 90  	adrp	x19, 0xc000 <_ZN11ChiMetadata21InitializeMetadataOpsEP14ChiMetadataOps+0xf20>
   340fc: c1 fe ff f0  	adrp	x1, 0xf000 <_ZN11ChiMetadata21InitializeMetadataOpsEP14ChiMetadataOps+0xf48>
   34100: a2 fe ff b0  	adrp	x2, 0x9000 <_ZN11ChiMetadata21InitializeMetadataOpsEP14ChiMetadataOps+0xf34>
   34104: e5 fe ff 90  	adrp	x5, 0x10000 <_ZN11ChiMetadata21InitializeMetadataOpsEP14ChiMetadataOps+0xf54>
   34108: a6 fe ff f0  	adrp	x6, 0xb000 <_ZN11ChiMetadata21InitializeMetadataOpsEP14ChiMetadataOps+0xf44>
   3412c: d3 fe ff 90  	adrp	x19, 0xc000 <_ZN11ChiMetadata21InitializeMetadataOpsEP14ChiMetadataOps+0xf6c>
   34148: a1 fe ff 90  	adrp	x1, 0x8000 <_ZN11ChiMetadata21InitializeMetadataOpsEP14ChiMetadataOps+0xf78>
   34150: c0 fe ff b0  	adrp	x0, 0xd000 <_ZN11ChiMetadata21InitializeMetadataOpsEP14ChiMetadataOps+0xf94>
   34154: e3 fe ff 90  	adrp	x3, 0x10000 <_ZN11ChiMetadata21InitializeMetadataOpsEP14ChiMetadataOps+0xfa4>
   34158: a5 fe ff 90  	adrp	x5, 0x8000 <_ZN11ChiMetadata21InitializeMetadataOpsEP14ChiMetadataOps+0xf88>
   3415c: a6 fe ff f0  	adrp	x6, 0xb000 <_ZN11ChiMetadata21InitializeMetadataOpsEP14ChiMetadataOps+0xf98>
   34178: 8e 03 00 14  	b	0x34fb0 <_ZN11ChiMetadata21InitializeMetadataOpsEP14ChiMetadataOps+0x1e90>
   3417c: 4a 00 00 f0  	adrp	x10, 0x3f000 <_ZN11ChiMetadata21InitializeMetadataOpsEP14ChiMetadataOps+0x1088>
   34188: 6a 71 30 36  	tbz	w10, #6, 0x34fb4 <_ZN11ChiMetadata21InitializeMetadataOpsEP14ChiMetadataOps+0x1e94>
   3418c: 4b 00 00 f0  	adrp	x11, 0x3f000 <_ZN11ChiMetadata21InitializeMetadataOpsEP14ChiMetadataOps+0x1098>
   3419c: 81 02 00 54  	b.ne	0x341ec <_ZN11ChiMetadata21InitializeMetadataOpsEP14ChiMetadataOps+0x10cc>
   341a0: d3 fe ff 90  	adrp	x19, 0xc000 <_ZN11ChiMetadata21InitializeMetadataOpsEP14ChiMetadataOps+0xfe0>
   341bc: c1 fe ff f0  	adrp	x1, 0xf000 <_ZN11ChiMetadata21InitializeMetadataOpsEP14ChiMetadataOps+0x1008>
   341c0: a2 fe ff b0  	adrp	x2, 0x9000 <_ZN11ChiMetadata21InitializeMetadataOpsEP14ChiMetadataOps+0xff4>
   341c4: e5 fe ff 90  	adrp	x5, 0x10000 <_ZN11ChiMetadata21InitializeMetadataOpsEP14ChiMetadataOps+0x1014>
   341c8: e6 fe ff 90  	adrp	x6, 0x10000 <_ZN11ChiMetadata21InitializeMetadataOpsEP14ChiMetadataOps+0x1018>
   341ec: d3 fe ff 90  	adrp	x19, 0xc000 <_ZN11ChiMetadata21InitializeMetadataOpsEP14ChiMetadataOps+0x102c>
   34208: a1 fe ff 90  	adrp	x1, 0x8000 <_ZN11ChiMetadata21InitializeMetadataOpsEP14ChiMetadataOps+0x1038>
   34210: c0 fe ff b0  	adrp	x0, 0xd000 <_ZN11ChiMetadata21InitializeMetadataOpsEP14ChiMetadataOps+0x1054>
   34214: e3 fe ff 90  	adrp	x3, 0x10000 <_ZN11ChiMetadata21InitializeMetadataOpsEP14ChiMetadataOps+0x1064>
   34218: a5 fe ff 90  	adrp	x5, 0x8000 <_ZN11ChiMetadata21InitializeMetadataOpsEP14ChiMetadataOps+0x1048>
   3421c: e6 fe ff 90  	adrp	x6, 0x10000 <_ZN11ChiMetadata21InitializeMetadataOpsEP14ChiMetadataOps+0x106c>
   34238: 5e 03 00 14  	b	0x34fb0 <_ZN11ChiMetadata21InitializeMetadataOpsEP14ChiMetadataOps+0x1e90>
   3423c: 4c 00 00 f0  	adrp	x12, 0x3f000 <_ZN11ChiMetadata21InitializeMetadataOpsEP14ChiMetadataOps+0x1148>
   34248: 6b 6b 30 36  	tbz	w11, #6, 0x34fb4 <_ZN11ChiMetadata21InitializeMetadataOpsEP14ChiMetadataOps+0x1e94>
   3424c: 4d 00 00 f0  	adrp	x13, 0x3f000 <_ZN11ChiMetadata21InitializeMetadataOpsEP14ChiMetadataOps+0x1158>
   3425c: 81 02 00 54  	b.ne	0x342ac <_ZN11ChiMetadata21InitializeMetadataOpsEP14ChiMetadataOps+0x118c>
   34260: d3 fe ff 90  	adrp	x19, 0xc000 <_ZN11ChiMetadata21InitializeMetadataOpsEP14ChiMetadataOps+0x10a0>
   3427c: c1 fe ff f0  	adrp	x1, 0xf000 <_ZN11ChiMetadata21InitializeMetadataOpsEP14ChiMetadataOps+0x10c8>
   34280: a2 fe ff b0  	adrp	x2, 0x9000 <_ZN11ChiMetadata21InitializeMetadataOpsEP14ChiMetadataOps+0x10b4>
   34284: e5 fe ff 90  	adrp	x5, 0x10000 <_ZN11ChiMetadata21InitializeMetadataOpsEP14ChiMetadataOps+0x10d4>
   34288: c6 fe ff f0  	adrp	x6, 0xf000 <_ZN11ChiMetadata21InitializeMetadataOpsEP14ChiMetadataOps+0x10d4>
   342ac: d3 fe ff 90  	adrp	x19, 0xc000 <_ZN11ChiMetadata21InitializeMetadataOpsEP14ChiMetadataOps+0x10ec>
   342c8: a1 fe ff 90  	adrp	x1, 0x8000 <_ZN11ChiMetadata21InitializeMetadataOpsEP14ChiMetadataOps+0x10f8>
   342d0: c0 fe ff b0  	adrp	x0, 0xd000 <_ZN11ChiMetadata21InitializeMetadataOpsEP14ChiMetadataOps+0x1114>
   342d4: e3 fe ff 90  	adrp	x3, 0x10000 <_ZN11ChiMetadata21InitializeMetadataOpsEP14ChiMetadataOps+0x1124>
   342d8: a5 fe ff 90  	adrp	x5, 0x8000 <_ZN11ChiMetadata21InitializeMetadataOpsEP14ChiMetadataOps+0x1108>
   342dc: c6 fe ff f0  	adrp	x6, 0xf000 <_ZN11ChiMetadata21InitializeMetadataOpsEP14ChiMetadataOps+0x1128>
   342f8: 2e 03 00 14  	b	0x34fb0 <_ZN11ChiMetadata21InitializeMetadataOpsEP14ChiMetadataOps+0x1e90>
   342fc: 4e 00 00 f0  	adrp	x14, 0x3f000 <_ZN11ChiMetadata21InitializeMetadataOpsEP14ChiMetadataOps+0x1208>
   34308: 6c 65 30 36  	tbz	w12, #6, 0x34fb4 <_ZN11ChiMetadata21InitializeMetadataOpsEP14ChiMetadataOps+0x1e94>
   3430c: 4f 00 00 f0  	adrp	x15, 0x3f000 <_ZN11ChiMetadata21InitializeMetadataOpsEP14ChiMetadataOps+0x1218>
   3431c: 81 02 00 54  	b.ne	0x3436c <_ZN11ChiMetadata21InitializeMetadataOpsEP14ChiMetadataOps+0x124c>
   34320: d3 fe ff 90  	adrp	x19, 0xc000 <_ZN11ChiMetadata21InitializeMetadataOpsEP14ChiMetadataOps+0x1160>
   3433c: c1 fe ff f0  	adrp	x1, 0xf000 <_ZN11ChiMetadata21InitializeMetadataOpsEP14ChiMetadataOps+0x1188>
   34340: a2 fe ff b0  	adrp	x2, 0x9000 <_ZN11ChiMetadata21InitializeMetadataOpsEP14ChiMetadataOps+0x1174>
   34344: e5 fe ff 90  	adrp	x5, 0x10000 <_ZN11ChiMetadata21InitializeMetadataOpsEP14ChiMetadataOps+0x1194>
   34348: c6 fe ff 90  	adrp	x6, 0xc000 <_ZN11ChiMetadata21InitializeMetadataOpsEP14ChiMetadataOps+0x1188>
   3436c: d3 fe ff 90  	adrp	x19, 0xc000 <_ZN11ChiMetadata21InitializeMetadataOpsEP14ChiMetadataOps+0x11ac>
   34388: a1 fe ff 90  	adrp	x1, 0x8000 <_ZN11ChiMetadata21InitializeMetadataOpsEP14ChiMetadataOps+0x11b8>
   34390: c0 fe ff b0  	adrp	x0, 0xd000 <_ZN11ChiMetadata21InitializeMetadataOpsEP14ChiMetadataOps+0x11d4>
   34394: e3 fe ff 90  	adrp	x3, 0x10000 <_ZN11ChiMetadata21InitializeMetadataOpsEP14ChiMetadataOps+0x11e4>
   34398: a5 fe ff 90  	adrp	x5, 0x8000 <_ZN11ChiMetadata21InitializeMetadataOpsEP14ChiMetadataOps+0x11c8>
   3439c: c6 fe ff 90  	adrp	x6, 0xc000 <_ZN11ChiMetadata21InitializeMetadataOpsEP14ChiMetadataOps+0x11dc>
   343b8: fe 02 00 14  	b	0x34fb0 <_ZN11ChiMetadata21InitializeMetadataOpsEP14ChiMetadataOps+0x1e90>
   343bc: 50 00 00 f0  	adrp	x16, 0x3f000 <_ZN11ChiMetadata21InitializeMetadataOpsEP14ChiMetadataOps+0x12c8>
   343c8: 6d 5f 30 36  	tbz	w13, #6, 0x34fb4 <_ZN11ChiMetadata21InitializeMetadataOpsEP14ChiMetadataOps+0x1e94>
   343cc: 51 00 00 f0  	adrp	x17, 0x3f000 <_ZN11ChiMetadata21InitializeMetadataOpsEP14ChiMetadataOps+0x12d8>
   343dc: 81 02 00 54  	b.ne	0x3442c <_ZN11ChiMetadata21InitializeMetadataOpsEP14ChiMetadataOps+0x130c>
   343e0: d3 fe ff 90  	adrp	x19, 0xc000 <_ZN11ChiMetadata21InitializeMetadataOpsEP14ChiMetadataOps+0x1220>
   343fc: c1 fe ff f0  	adrp	x1, 0xf000 <_ZN11ChiMetadata21InitializeMetadataOpsEP14ChiMetadataOps+0x1248>
   34400: a2 fe ff b0  	adrp	x2, 0x9000 <_ZN11ChiMetadata21InitializeMetadataOpsEP14ChiMetadataOps+0x1234>
   34404: e5 fe ff 90  	adrp	x5, 0x10000 <_ZN11ChiMetadata21InitializeMetadataOpsEP14ChiMetadataOps+0x1254>
   34408: a6 fe ff d0  	adrp	x6, 0xa000 <_ZN11ChiMetadata21InitializeMetadataOpsEP14ChiMetadataOps+0x1240>
   3442c: d3 fe ff 90  	adrp	x19, 0xc000 <_ZN11ChiMetadata21InitializeMetadataOpsEP14ChiMetadataOps+0x126c>
   34448: a1 fe ff 90  	adrp	x1, 0x8000 <_ZN11ChiMetadata21InitializeMetadataOpsEP14ChiMetadataOps+0x1278>
   34450: c0 fe ff b0  	adrp	x0, 0xd000 <_ZN11ChiMetadata21InitializeMetadataOpsEP14ChiMetadataOps+0x1294>
   34454: e3 fe ff 90  	adrp	x3, 0x10000 <_ZN11ChiMetadata21InitializeMetadataOpsEP14ChiMetadataOps+0x12a4>
   34458: a5 fe ff 90  	adrp	x5, 0x8000 <_ZN11ChiMetadata21InitializeMetadataOpsEP14ChiMetadataOps+0x1288>
   3445c: a6 fe ff d0  	adrp	x6, 0xa000 <_ZN11ChiMetadata21InitializeMetadataOpsEP14ChiMetadataOps+0x1294>
   34478: ce 02 00 14  	b	0x34fb0 <_ZN11ChiMetadata21InitializeMetadataOpsEP14ChiMetadataOps+0x1e90>
   3447c: 41 00 00 f0  	adrp	x1, 0x3f000 <_ZN11ChiMetadata21InitializeMetadataOpsEP14ChiMetadataOps+0x1388>
   34488: 6e 59 30 36  	tbz	w14, #6, 0x34fb4 <_ZN11ChiMetadata21InitializeMetadataOpsEP14ChiMetadataOps+0x1e94>
   3448c: 42 00 00 f0  	adrp	x2, 0x3f000 <_ZN11ChiMetadata21InitializeMetadataOpsEP14ChiMetadataOps+0x1398>
   3449c: 81 02 00 54  	b.ne	0x344ec <_ZN11ChiMetadata21InitializeMetadataOpsEP14ChiMetadataOps+0x13cc>
   344a0: d3 fe ff 90  	adrp	x19, 0xc000 <_ZN11ChiMetadata21InitializeMetadataOpsEP14ChiMetadataOps+0x12e0>
   344bc: c1 fe ff f0  	adrp	x1, 0xf000 <_ZN11ChiMetadata21InitializeMetadataOpsEP14ChiMetadataOps+0x1308>
   344c0: a2 fe ff b0  	adrp	x2, 0x9000 <_ZN11ChiMetadata21InitializeMetadataOpsEP14ChiMetadataOps+0x12f4>
   344c4: e5 fe ff 90  	adrp	x5, 0x10000 <_ZN11ChiMetadata21InitializeMetadataOpsEP14ChiMetadataOps+0x1314>
   344c8: a6 fe ff 90  	adrp	x6, 0x8000 <_ZN11ChiMetadata21InitializeMetadataOpsEP14ChiMetadataOps+0x12f8>
   344ec: d3 fe ff 90  	adrp	x19, 0xc000 <_ZN11ChiMetadata21InitializeMetadataOpsEP14ChiMetadataOps+0x132c>
   34508: a1 fe ff 90  	adrp	x1, 0x8000 <_ZN11ChiMetadata21InitializeMetadataOpsEP14ChiMetadataOps+0x1338>
   34510: c0 fe ff b0  	adrp	x0, 0xd000 <_ZN11ChiMetadata21InitializeMetadataOpsEP14ChiMetadataOps+0x1354>
   34514: e3 fe ff 90  	adrp	x3, 0x10000 <_ZN11ChiMetadata21InitializeMetadataOpsEP14ChiMetadataOps+0x1364>
   34518: a5 fe ff 90  	adrp	x5, 0x8000 <_ZN11ChiMetadata21InitializeMetadataOpsEP14ChiMetadataOps+0x1348>
   3451c: a6 fe ff 90  	adrp	x6, 0x8000 <_ZN11ChiMetadata21InitializeMetadataOpsEP14ChiMetadataOps+0x134c>
   34538: 9e 02 00 14  	b	0x34fb0 <_ZN11ChiMetadata21InitializeMetadataOpsEP14ChiMetadataOps+0x1e90>
   3453c: 43 00 00 f0  	adrp	x3, 0x3f000 <_ZN11ChiMetadata21InitializeMetadataOpsEP14ChiMetadataOps+0x1448>
   34548: 6f 53 30 36  	tbz	w15, #6, 0x34fb4 <_ZN11ChiMetadata21InitializeMetadataOpsEP14ChiMetadataOps+0x1e94>
   3454c: 44 00 00 f0  	adrp	x4, 0x3f000 <_ZN11ChiMetadata21InitializeMetadataOpsEP14ChiMetadataOps+0x1458>
   3455c: 81 02 00 54  	b.ne	0x345ac <_ZN11ChiMetadata21InitializeMetadataOpsEP14ChiMetadataOps+0x148c>
   34560: d3 fe ff 90  	adrp	x19, 0xc000 <_ZN11ChiMetadata21InitializeMetadataOpsEP14ChiMetadataOps+0x13a0>
   3457c: c1 fe ff f0  	adrp	x1, 0xf000 <_ZN11ChiMetadata21InitializeMetadataOpsEP14ChiMetadataOps+0x13c8>
   34580: a2 fe ff b0  	adrp	x2, 0x9000 <_ZN11ChiMetadata21InitializeMetadataOpsEP14ChiMetadataOps+0x13b4>
   34584: e5 fe ff 90  	adrp	x5, 0x10000 <_ZN11ChiMetadata21InitializeMetadataOpsEP14ChiMetadataOps+0x13d4>
   34588: a6 fe ff f0  	adrp	x6, 0xb000 <_ZN11ChiMetadata21InitializeMetadataOpsEP14ChiMetadataOps+0x13c4>
   345ac: d3 fe ff 90  	adrp	x19, 0xc000 <_ZN11ChiMetadata21InitializeMetadataOpsEP14ChiMetadataOps+0x13ec>
   345c8: a1 fe ff 90  	adrp	x1, 0x8000 <_ZN11ChiMetadata21InitializeMetadataOpsEP14ChiMetadataOps+0x13f8>
   345d0: c0 fe ff b0  	adrp	x0, 0xd000 <_ZN11ChiMetadata21InitializeMetadataOpsEP14ChiMetadataOps+0x1414>
   345d4: e3 fe ff 90  	adrp	x3, 0x10000 <_ZN11ChiMetadata21InitializeMetadataOpsEP14ChiMetadataOps+0x1424>
   345d8: a5 fe ff 90  	adrp	x5, 0x8000 <_ZN11ChiMetadata21InitializeMetadataOpsEP14ChiMetadataOps+0x1408>
   345dc: a6 fe ff f0  	adrp	x6, 0xb000 <_ZN11ChiMetadata21InitializeMetadataOpsEP14ChiMetadataOps+0x1418>
   345f8: 6e 02 00 14  	b	0x34fb0 <_ZN11ChiMetadata21InitializeMetadataOpsEP14ChiMetadataOps+0x1e90>
   345fc: 45 00 00 f0  	adrp	x5, 0x3f000 <_ZN11ChiMetadata21InitializeMetadataOpsEP14ChiMetadataOps+0x1508>
   34608: 70 4d 30 36  	tbz	w16, #6, 0x34fb4 <_ZN11ChiMetadata21InitializeMetadataOpsEP14ChiMetadataOps+0x1e94>
   3460c: 46 00 00 f0  	adrp	x6, 0x3f000 <_ZN11ChiMetadata21InitializeMetadataOpsEP14ChiMetadataOps+0x1518>
   3461c: 81 02 00 54  	b.ne	0x3466c <_ZN11ChiMetadata21InitializeMetadataOpsEP14ChiMetadataOps+0x154c>
   34620: d3 fe ff 90  	adrp	x19, 0xc000 <_ZN11ChiMetadata21InitializeMetadataOpsEP14ChiMetadataOps+0x1460>
   3463c: c1 fe ff f0  	adrp	x1, 0xf000 <_ZN11ChiMetadata21InitializeMetadataOpsEP14ChiMetadataOps+0x1488>
   34640: a2 fe ff b0  	adrp	x2, 0x9000 <_ZN11ChiMetadata21InitializeMetadataOpsEP14ChiMetadataOps+0x1474>
   34644: e5 fe ff 90  	adrp	x5, 0x10000 <_ZN11ChiMetadata21InitializeMetadataOpsEP14ChiMetadataOps+0x1494>
   34648: a6 fe ff 90  	adrp	x6, 0x8000 <_ZN11ChiMetadata21InitializeMetadataOpsEP14ChiMetadataOps+0x1478>
   3466c: d3 fe ff 90  	adrp	x19, 0xc000 <_ZN11ChiMetadata21InitializeMetadataOpsEP14ChiMetadataOps+0x14ac>
   34688: a1 fe ff 90  	adrp	x1, 0x8000 <_ZN11ChiMetadata21InitializeMetadataOpsEP14ChiMetadataOps+0x14b8>
   34690: c0 fe ff b0  	adrp	x0, 0xd000 <_ZN11ChiMetadata21InitializeMetadataOpsEP14ChiMetadataOps+0x14d4>
   34694: e3 fe ff 90  	adrp	x3, 0x10000 <_ZN11ChiMetadata21InitializeMetadataOpsEP14ChiMetadataOps+0x14e4>
   34698: a5 fe ff 90  	adrp	x5, 0x8000 <_ZN11ChiMetadata21InitializeMetadataOpsEP14ChiMetadataOps+0x14c8>
   3469c: a6 fe ff 90  	adrp	x6, 0x8000 <_ZN11ChiMetadata21InitializeMetadataOpsEP14ChiMetadataOps+0x14cc>
   346b8: 3e 02 00 14  	b	0x34fb0 <_ZN11ChiMetadata21InitializeMetadataOpsEP14ChiMetadataOps+0x1e90>
   346bc: 47 00 00 f0  	adrp	x7, 0x3f000 <_ZN11ChiMetadata21InitializeMetadataOpsEP14ChiMetadataOps+0x15c8>
   346c8: 71 47 30 36  	tbz	w17, #6, 0x34fb4 <_ZN11ChiMetadata21InitializeMetadataOpsEP14ChiMetadataOps+0x1e94>
   346cc: 53 00 00 f0  	adrp	x19, 0x3f000 <_ZN11ChiMetadata21InitializeMetadataOpsEP14ChiMetadataOps+0x15d8>
   346dc: 81 02 00 54  	b.ne	0x3472c <_ZN11ChiMetadata21InitializeMetadataOpsEP14ChiMetadataOps+0x160c>
   346e0: d3 fe ff 90  	adrp	x19, 0xc000 <_ZN11ChiMetadata21InitializeMetadataOpsEP14ChiMetadataOps+0x1520>
   346fc: c1 fe ff f0  	adrp	x1, 0xf000 <_ZN11ChiMetadata21InitializeMetadataOpsEP14ChiMetadataOps+0x1548>
   34700: a2 fe ff b0  	adrp	x2, 0x9000 <_ZN11ChiMetadata21InitializeMetadataOpsEP14ChiMetadataOps+0x1534>
   34704: e5 fe ff 90  	adrp	x5, 0x10000 <_ZN11ChiMetadata21InitializeMetadataOpsEP14ChiMetadataOps+0x1554>
   34708: 86 fe ff f0  	adrp	x6, 0x7000 <_ZN11ChiMetadata21InitializeMetadataOpsEP14ChiMetadataOps+0x1534>
   3472c: d3 fe ff 90  	adrp	x19, 0xc000 <_ZN11ChiMetadata21InitializeMetadataOpsEP14ChiMetadataOps+0x156c>
   34748: a1 fe ff 90  	adrp	x1, 0x8000 <_ZN11ChiMetadata21InitializeMetadataOpsEP14ChiMetadataOps+0x1578>
   34750: c0 fe ff b0  	adrp	x0, 0xd000 <_ZN11ChiMetadata21InitializeMetadataOpsEP14ChiMetadataOps+0x1594>
   34754: e3 fe ff 90  	adrp	x3, 0x10000 <_ZN11ChiMetadata21InitializeMetadataOpsEP14ChiMetadataOps+0x15a4>
   34758: a5 fe ff 90  	adrp	x5, 0x8000 <_ZN11ChiMetadata21InitializeMetadataOpsEP14ChiMetadataOps+0x1588>
   3475c: 86 fe ff f0  	adrp	x6, 0x7000 <_ZN11ChiMetadata21InitializeMetadataOpsEP14ChiMetadataOps+0x1588>
   34778: 0e 02 00 14  	b	0x34fb0 <_ZN11ChiMetadata21InitializeMetadataOpsEP14ChiMetadataOps+0x1e90>
   3477c: 40 00 00 f0  	adrp	x0, 0x3f000 <_ZN11ChiMetadata21InitializeMetadataOpsEP14ChiMetadataOps+0x1688>
   34788: 62 41 30 36  	tbz	w2, #6, 0x34fb4 <_ZN11ChiMetadata21InitializeMetadataOpsEP14ChiMetadataOps+0x1e94>
   3478c: 48 00 00 f0  	adrp	x8, 0x3f000 <_ZN11ChiMetadata21InitializeMetadataOpsEP14ChiMetadataOps+0x1698>
   3479c: 81 02 00 54  	b.ne	0x347ec <_ZN11ChiMetadata21InitializeMetadataOpsEP14ChiMetadataOps+0x16cc>
   347a0: d3 fe ff 90  	adrp	x19, 0xc000 <_ZN11ChiMetadata21InitializeMetadataOpsEP14ChiMetadataOps+0x15e0>
   347bc: c1 fe ff f0  	adrp	x1, 0xf000 <_ZN11ChiMetadata21InitializeMetadataOpsEP14ChiMetadataOps+0x1608>
   347c0: a2 fe ff b0  	adrp	x2, 0x9000 <_ZN11ChiMetadata21InitializeMetadataOpsEP14ChiMetadataOps+0x15f4>
   347c4: e5 fe ff 90  	adrp	x5, 0x10000 <_ZN11ChiMetadata21InitializeMetadataOpsEP14ChiMetadataOps+0x1614>
   347c8: a6 fe ff 90  	adrp	x6, 0x8000 <_ZN11ChiMetadata21InitializeMetadataOpsEP14ChiMetadataOps+0x15f8>
   347ec: d3 fe ff 90  	adrp	x19, 0xc000 <_ZN11ChiMetadata21InitializeMetadataOpsEP14ChiMetadataOps+0x162c>
   34808: a1 fe ff 90  	adrp	x1, 0x8000 <_ZN11ChiMetadata21InitializeMetadataOpsEP14ChiMetadataOps+0x1638>
   34810: c0 fe ff b0  	adrp	x0, 0xd000 <_ZN11ChiMetadata21InitializeMetadataOpsEP14ChiMetadataOps+0x1654>
   34814: e3 fe ff 90  	adrp	x3, 0x10000 <_ZN11ChiMetadata21InitializeMetadataOpsEP14ChiMetadataOps+0x1664>
   34818: a5 fe ff 90  	adrp	x5, 0x8000 <_ZN11ChiMetadata21InitializeMetadataOpsEP14ChiMetadataOps+0x1648>
   3481c: a6 fe ff 90  	adrp	x6, 0x8000 <_ZN11ChiMetadata21InitializeMetadataOpsEP14ChiMetadataOps+0x164c>
   34838: de 01 00 14  	b	0x34fb0 <_ZN11ChiMetadata21InitializeMetadataOpsEP14ChiMetadataOps+0x1e90>
   3483c: 49 00 00 f0  	adrp	x9, 0x3f000 <_ZN11ChiMetadata21InitializeMetadataOpsEP14ChiMetadataOps+0x1748>
   34848: 63 3b 30 36  	tbz	w3, #6, 0x34fb4 <_ZN11ChiMetadata21InitializeMetadataOpsEP14ChiMetadataOps+0x1e94>
   3484c: 4a 00 00 f0  	adrp	x10, 0x3f000 <_ZN11ChiMetadata21InitializeMetadataOpsEP14ChiMetadataOps+0x1758>
   3485c: 81 02 00 54  	b.ne	0x348ac <_ZN11ChiMetadata21InitializeMetadataOpsEP14ChiMetadataOps+0x178c>
   34860: d3 fe ff 90  	adrp	x19, 0xc000 <_ZN11ChiMetadata21InitializeMetadataOpsEP14ChiMetadataOps+0x16a0>
   3487c: c1 fe ff f0  	adrp	x1, 0xf000 <_ZN11ChiMetadata21InitializeMetadataOpsEP14ChiMetadataOps+0x16c8>
   34880: a2 fe ff b0  	adrp	x2, 0x9000 <_ZN11ChiMetadata21InitializeMetadataOpsEP14ChiMetadataOps+0x16b4>
   34884: e5 fe ff 90  	adrp	x5, 0x10000 <_ZN11ChiMetadata21InitializeMetadataOpsEP14ChiMetadataOps+0x16d4>
   34888: a6 fe ff 90  	adrp	x6, 0x8000 <_ZN11ChiMetadata21InitializeMetadataOpsEP14ChiMetadataOps+0x16b8>
   348ac: d3 fe ff 90  	adrp	x19, 0xc000 <_ZN11ChiMetadata21InitializeMetadataOpsEP14ChiMetadataOps+0x16ec>
   348c8: a1 fe ff 90  	adrp	x1, 0x8000 <_ZN11ChiMetadata21InitializeMetadataOpsEP14ChiMetadataOps+0x16f8>
   348d0: c0 fe ff b0  	adrp	x0, 0xd000 <_ZN11ChiMetadata21InitializeMetadataOpsEP14ChiMetadataOps+0x1714>
   348d4: e3 fe ff 90  	adrp	x3, 0x10000 <_ZN11ChiMetadata21InitializeMetadataOpsEP14ChiMetadataOps+0x1724>
   348d8: a5 fe ff 90  	adrp	x5, 0x8000 <_ZN11ChiMetadata21InitializeMetadataOpsEP14ChiMetadataOps+0x1708>
   348dc: a6 fe ff 90  	adrp	x6, 0x8000 <_ZN11ChiMetadata21InitializeMetadataOpsEP14ChiMetadataOps+0x170c>
   348f8: ae 01 00 14  	b	0x34fb0 <_ZN11ChiMetadata21InitializeMetadataOpsEP14ChiMetadataOps+0x1e90>
   348fc: 4b 00 00 f0  	adrp	x11, 0x3f000 <_ZN11ChiMetadata21InitializeMetadataOpsEP14ChiMetadataOps+0x1808>
   34908: 65 35 30 36  	tbz	w5, #6, 0x34fb4 <_ZN11ChiMetadata21InitializeMetadataOpsEP14ChiMetadataOps+0x1e94>
   3490c: 4c 00 00 f0  	adrp	x12, 0x3f000 <_ZN11ChiMetadata21InitializeMetadataOpsEP14ChiMetadataOps+0x1818>
   3491c: 81 02 00 54  	b.ne	0x3496c <_ZN11ChiMetadata21InitializeMetadataOpsEP14ChiMetadataOps+0x184c>
   34920: d3 fe ff 90  	adrp	x19, 0xc000 <_ZN11ChiMetadata21InitializeMetadataOpsEP14ChiMetadataOps+0x1760>
   3493c: c1 fe ff f0  	adrp	x1, 0xf000 <_ZN11ChiMetadata21InitializeMetadataOpsEP14ChiMetadataOps+0x1788>
   34940: a2 fe ff b0  	adrp	x2, 0x9000 <_ZN11ChiMetadata21InitializeMetadataOpsEP14ChiMetadataOps+0x1774>
   34944: e5 fe ff 90  	adrp	x5, 0x10000 <_ZN11ChiMetadata21InitializeMetadataOpsEP14ChiMetadataOps+0x1794>
   34948: c6 fe ff d0  	adrp	x6, 0xe000 <_ZN11ChiMetadata21InitializeMetadataOpsEP14ChiMetadataOps+0x1790>
   3496c: d3 fe ff 90  	adrp	x19, 0xc000 <_ZN11ChiMetadata21InitializeMetadataOpsEP14ChiMetadataOps+0x17ac>
   34988: a1 fe ff 90  	adrp	x1, 0x8000 <_ZN11ChiMetadata21InitializeMetadataOpsEP14ChiMetadataOps+0x17b8>
   34990: c0 fe ff b0  	adrp	x0, 0xd000 <_ZN11ChiMetadata21InitializeMetadataOpsEP14ChiMetadataOps+0x17d4>
   34994: e3 fe ff 90  	adrp	x3, 0x10000 <_ZN11ChiMetadata21InitializeMetadataOpsEP14ChiMetadataOps+0x17e4>
   34998: a5 fe ff 90  	adrp	x5, 0x8000 <_ZN11ChiMetadata21InitializeMetadataOpsEP14ChiMetadataOps+0x17c8>
   3499c: c6 fe ff d0  	adrp	x6, 0xe000 <_ZN11ChiMetadata21InitializeMetadataOpsEP14ChiMetadataOps+0x17e4>
   349b8: 7e 01 00 14  	b	0x34fb0 <_ZN11ChiMetadata21InitializeMetadataOpsEP14ChiMetadataOps+0x1e90>
   349bc: 4d 00 00 f0  	adrp	x13, 0x3f000 <_ZN11ChiMetadata21InitializeMetadataOpsEP14ChiMetadataOps+0x18c8>
   349c8: 66 2f 30 36  	tbz	w6, #6, 0x34fb4 <_ZN11ChiMetadata21InitializeMetadataOpsEP14ChiMetadataOps+0x1e94>
   349cc: 4e 00 00 f0  	adrp	x14, 0x3f000 <_ZN11ChiMetadata21InitializeMetadataOpsEP14ChiMetadataOps+0x18d8>
   349dc: 81 02 00 54  	b.ne	0x34a2c <_ZN11ChiMetadata21InitializeMetadataOpsEP14ChiMetadataOps+0x190c>
   349e0: d3 fe ff 90  	adrp	x19, 0xc000 <_ZN11ChiMetadata21InitializeMetadataOpsEP14ChiMetadataOps+0x1820>
   349fc: c1 fe ff f0  	adrp	x1, 0xf000 <_ZN11ChiMetadata21InitializeMetadataOpsEP14ChiMetadataOps+0x1848>
   34a00: a2 fe ff b0  	adrp	x2, 0x9000 <_ZN11ChiMetadata21InitializeMetadataOpsEP14ChiMetadataOps+0x1834>
   34a04: e5 fe ff 90  	adrp	x5, 0x10000 <_ZN11ChiMetadata21InitializeMetadataOpsEP14ChiMetadataOps+0x1854>
   34a08: a6 fe ff b0  	adrp	x6, 0x9000 <_ZN11ChiMetadata21InitializeMetadataOpsEP14ChiMetadataOps+0x183c>
   34a2c: d3 fe ff 90  	adrp	x19, 0xc000 <_ZN11ChiMetadata21InitializeMetadataOpsEP14ChiMetadataOps+0x186c>
   34a48: a1 fe ff 90  	adrp	x1, 0x8000 <_ZN11ChiMetadata21InitializeMetadataOpsEP14ChiMetadataOps+0x1878>
   34a50: c0 fe ff b0  	adrp	x0, 0xd000 <_ZN11ChiMetadata21InitializeMetadataOpsEP14ChiMetadataOps+0x1894>
   34a54: e3 fe ff 90  	adrp	x3, 0x10000 <_ZN11ChiMetadata21InitializeMetadataOpsEP14ChiMetadataOps+0x18a4>
   34a58: a5 fe ff 90  	adrp	x5, 0x8000 <_ZN11ChiMetadata21InitializeMetadataOpsEP14ChiMetadataOps+0x1888>
   34a5c: a6 fe ff b0  	adrp	x6, 0x9000 <_ZN11ChiMetadata21InitializeMetadataOpsEP14ChiMetadataOps+0x1890>
   34a78: 4e 01 00 14  	b	0x34fb0 <_ZN11ChiMetadata21InitializeMetadataOpsEP14ChiMetadataOps+0x1e90>
   34a7c: 4f 00 00 f0  	adrp	x15, 0x3f000 <_ZN11ChiMetadata21InitializeMetadataOpsEP14ChiMetadataOps+0x1988>
   34a88: 67 29 30 36  	tbz	w7, #6, 0x34fb4 <_ZN11ChiMetadata21InitializeMetadataOpsEP14ChiMetadataOps+0x1e94>
   34a8c: 50 00 00 f0  	adrp	x16, 0x3f000 <_ZN11ChiMetadata21InitializeMetadataOpsEP14ChiMetadataOps+0x1998>
   34a9c: 81 02 00 54  	b.ne	0x34aec <_ZN11ChiMetadata21InitializeMetadataOpsEP14ChiMetadataOps+0x19cc>
   34aa0: d3 fe ff 90  	adrp	x19, 0xc000 <_ZN11ChiMetadata21InitializeMetadataOpsEP14ChiMetadataOps+0x18e0>
   34abc: c1 fe ff f0  	adrp	x1, 0xf000 <_ZN11ChiMetadata21InitializeMetadataOpsEP14ChiMetadataOps+0x1908>
   34ac0: a2 fe ff b0  	adrp	x2, 0x9000 <_ZN11ChiMetadata21InitializeMetadataOpsEP14ChiMetadataOps+0x18f4>
   34ac4: e5 fe ff 90  	adrp	x5, 0x10000 <_ZN11ChiMetadata21InitializeMetadataOpsEP14ChiMetadataOps+0x1914>
   34ac8: a6 fe ff 90  	adrp	x6, 0x8000 <_ZN11ChiMetadata21InitializeMetadataOpsEP14ChiMetadataOps+0x18f8>
   34aec: d3 fe ff 90  	adrp	x19, 0xc000 <_ZN11ChiMetadata21InitializeMetadataOpsEP14ChiMetadataOps+0x192c>
   34b08: a1 fe ff 90  	adrp	x1, 0x8000 <_ZN11ChiMetadata21InitializeMetadataOpsEP14ChiMetadataOps+0x1938>
   34b10: c0 fe ff b0  	adrp	x0, 0xd000 <_ZN11ChiMetadata21InitializeMetadataOpsEP14ChiMetadataOps+0x1954>
   34b14: e3 fe ff 90  	adrp	x3, 0x10000 <_ZN11ChiMetadata21InitializeMetadataOpsEP14ChiMetadataOps+0x1964>
   34b18: a5 fe ff 90  	adrp	x5, 0x8000 <_ZN11ChiMetadata21InitializeMetadataOpsEP14ChiMetadataOps+0x1948>
   34b1c: a6 fe ff 90  	adrp	x6, 0x8000 <_ZN11ChiMetadata21InitializeMetadataOpsEP14ChiMetadataOps+0x194c>
   34b38: 1e 01 00 14  	b	0x34fb0 <_ZN11ChiMetadata21InitializeMetadataOpsEP14ChiMetadataOps+0x1e90>
   34b3c: 51 00 00 f0  	adrp	x17, 0x3f000 <_ZN11ChiMetadata21InitializeMetadataOpsEP14ChiMetadataOps+0x1a48>
   34b48: 60 23 30 36  	tbz	w0, #6, 0x34fb4 <_ZN11ChiMetadata21InitializeMetadataOpsEP14ChiMetadataOps+0x1e94>
   34b4c: 41 00 00 f0  	adrp	x1, 0x3f000 <_ZN11ChiMetadata21InitializeMetadataOpsEP14ChiMetadataOps+0x1a58>
   34b5c: 81 02 00 54  	b.ne	0x34bac <_ZN11ChiMetadata21InitializeMetadataOpsEP14ChiMetadataOps+0x1a8c>
   34b60: d3 fe ff 90  	adrp	x19, 0xc000 <_ZN11ChiMetadata21InitializeMetadataOpsEP14ChiMetadataOps+0x19a0>
   34b7c: c1 fe ff f0  	adrp	x1, 0xf000 <_ZN11ChiMetadata21InitializeMetadataOpsEP14ChiMetadataOps+0x19c8>
   34b80: a2 fe ff b0  	adrp	x2, 0x9000 <_ZN11ChiMetadata21InitializeMetadataOpsEP14ChiMetadataOps+0x19b4>
   34b84: e5 fe ff 90  	adrp	x5, 0x10000 <_ZN11ChiMetadata21InitializeMetadataOpsEP14ChiMetadataOps+0x19d4>
   34b88: a6 fe ff b0  	adrp	x6, 0x9000 <_ZN11ChiMetadata21InitializeMetadataOpsEP14ChiMetadataOps+0x19bc>
   34bac: d3 fe ff 90  	adrp	x19, 0xc000 <_ZN11ChiMetadata21InitializeMetadataOpsEP14ChiMetadataOps+0x19ec>
   34bc8: a1 fe ff 90  	adrp	x1, 0x8000 <_ZN11ChiMetadata21InitializeMetadataOpsEP14ChiMetadataOps+0x19f8>
   34bd0: c0 fe ff b0  	adrp	x0, 0xd000 <_ZN11ChiMetadata21InitializeMetadataOpsEP14ChiMetadataOps+0x1a14>
   34bd4: e3 fe ff 90  	adrp	x3, 0x10000 <_ZN11ChiMetadata21InitializeMetadataOpsEP14ChiMetadataOps+0x1a24>
   34bd8: a5 fe ff 90  	adrp	x5, 0x8000 <_ZN11ChiMetadata21InitializeMetadataOpsEP14ChiMetadataOps+0x1a08>
   34bdc: a6 fe ff b0  	adrp	x6, 0x9000 <_ZN11ChiMetadata21InitializeMetadataOpsEP14ChiMetadataOps+0x1a10>
   34bf8: ee 00 00 14  	b	0x34fb0 <_ZN11ChiMetadata21InitializeMetadataOpsEP14ChiMetadataOps+0x1e90>
   34bfc: 42 00 00 f0  	adrp	x2, 0x3f000 <_ZN11ChiMetadata21InitializeMetadataOpsEP14ChiMetadataOps+0x1b08>
   34c08: 61 1d 30 36  	tbz	w1, #6, 0x34fb4 <_ZN11ChiMetadata21InitializeMetadataOpsEP14ChiMetadataOps+0x1e94>
   34c0c: 43 00 00 f0  	adrp	x3, 0x3f000 <_ZN11ChiMetadata21InitializeMetadataOpsEP14ChiMetadataOps+0x1b18>
   34c1c: 81 02 00 54  	b.ne	0x34c6c <_ZN11ChiMetadata21InitializeMetadataOpsEP14ChiMetadataOps+0x1b4c>
   34c20: d3 fe ff 90  	adrp	x19, 0xc000 <_ZN11ChiMetadata21InitializeMetadataOpsEP14ChiMetadataOps+0x1a60>
   34c3c: c1 fe ff f0  	adrp	x1, 0xf000 <_ZN11ChiMetadata21InitializeMetadataOpsEP14ChiMetadataOps+0x1a88>
   34c40: a2 fe ff b0  	adrp	x2, 0x9000 <_ZN11ChiMetadata21InitializeMetadataOpsEP14ChiMetadataOps+0x1a74>
   34c44: e5 fe ff 90  	adrp	x5, 0x10000 <_ZN11ChiMetadata21InitializeMetadataOpsEP14ChiMetadataOps+0x1a94>
   34c48: c6 fe ff b0  	adrp	x6, 0xd000 <_ZN11ChiMetadata21InitializeMetadataOpsEP14ChiMetadataOps+0x1a8c>
   34c6c: d3 fe ff 90  	adrp	x19, 0xc000 <_ZN11ChiMetadata21InitializeMetadataOpsEP14ChiMetadataOps+0x1aac>
   34c88: a1 fe ff 90  	adrp	x1, 0x8000 <_ZN11ChiMetadata21InitializeMetadataOpsEP14ChiMetadataOps+0x1ab8>
   34c90: c0 fe ff b0  	adrp	x0, 0xd000 <_ZN11ChiMetadata21InitializeMetadataOpsEP14ChiMetadataOps+0x1ad4>
   34c94: e3 fe ff 90  	adrp	x3, 0x10000 <_ZN11ChiMetadata21InitializeMetadataOpsEP14ChiMetadataOps+0x1ae4>
   34c98: a5 fe ff 90  	adrp	x5, 0x8000 <_ZN11ChiMetadata21InitializeMetadataOpsEP14ChiMetadataOps+0x1ac8>
   34c9c: c6 fe ff b0  	adrp	x6, 0xd000 <_ZN11ChiMetadata21InitializeMetadataOpsEP14ChiMetadataOps+0x1ae0>
   34cb8: be 00 00 14  	b	0x34fb0 <_ZN11ChiMetadata21InitializeMetadataOpsEP14ChiMetadataOps+0x1e90>
   34cbc: 44 00 00 f0  	adrp	x4, 0x3f000 <_ZN11ChiMetadata21InitializeMetadataOpsEP14ChiMetadataOps+0x1bc8>
   34cc8: 64 17 30 36  	tbz	w4, #6, 0x34fb4 <_ZN11ChiMetadata21InitializeMetadataOpsEP14ChiMetadataOps+0x1e94>
   34ccc: 45 00 00 f0  	adrp	x5, 0x3f000 <_ZN11ChiMetadata21InitializeMetadataOpsEP14ChiMetadataOps+0x1bd8>
   34cdc: 81 02 00 54  	b.ne	0x34d2c <_ZN11ChiMetadata21InitializeMetadataOpsEP14ChiMetadataOps+0x1c0c>
   34ce0: d3 fe ff 90  	adrp	x19, 0xc000 <_ZN11ChiMetadata21InitializeMetadataOpsEP14ChiMetadataOps+0x1b20>
   34cfc: c1 fe ff f0  	adrp	x1, 0xf000 <_ZN11ChiMetadata21InitializeMetadataOpsEP14ChiMetadataOps+0x1b48>
   34d00: a2 fe ff b0  	adrp	x2, 0x9000 <_ZN11ChiMetadata21InitializeMetadataOpsEP14ChiMetadataOps+0x1b34>
   34d04: e5 fe ff 90  	adrp	x5, 0x10000 <_ZN11ChiMetadata21InitializeMetadataOpsEP14ChiMetadataOps+0x1b54>
   34d08: c6 fe ff d0  	adrp	x6, 0xe000 <_ZN11ChiMetadata21InitializeMetadataOpsEP14ChiMetadataOps+0x1b50>
   34d2c: d3 fe ff 90  	adrp	x19, 0xc000 <_ZN11ChiMetadata21InitializeMetadataOpsEP14ChiMetadataOps+0x1b6c>
   34d48: a1 fe ff 90  	adrp	x1, 0x8000 <_ZN11ChiMetadata21InitializeMetadataOpsEP14ChiMetadataOps+0x1b78>
   34d50: c0 fe ff b0  	adrp	x0, 0xd000 <_ZN11ChiMetadata21InitializeMetadataOpsEP14ChiMetadataOps+0x1b94>
   34d54: e3 fe ff 90  	adrp	x3, 0x10000 <_ZN11ChiMetadata21InitializeMetadataOpsEP14ChiMetadataOps+0x1ba4>
   34d58: a5 fe ff 90  	adrp	x5, 0x8000 <_ZN11ChiMetadata21InitializeMetadataOpsEP14ChiMetadataOps+0x1b88>
   34d5c: c6 fe ff d0  	adrp	x6, 0xe000 <_ZN11ChiMetadata21InitializeMetadataOpsEP14ChiMetadataOps+0x1ba4>
   34d78: 8e 00 00 14  	b	0x34fb0 <_ZN11ChiMetadata21InitializeMetadataOpsEP14ChiMetadataOps+0x1e90>
   34d7c: 46 00 00 f0  	adrp	x6, 0x3f000 <_ZN11ChiMetadata21InitializeMetadataOpsEP14ChiMetadataOps+0x1c88>
   34d88: 68 11 30 36  	tbz	w8, #6, 0x34fb4 <_ZN11ChiMetadata21InitializeMetadataOpsEP14ChiMetadataOps+0x1e94>
   34d8c: 47 00 00 f0  	adrp	x7, 0x3f000 <_ZN11ChiMetadata21InitializeMetadataOpsEP14ChiMetadataOps+0x1c98>
   34d9c: 81 02 00 54  	b.ne	0x34dec <_ZN11ChiMetadata21InitializeMetadataOpsEP14ChiMetadataOps+0x1ccc>
   34da0: d3 fe ff 90  	adrp	x19, 0xc000 <_ZN11ChiMetadata21InitializeMetadataOpsEP14ChiMetadataOps+0x1be0>
   34dbc: c1 fe ff f0  	adrp	x1, 0xf000 <_ZN11ChiMetadata21InitializeMetadataOpsEP14ChiMetadataOps+0x1c08>
   34dc0: a2 fe ff b0  	adrp	x2, 0x9000 <_ZN11ChiMetadata21InitializeMetadataOpsEP14ChiMetadataOps+0x1bf4>
   34dc4: e5 fe ff 90  	adrp	x5, 0x10000 <_ZN11ChiMetadata21InitializeMetadataOpsEP14ChiMetadataOps+0x1c14>
   34dc8: a6 fe ff f0  	adrp	x6, 0xb000 <_ZN11ChiMetadata21InitializeMetadataOpsEP14ChiMetadataOps+0x1c04>
   34dec: d3 fe ff 90  	adrp	x19, 0xc000 <_ZN11ChiMetadata21InitializeMetadataOpsEP14ChiMetadataOps+0x1c2c>
   34e08: a1 fe ff 90  	adrp	x1, 0x8000 <_ZN11ChiMetadata21InitializeMetadataOpsEP14ChiMetadataOps+0x1c38>
   34e10: c0 fe ff b0  	adrp	x0, 0xd000 <_ZN11ChiMetadata21InitializeMetadataOpsEP14ChiMetadataOps+0x1c54>
   34e14: e3 fe ff 90  	adrp	x3, 0x10000 <_ZN11ChiMetadata21InitializeMetadataOpsEP14ChiMetadataOps+0x1c64>
   34e18: a5 fe ff 90  	adrp	x5, 0x8000 <_ZN11ChiMetadata21InitializeMetadataOpsEP14ChiMetadataOps+0x1c48>
   34e1c: a6 fe ff f0  	adrp	x6, 0xb000 <_ZN11ChiMetadata21InitializeMetadataOpsEP14ChiMetadataOps+0x1c58>
   34e38: 5e 00 00 14  	b	0x34fb0 <_ZN11ChiMetadata21InitializeMetadataOpsEP14ChiMetadataOps+0x1e90>
   34e3c: 53 00 00 f0  	adrp	x19, 0x3f000 <_ZN11ChiMetadata21InitializeMetadataOpsEP14ChiMetadataOps+0x1d48>
   34e48: 69 0b 30 36  	tbz	w9, #6, 0x34fb4 <_ZN11ChiMetadata21InitializeMetadataOpsEP14ChiMetadataOps+0x1e94>
   34e4c: 40 00 00 f0  	adrp	x0, 0x3f000 <_ZN11ChiMetadata21InitializeMetadataOpsEP14ChiMetadataOps+0x1d58>
   34e5c: 81 02 00 54  	b.ne	0x34eac <_ZN11ChiMetadata21InitializeMetadataOpsEP14ChiMetadataOps+0x1d8c>
   34e60: d3 fe ff 90  	adrp	x19, 0xc000 <_ZN11ChiMetadata21InitializeMetadataOpsEP14ChiMetadataOps+0x1ca0>
   34e7c: c1 fe ff f0  	adrp	x1, 0xf000 <_ZN11ChiMetadata21InitializeMetadataOpsEP14ChiMetadataOps+0x1cc8>
   34e80: a2 fe ff b0  	adrp	x2, 0x9000 <_ZN11ChiMetadata21InitializeMetadataOpsEP14ChiMetadataOps+0x1cb4>
   34e84: e5 fe ff 90  	adrp	x5, 0x10000 <_ZN11ChiMetadata21InitializeMetadataOpsEP14ChiMetadataOps+0x1cd4>
   34e88: a6 fe ff f0  	adrp	x6, 0xb000 <_ZN11ChiMetadata21InitializeMetadataOpsEP14ChiMetadataOps+0x1cc4>
   34eac: d3 fe ff 90  	adrp	x19, 0xc000 <_ZN11ChiMetadata21InitializeMetadataOpsEP14ChiMetadataOps+0x1cec>
   34ec8: a1 fe ff 90  	adrp	x1, 0x8000 <_ZN11ChiMetadata21InitializeMetadataOpsEP14ChiMetadataOps+0x1cf8>
   34ed0: c0 fe ff b0  	adrp	x0, 0xd000 <_ZN11ChiMetadata21InitializeMetadataOpsEP14ChiMetadataOps+0x1d14>
   34ed4: e3 fe ff 90  	adrp	x3, 0x10000 <_ZN11ChiMetadata21InitializeMetadataOpsEP14ChiMetadataOps+0x1d24>
   34ed8: a5 fe ff 90  	adrp	x5, 0x8000 <_ZN11ChiMetadata21InitializeMetadataOpsEP14ChiMetadataOps+0x1d08>
   34edc: a6 fe ff f0  	adrp	x6, 0xb000 <_ZN11ChiMetadata21InitializeMetadataOpsEP14ChiMetadataOps+0x1d18>
   34ef8: 2e 00 00 14  	b	0x34fb0 <_ZN11ChiMetadata21InitializeMetadataOpsEP14ChiMetadataOps+0x1e90>
   34efc: 48 00 00 f0  	adrp	x8, 0x3f000 <_ZN11ChiMetadata21InitializeMetadataOpsEP14ChiMetadataOps+0x1e08>
   34f08: 6a 05 30 36  	tbz	w10, #6, 0x34fb4 <_ZN11ChiMetadata21InitializeMetadataOpsEP14ChiMetadataOps+0x1e94>
   34f0c: 49 00 00 f0  	adrp	x9, 0x3f000 <_ZN11ChiMetadata21InitializeMetadataOpsEP14ChiMetadataOps+0x1e18>
   34f10: d3 fe ff 90  	adrp	x19, 0xc000 <_ZN11ChiMetadata21InitializeMetadataOpsEP14ChiMetadataOps+0x1d50>
   34f24: 41 02 00 54  	b.ne	0x34f6c <_ZN11ChiMetadata21InitializeMetadataOpsEP14ChiMetadataOps+0x1e4c>
   34f3c: c1 fe ff f0  	adrp	x1, 0xf000 <_ZN11ChiMetadata21InitializeMetadataOpsEP14ChiMetadataOps+0x1d88>
   34f40: a2 fe ff b0  	adrp	x2, 0x9000 <_ZN11ChiMetadata21InitializeMetadataOpsEP14ChiMetadataOps+0x1d74>
   34f44: e5 fe ff 90  	adrp	x5, 0x10000 <_ZN11ChiMetadata21InitializeMetadataOpsEP14ChiMetadataOps+0x1d94>
   34f48: 86 fe ff f0  	adrp	x6, 0x7000 <_ZN11ChiMetadata21InitializeMetadataOpsEP14ChiMetadataOps+0x1d74>
   34f80: a1 fe ff 90  	adrp	x1, 0x8000 <_ZN11ChiMetadata21InitializeMetadataOpsEP14ChiMetadataOps+0x1db0>
   34f88: c0 fe ff b0  	adrp	x0, 0xd000 <_ZN11ChiMetadata21InitializeMetadataOpsEP14ChiMetadataOps+0x1dcc>
   34f8c: e3 fe ff 90  	adrp	x3, 0x10000 <_ZN11ChiMetadata21InitializeMetadataOpsEP14ChiMetadataOps+0x1ddc>
   34f90: a5 fe ff 90  	adrp	x5, 0x8000 <_ZN11ChiMetadata21InitializeMetadataOpsEP14ChiMetadataOps+0x1dc0>
   34f94: 86 fe ff f0  	adrp	x6, 0x7000 <_ZN11ChiMetadata21InitializeMetadataOpsEP14ChiMetadataOps+0x1dc0>
   34fb0: b8 25 00 94  	bl	0x3e690 <_ZN6ChiLog9LogSystemEPKcS1_S1_S1_iS1_z@plt>
0000000000034fc8 <_ZN11ChiMetadata10InitializeEPKjji>:
   35004: a1 00 00 54  	b.ne	0x35018 <_ZN11ChiMetadata10InitializeEPKjji+0x50>
   35010: 55 05 00 b5  	cbnz	x21, 0x350b8 <_ZN11ChiMetadata10InitializeEPKjji+0xf0>
   35014: 32 00 00 14  	b	0x350dc <_ZN11ChiMetadata10InitializeEPKjji+0x114>
   35018: a2 25 00 94  	bl	0x3e6a0 <_ZN15ExtensionModule11GetInstanceEv@plt>
   35024: 40 04 00 54  	b.eq	0x350ac <_ZN11ChiMetadata10InitializeEPKjji+0xe4>
   35040: 41 02 00 54  	b.ne	0x35088 <_ZN11ChiMetadata10InitializeEPKjji+0xc0>
   35048: 41 02 00 54  	b.ne	0x35090 <_ZN11ChiMetadata10InitializeEPKjji+0xc8>
   35058: c1 01 00 54  	b.ne	0x35090 <_ZN11ChiMetadata10InitializeEPKjji+0xc8>
   3506c: e0 fc ff 54  	b.eq	0x35008 <_ZN11ChiMetadata10InitializeEPKjji+0x40>
   35080: d5 01 00 b5  	cbnz	x21, 0x350b8 <_ZN11ChiMetadata10InitializeEPKjji+0xf0>
   35084: 16 00 00 14  	b	0x350dc <_ZN11ChiMetadata10InitializeEPKjji+0x114>
   3508c: 01 01 00 54  	b.ne	0x350ac <_ZN11ChiMetadata10InitializeEPKjji+0xe4>
   350a4: b5 00 00 b5  	cbnz	x21, 0x350b8 <_ZN11ChiMetadata10InitializeEPKjji+0xf0>
   350a8: 0d 00 00 14  	b	0x350dc <_ZN11ChiMetadata10InitializeEPKjji+0x114>
   350b4: 55 01 00 b4  	cbz	x21, 0x350dc <_ZN11ChiMetadata10InitializeEPKjji+0x114>
   350b8: 34 01 00 34  	cbz	w20, 0x350dc <_ZN11ChiMetadata10InitializeEPKjji+0x114>
   350d8: 06 00 00 14  	b	0x350f0 <_ZN11ChiMetadata10InitializeEPKjji+0x128>
   35124: c1 00 00 54  	b.ne	0x3513c <_ZN11ChiMetadata10InitializeEPKjji+0x174>
0000000000035140 <_ZN11ChiMetadata16ReadDataFromFileEPKcRNSt3__16vectorIhNS2_9allocatorIhEEEE>:
   35160: a1 fe ff b0  	adrp	x1, 0xa000 <_ZN11ChiMetadata10InitializeEPKjji+0xec>
   35170: c0 05 00 b4  	cbz	x0, 0x35228 <_ZN11ChiMetadata16ReadDataFromFileEPKcRNSt3__16vectorIhNS2_9allocatorIhEEEE+0xe8>
   351a4: 8b 13 00 54  	b.lt	0x35414 <_ZN11ChiMetadata16ReadDataFromFileEPKcRNSt3__16vectorIhNS2_9allocatorIhEEEE+0x2d4>
   351b8: 89 09 00 54  	b.ls	0x352e8 <_ZN11ChiMetadata16ReadDataFromFileEPKcRNSt3__16vectorIhNS2_9allocatorIhEEEE+0x1a8>
   351c8: 22 02 00 54  	b.hs	0x3520c <_ZN11ChiMetadata16ReadDataFromFileEPKcRNSt3__16vectorIhNS2_9allocatorIhEEEE+0xcc>
   351d0: 88 13 f8 b7  	tbnz	x8, #63, 0x35440 <_ZN11ChiMetadata16ReadDataFromFileEPKcRNSt3__16vectorIhNS2_9allocatorIhEEEE+0x300>
   351f4: 3a 08 00 b4  	cbz	x26, 0x352f8 <_ZN11ChiMetadata16ReadDataFromFileEPKcRNSt3__16vectorIhNS2_9allocatorIhEEEE+0x1b8>
   35208: 3d 00 00 14  	b	0x352fc <_ZN11ChiMetadata16ReadDataFromFileEPKcRNSt3__16vectorIhNS2_9allocatorIhEEEE+0x1bc>
   35220: 61 ff ff 54  	b.ne	0x3520c <_ZN11ChiMetadata16ReadDataFromFileEPKcRNSt3__16vectorIhNS2_9allocatorIhEEEE+0xcc>
   35224: 47 00 00 14  	b	0x35340 <_ZN11ChiMetadata16ReadDataFromFileEPKcRNSt3__16vectorIhNS2_9allocatorIhEEEE+0x200>
   35228: 4c 00 00 d0  	adrp	x12, 0x3f000 <_ZN11ChiMetadata16ReadDataFromFileEPKcRNSt3__16vectorIhNS2_9allocatorIhEEEE+0x110>
   35234: 69 05 00 36  	tbz	w9, #0, 0x352e0 <_ZN11ChiMetadata16ReadDataFromFileEPKcRNSt3__16vectorIhNS2_9allocatorIhEEEE+0x1a0>
   35238: 4d 00 00 d0  	adrp	x13, 0x3f000 <_ZN11ChiMetadata16ReadDataFromFileEPKcRNSt3__16vectorIhNS2_9allocatorIhEEEE+0x120>
   35248: 61 02 00 54  	b.ne	0x35294 <_ZN11ChiMetadata16ReadDataFromFileEPKcRNSt3__16vectorIhNS2_9allocatorIhEEEE+0x154>
   3524c: b4 fe ff f0  	adrp	x20, 0xc000 <_ZN11ChiMetadata16ReadDataFromFileEPKcRNSt3__16vectorIhNS2_9allocatorIhEEEE+0x68>
   35268: c1 fe ff d0  	adrp	x1, 0xf000 <_ZN11ChiMetadata16ReadDataFromFileEPKcRNSt3__16vectorIhNS2_9allocatorIhEEEE+0x90>
   3526c: a2 fe ff d0  	adrp	x2, 0xb000 <_ZN11ChiMetadata16ReadDataFromFileEPKcRNSt3__16vectorIhNS2_9allocatorIhEEEE+0x84>
   35270: a5 fe ff b0  	adrp	x5, 0xa000 <_ZN11ChiMetadata16ReadDataFromFileEPKcRNSt3__16vectorIhNS2_9allocatorIhEEEE+0x84>
   35294: b7 fe ff f0  	adrp	x23, 0xc000 <_ZN11ChiMetadata16ReadDataFromFileEPKcRNSt3__16vectorIhNS2_9allocatorIhEEEE+0xb0>
   352b0: c1 fe ff b0  	adrp	x1, 0xe000 <_ZN11ChiMetadata16ReadDataFromFileEPKcRNSt3__16vectorIhNS2_9allocatorIhEEEE+0xd4>
   352b8: 80 fe ff f0  	adrp	x0, 0x8000 <_ZN11ChiMetadata16ReadDataFromFileEPKcRNSt3__16vectorIhNS2_9allocatorIhEEEE+0xc4>
   352bc: a3 fe ff b0  	adrp	x3, 0xa000 <_ZN11ChiMetadata16ReadDataFromFileEPKcRNSt3__16vectorIhNS2_9allocatorIhEEEE+0xd0>
   352c0: a5 fe ff d0  	adrp	x5, 0xb000 <_ZN11ChiMetadata16ReadDataFromFileEPKcRNSt3__16vectorIhNS2_9allocatorIhEEEE+0xd8>
   352dc: ed 24 00 94  	bl	0x3e690 <_ZN6ChiLog9LogSystemEPKcS1_S1_S1_iS1_z@plt>
   352e4: 4f 00 00 14  	b	0x35420 <_ZN11ChiMetadata16ReadDataFromFileEPKcRNSt3__16vectorIhNS2_9allocatorIhEEEE+0x2e0>
   352e8: c2 02 00 54  	b.hs	0x35340 <_ZN11ChiMetadata16ReadDataFromFileEPKcRNSt3__16vectorIhNS2_9allocatorIhEEEE+0x200>
   352f4: 13 00 00 14  	b	0x35340 <_ZN11ChiMetadata16ReadDataFromFileEPKcRNSt3__16vectorIhNS2_9allocatorIhEEEE+0x200>
   35318: ab 00 00 54  	b.lt	0x3532c <_ZN11ChiMetadata16ReadDataFromFileEPKcRNSt3__16vectorIhNS2_9allocatorIhEEEE+0x1ec>
   35334: 77 00 00 b4  	cbz	x23, 0x35340 <_ZN11ChiMetadata16ReadDataFromFileEPKcRNSt3__16vectorIhNS2_9allocatorIhEEEE+0x200>
   35358: 6d 00 00 54  	b.le	0x35364 <_ZN11ChiMetadata16ReadDataFromFileEPKcRNSt3__16vectorIhNS2_9allocatorIhEEEE+0x224>
   35360: 2e 00 00 14  	b	0x35418 <_ZN11ChiMetadata16ReadDataFromFileEPKcRNSt3__16vectorIhNS2_9allocatorIhEEEE+0x2d8>
   35364: 4a 00 00 d0  	adrp	x10, 0x3f000 <_ZN11ChiMetadata16ReadDataFromFileEPKcRNSt3__16vectorIhNS2_9allocatorIhEEEE+0x24c>
   35370: 28 05 00 36  	tbz	w8, #0, 0x35414 <_ZN11ChiMetadata16ReadDataFromFileEPKcRNSt3__16vectorIhNS2_9allocatorIhEEEE+0x2d4>
   35374: 4b 00 00 d0  	adrp	x11, 0x3f000 <_ZN11ChiMetadata16ReadDataFromFileEPKcRNSt3__16vectorIhNS2_9allocatorIhEEEE+0x25c>
   35378: b6 fe ff f0  	adrp	x22, 0xc000 <_ZN11ChiMetadata16ReadDataFromFileEPKcRNSt3__16vectorIhNS2_9allocatorIhEEEE+0x194>
   3538c: 21 02 00 54  	b.ne	0x353d0 <_ZN11ChiMetadata16ReadDataFromFileEPKcRNSt3__16vectorIhNS2_9allocatorIhEEEE+0x290>
   353a4: c1 fe ff d0  	adrp	x1, 0xf000 <_ZN11ChiMetadata16ReadDataFromFileEPKcRNSt3__16vectorIhNS2_9allocatorIhEEEE+0x1cc>
   353a8: a2 fe ff f0  	adrp	x2, 0xc000 <_ZN11ChiMetadata16ReadDataFromFileEPKcRNSt3__16vectorIhNS2_9allocatorIhEEEE+0x1c4>
   353ac: a5 fe ff b0  	adrp	x5, 0xa000 <_ZN11ChiMetadata16ReadDataFromFileEPKcRNSt3__16vectorIhNS2_9allocatorIhEEEE+0x1c0>
   353e4: c1 fe ff b0  	adrp	x1, 0xe000 <_ZN11ChiMetadata16ReadDataFromFileEPKcRNSt3__16vectorIhNS2_9allocatorIhEEEE+0x208>
   353ec: 80 fe ff f0  	adrp	x0, 0x8000 <_ZN11ChiMetadata16ReadDataFromFileEPKcRNSt3__16vectorIhNS2_9allocatorIhEEEE+0x1f8>
   353f0: a3 fe ff b0  	adrp	x3, 0xa000 <_ZN11ChiMetadata16ReadDataFromFileEPKcRNSt3__16vectorIhNS2_9allocatorIhEEEE+0x204>
   353f4: a5 fe ff d0  	adrp	x5, 0xb000 <_ZN11ChiMetadata16ReadDataFromFileEPKcRNSt3__16vectorIhNS2_9allocatorIhEEEE+0x20c>
   35410: a0 24 00 94  	bl	0x3e690 <_ZN6ChiLog9LogSystemEPKcS1_S1_S1_iS1_z@plt>
   35444: 23 25 00 94  	bl	0x3e8d0 <_ZNKSt3__120__vector_base_commonILb1EE20__throw_length_errorEv@plt>
0000000000035448 <_ZN11ChiMetadata19ParseAndSetMetadataERNSt3__16vectorIhNS0_9allocatorIhEEEE>:
   3547c: a0 05 00 54  	b.eq	0x35530 <_ZN11ChiMetadata19ParseAndSetMetadataERNSt3__16vectorIhNS0_9allocatorIhEEEE+0xe8>
   35480: 4b 00 00 d0  	adrp	x11, 0x3f000 <_ZN11ChiMetadata19ParseAndSetMetadataERNSt3__16vectorIhNS0_9allocatorIhEEEE+0x60>
   3548c: ee 04 00 36  	tbz	w14, #0, 0x35528 <_ZN11ChiMetadata19ParseAndSetMetadataERNSt3__16vectorIhNS0_9allocatorIhEEEE+0xe0>
   35490: 4c 00 00 d0  	adrp	x12, 0x3f000 <_ZN11ChiMetadata19ParseAndSetMetadataERNSt3__16vectorIhNS0_9allocatorIhEEEE+0x70>
   35494: b3 fe ff f0  	adrp	x19, 0xc000 <_ZN11ChiMetadata16ReadDataFromFileEPKcRNSt3__16vectorIhNS2_9allocatorIhEEEE+0x2b0>
   354a8: 01 02 00 54  	b.ne	0x354e8 <_ZN11ChiMetadata19ParseAndSetMetadataERNSt3__16vectorIhNS0_9allocatorIhEEEE+0xa0>
   354c0: c1 fe ff d0  	adrp	x1, 0xf000 <_ZN11ChiMetadata16ReadDataFromFileEPKcRNSt3__16vectorIhNS2_9allocatorIhEEEE+0x2e8>
   354c4: a2 fe ff d0  	adrp	x2, 0xb000 <_ZN11ChiMetadata16ReadDataFromFileEPKcRNSt3__16vectorIhNS2_9allocatorIhEEEE+0x2dc>
   354c8: 85 fe ff d0  	adrp	x5, 0x7000 <_ZN11ChiMetadata16ReadDataFromFileEPKcRNSt3__16vectorIhNS2_9allocatorIhEEEE+0x2d0>
   354fc: c1 fe ff b0  	adrp	x1, 0xe000 <_ZN11ChiMetadata19ParseAndSetMetadataERNSt3__16vectorIhNS0_9allocatorIhEEEE+0x18>
   35504: 80 fe ff f0  	adrp	x0, 0x8000 <_ZN11ChiMetadata19ParseAndSetMetadataERNSt3__16vectorIhNS0_9allocatorIhEEEE+0x8>
   35508: 83 fe ff d0  	adrp	x3, 0x7000 <_ZN11ChiMetadata19ParseAndSetMetadataERNSt3__16vectorIhNS0_9allocatorIhEEEE+0x8>
   3550c: 85 fe ff f0  	adrp	x5, 0x8000 <_ZN11ChiMetadata19ParseAndSetMetadataERNSt3__16vectorIhNS0_9allocatorIhEEEE+0x10>
   35524: 5b 24 00 94  	bl	0x3e690 <_ZN6ChiLog9LogSystemEPKcS1_S1_S1_iS1_z@plt>
   3552c: a2 00 00 14  	b	0x357b4 <_ZN11ChiMetadata19ParseAndSetMetadataERNSt3__16vectorIhNS0_9allocatorIhEEEE+0x36c>
   35560: 09 07 00 54  	b.ls	0x35640 <_ZN11ChiMetadata19ParseAndSetMetadataERNSt3__16vectorIhNS0_9allocatorIhEEEE+0x1f8>
   35568: a1 07 00 54  	b.ne	0x3565c <_ZN11ChiMetadata19ParseAndSetMetadataERNSt3__16vectorIhNS0_9allocatorIhEEEE+0x214>
   35580: 10 00 00 14  	b	0x355c0 <_ZN11ChiMetadata19ParseAndSetMetadataERNSt3__16vectorIhNS0_9allocatorIhEEEE+0x178>
   355bc: 89 08 00 54  	b.ls	0x356cc <_ZN11ChiMetadata19ParseAndSetMetadataERNSt3__16vectorIhNS0_9allocatorIhEEEE+0x284>
   355cc: e3 07 00 34  	cbz	w3, 0x356c8 <_ZN11ChiMetadata19ParseAndSetMetadataERNSt3__16vectorIhNS0_9allocatorIhEEEE+0x280>
   355e4: 29 07 00 54  	b.ls	0x356c8 <_ZN11ChiMetadata19ParseAndSetMetadataERNSt3__16vectorIhNS0_9allocatorIhEEEE+0x280>
   355f8: 63 fc ff 54  	b.lo	0x35584 <_ZN11ChiMetadata19ParseAndSetMetadataERNSt3__16vectorIhNS0_9allocatorIhEEEE+0x13c>
   35638: c1 fe ff 54  	b.ne	0x35610 <_ZN11ChiMetadata19ParseAndSetMetadataERNSt3__16vectorIhNS0_9allocatorIhEEEE+0x1c8>
   3563c: d8 ff ff 17  	b	0x3559c <_ZN11ChiMetadata19ParseAndSetMetadataERNSt3__16vectorIhNS0_9allocatorIhEEEE+0x154>
   35648: 48 00 00 d0  	adrp	x8, 0x3f000 <_ZN11ChiMetadata19ParseAndSetMetadataERNSt3__16vectorIhNS0_9allocatorIhEEEE+0x228>
   35654: ed 0a 18 36  	tbz	w13, #3, 0x357b0 <_ZN11ChiMetadata19ParseAndSetMetadataERNSt3__16vectorIhNS0_9allocatorIhEEEE+0x368>
   35658: 21 00 00 14  	b	0x356dc <_ZN11ChiMetadata19ParseAndSetMetadataERNSt3__16vectorIhNS0_9allocatorIhEEEE+0x294>
   35674: 03 0b 00 34  	cbz	w3, 0x357d4 <_ZN11ChiMetadata19ParseAndSetMetadataERNSt3__16vectorIhNS0_9allocatorIhEEEE+0x38c>
   35684: 89 0a 00 54  	b.ls	0x357d4 <_ZN11ChiMetadata19ParseAndSetMetadataERNSt3__16vectorIhNS0_9allocatorIhEEEE+0x38c>
   356c0: 48 fd ff 54  	b.hi	0x35668 <_ZN11ChiMetadata19ParseAndSetMetadataERNSt3__16vectorIhNS0_9allocatorIhEEEE+0x220>
   356c4: 02 00 00 14  	b	0x356cc <_ZN11ChiMetadata19ParseAndSetMetadataERNSt3__16vectorIhNS0_9allocatorIhEEEE+0x284>
   356cc: 48 00 00 d0  	adrp	x8, 0x3f000 <_ZN11ChiMetadata19ParseAndSetMetadataERNSt3__16vectorIhNS0_9allocatorIhEEEE+0x2ac>
   356d8: cd 06 18 36  	tbz	w13, #3, 0x357b0 <_ZN11ChiMetadata19ParseAndSetMetadataERNSt3__16vectorIhNS0_9allocatorIhEEEE+0x368>
   356dc: 4a 00 00 d0  	adrp	x10, 0x3f000 <_ZN11ChiMetadata19ParseAndSetMetadataERNSt3__16vectorIhNS0_9allocatorIhEEEE+0x2bc>
   356f0: 01 03 00 54  	b.ne	0x35750 <_ZN11ChiMetadata19ParseAndSetMetadataERNSt3__16vectorIhNS0_9allocatorIhEEEE+0x308>
   356f4: b6 fe ff f0  	adrp	x22, 0xc000 <_ZN11ChiMetadata19ParseAndSetMetadataERNSt3__16vectorIhNS0_9allocatorIhEEEE+0x208>
   35714: 85 fe ff d0  	adrp	x5, 0x7000 <_ZN11ChiMetadata19ParseAndSetMetadataERNSt3__16vectorIhNS0_9allocatorIhEEEE+0x214>
   3572c: c1 fe ff d0  	adrp	x1, 0xf000 <_ZN11ChiMetadata19ParseAndSetMetadataERNSt3__16vectorIhNS0_9allocatorIhEEEE+0x24c>
   35730: c2 fe ff d0  	adrp	x2, 0xf000 <_ZN11ChiMetadata19ParseAndSetMetadataERNSt3__16vectorIhNS0_9allocatorIhEEEE+0x250>
   35750: b6 fe ff f0  	adrp	x22, 0xc000 <_ZN11ChiMetadata19ParseAndSetMetadataERNSt3__16vectorIhNS0_9allocatorIhEEEE+0x264>
   35770: a1 fe ff f0  	adrp	x1, 0xc000 <_ZN11ChiMetadata19ParseAndSetMetadataERNSt3__16vectorIhNS0_9allocatorIhEEEE+0x284>
   35778: c0 fe ff d0  	adrp	x0, 0xf000 <_ZN11ChiMetadata19ParseAndSetMetadataERNSt3__16vectorIhNS0_9allocatorIhEEEE+0x298>
   35788: 83 fe ff d0  	adrp	x3, 0x7000 <_ZN11ChiMetadata19ParseAndSetMetadataERNSt3__16vectorIhNS0_9allocatorIhEEEE+0x288>
   3578c: c5 fe ff 90  	adrp	x5, 0xd000 <_ZN11ChiMetadata19ParseAndSetMetadataERNSt3__16vectorIhNS0_9allocatorIhEEEE+0x2a4>
   357ac: b9 23 00 94  	bl	0x3e690 <_ZN6ChiLog9LogSystemEPKcS1_S1_S1_iS1_z@plt>
   357d8: 48 00 00 d0  	adrp	x8, 0x3f000 <_ZN11ChiMetadata6CreateEPKc>
   357e4: 6d fe 1f 36  	tbz	w13, #3, 0x357b0 <_ZN11ChiMetadata19ParseAndSetMetadataERNSt3__16vectorIhNS0_9allocatorIhEEEE+0x368>
   357e8: bd ff ff 17  	b	0x356dc <_ZN11ChiMetadata19ParseAndSetMetadataERNSt3__16vectorIhNS0_9allocatorIhEEEE+0x294>
00000000000357f0 <_ZN11ChiMetadata6SetTagEjPKvjj>:
0000000000035800 <_ZN11ChiMetadata6CreateEPKc>:
   35828: c0 15 00 b4  	cbz	x0, 0x35ae0 <_ZN11ChiMetadata6CreateEPKc+0x2e0>
   35830: 80 25 00 94  	bl	0x3ee30 <_ZN11ChiMetadata16ReadDataFromFileEPKcRNSt3__16vectorIhNS2_9allocatorIhEEEE@plt>
   35834: 60 15 00 35  	cbnz	w0, 0x35ae0 <_ZN11ChiMetadata6CreateEPKc+0x2e0>
   35848: e0 05 00 b4  	cbz	x0, 0x35904 <_ZN11ChiMetadata6CreateEPKc+0x104>
   35850: 58 25 00 94  	bl	0x3edb0 <_ZN11ChiMetadata21InitializeMetadataOpsEP14ChiMetadataOps@plt>
   35854: 20 0b 00 34  	cbz	w0, 0x359b8 <_ZN11ChiMetadata6CreateEPKc+0x1b8>
   35858: 4a 00 00 d0  	adrp	x10, 0x3f000 <_ZN11ChiMetadata6CreateEPKc+0x80>
   35864: aa 13 00 36  	tbz	w10, #0, 0x35ad8 <_ZN11ChiMetadata6CreateEPKc+0x2d8>
   35868: 4b 00 00 d0  	adrp	x11, 0x3f000 <_ZN11ChiMetadata6CreateEPKc+0x90>
   3586c: b4 fe ff f0  	adrp	x20, 0xc000 <_ZN11ChiMetadata19ParseAndSetMetadataERNSt3__16vectorIhNS0_9allocatorIhEEEE+0x380>
   35880: 01 02 00 54  	b.ne	0x358c0 <_ZN11ChiMetadata6CreateEPKc+0xc0>
   35898: c1 fe ff d0  	adrp	x1, 0xf000 <_ZN11ChiMetadata6CreateEPKc>
   3589c: c2 fe ff d0  	adrp	x2, 0xf000 <_ZN11ChiMetadata6CreateEPKc+0x4>
   358a0: c5 fe ff b0  	adrp	x5, 0xe000 <_ZN11ChiMetadata6CreateEPKc+0x4>
   358d4: c1 fe ff b0  	adrp	x1, 0xe000 <_ZN11ChiMetadata6CreateEPKc+0x38>
   358dc: 80 fe ff f0  	adrp	x0, 0x8000 <_ZN11ChiMetadata6CreateEPKc+0x28>
   358e0: c3 fe ff b0  	adrp	x3, 0xe000 <_ZN11ChiMetadata6CreateEPKc+0x44>
   358e4: c5 fe ff d0  	adrp	x5, 0xf000 <_ZN11ChiMetadata6CreateEPKc+0x4c>
   358fc: 65 23 00 94  	bl	0x3e690 <_ZN6ChiLog9LogSystemEPKcS1_S1_S1_iS1_z@plt>
   35900: 76 00 00 14  	b	0x35ad8 <_ZN11ChiMetadata6CreateEPKc+0x2d8>
   35904: 4c 00 00 d0  	adrp	x12, 0x3f000 <_ZN11ChiMetadata6CreateEPKc+0x12c>
   35910: ab 0e 00 36  	tbz	w11, #0, 0x35ae4 <_ZN11ChiMetadata6CreateEPKc+0x2e4>
   35914: 4d 00 00 d0  	adrp	x13, 0x3f000 <_ZN11ChiMetadata6CreateEPKc+0x13c>
   35924: 41 02 00 54  	b.ne	0x3596c <_ZN11ChiMetadata6CreateEPKc+0x16c>
   35928: b4 fe ff f0  	adrp	x20, 0xc000 <_ZN11ChiMetadata6CreateEPKc+0x84>
   35944: c1 fe ff d0  	adrp	x1, 0xf000 <_ZN11ChiMetadata6CreateEPKc+0xac>
   35948: c2 fe ff f0  	adrp	x2, 0x10000 <_ZN11ChiMetadata6CreateEPKc+0xb4>
   3594c: c5 fe ff b0  	adrp	x5, 0xe000 <_ZN11ChiMetadata6CreateEPKc+0xb0>
   3596c: b4 fe ff f0  	adrp	x20, 0xc000 <_ZN11ChiMetadata6CreateEPKc+0xc8>
   35988: c1 fe ff b0  	adrp	x1, 0xe000 <_ZN11ChiMetadata6CreateEPKc+0xec>
   35990: 80 fe ff f0  	adrp	x0, 0x8000 <_ZN11ChiMetadata6CreateEPKc+0xdc>
   35994: c3 fe ff b0  	adrp	x3, 0xe000 <_ZN11ChiMetadata6CreateEPKc+0xf8>
   35998: a5 fe ff d0  	adrp	x5, 0xb000 <_ZN11ChiMetadata6CreateEPKc+0xf0>
   359b0: 38 23 00 94  	bl	0x3e690 <_ZN6ChiLog9LogSystemEPKcS1_S1_S1_iS1_z@plt>
   359b4: 4c 00 00 14  	b	0x35ae4 <_ZN11ChiMetadata6CreateEPKc+0x2e4>
   35a10: c0 05 00 34  	cbz	w0, 0x35ac8 <_ZN11ChiMetadata6CreateEPKc+0x2c8>
   35a14: 48 00 00 d0  	adrp	x8, 0x3f000 <_ZN11ChiMetadata6CreateEPKc+0x23c>
   35a20: c9 05 00 36  	tbz	w9, #0, 0x35ad8 <_ZN11ChiMetadata6CreateEPKc+0x2d8>
   35a24: 49 00 00 d0  	adrp	x9, 0x3f000 <_ZN11ChiMetadata6CreateEPKc+0x24c>
   35a34: 41 02 00 54  	b.ne	0x35a7c <_ZN11ChiMetadata6CreateEPKc+0x27c>
   35a38: b4 fe ff f0  	adrp	x20, 0xc000 <_ZN11ChiMetadata6CreateEPKc+0x194>
   35a54: c1 fe ff d0  	adrp	x1, 0xf000 <_ZN11ChiMetadata6CreateEPKc+0x1bc>
   35a58: 82 fe ff d0  	adrp	x2, 0x7000 <_ZN11ChiMetadata6CreateEPKc+0x1a0>
   35a5c: c5 fe ff b0  	adrp	x5, 0xe000 <_ZN11ChiMetadata6CreateEPKc+0x1c0>
   35a7c: b4 fe ff f0  	adrp	x20, 0xc000 <_ZN11ChiMetadata6CreateEPKc+0x1d8>
   35a98: c1 fe ff b0  	adrp	x1, 0xe000 <_ZN11ChiMetadata6CreateEPKc+0x1fc>
   35aa0: 80 fe ff f0  	adrp	x0, 0x8000 <_ZN11ChiMetadata6CreateEPKc+0x1ec>
   35aa4: c3 fe ff b0  	adrp	x3, 0xe000 <_ZN11ChiMetadata6CreateEPKc+0x208>
   35aa8: c5 fe ff 90  	adrp	x5, 0xd000 <_ZN11ChiMetadata6CreateEPKc+0x208>
   35ac0: f4 22 00 94  	bl	0x3e690 <_ZN6ChiLog9LogSystemEPKcS1_S1_S1_iS1_z@plt>
   35ac4: 05 00 00 14  	b	0x35ad8 <_ZN11ChiMetadata6CreateEPKc+0x2d8>
   35ad0: dc 24 00 94  	bl	0x3ee40 <_ZN11ChiMetadata19ParseAndSetMetadataERNSt3__16vectorIhNS0_9allocatorIhEEEE@plt>
   35ad4: 80 00 00 34  	cbz	w0, 0x35ae4 <_ZN11ChiMetadata6CreateEPKc+0x2e4>
   35ae8: 60 00 00 b4  	cbz	x0, 0x35af4 <_ZN11ChiMetadata6CreateEPKc+0x2f4>
   35b00: e1 00 00 54  	b.ne	0x35b1c <_ZN11ChiMetadata6CreateEPKc+0x31c>
0000000000035b20 <_ZN11ChiMetadata7DestroyEb>:
   35b40: 00 08 00 54  	b.eq	0x35c40 <_ZN11ChiMetadata7DestroyEb+0x120>
   35b44: 4a 00 00 d0  	adrp	x10, 0x3f000 <_ZN11ChiMetadata7DestroyEb+0x4c>
   35b50: ab 06 00 36  	tbz	w11, #0, 0x35c24 <_ZN11ChiMetadata7DestroyEb+0x104>
   35b54: 4b 00 00 d0  	adrp	x11, 0x3f000 <_ZN11ChiMetadata7DestroyEb+0x5c>
   35b58: b4 fe ff f0  	adrp	x20, 0xc000 <_ZN11ChiMetadata6CreateEPKc+0x2b4>
   35b6c: e1 02 00 54  	b.ne	0x35bc8 <_ZN11ChiMetadata7DestroyEb+0xa8>
   35b8c: c1 fe ff d0  	adrp	x1, 0xf000 <_ZN11ChiMetadata6CreateEPKc+0x2f4>
   35b90: 82 fe ff d0  	adrp	x2, 0x7000 <_ZN11ChiMetadata6CreateEPKc+0x2d8>
   35b94: a5 fe ff f0  	adrp	x5, 0xc000 <_ZN11ChiMetadata6CreateEPKc+0x2f0>
   35be8: 80 fe ff f0  	adrp	x0, 0x8000 <_ZN11ChiMetadata7DestroyEb+0x14>
   35bec: c1 fe ff b0  	adrp	x1, 0xe000 <_ZN11ChiMetadata7DestroyEb+0x30>
   35bf0: a3 fe ff f0  	adrp	x3, 0xc000 <_ZN11ChiMetadata7DestroyEb+0x2c>
   35bf4: a5 fe ff f0  	adrp	x5, 0xc000 <_ZN11ChiMetadata7DestroyEb+0x30>
   35c20: 9c 22 00 94  	bl	0x3e690 <_ZN6ChiLog9LogSystemEPKcS1_S1_S1_iS1_z@plt>
   35c44: 00 f8 ff b4  	cbz	x0, 0x35b44 <_ZN11ChiMetadata7DestroyEb+0x24>
   35c5c: 80 06 00 34  	cbz	w0, 0x35d2c <_ZN11ChiMetadata7DestroyEb+0x20c>
   35c60: 48 00 00 d0  	adrp	x8, 0x3f000 <_ZN11ChiMetadata7DestroyEb+0x168>
   35c6c: e8 fd 07 36  	tbz	w8, #0, 0x35c28 <_ZN11ChiMetadata7DestroyEb+0x108>
   35c70: 49 00 00 d0  	adrp	x9, 0x3f000 <_ZN11ChiMetadata7DestroyEb+0x178>
   35c80: a1 02 00 54  	b.ne	0x35cd4 <_ZN11ChiMetadata7DestroyEb+0x1b4>
   35c84: b5 fe ff f0  	adrp	x21, 0xc000 <_ZN11ChiMetadata7DestroyEb+0xc0>
   35ca4: c1 fe ff d0  	adrp	x1, 0xf000 <_ZN11ChiMetadata7DestroyEb+0xec>
   35ca8: a2 fe ff 90  	adrp	x2, 0x9000 <_ZN11ChiMetadata7DestroyEb+0xd8>
   35cac: a5 fe ff f0  	adrp	x5, 0xc000 <_ZN11ChiMetadata7DestroyEb+0xe8>
   35cd4: b5 fe ff f0  	adrp	x21, 0xc000 <_ZN11ChiMetadata7DestroyEb+0x110>
   35cf8: 80 fe ff f0  	adrp	x0, 0x8000 <_ZN11ChiMetadata7DestroyEb+0x124>
   35cfc: c1 fe ff b0  	adrp	x1, 0xe000 <_ZN11ChiMetadata7DestroyEb+0x140>
   35d00: a3 fe ff f0  	adrp	x3, 0xc000 <_ZN11ChiMetadata7DestroyEb+0x13c>
   35d04: a5 fe ff 90  	adrp	x5, 0x9000 <_ZN11ChiMetadata7DestroyEb+0x134>
   35d24: 5b 22 00 94  	bl	0x3e690 <_ZN6ChiLog9LogSystemEPKcS1_S1_S1_iS1_z@plt>
   35d28: c0 ff ff 17  	b	0x35c28 <_ZN11ChiMetadata7DestroyEb+0x108>
   35d34: bd ff ff 17  	b	0x35c28 <_ZN11ChiMetadata7DestroyEb+0x108>
0000000000035d38 <_ZN11ChiMetadata15DestroyInternalEb>:
   35d64: 40 06 00 34  	cbz	w0, 0x35e2c <_ZN11ChiMetadata15DestroyInternalEb+0xf4>
   35d68: 48 00 00 d0  	adrp	x8, 0x3f000 <_ZN11ChiMetadata15DestroyInternalEb+0x58>
   35d74: 08 06 00 36  	tbz	w8, #0, 0x35e34 <_ZN11ChiMetadata15DestroyInternalEb+0xfc>
   35d78: 49 00 00 d0  	adrp	x9, 0x3f000 <_ZN11ChiMetadata15DestroyInternalEb+0x68>
   35d7c: b5 fe ff f0  	adrp	x21, 0xc000 <_ZN11ChiMetadata7DestroyEb+0x1b8>
   35d90: 61 02 00 54  	b.ne	0x35ddc <_ZN11ChiMetadata15DestroyInternalEb+0xa4>
   35dac: c1 fe ff d0  	adrp	x1, 0xf000 <_ZN11ChiMetadata7DestroyEb+0x1f4>
   35db0: a2 fe ff 90  	adrp	x2, 0x9000 <_ZN11ChiMetadata7DestroyEb+0x1e0>
   35db4: a5 fe ff f0  	adrp	x5, 0xc000 <_ZN11ChiMetadata7DestroyEb+0x1f0>
   35df8: 80 fe ff f0  	adrp	x0, 0x8000 <_ZN11ChiMetadata15DestroyInternalEb+0xc>
   35dfc: c1 fe ff b0  	adrp	x1, 0xe000 <_ZN11ChiMetadata15DestroyInternalEb+0x28>
   35e00: a3 fe ff f0  	adrp	x3, 0xc000 <_ZN11ChiMetadata15DestroyInternalEb+0x24>
   35e04: a5 fe ff 90  	adrp	x5, 0x9000 <_ZN11ChiMetadata15DestroyInternalEb+0x1c>
   35e24: 1b 22 00 94  	bl	0x3e690 <_ZN6ChiLog9LogSystemEPKcS1_S1_S1_iS1_z@plt>
   35e28: 03 00 00 14  	b	0x35e34 <_ZN11ChiMetadata15DestroyInternalEb+0xfc>
0000000000035e48 <_ZN11ChiMetadata6GetTagEjj>:
   35e88: a1 00 00 54  	b.ne	0x35e9c <_ZN11ChiMetadata6GetTagEjj+0x54>
0000000000035ea0 <_ZN11ChiMetadata6GetTagEjR16ChiMetadataEntry>:
0000000000035eb0 <_ZN11ChiMetadata6GetTagEPKcS1_j>:
   35ef0: a1 00 00 54  	b.ne	0x35f04 <_ZN11ChiMetadata6GetTagEPKcS1_j+0x54>
0000000000035f08 <_ZNK11ChiMetadata7FindTagEjP21camera_metadata_entry>:
   35f48: e0 00 00 35  	cbnz	w0, 0x35f64 <_ZNK11ChiMetadata7FindTagEjP21camera_metadata_entry+0x5c>
   35f70: c1 00 00 54  	b.ne	0x35f88 <_ZNK11ChiMetadata7FindTagEjP21camera_metadata_entry+0x80>
0000000000035f90 <_ZN11ChiMetadata18SetAndroidMetadataEPK15camera_metadata>:
0000000000035fa0 <_ZN11ChiMetadata6SetTagEPKcS1_PKvjj>:
0000000000035fb0 <_ZN11ChiMetadata9DeleteTagEj>:
0000000000035fc0 <_ZN11ChiMetadata5CountEv>:
   36000: a1 00 00 54  	b.ne	0x36014 <_ZN11ChiMetadata5CountEv+0x54>
0000000000036018 <_ZN11ChiMetadata5ResetEv>:
0000000000036028 <_ZN11ChiMetadata5MergeERS_b>:
   36058: 8a 22 00 94  	bl	0x3ea80 <_ZNSt3__16chrono12steady_clock3nowEv@plt>
   36064: 40 00 00 54  	b.eq	0x3606c <_ZN11ChiMetadata5MergeERS_b+0x44>
   36074: 40 00 00 54  	b.eq	0x3607c <_ZN11ChiMetadata5MergeERS_b+0x54>
0000000000036090 <_ZN11ChiMetadata24MergeMultiCameraMetadataEjPPS_Pjj>:
   360b8: 81 02 00 34  	cbz	w1, 0x36108 <_ZN11ChiMetadata24MergeMultiCameraMetadataEjPPS_Pjj+0x78>
   36100: 61 ff ff 54  	b.ne	0x360ec <_ZN11ChiMetadata24MergeMultiCameraMetadataEjPPS_Pjj+0x5c>
   36104: 02 00 00 14  	b	0x3610c <_ZN11ChiMetadata24MergeMultiCameraMetadataEjPPS_Pjj+0x7c>
   3612c: 77 00 00 b4  	cbz	x23, 0x36138 <_ZN11ChiMetadata24MergeMultiCameraMetadataEjPPS_Pjj+0xa8>
0000000000036158 <_ZN11ChiMetadata4CopyERS_b>:
0000000000036170 <_ZN11ChiMetadata5CloneEv>:
   361ac: 80 01 00 35  	cbnz	w0, 0x361dc <_ZN11ChiMetadata5CloneEv+0x6c>
   361c0: 20 02 00 b4  	cbz	x0, 0x36204 <_ZN11ChiMetadata5CloneEv+0x94>
   361e8: e1 01 00 54  	b.ne	0x36224 <_ZN11ChiMetadata5CloneEv+0xb4>
   36220: 60 fe ff 54  	b.eq	0x361ec <_ZN11ChiMetadata5CloneEv+0x7c>
0000000000036228 <_ZN11ChiMetadata32TranslateToCameraPartialMetadataEP15camera_metadataPjj>:
   36264: 83 11 00 34  	cbz	w3, 0x36494 <_ZN11ChiMetadata32TranslateToCameraPartialMetadataEP15camera_metadataPjj+0x26c>
   36268: 58 00 00 b0  	adrp	x24, 0x3f000 <_ZN11ChiMetadata32TranslateToCameraPartialMetadataEP15camera_metadataPjj+0x64>
   3626c: b4 fe ff d0  	adrp	x20, 0xc000 <_ZN11ChiMetadata5CloneEv+0x54>
   36270: b9 fe ff 90  	adrp	x25, 0xa000 <_ZN11ChiMetadata5CloneEv+0x50>
   3629c: 13 00 00 14  	b	0x362e8 <_ZN11ChiMetadata32TranslateToCameraPartialMetadataEP15camera_metadataPjj+0xc0>
   362b4: a1 fe ff d0  	adrp	x1, 0xc000 <_ZN11ChiMetadata5CloneEv+0x9c>
   362bc: c0 fe ff 90  	adrp	x0, 0xe000 <_ZN11ChiMetadata5CloneEv+0xac>
   362c0: a5 fe ff b0  	adrp	x5, 0xb000 <_ZN11ChiMetadata5CloneEv+0xa4>
   362d8: ee 20 00 94  	bl	0x3e690 <_ZN6ChiLog9LogSystemEPKcS1_S1_S1_iS1_z@plt>
   362e4: 80 0d 00 54  	b.eq	0x36494 <_ZN11ChiMetadata32TranslateToCameraPartialMetadataEP15camera_metadataPjj+0x26c>
   362fc: e0 01 00 35  	cbnz	w0, 0x36338 <_ZN11ChiMetadata32TranslateToCameraPartialMetadataEP15camera_metadataPjj+0x110>
   36304: ac 01 00 b4  	cbz	x12, 0x36338 <_ZN11ChiMetadata32TranslateToCameraPartialMetadataEP15camera_metadataPjj+0x110>
   36318: c0 03 00 34  	cbz	w0, 0x36390 <_ZN11ChiMetadata32TranslateToCameraPartialMetadataEP15camera_metadataPjj+0x168>
   36330: 60 fd ff 34  	cbz	w0, 0x362dc <_ZN11ChiMetadata32TranslateToCameraPartialMetadataEP15camera_metadataPjj+0xb4>
   36334: 20 00 00 14  	b	0x363b4 <_ZN11ChiMetadata32TranslateToCameraPartialMetadataEP15camera_metadataPjj+0x18c>
   3633c: 09 fd 2f 36  	tbz	w9, #5, 0x362dc <_ZN11ChiMetadata32TranslateToCameraPartialMetadataEP15camera_metadataPjj+0xb4>
   36340: 4a 00 00 b0  	adrp	x10, 0x3f000 <_ZN11ChiMetadata32TranslateToCameraPartialMetadataEP15camera_metadataPjj+0x13c>
   36350: 81 fa ff 54  	b.ne	0x362a0 <_ZN11ChiMetadata32TranslateToCameraPartialMetadataEP15camera_metadataPjj+0x78>
   36368: c1 fe ff b0  	adrp	x1, 0xf000 <_ZN11ChiMetadata32TranslateToCameraPartialMetadataEP15camera_metadataPjj+0xa4>
   3636c: c2 fe ff b0  	adrp	x2, 0xf000 <_ZN11ChiMetadata32TranslateToCameraPartialMetadataEP15camera_metadataPjj+0xa8>
   3638c: c5 ff ff 17  	b	0x362a0 <_ZN11ChiMetadata32TranslateToCameraPartialMetadataEP15camera_metadataPjj+0x78>
   363b0: 60 f9 ff 34  	cbz	w0, 0x362dc <_ZN11ChiMetadata32TranslateToCameraPartialMetadataEP15camera_metadataPjj+0xb4>
   363b8: e8 06 00 36  	tbz	w8, #0, 0x36494 <_ZN11ChiMetadata32TranslateToCameraPartialMetadataEP15camera_metadataPjj+0x26c>
   363bc: 4b 00 00 b0  	adrp	x11, 0x3f000 <_ZN11ChiMetadata32TranslateToCameraPartialMetadataEP15camera_metadataPjj+0x1b8>
   363cc: 21 03 00 54  	b.ne	0x36430 <_ZN11ChiMetadata32TranslateToCameraPartialMetadataEP15camera_metadataPjj+0x208>
   363f8: c1 fe ff b0  	adrp	x1, 0xf000 <_ZN11ChiMetadata32TranslateToCameraPartialMetadataEP15camera_metadataPjj+0x134>
   363fc: a2 fe ff 90  	adrp	x2, 0xa000 <_ZN11ChiMetadata32TranslateToCameraPartialMetadataEP15camera_metadataPjj+0x124>
   36400: a5 fe ff 90  	adrp	x5, 0xa000 <_ZN11ChiMetadata32TranslateToCameraPartialMetadataEP15camera_metadataPjj+0x128>
   3645c: 80 fe ff d0  	adrp	x0, 0x8000 <_ZN11ChiMetadata32TranslateToCameraPartialMetadataEP15camera_metadataPjj+0x17c>
   36460: c1 fe ff 90  	adrp	x1, 0xe000 <_ZN11ChiMetadata32TranslateToCameraPartialMetadataEP15camera_metadataPjj+0x198>
   36464: a3 fe ff 90  	adrp	x3, 0xa000 <_ZN11ChiMetadata32TranslateToCameraPartialMetadataEP15camera_metadataPjj+0x18c>
   36468: 85 fe ff f0  	adrp	x5, 0x9000 <_ZN11ChiMetadata32TranslateToCameraPartialMetadataEP15camera_metadataPjj+0x18c>
   36490: 80 20 00 94  	bl	0x3e690 <_ZN6ChiLog9LogSystemEPKcS1_S1_S1_iS1_z@plt>
   364a4: 41 01 00 54  	b.ne	0x364cc <_ZN11ChiMetadata32TranslateToCameraPartialMetadataEP15camera_metadataPjj+0x2a4>
00000000000364d0 <_ZN11ChiMetadata25TranslateToCameraMetadataEP15camera_metadatabbjPj>:
00000000000364f8 <_ZN11ChiMetadata17DumpDetailsToFileEPKc>:
0000000000036508 <_ZN11ChiMetadata12PrintDetailsEv>:
0000000000036518 <_ZN11ChiMetadata10InvalidateEv>:
0000000000036528 <_ZN11ChiMetadata21IsMultiCameraMetadataEv>:
0000000000036538 <_ZN11ChiMetadata14ReferenceCountEv>:
   3657c: a1 00 00 54  	b.ne	0x36590 <_ZN11ChiMetadata14ReferenceCountEv+0x58>
0000000000036598 <_ZN11ChiMetadata12AddReferenceEPKc>:
   365e0: 14 15 00 b4  	cbz	x20, 0x36880 <_ZN11ChiMetadata12AddReferenceEPKc+0x2e8>
   365e4: e0 14 00 35  	cbnz	w0, 0x36880 <_ZN11ChiMetadata12AddReferenceEPKc+0x2e8>
   365ec: ab 07 00 b4  	cbz	x11, 0x366e0 <_ZN11ChiMetadata12AddReferenceEPKc+0x148>
   365f4: ac 07 00 b4  	cbz	x12, 0x366e8 <_ZN11ChiMetadata12AddReferenceEPKc+0x150>
   365fc: af 07 00 b4  	cbz	x15, 0x366f0 <_ZN11ChiMetadata12AddReferenceEPKc+0x158>
   36604: b0 07 00 b4  	cbz	x16, 0x366f8 <_ZN11ChiMetadata12AddReferenceEPKc+0x160>
   3660c: b1 07 00 b4  	cbz	x17, 0x36700 <_ZN11ChiMetadata12AddReferenceEPKc+0x168>
   36614: a4 07 00 b4  	cbz	x4, 0x36708 <_ZN11ChiMetadata12AddReferenceEPKc+0x170>
   3661c: a6 07 00 b4  	cbz	x6, 0x36710 <_ZN11ChiMetadata12AddReferenceEPKc+0x178>
   36624: b5 07 00 b4  	cbz	x21, 0x36718 <_ZN11ChiMetadata12AddReferenceEPKc+0x180>
   3662c: a8 07 00 b4  	cbz	x8, 0x36720 <_ZN11ChiMetadata12AddReferenceEPKc+0x188>
   36634: a7 07 00 b4  	cbz	x7, 0x36728 <_ZN11ChiMetadata12AddReferenceEPKc+0x190>
   3663c: a2 07 00 b4  	cbz	x2, 0x36730 <_ZN11ChiMetadata12AddReferenceEPKc+0x198>
   36644: a1 07 00 b4  	cbz	x1, 0x36738 <_ZN11ChiMetadata12AddReferenceEPKc+0x1a0>
   3664c: a3 07 00 b4  	cbz	x3, 0x36740 <_ZN11ChiMetadata12AddReferenceEPKc+0x1a8>
   36654: a5 07 00 b4  	cbz	x5, 0x36748 <_ZN11ChiMetadata12AddReferenceEPKc+0x1b0>
   3665c: a0 07 00 b4  	cbz	x0, 0x36750 <_ZN11ChiMetadata12AddReferenceEPKc+0x1b8>
   36664: a9 07 00 b4  	cbz	x9, 0x36758 <_ZN11ChiMetadata12AddReferenceEPKc+0x1c0>
   3666c: aa 07 00 b4  	cbz	x10, 0x36760 <_ZN11ChiMetadata12AddReferenceEPKc+0x1c8>
   36674: ab 07 00 b4  	cbz	x11, 0x36768 <_ZN11ChiMetadata12AddReferenceEPKc+0x1d0>
   3667c: ac 07 00 b4  	cbz	x12, 0x36770 <_ZN11ChiMetadata12AddReferenceEPKc+0x1d8>
   36684: ad 07 00 b4  	cbz	x13, 0x36778 <_ZN11ChiMetadata12AddReferenceEPKc+0x1e0>
   3668c: ae 07 00 b4  	cbz	x14, 0x36780 <_ZN11ChiMetadata12AddReferenceEPKc+0x1e8>
   36694: af 07 00 b4  	cbz	x15, 0x36788 <_ZN11ChiMetadata12AddReferenceEPKc+0x1f0>
   3669c: b0 07 00 b4  	cbz	x16, 0x36790 <_ZN11ChiMetadata12AddReferenceEPKc+0x1f8>
   366a4: b1 07 00 b4  	cbz	x17, 0x36798 <_ZN11ChiMetadata12AddReferenceEPKc+0x200>
   366ac: a4 07 00 b4  	cbz	x4, 0x367a0 <_ZN11ChiMetadata12AddReferenceEPKc+0x208>
   366b4: a6 07 00 b4  	cbz	x6, 0x367a8 <_ZN11ChiMetadata12AddReferenceEPKc+0x210>
   366bc: b5 07 00 b4  	cbz	x21, 0x367b0 <_ZN11ChiMetadata12AddReferenceEPKc+0x218>
   366c4: a8 07 00 b4  	cbz	x8, 0x367b8 <_ZN11ChiMetadata12AddReferenceEPKc+0x220>
   366cc: a7 07 00 b4  	cbz	x7, 0x367c0 <_ZN11ChiMetadata12AddReferenceEPKc+0x228>
   366d4: a2 07 00 b5  	cbnz	x2, 0x367c8 <_ZN11ChiMetadata12AddReferenceEPKc+0x230>
   366dc: 3a 00 00 14  	b	0x367c4 <_ZN11ChiMetadata12AddReferenceEPKc+0x22c>
   366e4: 38 00 00 14  	b	0x367c4 <_ZN11ChiMetadata12AddReferenceEPKc+0x22c>
   366ec: 36 00 00 14  	b	0x367c4 <_ZN11ChiMetadata12AddReferenceEPKc+0x22c>
   366f4: 34 00 00 14  	b	0x367c4 <_ZN11ChiMetadata12AddReferenceEPKc+0x22c>
   366fc: 32 00 00 14  	b	0x367c4 <_ZN11ChiMetadata12AddReferenceEPKc+0x22c>
   36704: 30 00 00 14  	b	0x367c4 <_ZN11ChiMetadata12AddReferenceEPKc+0x22c>
   3670c: 2e 00 00 14  	b	0x367c4 <_ZN11ChiMetadata12AddReferenceEPKc+0x22c>
   36714: 2c 00 00 14  	b	0x367c4 <_ZN11ChiMetadata12AddReferenceEPKc+0x22c>
   3671c: 2a 00 00 14  	b	0x367c4 <_ZN11ChiMetadata12AddReferenceEPKc+0x22c>
   36724: 28 00 00 14  	b	0x367c4 <_ZN11ChiMetadata12AddReferenceEPKc+0x22c>
   3672c: 26 00 00 14  	b	0x367c4 <_ZN11ChiMetadata12AddReferenceEPKc+0x22c>
   36734: 24 00 00 14  	b	0x367c4 <_ZN11ChiMetadata12AddReferenceEPKc+0x22c>
   3673c: 22 00 00 14  	b	0x367c4 <_ZN11ChiMetadata12AddReferenceEPKc+0x22c>
   36744: 20 00 00 14  	b	0x367c4 <_ZN11ChiMetadata12AddReferenceEPKc+0x22c>
   3674c: 1e 00 00 14  	b	0x367c4 <_ZN11ChiMetadata12AddReferenceEPKc+0x22c>
   36754: 1c 00 00 14  	b	0x367c4 <_ZN11ChiMetadata12AddReferenceEPKc+0x22c>
   3675c: 1a 00 00 14  	b	0x367c4 <_ZN11ChiMetadata12AddReferenceEPKc+0x22c>
   36764: 18 00 00 14  	b	0x367c4 <_ZN11ChiMetadata12AddReferenceEPKc+0x22c>
   3676c: 16 00 00 14  	b	0x367c4 <_ZN11ChiMetadata12AddReferenceEPKc+0x22c>
   36774: 14 00 00 14  	b	0x367c4 <_ZN11ChiMetadata12AddReferenceEPKc+0x22c>
   3677c: 12 00 00 14  	b	0x367c4 <_ZN11ChiMetadata12AddReferenceEPKc+0x22c>
   36784: 10 00 00 14  	b	0x367c4 <_ZN11ChiMetadata12AddReferenceEPKc+0x22c>
   3678c: 0e 00 00 14  	b	0x367c4 <_ZN11ChiMetadata12AddReferenceEPKc+0x22c>
   36794: 0c 00 00 14  	b	0x367c4 <_ZN11ChiMetadata12AddReferenceEPKc+0x22c>
   3679c: 0a 00 00 14  	b	0x367c4 <_ZN11ChiMetadata12AddReferenceEPKc+0x22c>
   367a4: 08 00 00 14  	b	0x367c4 <_ZN11ChiMetadata12AddReferenceEPKc+0x22c>
   367ac: 06 00 00 14  	b	0x367c4 <_ZN11ChiMetadata12AddReferenceEPKc+0x22c>
   367b4: 04 00 00 14  	b	0x367c4 <_ZN11ChiMetadata12AddReferenceEPKc+0x22c>
   367bc: 02 00 00 14  	b	0x367c4 <_ZN11ChiMetadata12AddReferenceEPKc+0x22c>
   367c8: 48 00 00 b0  	adrp	x8, 0x3f000 <_ZN11ChiMetadata12AddReferenceEPKc+0x254>
   367d4: 68 05 28 36  	tbz	w8, #5, 0x36880 <_ZN11ChiMetadata12AddReferenceEPKc+0x2e8>
   367d8: 49 00 00 b0  	adrp	x9, 0x3f000 <_ZN11ChiMetadata12AddReferenceEPKc+0x264>
   367dc: b5 fe ff d0  	adrp	x21, 0xc000 <_ZN11ChiMetadata12AddReferenceEPKc+0x19c>
   367f0: 41 02 00 54  	b.ne	0x36838 <_ZN11ChiMetadata12AddReferenceEPKc+0x2a0>
   3680c: c1 fe ff b0  	adrp	x1, 0xf000 <_ZN11ChiMetadata12AddReferenceEPKc+0x1d8>
   36810: 82 fe ff b0  	adrp	x2, 0x7000 <_ZN11ChiMetadata12AddReferenceEPKc+0x1bc>
   36814: c5 fe ff d0  	adrp	x5, 0x10000 <_ZN11ChiMetadata12AddReferenceEPKc+0x1e4>
   36854: c0 fe ff 90  	adrp	x0, 0xe000 <_ZN11ChiMetadata12AddReferenceEPKc+0x21c>
   36858: a1 fe ff d0  	adrp	x1, 0xc000 <_ZN11ChiMetadata12AddReferenceEPKc+0x218>
   3685c: c3 fe ff d0  	adrp	x3, 0x10000 <_ZN11ChiMetadata12AddReferenceEPKc+0x22c>
   36860: 85 fe ff b0  	adrp	x5, 0x7000 <_ZN11ChiMetadata12AddReferenceEPKc+0x20c>
   3687c: 85 1f 00 94  	bl	0x3e690 <_ZN6ChiLog9LogSystemEPKcS1_S1_S1_iS1_z@plt>
   36888: 60 00 00 54  	b.eq	0x36894 <_ZN11ChiMetadata12AddReferenceEPKc+0x2fc>
   3688c: 7d 20 00 94  	bl	0x3ea80 <_ZNSt3__16chrono12steady_clock3nowEv@plt>
   368a4: c1 00 00 54  	b.ne	0x368bc <_ZN11ChiMetadata12AddReferenceEPKc+0x324>
00000000000368c0 <_ZN11ChiMetadata16ReleaseReferenceEPKc>:
   36908: d3 18 00 b4  	cbz	x19, 0x36c20 <_ZN11ChiMetadata16ReleaseReferenceEPKc+0x360>
   3690c: a0 18 00 35  	cbnz	w0, 0x36c20 <_ZN11ChiMetadata16ReleaseReferenceEPKc+0x360>
   36918: 40 0b 00 54  	b.eq	0x36a80 <_ZN11ChiMetadata16ReleaseReferenceEPKc+0x1c0>
   36924: 20 0b 00 54  	b.eq	0x36a88 <_ZN11ChiMetadata16ReleaseReferenceEPKc+0x1c8>
   36930: 00 0b 00 54  	b.eq	0x36a90 <_ZN11ChiMetadata16ReleaseReferenceEPKc+0x1d0>
   3693c: e0 0a 00 54  	b.eq	0x36a98 <_ZN11ChiMetadata16ReleaseReferenceEPKc+0x1d8>
   36948: c0 0a 00 54  	b.eq	0x36aa0 <_ZN11ChiMetadata16ReleaseReferenceEPKc+0x1e0>
   36954: a0 0a 00 54  	b.eq	0x36aa8 <_ZN11ChiMetadata16ReleaseReferenceEPKc+0x1e8>
   36960: 80 0a 00 54  	b.eq	0x36ab0 <_ZN11ChiMetadata16ReleaseReferenceEPKc+0x1f0>
   3696c: 60 0a 00 54  	b.eq	0x36ab8 <_ZN11ChiMetadata16ReleaseReferenceEPKc+0x1f8>
   36978: 40 0a 00 54  	b.eq	0x36ac0 <_ZN11ChiMetadata16ReleaseReferenceEPKc+0x200>
   36984: 20 0a 00 54  	b.eq	0x36ac8 <_ZN11ChiMetadata16ReleaseReferenceEPKc+0x208>
   36990: 00 0a 00 54  	b.eq	0x36ad0 <_ZN11ChiMetadata16ReleaseReferenceEPKc+0x210>
   3699c: e0 09 00 54  	b.eq	0x36ad8 <_ZN11ChiMetadata16ReleaseReferenceEPKc+0x218>
   369a8: c0 09 00 54  	b.eq	0x36ae0 <_ZN11ChiMetadata16ReleaseReferenceEPKc+0x220>
   369b4: a0 09 00 54  	b.eq	0x36ae8 <_ZN11ChiMetadata16ReleaseReferenceEPKc+0x228>
   369c0: 80 09 00 54  	b.eq	0x36af0 <_ZN11ChiMetadata16ReleaseReferenceEPKc+0x230>
   369cc: 60 09 00 54  	b.eq	0x36af8 <_ZN11ChiMetadata16ReleaseReferenceEPKc+0x238>
   369d8: 40 09 00 54  	b.eq	0x36b00 <_ZN11ChiMetadata16ReleaseReferenceEPKc+0x240>
   369e4: 20 09 00 54  	b.eq	0x36b08 <_ZN11ChiMetadata16ReleaseReferenceEPKc+0x248>
   369f0: 00 09 00 54  	b.eq	0x36b10 <_ZN11ChiMetadata16ReleaseReferenceEPKc+0x250>
   369fc: e0 08 00 54  	b.eq	0x36b18 <_ZN11ChiMetadata16ReleaseReferenceEPKc+0x258>
   36a08: c0 08 00 54  	b.eq	0x36b20 <_ZN11ChiMetadata16ReleaseReferenceEPKc+0x260>
   36a14: a0 08 00 54  	b.eq	0x36b28 <_ZN11ChiMetadata16ReleaseReferenceEPKc+0x268>
   36a20: 80 08 00 54  	b.eq	0x36b30 <_ZN11ChiMetadata16ReleaseReferenceEPKc+0x270>
   36a2c: 60 08 00 54  	b.eq	0x36b38 <_ZN11ChiMetadata16ReleaseReferenceEPKc+0x278>
   36a38: 40 08 00 54  	b.eq	0x36b40 <_ZN11ChiMetadata16ReleaseReferenceEPKc+0x280>
   36a44: 20 08 00 54  	b.eq	0x36b48 <_ZN11ChiMetadata16ReleaseReferenceEPKc+0x288>
   36a50: 00 08 00 54  	b.eq	0x36b50 <_ZN11ChiMetadata16ReleaseReferenceEPKc+0x290>
   36a5c: e0 07 00 54  	b.eq	0x36b58 <_ZN11ChiMetadata16ReleaseReferenceEPKc+0x298>
   36a68: c0 07 00 54  	b.eq	0x36b60 <_ZN11ChiMetadata16ReleaseReferenceEPKc+0x2a0>
   36a74: a1 07 00 54  	b.ne	0x36b68 <_ZN11ChiMetadata16ReleaseReferenceEPKc+0x2a8>
   36a7c: 3a 00 00 14  	b	0x36b64 <_ZN11ChiMetadata16ReleaseReferenceEPKc+0x2a4>
   36a84: 38 00 00 14  	b	0x36b64 <_ZN11ChiMetadata16ReleaseReferenceEPKc+0x2a4>
   36a8c: 36 00 00 14  	b	0x36b64 <_ZN11ChiMetadata16ReleaseReferenceEPKc+0x2a4>
   36a94: 34 00 00 14  	b	0x36b64 <_ZN11ChiMetadata16ReleaseReferenceEPKc+0x2a4>
   36a9c: 32 00 00 14  	b	0x36b64 <_ZN11ChiMetadata16ReleaseReferenceEPKc+0x2a4>
   36aa4: 30 00 00 14  	b	0x36b64 <_ZN11ChiMetadata16ReleaseReferenceEPKc+0x2a4>
   36aac: 2e 00 00 14  	b	0x36b64 <_ZN11ChiMetadata16ReleaseReferenceEPKc+0x2a4>
   36ab4: 2c 00 00 14  	b	0x36b64 <_ZN11ChiMetadata16ReleaseReferenceEPKc+0x2a4>
   36abc: 2a 00 00 14  	b	0x36b64 <_ZN11ChiMetadata16ReleaseReferenceEPKc+0x2a4>
   36ac4: 28 00 00 14  	b	0x36b64 <_ZN11ChiMetadata16ReleaseReferenceEPKc+0x2a4>
   36acc: 26 00 00 14  	b	0x36b64 <_ZN11ChiMetadata16ReleaseReferenceEPKc+0x2a4>
   36ad4: 24 00 00 14  	b	0x36b64 <_ZN11ChiMetadata16ReleaseReferenceEPKc+0x2a4>
   36adc: 22 00 00 14  	b	0x36b64 <_ZN11ChiMetadata16ReleaseReferenceEPKc+0x2a4>
   36ae4: 20 00 00 14  	b	0x36b64 <_ZN11ChiMetadata16ReleaseReferenceEPKc+0x2a4>
   36aec: 1e 00 00 14  	b	0x36b64 <_ZN11ChiMetadata16ReleaseReferenceEPKc+0x2a4>
   36af4: 1c 00 00 14  	b	0x36b64 <_ZN11ChiMetadata16ReleaseReferenceEPKc+0x2a4>
   36afc: 1a 00 00 14  	b	0x36b64 <_ZN11ChiMetadata16ReleaseReferenceEPKc+0x2a4>
   36b04: 18 00 00 14  	b	0x36b64 <_ZN11ChiMetadata16ReleaseReferenceEPKc+0x2a4>
   36b0c: 16 00 00 14  	b	0x36b64 <_ZN11ChiMetadata16ReleaseReferenceEPKc+0x2a4>
   36b14: 14 00 00 14  	b	0x36b64 <_ZN11ChiMetadata16ReleaseReferenceEPKc+0x2a4>
   36b1c: 12 00 00 14  	b	0x36b64 <_ZN11ChiMetadata16ReleaseReferenceEPKc+0x2a4>
   36b24: 10 00 00 14  	b	0x36b64 <_ZN11ChiMetadata16ReleaseReferenceEPKc+0x2a4>
   36b2c: 0e 00 00 14  	b	0x36b64 <_ZN11ChiMetadata16ReleaseReferenceEPKc+0x2a4>
   36b34: 0c 00 00 14  	b	0x36b64 <_ZN11ChiMetadata16ReleaseReferenceEPKc+0x2a4>
   36b3c: 0a 00 00 14  	b	0x36b64 <_ZN11ChiMetadata16ReleaseReferenceEPKc+0x2a4>
   36b44: 08 00 00 14  	b	0x36b64 <_ZN11ChiMetadata16ReleaseReferenceEPKc+0x2a4>
   36b4c: 06 00 00 14  	b	0x36b64 <_ZN11ChiMetadata16ReleaseReferenceEPKc+0x2a4>
   36b54: 04 00 00 14  	b	0x36b64 <_ZN11ChiMetadata16ReleaseReferenceEPKc+0x2a4>
   36b5c: 02 00 00 14  	b	0x36b64 <_ZN11ChiMetadata16ReleaseReferenceEPKc+0x2a4>
   36b68: 48 00 00 b0  	adrp	x8, 0x3f000 <_ZN11ChiMetadata16ReleaseReferenceEPKc+0x2cc>
   36b74: 68 05 28 36  	tbz	w8, #5, 0x36c20 <_ZN11ChiMetadata16ReleaseReferenceEPKc+0x360>
   36b78: 49 00 00 b0  	adrp	x9, 0x3f000 <_ZN11ChiMetadata16ReleaseReferenceEPKc+0x2dc>
   36b7c: b5 fe ff d0  	adrp	x21, 0xc000 <_ZN11ChiMetadata16ReleaseReferenceEPKc+0x214>
   36b90: 41 02 00 54  	b.ne	0x36bd8 <_ZN11ChiMetadata16ReleaseReferenceEPKc+0x318>
   36bac: c1 fe ff b0  	adrp	x1, 0xf000 <_ZN11ChiMetadata16ReleaseReferenceEPKc+0x250>
   36bb0: c2 fe ff 90  	adrp	x2, 0xe000 <_ZN11ChiMetadata16ReleaseReferenceEPKc+0x250>
   36bb4: 85 fe ff f0  	adrp	x5, 0x9000 <_ZN11ChiMetadata16ReleaseReferenceEPKc+0x240>
   36bf4: c0 fe ff 90  	adrp	x0, 0xe000 <_ZN11ChiMetadata16ReleaseReferenceEPKc+0x294>
   36bf8: a1 fe ff d0  	adrp	x1, 0xc000 <_ZN11ChiMetadata16ReleaseReferenceEPKc+0x290>
   36bfc: 83 fe ff f0  	adrp	x3, 0x9000 <_ZN11ChiMetadata16ReleaseReferenceEPKc+0x288>
   36c00: a5 fe ff d0  	adrp	x5, 0xc000 <_ZN11ChiMetadata16ReleaseReferenceEPKc+0x298>
   36c1c: 9d 1e 00 94  	bl	0x3e690 <_ZN6ChiLog9LogSystemEPKcS1_S1_S1_iS1_z@plt>
   36c30: c1 00 00 54  	b.ne	0x36c48 <_ZN11ChiMetadata16ReleaseReferenceEPKc+0x388>
0000000000036c50 <_ZN11ChiMetadata20ReleaseAllReferencesEi>:
0000000000036c60 <_ZN11ChiMetadata8IteratorC2ERS_>:
0000000000036c80 <_ZN11ChiMetadata8IteratorD2Ev>:
0000000000036c90 <_ZN11ChiMetadata8Iterator5BeginEv>:
0000000000036cb8 <_ZN11ChiMetadata8Iterator4NextEv>:
0000000000036ce0 <_ZN11ChiMetadata8Iterator3GetER16ChiMetadataEntry>:
0000000000036d08 <_ZN11ChiMetadata19DumpAndroidMetadataEPK15camera_metadataPKc>:
   36d14: 40 02 00 b4  	cbz	x0, 0x36d5c <_ZN11ChiMetadata19DumpAndroidMetadataEPK15camera_metadataPKc+0x54>
   36d18: 21 02 00 b4  	cbz	x1, 0x36d5c <_ZN11ChiMetadata19DumpAndroidMetadataEPK15camera_metadataPKc+0x54>
   36d34: 40 01 f8 37  	tbnz	w0, #31, 0x36d5c <_ZN11ChiMetadata19DumpAndroidMetadataEPK15camera_metadataPKc+0x54>
0000000000036d68 <_ZN18ChiMetadataManager10MetaClientC2Ev>:
   36e14: a3 fb ff 54  	b.lo	0x36d88 <_ZN18ChiMetadataManager10MetaClientC2Ev+0x20>
0000000000036ed0 <_ZN18ChiMetadataManager10MetaClientD2Ev>:
   36ee0: e4 1f 00 94  	bl	0x3ee70 <_ZN18ChiMetadataManager10MetaClient14ReleaseBuffersEv@plt>
   36ee8: a0 00 00 b4  	cbz	x0, 0x36efc <_ZN18ChiMetadataManager10MetaClientD2Ev+0x2c>
   36ef8: b4 ff ff b5  	cbnz	x20, 0x36eec <_ZN18ChiMetadataManager10MetaClientD2Ev+0x1c>
   36f04: 40 00 00 b4  	cbz	x0, 0x36f0c <_ZN18ChiMetadataManager10MetaClientD2Ev+0x3c>
   36f10: 2c 1e 00 94  	bl	0x3e7c0 <_ZNSt3__15mutexD1Ev@plt>
   36f18: a0 00 00 b4  	cbz	x0, 0x36f2c <_ZN18ChiMetadataManager10MetaClientD2Ev+0x5c>
0000000000036f38 <_ZN18ChiMetadataManager10MetaClient14ReleaseBuffersEv>:
   36f58: 5c 00 00 b0  	adrp	x28, 0x3f000 <_ZN18ChiMetadataManager10MetaClient14ReleaseBuffersEv+0x44>
   36f5c: bb fe ff d0  	adrp	x27, 0xc000 <_ZN18ChiMetadataManager10MetaClientC2Ev+0x14c>
   36f70: a9 06 18 36  	tbz	w9, #3, 0x37044 <_ZN18ChiMetadataManager10MetaClient14ReleaseBuffersEv+0x10c>
   36f74: 49 00 00 b0  	adrp	x9, 0x3f000 <_ZN18ChiMetadataManager10MetaClient14ReleaseBuffersEv+0x60>
   36f84: 01 03 00 54  	b.ne	0x36fe4 <_ZN18ChiMetadataManager10MetaClient14ReleaseBuffersEv+0xac>
   36fa0: c1 fe ff b0  	adrp	x1, 0xf000 <_ZN18ChiMetadataManager10MetaClientD2Ev+0x34>
   36fa8: 82 fe ff f0  	adrp	x2, 0x9000 <_ZN18ChiMetadataManager10MetaClientD2Ev+0x24>
   36fb0: 85 fe ff d0  	adrp	x5, 0x8000 <_ZN18ChiMetadataManager10MetaClientD2Ev+0x28>
   36ffc: a1 fe ff d0  	adrp	x1, 0xc000 <_ZN18ChiMetadataManager10MetaClient14ReleaseBuffersEv+0x1c>
   3700c: c0 fe ff 90  	adrp	x0, 0xf000 <_ZN18ChiMetadataManager10MetaClient14ReleaseBuffersEv+0x34>
   37010: 83 fe ff b0  	adrp	x3, 0x8000 <_ZN18ChiMetadataManager10MetaClient14ReleaseBuffersEv+0x1c>
   37014: c5 fe ff b0  	adrp	x5, 0x10000 <_ZN18ChiMetadataManager10MetaClient14ReleaseBuffersEv+0x40>
   37040: 94 1d 00 94  	bl	0x3e690 <_ZN6ChiLog9LogSystemEPKcS1_S1_S1_iS1_z@plt>
   3704c: 61 01 00 54  	b.ne	0x37078 <_ZN18ChiMetadataManager10MetaClient14ReleaseBuffersEv+0x140>
   3708c: 09 00 00 14  	b	0x370b0 <_ZN18ChiMetadataManager10MetaClient14ReleaseBuffersEv+0x178>
   370ac: 42 fd ff 54  	b.hs	0x37054 <_ZN18ChiMetadataManager10MetaClient14ReleaseBuffersEv+0x11c>
   370b8: d3 fe ff b4  	cbz	x19, 0x37090 <_ZN18ChiMetadataManager10MetaClient14ReleaseBuffersEv+0x158>
   370d0: 00 0b 00 34  	cbz	w0, 0x37230 <_ZN18ChiMetadataManager10MetaClient14ReleaseBuffersEv+0x2f8>
   370dc: 88 05 00 36  	tbz	w8, #0, 0x3718c <_ZN18ChiMetadataManager10MetaClient14ReleaseBuffersEv+0x254>
   370e0: 4a 00 00 90  	adrp	x10, 0x3f000 <_ZN18ChiMetadataManager10MetaClient14ReleaseBuffersEv+0x1c8>
   370f0: 61 02 00 54  	b.ne	0x3713c <_ZN18ChiMetadataManager10MetaClient14ReleaseBuffersEv+0x204>
   3710c: c1 fe ff 90  	adrp	x1, 0xf000 <_ZN18ChiMetadataManager10MetaClient14ReleaseBuffersEv+0x134>
   37110: 82 fe ff d0  	adrp	x2, 0x9000 <_ZN18ChiMetadataManager10MetaClient14ReleaseBuffersEv+0x120>
   37114: a5 fe ff b0  	adrp	x5, 0xc000 <_ZN18ChiMetadataManager10MetaClient14ReleaseBuffersEv+0x130>
   37158: 80 fe ff b0  	adrp	x0, 0x8000 <_ZN18ChiMetadataManager10MetaClient14ReleaseBuffersEv+0x164>
   3715c: a1 fe ff f0  	adrp	x1, 0xe000 <_ZN18ChiMetadataManager10MetaClient14ReleaseBuffersEv+0x180>
   37160: a3 fe ff b0  	adrp	x3, 0xc000 <_ZN18ChiMetadataManager10MetaClient14ReleaseBuffersEv+0x17c>
   37164: 85 fe ff d0  	adrp	x5, 0x9000 <_ZN18ChiMetadataManager10MetaClient14ReleaseBuffersEv+0x174>
   37184: 43 1d 00 94  	bl	0x3e690 <_ZN6ChiLog9LogSystemEPKcS1_S1_S1_iS1_z@plt>
   3718c: 48 f8 07 36  	tbz	w8, #0, 0x37094 <_ZN18ChiMetadataManager10MetaClient14ReleaseBuffersEv+0x15c>
   37190: 48 00 00 90  	adrp	x8, 0x3f000 <_ZN18ChiMetadataManager10MetaClient14ReleaseBuffersEv+0x278>
   371a4: 21 02 00 54  	b.ne	0x371e8 <_ZN18ChiMetadataManager10MetaClient14ReleaseBuffersEv+0x2b0>
   371bc: c1 fe ff 90  	adrp	x1, 0xf000 <_ZN18ChiMetadataManager10MetaClient14ReleaseBuffersEv+0x1e4>
   371c0: 82 fe ff f0  	adrp	x2, 0xa000 <_ZN18ChiMetadataManager10MetaClient14ReleaseBuffersEv+0x1d4>
   371c4: 85 fe ff b0  	adrp	x5, 0x8000 <_ZN18ChiMetadataManager10MetaClient14ReleaseBuffersEv+0x1d0>
   371fc: a1 fe ff f0  	adrp	x1, 0xe000 <_ZN18ChiMetadataManager10MetaClient14ReleaseBuffersEv+0x220>
   37204: 80 fe ff b0  	adrp	x0, 0x8000 <_ZN18ChiMetadataManager10MetaClient14ReleaseBuffersEv+0x210>
   37208: 83 fe ff b0  	adrp	x3, 0x8000 <_ZN18ChiMetadataManager10MetaClient14ReleaseBuffersEv+0x214>
   3720c: a5 fe ff d0  	adrp	x5, 0xd000 <_ZN18ChiMetadataManager10MetaClient14ReleaseBuffersEv+0x22c>
   37228: 1a 1d 00 94  	bl	0x3e690 <_ZN6ChiLog9LogSystemEPKcS1_S1_S1_iS1_z@plt>
   3722c: 9a ff ff 17  	b	0x37094 <_ZN18ChiMetadataManager10MetaClient14ReleaseBuffersEv+0x15c>
   37240: 95 ff ff 17  	b	0x37094 <_ZN18ChiMetadataManager10MetaClient14ReleaseBuffersEv+0x15c>
0000000000037248 <_ZN18ChiMetadataManager10MetaClient12TrackBuffersERNSt3__16chrono10time_pointINS2_12steady_clockENS2_8durationIxNS1_5ratioILl1ELl1000000000EEEEEEEj>:
   37278: a0 00 00 54  	b.eq	0x3728c <_ZN18ChiMetadataManager10MetaClient12TrackBuffersERNSt3__16chrono10time_pointINS2_12steady_clockENS2_8durationIxNS1_5ratioILl1ELl1000000000EEEEEEEj+0x44>
   37288: a1 01 00 54  	b.ne	0x372bc <_ZN18ChiMetadataManager10MetaClient12TrackBuffersERNSt3__16chrono10time_pointINS2_12steady_clockENS2_8durationIxNS1_5ratioILl1ELl1000000000EEEEEEEj+0x74>
   37298: 01 12 00 54  	b.ne	0x374d8 <_ZN18ChiMetadataManager10MetaClient12TrackBuffersERNSt3__16chrono10time_pointINS2_12steady_clockENS2_8durationIxNS1_5ratioILl1ELl1000000000EEEEEEEj+0x290>
   372bc: 57 00 00 90  	adrp	x23, 0x3f000 <_ZN18ChiMetadataManager10MetaClient12TrackBuffersERNSt3__16chrono10time_pointINS2_12steady_clockENS2_8durationIxNS1_5ratioILl1ELl1000000000EEEEEEEj+0x94>
   372f0: 39 00 00 14  	b	0x373d4 <_ZN18ChiMetadataManager10MetaClient12TrackBuffersERNSt3__16chrono10time_pointINS2_12steady_clockENS2_8durationIxNS1_5ratioILl1ELl1000000000EEEEEEEj+0x18c>
   372f4: ba fe ff b0  	adrp	x26, 0xc000 <_ZN18ChiMetadataManager10MetaClient12TrackBuffersERNSt3__16chrono10time_pointINS2_12steady_clockENS2_8durationIxNS1_5ratioILl1ELl1000000000EEEEEEEj>
   37344: a0 fe ff f0  	adrp	x0, 0xe000 <_ZN18ChiMetadataManager10MetaClient12TrackBuffersERNSt3__16chrono10time_pointINS2_12steady_clockENS2_8durationIxNS1_5ratioILl1ELl1000000000EEEEEEEj+0x58>
   37348: a1 fe ff b0  	adrp	x1, 0xc000 <_ZN18ChiMetadataManager10MetaClient12TrackBuffersERNSt3__16chrono10time_pointINS2_12steady_clockENS2_8durationIxNS1_5ratioILl1ELl1000000000EEEEEEEj+0x54>
   3734c: 83 fe ff b0  	adrp	x3, 0x8000 <_ZN18ChiMetadataManager10MetaClient12TrackBuffersERNSt3__16chrono10time_pointINS2_12steady_clockENS2_8durationIxNS1_5ratioILl1ELl1000000000EEEEEEEj+0x48>
   37350: c5 fe ff b0  	adrp	x5, 0x10000 <_ZN18ChiMetadataManager10MetaClient12TrackBuffersERNSt3__16chrono10time_pointINS2_12steady_clockENS2_8durationIxNS1_5ratioILl1ELl1000000000EEEEEEEj+0x6c>
   3738c: c1 1c 00 94  	bl	0x3e690 <_ZN6ChiLog9LogSystemEPKcS1_S1_S1_iS1_z@plt>
   37390: 57 00 00 90  	adrp	x23, 0x3f000 <_ZN18ChiMetadataManager10MetaClient12TrackBuffersERNSt3__16chrono10time_pointINS2_12steady_clockENS2_8durationIxNS1_5ratioILl1ELl1000000000EEEEEEEj+0x168>
   373d0: e2 f5 ff 54  	b.hs	0x3728c <_ZN18ChiMetadataManager10MetaClient12TrackBuffersERNSt3__16chrono10time_pointINS2_12steady_clockENS2_8durationIxNS1_5ratioILl1ELl1000000000EEEEEEEj+0x44>
   373dc: 08 ff ff 35  	cbnz	w8, 0x373bc <_ZN18ChiMetadataManager10MetaClient12TrackBuffersERNSt3__16chrono10time_pointINS2_12steady_clockENS2_8durationIxNS1_5ratioILl1ELl1000000000EEEEEEEj+0x174>
   37420: e0 fc ff 54  	b.eq	0x373bc <_ZN18ChiMetadataManager10MetaClient12TrackBuffersERNSt3__16chrono10time_pointINS2_12steady_clockENS2_8durationIxNS1_5ratioILl1ELl1000000000EEEEEEEj+0x174>
   37428: 2a fc 2f 36  	tbz	w10, #5, 0x373ac <_ZN18ChiMetadataManager10MetaClient12TrackBuffersERNSt3__16chrono10time_pointINS2_12steady_clockENS2_8durationIxNS1_5ratioILl1ELl1000000000EEEEEEEj+0x164>
   3742c: 4a 00 00 90  	adrp	x10, 0x3f000 <_ZN18ChiMetadataManager10MetaClient12TrackBuffersERNSt3__16chrono10time_pointINS2_12steady_clockENS2_8durationIxNS1_5ratioILl1ELl1000000000EEEEEEEj+0x204>
   37440: a1 f5 ff 54  	b.ne	0x372f4 <_ZN18ChiMetadataManager10MetaClient12TrackBuffersERNSt3__16chrono10time_pointINS2_12steady_clockENS2_8durationIxNS1_5ratioILl1ELl1000000000EEEEEEEj+0xac>
   37444: b9 fe ff b0  	adrp	x25, 0xc000 <_ZN18ChiMetadataManager10MetaClient12TrackBuffersERNSt3__16chrono10time_pointINS2_12steady_clockENS2_8durationIxNS1_5ratioILl1ELl1000000000EEEEEEEj+0x150>
   37494: c1 fe ff 90  	adrp	x1, 0xf000 <_ZN18ChiMetadataManager10MetaClient12TrackBuffersERNSt3__16chrono10time_pointINS2_12steady_clockENS2_8durationIxNS1_5ratioILl1ELl1000000000EEEEEEEj+0x1ac>
   37498: a2 fe ff f0  	adrp	x2, 0xe000 <_ZN18ChiMetadataManager10MetaClient12TrackBuffersERNSt3__16chrono10time_pointINS2_12steady_clockENS2_8durationIxNS1_5ratioILl1ELl1000000000EEEEEEEj+0x1ac>
   3749c: 85 fe ff b0  	adrp	x5, 0x8000 <_ZN18ChiMetadataManager10MetaClient12TrackBuffersERNSt3__16chrono10time_pointINS2_12steady_clockENS2_8durationIxNS1_5ratioILl1ELl1000000000EEEEEEEj+0x198>
   374d4: 88 ff ff 17  	b	0x372f4 <_ZN18ChiMetadataManager10MetaClient12TrackBuffersERNSt3__16chrono10time_pointINS2_12steady_clockENS2_8durationIxNS1_5ratioILl1ELl1000000000EEEEEEEj+0xac>
00000000000374e0 <_ZN18ChiMetadataManager10MetaClient9SubClientC2Ev>:
00000000000374f0 <_ZN18ChiMetadataManager10MetaClient10MetaHolderC2EP11ChiMetadata>:
0000000000037500 <_ZN18ChiMetadataManager10MetaClient15AllocateBuffersEPjjjjj>:
   37520: 53 00 00 90  	adrp	x19, 0x3f000 <_ZN18ChiMetadataManager10MetaClient15AllocateBuffersEPjjjjj+0x40>
   37548: 43 1c 00 34  	cbz	w3, 0x378d0 <_ZN18ChiMetadataManager10MetaClient15AllocateBuffersEPjjjjj+0x3d0>
   37564: a2 21 00 54  	b.hs	0x37998 <_ZN18ChiMetadataManager10MetaClient15AllocateBuffersEPjjjjj+0x498>
   37580: 56 02 00 b4  	cbz	x22, 0x375c8 <_ZN18ChiMetadataManager10MetaClient15AllocateBuffersEPjjjjj+0xc8>
   37584: 39 02 00 34  	cbz	w25, 0x375c8 <_ZN18ChiMetadataManager10MetaClient15AllocateBuffersEPjjjjj+0xc8>
   37590: 70 00 00 14  	b	0x37750 <_ZN18ChiMetadataManager10MetaClient15AllocateBuffersEPjjjjj+0x250>
   375c4: a2 1f 00 54  	b.hs	0x379b8 <_ZN18ChiMetadataManager10MetaClient15AllocateBuffersEPjjjjj+0x4b8>
   375d8: 20 1f 00 b4  	cbz	x0, 0x379bc <_ZN18ChiMetadataManager10MetaClient15AllocateBuffersEPjjjjj+0x4bc>
   375e4: f3 1d 00 94  	bl	0x3edb0 <_ZN11ChiMetadata21InitializeMetadataOpsEP14ChiMetadataOps@plt>
   375e8: 00 1e 00 35  	cbnz	w0, 0x379a8 <_ZN18ChiMetadataManager10MetaClient15AllocateBuffersEPjjjjj+0x4a8>
   37648: 00 1b 00 35  	cbnz	w0, 0x379a8 <_ZN18ChiMetadataManager10MetaClient15AllocateBuffersEPjjjjj+0x4a8>
   3765c: c3 f9 ff 54  	b.lo	0x37594 <_ZN18ChiMetadataManager10MetaClient15AllocateBuffersEPjjjjj+0x94>
   37674: c2 28 00 b5  	cbnz	x2, 0x37b8c <_ZN18ChiMetadataManager10MetaClient15AllocateBuffersEPjjjjj+0x68c>
   37698: 1c 01 00 b4  	cbz	x28, 0x376b8 <_ZN18ChiMetadataManager10MetaClient15AllocateBuffersEPjjjjj+0x1b8>
   376a0: a9 27 00 b5  	cbnz	x9, 0x37b94 <_ZN18ChiMetadataManager10MetaClient15AllocateBuffersEPjjjjj+0x694>
   376b4: 02 00 00 14  	b	0x376bc <_ZN18ChiMetadataManager10MetaClient15AllocateBuffersEPjjjjj+0x1bc>
   376ec: ab 00 00 54  	b.lt	0x37700 <_ZN18ChiMetadataManager10MetaClient15AllocateBuffersEPjjjjj+0x200>
   3770c: 99 f5 ff b4  	cbz	x25, 0x375bc <_ZN18ChiMetadataManager10MetaClient15AllocateBuffersEPjjjjj+0xbc>
   37718: a9 ff ff 17  	b	0x375bc <_ZN18ChiMetadataManager10MetaClient15AllocateBuffersEPjjjjj+0xbc>
   3774c: 62 13 00 54  	b.hs	0x379b8 <_ZN18ChiMetadataManager10MetaClient15AllocateBuffersEPjjjjj+0x4b8>
   37760: e0 12 00 b4  	cbz	x0, 0x379bc <_ZN18ChiMetadataManager10MetaClient15AllocateBuffersEPjjjjj+0x4bc>
   3776c: 91 1d 00 94  	bl	0x3edb0 <_ZN11ChiMetadata21InitializeMetadataOpsEP14ChiMetadataOps@plt>
   37770: c0 11 00 35  	cbnz	w0, 0x379a8 <_ZN18ChiMetadataManager10MetaClient15AllocateBuffersEPjjjjj+0x4a8>
   377d4: a0 0e 00 35  	cbnz	w0, 0x379a8 <_ZN18ChiMetadataManager10MetaClient15AllocateBuffersEPjjjjj+0x4a8>
   377e8: a3 f9 ff 54  	b.lo	0x3771c <_ZN18ChiMetadataManager10MetaClient15AllocateBuffersEPjjjjj+0x21c>
   37808: 2f 1c 00 b5  	cbnz	x15, 0x37b8c <_ZN18ChiMetadataManager10MetaClient15AllocateBuffersEPjjjjj+0x68c>
   37834: 19 01 00 b4  	cbz	x25, 0x37854 <_ZN18ChiMetadataManager10MetaClient15AllocateBuffersEPjjjjj+0x354>
   3783c: c6 1a 00 b5  	cbnz	x6, 0x37b94 <_ZN18ChiMetadataManager10MetaClient15AllocateBuffersEPjjjjj+0x694>
   37850: 02 00 00 14  	b	0x37858 <_ZN18ChiMetadataManager10MetaClient15AllocateBuffersEPjjjjj+0x358>
   37884: ab 00 00 54  	b.lt	0x37898 <_ZN18ChiMetadataManager10MetaClient15AllocateBuffersEPjjjjj+0x398>
   378c0: 3b f4 ff b4  	cbz	x27, 0x37744 <_ZN18ChiMetadataManager10MetaClient15AllocateBuffersEPjjjjj+0x244>
   378cc: 9e ff ff 17  	b	0x37744 <_ZN18ChiMetadataManager10MetaClient15AllocateBuffersEPjjjjj+0x244>
   378d4: e6 05 00 36  	tbz	w6, #0, 0x37990 <_ZN18ChiMetadataManager10MetaClient15AllocateBuffersEPjjjjj+0x490>
   378d8: 43 00 00 90  	adrp	x3, 0x3f000 <_ZN18ChiMetadataManager10MetaClient15AllocateBuffersEPjjjjj+0x3f8>
   378e8: a1 02 00 54  	b.ne	0x3793c <_ZN18ChiMetadataManager10MetaClient15AllocateBuffersEPjjjjj+0x43c>
   378ec: bb fe ff b0  	adrp	x27, 0xc000 <_ZN18ChiMetadataManager10MetaClient15AllocateBuffersEPjjjjj+0x340>
   37908: c1 fe ff 90  	adrp	x1, 0xf000 <_ZN18ChiMetadataManager10MetaClient15AllocateBuffersEPjjjjj+0x368>
   3790c: a2 fe ff b0  	adrp	x2, 0xc000 <_ZN18ChiMetadataManager10MetaClient15AllocateBuffersEPjjjjj+0x360>
   37910: 85 fe ff d0  	adrp	x5, 0x9000 <_ZN18ChiMetadataManager10MetaClient15AllocateBuffersEPjjjjj+0x358>
   3793c: bc fe ff b0  	adrp	x28, 0xc000 <_ZN18ChiMetadataManager10MetaClient15AllocateBuffersEPjjjjj+0x390>
   37958: a1 fe ff f0  	adrp	x1, 0xe000 <_ZN18ChiMetadataManager10MetaClient15AllocateBuffersEPjjjjj+0x3b4>
   37960: 80 fe ff b0  	adrp	x0, 0x8000 <_ZN18ChiMetadataManager10MetaClient15AllocateBuffersEPjjjjj+0x3a4>
   37964: 83 fe ff d0  	adrp	x3, 0x9000 <_ZN18ChiMetadataManager10MetaClient15AllocateBuffersEPjjjjj+0x3ac>
   37968: a5 fe ff f0  	adrp	x5, 0xe000 <_ZN18ChiMetadataManager10MetaClient15AllocateBuffersEPjjjjj+0x3c4>
   3798c: 41 1b 00 94  	bl	0x3e690 <_ZN6ChiLog9LogSystemEPKcS1_S1_S1_iS1_z@plt>
   37994: 3a 00 00 14  	b	0x37a7c <_ZN18ChiMetadataManager10MetaClient15AllocateBuffersEPjjjjj+0x57c>
   379a0: a5 01 18 37  	tbnz	w5, #3, 0x379d4 <_ZN18ChiMetadataManager10MetaClient15AllocateBuffersEPjjjjj+0x4d4>
   379a4: 36 00 00 14  	b	0x37a7c <_ZN18ChiMetadataManager10MetaClient15AllocateBuffersEPjjjjj+0x57c>
   379b4: 02 00 00 14  	b	0x379bc <_ZN18ChiMetadataManager10MetaClient15AllocateBuffersEPjjjjj+0x4bc>
   379bc: 53 00 00 90  	adrp	x19, 0x3f000 <_ZN18ChiMetadataManager10MetaClient15AllocateBuffersEPjjjjj+0x4dc>
   379d0: 65 05 18 36  	tbz	w5, #3, 0x37a7c <_ZN18ChiMetadataManager10MetaClient15AllocateBuffersEPjjjjj+0x57c>
   379d4: 42 00 00 90  	adrp	x2, 0x3f000 <_ZN18ChiMetadataManager10MetaClient15AllocateBuffersEPjjjjj+0x4f4>
   379d8: b9 fe ff b0  	adrp	x25, 0xc000 <_ZN18ChiMetadataManager10MetaClient15AllocateBuffersEPjjjjj+0x42c>
   379ec: 41 02 00 54  	b.ne	0x37a34 <_ZN18ChiMetadataManager10MetaClient15AllocateBuffersEPjjjjj+0x534>
   37a04: c1 fe ff 90  	adrp	x1, 0xf000 <_ZN18ChiMetadataManager10MetaClient15AllocateBuffersEPjjjjj+0x464>
   37a08: 82 fe ff b0  	adrp	x2, 0x8000 <_ZN18ChiMetadataManager10MetaClient15AllocateBuffersEPjjjjj+0x44c>
   37a0c: 85 fe ff d0  	adrp	x5, 0x9000 <_ZN18ChiMetadataManager10MetaClient15AllocateBuffersEPjjjjj+0x454>
   37a48: a1 fe ff b0  	adrp	x1, 0xc000 <_ZN18ChiMetadataManager10MetaClient15AllocateBuffersEPjjjjj+0x49c>
   37a50: c0 fe ff 90  	adrp	x0, 0xf000 <_ZN18ChiMetadataManager10MetaClient15AllocateBuffersEPjjjjj+0x4b0>
   37a54: 83 fe ff d0  	adrp	x3, 0x9000 <_ZN18ChiMetadataManager10MetaClient15AllocateBuffersEPjjjjj+0x49c>
   37a58: 85 fe ff f0  	adrp	x5, 0xa000 <_ZN18ChiMetadataManager10MetaClient15AllocateBuffersEPjjjjj+0x4a4>
   37a78: 06 1b 00 94  	bl	0x3e690 <_ZN6ChiLog9LogSystemEPKcS1_S1_S1_iS1_z@plt>
   37a80: c7 01 18 37  	tbnz	w7, #3, 0x37ab8 <_ZN18ChiMetadataManager10MetaClient15AllocateBuffersEPjjjjj+0x5b8>
   37a90: c1 07 00 54  	b.ne	0x37b88 <_ZN18ChiMetadataManager10MetaClient15AllocateBuffersEPjjjjj+0x688>
   37ab8: 44 00 00 90  	adrp	x4, 0x3f000 <_ZN18ChiMetadataManager10MetaClient15AllocateBuffersEPjjjjj+0x5d8>
   37ac8: c1 02 00 54  	b.ne	0x37b20 <_ZN18ChiMetadataManager10MetaClient15AllocateBuffersEPjjjjj+0x620>
   37acc: b9 fe ff b0  	adrp	x25, 0xc000 <_ZN18ChiMetadataManager10MetaClient15AllocateBuffersEPjjjjj+0x520>
   37aec: c1 fe ff 90  	adrp	x1, 0xf000 <_ZN18ChiMetadataManager10MetaClient15AllocateBuffersEPjjjjj+0x54c>
   37af0: 82 fe ff f0  	adrp	x2, 0xa000 <_ZN18ChiMetadataManager10MetaClient15AllocateBuffersEPjjjjj+0x53c>
   37af4: 85 fe ff d0  	adrp	x5, 0x9000 <_ZN18ChiMetadataManager10MetaClient15AllocateBuffersEPjjjjj+0x53c>
   37b20: bc fe ff b0  	adrp	x28, 0xc000 <_ZN18ChiMetadataManager10MetaClient15AllocateBuffersEPjjjjj+0x574>
   37b40: a1 fe ff b0  	adrp	x1, 0xc000 <_ZN18ChiMetadataManager10MetaClient15AllocateBuffersEPjjjjj+0x594>
   37b48: c0 fe ff 90  	adrp	x0, 0xf000 <_ZN18ChiMetadataManager10MetaClient15AllocateBuffersEPjjjjj+0x5a8>
   37b4c: 83 fe ff d0  	adrp	x3, 0x9000 <_ZN18ChiMetadataManager10MetaClient15AllocateBuffersEPjjjjj+0x594>
   37b50: a5 fe ff f0  	adrp	x5, 0xe000 <_ZN18ChiMetadataManager10MetaClient15AllocateBuffersEPjjjjj+0x5ac>
   37b74: c7 1a 00 94  	bl	0x3e690 <_ZN6ChiLog9LogSystemEPKcS1_S1_S1_iS1_z@plt>
   37b84: 80 f8 ff 54  	b.eq	0x37a94 <_ZN18ChiMetadataManager10MetaClient15AllocateBuffersEPjjjjj+0x594>
   37b90: 50 1b 00 94  	bl	0x3e8d0 <_ZNKSt3__120__vector_base_commonILb1EE20__throw_length_errorEv@plt>
0000000000037b98 <_ZN18ChiMetadataManager21AndroidMetadataHolderC2Ev>:
0000000000037ba8 <_ZN18ChiMetadataManager21AndroidMetadataHolderC2EP15camera_metadatabb>:
0000000000037bc0 <_ZN18ChiMetadataManager21AndroidMetadataHolderD2Ev>:
   37be0: e0 08 00 b4  	cbz	x0, 0x37cfc <_ZN18ChiMetadataManager21AndroidMetadataHolderD2Ev+0x13c>
   37be4: 48 00 00 90  	adrp	x8, 0x3f000 <_ZN18ChiMetadataManager21AndroidMetadataHolderD2Ev+0x44>
   37bf0: 08 08 18 36  	tbz	w8, #3, 0x37cf0 <_ZN18ChiMetadataManager21AndroidMetadataHolderD2Ev+0x130>
   37bf4: 49 00 00 90  	adrp	x9, 0x3f000 <_ZN18ChiMetadataManager21AndroidMetadataHolderD2Ev+0x54>
   37bf8: b4 fe ff b0  	adrp	x20, 0xc000 <_ZN18ChiMetadataManager10MetaClient15AllocateBuffersEPjjjjj+0x64c>
   37c0c: 81 03 00 54  	b.ne	0x37c7c <_ZN18ChiMetadataManager21AndroidMetadataHolderD2Ev+0xbc>
   37c44: c1 fe ff 90  	adrp	x1, 0xf000 <_ZN18ChiMetadataManager21AndroidMetadataHolderC2Ev+0xc>
   37c48: a2 fe ff b0  	adrp	x2, 0xc000 <_ZN18ChiMetadataManager21AndroidMetadataHolderC2Ev+0x4>
   37c4c: a5 fe ff 90  	adrp	x5, 0xb000 <_ZN18ChiMetadataManager21AndroidMetadataHolderC2Ev+0x4>
   37cb4: c0 fe ff 90  	adrp	x0, 0xf000 <_ZN18ChiMetadataManager21AndroidMetadataHolderD2Ev+0x54>
   37cb8: a1 fe ff b0  	adrp	x1, 0xc000 <_ZN18ChiMetadataManager21AndroidMetadataHolderD2Ev+0x4c>
   37cbc: a3 fe ff 90  	adrp	x3, 0xb000 <_ZN18ChiMetadataManager21AndroidMetadataHolderD2Ev+0x4c>
   37cc0: 85 fe ff d0  	adrp	x5, 0x9000 <_ZN18ChiMetadataManager21AndroidMetadataHolderD2Ev+0x48>
   37ce8: 6a 1a 00 94  	bl	0x3e690 <_ZN6ChiLog9LogSystemEPKcS1_S1_S1_iS1_z@plt>
   37cf0: 40 00 00 b4  	cbz	x0, 0x37cf8 <_ZN18ChiMetadataManager21AndroidMetadataHolderD2Ev+0x138>
0000000000037d18 <_ZN18ChiMetadataManager6CreateEjj>:
   37fa0: a3 f3 ff 54  	b.lo	0x37e14 <_ZN18ChiMetadataManager6CreateEjj+0xfc>
   38084: c1 eb ff 54  	b.ne	0x37dfc <_ZN18ChiMetadataManager6CreateEjj+0xe4>
   38114: 27 1b 00 94  	bl	0x3edb0 <_ZN11ChiMetadata21InitializeMetadataOpsEP14ChiMetadataOps@plt>
   38118: 80 00 00 35  	cbnz	w0, 0x38128 <_ZN18ChiMetadataManager6CreateEjj+0x410>
   38120: 58 1b 00 94  	bl	0x3ee80 <_ZN18ChiMetadataManager10InitializeEv@plt>
   38124: c0 00 00 34  	cbz	w0, 0x3813c <_ZN18ChiMetadataManager6CreateEjj+0x424>
   3812c: 59 1b 00 94  	bl	0x3ee90 <_ZN18ChiMetadataManagerD2Ev@plt>
0000000000038160 <_ZN18ChiMetadataManager10InitializeEv>:
   381ac: 80 3b 00 35  	cbnz	w0, 0x3891c <_ZN18ChiMetadataManager10InitializeEv+0x7bc>
   381b4: 4f 3b 00 34  	cbz	w15, 0x3891c <_ZN18ChiMetadataManager10InitializeEv+0x7bc>
   38200: 88 17 00 34  	cbz	w8, 0x384f0 <_ZN18ChiMetadataManager10InitializeEv+0x390>
   38214: 14 00 00 14  	b	0x38264 <_ZN18ChiMetadataManager10InitializeEv+0x104>
   38228: 67 04 00 b4  	cbz	x7, 0x382b4 <_ZN18ChiMetadataManager10InitializeEv+0x154>
   38260: 82 14 00 54  	b.hs	0x384f0 <_ZN18ChiMetadataManager10InitializeEv+0x390>
   38270: f4 01 00 b4  	cbz	x20, 0x382ac <_ZN18ChiMetadataManager10InitializeEv+0x14c>
   38288: 69 03 00 54  	b.ls	0x382f4 <_ZN18ChiMetadataManager10InitializeEv+0x194>
   382a4: 37 03 00 b5  	cbnz	x23, 0x38308 <_ZN18ChiMetadataManager10InitializeEv+0x1a8>
   382a8: 36 00 00 14  	b	0x38380 <_ZN18ChiMetadataManager10InitializeEv+0x220>
   382b0: 34 00 00 14  	b	0x38380 <_ZN18ChiMetadataManager10InitializeEv+0x220>
   382cc: 80 fb ff b4  	cbz	x0, 0x3823c <_ZN18ChiMetadataManager10InitializeEv+0xdc>
   382dc: 40 0f 00 54  	b.eq	0x384c4 <_ZN18ChiMetadataManager10InitializeEv+0x364>
   382e4: 23 0f 00 54  	b.lo	0x384c8 <_ZN18ChiMetadataManager10InitializeEv+0x368>
   382f0: 76 00 00 14  	b	0x384c8 <_ZN18ChiMetadataManager10InitializeEv+0x368>
   38304: f7 03 00 b4  	cbz	x23, 0x38380 <_ZN18ChiMetadataManager10InitializeEv+0x220>
   3830c: 68 02 00 54  	b.hi	0x38358 <_ZN18ChiMetadataManager10InitializeEv+0x1f8>
   38318: 57 03 00 b4  	cbz	x23, 0x38380 <_ZN18ChiMetadataManager10InitializeEv+0x220>
   3832c: a1 02 00 54  	b.ne	0x38380 <_ZN18ChiMetadataManager10InitializeEv+0x220>
   38338: e1 fe ff 54  	b.ne	0x38314 <_ZN18ChiMetadataManager10InitializeEv+0x1b4>
   38340: c3 ff ff 17  	b	0x3824c <_ZN18ChiMetadataManager10InitializeEv+0xec>
   38348: c1 01 00 54  	b.ne	0x38380 <_ZN18ChiMetadataManager10InitializeEv+0x220>
   38354: 40 ff ff 54  	b.eq	0x3833c <_ZN18ChiMetadataManager10InitializeEv+0x1dc>
   3835c: 37 01 00 b4  	cbz	x23, 0x38380 <_ZN18ChiMetadataManager10InitializeEv+0x220>
   38368: 20 ff ff 54  	b.eq	0x3834c <_ZN18ChiMetadataManager10InitializeEv+0x1ec>
   38370: a3 fe ff 54  	b.lo	0x38344 <_ZN18ChiMetadataManager10InitializeEv+0x1e4>
   3837c: f2 ff ff 17  	b	0x38344 <_ZN18ChiMetadataManager10InitializeEv+0x1e4>
   383b4: b4 00 00 b4  	cbz	x20, 0x383c8 <_ZN18ChiMetadataManager10InitializeEv+0x268>
   383c4: e5 f2 ff 54  	b.pl	0x38220 <_ZN18ChiMetadataManager10InitializeEv+0xc0>
   383f8: 61 00 00 54  	b.ne	0x38404 <_ZN18ChiMetadataManager10InitializeEv+0x2a4>
   38400: 07 00 00 14  	b	0x3841c <_ZN18ChiMetadataManager10InitializeEv+0x2bc>
   38408: a0 00 00 54  	b.eq	0x3841c <_ZN18ChiMetadataManager10InitializeEv+0x2bc>
   38410: 5c 19 00 94  	bl	0x3e980 <_ZNSt3__112__next_primeEm@plt>
   38420: a9 00 00 54  	b.ls	0x38434 <_ZN18ChiMetadataManager10InitializeEv+0x2d4>
   3842c: 5b 16 00 94  	bl	0x3dd98 <_ZN18ChiMetadataManager15PrintAllBuffersEj+0x48>
   38430: 1a 00 00 14  	b	0x38498 <_ZN18ChiMetadataManager10InitializeEv+0x338>
   38434: 22 03 00 54  	b.hs	0x38498 <_ZN18ChiMetadataManager10InitializeEv+0x338>
   38450: 23 04 00 54  	b.lo	0x384d4 <_ZN18ChiMetadataManager10InitializeEv+0x374>
   38468: 68 03 00 54  	b.hi	0x384d4 <_ZN18ChiMetadataManager10InitializeEv+0x374>
   38494: a3 02 00 54  	b.lo	0x384e8 <_ZN18ChiMetadataManager10InitializeEv+0x388>
   384a4: a0 eb ff 54  	b.eq	0x38218 <_ZN18ChiMetadataManager10InitializeEv+0xb8>
   384ac: 69 00 00 54  	b.ls	0x384b8 <_ZN18ChiMetadataManager10InitializeEv+0x358>
   384b4: 5b ff ff 17  	b	0x38220 <_ZN18ChiMetadataManager10InitializeEv+0xc0>
   384c0: 58 ff ff 17  	b	0x38220 <_ZN18ChiMetadataManager10InitializeEv+0xc0>
   384d0: 5b ff ff 17  	b	0x3823c <_ZN18ChiMetadataManager10InitializeEv+0xdc>
   384d4: 2b 19 00 94  	bl	0x3e980 <_ZNSt3__112__next_primeEm@plt>
   384e4: a2 fd ff 54  	b.hs	0x38498 <_ZN18ChiMetadataManager10InitializeEv+0x338>
   384ec: d0 ff ff 17  	b	0x3842c <_ZN18ChiMetadataManager10InitializeEv+0x2cc>
   384f0: f5 20 00 35  	cbnz	w21, 0x3890c <_ZN18ChiMetadataManager10InitializeEv+0x7ac>
   38518: a8 04 00 54  	b.hi	0x385ac <_ZN18ChiMetadataManager10InitializeEv+0x44c>
   3853c: e0 02 00 54  	b.eq	0x38598 <_ZN18ChiMetadataManager10InitializeEv+0x438>
   38560: 41 ff ff 54  	b.ne	0x38548 <_ZN18ChiMetadataManager10InitializeEv+0x3e8>
   38574: 60 01 00 54  	b.eq	0x385a0 <_ZN18ChiMetadataManager10InitializeEv+0x440>
   38584: 47 1a 00 94  	bl	0x3eea0 <_ZN18ChiMetadataManager21AndroidMetadataHolderD2Ev@plt>
   38590: 61 ff ff 54  	b.ne	0x3857c <_ZN18ChiMetadataManager10InitializeEv+0x41c>
   38594: 03 00 00 14  	b	0x385a0 <_ZN18ChiMetadataManager10InitializeEv+0x440>
   385a0: 75 00 00 b4  	cbz	x21, 0x385ac <_ZN18ChiMetadataManager10InitializeEv+0x44c>
   385bc: 68 0e 00 54  	b.hi	0x38788 <_ZN18ChiMetadataManager10InitializeEv+0x628>
   385d4: 69 0f 00 54  	b.ls	0x387c0 <_ZN18ChiMetadataManager10InitializeEv+0x660>
   38600: 08 20 00 b5  	cbnz	x8, 0x38a00 <_ZN18ChiMetadataManager10InitializeEv+0x8a0>
   38618: ea 10 00 54  	b.ge	0x38834 <_ZN18ChiMetadataManager10InitializeEv+0x6d4>
   386cc: a1 fb ff 54  	b.ne	0x38640 <_ZN18ChiMetadataManager10InitializeEv+0x4e0>
   386d0: ed 0b 00 b4  	cbz	x13, 0x3884c <_ZN18ChiMetadataManager10InitializeEv+0x6ec>
   386d8: 09 04 00 54  	b.ls	0x38758 <_ZN18ChiMetadataManager10InitializeEv+0x5f8>
   38754: cc 07 00 54  	b.gt	0x3884c <_ZN18ChiMetadataManager10InitializeEv+0x6ec>
   38780: 6b ff ff 54  	b.lt	0x3876c <_ZN18ChiMetadataManager10InitializeEv+0x60c>
   38784: 32 00 00 14  	b	0x3884c <_ZN18ChiMetadataManager10InitializeEv+0x6ec>
   3878c: c0 09 00 54  	b.eq	0x388c4 <_ZN18ChiMetadataManager10InitializeEv+0x764>
   38798: 00 01 00 54  	b.eq	0x387b8 <_ZN18ChiMetadataManager10InitializeEv+0x658>
   387a8: be 19 00 94  	bl	0x3eea0 <_ZN18ChiMetadataManager21AndroidMetadataHolderD2Ev@plt>
   387b4: 61 ff ff 54  	b.ne	0x387a0 <_ZN18ChiMetadataManager10InitializeEv+0x640>
   387bc: 42 00 00 14  	b	0x388c4 <_ZN18ChiMetadataManager10InitializeEv+0x764>
   387c4: 89 00 00 54  	b.ls	0x387d4 <_ZN18ChiMetadataManager10InitializeEv+0x674>
   387d0: 10 00 00 14  	b	0x38810 <_ZN18ChiMetadataManager10InitializeEv+0x6b0>
   38804: 21 ff ff 54  	b.ne	0x387e8 <_ZN18ChiMetadataManager10InitializeEv+0x688>
   3880c: c0 00 00 54  	b.eq	0x38824 <_ZN18ChiMetadataManager10InitializeEv+0x6c4>
   38820: 81 ff ff 54  	b.ne	0x38810 <_ZN18ChiMetadataManager10InitializeEv+0x6b0>
   38830: 25 00 00 14  	b	0x388c4 <_ZN18ChiMetadataManager10InitializeEv+0x764>
   38848: 81 ff ff 54  	b.ne	0x38838 <_ZN18ChiMetadataManager10InitializeEv+0x6d8>
   3885c: 40 01 00 54  	b.eq	0x38884 <_ZN18ChiMetadataManager10InitializeEv+0x724>
   3887c: 41 ff ff 54  	b.ne	0x38864 <_ZN18ChiMetadataManager10InitializeEv+0x704>
   38894: 00 01 00 54  	b.eq	0x388b4 <_ZN18ChiMetadataManager10InitializeEv+0x754>
   388a4: 7f 19 00 94  	bl	0x3eea0 <_ZN18ChiMetadataManager21AndroidMetadataHolderD2Ev@plt>
   388b0: 61 ff ff 54  	b.ne	0x3889c <_ZN18ChiMetadataManager10InitializeEv+0x73c>
   388b8: 75 00 00 b4  	cbz	x21, 0x388c4 <_ZN18ChiMetadataManager10InitializeEv+0x764>
   388dc: 75 19 00 94  	bl	0x3eeb0 <_ZN18ChiMetadataManager25AllocateFrameworkMetadataEjjbjj@plt>
   388e8: 20 01 00 35  	cbnz	w0, 0x3890c <_ZN18ChiMetadataManager10InitializeEv+0x7ac>
   38904: 6b 19 00 94  	bl	0x3eeb0 <_ZN18ChiMetadataManager25AllocateFrameworkMetadataEjjbjj@plt>
   38910: 78 00 00 b4  	cbz	x24, 0x3891c <_ZN18ChiMetadataManager10InitializeEv+0x7bc>
   3891c: 75 05 00 35  	cbnz	w21, 0x389c8 <_ZN18ChiMetadataManager10InitializeEv+0x868>
   38920: 3a 00 00 f0  	adrp	x26, 0x3f000 <_ZN18ChiMetadataManager10InitializeEv+0x7dc>
   3892c: ed 04 18 36  	tbz	w13, #3, 0x389c8 <_ZN18ChiMetadataManager10InitializeEv+0x868>
   38930: 39 00 00 f0  	adrp	x25, 0x3f000 <_ZN18ChiMetadataManager10InitializeEv+0x7ec>
   38934: b3 fe ff 90  	adrp	x19, 0xc000 <_ZN18ChiMetadataManager10InitializeEv+0x724>
   38948: 01 02 00 54  	b.ne	0x38988 <_ZN18ChiMetadataManager10InitializeEv+0x828>
   38960: a1 fe ff f0  	adrp	x1, 0xf000 <_ZN18ChiMetadataManager10InitializeEv+0x75c>
   38964: 82 fe ff 90  	adrp	x2, 0x8000 <_ZN18ChiMetadataManager10InitializeEv+0x744>
   38968: a5 fe ff b0  	adrp	x5, 0xd000 <_ZN18ChiMetadataManager10InitializeEv+0x75c>
   3899c: a1 fe ff 90  	adrp	x1, 0xc000 <_ZN18ChiMetadataManager10InitializeEv+0x78c>
   389a4: a0 fe ff f0  	adrp	x0, 0xf000 <_ZN18ChiMetadataManager10InitializeEv+0x7a0>
   389a8: a3 fe ff b0  	adrp	x3, 0xd000 <_ZN18ChiMetadataManager10InitializeEv+0x79c>
   389ac: 85 fe ff 90  	adrp	x5, 0x8000 <_ZN18ChiMetadataManager10InitializeEv+0x78c>
   389c4: 33 17 00 94  	bl	0x3e690 <_ZN6ChiLog9LogSystemEPKcS1_S1_S1_iS1_z@plt>
   389d4: 41 01 00 54  	b.ne	0x389fc <_ZN18ChiMetadataManager10InitializeEv+0x89c>
0000000000038a08 <_ZN18ChiMetadataManager7DestroyEv>:
   38a08: 40 01 00 b4  	cbz	x0, 0x38a30 <_ZN18ChiMetadataManager7DestroyEv+0x28>
   38a1c: 1d 19 00 94  	bl	0x3ee90 <_ZN18ChiMetadataManagerD2Ev@plt>
0000000000038a38 <_ZN18ChiMetadataManager25AllocateFrameworkMetadataEjjbjj>:
   38a5c: c2 0b 00 54  	b.hs	0x38bd4 <_ZN18ChiMetadataManager25AllocateFrameworkMetadataEjjbjj+0x19c>
   38a60: 39 00 00 f0  	adrp	x25, 0x3f000 <_ZN18ChiMetadataManager25AllocateFrameworkMetadataEjjbjj+0x44>
   38a90: 23 00 00 14  	b	0x38b1c <_ZN18ChiMetadataManager25AllocateFrameworkMetadataEjjbjj+0xe4>
   38a94: b6 fe ff 90  	adrp	x22, 0xc000 <_ZN18ChiMetadataManager10InitializeEv+0x884>
   38acc: a0 fe ff f0  	adrp	x0, 0xf000 <_ZN18ChiMetadataManager7DestroyEv+0x20>
   38ad0: a1 fe ff 90  	adrp	x1, 0xc000 <_ZN18ChiMetadataManager7DestroyEv+0x18>
   38ad4: 63 fe ff f0  	adrp	x3, 0x7000 <_ZN18ChiMetadataManager7DestroyEv+0x8>
   38ad8: 85 fe ff 90  	adrp	x5, 0x8000 <_ZN18ChiMetadataManager7DestroyEv+0x10>
   38b00: e4 16 00 94  	bl	0x3e690 <_ZN6ChiLog9LogSystemEPKcS1_S1_S1_iS1_z@plt>
   38b18: e0 05 00 54  	b.eq	0x38bd4 <_ZN18ChiMetadataManager25AllocateFrameworkMetadataEjjbjj+0x19c>
   38b28: a0 05 00 b4  	cbz	x0, 0x38bdc <_ZN18ChiMetadataManager25AllocateFrameworkMetadataEjjbjj+0x1a4>
   38b48: 28 fe 1f 36  	tbz	w8, #3, 0x38b0c <_ZN18ChiMetadataManager25AllocateFrameworkMetadataEjjbjj+0xd4>
   38b4c: 29 00 00 f0  	adrp	x9, 0x3f000 <_ZN18ChiMetadataManager25AllocateFrameworkMetadataEjjbjj+0x130>
   38b60: a1 f9 ff 54  	b.ne	0x38a94 <_ZN18ChiMetadataManager25AllocateFrameworkMetadataEjjbjj+0x5c>
   38b64: b5 fe ff 90  	adrp	x21, 0xc000 <_ZN18ChiMetadataManager25AllocateFrameworkMetadataEjjbjj+0x7c>
   38b98: a1 fe ff f0  	adrp	x1, 0xf000 <_ZN18ChiMetadataManager25AllocateFrameworkMetadataEjjbjj+0xbc>
   38b9c: 82 fe ff f0  	adrp	x2, 0xb000 <_ZN18ChiMetadataManager25AllocateFrameworkMetadataEjjbjj+0xb0>
   38ba0: 65 fe ff f0  	adrp	x5, 0x7000 <_ZN18ChiMetadataManager25AllocateFrameworkMetadataEjjbjj+0xa4>
   38bd0: b1 ff ff 17  	b	0x38a94 <_ZN18ChiMetadataManager25AllocateFrameworkMetadataEjjbjj+0x5c>
   38bd8: 02 00 00 14  	b	0x38be0 <_ZN18ChiMetadataManager25AllocateFrameworkMetadataEjjbjj+0x1a8>
0000000000038c00 <_ZN18ChiMetadataManagerC2Ejjj>:
   38e80: a3 f3 ff 54  	b.lo	0x38cf4 <_ZN18ChiMetadataManagerC2Ejjj+0xf4>
   38f5c: e1 eb ff 54  	b.ne	0x38cd8 <_ZN18ChiMetadataManagerC2Ejjj+0xd8>
0000000000039020 <_ZN18ChiMetadataManagerD2Ev>:
   39048: 74 07 00 b4  	cbz	x20, 0x39134 <_ZN18ChiMetadataManagerD2Ev+0x114>
   39060: 40 06 00 34  	cbz	w0, 0x39128 <_ZN18ChiMetadataManagerD2Ev+0x108>
   39064: 28 00 00 d0  	adrp	x8, 0x3f000 <_ZN18ChiMetadataManagerD2Ev+0x5c>
   39070: 08 06 00 36  	tbz	w8, #0, 0x39130 <_ZN18ChiMetadataManagerD2Ev+0x110>
   39074: 29 00 00 d0  	adrp	x9, 0x3f000 <_ZN18ChiMetadataManagerD2Ev+0x6c>
   39078: 95 fe ff f0  	adrp	x21, 0xc000 <_ZN18ChiMetadataManagerC2Ejjj+0x3c4>
   3908c: 61 02 00 54  	b.ne	0x390d8 <_ZN18ChiMetadataManagerD2Ev+0xb8>
   390a8: a1 fe ff d0  	adrp	x1, 0xf000 <_ZN18ChiMetadataManagerC2Ejjj+0x400>
   390ac: 82 fe ff 90  	adrp	x2, 0x9000 <_ZN18ChiMetadataManagerC2Ejjj+0x3ec>
   390b0: 85 fe ff f0  	adrp	x5, 0xc000 <_ZN18ChiMetadataManagerC2Ejjj+0x3fc>
   390f4: 60 fe ff f0  	adrp	x0, 0x8000 <_ZN18ChiMetadataManagerD2Ev+0x10>
   390f8: a1 fe ff b0  	adrp	x1, 0xe000 <_ZN18ChiMetadataManagerD2Ev+0x2c>
   390fc: 83 fe ff f0  	adrp	x3, 0xc000 <_ZN18ChiMetadataManagerD2Ev+0x28>
   39100: 85 fe ff 90  	adrp	x5, 0x9000 <_ZN18ChiMetadataManagerD2Ev+0x20>
   39120: 5c 15 00 94  	bl	0x3e690 <_ZN6ChiLog9LogSystemEPKcS1_S1_S1_iS1_z@plt>
   39124: 03 00 00 14  	b	0x39130 <_ZN18ChiMetadataManagerD2Ev+0x110>
   39138: 60 00 00 b4  	cbz	x0, 0x39144 <_ZN18ChiMetadataManagerD2Ev+0x124>
   3913c: 61 17 00 94  	bl	0x3eec0 <_ZdaPv@plt>
   39148: 15 02 00 b4  	cbz	x21, 0x39188 <_ZN18ChiMetadataManagerD2Ev+0x168>
   39154: 40 01 00 54  	b.eq	0x3917c <_ZN18ChiMetadataManagerD2Ev+0x15c>
   39164: 4f 17 00 94  	bl	0x3eea0 <_ZN18ChiMetadataManager21AndroidMetadataHolderD2Ev@plt>
   39170: 61 ff ff 54  	b.ne	0x3915c <_ZN18ChiMetadataManagerD2Ev+0x13c>
   39178: 02 00 00 14  	b	0x39180 <_ZN18ChiMetadataManagerD2Ev+0x160>
   39194: 8b 15 00 94  	bl	0x3e7c0 <_ZNSt3__15mutexD1Ev@plt>
   391a4: 87 15 00 94  	bl	0x3e7c0 <_ZNSt3__15mutexD1Ev@plt>
   391ac: a0 00 00 b4  	cbz	x0, 0x391c0 <_ZN18ChiMetadataManagerD2Ev+0x1a0>
   391bc: b6 ff ff b5  	cbnz	x22, 0x391b0 <_ZN18ChiMetadataManagerD2Ev+0x190>
   391c8: 40 00 00 b4  	cbz	x0, 0x391d0 <_ZN18ChiMetadataManagerD2Ev+0x1b0>
   391e8: 04 00 00 14  	b	0x391f8 <_ZN18ChiMetadataManagerD2Ev+0x1d8>
   391f4: e0 0a 00 54  	b.eq	0x39350 <_ZN18ChiMetadataManagerD2Ev+0x330>
   39200: 1c 17 00 94  	bl	0x3ee70 <_ZN18ChiMetadataManager10MetaClient14ReleaseBuffersEv@plt>
   39208: a0 00 00 b4  	cbz	x0, 0x3921c <_ZN18ChiMetadataManagerD2Ev+0x1fc>
   39218: b3 ff ff b5  	cbnz	x19, 0x3920c <_ZN18ChiMetadataManagerD2Ev+0x1ec>
   39224: 40 00 00 b4  	cbz	x0, 0x3922c <_ZN18ChiMetadataManagerD2Ev+0x20c>
   39230: 64 15 00 94  	bl	0x3e7c0 <_ZNSt3__15mutexD1Ev@plt>
   39238: 80 00 00 b4  	cbz	x0, 0x39248 <_ZN18ChiMetadataManagerD2Ev+0x228>
   39250: 08 17 00 94  	bl	0x3ee70 <_ZN18ChiMetadataManager10MetaClient14ReleaseBuffersEv@plt>
   3925c: a0 00 00 b4  	cbz	x0, 0x39270 <_ZN18ChiMetadataManagerD2Ev+0x250>
   3926c: b4 ff ff b5  	cbnz	x20, 0x39260 <_ZN18ChiMetadataManagerD2Ev+0x240>
   3927c: 40 00 00 b4  	cbz	x0, 0x39284 <_ZN18ChiMetadataManagerD2Ev+0x264>
   39288: 4e 15 00 94  	bl	0x3e7c0 <_ZNSt3__15mutexD1Ev@plt>
   39290: 80 00 00 b4  	cbz	x0, 0x392a0 <_ZN18ChiMetadataManagerD2Ev+0x280>
   392a8: f2 16 00 94  	bl	0x3ee70 <_ZN18ChiMetadataManager10MetaClient14ReleaseBuffersEv@plt>
   392b4: a0 00 00 b4  	cbz	x0, 0x392c8 <_ZN18ChiMetadataManagerD2Ev+0x2a8>
   392c4: b3 ff ff b5  	cbnz	x19, 0x392b8 <_ZN18ChiMetadataManagerD2Ev+0x298>
   392d4: 40 00 00 b4  	cbz	x0, 0x392dc <_ZN18ChiMetadataManagerD2Ev+0x2bc>
   392e0: 38 15 00 94  	bl	0x3e7c0 <_ZNSt3__15mutexD1Ev@plt>
   392e8: 80 00 00 b4  	cbz	x0, 0x392f8 <_ZN18ChiMetadataManagerD2Ev+0x2d8>
   39300: dc 16 00 94  	bl	0x3ee70 <_ZN18ChiMetadataManager10MetaClient14ReleaseBuffersEv@plt>
   3930c: a0 00 00 b4  	cbz	x0, 0x39320 <_ZN18ChiMetadataManagerD2Ev+0x300>
   3931c: b4 ff ff b5  	cbnz	x20, 0x39310 <_ZN18ChiMetadataManagerD2Ev+0x2f0>
   3932c: 40 00 00 b4  	cbz	x0, 0x39334 <_ZN18ChiMetadataManagerD2Ev+0x314>
   39338: 22 15 00 94  	bl	0x3e7c0 <_ZNSt3__15mutexD1Ev@plt>
   39340: 60 f5 ff b4  	cbz	x0, 0x391ec <_ZN18ChiMetadataManagerD2Ev+0x1cc>
   3934c: a8 ff ff 17  	b	0x391ec <_ZN18ChiMetadataManagerD2Ev+0x1cc>
0000000000039368 <_ZN18ChiMetadataManager30InitializeFrameworkInputClientEjb>:
   393b0: e8 14 00 94  	bl	0x3e750 <_ZNSt3__15mutex4lockEv@plt>
   393b4: 3a 00 00 d0  	adrp	x26, 0x3f000 <_ZN18ChiMetadataManager30InitializeFrameworkInputClientEjb+0x64>
   393cc: 73 06 00 34  	cbz	w19, 0x39498 <_ZN18ChiMetadataManager30InitializeFrameworkInputClientEjb+0x130>
   393d4: 28 06 00 34  	cbz	w8, 0x39498 <_ZN18ChiMetadataManager30InitializeFrameworkInputClientEjb+0x130>
   393dc: 6e 05 18 36  	tbz	w14, #3, 0x39488 <_ZN18ChiMetadataManager30InitializeFrameworkInputClientEjb+0x120>
   393e0: 2b 00 00 d0  	adrp	x11, 0x3f000 <_ZN18ChiMetadataManager30InitializeFrameworkInputClientEjb+0x90>
   393f0: 61 02 00 54  	b.ne	0x3943c <_ZN18ChiMetadataManager30InitializeFrameworkInputClientEjb+0xd4>
   393f4: 97 fe ff f0  	adrp	x23, 0xc000 <_ZN18ChiMetadataManagerD2Ev+0x320>
   39410: a1 fe ff d0  	adrp	x1, 0xf000 <_ZN18ChiMetadataManager30InitializeFrameworkInputClientEjb>
   39414: a2 fe ff d0  	adrp	x2, 0xf000 <_ZN18ChiMetadataManager30InitializeFrameworkInputClientEjb+0x4>
   39418: a5 fe ff 90  	adrp	x5, 0xd000 <_ZN18ChiMetadataManager30InitializeFrameworkInputClientEjb>
   3943c: 97 fe ff f0  	adrp	x23, 0xc000 <_ZN18ChiMetadataManager30InitializeFrameworkInputClientEjb+0x20>
   39458: 81 fe ff f0  	adrp	x1, 0xc000 <_ZN18ChiMetadataManager30InitializeFrameworkInputClientEjb+0x3c>
   39460: a0 fe ff d0  	adrp	x0, 0xf000 <_ZN18ChiMetadataManager30InitializeFrameworkInputClientEjb+0x50>
   39464: a3 fe ff 90  	adrp	x3, 0xd000 <_ZN18ChiMetadataManager30InitializeFrameworkInputClientEjb+0x4c>
   39468: a5 fe ff d0  	adrp	x5, 0xf000 <_ZN18ChiMetadataManager30InitializeFrameworkInputClientEjb+0x58>
   39484: 83 14 00 94  	bl	0x3e690 <_ZN6ChiLog9LogSystemEPKcS1_S1_S1_iS1_z@plt>
   39490: 4f 18 18 37  	tbnz	w15, #3, 0x39798 <_ZN18ChiMetadataManager30InitializeFrameworkInputClientEjb+0x430>
   39494: eb 00 00 14  	b	0x39840 <_ZN18ChiMetadataManager30InitializeFrameworkInputClientEjb+0x4d8>
   394f0: 6c 14 00 94  	bl	0x3e6a0 <_ZN15ExtensionModule11GetInstanceEv@plt>
   39504: 2f 16 00 94  	bl	0x3edc0 <_ZN15ExtensionModule23GetAvailableRequestKeysEjPjjS0_@plt>
   39508: 60 05 00 34  	cbz	w0, 0x395b4 <_ZN18ChiMetadataManager30InitializeFrameworkInputClientEjb+0x24c>
   39510: 6a 06 00 36  	tbz	w10, #0, 0x395dc <_ZN18ChiMetadataManager30InitializeFrameworkInputClientEjb+0x274>
   39514: 29 00 00 d0  	adrp	x9, 0x3f000 <_ZN18ChiMetadataManager30InitializeFrameworkInputClientEjb+0x1c4>
   39518: 97 fe ff f0  	adrp	x23, 0xc000 <_ZN18ChiMetadataManager30InitializeFrameworkInputClientEjb+0xfc>
   39530: 21 02 00 54  	b.ne	0x39574 <_ZN18ChiMetadataManager30InitializeFrameworkInputClientEjb+0x20c>
   39548: a1 fe ff d0  	adrp	x1, 0xf000 <_ZN18ChiMetadataManager30InitializeFrameworkInputClientEjb+0x138>
   3954c: a2 fe ff b0  	adrp	x2, 0xe000 <_ZN18ChiMetadataManager30InitializeFrameworkInputClientEjb+0x138>
   39550: a5 fe ff 90  	adrp	x5, 0xd000 <_ZN18ChiMetadataManager30InitializeFrameworkInputClientEjb+0x138>
   39588: a1 fe ff b0  	adrp	x1, 0xe000 <_ZN18ChiMetadataManager30InitializeFrameworkInputClientEjb+0x174>
   39590: 60 fe ff f0  	adrp	x0, 0x8000 <_ZN18ChiMetadataManager30InitializeFrameworkInputClientEjb+0x164>
   39594: a3 fe ff 90  	adrp	x3, 0xd000 <_ZN18ChiMetadataManager30InitializeFrameworkInputClientEjb+0x17c>
   39598: 85 fe ff 90  	adrp	x5, 0x9000 <_ZN18ChiMetadataManager30InitializeFrameworkInputClientEjb+0x170>
   395b0: 73 00 00 14  	b	0x3977c <_ZN18ChiMetadataManager30InitializeFrameworkInputClientEjb+0x414>
   395cc: 41 16 00 94  	bl	0x3eed0 <_ZN18ChiMetadataManager10MetaClient15AllocateBuffersEPjjjjj@plt>
   395d0: 20 01 00 34  	cbz	w0, 0x395f4 <_ZN18ChiMetadataManager30InitializeFrameworkInputClientEjb+0x28c>
   395d8: 09 08 00 37  	tbnz	w9, #0, 0x396d8 <_ZN18ChiMetadataManager30InitializeFrameworkInputClientEjb+0x370>
   395ec: 6f 0d 18 37  	tbnz	w15, #3, 0x39798 <_ZN18ChiMetadataManager30InitializeFrameworkInputClientEjb+0x430>
   395f0: 94 00 00 14  	b	0x39840 <_ZN18ChiMetadataManager30InitializeFrameworkInputClientEjb+0x4d8>
   39620: e0 12 00 34  	cbz	w0, 0x3987c <_ZN18ChiMetadataManager30InitializeFrameworkInputClientEjb+0x514>
   39628: 18 0b 00 b5  	cbnz	x24, 0x39788 <_ZN18ChiMetadataManager30InitializeFrameworkInputClientEjb+0x420>
   39630: 6d fd 07 36  	tbz	w13, #0, 0x395dc <_ZN18ChiMetadataManager30InitializeFrameworkInputClientEjb+0x274>
   39634: 2a 00 00 d0  	adrp	x10, 0x3f000 <_ZN18ChiMetadataManager30InitializeFrameworkInputClientEjb+0x2e4>
   39644: 41 02 00 54  	b.ne	0x3968c <_ZN18ChiMetadataManager30InitializeFrameworkInputClientEjb+0x324>
   39648: 97 fe ff f0  	adrp	x23, 0xc000 <_ZN18ChiMetadataManager30InitializeFrameworkInputClientEjb+0x22c>
   39664: a1 fe ff d0  	adrp	x1, 0xf000 <_ZN18ChiMetadataManager30InitializeFrameworkInputClientEjb+0x254>
   39668: 62 fe ff f0  	adrp	x2, 0x8000 <_ZN18ChiMetadataManager30InitializeFrameworkInputClientEjb+0x23c>
   3966c: a5 fe ff 90  	adrp	x5, 0xd000 <_ZN18ChiMetadataManager30InitializeFrameworkInputClientEjb+0x254>
   3968c: 97 fe ff f0  	adrp	x23, 0xc000 <_ZN18ChiMetadataManager30InitializeFrameworkInputClientEjb+0x270>
   396a8: a1 fe ff b0  	adrp	x1, 0xe000 <_ZN18ChiMetadataManager30InitializeFrameworkInputClientEjb+0x294>
   396b0: 60 fe ff f0  	adrp	x0, 0x8000 <_ZN18ChiMetadataManager30InitializeFrameworkInputClientEjb+0x284>
   396b4: a3 fe ff 90  	adrp	x3, 0xd000 <_ZN18ChiMetadataManager30InitializeFrameworkInputClientEjb+0x29c>
   396b8: a5 fe ff b0  	adrp	x5, 0xe000 <_ZN18ChiMetadataManager30InitializeFrameworkInputClientEjb+0x2a4>
   396d0: f0 13 00 94  	bl	0x3e690 <_ZN6ChiLog9LogSystemEPKcS1_S1_S1_iS1_z@plt>
   396d4: c2 ff ff 17  	b	0x395dc <_ZN18ChiMetadataManager30InitializeFrameworkInputClientEjb+0x274>
   396d8: 28 00 00 d0  	adrp	x8, 0x3f000 <_ZN18ChiMetadataManager30InitializeFrameworkInputClientEjb+0x388>
   396ec: 61 02 00 54  	b.ne	0x39738 <_ZN18ChiMetadataManager30InitializeFrameworkInputClientEjb+0x3d0>
   396f0: 97 fe ff f0  	adrp	x23, 0xc000 <_ZN18ChiMetadataManager30InitializeFrameworkInputClientEjb+0x2d4>
   3970c: a1 fe ff d0  	adrp	x1, 0xf000 <_ZN18ChiMetadataManager30InitializeFrameworkInputClientEjb+0x2fc>
   39710: 82 fe ff b0  	adrp	x2, 0xa000 <_ZN18ChiMetadataManager30InitializeFrameworkInputClientEjb+0x2ec>
   39714: a5 fe ff 90  	adrp	x5, 0xd000 <_ZN18ChiMetadataManager30InitializeFrameworkInputClientEjb+0x2fc>
   39738: 97 fe ff f0  	adrp	x23, 0xc000 <_ZN18ChiMetadataManager30InitializeFrameworkInputClientEjb+0x31c>
   39754: a1 fe ff b0  	adrp	x1, 0xe000 <_ZN18ChiMetadataManager30InitializeFrameworkInputClientEjb+0x340>
   3975c: 60 fe ff f0  	adrp	x0, 0x8000 <_ZN18ChiMetadataManager30InitializeFrameworkInputClientEjb+0x330>
   39760: a3 fe ff 90  	adrp	x3, 0xd000 <_ZN18ChiMetadataManager30InitializeFrameworkInputClientEjb+0x348>
   39764: 85 fe ff b0  	adrp	x5, 0xa000 <_ZN18ChiMetadataManager30InitializeFrameworkInputClientEjb+0x340>
   39780: c4 13 00 94  	bl	0x3e690 <_ZN6ChiLog9LogSystemEPKcS1_S1_S1_iS1_z@plt>
   39794: 6f 05 18 36  	tbz	w15, #3, 0x39840 <_ZN18ChiMetadataManager30InitializeFrameworkInputClientEjb+0x4d8>
   39798: 2c 00 00 d0  	adrp	x12, 0x3f000 <_ZN18ChiMetadataManager30InitializeFrameworkInputClientEjb+0x448>
   397a8: 61 02 00 54  	b.ne	0x397f4 <_ZN18ChiMetadataManager30InitializeFrameworkInputClientEjb+0x48c>
   397ac: 97 fe ff f0  	adrp	x23, 0xc000 <_ZN18ChiMetadataManager30InitializeFrameworkInputClientEjb+0x390>
   397c8: a1 fe ff d0  	adrp	x1, 0xf000 <_ZN18ChiMetadataManager30InitializeFrameworkInputClientEjb+0x3b8>
   397cc: 82 fe ff b0  	adrp	x2, 0xa000 <_ZN18ChiMetadataManager30InitializeFrameworkInputClientEjb+0x3a8>
   397d0: a5 fe ff 90  	adrp	x5, 0xd000 <_ZN18ChiMetadataManager30InitializeFrameworkInputClientEjb+0x3b8>
   397f4: 97 fe ff f0  	adrp	x23, 0xc000 <_ZN18ChiMetadataManager30InitializeFrameworkInputClientEjb+0x3d8>
   39810: 81 fe ff f0  	adrp	x1, 0xc000 <_ZN18ChiMetadataManager30InitializeFrameworkInputClientEjb+0x3f4>
   39818: a0 fe ff d0  	adrp	x0, 0xf000 <_ZN18ChiMetadataManager30InitializeFrameworkInputClientEjb+0x408>
   3981c: a3 fe ff 90  	adrp	x3, 0xd000 <_ZN18ChiMetadataManager30InitializeFrameworkInputClientEjb+0x404>
   39820: a5 fe ff b0  	adrp	x5, 0xe000 <_ZN18ChiMetadataManager30InitializeFrameworkInputClientEjb+0x40c>
   3983c: 95 13 00 94  	bl	0x3e690 <_ZN6ChiLog9LogSystemEPKcS1_S1_S1_iS1_z@plt>
   39844: c7 13 00 94  	bl	0x3e760 <_ZNSt3__15mutex6unlockEv@plt>
   39854: 61 04 00 54  	b.ne	0x398e0 <_ZN18ChiMetadataManager30InitializeFrameworkInputClientEjb+0x578>
   39894: a0 ec ff b4  	cbz	x0, 0x39628 <_ZN18ChiMetadataManager30InitializeFrameworkInputClientEjb+0x2c0>
   398d8: 0f f6 1f 37  	tbnz	w15, #3, 0x39798 <_ZN18ChiMetadataManager30InitializeFrameworkInputClientEjb+0x430>
   398dc: d9 ff ff 17  	b	0x39840 <_ZN18ChiMetadataManager30InitializeFrameworkInputClientEjb+0x4d8>
00000000000398e8 <_ZN18ChiMetadataManager14RegisterClientEiPjjjj16ChiMetadataUsage>:
   39914: 21 01 00 34  	cbz	w1, 0x39938 <_ZN18ChiMetadataManager14RegisterClientEiPjjjj16ChiMetadataUsage+0x50>
   39928: 6e 15 00 94  	bl	0x3eee0 <_ZN18ChiMetadataManager23RegisterExclusiveClientEPjjj16ChiMetadataUsage@plt>
   39930: 33 01 00 35  	cbnz	w19, 0x39954 <_ZN18ChiMetadataManager14RegisterClientEiPjjjj16ChiMetadataUsage+0x6c>
   39934: 7c 00 00 14  	b	0x39b24 <_ZN18ChiMetadataManager14RegisterClientEiPjjjj16ChiMetadataUsage+0x23c>
   39948: 6a 15 00 94  	bl	0x3eef0 <_ZN18ChiMetadataManager20RegisterSharedClientEPjjj16ChiMetadataUsage@plt>
   39950: b3 0e 00 34  	cbz	w19, 0x39b24 <_ZN18ChiMetadataManager14RegisterClientEiPjjjj16ChiMetadataUsage+0x23c>
   39964: 08 06 00 34  	cbz	w8, 0x39a24 <_ZN18ChiMetadataManager14RegisterClientEiPjjjj16ChiMetadataUsage+0x13c>
   39968: 2a 00 00 d0  	adrp	x10, 0x3f000 <_ZN18ChiMetadataManager14RegisterClientEiPjjjj16ChiMetadataUsage+0x98>
   39974: 8a 0d 18 36  	tbz	w10, #3, 0x39b24 <_ZN18ChiMetadataManager14RegisterClientEiPjjjj16ChiMetadataUsage+0x23c>
   39978: 2b 00 00 d0  	adrp	x11, 0x3f000 <_ZN18ChiMetadataManager14RegisterClientEiPjjjj16ChiMetadataUsage+0xa8>
   3997c: 97 fe ff f0  	adrp	x23, 0xc000 <_ZN18ChiMetadataManager30InitializeFrameworkInputClientEjb+0x560>
   39990: 41 02 00 54  	b.ne	0x399d8 <_ZN18ChiMetadataManager14RegisterClientEiPjjjj16ChiMetadataUsage+0xf0>
   399a8: a1 fe ff d0  	adrp	x1, 0xf000 <_ZN18ChiMetadataManager14RegisterClientEiPjjjj16ChiMetadataUsage+0x18>
   399ac: a2 fe ff b0  	adrp	x2, 0xe000 <_ZN18ChiMetadataManager14RegisterClientEiPjjjj16ChiMetadataUsage+0x18>
   399b0: 65 fe ff f0  	adrp	x5, 0x8000 <_ZN18ChiMetadataManager14RegisterClientEiPjjjj16ChiMetadataUsage+0x4>
   399ec: 81 fe ff f0  	adrp	x1, 0xc000 <_ZN18ChiMetadataManager14RegisterClientEiPjjjj16ChiMetadataUsage+0x50>
   399f4: a0 fe ff d0  	adrp	x0, 0xf000 <_ZN18ChiMetadataManager14RegisterClientEiPjjjj16ChiMetadataUsage+0x64>
   399f8: 63 fe ff f0  	adrp	x3, 0x8000 <_ZN18ChiMetadataManager14RegisterClientEiPjjjj16ChiMetadataUsage+0x4c>
   399fc: 65 fe ff f0  	adrp	x5, 0x8000 <_ZN18ChiMetadataManager14RegisterClientEiPjjjj16ChiMetadataUsage+0x50>
   39a1c: 1d 13 00 94  	bl	0x3e690 <_ZN6ChiLog9LogSystemEPKcS1_S1_S1_iS1_z@plt>
   39a20: 41 00 00 14  	b	0x39b24 <_ZN18ChiMetadataManager14RegisterClientEiPjjjj16ChiMetadataUsage+0x23c>
   39a40: b7 00 00 b4  	cbz	x23, 0x39a54 <_ZN18ChiMetadataManager14RegisterClientEiPjjjj16ChiMetadataUsage+0x16c>
   39a44: 80 00 00 b4  	cbz	x0, 0x39a54 <_ZN18ChiMetadataManager14RegisterClientEiPjjjj16ChiMetadataUsage+0x16c>
   39a54: 28 00 00 d0  	adrp	x8, 0x3f000 <_ZN18ChiMetadataManager14RegisterClientEiPjjjj16ChiMetadataUsage+0x184>
   39a60: 29 06 18 36  	tbz	w9, #3, 0x39b24 <_ZN18ChiMetadataManager14RegisterClientEiPjjjj16ChiMetadataUsage+0x23c>
   39a64: 29 00 00 d0  	adrp	x9, 0x3f000 <_ZN18ChiMetadataManager14RegisterClientEiPjjjj16ChiMetadataUsage+0x194>
   39a74: c1 02 00 54  	b.ne	0x39acc <_ZN18ChiMetadataManager14RegisterClientEiPjjjj16ChiMetadataUsage+0x1e4>
   39a78: 97 fe ff f0  	adrp	x23, 0xc000 <_ZN18ChiMetadataManager14RegisterClientEiPjjjj16ChiMetadataUsage+0xdc>
   39a94: a1 fe ff d0  	adrp	x1, 0xf000 <_ZN18ChiMetadataManager14RegisterClientEiPjjjj16ChiMetadataUsage+0x104>
   39a98: 82 fe ff 90  	adrp	x2, 0x9000 <_ZN18ChiMetadataManager14RegisterClientEiPjjjj16ChiMetadataUsage+0xf0>
   39a9c: 65 fe ff f0  	adrp	x5, 0x8000 <_ZN18ChiMetadataManager14RegisterClientEiPjjjj16ChiMetadataUsage+0xf0>
   39acc: 98 fe ff f0  	adrp	x24, 0xc000 <_ZN18ChiMetadataManager14RegisterClientEiPjjjj16ChiMetadataUsage+0x130>
   39ae8: 81 fe ff f0  	adrp	x1, 0xc000 <_ZN18ChiMetadataManager14RegisterClientEiPjjjj16ChiMetadataUsage+0x14c>
   39af0: a0 fe ff d0  	adrp	x0, 0xf000 <_ZN18ChiMetadataManager14RegisterClientEiPjjjj16ChiMetadataUsage+0x160>
   39af4: 63 fe ff f0  	adrp	x3, 0x8000 <_ZN18ChiMetadataManager14RegisterClientEiPjjjj16ChiMetadataUsage+0x148>
   39af8: 85 fe ff b0  	adrp	x5, 0xa000 <_ZN18ChiMetadataManager14RegisterClientEiPjjjj16ChiMetadataUsage+0x154>
   39b20: dc 12 00 94  	bl	0x3e690 <_ZN6ChiLog9LogSystemEPKcS1_S1_S1_iS1_z@plt>
0000000000039b48 <_ZN18ChiMetadataManager23RegisterExclusiveClientEPjjj16ChiMetadataUsage>:
   39b84: f3 12 00 94  	bl	0x3e750 <_ZNSt3__15mutex4lockEv@plt>
   39bf4: 0a 0a 00 34  	cbz	w10, 0x39d34 <_ZN18ChiMetadataManager23RegisterExclusiveClientEPjjj16ChiMetadataUsage+0x1ec>
   39bfc: 4a 0a 00 34  	cbz	w10, 0x39d44 <_ZN18ChiMetadataManager23RegisterExclusiveClientEPjjj16ChiMetadataUsage+0x1fc>
   39c08: 68 0a 00 34  	cbz	w8, 0x39d54 <_ZN18ChiMetadataManager23RegisterExclusiveClientEPjjj16ChiMetadataUsage+0x20c>
   39c10: 88 0a 00 34  	cbz	w8, 0x39d60 <_ZN18ChiMetadataManager23RegisterExclusiveClientEPjjj16ChiMetadataUsage+0x218>
   39c18: c8 0a 00 34  	cbz	w8, 0x39d70 <_ZN18ChiMetadataManager23RegisterExclusiveClientEPjjj16ChiMetadataUsage+0x228>
   39c20: 0a 0b 00 34  	cbz	w10, 0x39d80 <_ZN18ChiMetadataManager23RegisterExclusiveClientEPjjj16ChiMetadataUsage+0x238>
   39c28: 48 0b 00 34  	cbz	w8, 0x39d90 <_ZN18ChiMetadataManager23RegisterExclusiveClientEPjjj16ChiMetadataUsage+0x248>
   39c30: 8a 0b 00 34  	cbz	w10, 0x39da0 <_ZN18ChiMetadataManager23RegisterExclusiveClientEPjjj16ChiMetadataUsage+0x258>
   39c38: c8 0b 00 34  	cbz	w8, 0x39db0 <_ZN18ChiMetadataManager23RegisterExclusiveClientEPjjj16ChiMetadataUsage+0x268>
   39c40: 0a 0c 00 34  	cbz	w10, 0x39dc0 <_ZN18ChiMetadataManager23RegisterExclusiveClientEPjjj16ChiMetadataUsage+0x278>
   39c48: 48 0c 00 34  	cbz	w8, 0x39dd0 <_ZN18ChiMetadataManager23RegisterExclusiveClientEPjjj16ChiMetadataUsage+0x288>
   39c54: 68 0c 00 34  	cbz	w8, 0x39de0 <_ZN18ChiMetadataManager23RegisterExclusiveClientEPjjj16ChiMetadataUsage+0x298>
   39c60: 6c 0c 00 34  	cbz	w12, 0x39dec <_ZN18ChiMetadataManager23RegisterExclusiveClientEPjjj16ChiMetadataUsage+0x2a4>
   39c68: ac 0c 00 34  	cbz	w12, 0x39dfc <_ZN18ChiMetadataManager23RegisterExclusiveClientEPjjj16ChiMetadataUsage+0x2b4>
   39c70: ea 0c 00 34  	cbz	w10, 0x39e0c <_ZN18ChiMetadataManager23RegisterExclusiveClientEPjjj16ChiMetadataUsage+0x2c4>
   39c78: 28 0d 00 34  	cbz	w8, 0x39e1c <_ZN18ChiMetadataManager23RegisterExclusiveClientEPjjj16ChiMetadataUsage+0x2d4>
   39c80: 6c 0d 00 34  	cbz	w12, 0x39e2c <_ZN18ChiMetadataManager23RegisterExclusiveClientEPjjj16ChiMetadataUsage+0x2e4>
   39c88: aa 0d 00 34  	cbz	w10, 0x39e3c <_ZN18ChiMetadataManager23RegisterExclusiveClientEPjjj16ChiMetadataUsage+0x2f4>
   39c90: e8 0d 00 34  	cbz	w8, 0x39e4c <_ZN18ChiMetadataManager23RegisterExclusiveClientEPjjj16ChiMetadataUsage+0x304>
   39c98: 2c 0e 00 34  	cbz	w12, 0x39e5c <_ZN18ChiMetadataManager23RegisterExclusiveClientEPjjj16ChiMetadataUsage+0x314>
   39ca0: 6a 0e 00 34  	cbz	w10, 0x39e6c <_ZN18ChiMetadataManager23RegisterExclusiveClientEPjjj16ChiMetadataUsage+0x324>
   39ca8: a8 0e 00 34  	cbz	w8, 0x39e7c <_ZN18ChiMetadataManager23RegisterExclusiveClientEPjjj16ChiMetadataUsage+0x334>
   39cb0: ec 0e 00 34  	cbz	w12, 0x39e8c <_ZN18ChiMetadataManager23RegisterExclusiveClientEPjjj16ChiMetadataUsage+0x344>
   39d20: 61 f6 ff 54  	b.ne	0x39bec <_ZN18ChiMetadataManager23RegisterExclusiveClientEPjjj16ChiMetadataUsage+0xa4>
   39d30: 8a 00 00 14  	b	0x39f58 <_ZN18ChiMetadataManager23RegisterExclusiveClientEPjjj16ChiMetadataUsage+0x410>
   39d40: 55 00 00 14  	b	0x39e94 <_ZN18ChiMetadataManager23RegisterExclusiveClientEPjjj16ChiMetadataUsage+0x34c>
   39d50: 50 00 00 14  	b	0x39e90 <_ZN18ChiMetadataManager23RegisterExclusiveClientEPjjj16ChiMetadataUsage+0x348>
   39d5c: 4d 00 00 14  	b	0x39e90 <_ZN18ChiMetadataManager23RegisterExclusiveClientEPjjj16ChiMetadataUsage+0x348>
   39d6c: 49 00 00 14  	b	0x39e90 <_ZN18ChiMetadataManager23RegisterExclusiveClientEPjjj16ChiMetadataUsage+0x348>
   39d7c: 45 00 00 14  	b	0x39e90 <_ZN18ChiMetadataManager23RegisterExclusiveClientEPjjj16ChiMetadataUsage+0x348>
   39d8c: 41 00 00 14  	b	0x39e90 <_ZN18ChiMetadataManager23RegisterExclusiveClientEPjjj16ChiMetadataUsage+0x348>
   39d9c: 3d 00 00 14  	b	0x39e90 <_ZN18ChiMetadataManager23RegisterExclusiveClientEPjjj16ChiMetadataUsage+0x348>
   39dac: 39 00 00 14  	b	0x39e90 <_ZN18ChiMetadataManager23RegisterExclusiveClientEPjjj16ChiMetadataUsage+0x348>
   39dbc: 35 00 00 14  	b	0x39e90 <_ZN18ChiMetadataManager23RegisterExclusiveClientEPjjj16ChiMetadataUsage+0x348>
   39dcc: 31 00 00 14  	b	0x39e90 <_ZN18ChiMetadataManager23RegisterExclusiveClientEPjjj16ChiMetadataUsage+0x348>
   39ddc: 2d 00 00 14  	b	0x39e90 <_ZN18ChiMetadataManager23RegisterExclusiveClientEPjjj16ChiMetadataUsage+0x348>
   39de8: 2a 00 00 14  	b	0x39e90 <_ZN18ChiMetadataManager23RegisterExclusiveClientEPjjj16ChiMetadataUsage+0x348>
   39df8: 26 00 00 14  	b	0x39e90 <_ZN18ChiMetadataManager23RegisterExclusiveClientEPjjj16ChiMetadataUsage+0x348>
   39e08: 22 00 00 14  	b	0x39e90 <_ZN18ChiMetadataManager23RegisterExclusiveClientEPjjj16ChiMetadataUsage+0x348>
   39e18: 1e 00 00 14  	b	0x39e90 <_ZN18ChiMetadataManager23RegisterExclusiveClientEPjjj16ChiMetadataUsage+0x348>
   39e28: 1a 00 00 14  	b	0x39e90 <_ZN18ChiMetadataManager23RegisterExclusiveClientEPjjj16ChiMetadataUsage+0x348>
   39e38: 16 00 00 14  	b	0x39e90 <_ZN18ChiMetadataManager23RegisterExclusiveClientEPjjj16ChiMetadataUsage+0x348>
   39e48: 12 00 00 14  	b	0x39e90 <_ZN18ChiMetadataManager23RegisterExclusiveClientEPjjj16ChiMetadataUsage+0x348>
   39e58: 0e 00 00 14  	b	0x39e90 <_ZN18ChiMetadataManager23RegisterExclusiveClientEPjjj16ChiMetadataUsage+0x348>
   39e68: 0a 00 00 14  	b	0x39e90 <_ZN18ChiMetadataManager23RegisterExclusiveClientEPjjj16ChiMetadataUsage+0x348>
   39e78: 06 00 00 14  	b	0x39e90 <_ZN18ChiMetadataManager23RegisterExclusiveClientEPjjj16ChiMetadataUsage+0x348>
   39e88: 02 00 00 14  	b	0x39e90 <_ZN18ChiMetadataManager23RegisterExclusiveClientEPjjj16ChiMetadataUsage+0x348>
   39ec0: 83 03 00 54  	b.lo	0x39f30 <_ZN18ChiMetadataManager23RegisterExclusiveClientEPjjj16ChiMetadataUsage+0x3e8>
   39ed8: c9 02 00 54  	b.ls	0x39f30 <_ZN18ChiMetadataManager23RegisterExclusiveClientEPjjj16ChiMetadataUsage+0x3e8>
   39f04: ab 00 00 54  	b.lt	0x39f18 <_ZN18ChiMetadataManager23RegisterExclusiveClientEPjjj16ChiMetadataUsage+0x3d0>
   39f24: 7b 00 00 b4  	cbz	x27, 0x39f30 <_ZN18ChiMetadataManager23RegisterExclusiveClientEPjjj16ChiMetadataUsage+0x3e8>
   39f50: e0 13 00 94  	bl	0x3eed0 <_ZN18ChiMetadataManager10MetaClient15AllocateBuffersEPjjjjj@plt>
   39f54: e0 05 00 34  	cbz	w0, 0x3a010 <_ZN18ChiMetadataManager23RegisterExclusiveClientEPjjj16ChiMetadataUsage+0x4c8>
   39f58: 2b 00 00 d0  	adrp	x11, 0x3f000 <_ZN18ChiMetadataManager23RegisterExclusiveClientEPjjj16ChiMetadataUsage+0x428>
   39f64: 29 05 00 36  	tbz	w9, #0, 0x3a008 <_ZN18ChiMetadataManager23RegisterExclusiveClientEPjjj16ChiMetadataUsage+0x4c0>
   39f68: 2c 00 00 d0  	adrp	x12, 0x3f000 <_ZN18ChiMetadataManager23RegisterExclusiveClientEPjjj16ChiMetadataUsage+0x438>
   39f6c: 98 fe ff f0  	adrp	x24, 0xc000 <_ZN18ChiMetadataManager23RegisterExclusiveClientEPjjj16ChiMetadataUsage+0x370>
   39f80: 21 02 00 54  	b.ne	0x39fc4 <_ZN18ChiMetadataManager23RegisterExclusiveClientEPjjj16ChiMetadataUsage+0x47c>
   39f98: a1 fe ff d0  	adrp	x1, 0xf000 <_ZN18ChiMetadataManager23RegisterExclusiveClientEPjjj16ChiMetadataUsage+0x3a8>
   39f9c: 82 fe ff 90  	adrp	x2, 0x9000 <_ZN18ChiMetadataManager23RegisterExclusiveClientEPjjj16ChiMetadataUsage+0x394>
   39fa0: 85 fe ff b0  	adrp	x5, 0xa000 <_ZN18ChiMetadataManager23RegisterExclusiveClientEPjjj16ChiMetadataUsage+0x39c>
   39fd8: a1 fe ff b0  	adrp	x1, 0xe000 <_ZN18ChiMetadataManager23RegisterExclusiveClientEPjjj16ChiMetadataUsage+0x3e4>
   39fe0: 60 fe ff f0  	adrp	x0, 0x8000 <_ZN18ChiMetadataManager23RegisterExclusiveClientEPjjj16ChiMetadataUsage+0x3d4>
   39fe4: 83 fe ff b0  	adrp	x3, 0xa000 <_ZN18ChiMetadataManager23RegisterExclusiveClientEPjjj16ChiMetadataUsage+0x3e0>
   39fe8: 85 fe ff f0  	adrp	x5, 0xc000 <_ZN18ChiMetadataManager23RegisterExclusiveClientEPjjj16ChiMetadataUsage+0x3ec>
   3a004: a3 11 00 94  	bl	0x3e690 <_ZN6ChiLog9LogSystemEPKcS1_S1_S1_iS1_z@plt>
   3a00c: 38 00 00 14  	b	0x3a0ec <_ZN18ChiMetadataManager23RegisterExclusiveClientEPjjj16ChiMetadataUsage+0x5a4>
   3a010: 2d 00 00 b0  	adrp	x13, 0x3f000 <_ZN18ChiMetadataManager23RegisterExclusiveClientEPjjj16ChiMetadataUsage+0x4dc>
   3a020: 6b 06 18 36  	tbz	w11, #3, 0x3a0ec <_ZN18ChiMetadataManager23RegisterExclusiveClientEPjjj16ChiMetadataUsage+0x5a4>
   3a024: 2e 00 00 b0  	adrp	x14, 0x3f000 <_ZN18ChiMetadataManager23RegisterExclusiveClientEPjjj16ChiMetadataUsage+0x4f0>
   3a034: e1 02 00 54  	b.ne	0x3a090 <_ZN18ChiMetadataManager23RegisterExclusiveClientEPjjj16ChiMetadataUsage+0x548>
   3a038: 9b fe ff d0  	adrp	x27, 0xc000 <_ZN18ChiMetadataManager23RegisterExclusiveClientEPjjj16ChiMetadataUsage+0x438>
   3a054: a1 fe ff b0  	adrp	x1, 0xf000 <_ZN18ChiMetadataManager23RegisterExclusiveClientEPjjj16ChiMetadataUsage+0x460>
   3a058: 82 fe ff b0  	adrp	x2, 0xb000 <_ZN18ChiMetadataManager23RegisterExclusiveClientEPjjj16ChiMetadataUsage+0x454>
   3a05c: 85 fe ff 90  	adrp	x5, 0xa000 <_ZN18ChiMetadataManager23RegisterExclusiveClientEPjjj16ChiMetadataUsage+0x454>
   3a090: 93 fe ff d0  	adrp	x19, 0xc000 <_ZN18ChiMetadataManager23RegisterExclusiveClientEPjjj16ChiMetadataUsage+0x490>
   3a0ac: 81 fe ff d0  	adrp	x1, 0xc000 <_ZN18ChiMetadataManager23RegisterExclusiveClientEPjjj16ChiMetadataUsage+0x4ac>
   3a0b4: a0 fe ff b0  	adrp	x0, 0xf000 <_ZN18ChiMetadataManager23RegisterExclusiveClientEPjjj16ChiMetadataUsage+0x4c0>
   3a0b8: 83 fe ff 90  	adrp	x3, 0xa000 <_ZN18ChiMetadataManager23RegisterExclusiveClientEPjjj16ChiMetadataUsage+0x4b0>
   3a0bc: a5 fe ff b0  	adrp	x5, 0xf000 <_ZN18ChiMetadataManager23RegisterExclusiveClientEPjjj16ChiMetadataUsage+0x4c8>
   3a0e8: 6a 11 00 94  	bl	0x3e690 <_ZN6ChiLog9LogSystemEPKcS1_S1_S1_iS1_z@plt>
   3a0f0: 9c 11 00 94  	bl	0x3e760 <_ZNSt3__15mutex6unlockEv@plt>
000000000003a118 <_ZN18ChiMetadataManager20RegisterSharedClientEPjjj16ChiMetadataUsage>:
   3a174: 77 11 00 94  	bl	0x3e750 <_ZNSt3__15mutex4lockEv@plt>
   3a1cc: 6c 00 00 34  	cbz	w12, 0x3a1d8 <_ZN18ChiMetadataManager20RegisterSharedClientEPjjj16ChiMetadataUsage+0xc0>
   3a1d4: 62 07 00 35  	cbnz	w2, 0x3a2c0 <_ZN18ChiMetadataManager20RegisterSharedClientEPjjj16ChiMetadataUsage+0x1a8>
   3a1dc: 63 00 00 34  	cbz	w3, 0x3a1e8 <_ZN18ChiMetadataManager20RegisterSharedClientEPjjj16ChiMetadataUsage+0xd0>
   3a1e4: ac 10 00 35  	cbnz	w12, 0x3a3f8 <_ZN18ChiMetadataManager20RegisterSharedClientEPjjj16ChiMetadataUsage+0x2e0>
   3a1f0: 63 00 00 34  	cbz	w3, 0x3a1fc <_ZN18ChiMetadataManager20RegisterSharedClientEPjjj16ChiMetadataUsage+0xe4>
   3a1f8: a0 1a 00 35  	cbnz	w0, 0x3a54c <_ZN18ChiMetadataManager20RegisterSharedClientEPjjj16ChiMetadataUsage+0x434>
   3a200: 65 00 00 34  	cbz	w5, 0x3a20c <_ZN18ChiMetadataManager20RegisterSharedClientEPjjj16ChiMetadataUsage+0xf4>
   3a208: a1 1a 00 35  	cbnz	w1, 0x3a55c <_ZN18ChiMetadataManager20RegisterSharedClientEPjjj16ChiMetadataUsage+0x444>
   3a210: 64 00 00 34  	cbz	w4, 0x3a21c <_ZN18ChiMetadataManager20RegisterSharedClientEPjjj16ChiMetadataUsage+0x104>
   3a218: a2 1a 00 35  	cbnz	w2, 0x3a56c <_ZN18ChiMetadataManager20RegisterSharedClientEPjjj16ChiMetadataUsage+0x454>
   3a220: 63 00 00 34  	cbz	w3, 0x3a22c <_ZN18ChiMetadataManager20RegisterSharedClientEPjjj16ChiMetadataUsage+0x114>
   3a228: ac 1a 00 35  	cbnz	w12, 0x3a57c <_ZN18ChiMetadataManager20RegisterSharedClientEPjjj16ChiMetadataUsage+0x464>
   3a238: 80 00 00 34  	cbz	w0, 0x3a248 <_ZN18ChiMetadataManager20RegisterSharedClientEPjjj16ChiMetadataUsage+0x130>
   3a244: 65 1a 00 35  	cbnz	w5, 0x3a590 <_ZN18ChiMetadataManager20RegisterSharedClientEPjjj16ChiMetadataUsage+0x478>
   3a24c: 61 00 00 34  	cbz	w1, 0x3a258 <_ZN18ChiMetadataManager20RegisterSharedClientEPjjj16ChiMetadataUsage+0x140>
   3a254: 64 1a 00 35  	cbnz	w4, 0x3a5a0 <_ZN18ChiMetadataManager20RegisterSharedClientEPjjj16ChiMetadataUsage+0x488>
   3a25c: 62 00 00 34  	cbz	w2, 0x3a268 <_ZN18ChiMetadataManager20RegisterSharedClientEPjjj16ChiMetadataUsage+0x150>
   3a264: 63 1a 00 35  	cbnz	w3, 0x3a5b0 <_ZN18ChiMetadataManager20RegisterSharedClientEPjjj16ChiMetadataUsage+0x498>
   3a26c: 6c 00 00 34  	cbz	w12, 0x3a278 <_ZN18ChiMetadataManager20RegisterSharedClientEPjjj16ChiMetadataUsage+0x160>
   3a274: 60 1a 00 35  	cbnz	w0, 0x3a5c0 <_ZN18ChiMetadataManager20RegisterSharedClientEPjjj16ChiMetadataUsage+0x4a8>
   3a27c: 65 00 00 34  	cbz	w5, 0x3a288 <_ZN18ChiMetadataManager20RegisterSharedClientEPjjj16ChiMetadataUsage+0x170>
   3a284: 61 1a 00 35  	cbnz	w1, 0x3a5d0 <_ZN18ChiMetadataManager20RegisterSharedClientEPjjj16ChiMetadataUsage+0x4b8>
   3a28c: 64 00 00 34  	cbz	w4, 0x3a298 <_ZN18ChiMetadataManager20RegisterSharedClientEPjjj16ChiMetadataUsage+0x180>
   3a294: 62 1a 00 35  	cbnz	w2, 0x3a5e0 <_ZN18ChiMetadataManager20RegisterSharedClientEPjjj16ChiMetadataUsage+0x4c8>
   3a2a0: 63 00 00 34  	cbz	w3, 0x3a2ac <_ZN18ChiMetadataManager20RegisterSharedClientEPjjj16ChiMetadataUsage+0x194>
   3a2a8: 4c 1a 00 35  	cbnz	w12, 0x3a5f0 <_ZN18ChiMetadataManager20RegisterSharedClientEPjjj16ChiMetadataUsage+0x4d8>
   3a2b8: 61 f8 ff 54  	b.ne	0x3a1c4 <_ZN18ChiMetadataManager20RegisterSharedClientEPjjj16ChiMetadataUsage+0xac>
   3a2bc: 52 00 00 14  	b	0x3a404 <_ZN18ChiMetadataManager20RegisterSharedClientEPjjj16ChiMetadataUsage+0x2ec>
   3a2c8: e0 09 00 54  	b.eq	0x3a404 <_ZN18ChiMetadataManager20RegisterSharedClientEPjjj16ChiMetadataUsage+0x2ec>
   3a2f8: 6d 18 00 34  	cbz	w13, 0x3a604 <_ZN18ChiMetadataManager20RegisterSharedClientEPjjj16ChiMetadataUsage+0x4ec>
   3a300: 6e 18 00 34  	cbz	w14, 0x3a60c <_ZN18ChiMetadataManager20RegisterSharedClientEPjjj16ChiMetadataUsage+0x4f4>
   3a308: 65 18 00 34  	cbz	w5, 0x3a614 <_ZN18ChiMetadataManager20RegisterSharedClientEPjjj16ChiMetadataUsage+0x4fc>
   3a310: 61 18 00 34  	cbz	w1, 0x3a61c <_ZN18ChiMetadataManager20RegisterSharedClientEPjjj16ChiMetadataUsage+0x504>
   3a318: c4 18 00 34  	cbz	w4, 0x3a630 <_ZN18ChiMetadataManager20RegisterSharedClientEPjjj16ChiMetadataUsage+0x518>
   3a320: 33 19 00 34  	cbz	w19, 0x3a644 <_ZN18ChiMetadataManager20RegisterSharedClientEPjjj16ChiMetadataUsage+0x52c>
   3a328: 68 19 00 34  	cbz	w8, 0x3a654 <_ZN18ChiMetadataManager20RegisterSharedClientEPjjj16ChiMetadataUsage+0x53c>
   3a330: e2 19 00 34  	cbz	w2, 0x3a66c <_ZN18ChiMetadataManager20RegisterSharedClientEPjjj16ChiMetadataUsage+0x554>
   3a338: 6a 1a 00 34  	cbz	w10, 0x3a684 <_ZN18ChiMetadataManager20RegisterSharedClientEPjjj16ChiMetadataUsage+0x56c>
   3a340: ee 1a 00 34  	cbz	w14, 0x3a69c <_ZN18ChiMetadataManager20RegisterSharedClientEPjjj16ChiMetadataUsage+0x584>
   3a348: 6f 1b 00 34  	cbz	w15, 0x3a6b4 <_ZN18ChiMetadataManager20RegisterSharedClientEPjjj16ChiMetadataUsage+0x59c>
   3a350: f0 1b 00 34  	cbz	w16, 0x3a6cc <_ZN18ChiMetadataManager20RegisterSharedClientEPjjj16ChiMetadataUsage+0x5b4>
   3a358: 71 1c 00 34  	cbz	w17, 0x3a6e4 <_ZN18ChiMetadataManager20RegisterSharedClientEPjjj16ChiMetadataUsage+0x5cc>
   3a360: e7 1c 00 34  	cbz	w7, 0x3a6fc <_ZN18ChiMetadataManager20RegisterSharedClientEPjjj16ChiMetadataUsage+0x5e4>
   3a368: 46 1d 00 34  	cbz	w6, 0x3a710 <_ZN18ChiMetadataManager20RegisterSharedClientEPjjj16ChiMetadataUsage+0x5f8>
   3a370: b4 1d 00 34  	cbz	w20, 0x3a724 <_ZN18ChiMetadataManager20RegisterSharedClientEPjjj16ChiMetadataUsage+0x60c>
   3a378: ed 1d 00 34  	cbz	w13, 0x3a734 <_ZN18ChiMetadataManager20RegisterSharedClientEPjjj16ChiMetadataUsage+0x61c>
   3a380: 65 1e 00 34  	cbz	w5, 0x3a74c <_ZN18ChiMetadataManager20RegisterSharedClientEPjjj16ChiMetadataUsage+0x634>
   3a388: e1 1e 00 34  	cbz	w1, 0x3a764 <_ZN18ChiMetadataManager20RegisterSharedClientEPjjj16ChiMetadataUsage+0x64c>
   3a390: 64 1f 00 34  	cbz	w4, 0x3a77c <_ZN18ChiMetadataManager20RegisterSharedClientEPjjj16ChiMetadataUsage+0x664>
   3a398: f3 1f 00 34  	cbz	w19, 0x3a794 <_ZN18ChiMetadataManager20RegisterSharedClientEPjjj16ChiMetadataUsage+0x67c>
   3a3a0: 68 20 00 34  	cbz	w8, 0x3a7ac <_ZN18ChiMetadataManager20RegisterSharedClientEPjjj16ChiMetadataUsage+0x694>
   3a3a8: e2 20 00 34  	cbz	w2, 0x3a7c4 <_ZN18ChiMetadataManager20RegisterSharedClientEPjjj16ChiMetadataUsage+0x6ac>
   3a3b0: 6a 21 00 34  	cbz	w10, 0x3a7dc <_ZN18ChiMetadataManager20RegisterSharedClientEPjjj16ChiMetadataUsage+0x6c4>
   3a3b8: ee 21 00 34  	cbz	w14, 0x3a7f4 <_ZN18ChiMetadataManager20RegisterSharedClientEPjjj16ChiMetadataUsage+0x6dc>
   3a3c0: 6f 22 00 34  	cbz	w15, 0x3a80c <_ZN18ChiMetadataManager20RegisterSharedClientEPjjj16ChiMetadataUsage+0x6f4>
   3a3c8: d0 28 00 34  	cbz	w16, 0x3a8e0 <_ZN18ChiMetadataManager20RegisterSharedClientEPjjj16ChiMetadataUsage+0x7c8>
   3a3d0: d1 28 00 34  	cbz	w17, 0x3a8e8 <_ZN18ChiMetadataManager20RegisterSharedClientEPjjj16ChiMetadataUsage+0x7d0>
   3a3d8: c7 28 00 34  	cbz	w7, 0x3a8f0 <_ZN18ChiMetadataManager20RegisterSharedClientEPjjj16ChiMetadataUsage+0x7d8>
   3a3e0: c6 28 00 34  	cbz	w6, 0x3a8f8 <_ZN18ChiMetadataManager20RegisterSharedClientEPjjj16ChiMetadataUsage+0x7e0>
   3a3f0: 01 f8 ff 54  	b.ne	0x3a2f0 <_ZN18ChiMetadataManager20RegisterSharedClientEPjjj16ChiMetadataUsage+0x1d8>
   3a3f4: 13 02 00 14  	b	0x3ac40 <_ZN18ChiMetadataManager20RegisterSharedClientEPjjj16ChiMetadataUsage+0xb28>
   3a400: 61 f6 ff 54  	b.ne	0x3a2cc <_ZN18ChiMetadataManager20RegisterSharedClientEPjjj16ChiMetadataUsage+0x1b4>
   3a470: a0 0d 00 34  	cbz	w0, 0x3a624 <_ZN18ChiMetadataManager20RegisterSharedClientEPjjj16ChiMetadataUsage+0x50c>
   3a478: 14 0e 00 34  	cbz	w20, 0x3a638 <_ZN18ChiMetadataManager20RegisterSharedClientEPjjj16ChiMetadataUsage+0x520>
   3a484: 43 0e 00 34  	cbz	w3, 0x3a64c <_ZN18ChiMetadataManager20RegisterSharedClientEPjjj16ChiMetadataUsage+0x534>
   3a48c: 80 0e 00 34  	cbz	w0, 0x3a65c <_ZN18ChiMetadataManager20RegisterSharedClientEPjjj16ChiMetadataUsage+0x544>
   3a494: 14 0f 00 34  	cbz	w20, 0x3a674 <_ZN18ChiMetadataManager20RegisterSharedClientEPjjj16ChiMetadataUsage+0x55c>
   3a49c: 83 0f 00 34  	cbz	w3, 0x3a68c <_ZN18ChiMetadataManager20RegisterSharedClientEPjjj16ChiMetadataUsage+0x574>
   3a4a4: 00 10 00 34  	cbz	w0, 0x3a6a4 <_ZN18ChiMetadataManager20RegisterSharedClientEPjjj16ChiMetadataUsage+0x58c>
   3a4ac: 8d 10 00 34  	cbz	w13, 0x3a6bc <_ZN18ChiMetadataManager20RegisterSharedClientEPjjj16ChiMetadataUsage+0x5a4>
   3a4b4: 14 11 00 34  	cbz	w20, 0x3a6d4 <_ZN18ChiMetadataManager20RegisterSharedClientEPjjj16ChiMetadataUsage+0x5bc>
   3a4c4: 40 11 00 34  	cbz	w0, 0x3a6ec <_ZN18ChiMetadataManager20RegisterSharedClientEPjjj16ChiMetadataUsage+0x5d4>
   3a4d0: a3 11 00 34  	cbz	w3, 0x3a704 <_ZN18ChiMetadataManager20RegisterSharedClientEPjjj16ChiMetadataUsage+0x5ec>
   3a4dc: e0 11 00 34  	cbz	w0, 0x3a718 <_ZN18ChiMetadataManager20RegisterSharedClientEPjjj16ChiMetadataUsage+0x600>
   3a4e4: 54 12 00 34  	cbz	w20, 0x3a72c <_ZN18ChiMetadataManager20RegisterSharedClientEPjjj16ChiMetadataUsage+0x614>
   3a4ec: 83 12 00 34  	cbz	w3, 0x3a73c <_ZN18ChiMetadataManager20RegisterSharedClientEPjjj16ChiMetadataUsage+0x624>
   3a4f4: 00 13 00 34  	cbz	w0, 0x3a754 <_ZN18ChiMetadataManager20RegisterSharedClientEPjjj16ChiMetadataUsage+0x63c>
   3a4fc: 94 13 00 34  	cbz	w20, 0x3a76c <_ZN18ChiMetadataManager20RegisterSharedClientEPjjj16ChiMetadataUsage+0x654>
   3a504: 03 14 00 34  	cbz	w3, 0x3a784 <_ZN18ChiMetadataManager20RegisterSharedClientEPjjj16ChiMetadataUsage+0x66c>
   3a50c: 8d 14 00 34  	cbz	w13, 0x3a79c <_ZN18ChiMetadataManager20RegisterSharedClientEPjjj16ChiMetadataUsage+0x684>
   3a514: 00 15 00 34  	cbz	w0, 0x3a7b4 <_ZN18ChiMetadataManager20RegisterSharedClientEPjjj16ChiMetadataUsage+0x69c>
   3a51c: 94 15 00 34  	cbz	w20, 0x3a7cc <_ZN18ChiMetadataManager20RegisterSharedClientEPjjj16ChiMetadataUsage+0x6b4>
   3a524: 03 16 00 34  	cbz	w3, 0x3a7e4 <_ZN18ChiMetadataManager20RegisterSharedClientEPjjj16ChiMetadataUsage+0x6cc>
   3a52c: 8d 16 00 34  	cbz	w13, 0x3a7fc <_ZN18ChiMetadataManager20RegisterSharedClientEPjjj16ChiMetadataUsage+0x6e4>
   3a534: 00 17 00 34  	cbz	w0, 0x3a814 <_ZN18ChiMetadataManager20RegisterSharedClientEPjjj16ChiMetadataUsage+0x6fc>
   3a544: 21 f9 ff 54  	b.ne	0x3a468 <_ZN18ChiMetadataManager20RegisterSharedClientEPjjj16ChiMetadataUsage+0x350>
   3a548: be 01 00 14  	b	0x3ac40 <_ZN18ChiMetadataManager20RegisterSharedClientEPjjj16ChiMetadataUsage+0xb28>
   3a554: c1 eb ff 54  	b.ne	0x3a2cc <_ZN18ChiMetadataManager20RegisterSharedClientEPjjj16ChiMetadataUsage+0x1b4>
   3a558: ab ff ff 17  	b	0x3a404 <_ZN18ChiMetadataManager20RegisterSharedClientEPjjj16ChiMetadataUsage+0x2ec>
   3a564: 41 eb ff 54  	b.ne	0x3a2cc <_ZN18ChiMetadataManager20RegisterSharedClientEPjjj16ChiMetadataUsage+0x1b4>
   3a568: a7 ff ff 17  	b	0x3a404 <_ZN18ChiMetadataManager20RegisterSharedClientEPjjj16ChiMetadataUsage+0x2ec>
   3a574: c1 ea ff 54  	b.ne	0x3a2cc <_ZN18ChiMetadataManager20RegisterSharedClientEPjjj16ChiMetadataUsage+0x1b4>
   3a578: a3 ff ff 17  	b	0x3a404 <_ZN18ChiMetadataManager20RegisterSharedClientEPjjj16ChiMetadataUsage+0x2ec>
   3a588: 21 ea ff 54  	b.ne	0x3a2cc <_ZN18ChiMetadataManager20RegisterSharedClientEPjjj16ChiMetadataUsage+0x1b4>
   3a58c: 9e ff ff 17  	b	0x3a404 <_ZN18ChiMetadataManager20RegisterSharedClientEPjjj16ChiMetadataUsage+0x2ec>
   3a598: a1 e9 ff 54  	b.ne	0x3a2cc <_ZN18ChiMetadataManager20RegisterSharedClientEPjjj16ChiMetadataUsage+0x1b4>
   3a59c: 9a ff ff 17  	b	0x3a404 <_ZN18ChiMetadataManager20RegisterSharedClientEPjjj16ChiMetadataUsage+0x2ec>
   3a5a8: 21 e9 ff 54  	b.ne	0x3a2cc <_ZN18ChiMetadataManager20RegisterSharedClientEPjjj16ChiMetadataUsage+0x1b4>
   3a5ac: 96 ff ff 17  	b	0x3a404 <_ZN18ChiMetadataManager20RegisterSharedClientEPjjj16ChiMetadataUsage+0x2ec>
   3a5b8: a1 e8 ff 54  	b.ne	0x3a2cc <_ZN18ChiMetadataManager20RegisterSharedClientEPjjj16ChiMetadataUsage+0x1b4>
   3a5bc: 92 ff ff 17  	b	0x3a404 <_ZN18ChiMetadataManager20RegisterSharedClientEPjjj16ChiMetadataUsage+0x2ec>
   3a5c8: 21 e8 ff 54  	b.ne	0x3a2cc <_ZN18ChiMetadataManager20RegisterSharedClientEPjjj16ChiMetadataUsage+0x1b4>
   3a5cc: 8e ff ff 17  	b	0x3a404 <_ZN18ChiMetadataManager20RegisterSharedClientEPjjj16ChiMetadataUsage+0x2ec>
   3a5d8: a1 e7 ff 54  	b.ne	0x3a2cc <_ZN18ChiMetadataManager20RegisterSharedClientEPjjj16ChiMetadataUsage+0x1b4>
   3a5dc: 8a ff ff 17  	b	0x3a404 <_ZN18ChiMetadataManager20RegisterSharedClientEPjjj16ChiMetadataUsage+0x2ec>
   3a5e8: 21 e7 ff 54  	b.ne	0x3a2cc <_ZN18ChiMetadataManager20RegisterSharedClientEPjjj16ChiMetadataUsage+0x1b4>
   3a5ec: 86 ff ff 17  	b	0x3a404 <_ZN18ChiMetadataManager20RegisterSharedClientEPjjj16ChiMetadataUsage+0x2ec>
   3a5fc: 81 e6 ff 54  	b.ne	0x3a2cc <_ZN18ChiMetadataManager20RegisterSharedClientEPjjj16ChiMetadataUsage+0x1b4>
   3a600: 81 ff ff 17  	b	0x3a404 <_ZN18ChiMetadataManager20RegisterSharedClientEPjjj16ChiMetadataUsage+0x2ec>
   3a608: bd 00 00 14  	b	0x3a8fc <_ZN18ChiMetadataManager20RegisterSharedClientEPjjj16ChiMetadataUsage+0x7e4>
   3a610: bb 00 00 14  	b	0x3a8fc <_ZN18ChiMetadataManager20RegisterSharedClientEPjjj16ChiMetadataUsage+0x7e4>
   3a618: b9 00 00 14  	b	0x3a8fc <_ZN18ChiMetadataManager20RegisterSharedClientEPjjj16ChiMetadataUsage+0x7e4>
   3a620: b7 00 00 14  	b	0x3a8fc <_ZN18ChiMetadataManager20RegisterSharedClientEPjjj16ChiMetadataUsage+0x7e4>
   3a62c: 7d 00 00 14  	b	0x3a820 <_ZN18ChiMetadataManager20RegisterSharedClientEPjjj16ChiMetadataUsage+0x708>
   3a634: b2 00 00 14  	b	0x3a8fc <_ZN18ChiMetadataManager20RegisterSharedClientEPjjj16ChiMetadataUsage+0x7e4>
   3a640: 78 00 00 14  	b	0x3a820 <_ZN18ChiMetadataManager20RegisterSharedClientEPjjj16ChiMetadataUsage+0x708>
   3a648: ad 00 00 14  	b	0x3a8fc <_ZN18ChiMetadataManager20RegisterSharedClientEPjjj16ChiMetadataUsage+0x7e4>
   3a650: 74 00 00 14  	b	0x3a820 <_ZN18ChiMetadataManager20RegisterSharedClientEPjjj16ChiMetadataUsage+0x708>
   3a658: a9 00 00 14  	b	0x3a8fc <_ZN18ChiMetadataManager20RegisterSharedClientEPjjj16ChiMetadataUsage+0x7e4>
   3a668: 6e 00 00 14  	b	0x3a820 <_ZN18ChiMetadataManager20RegisterSharedClientEPjjj16ChiMetadataUsage+0x708>
   3a670: a3 00 00 14  	b	0x3a8fc <_ZN18ChiMetadataManager20RegisterSharedClientEPjjj16ChiMetadataUsage+0x7e4>
   3a680: 68 00 00 14  	b	0x3a820 <_ZN18ChiMetadataManager20RegisterSharedClientEPjjj16ChiMetadataUsage+0x708>
   3a688: 9d 00 00 14  	b	0x3a8fc <_ZN18ChiMetadataManager20RegisterSharedClientEPjjj16ChiMetadataUsage+0x7e4>
   3a698: 62 00 00 14  	b	0x3a820 <_ZN18ChiMetadataManager20RegisterSharedClientEPjjj16ChiMetadataUsage+0x708>
   3a6a0: 97 00 00 14  	b	0x3a8fc <_ZN18ChiMetadataManager20RegisterSharedClientEPjjj16ChiMetadataUsage+0x7e4>
   3a6b0: 5c 00 00 14  	b	0x3a820 <_ZN18ChiMetadataManager20RegisterSharedClientEPjjj16ChiMetadataUsage+0x708>
   3a6b8: 91 00 00 14  	b	0x3a8fc <_ZN18ChiMetadataManager20RegisterSharedClientEPjjj16ChiMetadataUsage+0x7e4>
   3a6c8: 56 00 00 14  	b	0x3a820 <_ZN18ChiMetadataManager20RegisterSharedClientEPjjj16ChiMetadataUsage+0x708>
   3a6d0: 8b 00 00 14  	b	0x3a8fc <_ZN18ChiMetadataManager20RegisterSharedClientEPjjj16ChiMetadataUsage+0x7e4>
   3a6e0: 50 00 00 14  	b	0x3a820 <_ZN18ChiMetadataManager20RegisterSharedClientEPjjj16ChiMetadataUsage+0x708>
   3a6e8: 85 00 00 14  	b	0x3a8fc <_ZN18ChiMetadataManager20RegisterSharedClientEPjjj16ChiMetadataUsage+0x7e4>
   3a6f8: 4a 00 00 14  	b	0x3a820 <_ZN18ChiMetadataManager20RegisterSharedClientEPjjj16ChiMetadataUsage+0x708>
   3a700: 7f 00 00 14  	b	0x3a8fc <_ZN18ChiMetadataManager20RegisterSharedClientEPjjj16ChiMetadataUsage+0x7e4>
   3a70c: 45 00 00 14  	b	0x3a820 <_ZN18ChiMetadataManager20RegisterSharedClientEPjjj16ChiMetadataUsage+0x708>
   3a714: 7a 00 00 14  	b	0x3a8fc <_ZN18ChiMetadataManager20RegisterSharedClientEPjjj16ChiMetadataUsage+0x7e4>
   3a720: 40 00 00 14  	b	0x3a820 <_ZN18ChiMetadataManager20RegisterSharedClientEPjjj16ChiMetadataUsage+0x708>
   3a728: 75 00 00 14  	b	0x3a8fc <_ZN18ChiMetadataManager20RegisterSharedClientEPjjj16ChiMetadataUsage+0x7e4>
   3a730: 3c 00 00 14  	b	0x3a820 <_ZN18ChiMetadataManager20RegisterSharedClientEPjjj16ChiMetadataUsage+0x708>
   3a738: 71 00 00 14  	b	0x3a8fc <_ZN18ChiMetadataManager20RegisterSharedClientEPjjj16ChiMetadataUsage+0x7e4>
   3a748: 36 00 00 14  	b	0x3a820 <_ZN18ChiMetadataManager20RegisterSharedClientEPjjj16ChiMetadataUsage+0x708>
   3a750: 6b 00 00 14  	b	0x3a8fc <_ZN18ChiMetadataManager20RegisterSharedClientEPjjj16ChiMetadataUsage+0x7e4>
   3a760: 30 00 00 14  	b	0x3a820 <_ZN18ChiMetadataManager20RegisterSharedClientEPjjj16ChiMetadataUsage+0x708>
   3a768: 65 00 00 14  	b	0x3a8fc <_ZN18ChiMetadataManager20RegisterSharedClientEPjjj16ChiMetadataUsage+0x7e4>
   3a778: 2a 00 00 14  	b	0x3a820 <_ZN18ChiMetadataManager20RegisterSharedClientEPjjj16ChiMetadataUsage+0x708>
   3a780: 5f 00 00 14  	b	0x3a8fc <_ZN18ChiMetadataManager20RegisterSharedClientEPjjj16ChiMetadataUsage+0x7e4>
   3a790: 24 00 00 14  	b	0x3a820 <_ZN18ChiMetadataManager20RegisterSharedClientEPjjj16ChiMetadataUsage+0x708>
   3a798: 59 00 00 14  	b	0x3a8fc <_ZN18ChiMetadataManager20RegisterSharedClientEPjjj16ChiMetadataUsage+0x7e4>
   3a7a8: 1e 00 00 14  	b	0x3a820 <_ZN18ChiMetadataManager20RegisterSharedClientEPjjj16ChiMetadataUsage+0x708>
   3a7b0: 53 00 00 14  	b	0x3a8fc <_ZN18ChiMetadataManager20RegisterSharedClientEPjjj16ChiMetadataUsage+0x7e4>
   3a7c0: 18 00 00 14  	b	0x3a820 <_ZN18ChiMetadataManager20RegisterSharedClientEPjjj16ChiMetadataUsage+0x708>
   3a7c8: 4d 00 00 14  	b	0x3a8fc <_ZN18ChiMetadataManager20RegisterSharedClientEPjjj16ChiMetadataUsage+0x7e4>
   3a7d8: 12 00 00 14  	b	0x3a820 <_ZN18ChiMetadataManager20RegisterSharedClientEPjjj16ChiMetadataUsage+0x708>
   3a7e0: 47 00 00 14  	b	0x3a8fc <_ZN18ChiMetadataManager20RegisterSharedClientEPjjj16ChiMetadataUsage+0x7e4>
   3a7f0: 0c 00 00 14  	b	0x3a820 <_ZN18ChiMetadataManager20RegisterSharedClientEPjjj16ChiMetadataUsage+0x708>
   3a7f8: 41 00 00 14  	b	0x3a8fc <_ZN18ChiMetadataManager20RegisterSharedClientEPjjj16ChiMetadataUsage+0x7e4>
   3a808: 06 00 00 14  	b	0x3a820 <_ZN18ChiMetadataManager20RegisterSharedClientEPjjj16ChiMetadataUsage+0x708>
   3a810: 3b 00 00 14  	b	0x3a8fc <_ZN18ChiMetadataManager20RegisterSharedClientEPjjj16ChiMetadataUsage+0x7e4>
   3a824: 60 05 00 54  	b.eq	0x3a8d0 <_ZN18ChiMetadataManager20RegisterSharedClientEPjjj16ChiMetadataUsage+0x7b8>
   3a864: a8 03 00 54  	b.hi	0x3a8d8 <_ZN18ChiMetadataManager20RegisterSharedClientEPjjj16ChiMetadataUsage+0x7c0>
   3a894: cb 00 00 54  	b.lt	0x3a8ac <_ZN18ChiMetadataManager20RegisterSharedClientEPjjj16ChiMetadataUsage+0x794>
   3a8b8: 60 00 00 b4  	cbz	x0, 0x3a8c4 <_ZN18ChiMetadataManager20RegisterSharedClientEPjjj16ChiMetadataUsage+0x7ac>
   3a8cc: 10 00 00 14  	b	0x3a90c <_ZN18ChiMetadataManager20RegisterSharedClientEPjjj16ChiMetadataUsage+0x7f4>
   3a8d4: db 00 00 14  	b	0x3ac40 <_ZN18ChiMetadataManager20RegisterSharedClientEPjjj16ChiMetadataUsage+0xb28>
   3a8dc: 0c 00 00 14  	b	0x3a90c <_ZN18ChiMetadataManager20RegisterSharedClientEPjjj16ChiMetadataUsage+0x7f4>
   3a8e4: 06 00 00 14  	b	0x3a8fc <_ZN18ChiMetadataManager20RegisterSharedClientEPjjj16ChiMetadataUsage+0x7e4>
   3a8ec: 04 00 00 14  	b	0x3a8fc <_ZN18ChiMetadataManager20RegisterSharedClientEPjjj16ChiMetadataUsage+0x7e4>
   3a8f4: 02 00 00 14  	b	0x3a8fc <_ZN18ChiMetadataManager20RegisterSharedClientEPjjj16ChiMetadataUsage+0x7e4>
   3a900: 00 1a 00 54  	b.eq	0x3ac40 <_ZN18ChiMetadataManager20RegisterSharedClientEPjjj16ChiMetadataUsage+0xb28>
   3a910: 88 19 00 54  	b.hi	0x3ac40 <_ZN18ChiMetadataManager20RegisterSharedClientEPjjj16ChiMetadataUsage+0xb28>
   3a918: 48 19 00 54  	b.hi	0x3ac40 <_ZN18ChiMetadataManager20RegisterSharedClientEPjjj16ChiMetadataUsage+0xb28>
   3a92c: 78 16 00 34  	cbz	w24, 0x3abf8 <_ZN18ChiMetadataManager20RegisterSharedClientEPjjj16ChiMetadataUsage+0xae0>
   3a940: 10 00 00 14  	b	0x3a980 <_ZN18ChiMetadataManager20RegisterSharedClientEPjjj16ChiMetadataUsage+0x868>
   3a954: cb 03 00 b4  	cbz	x11, 0x3a9cc <_ZN18ChiMetadataManager20RegisterSharedClientEPjjj16ChiMetadataUsage+0x8b4>
   3a97c: e0 13 00 54  	b.eq	0x3abf8 <_ZN18ChiMetadataManager20RegisterSharedClientEPjjj16ChiMetadataUsage+0xae0>
   3a988: fc 01 00 b4  	cbz	x28, 0x3a9c4 <_ZN18ChiMetadataManager20RegisterSharedClientEPjjj16ChiMetadataUsage+0x8ac>
   3a9a0: 49 03 00 54  	b.ls	0x3aa08 <_ZN18ChiMetadataManager20RegisterSharedClientEPjjj16ChiMetadataUsage+0x8f0>
   3a9bc: 18 03 00 b5  	cbnz	x24, 0x3aa1c <_ZN18ChiMetadataManager20RegisterSharedClientEPjjj16ChiMetadataUsage+0x904>
   3a9c0: 34 00 00 14  	b	0x3aa90 <_ZN18ChiMetadataManager20RegisterSharedClientEPjjj16ChiMetadataUsage+0x978>
   3a9c8: 32 00 00 14  	b	0x3aa90 <_ZN18ChiMetadataManager20RegisterSharedClientEPjjj16ChiMetadataUsage+0x978>
   3a9e0: 2d fc ff b4  	cbz	x13, 0x3a964 <_ZN18ChiMetadataManager20RegisterSharedClientEPjjj16ChiMetadataUsage+0x84c>
   3a9f0: e0 0e 00 54  	b.eq	0x3abcc <_ZN18ChiMetadataManager20RegisterSharedClientEPjjj16ChiMetadataUsage+0xab4>
   3a9f8: c3 0e 00 54  	b.lo	0x3abd0 <_ZN18ChiMetadataManager20RegisterSharedClientEPjjj16ChiMetadataUsage+0xab8>
   3aa04: 73 00 00 14  	b	0x3abd0 <_ZN18ChiMetadataManager20RegisterSharedClientEPjjj16ChiMetadataUsage+0xab8>
   3aa18: d8 03 00 b4  	cbz	x24, 0x3aa90 <_ZN18ChiMetadataManager20RegisterSharedClientEPjjj16ChiMetadataUsage+0x978>
   3aa20: 48 02 00 54  	b.hi	0x3aa68 <_ZN18ChiMetadataManager20RegisterSharedClientEPjjj16ChiMetadataUsage+0x950>
   3aa2c: 38 03 00 b4  	cbz	x24, 0x3aa90 <_ZN18ChiMetadataManager20RegisterSharedClientEPjjj16ChiMetadataUsage+0x978>
   3aa40: 81 02 00 54  	b.ne	0x3aa90 <_ZN18ChiMetadataManager20RegisterSharedClientEPjjj16ChiMetadataUsage+0x978>
   3aa4c: e1 fe ff 54  	b.ne	0x3aa28 <_ZN18ChiMetadataManager20RegisterSharedClientEPjjj16ChiMetadataUsage+0x910>
   3aa50: c8 ff ff 17  	b	0x3a970 <_ZN18ChiMetadataManager20RegisterSharedClientEPjjj16ChiMetadataUsage+0x858>
   3aa58: c1 01 00 54  	b.ne	0x3aa90 <_ZN18ChiMetadataManager20RegisterSharedClientEPjjj16ChiMetadataUsage+0x978>
   3aa64: 60 f8 ff 54  	b.eq	0x3a970 <_ZN18ChiMetadataManager20RegisterSharedClientEPjjj16ChiMetadataUsage+0x858>
   3aa6c: 38 01 00 b4  	cbz	x24, 0x3aa90 <_ZN18ChiMetadataManager20RegisterSharedClientEPjjj16ChiMetadataUsage+0x978>
   3aa78: 20 ff ff 54  	b.eq	0x3aa5c <_ZN18ChiMetadataManager20RegisterSharedClientEPjjj16ChiMetadataUsage+0x944>
   3aa80: a3 fe ff 54  	b.lo	0x3aa54 <_ZN18ChiMetadataManager20RegisterSharedClientEPjjj16ChiMetadataUsage+0x93c>
   3aa8c: f2 ff ff 17  	b	0x3aa54 <_ZN18ChiMetadataManager20RegisterSharedClientEPjjj16ChiMetadataUsage+0x93c>
   3aabc: bc 00 00 b4  	cbz	x28, 0x3aad0 <_ZN18ChiMetadataManager20RegisterSharedClientEPjjj16ChiMetadataUsage+0x9b8>
   3aacc: 05 f4 ff 54  	b.pl	0x3a94c <_ZN18ChiMetadataManager20RegisterSharedClientEPjjj16ChiMetadataUsage+0x834>
   3ab00: 61 00 00 54  	b.ne	0x3ab0c <_ZN18ChiMetadataManager20RegisterSharedClientEPjjj16ChiMetadataUsage+0x9f4>
   3ab08: 06 00 00 14  	b	0x3ab20 <_ZN18ChiMetadataManager20RegisterSharedClientEPjjj16ChiMetadataUsage+0xa08>
   3ab10: 80 00 00 54  	b.eq	0x3ab20 <_ZN18ChiMetadataManager20RegisterSharedClientEPjjj16ChiMetadataUsage+0xa08>
   3ab18: 9a 0f 00 94  	bl	0x3e980 <_ZNSt3__112__next_primeEm@plt>
   3ab28: a9 00 00 54  	b.ls	0x3ab3c <_ZN18ChiMetadataManager20RegisterSharedClientEPjjj16ChiMetadataUsage+0xa24>
   3ab34: 43 0d 00 94  	bl	0x3e040 <_ZN18ChiMetadataManager15PrintAllBuffersEj+0x2f0>
   3ab38: 1a 00 00 14  	b	0x3aba0 <_ZN18ChiMetadataManager20RegisterSharedClientEPjjj16ChiMetadataUsage+0xa88>
   3ab3c: 22 03 00 54  	b.hs	0x3aba0 <_ZN18ChiMetadataManager20RegisterSharedClientEPjjj16ChiMetadataUsage+0xa88>
   3ab58: 23 04 00 54  	b.lo	0x3abdc <_ZN18ChiMetadataManager20RegisterSharedClientEPjjj16ChiMetadataUsage+0xac4>
   3ab70: 68 03 00 54  	b.hi	0x3abdc <_ZN18ChiMetadataManager20RegisterSharedClientEPjjj16ChiMetadataUsage+0xac4>
   3ab9c: a3 02 00 54  	b.lo	0x3abf0 <_ZN18ChiMetadataManager20RegisterSharedClientEPjjj16ChiMetadataUsage+0xad8>
   3abac: c0 ec ff 54  	b.eq	0x3a944 <_ZN18ChiMetadataManager20RegisterSharedClientEPjjj16ChiMetadataUsage+0x82c>
   3abb4: 69 00 00 54  	b.ls	0x3abc0 <_ZN18ChiMetadataManager20RegisterSharedClientEPjjj16ChiMetadataUsage+0xaa8>
   3abbc: 64 ff ff 17  	b	0x3a94c <_ZN18ChiMetadataManager20RegisterSharedClientEPjjj16ChiMetadataUsage+0x834>
   3abc8: 61 ff ff 17  	b	0x3a94c <_ZN18ChiMetadataManager20RegisterSharedClientEPjjj16ChiMetadataUsage+0x834>
   3abd8: 63 ff ff 17  	b	0x3a964 <_ZN18ChiMetadataManager20RegisterSharedClientEPjjj16ChiMetadataUsage+0x84c>
   3abdc: 69 0f 00 94  	bl	0x3e980 <_ZNSt3__112__next_primeEm@plt>
   3abec: a2 fd ff 54  	b.hs	0x3aba0 <_ZN18ChiMetadataManager20RegisterSharedClientEPjjj16ChiMetadataUsage+0xa88>
   3abf4: d0 ff ff 17  	b	0x3ab34 <_ZN18ChiMetadataManager20RegisterSharedClientEPjjj16ChiMetadataUsage+0xa1c>
   3ac00: b4 00 00 94  	bl	0x3aed0 <_ZN18ChiMetadataManager23RetrievePartialTagCountEj+0x10>
   3ac34: a7 10 00 94  	bl	0x3eed0 <_ZN18ChiMetadataManager10MetaClient15AllocateBuffersEPjjjjj@plt>
   3ac38: c0 08 00 34  	cbz	w0, 0x3ad50 <_ZN18ChiMetadataManager20RegisterSharedClientEPjjj16ChiMetadataUsage+0xc38>
   3ac40: 3a 00 00 b0  	adrp	x26, 0x3f000 <_ZN18ChiMetadataManager20RegisterSharedClientEPjjj16ChiMetadataUsage+0xb3c>
   3ac54: 68 05 00 36  	tbz	w8, #0, 0x3ad00 <_ZN18ChiMetadataManager20RegisterSharedClientEPjjj16ChiMetadataUsage+0xbe8>
   3ac58: 36 00 00 b0  	adrp	x22, 0x3f000 <_ZN18ChiMetadataManager20RegisterSharedClientEPjjj16ChiMetadataUsage+0xb54>
   3ac68: 61 02 00 54  	b.ne	0x3acb4 <_ZN18ChiMetadataManager20RegisterSharedClientEPjjj16ChiMetadataUsage+0xb9c>
   3ac6c: 95 fe ff d0  	adrp	x21, 0xc000 <_ZN18ChiMetadataManager20RegisterSharedClientEPjjj16ChiMetadataUsage+0xa9c>
   3ac88: a1 fe ff b0  	adrp	x1, 0xf000 <_ZN18ChiMetadataManager20RegisterSharedClientEPjjj16ChiMetadataUsage+0xac4>
   3ac8c: 62 fe ff f0  	adrp	x2, 0x9000 <_ZN18ChiMetadataManager20RegisterSharedClientEPjjj16ChiMetadataUsage+0xab0>
   3ac90: a5 fe ff 90  	adrp	x5, 0xe000 <_ZN18ChiMetadataManager20RegisterSharedClientEPjjj16ChiMetadataUsage+0xac8>
   3acb4: 9b fe ff d0  	adrp	x27, 0xc000 <_ZN18ChiMetadataManager20RegisterSharedClientEPjjj16ChiMetadataUsage+0xae4>
   3acd0: a1 fe ff 90  	adrp	x1, 0xe000 <_ZN18ChiMetadataManager20RegisterSharedClientEPjjj16ChiMetadataUsage+0xb08>
   3acd8: 60 fe ff d0  	adrp	x0, 0x8000 <_ZN18ChiMetadataManager20RegisterSharedClientEPjjj16ChiMetadataUsage+0xaf8>
   3acdc: a3 fe ff 90  	adrp	x3, 0xe000 <_ZN18ChiMetadataManager20RegisterSharedClientEPjjj16ChiMetadataUsage+0xb14>
   3ace0: 85 fe ff d0  	adrp	x5, 0xc000 <_ZN18ChiMetadataManager20RegisterSharedClientEPjjj16ChiMetadataUsage+0xb10>
   3acfc: 65 0e 00 94  	bl	0x3e690 <_ZN6ChiLog9LogSystemEPKcS1_S1_S1_iS1_z@plt>
   3ad08: 96 0e 00 94  	bl	0x3e760 <_ZNSt3__15mutex6unlockEv@plt>
   3ad10: 60 00 00 b4  	cbz	x0, 0x3ad1c <_ZN18ChiMetadataManager20RegisterSharedClientEPjjj16ChiMetadataUsage+0xc04>
   3ad28: 21 09 00 54  	b.ne	0x3ae4c <_ZN18ChiMetadataManager20RegisterSharedClientEPjjj16ChiMetadataUsage+0xd34>
   3ad60: 39 00 00 b0  	adrp	x25, 0x3f000 <_ZN18ChiMetadataManager20RegisterSharedClientEPjjj16ChiMetadataUsage+0xc5c>
   3ad70: 40 06 00 54  	b.eq	0x3ae38 <_ZN18ChiMetadataManager20RegisterSharedClientEPjjj16ChiMetadataUsage+0xd20>
   3ad80: 28 fc 1f 36  	tbz	w8, #3, 0x3ad04 <_ZN18ChiMetadataManager20RegisterSharedClientEPjjj16ChiMetadataUsage+0xbec>
   3ad84: 2c 00 00 b0  	adrp	x12, 0x3f000 <_ZN18ChiMetadataManager20RegisterSharedClientEPjjj16ChiMetadataUsage+0xc80>
   3ad88: 95 fe ff d0  	adrp	x21, 0xc000 <_ZN18ChiMetadataManager20RegisterSharedClientEPjjj16ChiMetadataUsage+0xbb8>
   3ad9c: 61 02 00 54  	b.ne	0x3ade8 <_ZN18ChiMetadataManager20RegisterSharedClientEPjjj16ChiMetadataUsage+0xcd0>
   3adb4: a1 fe ff b0  	adrp	x1, 0xf000 <_ZN18ChiMetadataManager20RegisterSharedClientEPjjj16ChiMetadataUsage+0xbf0>
   3adb8: 62 fe ff f0  	adrp	x2, 0x9000 <_ZN18ChiMetadataManager20RegisterSharedClientEPjjj16ChiMetadataUsage+0xbdc>
   3adbc: a5 fe ff 90  	adrp	x5, 0xe000 <_ZN18ChiMetadataManager20RegisterSharedClientEPjjj16ChiMetadataUsage+0xbf4>
   3adfc: 81 fe ff d0  	adrp	x1, 0xc000 <_ZN18ChiMetadataManager20RegisterSharedClientEPjjj16ChiMetadataUsage+0xc2c>
   3ae04: a0 fe ff b0  	adrp	x0, 0xf000 <_ZN18ChiMetadataManager20RegisterSharedClientEPjjj16ChiMetadataUsage+0xc40>
   3ae08: a3 fe ff 90  	adrp	x3, 0xe000 <_ZN18ChiMetadataManager20RegisterSharedClientEPjjj16ChiMetadataUsage+0xc40>
   3ae0c: 65 fe ff f0  	adrp	x5, 0x9000 <_ZN18ChiMetadataManager20RegisterSharedClientEPjjj16ChiMetadataUsage+0xc30>
   3ae30: 18 0e 00 94  	bl	0x3e690 <_ZN6ChiLog9LogSystemEPKcS1_S1_S1_iS1_z@plt>
   3ae34: b4 ff ff 17  	b	0x3ad04 <_ZN18ChiMetadataManager20RegisterSharedClientEPjjj16ChiMetadataUsage+0xbec>
   3ae44: e8 f5 07 36  	tbz	w8, #0, 0x3ad00 <_ZN18ChiMetadataManager20RegisterSharedClientEPjjj16ChiMetadataUsage+0xbe8>
   3ae48: 84 ff ff 17  	b	0x3ac58 <_ZN18ChiMetadataManager20RegisterSharedClientEPjjj16ChiMetadataUsage+0xb40>
000000000003ae50 <_ZN18ChiMetadataManager12IsFreeClientERKNS_10MetaClientE>:
000000000003ae60 <_ZN18ChiMetadataManager16IsRealtimeClientERKNS_10MetaClientE>:
   3ae64: a8 00 00 34  	cbz	w8, 0x3ae78 <_ZN18ChiMetadataManager16IsRealtimeClientERKNS_10MetaClientE+0x18>
000000000003ae80 <_ZN18ChiMetadataManager15IsOfflineClientERKNS_10MetaClientE>:
   3ae84: a8 00 00 34  	cbz	w8, 0x3ae98 <_ZN18ChiMetadataManager15IsOfflineClientERKNS_10MetaClientE+0x18>
000000000003aea0 <_ZN18ChiMetadataManager15IsFreeSubClientERKNS_10MetaClient9SubClientE>:
000000000003aeb0 <_ZN18ChiMetadataManager19RetrievePartialTagsEj>:
000000000003aec0 <_ZN18ChiMetadataManager23RetrievePartialTagCountEj>:
   3aee8: a1 02 00 b4  	cbz	x1, 0x3af3c <_ZN18ChiMetadataManager23RetrievePartialTagCountEj+0x7c>
   3aefc: cc ff ff b5  	cbnz	x12, 0x3aef4 <_ZN18ChiMetadataManager23RetrievePartialTagCountEj+0x34>
   3af10: 22 02 00 54  	b.hs	0x3af54 <_ZN18ChiMetadataManager23RetrievePartialTagCountEj+0x94>
   3af24: 02 06 00 54  	b.hs	0x3afe4 <_ZN18ChiMetadataManager23RetrievePartialTagCountEj+0x124>
   3af34: e1 06 00 54  	b.ne	0x3b010 <_ZN18ChiMetadataManager23RetrievePartialTagCountEj+0x150>
   3af38: 3b 00 00 14  	b	0x3b024 <_ZN18ChiMetadataManager23RetrievePartialTagCountEj+0x164>
   3af4c: 21 06 00 54  	b.ne	0x3b010 <_ZN18ChiMetadataManager23RetrievePartialTagCountEj+0x150>
   3af50: 35 00 00 14  	b	0x3b024 <_ZN18ChiMetadataManager23RetrievePartialTagCountEj+0x164>
   3af54: c0 00 00 b4  	cbz	x0, 0x3af6c <_ZN18ChiMetadataManager23RetrievePartialTagCountEj+0xac>
   3af74: 22 08 00 54  	b.hs	0x3b078 <_ZN18ChiMetadataManager23RetrievePartialTagCountEj+0x1b8>
   3af98: 10 07 00 b5  	cbnz	x16, 0x3b078 <_ZN18ChiMetadataManager23RetrievePartialTagCountEj+0x1b8>
   3afd0: 74 ff ff b5  	cbnz	x20, 0x3afbc <_ZN18ChiMetadataManager23RetrievePartialTagCountEj+0xfc>
   3afe8: eb 03 00 54  	b.lt	0x3b064 <_ZN18ChiMetadataManager23RetrievePartialTagCountEj+0x1a4>
   3b000: ac ff ff 54  	b.gt	0x3aff4 <_ZN18ChiMetadataManager23RetrievePartialTagCountEj+0x134>
   3b00c: c0 00 00 54  	b.eq	0x3b024 <_ZN18ChiMetadataManager23RetrievePartialTagCountEj+0x164>
   3b020: 81 ff ff 54  	b.ne	0x3b010 <_ZN18ChiMetadataManager23RetrievePartialTagCountEj+0x150>
   3b024: 69 01 00 34  	cbz	w9, 0x3b050 <_ZN18ChiMetadataManager23RetrievePartialTagCountEj+0x190>
   3b028: 68 fd ff b4  	cbz	x8, 0x3afd4 <_ZN18ChiMetadataManager23RetrievePartialTagCountEj+0x114>
   3b048: 68 ff ff b5  	cbnz	x8, 0x3b034 <_ZN18ChiMetadataManager23RetrievePartialTagCountEj+0x174>
   3b04c: e2 ff ff 17  	b	0x3afd4 <_ZN18ChiMetadataManager23RetrievePartialTagCountEj+0x114>
   3b070: 01 fd ff 54  	b.ne	0x3b010 <_ZN18ChiMetadataManager23RetrievePartialTagCountEj+0x150>
   3b074: ec ff ff 17  	b	0x3b024 <_ZN18ChiMetadataManager23RetrievePartialTagCountEj+0x164>
   3b07c: 15 0e 00 94  	bl	0x3e8d0 <_ZNKSt3__120__vector_base_commonILb1EE20__throw_length_errorEv@plt>
000000000003b080 <_ZN18ChiMetadataManager16UnregisterClientEj>:
   3b0a8: aa 0d 00 94  	bl	0x3e750 <_ZNSt3__15mutex4lockEv@plt>
   3b0b4: a8 01 00 54  	b.hi	0x3b0e8 <_ZN18ChiMetadataManager16UnregisterClientEj+0x68>
   3b0c4: 28 01 00 54  	b.hi	0x3b0e8 <_ZN18ChiMetadataManager16UnregisterClientEj+0x68>
   3b0e4: 2e 00 00 14  	b	0x3b19c <_ZN18ChiMetadataManager16UnregisterClientEj+0x11c>
   3b0e8: 29 00 00 90  	adrp	x9, 0x3f000 <_ZN18ChiMetadataManager16UnregisterClientEj+0x78>
   3b0f4: 28 05 00 36  	tbz	w8, #0, 0x3b198 <_ZN18ChiMetadataManager16UnregisterClientEj+0x118>
   3b0f8: 2a 00 00 90  	adrp	x10, 0x3f000 <_ZN18ChiMetadataManager16UnregisterClientEj+0x88>
   3b0fc: 95 fe ff b0  	adrp	x21, 0xc000 <_ZN18ChiMetadataManager23RetrievePartialTagCountEj+0x180>
   3b110: 21 02 00 54  	b.ne	0x3b154 <_ZN18ChiMetadataManager16UnregisterClientEj+0xd4>
   3b128: a1 fe ff 90  	adrp	x1, 0xf000 <_ZN18ChiMetadataManager23RetrievePartialTagCountEj+0x1b8>
   3b12c: 62 fe ff d0  	adrp	x2, 0x9000 <_ZN18ChiMetadataManager23RetrievePartialTagCountEj+0x1a4>
   3b130: 85 fe ff b0  	adrp	x5, 0xc000 <_ZN18ChiMetadataManager23RetrievePartialTagCountEj+0x1b4>
   3b168: 81 fe ff f0  	adrp	x1, 0xe000 <_ZN18ChiMetadataManager16UnregisterClientEj+0x34>
   3b170: 60 fe ff b0  	adrp	x0, 0x8000 <_ZN18ChiMetadataManager16UnregisterClientEj+0x24>
   3b174: 83 fe ff b0  	adrp	x3, 0xc000 <_ZN18ChiMetadataManager16UnregisterClientEj+0x38>
   3b178: 85 fe ff f0  	adrp	x5, 0xe000 <_ZN18ChiMetadataManager16UnregisterClientEj+0x44>
   3b194: 3f 0d 00 94  	bl	0x3e690 <_ZN6ChiLog9LogSystemEPKcS1_S1_S1_iS1_z@plt>
   3b1a0: 70 0d 00 94  	bl	0x3e760 <_ZNSt3__15mutex6unlockEv@plt>
000000000003b1b8 <_ZN18ChiMetadataManager5FlushEv>:
   3b1ec: 59 0d 00 94  	bl	0x3e750 <_ZNSt3__15mutex4lockEv@plt>
   3b204: 06 00 00 14  	b	0x3b21c <_ZN18ChiMetadataManager5FlushEv+0x64>
   3b20c: 55 0d 00 94  	bl	0x3e760 <_ZNSt3__15mutex6unlockEv@plt>
   3b218: 60 0d 00 54  	b.eq	0x3b3c4 <_ZN18ChiMetadataManager5FlushEv+0x20c>
   3b224: 08 03 00 34  	cbz	w8, 0x3b284 <_ZN18ChiMetadataManager5FlushEv+0xcc>
   3b230: 48 0d 00 94  	bl	0x3e750 <_ZNSt3__15mutex4lockEv@plt>
   3b23c: 00 02 00 54  	b.eq	0x3b27c <_ZN18ChiMetadataManager5FlushEv+0xc4>
   3b278: 83 fe ff 54  	b.lo	0x3b248 <_ZN18ChiMetadataManager5FlushEv+0x90>
   3b280: 38 0d 00 94  	bl	0x3e760 <_ZNSt3__15mutex6unlockEv@plt>
   3b288: 49 03 00 34  	cbz	w9, 0x3b2f0 <_ZN18ChiMetadataManager5FlushEv+0x138>
   3b294: 2f 0d 00 94  	bl	0x3e750 <_ZNSt3__15mutex4lockEv@plt>
   3b2a4: 20 02 00 54  	b.eq	0x3b2e8 <_ZN18ChiMetadataManager5FlushEv+0x130>
   3b2e4: 63 fe ff 54  	b.lo	0x3b2b0 <_ZN18ChiMetadataManager5FlushEv+0xf8>
   3b2ec: 1d 0d 00 94  	bl	0x3e760 <_ZNSt3__15mutex6unlockEv@plt>
   3b2f4: 4a 03 00 34  	cbz	w10, 0x3b35c <_ZN18ChiMetadataManager5FlushEv+0x1a4>
   3b300: 14 0d 00 94  	bl	0x3e750 <_ZNSt3__15mutex4lockEv@plt>
   3b310: 20 02 00 54  	b.eq	0x3b354 <_ZN18ChiMetadataManager5FlushEv+0x19c>
   3b350: 63 fe ff 54  	b.lo	0x3b31c <_ZN18ChiMetadataManager5FlushEv+0x164>
   3b358: 02 0d 00 94  	bl	0x3e760 <_ZNSt3__15mutex6unlockEv@plt>
   3b360: 8b f5 ff 34  	cbz	w11, 0x3b210 <_ZN18ChiMetadataManager5FlushEv+0x58>
   3b36c: f9 0c 00 94  	bl	0x3e750 <_ZNSt3__15mutex4lockEv@plt>
   3b37c: 60 f4 ff 54  	b.eq	0x3b208 <_ZN18ChiMetadataManager5FlushEv+0x50>
   3b3bc: 63 fe ff 54  	b.lo	0x3b388 <_ZN18ChiMetadataManager5FlushEv+0x1d0>
   3b3c0: 92 ff ff 17  	b	0x3b208 <_ZN18ChiMetadataManager5FlushEv+0x50>
   3b3c8: e6 0c 00 94  	bl	0x3e760 <_ZNSt3__15mutex6unlockEv@plt>
000000000003b3f0 <_ZN18ChiMetadataManager13SetPipelineIdEjj>:
   3b41c: cd 0c 00 94  	bl	0x3e750 <_ZNSt3__15mutex4lockEv@plt>
   3b428: c8 01 00 54  	b.hi	0x3b460 <_ZN18ChiMetadataManager13SetPipelineIdEjj+0x70>
   3b438: 48 01 00 54  	b.hi	0x3b460 <_ZN18ChiMetadataManager13SetPipelineIdEjj+0x70>
   3b450: eb 05 00 34  	cbz	w11, 0x3b50c <_ZN18ChiMetadataManager13SetPipelineIdEjj+0x11c>
   3b45c: 5b 00 00 14  	b	0x3b5c8 <_ZN18ChiMetadataManager13SetPipelineIdEjj+0x1d8>
   3b460: 2b 00 00 90  	adrp	x11, 0x3f000 <_ZN18ChiMetadataManager13SetPipelineIdEjj+0x80>
   3b46c: cc 0a 08 36  	tbz	w12, #1, 0x3b5c4 <_ZN18ChiMetadataManager13SetPipelineIdEjj+0x1d4>
   3b470: 2c 00 00 90  	adrp	x12, 0x3f000 <_ZN18ChiMetadataManager13SetPipelineIdEjj+0x90>
   3b474: 95 fe ff b0  	adrp	x21, 0xc000 <_ZN18ChiMetadataManager5FlushEv+0x200>
   3b488: 21 02 00 54  	b.ne	0x3b4cc <_ZN18ChiMetadataManager13SetPipelineIdEjj+0xdc>
   3b4a0: a1 fe ff 90  	adrp	x1, 0xf000 <_ZN18ChiMetadataManager13SetPipelineIdEjj>
   3b4a4: 82 fe ff d0  	adrp	x2, 0xd000 <_ZN18ChiMetadataManager5FlushEv+0x234>
   3b4a8: 85 fe ff b0  	adrp	x5, 0xc000 <_ZN18ChiMetadataManager5FlushEv+0x234>
   3b4e0: 61 fe ff d0  	adrp	x1, 0x9000 <_ZN18ChiMetadataManager13SetPipelineIdEjj+0x28>
   3b4e8: 80 fe ff d0  	adrp	x0, 0xd000 <_ZN18ChiMetadataManager13SetPipelineIdEjj+0x40>
   3b4ec: 83 fe ff b0  	adrp	x3, 0xc000 <_ZN18ChiMetadataManager13SetPipelineIdEjj+0x40>
   3b4f0: 85 fe ff f0  	adrp	x5, 0xe000 <_ZN18ChiMetadataManager13SetPipelineIdEjj+0x4c>
   3b508: 2d 00 00 14  	b	0x3b5bc <_ZN18ChiMetadataManager13SetPipelineIdEjj+0x1cc>
   3b50c: 29 00 00 90  	adrp	x9, 0x3f000 <_ZN18ChiMetadataManager13SetPipelineIdEjj+0x12c>
   3b518: 68 05 00 36  	tbz	w8, #0, 0x3b5c4 <_ZN18ChiMetadataManager13SetPipelineIdEjj+0x1d4>
   3b51c: 2a 00 00 90  	adrp	x10, 0x3f000 <_ZN18ChiMetadataManager13SetPipelineIdEjj+0x13c>
   3b52c: 61 02 00 54  	b.ne	0x3b578 <_ZN18ChiMetadataManager13SetPipelineIdEjj+0x188>
   3b530: 95 fe ff b0  	adrp	x21, 0xc000 <_ZN18ChiMetadataManager13SetPipelineIdEjj+0x84>
   3b54c: a1 fe ff 90  	adrp	x1, 0xf000 <_ZN18ChiMetadataManager13SetPipelineIdEjj+0xac>
   3b550: 82 fe ff 90  	adrp	x2, 0xb000 <_ZN18ChiMetadataManager13SetPipelineIdEjj+0xa0>
   3b554: 85 fe ff b0  	adrp	x5, 0xc000 <_ZN18ChiMetadataManager13SetPipelineIdEjj+0xa8>
   3b578: 96 fe ff b0  	adrp	x22, 0xc000 <_ZN18ChiMetadataManager13SetPipelineIdEjj+0xcc>
   3b594: 81 fe ff f0  	adrp	x1, 0xe000 <_ZN18ChiMetadataManager13SetPipelineIdEjj+0xf0>
   3b59c: 60 fe ff b0  	adrp	x0, 0x8000 <_ZN18ChiMetadataManager13SetPipelineIdEjj+0xe0>
   3b5a0: 83 fe ff b0  	adrp	x3, 0xc000 <_ZN18ChiMetadataManager13SetPipelineIdEjj+0xf4>
   3b5a4: a5 fe ff 90  	adrp	x5, 0xf000 <_ZN18ChiMetadataManager13SetPipelineIdEjj+0x104>
   3b5c0: 34 0c 00 94  	bl	0x3e690 <_ZN6ChiLog9LogSystemEPKcS1_S1_S1_iS1_z@plt>
   3b5cc: 65 0c 00 94  	bl	0x3e760 <_ZNSt3__15mutex6unlockEv@plt>
000000000003b5e8 <_ZN18ChiMetadataManager13GetFreeHolderEjjjRNSt3__16chrono10time_pointINS1_12steady_clockENS1_8durationIxNS0_5ratioILl1ELl1000000000EEEEEEE>:
   3b63c: e9 02 00 34  	cbz	w9, 0x3b698 <_ZN18ChiMetadataManager13GetFreeHolderEjjjRNSt3__16chrono10time_pointINS1_12steady_clockENS1_8durationIxNS0_5ratioILl1ELl1000000000EEEEEEE+0xb0>
   3b648: 8a 02 00 34  	cbz	w10, 0x3b698 <_ZN18ChiMetadataManager13GetFreeHolderEjjjRNSt3__16chrono10time_pointINS1_12steady_clockENS1_8durationIxNS0_5ratioILl1ELl1000000000EEEEEEE+0xb0>
   3b65c: 3d 0c 00 94  	bl	0x3e750 <_ZNSt3__15mutex4lockEv@plt>
   3b66c: 60 0a 00 54  	b.eq	0x3b7b8 <_ZN18ChiMetadataManager13GetFreeHolderEjjjRNSt3__16chrono10time_pointINS1_12steady_clockENS1_8durationIxNS0_5ratioILl1ELl1000000000EEEEEEE+0x1d0>
   3b684: 2b 07 00 35  	cbnz	w11, 0x3b768 <_ZN18ChiMetadataManager13GetFreeHolderEjjjRNSt3__16chrono10time_pointINS1_12steady_clockENS1_8durationIxNS0_5ratioILl1ELl1000000000EEEEEEE+0x180>
   3b690: 68 ff ff 54  	b.hi	0x3b67c <_ZN18ChiMetadataManager13GetFreeHolderEjjjRNSt3__16chrono10time_pointINS1_12steady_clockENS1_8durationIxNS0_5ratioILl1ELl1000000000EEEEEEE+0x94>
   3b694: 38 00 00 14  	b	0x3b774 <_ZN18ChiMetadataManager13GetFreeHolderEjjjRNSt3__16chrono10time_pointINS1_12steady_clockENS1_8durationIxNS0_5ratioILl1ELl1000000000EEEEEEE+0x18c>
   3b698: 37 00 00 90  	adrp	x23, 0x3f000 <_ZN18ChiMetadataManager13GetFreeHolderEjjjRNSt3__16chrono10time_pointINS1_12steady_clockENS1_8durationIxNS0_5ratioILl1ELl1000000000EEEEEEE+0xc0>
   3b6a4: f9 05 00 36  	tbz	w25, #0, 0x3b760 <_ZN18ChiMetadataManager13GetFreeHolderEjjjRNSt3__16chrono10time_pointINS1_12steady_clockENS1_8durationIxNS0_5ratioILl1ELl1000000000EEEEEEE+0x178>
   3b6a8: 28 00 00 90  	adrp	x8, 0x3f000 <_ZN18ChiMetadataManager13GetFreeHolderEjjjRNSt3__16chrono10time_pointINS1_12steady_clockENS1_8durationIxNS0_5ratioILl1ELl1000000000EEEEEEE+0xd0>
   3b6b8: a1 02 00 54  	b.ne	0x3b70c <_ZN18ChiMetadataManager13GetFreeHolderEjjjRNSt3__16chrono10time_pointINS1_12steady_clockENS1_8durationIxNS0_5ratioILl1ELl1000000000EEEEEEE+0x124>
   3b6bc: 9b fe ff b0  	adrp	x27, 0xc000 <_ZN18ChiMetadataManager13GetFreeHolderEjjjRNSt3__16chrono10time_pointINS1_12steady_clockENS1_8durationIxNS0_5ratioILl1ELl1000000000EEEEEEE+0x18>
   3b6d8: a1 fe ff 90  	adrp	x1, 0xf000 <_ZN18ChiMetadataManager13GetFreeHolderEjjjRNSt3__16chrono10time_pointINS1_12steady_clockENS1_8durationIxNS0_5ratioILl1ELl1000000000EEEEEEE+0x40>
   3b6dc: 82 fe ff 90  	adrp	x2, 0xb000 <_ZN18ChiMetadataManager13GetFreeHolderEjjjRNSt3__16chrono10time_pointINS1_12steady_clockENS1_8durationIxNS0_5ratioILl1ELl1000000000EEEEEEE+0x34>
   3b6e0: 85 fe ff f0  	adrp	x5, 0xe000 <_ZN18ChiMetadataManager13GetFreeHolderEjjjRNSt3__16chrono10time_pointINS1_12steady_clockENS1_8durationIxNS0_5ratioILl1ELl1000000000EEEEEEE+0x44>
   3b70c: 9a fe ff b0  	adrp	x26, 0xc000 <_ZN18ChiMetadataManager13GetFreeHolderEjjjRNSt3__16chrono10time_pointINS1_12steady_clockENS1_8durationIxNS0_5ratioILl1ELl1000000000EEEEEEE+0x68>
   3b728: 81 fe ff f0  	adrp	x1, 0xe000 <_ZN18ChiMetadataManager13GetFreeHolderEjjjRNSt3__16chrono10time_pointINS1_12steady_clockENS1_8durationIxNS0_5ratioILl1ELl1000000000EEEEEEE+0x8c>
   3b730: 60 fe ff b0  	adrp	x0, 0x8000 <_ZN18ChiMetadataManager13GetFreeHolderEjjjRNSt3__16chrono10time_pointINS1_12steady_clockENS1_8durationIxNS0_5ratioILl1ELl1000000000EEEEEEE+0x7c>
   3b734: 83 fe ff f0  	adrp	x3, 0xe000 <_ZN18ChiMetadataManager13GetFreeHolderEjjjRNSt3__16chrono10time_pointINS1_12steady_clockENS1_8durationIxNS0_5ratioILl1ELl1000000000EEEEEEE+0x98>
   3b738: 65 fe ff 90  	adrp	x5, 0x7000 <_ZN18ChiMetadataManager13GetFreeHolderEjjjRNSt3__16chrono10time_pointINS1_12steady_clockENS1_8durationIxNS0_5ratioILl1ELl1000000000EEEEEEE+0x80>
   3b75c: cd 0b 00 94  	bl	0x3e690 <_ZN6ChiLog9LogSystemEPKcS1_S1_S1_iS1_z@plt>
   3b764: a0 01 00 14  	b	0x3bde4 <_ZN18ChiMetadataManager13GetFreeHolderEjjjRNSt3__16chrono10time_pointINS1_12steady_clockENS1_8durationIxNS0_5ratioILl1ELl1000000000EEEEEEE+0x7fc>
   3b770: 99 28 00 b5  	cbnz	x25, 0x3bc80 <_ZN18ChiMetadataManager13GetFreeHolderEjjjRNSt3__16chrono10time_pointINS1_12steady_clockENS1_8durationIxNS0_5ratioILl1ELl1000000000EEEEEEE+0x698>
   3b79c: cc 14 00 34  	cbz	w12, 0x3ba34 <_ZN18ChiMetadataManager13GetFreeHolderEjjjRNSt3__16chrono10time_pointINS1_12steady_clockENS1_8durationIxNS0_5ratioILl1ELl1000000000EEEEEEE+0x44c>
   3b7b0: 63 fe ff 54  	b.lo	0x3b77c <_ZN18ChiMetadataManager13GetFreeHolderEjjjRNSt3__16chrono10time_pointINS1_12steady_clockENS1_8durationIxNS0_5ratioILl1ELl1000000000EEEEEEE+0x194>
   3b7d4: e9 08 00 54  	b.ls	0x3b8f0 <_ZN18ChiMetadataManager13GetFreeHolderEjjjRNSt3__16chrono10time_pointINS1_12steady_clockENS1_8durationIxNS0_5ratioILl1ELl1000000000EEEEEEE+0x308>
   3b7e8: ba fd ff 97  	bl	0x3aed0 <_ZN18ChiMetadataManager23RetrievePartialTagCountEj+0x10>
   3b7ec: 2e 00 00 90  	adrp	x14, 0x3f000 <_ZN18ChiMetadataManager13GetFreeHolderEjjjRNSt3__16chrono10time_pointINS1_12steady_clockENS1_8durationIxNS0_5ratioILl1ELl1000000000EEEEEEE+0x214>
   3b804: 10 06 28 36  	tbz	w16, #5, 0x3b8c4 <_ZN18ChiMetadataManager13GetFreeHolderEjjjRNSt3__16chrono10time_pointINS1_12steady_clockENS1_8durationIxNS0_5ratioILl1ELl1000000000EEEEEEE+0x2dc>
   3b808: 2f 00 00 90  	adrp	x15, 0x3f000 <_ZN18ChiMetadataManager13GetFreeHolderEjjjRNSt3__16chrono10time_pointINS1_12steady_clockENS1_8durationIxNS0_5ratioILl1ELl1000000000EEEEEEE+0x230>
   3b81c: 81 02 00 54  	b.ne	0x3b86c <_ZN18ChiMetadataManager13GetFreeHolderEjjjRNSt3__16chrono10time_pointINS1_12steady_clockENS1_8durationIxNS0_5ratioILl1ELl1000000000EEEEEEE+0x284>
   3b820: 9b fe ff b0  	adrp	x27, 0xc000 <_ZN18ChiMetadataManager13GetFreeHolderEjjjRNSt3__16chrono10time_pointINS1_12steady_clockENS1_8durationIxNS0_5ratioILl1ELl1000000000EEEEEEE+0x17c>
   3b83c: a1 fe ff 90  	adrp	x1, 0xf000 <_ZN18ChiMetadataManager13GetFreeHolderEjjjRNSt3__16chrono10time_pointINS1_12steady_clockENS1_8durationIxNS0_5ratioILl1ELl1000000000EEEEEEE+0x1a4>
   3b840: 62 fe ff d0  	adrp	x2, 0x9000 <_ZN18ChiMetadataManager13GetFreeHolderEjjjRNSt3__16chrono10time_pointINS1_12steady_clockENS1_8durationIxNS0_5ratioILl1ELl1000000000EEEEEEE+0x190>
   3b844: 85 fe ff f0  	adrp	x5, 0xe000 <_ZN18ChiMetadataManager13GetFreeHolderEjjjRNSt3__16chrono10time_pointINS1_12steady_clockENS1_8durationIxNS0_5ratioILl1ELl1000000000EEEEEEE+0x1a8>
   3b86c: 9b fe ff b0  	adrp	x27, 0xc000 <_ZN18ChiMetadataManager13GetFreeHolderEjjjRNSt3__16chrono10time_pointINS1_12steady_clockENS1_8durationIxNS0_5ratioILl1ELl1000000000EEEEEEE+0x1c8>
   3b888: 81 fe ff b0  	adrp	x1, 0xc000 <_ZN18ChiMetadataManager13GetFreeHolderEjjjRNSt3__16chrono10time_pointINS1_12steady_clockENS1_8durationIxNS0_5ratioILl1ELl1000000000EEEEEEE+0x1e4>
   3b890: 80 fe ff f0  	adrp	x0, 0xe000 <_ZN18ChiMetadataManager13GetFreeHolderEjjjRNSt3__16chrono10time_pointINS1_12steady_clockENS1_8durationIxNS0_5ratioILl1ELl1000000000EEEEEEE+0x1f4>
   3b894: 83 fe ff f0  	adrp	x3, 0xe000 <_ZN18ChiMetadataManager13GetFreeHolderEjjjRNSt3__16chrono10time_pointINS1_12steady_clockENS1_8durationIxNS0_5ratioILl1ELl1000000000EEEEEEE+0x1f8>
   3b898: 85 fe ff f0  	adrp	x5, 0xe000 <_ZN18ChiMetadataManager13GetFreeHolderEjjjRNSt3__16chrono10time_pointINS1_12steady_clockENS1_8durationIxNS0_5ratioILl1ELl1000000000EEEEEEE+0x1fc>
   3b8b8: 76 0b 00 94  	bl	0x3e690 <_ZN6ChiLog9LogSystemEPKcS1_S1_S1_iS1_z@plt>
   3b8e8: 7a 0d 00 94  	bl	0x3eed0 <_ZN18ChiMetadataManager10MetaClient15AllocateBuffersEPjjjjj@plt>
   3b8ec: 60 0b 00 34  	cbz	w0, 0x3ba58 <_ZN18ChiMetadataManager13GetFreeHolderEjjjRNSt3__16chrono10time_pointINS1_12steady_clockENS1_8durationIxNS0_5ratioILl1ELl1000000000EEEEEEE+0x470>
   3b8f4: 91 00 00 34  	cbz	w17, 0x3b904 <_ZN18ChiMetadataManager13GetFreeHolderEjjjRNSt3__16chrono10time_pointINS1_12steady_clockENS1_8durationIxNS0_5ratioILl1ELl1000000000EEEEEEE+0x31c>
   3b900: 21 07 00 54  	b.ne	0x3b9e4 <_ZN18ChiMetadataManager13GetFreeHolderEjjjRNSt3__16chrono10time_pointINS1_12steady_clockENS1_8durationIxNS0_5ratioILl1ELl1000000000EEEEEEE+0x3fc>
   3b904: 38 00 00 90  	adrp	x24, 0x3f000 <_ZN18ChiMetadataManager13GetFreeHolderEjjjRNSt3__16chrono10time_pointINS1_12steady_clockENS1_8durationIxNS0_5ratioILl1ELl1000000000EEEEEEE+0x32c>
   3b910: 60 00 00 37  	tbnz	w0, #0, 0x3b91c <_ZN18ChiMetadataManager13GetFreeHolderEjjjRNSt3__16chrono10time_pointINS1_12steady_clockENS1_8durationIxNS0_5ratioILl1ELl1000000000EEEEEEE+0x334>
   3b918: 2d 01 00 14  	b	0x3bdcc <_ZN18ChiMetadataManager13GetFreeHolderEjjjRNSt3__16chrono10time_pointINS1_12steady_clockENS1_8durationIxNS0_5ratioILl1ELl1000000000EEEEEEE+0x7e4>
   3b91c: 39 00 00 90  	adrp	x25, 0x3f000 <_ZN18ChiMetadataManager13GetFreeHolderEjjjRNSt3__16chrono10time_pointINS1_12steady_clockENS1_8durationIxNS0_5ratioILl1ELl1000000000EEEEEEE+0x344>
   3b92c: e1 02 00 54  	b.ne	0x3b988 <_ZN18ChiMetadataManager13GetFreeHolderEjjjRNSt3__16chrono10time_pointINS1_12steady_clockENS1_8durationIxNS0_5ratioILl1ELl1000000000EEEEEEE+0x3a0>
   3b934: 9b fe ff b0  	adrp	x27, 0xc000 <_ZN18ChiMetadataManager13GetFreeHolderEjjjRNSt3__16chrono10time_pointINS1_12steady_clockENS1_8durationIxNS0_5ratioILl1ELl1000000000EEEEEEE+0x290>
   3b950: a1 fe ff 90  	adrp	x1, 0xf000 <_ZN18ChiMetadataManager13GetFreeHolderEjjjRNSt3__16chrono10time_pointINS1_12steady_clockENS1_8durationIxNS0_5ratioILl1ELl1000000000EEEEEEE+0x2b8>
   3b954: 82 fe ff 90  	adrp	x2, 0xb000 <_ZN18ChiMetadataManager13GetFreeHolderEjjjRNSt3__16chrono10time_pointINS1_12steady_clockENS1_8durationIxNS0_5ratioILl1ELl1000000000EEEEEEE+0x2ac>
   3b958: 85 fe ff f0  	adrp	x5, 0xe000 <_ZN18ChiMetadataManager13GetFreeHolderEjjjRNSt3__16chrono10time_pointINS1_12steady_clockENS1_8durationIxNS0_5ratioILl1ELl1000000000EEEEEEE+0x2bc>
   3b988: 9a fe ff b0  	adrp	x26, 0xc000 <_ZN18ChiMetadataManager13GetFreeHolderEjjjRNSt3__16chrono10time_pointINS1_12steady_clockENS1_8durationIxNS0_5ratioILl1ELl1000000000EEEEEEE+0x2e4>
   3b9a4: 81 fe ff f0  	adrp	x1, 0xe000 <_ZN18ChiMetadataManager13GetFreeHolderEjjjRNSt3__16chrono10time_pointINS1_12steady_clockENS1_8durationIxNS0_5ratioILl1ELl1000000000EEEEEEE+0x308>
   3b9ac: 60 fe ff b0  	adrp	x0, 0x8000 <_ZN18ChiMetadataManager13GetFreeHolderEjjjRNSt3__16chrono10time_pointINS1_12steady_clockENS1_8durationIxNS0_5ratioILl1ELl1000000000EEEEEEE+0x2f8>
   3b9b0: 83 fe ff f0  	adrp	x3, 0xe000 <_ZN18ChiMetadataManager13GetFreeHolderEjjjRNSt3__16chrono10time_pointINS1_12steady_clockENS1_8durationIxNS0_5ratioILl1ELl1000000000EEEEEEE+0x314>
   3b9b4: 65 fe ff 90  	adrp	x5, 0x7000 <_ZN18ChiMetadataManager13GetFreeHolderEjjjRNSt3__16chrono10time_pointINS1_12steady_clockENS1_8durationIxNS0_5ratioILl1ELl1000000000EEEEEEE+0x2fc>
   3b9d8: 2e 0b 00 94  	bl	0x3e690 <_ZN6ChiLog9LogSystemEPKcS1_S1_S1_iS1_z@plt>
   3b9e0: fb 00 00 14  	b	0x3bdcc <_ZN18ChiMetadataManager13GetFreeHolderEjjjRNSt3__16chrono10time_pointINS1_12steady_clockENS1_8durationIxNS0_5ratioILl1ELl1000000000EEEEEEE+0x7e4>
   3b9ec: 23 04 00 54  	b.lo	0x3ba70 <_ZN18ChiMetadataManager13GetFreeHolderEjjjRNSt3__16chrono10time_pointINS1_12steady_clockENS1_8durationIxNS0_5ratioILl1ELl1000000000EEEEEEE+0x488>
   3ba2c: c8 fe ff 54  	b.hi	0x3ba04 <_ZN18ChiMetadataManager13GetFreeHolderEjjjRNSt3__16chrono10time_pointINS1_12steady_clockENS1_8durationIxNS0_5ratioILl1ELl1000000000EEEEEEE+0x41c>
   3ba30: 11 00 00 14  	b	0x3ba74 <_ZN18ChiMetadataManager13GetFreeHolderEjjjRNSt3__16chrono10time_pointINS1_12steady_clockENS1_8durationIxNS0_5ratioILl1ELl1000000000EEEEEEE+0x48c>
   3ba34: 2c 00 00 90  	adrp	x12, 0x3f000 <_ZN18ChiMetadataManager13GetFreeHolderEjjjRNSt3__16chrono10time_pointINS1_12steady_clockENS1_8durationIxNS0_5ratioILl1ELl1000000000EEEEEEE+0x45c>
   3ba48: cd 0a 28 37  	tbnz	w13, #5, 0x3bba0 <_ZN18ChiMetadataManager13GetFreeHolderEjjjRNSt3__16chrono10time_pointINS1_12steady_clockENS1_8durationIxNS0_5ratioILl1ELl1000000000EEEEEEE+0x5b8>
   3ba4c: b9 11 00 b5  	cbnz	x25, 0x3bc80 <_ZN18ChiMetadataManager13GetFreeHolderEjjjRNSt3__16chrono10time_pointINS1_12steady_clockENS1_8durationIxNS0_5ratioILl1ELl1000000000EEEEEEE+0x698>
   3ba54: 59 ff ff 17  	b	0x3b7b8 <_ZN18ChiMetadataManager13GetFreeHolderEjjjRNSt3__16chrono10time_pointINS1_12steady_clockENS1_8durationIxNS0_5ratioILl1ELl1000000000EEEEEEE+0x1d0>
   3ba68: d9 10 00 b5  	cbnz	x25, 0x3bc80 <_ZN18ChiMetadataManager13GetFreeHolderEjjjRNSt3__16chrono10time_pointINS1_12steady_clockENS1_8durationIxNS0_5ratioILl1ELl1000000000EEEEEEE+0x698>
   3ba6c: a1 ff ff 17  	b	0x3b8f0 <_ZN18ChiMetadataManager13GetFreeHolderEjjjRNSt3__16chrono10time_pointINS1_12steady_clockENS1_8durationIxNS0_5ratioILl1ELl1000000000EEEEEEE+0x308>
   3ba9c: 22 00 00 90  	adrp	x2, 0x3f000 <_ZN18ChiMetadataManager13GetFreeHolderEjjjRNSt3__16chrono10time_pointINS1_12steady_clockENS1_8durationIxNS0_5ratioILl1ELl1000000000EEEEEEE+0x4c4>
   3baa8: 62 00 18 37  	tbnz	w2, #3, 0x3bab4 <_ZN18ChiMetadataManager13GetFreeHolderEjjjRNSt3__16chrono10time_pointINS1_12steady_clockENS1_8durationIxNS0_5ratioILl1ELl1000000000EEEEEEE+0x4cc>
   3baac: b9 0e 00 b5  	cbnz	x25, 0x3bc80 <_ZN18ChiMetadataManager13GetFreeHolderEjjjRNSt3__16chrono10time_pointINS1_12steady_clockENS1_8durationIxNS0_5ratioILl1ELl1000000000EEEEEEE+0x698>
   3bab0: 95 ff ff 17  	b	0x3b904 <_ZN18ChiMetadataManager13GetFreeHolderEjjjRNSt3__16chrono10time_pointINS1_12steady_clockENS1_8durationIxNS0_5ratioILl1ELl1000000000EEEEEEE+0x31c>
   3bab4: 24 00 00 90  	adrp	x4, 0x3f000 <_ZN18ChiMetadataManager13GetFreeHolderEjjjRNSt3__16chrono10time_pointINS1_12steady_clockENS1_8durationIxNS0_5ratioILl1ELl1000000000EEEEEEE+0x4dc>
   3bac8: 41 03 00 54  	b.ne	0x3bb30 <_ZN18ChiMetadataManager13GetFreeHolderEjjjRNSt3__16chrono10time_pointINS1_12steady_clockENS1_8durationIxNS0_5ratioILl1ELl1000000000EEEEEEE+0x548>
   3bacc: 9a fe ff b0  	adrp	x26, 0xc000 <_ZN18ChiMetadataManager13GetFreeHolderEjjjRNSt3__16chrono10time_pointINS1_12steady_clockENS1_8durationIxNS0_5ratioILl1ELl1000000000EEEEEEE+0x428>
   3baf0: a1 fe ff 90  	adrp	x1, 0xf000 <_ZN18ChiMetadataManager13GetFreeHolderEjjjRNSt3__16chrono10time_pointINS1_12steady_clockENS1_8durationIxNS0_5ratioILl1ELl1000000000EEEEEEE+0x458>
   3baf4: 62 fe ff d0  	adrp	x2, 0x9000 <_ZN18ChiMetadataManager13GetFreeHolderEjjjRNSt3__16chrono10time_pointINS1_12steady_clockENS1_8durationIxNS0_5ratioILl1ELl1000000000EEEEEEE+0x444>
   3baf8: 85 fe ff f0  	adrp	x5, 0xe000 <_ZN18ChiMetadataManager13GetFreeHolderEjjjRNSt3__16chrono10time_pointINS1_12steady_clockENS1_8durationIxNS0_5ratioILl1ELl1000000000EEEEEEE+0x45c>
   3bb30: 9b fe ff b0  	adrp	x27, 0xc000 <_ZN18ChiMetadataManager13GetFreeHolderEjjjRNSt3__16chrono10time_pointINS1_12steady_clockENS1_8durationIxNS0_5ratioILl1ELl1000000000EEEEEEE+0x48c>
   3bb58: a0 fe ff 90  	adrp	x0, 0xf000 <_ZN18ChiMetadataManager13GetFreeHolderEjjjRNSt3__16chrono10time_pointINS1_12steady_clockENS1_8durationIxNS0_5ratioILl1ELl1000000000EEEEEEE+0x4c0>
   3bb5c: 81 fe ff b0  	adrp	x1, 0xc000 <_ZN18ChiMetadataManager13GetFreeHolderEjjjRNSt3__16chrono10time_pointINS1_12steady_clockENS1_8durationIxNS0_5ratioILl1ELl1000000000EEEEEEE+0x4b8>
   3bb60: 85 fe ff d0  	adrp	x5, 0xd000 <_ZN18ChiMetadataManager13GetFreeHolderEjjjRNSt3__16chrono10time_pointINS1_12steady_clockENS1_8durationIxNS0_5ratioILl1ELl1000000000EEEEEEE+0x4c0>
   3bb6c: 83 fe ff f0  	adrp	x3, 0xe000 <_ZN18ChiMetadataManager13GetFreeHolderEjjjRNSt3__16chrono10time_pointINS1_12steady_clockENS1_8durationIxNS0_5ratioILl1ELl1000000000EEEEEEE+0x4d0>
   3bb94: bf 0a 00 94  	bl	0x3e690 <_ZN6ChiLog9LogSystemEPKcS1_S1_S1_iS1_z@plt>
   3bb9c: 39 00 00 14  	b	0x3bc80 <_ZN18ChiMetadataManager13GetFreeHolderEjjjRNSt3__16chrono10time_pointINS1_12steady_clockENS1_8durationIxNS0_5ratioILl1ELl1000000000EEEEEEE+0x698>
   3bba0: 2d 00 00 90  	adrp	x13, 0x3f000 <_ZN18ChiMetadataManager13GetFreeHolderEjjjRNSt3__16chrono10time_pointINS1_12steady_clockENS1_8durationIxNS0_5ratioILl1ELl1000000000EEEEEEE+0x5c8>
   3bba4: 9a fe ff b0  	adrp	x26, 0xc000 <_ZN18ChiMetadataManager13GetFreeHolderEjjjRNSt3__16chrono10time_pointINS1_12steady_clockENS1_8durationIxNS0_5ratioILl1ELl1000000000EEEEEEE+0x500>
   3bbb8: 41 03 00 54  	b.ne	0x3bc20 <_ZN18ChiMetadataManager13GetFreeHolderEjjjRNSt3__16chrono10time_pointINS1_12steady_clockENS1_8durationIxNS0_5ratioILl1ELl1000000000EEEEEEE+0x638>
   3bbdc: a1 fe ff 90  	adrp	x1, 0xf000 <_ZN18ChiMetadataManager13GetFreeHolderEjjjRNSt3__16chrono10time_pointINS1_12steady_clockENS1_8durationIxNS0_5ratioILl1ELl1000000000EEEEEEE+0x544>
   3bbe0: 62 fe ff b0  	adrp	x2, 0x8000 <_ZN18ChiMetadataManager13GetFreeHolderEjjjRNSt3__16chrono10time_pointINS1_12steady_clockENS1_8durationIxNS0_5ratioILl1ELl1000000000EEEEEEE+0x52c>
   3bbe4: 85 fe ff f0  	adrp	x5, 0xe000 <_ZN18ChiMetadataManager13GetFreeHolderEjjjRNSt3__16chrono10time_pointINS1_12steady_clockENS1_8durationIxNS0_5ratioILl1ELl1000000000EEEEEEE+0x548>
   3bc40: 80 fe ff f0  	adrp	x0, 0xe000 <_ZN18ChiMetadataManager13GetFreeHolderEjjjRNSt3__16chrono10time_pointINS1_12steady_clockENS1_8durationIxNS0_5ratioILl1ELl1000000000EEEEEEE+0x5a4>
   3bc44: 81 fe ff b0  	adrp	x1, 0xc000 <_ZN18ChiMetadataManager13GetFreeHolderEjjjRNSt3__16chrono10time_pointINS1_12steady_clockENS1_8durationIxNS0_5ratioILl1ELl1000000000EEEEEEE+0x5a0>
   3bc48: 83 fe ff f0  	adrp	x3, 0xe000 <_ZN18ChiMetadataManager13GetFreeHolderEjjjRNSt3__16chrono10time_pointINS1_12steady_clockENS1_8durationIxNS0_5ratioILl1ELl1000000000EEEEEEE+0x5ac>
   3bc4c: 85 fe ff f0  	adrp	x5, 0xe000 <_ZN18ChiMetadataManager13GetFreeHolderEjjjRNSt3__16chrono10time_pointINS1_12steady_clockENS1_8durationIxNS0_5ratioILl1ELl1000000000EEEEEEE+0x5b0>
   3bc7c: 85 0a 00 94  	bl	0x3e690 <_ZN6ChiLog9LogSystemEPKcS1_S1_S1_iS1_z@plt>
   3bcc0: 60 00 00 54  	b.eq	0x3bccc <_ZN18ChiMetadataManager13GetFreeHolderEjjjRNSt3__16chrono10time_pointINS1_12steady_clockENS1_8durationIxNS0_5ratioILl1ELl1000000000EEEEEEE+0x6e4>
   3bcc4: 6f 0b 00 94  	bl	0x3ea80 <_ZNSt3__16chrono12steady_clock3nowEv@plt>
   3bccc: 27 00 00 90  	adrp	x7, 0x3f000 <_ZN18ChiMetadataManager13GetFreeHolderEjjjRNSt3__16chrono10time_pointINS1_12steady_clockENS1_8durationIxNS0_5ratioILl1ELl1000000000EEEEEEE+0x6f4>
   3bce8: 25 07 28 36  	tbz	w5, #5, 0x3bdcc <_ZN18ChiMetadataManager13GetFreeHolderEjjjRNSt3__16chrono10time_pointINS1_12steady_clockENS1_8durationIxNS0_5ratioILl1ELl1000000000EEEEEEE+0x7e4>
   3bcec: 20 00 00 90  	adrp	x0, 0x3f000 <_ZN18ChiMetadataManager13GetFreeHolderEjjjRNSt3__16chrono10time_pointINS1_12steady_clockENS1_8durationIxNS0_5ratioILl1ELl1000000000EEEEEEE+0x714>
   3bcfc: 41 03 00 54  	b.ne	0x3bd64 <_ZN18ChiMetadataManager13GetFreeHolderEjjjRNSt3__16chrono10time_pointINS1_12steady_clockENS1_8durationIxNS0_5ratioILl1ELl1000000000EEEEEEE+0x77c>
   3bd00: 96 fe ff b0  	adrp	x22, 0xc000 <_ZN18ChiMetadataManager13GetFreeHolderEjjjRNSt3__16chrono10time_pointINS1_12steady_clockENS1_8durationIxNS0_5ratioILl1ELl1000000000EEEEEEE+0x65c>
   3bd24: a2 fe ff 90  	adrp	x2, 0xf000 <_ZN18ChiMetadataManager13GetFreeHolderEjjjRNSt3__16chrono10time_pointINS1_12steady_clockENS1_8durationIxNS0_5ratioILl1ELl1000000000EEEEEEE+0x68c>
   3bd28: 85 fe ff f0  	adrp	x5, 0xe000 <_ZN18ChiMetadataManager13GetFreeHolderEjjjRNSt3__16chrono10time_pointINS1_12steady_clockENS1_8durationIxNS0_5ratioILl1ELl1000000000EEEEEEE+0x68c>
   3bd3c: a1 fe ff 90  	adrp	x1, 0xf000 <_ZN18ChiMetadataManager13GetFreeHolderEjjjRNSt3__16chrono10time_pointINS1_12steady_clockENS1_8durationIxNS0_5ratioILl1ELl1000000000EEEEEEE+0x6a4>
   3bd64: 9a fe ff b0  	adrp	x26, 0xc000 <_ZN18ChiMetadataManager13GetFreeHolderEjjjRNSt3__16chrono10time_pointINS1_12steady_clockENS1_8durationIxNS0_5ratioILl1ELl1000000000EEEEEEE+0x6c0>
   3bd8c: 80 fe ff f0  	adrp	x0, 0xe000 <_ZN18ChiMetadataManager13GetFreeHolderEjjjRNSt3__16chrono10time_pointINS1_12steady_clockENS1_8durationIxNS0_5ratioILl1ELl1000000000EEEEEEE+0x6f0>
   3bd90: 81 fe ff b0  	adrp	x1, 0xc000 <_ZN18ChiMetadataManager13GetFreeHolderEjjjRNSt3__16chrono10time_pointINS1_12steady_clockENS1_8durationIxNS0_5ratioILl1ELl1000000000EEEEEEE+0x6ec>
   3bd94: 83 fe ff f0  	adrp	x3, 0xe000 <_ZN18ChiMetadataManager13GetFreeHolderEjjjRNSt3__16chrono10time_pointINS1_12steady_clockENS1_8durationIxNS0_5ratioILl1ELl1000000000EEEEEEE+0x6f8>
   3bd98: 85 fe ff 90  	adrp	x5, 0xb000 <_ZN18ChiMetadataManager13GetFreeHolderEjjjRNSt3__16chrono10time_pointINS1_12steady_clockENS1_8durationIxNS0_5ratioILl1ELl1000000000EEEEEEE+0x6f0>
   3bdc8: 32 0a 00 94  	bl	0x3e690 <_ZN6ChiLog9LogSystemEPKcS1_S1_S1_iS1_z@plt>
   3bdd0: 64 0a 00 94  	bl	0x3e760 <_ZNSt3__15mutex6unlockEv@plt>
   3bdd8: 60 00 00 b4  	cbz	x0, 0x3bde4 <_ZN18ChiMetadataManager13GetFreeHolderEjjjRNSt3__16chrono10time_pointINS1_12steady_clockENS1_8durationIxNS0_5ratioILl1ELl1000000000EEEEEEE+0x7fc>
   3bdf0: 41 01 00 54  	b.ne	0x3be18 <_ZN18ChiMetadataManager13GetFreeHolderEjjjRNSt3__16chrono10time_pointINS1_12steady_clockENS1_8durationIxNS0_5ratioILl1ELl1000000000EEEEEEE+0x830>
000000000003be20 <_ZN18ChiMetadataManager3GetEjj>:
   3be58: 0a 0b 00 94  	bl	0x3ea80 <_ZNSt3__16chrono12steady_clock3nowEv@plt>
   3be68: 68 01 00 54  	b.hi	0x3be94 <_ZN18ChiMetadataManager3GetEjj+0x74>
   3be74: 08 01 00 54  	b.hi	0x3be94 <_ZN18ChiMetadataManager3GetEjj+0x74>
   3be8c: 21 0c 00 94  	bl	0x3ef10 <_ZN18ChiMetadataManager13GetFreeHolderEjjjRNSt3__16chrono10time_pointINS1_12steady_clockENS1_8durationIxNS0_5ratioILl1ELl1000000000EEEEEEE@plt>
   3be90: 32 00 00 14  	b	0x3bf58 <_ZN18ChiMetadataManager3GetEjj+0x138>
   3be94: 28 00 00 90  	adrp	x8, 0x3f000 <_ZN18ChiMetadataManager3GetEjj+0x84>
   3bea0: a8 05 00 36  	tbz	w8, #0, 0x3bf54 <_ZN18ChiMetadataManager3GetEjj+0x134>
   3bea4: 29 00 00 90  	adrp	x9, 0x3f000 <_ZN18ChiMetadataManager3GetEjj+0x94>
   3bea8: 96 fe ff b0  	adrp	x22, 0xc000 <_ZN18ChiMetadataManager13GetFreeHolderEjjjRNSt3__16chrono10time_pointINS1_12steady_clockENS1_8durationIxNS0_5ratioILl1ELl1000000000EEEEEEE+0x804>
   3bebc: 61 02 00 54  	b.ne	0x3bf08 <_ZN18ChiMetadataManager3GetEjj+0xe8>
   3bed4: a1 fe ff 90  	adrp	x1, 0xf000 <_ZN18ChiMetadataManager3GetEjj+0x4>
   3bed8: 62 fe ff 90  	adrp	x2, 0x7000 <_ZN18ChiMetadataManager13GetFreeHolderEjjjRNSt3__16chrono10time_pointINS1_12steady_clockENS1_8durationIxNS0_5ratioILl1ELl1000000000EEEEEEE+0x820>
   3bedc: 85 fe ff 90  	adrp	x5, 0xb000 <_ZN18ChiMetadataManager13GetFreeHolderEjjjRNSt3__16chrono10time_pointINS1_12steady_clockENS1_8durationIxNS0_5ratioILl1ELl1000000000EEEEEEE+0x834>
   3bf1c: 81 fe ff f0  	adrp	x1, 0xe000 <_ZN18ChiMetadataManager3GetEjj+0x48>
   3bf24: 60 fe ff b0  	adrp	x0, 0x8000 <_ZN18ChiMetadataManager3GetEjj+0x38>
   3bf28: 83 fe ff 90  	adrp	x3, 0xb000 <_ZN18ChiMetadataManager3GetEjj+0x48>
   3bf2c: 65 fe ff f0  	adrp	x5, 0xa000 <_ZN18ChiMetadataManager3GetEjj+0x48>
   3bf50: d0 09 00 94  	bl	0x3e690 <_ZN6ChiLog9LogSystemEPKcS1_S1_S1_iS1_z@plt>
   3bf64: e1 00 00 54  	b.ne	0x3bf80 <_ZN18ChiMetadataManager3GetEjj+0x160>
000000000003bf88 <_ZN18ChiMetadataManager24RestoreNonstickyMetadataEPK15camera_metadataP11ChiMetadata>:
   3bfb4: 01 07 00 b4  	cbz	x1, 0x3c094 <_ZN18ChiMetadataManager24RestoreNonstickyMetadataEPK15camera_metadataP11ChiMetadata+0x10c>
   3bfe0: 80 00 00 34  	cbz	w0, 0x3bff0 <_ZN18ChiMetadataManager24RestoreNonstickyMetadataEPK15camera_metadataP11ChiMetadata+0x68>
   3bfec: 02 00 00 14  	b	0x3bff4 <_ZN18ChiMetadataManager24RestoreNonstickyMetadataEPK15camera_metadataP11ChiMetadata+0x6c>
   3c018: c0 00 00 34  	cbz	w0, 0x3c030 <_ZN18ChiMetadataManager24RestoreNonstickyMetadataEPK15camera_metadataP11ChiMetadata+0xa8>
   3c054: c0 00 00 34  	cbz	w0, 0x3c06c <_ZN18ChiMetadataManager24RestoreNonstickyMetadataEPK15camera_metadataP11ChiMetadata+0xe4>
   3c068: 02 00 00 14  	b	0x3c070 <_ZN18ChiMetadataManager24RestoreNonstickyMetadataEPK15camera_metadataP11ChiMetadata+0xe8>
   3c06c: 57 01 00 34  	cbz	w23, 0x3c094 <_ZN18ChiMetadataManager24RestoreNonstickyMetadataEPK15camera_metadataP11ChiMetadata+0x10c>
   3c090: 41 ff ff 54  	b.ne	0x3c078 <_ZN18ChiMetadataManager24RestoreNonstickyMetadataEPK15camera_metadataP11ChiMetadata+0xf0>
   3c0a0: e1 00 00 54  	b.ne	0x3c0bc <_ZN18ChiMetadataManager24RestoreNonstickyMetadataEPK15camera_metadataP11ChiMetadata+0x134>
000000000003c0c0 <_ZN18ChiMetadataManager8GetInputEPK15camera_metadatajbb>:
   3c10c: 5d 0a 00 94  	bl	0x3ea80 <_ZNSt3__16chrono12steady_clock3nowEv@plt>
   3c118: a8 08 00 34  	cbz	w8, 0x3c22c <_ZN18ChiMetadataManager8GetInputEPK15camera_metadatajbb+0x16c>
   3c120: 96 00 00 b4  	cbz	x22, 0x3c130 <_ZN18ChiMetadataManager8GetInputEPK15camera_metadatajbb+0x70>
   3c12c: 01 05 00 54  	b.ne	0x3c1cc <_ZN18ChiMetadataManager8GetInputEPK15camera_metadatajbb+0x10c>
   3c130: f3 04 00 36  	tbz	w19, #0, 0x3c1cc <_ZN18ChiMetadataManager8GetInputEPK15camera_metadatajbb+0x10c>
   3c13c: 80 04 00 54  	b.eq	0x3c1cc <_ZN18ChiMetadataManager8GetInputEPK15camera_metadatajbb+0x10c>
   3c168: 2a 03 00 34  	cbz	w10, 0x3c1cc <_ZN18ChiMetadataManager8GetInputEPK15camera_metadatajbb+0x10c>
   3c19c: 60 00 00 54  	b.eq	0x3c1a8 <_ZN18ChiMetadataManager8GetInputEPK15camera_metadatajbb+0xe8>
   3c1a0: 38 0a 00 94  	bl	0x3ea80 <_ZNSt3__16chrono12steady_clock3nowEv@plt>
   3c1a8: 0c 00 00 f0  	adrp	x12, 0x3f000 <_ZN18ChiMetadataManager8GetInputEPK15camera_metadatajbb+0xf4>
   3c1bc: 2b 13 28 37  	tbnz	w11, #5, 0x3c420 <_ZN18ChiMetadataManager8GetInputEPK15camera_metadatajbb+0x360>
   3c1c4: 80 0b 00 34  	cbz	w0, 0x3c334 <_ZN18ChiMetadataManager8GetInputEPK15camera_metadatajbb+0x274>
   3c1c8: cf 00 00 14  	b	0x3c504 <_ZN18ChiMetadataManager8GetInputEPK15camera_metadatajbb+0x444>
   3c1e0: 4c 0b 00 94  	bl	0x3ef10 <_ZN18ChiMetadataManager13GetFreeHolderEjjjRNSt3__16chrono10time_pointINS1_12steady_clockENS1_8durationIxNS0_5ratioILl1ELl1000000000EEEEEEE@plt>
   3c1e8: 76 08 00 b4  	cbz	x22, 0x3c2f4 <_ZN18ChiMetadataManager8GetInputEPK15camera_metadatajbb+0x234>
   3c1ec: 54 08 00 b4  	cbz	x20, 0x3c2f4 <_ZN18ChiMetadataManager8GetInputEPK15camera_metadatajbb+0x234>
   3c1f0: 97 09 00 36  	tbz	w23, #0, 0x3c320 <_ZN18ChiMetadataManager8GetInputEPK15camera_metadatajbb+0x260>
   3c208: e0 17 00 35  	cbnz	w0, 0x3c504 <_ZN18ChiMetadataManager8GetInputEPK15camera_metadatajbb+0x444>
   3c224: 80 08 00 34  	cbz	w0, 0x3c334 <_ZN18ChiMetadataManager8GetInputEPK15camera_metadatajbb+0x274>
   3c228: b7 00 00 14  	b	0x3c504 <_ZN18ChiMetadataManager8GetInputEPK15camera_metadatajbb+0x444>
   3c22c: 03 00 00 f0  	adrp	x3, 0x3f000 <_ZN18ChiMetadataManager8GetInputEPK15camera_metadatajbb+0x178>
   3c238: af 05 00 36  	tbz	w15, #0, 0x3c2ec <_ZN18ChiMetadataManager8GetInputEPK15camera_metadatajbb+0x22c>
   3c23c: 04 00 00 f0  	adrp	x4, 0x3f000 <_ZN18ChiMetadataManager8GetInputEPK15camera_metadatajbb+0x188>
   3c24c: 81 02 00 54  	b.ne	0x3c29c <_ZN18ChiMetadataManager8GetInputEPK15camera_metadatajbb+0x1dc>
   3c250: 96 fe ff 90  	adrp	x22, 0xc000 <_ZN18ChiMetadataManager8GetInputEPK15camera_metadatajbb+0xd0>
   3c270: 81 fe ff f0  	adrp	x1, 0xf000 <_ZN18ChiMetadataManager8GetInputEPK15camera_metadatajbb+0xfc>
   3c274: 42 fe ff f0  	adrp	x2, 0x7000 <_ZN18ChiMetadataManager8GetInputEPK15camera_metadatajbb+0xe0>
   3c278: 45 fe ff f0  	adrp	x5, 0x7000 <_ZN18ChiMetadataManager8GetInputEPK15camera_metadatajbb+0xe4>
   3c29c: 98 fe ff 90  	adrp	x24, 0xc000 <_ZN18ChiMetadataManager8GetInputEPK15camera_metadatajbb+0x11c>
   3c2c0: 60 fe ff 90  	adrp	x0, 0x8000 <_ZN18ChiMetadataManager8GetInputEPK15camera_metadatajbb+0x130>
   3c2c4: 81 fe ff d0  	adrp	x1, 0xe000 <_ZN18ChiMetadataManager8GetInputEPK15camera_metadatajbb+0x14c>
   3c2c8: 43 fe ff f0  	adrp	x3, 0x7000 <_ZN18ChiMetadataManager8GetInputEPK15camera_metadatajbb+0x134>
   3c2cc: 85 fe ff b0  	adrp	x5, 0xd000 <_ZN18ChiMetadataManager8GetInputEPK15camera_metadatajbb+0x150>
   3c2e8: ea 08 00 94  	bl	0x3e690 <_ZN6ChiLog9LogSystemEPKcS1_S1_S1_iS1_z@plt>
   3c2f0: b1 00 00 14  	b	0x3c5b4 <_ZN18ChiMetadataManager8GetInputEPK15camera_metadatajbb+0x4f4>
   3c2f8: d4 01 00 b4  	cbz	x20, 0x3c330 <_ZN18ChiMetadataManager8GetInputEPK15camera_metadatajbb+0x270>
   3c2fc: b7 01 00 36  	tbz	w23, #0, 0x3c330 <_ZN18ChiMetadataManager8GetInputEPK15camera_metadatajbb+0x270>
   3c318: e0 00 00 34  	cbz	w0, 0x3c334 <_ZN18ChiMetadataManager8GetInputEPK15camera_metadatajbb+0x274>
   3c31c: 7a 00 00 14  	b	0x3c504 <_ZN18ChiMetadataManager8GetInputEPK15camera_metadatajbb+0x444>
   3c330: a0 0e 00 35  	cbnz	w0, 0x3c504 <_ZN18ChiMetadataManager8GetInputEPK15camera_metadatajbb+0x444>
   3c334: 94 0e 00 b4  	cbz	x20, 0x3c504 <_ZN18ChiMetadataManager8GetInputEPK15camera_metadatajbb+0x444>
   3c344: 96 13 00 b4  	cbz	x22, 0x3c5b4 <_ZN18ChiMetadataManager8GetInputEPK15camera_metadatajbb+0x4f4>
   3c368: 80 00 00 34  	cbz	w0, 0x3c378 <_ZN18ChiMetadataManager8GetInputEPK15camera_metadatajbb+0x2b8>
   3c374: 02 00 00 14  	b	0x3c37c <_ZN18ChiMetadataManager8GetInputEPK15camera_metadatajbb+0x2bc>
   3c3a0: c0 00 00 34  	cbz	w0, 0x3c3b8 <_ZN18ChiMetadataManager8GetInputEPK15camera_metadatajbb+0x2f8>
   3c3dc: c0 00 00 34  	cbz	w0, 0x3c3f4 <_ZN18ChiMetadataManager8GetInputEPK15camera_metadatajbb+0x334>
   3c3f0: 02 00 00 14  	b	0x3c3f8 <_ZN18ChiMetadataManager8GetInputEPK15camera_metadatajbb+0x338>
   3c3f4: 13 0e 00 34  	cbz	w19, 0x3c5b4 <_ZN18ChiMetadataManager8GetInputEPK15camera_metadatajbb+0x4f4>
   3c418: 41 ff ff 54  	b.ne	0x3c400 <_ZN18ChiMetadataManager8GetInputEPK15camera_metadatajbb+0x340>
   3c41c: 66 00 00 14  	b	0x3c5b4 <_ZN18ChiMetadataManager8GetInputEPK15camera_metadatajbb+0x4f4>
   3c420: 0d 00 00 f0  	adrp	x13, 0x3f000 <_ZN18ChiMetadataManager8GetInputEPK15camera_metadatajbb+0x36c>
   3c430: 41 03 00 54  	b.ne	0x3c498 <_ZN18ChiMetadataManager8GetInputEPK15camera_metadatajbb+0x3d8>
   3c434: 98 fe ff 90  	adrp	x24, 0xc000 <_ZN18ChiMetadataManager8GetInputEPK15camera_metadatajbb+0x2b4>
   3c458: 81 fe ff f0  	adrp	x1, 0xf000 <_ZN18ChiMetadataManager8GetInputEPK15camera_metadatajbb+0x2e4>
   3c460: 62 fe ff 90  	adrp	x2, 0x8000 <_ZN18ChiMetadataManager8GetInputEPK15camera_metadatajbb+0x2d0>
   3c464: 45 fe ff f0  	adrp	x5, 0x7000 <_ZN18ChiMetadataManager8GetInputEPK15camera_metadatajbb+0x2d0>
   3c498: 98 fe ff 90  	adrp	x24, 0xc000 <_ZN18ChiMetadataManager8GetInputEPK15camera_metadatajbb+0x318>
   3c4c4: 80 fe ff d0  	adrp	x0, 0xe000 <_ZN18ChiMetadataManager8GetInputEPK15camera_metadatajbb+0x34c>
   3c4c8: 81 fe ff 90  	adrp	x1, 0xc000 <_ZN18ChiMetadataManager8GetInputEPK15camera_metadatajbb+0x348>
   3c4cc: 43 fe ff f0  	adrp	x3, 0x7000 <_ZN18ChiMetadataManager8GetInputEPK15camera_metadatajbb+0x338>
   3c4d0: 65 fe ff b0  	adrp	x5, 0x9000 <_ZN18ChiMetadataManager8GetInputEPK15camera_metadatajbb+0x344>
   3c4f8: 66 08 00 94  	bl	0x3e690 <_ZN6ChiLog9LogSystemEPKcS1_S1_S1_iS1_z@plt>
   3c500: a0 f1 ff 34  	cbz	w0, 0x3c334 <_ZN18ChiMetadataManager8GetInputEPK15camera_metadatajbb+0x274>
   3c504: 01 00 00 f0  	adrp	x1, 0x3f000 <_ZN18ChiMetadataManager8GetInputEPK15camera_metadatajbb+0x450>
   3c510: 2e 05 00 36  	tbz	w14, #0, 0x3c5b4 <_ZN18ChiMetadataManager8GetInputEPK15camera_metadatajbb+0x4f4>
   3c514: 02 00 00 f0  	adrp	x2, 0x3f000 <_ZN18ChiMetadataManager8GetInputEPK15camera_metadatajbb+0x460>
   3c518: 96 fe ff 90  	adrp	x22, 0xc000 <_ZN18ChiMetadataManager8GetInputEPK15camera_metadatajbb+0x398>
   3c52c: 21 02 00 54  	b.ne	0x3c570 <_ZN18ChiMetadataManager8GetInputEPK15camera_metadatajbb+0x4b0>
   3c544: 81 fe ff f0  	adrp	x1, 0xf000 <_ZN18ChiMetadataManager8GetInputEPK15camera_metadatajbb+0x3d0>
   3c548: a2 fe ff 90  	adrp	x2, 0x10000 <_ZN18ChiMetadataManager8GetInputEPK15camera_metadatajbb+0x3d8>
   3c54c: 45 fe ff f0  	adrp	x5, 0x7000 <_ZN18ChiMetadataManager8GetInputEPK15camera_metadatajbb+0x3b8>
   3c584: 81 fe ff d0  	adrp	x1, 0xe000 <_ZN18ChiMetadataManager8GetInputEPK15camera_metadatajbb+0x40c>
   3c58c: 60 fe ff 90  	adrp	x0, 0x8000 <_ZN18ChiMetadataManager8GetInputEPK15camera_metadatajbb+0x3fc>
   3c590: 43 fe ff f0  	adrp	x3, 0x7000 <_ZN18ChiMetadataManager8GetInputEPK15camera_metadatajbb+0x3fc>
   3c594: 85 fe ff f0  	adrp	x5, 0xf000 <_ZN18ChiMetadataManager8GetInputEPK15camera_metadatajbb+0x420>
   3c5b0: 38 08 00 94  	bl	0x3e690 <_ZN6ChiLog9LogSystemEPKcS1_S1_S1_iS1_z@plt>
   3c5b8: 30 0d 00 34  	cbz	w16, 0x3c75c <_ZN18ChiMetadataManager8GetInputEPK15camera_metadatajbb+0x69c>
   3c5cc: 83 0c 00 54  	b.lo	0x3c75c <_ZN18ChiMetadataManager8GetInputEPK15camera_metadatajbb+0x69c>
   3c5fc: 06 00 00 14  	b	0x3c614 <_ZN18ChiMetadataManager8GetInputEPK15camera_metadatajbb+0x554>
   3c610: e0 09 00 54  	b.eq	0x3c74c <_ZN18ChiMetadataManager8GetInputEPK15camera_metadatajbb+0x68c>
