    f244: 08 97 0a 98  	ldrsw	x8, 0x24524 <_ZN11ChiMetadata12AddReferenceEPKc+0x20c>
    f2ac: 08 97 0a 98  	ldrsw	x8, 0x2458c <_ZN11ChiMetadata12AddReferenceEPKc+0x274>
    f2d4: 08 97 0a 98  	ldrsw	x8, 0x245b4 <_ZN11ChiMetadata12AddReferenceEPKc+0x29c>
    f334: 08 97 0a 98  	ldrsw	x8, 0x24614 <_ZN11ChiMetadata12AddReferenceEPKc+0x2fc>
    f77c: 08 97 0a 98  	ldrsw	x8, 0x24a5c <_ZN11ChiMetadata8Iterator4NextEv+0x24>
    f84c: 08 97 0a 98  	ldrsw	x8, 0x24b2c <_ZN18ChiMetadataManager10MetaClientC2Ev+0x44>
    fc5c: 08 97 0a 98  	ldrsw	x8, 0x24f3c <_ZN18ChiMetadataManager10MetaClient14ReleaseBuffersEv+0x284>
    fca4: 08 97 0a 98  	ldrsw	x8, 0x24f84 <_ZN18ChiMetadataManager10MetaClient14ReleaseBuffersEv+0x2cc>
    fdbc: 08 97 0a 98  	ldrsw	x8, 0x2509c <_ZN18ChiMetadataManager10MetaClient12TrackBuffersERNSt3__16chrono10time_pointINS2_12steady_clockENS2_8durationIxNS1_5ratioILl1ELl1000000000EEEEEEEj+0xd4>
    fe1c: 08 97 0a 98  	ldrsw	x8, 0x250fc <_ZN18ChiMetadataManager10MetaClient12TrackBuffersERNSt3__16chrono10time_pointINS2_12steady_clockENS2_8durationIxNS1_5ratioILl1ELl1000000000EEEEEEEj+0x134>
   10074: 08 97 0a 98  	ldrsw	x8, 0x25354 <_ZN18ChiMetadataManager10MetaClient15AllocateBuffersEPjjjjj+0xd4>
   100a4: 08 97 0a 98  	ldrsw	x8, 0x25384 <_ZN18ChiMetadataManager10MetaClient15AllocateBuffersEPjjjjj+0x104>
   101e4: 08 97 0a 98  	ldrsw	x8, 0x254c4 <_ZN18ChiMetadataManager10MetaClient15AllocateBuffersEPjjjjj+0x244>
   1020c: 08 97 0a 98  	ldrsw	x8, 0x254ec <_ZN18ChiMetadataManager10MetaClient15AllocateBuffersEPjjjjj+0x26c>
   10234: 08 97 0a 98  	ldrsw	x8, 0x25514 <_ZN18ChiMetadataManager10MetaClient15AllocateBuffersEPjjjjj+0x294>
   10264: 08 97 0a 98  	ldrsw	x8, 0x25544 <_ZN18ChiMetadataManager10MetaClient15AllocateBuffersEPjjjjj+0x2c4>
   1038c: 08 97 0a 98  	ldrsw	x8, 0x2566c <_ZN18ChiMetadataManager10MetaClient15AllocateBuffersEPjjjjj+0x3ec>
   1043c: 08 97 0a 98  	ldrsw	x8, 0x2571c <_ZN18ChiMetadataManager10MetaClient15AllocateBuffersEPjjjjj+0x49c>
   10464: 08 97 0a 98  	ldrsw	x8, 0x25744 <_ZN18ChiMetadataManager10MetaClient15AllocateBuffersEPjjjjj+0x4c4>
   1052c: 08 97 0a 98  	ldrsw	x8, 0x2580c <_ZN18ChiMetadataManager10MetaClient15AllocateBuffersEPjjjjj+0x58c>
   1057c: 08 97 0a 98  	ldrsw	x8, 0x2585c <_ZN18ChiMetadataManager10MetaClient15AllocateBuffersEPjjjjj+0x5dc>
   105ac: 08 97 0a 98  	ldrsw	x8, 0x2588c <_ZN18ChiMetadataManager10MetaClient15AllocateBuffersEPjjjjj+0x60c>
   10610: 04 95 06 9c  	ldr	q4, 0x1d8b0 <_ZN8ChxUtils28DoesCameraHaveOnlyRawStreamsEP19ChiStreamConfigInfoj+0x68>
   10634: 20 93 02 9c  	ldr	q0, 0x15898 <_ZNK15ChiFeature2Stub23OnExecuteProcessRequestEP24ChiFeature2RequestObject+0x138>
   10674: 08 97 0a 98  	ldrsw	x8, 0x25954 <_ZN18ChiMetadataManager21AndroidMetadataHolderD2Ev+0x14>
   106a4: 08 97 0a 98  	ldrsw	x8, 0x25984 <_ZN18ChiMetadataManager21AndroidMetadataHolderD2Ev+0x44>
   10714: 08 97 0a 98  	ldrsw	x8, 0x259f4 <_ZN18ChiMetadataManager21AndroidMetadataHolderD2Ev+0xb4>
   10744: 08 97 0a 98  	ldrsw	x8, 0x25a24 <_ZN18ChiMetadataManager21AndroidMetadataHolderD2Ev+0xe4>
   10904: 08 97 0a 98  	ldrsw	x8, 0x25be4 <_ZN18ChiMetadataManager6CreateEjj+0x14c>
   1096c: 08 97 0a 98  	ldrsw	x8, 0x25c4c <_ZN18ChiMetadataManager6CreateEjj+0x1b4>
   10b94: 08 97 0a 98  	ldrsw	x8, 0x25e74 <_ZN18ChiMetadataManager6CreateEjj+0x3dc>
   10bc4: 08 97 0a 98  	ldrsw	x8, 0x25ea4 <_ZN18ChiMetadataManager6CreateEjj+0x40c>
   10c24: 08 97 0a 98  	ldrsw	x8, 0x25f04 <_ZN18ChiMetadataManager10InitializeEv+0x24>
   10cac: 08 97 0a 98  	ldrsw	x8, 0x25f8c <_ZN18ChiMetadataManager10InitializeEv+0xac>
   10cdc: 08 97 0a 98  	ldrsw	x8, 0x25fbc <_ZN18ChiMetadataManager10InitializeEv+0xdc>
   10d2c: 08 97 0a 98  	ldrsw	x8, 0x2600c <_ZN18ChiMetadataManager10InitializeEv+0x12c>
   10d5c: 08 97 0a 98  	ldrsw	x8, 0x2603c <_ZN18ChiMetadataManager10InitializeEv+0x15c>
   10d8c: 08 97 0a 98  	ldrsw	x8, 0x2606c <_ZN18ChiMetadataManager10InitializeEv+0x18c>
   10db4: 08 97 0a 98  	ldrsw	x8, 0x26094 <_ZN18ChiMetadataManager10InitializeEv+0x1b4>
   10de4: 08 97 0a 98  	ldrsw	x8, 0x260c4 <_ZN18ChiMetadataManager10InitializeEv+0x1e4>
   10e0c: 08 97 0a 98  	ldrsw	x8, 0x260ec <_ZN18ChiMetadataManager10InitializeEv+0x20c>
   10e3c: 08 97 0a 98  	ldrsw	x8, 0x2611c <_ZN18ChiMetadataManager10InitializeEv+0x23c>
   10f44: 08 97 0a 98  	ldrsw	x8, 0x26224 <_ZN18ChiMetadataManager10InitializeEv+0x344>
   10f9c: 08 97 0a 98  	ldrsw	x8, 0x2627c <_ZN18ChiMetadataManager10InitializeEv+0x39c>
   10fcc: 08 97 0a 98  	ldrsw	x8, 0x262ac <_ZN18ChiMetadataManager10InitializeEv+0x3cc>
   1101c: 08 97 0a 98  	ldrsw	x8, 0x262fc <_ZN18ChiMetadataManager10InitializeEv+0x41c>
   1104c: 08 97 0a 98  	ldrsw	x8, 0x2632c <_ZN18ChiMetadataManager10InitializeEv+0x44c>
   1109c: 08 97 0a 98  	ldrsw	x8, 0x2637c <_ZN18ChiMetadataManager10InitializeEv+0x49c>
   110ec: 08 97 0a 98  	ldrsw	x8, 0x263cc <_ZN18ChiMetadataManager10InitializeEv+0x4ec>
   1111c: 08 97 0a 98  	ldrsw	x8, 0x263fc <_ZN18ChiMetadataManager10InitializeEv+0x51c>
   11174: 08 97 0a 98  	ldrsw	x8, 0x26454 <_ZN18ChiMetadataManager10InitializeEv+0x574>
   12018: 22 68 00 14  	b	0x2c0a0 <_ZN7android8hardware11hidl_stringD1Ev@plt>
   121d0: bc 67 00 94  	bl	0x2c0c0 <_ZN7android8hardware11hidl_stringC1EPKc@plt>
   1220c: ad 67 00 94  	bl	0x2c0c0 <_ZN7android8hardware11hidl_stringC1EPKc@plt>
   12234: a3 67 00 94  	bl	0x2c0c0 <_ZN7android8hardware11hidl_stringC1EPKc@plt>
   1225c: 99 67 00 94  	bl	0x2c0c0 <_ZN7android8hardware11hidl_stringC1EPKc@plt>
   12284: 8f 67 00 94  	bl	0x2c0c0 <_ZN7android8hardware11hidl_stringC1EPKc@plt>
   122ac: 85 67 00 94  	bl	0x2c0c0 <_ZN7android8hardware11hidl_stringC1EPKc@plt>
   122d4: 7b 67 00 94  	bl	0x2c0c0 <_ZN7android8hardware11hidl_stringC1EPKc@plt>
   122fc: 71 67 00 94  	bl	0x2c0c0 <_ZN7android8hardware11hidl_stringC1EPKc@plt>
   12324: 67 67 00 94  	bl	0x2c0c0 <_ZN7android8hardware11hidl_stringC1EPKc@plt>
   1234c: 5d 67 00 94  	bl	0x2c0c0 <_ZN7android8hardware11hidl_stringC1EPKc@plt>
   12374: 53 67 00 94  	bl	0x2c0c0 <_ZN7android8hardware11hidl_stringC1EPKc@plt>
   1239c: 49 67 00 94  	bl	0x2c0c0 <_ZN7android8hardware11hidl_stringC1EPKc@plt>
   123c4: 3f 67 00 94  	bl	0x2c0c0 <_ZN7android8hardware11hidl_stringC1EPKc@plt>
   123ec: 35 67 00 94  	bl	0x2c0c0 <_ZN7android8hardware11hidl_stringC1EPKc@plt>
   12414: 2b 67 00 94  	bl	0x2c0c0 <_ZN7android8hardware11hidl_stringC1EPKc@plt>
   1243c: 21 67 00 94  	bl	0x2c0c0 <_ZN7android8hardware11hidl_stringC1EPKc@plt>
   12464: 17 67 00 94  	bl	0x2c0c0 <_ZN7android8hardware11hidl_stringC1EPKc@plt>
   1248c: 0d 67 00 94  	bl	0x2c0c0 <_ZN7android8hardware11hidl_stringC1EPKc@plt>
   124b4: 03 67 00 94  	bl	0x2c0c0 <_ZN7android8hardware11hidl_stringC1EPKc@plt>
   124dc: f9 66 00 94  	bl	0x2c0c0 <_ZN7android8hardware11hidl_stringC1EPKc@plt>
   12504: ef 66 00 94  	bl	0x2c0c0 <_ZN7android8hardware11hidl_stringC1EPKc@plt>
   12a74: 9f 65 00 94  	bl	0x2c0f0 <_ZN7android8hardware11hidl_stringC1ERKNSt3__112basic_stringIcNS2_11char_traitsIcEENS2_9allocatorIcEEEE@plt>
   12a9c: 95 65 00 94  	bl	0x2c0f0 <_ZN7android8hardware11hidl_stringC1ERKNSt3__112basic_stringIcNS2_11char_traitsIcEENS2_9allocatorIcEEEE@plt>
   12ac4: 8b 65 00 94  	bl	0x2c0f0 <_ZN7android8hardware11hidl_stringC1ERKNSt3__112basic_stringIcNS2_11char_traitsIcEENS2_9allocatorIcEEEE@plt>
   12aec: 81 65 00 94  	bl	0x2c0f0 <_ZN7android8hardware11hidl_stringC1ERKNSt3__112basic_stringIcNS2_11char_traitsIcEENS2_9allocatorIcEEEE@plt>
   12b14: 77 65 00 94  	bl	0x2c0f0 <_ZN7android8hardware11hidl_stringC1ERKNSt3__112basic_stringIcNS2_11char_traitsIcEENS2_9allocatorIcEEEE@plt>
   12b3c: 6d 65 00 94  	bl	0x2c0f0 <_ZN7android8hardware11hidl_stringC1ERKNSt3__112basic_stringIcNS2_11char_traitsIcEENS2_9allocatorIcEEEE@plt>
   12b64: 63 65 00 94  	bl	0x2c0f0 <_ZN7android8hardware11hidl_stringC1ERKNSt3__112basic_stringIcNS2_11char_traitsIcEENS2_9allocatorIcEEEE@plt>
   12b8c: 59 65 00 94  	bl	0x2c0f0 <_ZN7android8hardware11hidl_stringC1ERKNSt3__112basic_stringIcNS2_11char_traitsIcEENS2_9allocatorIcEEEE@plt>
   12bb4: 4f 65 00 94  	bl	0x2c0f0 <_ZN7android8hardware11hidl_stringC1ERKNSt3__112basic_stringIcNS2_11char_traitsIcEENS2_9allocatorIcEEEE@plt>
   12bdc: 45 65 00 94  	bl	0x2c0f0 <_ZN7android8hardware11hidl_stringC1ERKNSt3__112basic_stringIcNS2_11char_traitsIcEENS2_9allocatorIcEEEE@plt>
   12c04: 3b 65 00 94  	bl	0x2c0f0 <_ZN7android8hardware11hidl_stringC1ERKNSt3__112basic_stringIcNS2_11char_traitsIcEENS2_9allocatorIcEEEE@plt>
   12c2c: 31 65 00 94  	bl	0x2c0f0 <_ZN7android8hardware11hidl_stringC1ERKNSt3__112basic_stringIcNS2_11char_traitsIcEENS2_9allocatorIcEEEE@plt>
   12c54: 27 65 00 94  	bl	0x2c0f0 <_ZN7android8hardware11hidl_stringC1ERKNSt3__112basic_stringIcNS2_11char_traitsIcEENS2_9allocatorIcEEEE@plt>
   12c7c: 1d 65 00 94  	bl	0x2c0f0 <_ZN7android8hardware11hidl_stringC1ERKNSt3__112basic_stringIcNS2_11char_traitsIcEENS2_9allocatorIcEEEE@plt>
   12ca4: 13 65 00 94  	bl	0x2c0f0 <_ZN7android8hardware11hidl_stringC1ERKNSt3__112basic_stringIcNS2_11char_traitsIcEENS2_9allocatorIcEEEE@plt>
   12ccc: 09 65 00 94  	bl	0x2c0f0 <_ZN7android8hardware11hidl_stringC1ERKNSt3__112basic_stringIcNS2_11char_traitsIcEENS2_9allocatorIcEEEE@plt>
   12cf4: ff 64 00 94  	bl	0x2c0f0 <_ZN7android8hardware11hidl_stringC1ERKNSt3__112basic_stringIcNS2_11char_traitsIcEENS2_9allocatorIcEEEE@plt>
   12d1c: f5 64 00 94  	bl	0x2c0f0 <_ZN7android8hardware11hidl_stringC1ERKNSt3__112basic_stringIcNS2_11char_traitsIcEENS2_9allocatorIcEEEE@plt>
   12d44: eb 64 00 94  	bl	0x2c0f0 <_ZN7android8hardware11hidl_stringC1ERKNSt3__112basic_stringIcNS2_11char_traitsIcEENS2_9allocatorIcEEEE@plt>
   12d6c: e1 64 00 94  	bl	0x2c0f0 <_ZN7android8hardware11hidl_stringC1ERKNSt3__112basic_stringIcNS2_11char_traitsIcEENS2_9allocatorIcEEEE@plt>
   12d94: d7 64 00 94  	bl	0x2c0f0 <_ZN7android8hardware11hidl_stringC1ERKNSt3__112basic_stringIcNS2_11char_traitsIcEENS2_9allocatorIcEEEE@plt>
   12dbc: cd 64 00 94  	bl	0x2c0f0 <_ZN7android8hardware11hidl_stringC1ERKNSt3__112basic_stringIcNS2_11char_traitsIcEENS2_9allocatorIcEEEE@plt>
   12de4: c3 64 00 94  	bl	0x2c0f0 <_ZN7android8hardware11hidl_stringC1ERKNSt3__112basic_stringIcNS2_11char_traitsIcEENS2_9allocatorIcEEEE@plt>
   12e0c: b9 64 00 94  	bl	0x2c0f0 <_ZN7android8hardware11hidl_stringC1ERKNSt3__112basic_stringIcNS2_11char_traitsIcEENS2_9allocatorIcEEEE@plt>
   12e34: af 64 00 94  	bl	0x2c0f0 <_ZN7android8hardware11hidl_stringC1ERKNSt3__112basic_stringIcNS2_11char_traitsIcEENS2_9allocatorIcEEEE@plt>
   12e5c: a5 64 00 94  	bl	0x2c0f0 <_ZN7android8hardware11hidl_stringC1ERKNSt3__112basic_stringIcNS2_11char_traitsIcEENS2_9allocatorIcEEEE@plt>
   12e80: a0 64 00 94  	bl	0x2c100 <_ZNSt3__112basic_stringIcNS_11char_traitsIcEENS_9allocatorIcEEEC1ERKS5_@plt>
   12ea8: 96 64 00 94  	bl	0x2c100 <_ZNSt3__112basic_stringIcNS_11char_traitsIcEENS_9allocatorIcEEEC1ERKS5_@plt>
   12ed0: 8c 64 00 94  	bl	0x2c100 <_ZNSt3__112basic_stringIcNS_11char_traitsIcEENS_9allocatorIcEEEC1ERKS5_@plt>
   12ef8: 82 64 00 94  	bl	0x2c100 <_ZNSt3__112basic_stringIcNS_11char_traitsIcEENS_9allocatorIcEEEC1ERKS5_@plt>
0000000000014de8 <_ZN15ChiFeature2Stub6CreateEP26ChiFeature2CreateInputInfo>:
   14e4c: c9 00 00 b0  	adrp	x9, 0x2d000 <_ZN15ChiFeature2Stub6CreateEP26ChiFeature2CreateInputInfo+0xc8>
   14e88: 80 06 00 b4  	cbz	x0, 0x14f58 <_ZN15ChiFeature2Stub6CreateEP26ChiFeature2CreateInputInfo+0x170>
   14e94: 9f 5c 00 94  	bl	0x2c110 <_ZN15ChiFeature2Base10InitializeEP26ChiFeature2CreateInputInfo@plt>
   14e98: a0 0b 00 34  	cbz	w0, 0x1500c <_ZN15ChiFeature2Stub6CreateEP26ChiFeature2CreateInputInfo+0x224>
   14e9c: ca 00 00 b0  	adrp	x10, 0x2d000 <_ZN15ChiFeature2Stub6CreateEP26ChiFeature2CreateInputInfo+0x118>
   14ea8: e9 04 00 36  	tbz	w9, #0, 0x14f44 <_ZN15ChiFeature2Stub6CreateEP26ChiFeature2CreateInputInfo+0x15c>
   14eac: cc 00 00 b0  	adrp	x12, 0x2d000 <_ZN15ChiFeature2Stub6CreateEP26ChiFeature2CreateInputInfo+0x128>
   14eb0: d4 ff ff 90  	adrp	x20, 0xc000 <_ZN15ChiFeature2Stub6CreateEP26ChiFeature2CreateInputInfo+0xa8>
   14ec4: 01 02 00 54  	b.ne	0x14f04 <_ZN15ChiFeature2Stub6CreateEP26ChiFeature2CreateInputInfo+0x11c>
   14edc: c1 ff ff b0  	adrp	x1, 0xd000 <_ZN15ChiFeature2Stub6CreateEP26ChiFeature2CreateInputInfo+0xd8>
   14ee0: a2 ff ff f0  	adrp	x2, 0xb000 <_ZN15ChiFeature2Stub6CreateEP26ChiFeature2CreateInputInfo+0xd4>
   14ee4: c5 ff ff b0  	adrp	x5, 0xd000 <_ZN15ChiFeature2Stub6CreateEP26ChiFeature2CreateInputInfo+0xe0>
   14f18: c1 ff ff b0  	adrp	x1, 0xd000 <_ZN15ChiFeature2Stub6CreateEP26ChiFeature2CreateInputInfo+0x114>
   14f20: a0 ff ff b0  	adrp	x0, 0x9000 <_ZN15ChiFeature2Stub6CreateEP26ChiFeature2CreateInputInfo+0x10c>
   14f24: c3 ff ff b0  	adrp	x3, 0xd000 <_ZN15ChiFeature2Stub6CreateEP26ChiFeature2CreateInputInfo+0x120>
   14f28: c5 ff ff b0  	adrp	x5, 0xd000 <_ZN15ChiFeature2Stub6CreateEP26ChiFeature2CreateInputInfo+0x124>
   14f40: 80 5c 00 94  	bl	0x2c140 <_ZN6ChiLog9LogSystemEPKcS1_S1_S1_iS1_z@plt>
   14f54: 2d 00 00 14  	b	0x15008 <_ZN15ChiFeature2Stub6CreateEP26ChiFeature2CreateInputInfo+0x220>
   14f58: ce 00 00 b0  	adrp	x14, 0x2d000 <_ZN15ChiFeature2Stub6CreateEP26ChiFeature2CreateInputInfo+0x1d4>
   14f64: 2b 05 00 36  	tbz	w11, #0, 0x15008 <_ZN15ChiFeature2Stub6CreateEP26ChiFeature2CreateInputInfo+0x220>
   14f68: cf 00 00 b0  	adrp	x15, 0x2d000 <_ZN15ChiFeature2Stub6CreateEP26ChiFeature2CreateInputInfo+0x1e4>
   14f78: 41 02 00 54  	b.ne	0x14fc0 <_ZN15ChiFeature2Stub6CreateEP26ChiFeature2CreateInputInfo+0x1d8>
   14f7c: d4 ff ff 90  	adrp	x20, 0xc000 <_ZN15ChiFeature2Stub6CreateEP26ChiFeature2CreateInputInfo+0x174>
   14f98: c1 ff ff b0  	adrp	x1, 0xd000 <_ZN15ChiFeature2Stub6CreateEP26ChiFeature2CreateInputInfo+0x194>
   14f9c: a2 ff ff d0  	adrp	x2, 0xa000 <_ZN15ChiFeature2Stub6CreateEP26ChiFeature2CreateInputInfo+0x18c>
   14fa0: c5 ff ff b0  	adrp	x5, 0xd000 <_ZN15ChiFeature2Stub6CreateEP26ChiFeature2CreateInputInfo+0x19c>
   14fc0: d4 ff ff 90  	adrp	x20, 0xc000 <_ZN15ChiFeature2Stub6CreateEP26ChiFeature2CreateInputInfo+0x1b8>
   14fdc: c1 ff ff b0  	adrp	x1, 0xd000 <_ZN15ChiFeature2Stub6CreateEP26ChiFeature2CreateInputInfo+0x1d8>
   14fe4: a0 ff ff b0  	adrp	x0, 0x9000 <_ZN15ChiFeature2Stub6CreateEP26ChiFeature2CreateInputInfo+0x1d0>
   14fe8: c3 ff ff b0  	adrp	x3, 0xd000 <_ZN15ChiFeature2Stub6CreateEP26ChiFeature2CreateInputInfo+0x1e4>
   14fec: c5 ff ff 90  	adrp	x5, 0xc000 <_ZN15ChiFeature2Stub6CreateEP26ChiFeature2CreateInputInfo+0x1e4>
   15004: 4f 5c 00 94  	bl	0x2c140 <_ZN6ChiLog9LogSystemEPKcS1_S1_S1_iS1_z@plt>
0000000000015020 <_ZN15ChiFeature2Stub7DestroyEv>:
   15034: 00 01 00 b4  	cbz	x0, 0x15054 <_ZN15ChiFeature2Stub7DestroyEv+0x34>
   15058: 28 01 00 b4  	cbz	x8, 0x1507c <_ZN15ChiFeature2Stub7DestroyEv+0x5c>
   15080: 34 01 00 b4  	cbz	x20, 0x150a4 <_ZN15ChiFeature2Stub7DestroyEv+0x84>
   1508c: 61 00 00 54  	b.ne	0x15098 <_ZN15ChiFeature2Stub7DestroyEv+0x78>
   150a8: 34 01 00 b4  	cbz	x20, 0x150cc <_ZN15ChiFeature2Stub7DestroyEv+0xac>
   150b4: 61 00 00 54  	b.ne	0x150c0 <_ZN15ChiFeature2Stub7DestroyEv+0xa0>
00000000000150d8 <_ZN15ChiFeature2Stub12OnInitializeEP26ChiFeature2CreateInputInfo>:
   15118: 89 18 00 34  	cbz	w9, 0x15428 <_ZN15ChiFeature2Stub12OnInitializeEP26ChiFeature2CreateInputInfo+0x350>
   1513c: 07 00 00 14  	b	0x15158 <_ZN15ChiFeature2Stub12OnInitializeEP26ChiFeature2CreateInputInfo+0x80>
   15154: c2 0a 00 54  	b.hs	0x152ac <_ZN15ChiFeature2Stub12OnInitializeEP26ChiFeature2CreateInputInfo+0x1d4>
   15164: 4a ff ff 34  	cbz	w10, 0x1514c <_ZN15ChiFeature2Stub12OnInitializeEP26ChiFeature2CreateInputInfo+0x74>
   15170: 09 00 00 14  	b	0x15194 <_ZN15ChiFeature2Stub12OnInitializeEP26ChiFeature2CreateInputInfo+0xbc>
   15190: 82 fd ff 54  	b.hs	0x15140 <_ZN15ChiFeature2Stub12OnInitializeEP26ChiFeature2CreateInputInfo+0x68>
   151ac: bb fe ff b4  	cbz	x27, 0x15180 <_ZN15ChiFeature2Stub12OnInitializeEP26ChiFeature2CreateInputInfo+0xa8>
   151c0: 04 00 00 14  	b	0x151d0 <_ZN15ChiFeature2Stub12OnInitializeEP26ChiFeature2CreateInputInfo+0xf8>
   151cc: 40 fd ff 54  	b.eq	0x15174 <_ZN15ChiFeature2Stub12OnInitializeEP26ChiFeature2CreateInputInfo+0x9c>
   151d4: 89 ff ff 34  	cbz	w9, 0x151c4 <_ZN15ChiFeature2Stub12OnInitializeEP26ChiFeature2CreateInputInfo+0xec>
   151f4: 82 02 00 54  	b.hs	0x15244 <_ZN15ChiFeature2Stub12OnInitializeEP26ChiFeature2CreateInputInfo+0x16c>
   151fc: 4c 02 00 b4  	cbz	x12, 0x15244 <_ZN15ChiFeature2Stub12OnInitializeEP26ChiFeature2CreateInputInfo+0x16c>
   15210: a2 01 00 54  	b.hs	0x15244 <_ZN15ChiFeature2Stub12OnInitializeEP26ChiFeature2CreateInputInfo+0x16c>
   15218: 6a 01 00 b4  	cbz	x10, 0x15244 <_ZN15ChiFeature2Stub12OnInitializeEP26ChiFeature2CreateInputInfo+0x16c>
   15228: e8 01 00 54  	b.hi	0x15264 <_ZN15ChiFeature2Stub12OnInitializeEP26ChiFeature2CreateInputInfo+0x18c>
   15240: e8 01 00 54  	b.hi	0x1527c <_ZN15ChiFeature2Stub12OnInitializeEP26ChiFeature2CreateInputInfo+0x1a4>
   15248: da 5b 00 94  	bl	0x2c1b0 <_ZN15ChiFeature2Base12CreateStreamEv@plt>
   1525c: 43 fc ff 54  	b.lo	0x151e4 <_ZN15ChiFeature2Stub12OnInitializeEP26ChiFeature2CreateInputInfo+0x10c>
   15260: d9 ff ff 17  	b	0x151c4 <_ZN15ChiFeature2Stub12OnInitializeEP26ChiFeature2CreateInputInfo+0xec>
   15278: 69 fe ff 54  	b.ls	0x15244 <_ZN15ChiFeature2Stub12OnInitializeEP26ChiFeature2CreateInputInfo+0x16c>
   15280: cc 5b 00 94  	bl	0x2c1b0 <_ZN15ChiFeature2Base12CreateStreamEv@plt>
   15284: 57 fe ff b4  	cbz	x23, 0x1524c <_ZN15ChiFeature2Stub12OnInitializeEP26ChiFeature2CreateInputInfo+0x174>
   152a8: e9 ff ff 17  	b	0x1524c <_ZN15ChiFeature2Stub12OnInitializeEP26ChiFeature2CreateInputInfo+0x174>
   152b0: c0 0b 00 54  	b.eq	0x15428 <_ZN15ChiFeature2Stub12OnInitializeEP26ChiFeature2CreateInputInfo+0x350>
   152b8: 07 00 00 14  	b	0x152d4 <_ZN15ChiFeature2Stub12OnInitializeEP26ChiFeature2CreateInputInfo+0x1fc>
   152d0: c2 0a 00 54  	b.hs	0x15428 <_ZN15ChiFeature2Stub12OnInitializeEP26ChiFeature2CreateInputInfo+0x350>
   152e0: 4b ff ff 34  	cbz	w11, 0x152c8 <_ZN15ChiFeature2Stub12OnInitializeEP26ChiFeature2CreateInputInfo+0x1f0>
   152ec: 09 00 00 14  	b	0x15310 <_ZN15ChiFeature2Stub12OnInitializeEP26ChiFeature2CreateInputInfo+0x238>
   1530c: 82 fd ff 54  	b.hs	0x152bc <_ZN15ChiFeature2Stub12OnInitializeEP26ChiFeature2CreateInputInfo+0x1e4>
   15328: bb fe ff b4  	cbz	x27, 0x152fc <_ZN15ChiFeature2Stub12OnInitializeEP26ChiFeature2CreateInputInfo+0x224>
   1533c: 04 00 00 14  	b	0x1534c <_ZN15ChiFeature2Stub12OnInitializeEP26ChiFeature2CreateInputInfo+0x274>
   15348: 40 fd ff 54  	b.eq	0x152f0 <_ZN15ChiFeature2Stub12OnInitializeEP26ChiFeature2CreateInputInfo+0x218>
   15350: 8f ff ff 34  	cbz	w15, 0x15340 <_ZN15ChiFeature2Stub12OnInitializeEP26ChiFeature2CreateInputInfo+0x268>
   15370: 82 02 00 54  	b.hs	0x153c0 <_ZN15ChiFeature2Stub12OnInitializeEP26ChiFeature2CreateInputInfo+0x2e8>
   15378: 4d 02 00 b4  	cbz	x13, 0x153c0 <_ZN15ChiFeature2Stub12OnInitializeEP26ChiFeature2CreateInputInfo+0x2e8>
   1538c: a2 01 00 54  	b.hs	0x153c0 <_ZN15ChiFeature2Stub12OnInitializeEP26ChiFeature2CreateInputInfo+0x2e8>
   15394: 6b 01 00 b4  	cbz	x11, 0x153c0 <_ZN15ChiFeature2Stub12OnInitializeEP26ChiFeature2CreateInputInfo+0x2e8>
   153a4: e8 01 00 54  	b.hi	0x153e0 <_ZN15ChiFeature2Stub12OnInitializeEP26ChiFeature2CreateInputInfo+0x308>
   153bc: e8 01 00 54  	b.hi	0x153f8 <_ZN15ChiFeature2Stub12OnInitializeEP26ChiFeature2CreateInputInfo+0x320>
   153c4: 7b 5b 00 94  	bl	0x2c1b0 <_ZN15ChiFeature2Base12CreateStreamEv@plt>
   153d8: 43 fc ff 54  	b.lo	0x15360 <_ZN15ChiFeature2Stub12OnInitializeEP26ChiFeature2CreateInputInfo+0x288>
   153dc: d9 ff ff 17  	b	0x15340 <_ZN15ChiFeature2Stub12OnInitializeEP26ChiFeature2CreateInputInfo+0x268>
   153f4: 69 fe ff 54  	b.ls	0x153c0 <_ZN15ChiFeature2Stub12OnInitializeEP26ChiFeature2CreateInputInfo+0x2e8>
   153fc: 6d 5b 00 94  	bl	0x2c1b0 <_ZN15ChiFeature2Base12CreateStreamEv@plt>
   15400: 53 fe ff b4  	cbz	x19, 0x153c8 <_ZN15ChiFeature2Stub12OnInitializeEP26ChiFeature2CreateInputInfo+0x2f0>
   15424: e9 ff ff 17  	b	0x153c8 <_ZN15ChiFeature2Stub12OnInitializeEP26ChiFeature2CreateInputInfo+0x2f0>
   15444: 40 02 00 b4  	cbz	x0, 0x1548c <_ZN15ChiFeature2Stub12OnInitializeEP26ChiFeature2CreateInputInfo+0x3b4>
   15454: 60 01 00 35  	cbnz	w0, 0x15480 <_ZN15ChiFeature2Stub12OnInitializeEP26ChiFeature2CreateInputInfo+0x3a8>
   15464: a0 00 00 35  	cbnz	w0, 0x15478 <_ZN15ChiFeature2Stub12OnInitializeEP26ChiFeature2CreateInputInfo+0x3a0>
   15474: 60 15 00 34  	cbz	w0, 0x15720 <_ZN15ChiFeature2Stub12OnInitializeEP26ChiFeature2CreateInputInfo+0x648>
   154b0: 60 01 00 b4  	cbz	x0, 0x154dc <_ZN15ChiFeature2Stub12OnInitializeEP26ChiFeature2CreateInputInfo+0x404>
   154c0: a0 00 00 34  	cbz	w0, 0x154d4 <_ZN15ChiFeature2Stub12OnInitializeEP26ChiFeature2CreateInputInfo+0x3fc>
   154d0: 03 00 00 14  	b	0x154dc <_ZN15ChiFeature2Stub12OnInitializeEP26ChiFeature2CreateInputInfo+0x404>
   15520: c0 02 00 54  	b.eq	0x15578 <_ZN15ChiFeature2Stub12OnInitializeEP26ChiFeature2CreateInputInfo+0x4a0>
   15528: e8 28 00 94  	bl	0x1f8c8 <_ZN8ChxUtils11GetTotalRamEv+0x240>
   1552c: 60 02 00 34  	cbz	w0, 0x15578 <_ZN15ChiFeature2Stub12OnInitializeEP26ChiFeature2CreateInputInfo+0x4a0>
   15534: e5 28 00 94  	bl	0x1f8c8 <_ZN8ChxUtils11GetTotalRamEv+0x240>
   15538: 00 02 00 34  	cbz	w0, 0x15578 <_ZN15ChiFeature2Stub12OnInitializeEP26ChiFeature2CreateInputInfo+0x4a0>
   15578: c2 00 00 90  	adrp	x2, 0x2d000 <_ZN15ChiFeature2Stub12OnInitializeEP26ChiFeature2CreateInputInfo+0x500>
   15590: d6 00 00 90  	adrp	x22, 0x2d000 <_ZN15ChiFeature2Stub12OnInitializeEP26ChiFeature2CreateInputInfo+0x518>
   1559c: 40 05 00 34  	cbz	w0, 0x15644 <_ZN15ChiFeature2Stub12OnInitializeEP26ChiFeature2CreateInputInfo+0x56c>
   155a0: e8 04 00 36  	tbz	w8, #0, 0x1563c <_ZN15ChiFeature2Stub12OnInitializeEP26ChiFeature2CreateInputInfo+0x564>
   155a4: d8 00 00 90  	adrp	x24, 0x2d000 <_ZN15ChiFeature2Stub12OnInitializeEP26ChiFeature2CreateInputInfo+0x52c>
   155a8: b3 ff ff f0  	adrp	x19, 0xc000 <_ZN15ChiFeature2Stub12OnInitializeEP26ChiFeature2CreateInputInfo+0x4ac>
   155bc: 01 02 00 54  	b.ne	0x155fc <_ZN15ChiFeature2Stub12OnInitializeEP26ChiFeature2CreateInputInfo+0x524>
   155d4: c1 ff ff 90  	adrp	x1, 0xd000 <_ZN15ChiFeature2Stub12OnInitializeEP26ChiFeature2CreateInputInfo+0x4dc>
   155d8: a2 ff ff b0  	adrp	x2, 0xa000 <_ZN15ChiFeature2Stub12OnInitializeEP26ChiFeature2CreateInputInfo+0x4d4>
   155dc: c5 ff ff 90  	adrp	x5, 0xd000 <_ZN15ChiFeature2Stub12OnInitializeEP26ChiFeature2CreateInputInfo+0x4e4>
   15610: c1 ff ff 90  	adrp	x1, 0xd000 <_ZN15ChiFeature2Stub12OnInitializeEP26ChiFeature2CreateInputInfo+0x518>
   15618: a0 ff ff 90  	adrp	x0, 0x9000 <_ZN15ChiFeature2Stub12OnInitializeEP26ChiFeature2CreateInputInfo+0x510>
   1561c: c3 ff ff 90  	adrp	x3, 0xd000 <_ZN15ChiFeature2Stub12OnInitializeEP26ChiFeature2CreateInputInfo+0x524>
   15620: a5 ff ff b0  	adrp	x5, 0xa000 <_ZN15ChiFeature2Stub12OnInitializeEP26ChiFeature2CreateInputInfo+0x51c>
   15638: c2 5a 00 94  	bl	0x2c140 <_ZN6ChiLog9LogSystemEPKcS1_S1_S1_iS1_z@plt>
   15640: 2b 00 00 14  	b	0x156ec <_ZN15ChiFeature2Stub12OnInitializeEP26ChiFeature2CreateInputInfo+0x614>
   15644: 28 05 18 36  	tbz	w8, #3, 0x156e8 <_ZN15ChiFeature2Stub12OnInitializeEP26ChiFeature2CreateInputInfo+0x610>
   15648: d7 00 00 90  	adrp	x23, 0x2d000 <_ZN15ChiFeature2Stub12OnInitializeEP26ChiFeature2CreateInputInfo+0x5d0>
   15658: 41 02 00 54  	b.ne	0x156a0 <_ZN15ChiFeature2Stub12OnInitializeEP26ChiFeature2CreateInputInfo+0x5c8>
   1565c: b3 ff ff f0  	adrp	x19, 0xc000 <_ZN15ChiFeature2Stub12OnInitializeEP26ChiFeature2CreateInputInfo+0x560>
   15678: c1 ff ff 90  	adrp	x1, 0xd000 <_ZN15ChiFeature2Stub12OnInitializeEP26ChiFeature2CreateInputInfo+0x580>
   1567c: a2 ff ff 90  	adrp	x2, 0x9000 <_ZN15ChiFeature2Stub12OnInitializeEP26ChiFeature2CreateInputInfo+0x574>
   15680: c5 ff ff 90  	adrp	x5, 0xd000 <_ZN15ChiFeature2Stub12OnInitializeEP26ChiFeature2CreateInputInfo+0x588>
   156a0: b3 ff ff f0  	adrp	x19, 0xc000 <_ZN15ChiFeature2Stub12OnInitializeEP26ChiFeature2CreateInputInfo+0x5a4>
   156bc: a1 ff ff d0  	adrp	x1, 0xb000 <_ZN15ChiFeature2Stub12OnInitializeEP26ChiFeature2CreateInputInfo+0x5bc>
   156c4: c0 ff ff b0  	adrp	x0, 0xe000 <_ZN15ChiFeature2Stub12OnInitializeEP26ChiFeature2CreateInputInfo+0x5d0>
   156c8: c3 ff ff 90  	adrp	x3, 0xd000 <_ZN15ChiFeature2Stub12OnInitializeEP26ChiFeature2CreateInputInfo+0x5d0>
   156cc: a5 ff ff f0  	adrp	x5, 0xc000 <_ZN15ChiFeature2Stub12OnInitializeEP26ChiFeature2CreateInputInfo+0x5d0>
   156e4: 97 5a 00 94  	bl	0x2c140 <_ZN6ChiLog9LogSystemEPKcS1_S1_S1_iS1_z@plt>
   156fc: c1 01 00 54  	b.ne	0x15734 <_ZN15ChiFeature2Stub12OnInitializeEP26ChiFeature2CreateInputInfo+0x65c>
   15730: 57 ff ff 17  	b	0x1548c <_ZN15ChiFeature2Stub12OnInitializeEP26ChiFeature2CreateInputInfo+0x3b4>
0000000000015738 <_ZN15ChiFeature2Stub13RequestThreadEPv>:
   15744: c3 5a 00 94  	bl	0x2c250 <_ZN15ChiFeature2Stub17StubThreadHandlerEv@plt>
0000000000015758 <_ZNK15ChiFeature2Stub16DoPrepareRequestEP24ChiFeature2RequestObject>:
0000000000015760 <_ZNK15ChiFeature2Stub23OnExecuteProcessRequestEP24ChiFeature2RequestObject>:
   15794: c1 0b 00 b4  	cbz	x1, 0x1590c <_ZNK15ChiFeature2Stub23OnExecuteProcessRequestEP24ChiFeature2RequestObject+0x1ac>
   157a4: af 5a 00 94  	bl	0x2c260 <_ZNK15ChiFeature2Base19GetCurrentStageInfoEP24ChiFeature2RequestObjectP20ChiFeature2StageInfo@plt>
   157a8: 40 0b 00 35  	cbnz	w0, 0x15910 <_ZNK15ChiFeature2Stub23OnExecuteProcessRequestEP24ChiFeature2RequestObject+0x1b0>
   157b4: 20 0c 00 54  	b.eq	0x15938 <_ZNK15ChiFeature2Stub23OnExecuteProcessRequestEP24ChiFeature2RequestObject+0x1d8>
   157cc: 09 0f 00 54  	b.ls	0x159ac <_ZNK15ChiFeature2Stub23OnExecuteProcessRequestEP24ChiFeature2RequestObject+0x24c>
   157d4: 6a 02 00 b4  	cbz	x10, 0x15820 <_ZNK15ChiFeature2Stub23OnExecuteProcessRequestEP24ChiFeature2RequestObject+0xc0>
   15800: 0b 01 00 b4  	cbz	x11, 0x15820 <_ZNK15ChiFeature2Stub23OnExecuteProcessRequestEP24ChiFeature2RequestObject+0xc0>
   15830: 90 5a 00 94  	bl	0x2c270 <_ZNK15ChiFeature2Base25PopulatePortConfigurationEP24ChiFeature2RequestObjectPK21ChiFeature2PortIdListS4_@plt>
   15834: e0 06 00 35  	cbnz	w0, 0x15910 <_ZNK15ChiFeature2Stub23OnExecuteProcessRequestEP24ChiFeature2RequestObject+0x1b0>
   15840: d0 00 00 90  	adrp	x16, 0x2d000 <_ZNK15ChiFeature2Stub23OnExecuteProcessRequestEP24ChiFeature2RequestObject+0x140>
   1584c: 65 05 18 36  	tbz	w5, #3, 0x158f8 <_ZNK15ChiFeature2Stub23OnExecuteProcessRequestEP24ChiFeature2RequestObject+0x198>
   15850: d1 00 00 90  	adrp	x17, 0x2d000 <_ZNK15ChiFeature2Stub23OnExecuteProcessRequestEP24ChiFeature2RequestObject+0x150>
   15854: b5 ff ff f0  	adrp	x21, 0xc000 <_ZNK15ChiFeature2Stub23OnExecuteProcessRequestEP24ChiFeature2RequestObject+0xd0>
   15868: 41 02 00 54  	b.ne	0x158b0 <_ZNK15ChiFeature2Stub23OnExecuteProcessRequestEP24ChiFeature2RequestObject+0x150>
   15880: c1 ff ff 90  	adrp	x1, 0xd000 <_ZNK15ChiFeature2Stub23OnExecuteProcessRequestEP24ChiFeature2RequestObject+0x100>
   15884: c2 ff ff 90  	adrp	x2, 0xd000 <_ZNK15ChiFeature2Stub23OnExecuteProcessRequestEP24ChiFeature2RequestObject+0x104>
   15888: c5 ff ff 90  	adrp	x5, 0xd000 <_ZNK15ChiFeature2Stub23OnExecuteProcessRequestEP24ChiFeature2RequestObject+0x108>
   158c4: a1 ff ff d0  	adrp	x1, 0xb000 <_ZNK15ChiFeature2Stub23OnExecuteProcessRequestEP24ChiFeature2RequestObject+0x13c>
   158cc: c0 ff ff b0  	adrp	x0, 0xe000 <_ZNK15ChiFeature2Stub23OnExecuteProcessRequestEP24ChiFeature2RequestObject+0x150>
   158d0: c3 ff ff 90  	adrp	x3, 0xd000 <_ZNK15ChiFeature2Stub23OnExecuteProcessRequestEP24ChiFeature2RequestObject+0x150>
   158d4: a5 ff ff b0  	adrp	x5, 0xa000 <_ZNK15ChiFeature2Stub23OnExecuteProcessRequestEP24ChiFeature2RequestObject+0x148>
   158f4: 13 5a 00 94  	bl	0x2c140 <_ZN6ChiLog9LogSystemEPKcS1_S1_S1_iS1_z@plt>
   15908: 5d 00 00 14  	b	0x15a7c <_ZNK15ChiFeature2Stub23OnExecuteProcessRequestEP24ChiFeature2RequestObject+0x31c>
   1591c: 01 11 00 54  	b.ne	0x15b3c <_ZNK15ChiFeature2Stub23OnExecuteProcessRequestEP24ChiFeature2RequestObject+0x3dc>
   1594c: 4d 5a 00 94  	bl	0x2c280 <_ZNK15ChiFeature2Base13SetConfigInfoEP24ChiFeature2RequestObjectj@plt>
   15960: 60 08 00 54  	b.eq	0x15a6c <_ZNK15ChiFeature2Stub23OnExecuteProcessRequestEP24ChiFeature2RequestObject+0x30c>
   15968: b5 08 00 b4  	cbz	x21, 0x15a7c <_ZNK15ChiFeature2Stub23OnExecuteProcessRequestEP24ChiFeature2RequestObject+0x31c>
   1597c: 45 5a 00 94  	bl	0x2c290 <_ZNK15ChiFeature2Base40GetNumDependencyListsFromStageDescriptorEPK26ChiFeature2StageDescriptorhh@plt>
   15994: 43 5a 00 94  	bl	0x2c2a0 <_ZNK15ChiFeature2Base35SetNextStageInfoFromStageDescriptorEP24ChiFeature2RequestObjectPK26ChiFeature2StageDescriptorhh@plt>
   159a0: 44 5a 00 94  	bl	0x2c2b0 <_ZNK15ChiFeature2Base18PopulateDependencyEP24ChiFeature2RequestObject@plt>
   159a8: da ff ff 17  	b	0x15910 <_ZNK15ChiFeature2Stub23OnExecuteProcessRequestEP24ChiFeature2RequestObject+0x1b0>
   159ac: ce 00 00 90  	adrp	x14, 0x2d000 <_ZNK15ChiFeature2Stub23OnExecuteProcessRequestEP24ChiFeature2RequestObject+0x2ac>
   159b8: 6d 05 00 36  	tbz	w13, #0, 0x15a64 <_ZNK15ChiFeature2Stub23OnExecuteProcessRequestEP24ChiFeature2RequestObject+0x304>
   159bc: cf 00 00 90  	adrp	x15, 0x2d000 <_ZNK15ChiFeature2Stub23OnExecuteProcessRequestEP24ChiFeature2RequestObject+0x2bc>
   159c0: b3 ff ff 90  	adrp	x19, 0x9000 <_ZNK15ChiFeature2Stub23OnExecuteProcessRequestEP24ChiFeature2RequestObject+0x230>
   159d4: 41 02 00 54  	b.ne	0x15a1c <_ZNK15ChiFeature2Stub23OnExecuteProcessRequestEP24ChiFeature2RequestObject+0x2bc>
   159ec: c1 ff ff 90  	adrp	x1, 0xd000 <_ZNK15ChiFeature2Stub23OnExecuteProcessRequestEP24ChiFeature2RequestObject+0x26c>
   159f0: a2 ff ff f0  	adrp	x2, 0xc000 <_ZNK15ChiFeature2Stub23OnExecuteProcessRequestEP24ChiFeature2RequestObject+0x26c>
   159f4: a5 ff ff b0  	adrp	x5, 0xa000 <_ZNK15ChiFeature2Stub23OnExecuteProcessRequestEP24ChiFeature2RequestObject+0x268>
   15a30: c1 ff ff 90  	adrp	x1, 0xd000 <_ZNK15ChiFeature2Stub23OnExecuteProcessRequestEP24ChiFeature2RequestObject+0x2b0>
   15a38: a0 ff ff 90  	adrp	x0, 0x9000 <_ZNK15ChiFeature2Stub23OnExecuteProcessRequestEP24ChiFeature2RequestObject+0x2a8>
   15a3c: a3 ff ff b0  	adrp	x3, 0xa000 <_ZNK15ChiFeature2Stub23OnExecuteProcessRequestEP24ChiFeature2RequestObject+0x2b0>
   15a40: a5 ff ff d0  	adrp	x5, 0xb000 <_ZNK15ChiFeature2Stub23OnExecuteProcessRequestEP24ChiFeature2RequestObject+0x2b8>
   15a60: b8 59 00 94  	bl	0x2c140 <_ZN6ChiLog9LogSystemEPKcS1_S1_S1_iS1_z@plt>
   15a68: aa ff ff 17  	b	0x15910 <_ZNK15ChiFeature2Stub23OnExecuteProcessRequestEP24ChiFeature2RequestObject+0x1b0>
   15a6c: cc 00 00 90  	adrp	x12, 0x2d000 <_ZNK15ChiFeature2Stub23OnExecuteProcessRequestEP24ChiFeature2RequestObject+0x36c>
   15a78: 6a 00 00 37  	tbnz	w10, #0, 0x15a84 <_ZNK15ChiFeature2Stub23OnExecuteProcessRequestEP24ChiFeature2RequestObject+0x324>
   15a80: a4 ff ff 17  	b	0x15910 <_ZNK15ChiFeature2Stub23OnExecuteProcessRequestEP24ChiFeature2RequestObject+0x1b0>
   15a84: cd 00 00 90  	adrp	x13, 0x2d000 <_ZNK15ChiFeature2Stub23OnExecuteProcessRequestEP24ChiFeature2RequestObject+0x384>
   15a94: 81 02 00 54  	b.ne	0x15ae4 <_ZNK15ChiFeature2Stub23OnExecuteProcessRequestEP24ChiFeature2RequestObject+0x384>
   15a98: b3 ff ff 90  	adrp	x19, 0x9000 <_ZNK15ChiFeature2Stub23OnExecuteProcessRequestEP24ChiFeature2RequestObject+0x308>
   15ab4: c1 ff ff 90  	adrp	x1, 0xd000 <_ZNK15ChiFeature2Stub23OnExecuteProcessRequestEP24ChiFeature2RequestObject+0x334>
   15ab8: a2 ff ff f0  	adrp	x2, 0xc000 <_ZNK15ChiFeature2Stub23OnExecuteProcessRequestEP24ChiFeature2RequestObject+0x334>
   15abc: a5 ff ff d0  	adrp	x5, 0xb000 <_ZNK15ChiFeature2Stub23OnExecuteProcessRequestEP24ChiFeature2RequestObject+0x334>
   15ae4: b5 ff ff 90  	adrp	x21, 0x9000 <_ZNK15ChiFeature2Stub23OnExecuteProcessRequestEP24ChiFeature2RequestObject+0x354>
   15b00: c1 ff ff 90  	adrp	x1, 0xd000 <_ZNK15ChiFeature2Stub23OnExecuteProcessRequestEP24ChiFeature2RequestObject+0x380>
   15b08: a0 ff ff 90  	adrp	x0, 0x9000 <_ZNK15ChiFeature2Stub23OnExecuteProcessRequestEP24ChiFeature2RequestObject+0x378>
   15b0c: a3 ff ff d0  	adrp	x3, 0xb000 <_ZNK15ChiFeature2Stub23OnExecuteProcessRequestEP24ChiFeature2RequestObject+0x384>
   15b10: a5 ff ff d0  	adrp	x5, 0xb000 <_ZNK15ChiFeature2Stub23OnExecuteProcessRequestEP24ChiFeature2RequestObject+0x388>
   15b30: 84 59 00 94  	bl	0x2c140 <_ZN6ChiLog9LogSystemEPKcS1_S1_S1_iS1_z@plt>
   15b38: 76 ff ff 17  	b	0x15910 <_ZNK15ChiFeature2Stub23OnExecuteProcessRequestEP24ChiFeature2RequestObject+0x1b0>
0000000000015b40 <_ZN15ChiFeature2Stub17StubThreadHandlerEv>:
   15b5c: d5 00 00 90  	adrp	x21, 0x2d000 <_ZN15ChiFeature2Stub17StubThreadHandlerEv+0x7c>
   15b60: d7 00 00 90  	adrp	x23, 0x2d000 <_ZN15ChiFeature2Stub17StubThreadHandlerEv+0x80>
   15b64: b6 ff ff f0  	adrp	x22, 0xc000 <_ZN15ChiFeature2Stub17StubThreadHandlerEv>
   15b68: bc ff ff f0  	adrp	x28, 0xc000 <_ZN15ChiFeature2Stub17StubThreadHandlerEv+0x4>
   15b6c: b8 ff ff f0  	adrp	x24, 0xc000 <_ZN15ChiFeature2Stub17StubThreadHandlerEv+0x8>
   15b94: 17 00 00 14  	b	0x15bf0 <_ZN15ChiFeature2Stub17StubThreadHandlerEv+0xb0>
   15bac: a1 ff ff 90  	adrp	x1, 0x9000 <_ZN15ChiFeature2Stub17StubThreadHandlerEv+0x3c>
   15bb4: a0 ff ff f0  	adrp	x0, 0xc000 <_ZN15ChiFeature2Stub17StubThreadHandlerEv+0x50>
   15bb8: a3 ff ff 90  	adrp	x3, 0x9000 <_ZN15ChiFeature2Stub17StubThreadHandlerEv+0x48>
   15bbc: a5 ff ff b0  	adrp	x5, 0xa000 <_ZN15ChiFeature2Stub17StubThreadHandlerEv+0x50>
   15bd8: 5a 59 00 94  	bl	0x2c140 <_ZN6ChiLog9LogSystemEPKcS1_S1_S1_iS1_z@plt>
   15bec: b9 59 00 94  	bl	0x2c2d0 <_ZN15ChiFeature2Stub27ExecuteProcessRequestHelperEP24ChiFeature2RequestObject@plt>
   15c04: 61 09 00 54  	b.ne	0x15d30 <_ZN15ChiFeature2Stub17StubThreadHandlerEv+0x1f0>
   15c0c: 2a 04 18 36  	tbz	w10, #3, 0x15c90 <_ZN15ChiFeature2Stub17StubThreadHandlerEv+0x150>
   15c18: e1 01 00 54  	b.ne	0x15c54 <_ZN15ChiFeature2Stub17StubThreadHandlerEv+0x114>
   15c30: c1 ff ff 90  	adrp	x1, 0xd000 <_ZN15ChiFeature2Stub17StubThreadHandlerEv+0xd0>
   15c34: a2 ff ff f0  	adrp	x2, 0xc000 <_ZN15ChiFeature2Stub17StubThreadHandlerEv+0xd0>
   15c68: a1 ff ff d0  	adrp	x1, 0xb000 <_ZN15ChiFeature2Stub17StubThreadHandlerEv+0x100>
   15c70: c0 ff ff b0  	adrp	x0, 0xe000 <_ZN15ChiFeature2Stub17StubThreadHandlerEv+0x114>
   15c74: a5 ff ff b0  	adrp	x5, 0xa000 <_ZN15ChiFeature2Stub17StubThreadHandlerEv+0x108>
   15c8c: 2d 59 00 94  	bl	0x2c140 <_ZN6ChiLog9LogSystemEPKcS1_S1_S1_iS1_z@plt>
   15cac: 2b 04 18 36  	tbz	w11, #3, 0x15d30 <_ZN15ChiFeature2Stub17StubThreadHandlerEv+0x1f0>
   15cb8: e1 01 00 54  	b.ne	0x15cf4 <_ZN15ChiFeature2Stub17StubThreadHandlerEv+0x1b4>
   15cd0: c1 ff ff 90  	adrp	x1, 0xd000 <_ZN15ChiFeature2Stub17StubThreadHandlerEv+0x170>
   15cd4: a2 ff ff b0  	adrp	x2, 0xa000 <_ZN15ChiFeature2Stub17StubThreadHandlerEv+0x168>
   15d08: a1 ff ff d0  	adrp	x1, 0xb000 <_ZN15ChiFeature2Stub17StubThreadHandlerEv+0x1a0>
   15d10: c0 ff ff b0  	adrp	x0, 0xe000 <_ZN15ChiFeature2Stub17StubThreadHandlerEv+0x1b4>
   15d14: a5 ff ff 90  	adrp	x5, 0x9000 <_ZN15ChiFeature2Stub17StubThreadHandlerEv+0x1a4>
   15d2c: 05 59 00 94  	bl	0x2c140 <_ZN6ChiLog9LogSystemEPKcS1_S1_S1_iS1_z@plt>
   15d3c: 61 00 00 54  	b.ne	0x15d48 <_ZN15ChiFeature2Stub17StubThreadHandlerEv+0x208>
   15d44: 2c 00 00 14  	b	0x15df4 <_ZN15ChiFeature2Stub17StubThreadHandlerEv+0x2b4>
   15d60: ad 04 18 36  	tbz	w13, #3, 0x15df4 <_ZN15ChiFeature2Stub17StubThreadHandlerEv+0x2b4>
   15d6c: 21 02 00 54  	b.ne	0x15db0 <_ZN15ChiFeature2Stub17StubThreadHandlerEv+0x270>
   15d84: c1 ff ff 90  	adrp	x1, 0xd000 <_ZN15ChiFeature2Stub17StubThreadHandlerEv+0x224>
   15d88: a2 ff ff b0  	adrp	x2, 0xa000 <_ZN15ChiFeature2Stub17StubThreadHandlerEv+0x21c>
   15dc4: a1 ff ff d0  	adrp	x1, 0xb000 <_ZN15ChiFeature2Stub17StubThreadHandlerEv+0x25c>
   15dcc: c0 ff ff b0  	adrp	x0, 0xe000 <_ZN15ChiFeature2Stub17StubThreadHandlerEv+0x270>
   15dd0: c5 ff ff 90  	adrp	x5, 0xd000 <_ZN15ChiFeature2Stub17StubThreadHandlerEv+0x270>
   15df0: d4 58 00 94  	bl	0x2c140 <_ZN6ChiLog9LogSystemEPKcS1_S1_S1_iS1_z@plt>
   15e04: e0 02 00 54  	b.eq	0x15e60 <_ZN15ChiFeature2Stub17StubThreadHandlerEv+0x320>
   15e0c: 8f ee 37 36  	tbz	w15, #6, 0x15bdc <_ZN15ChiFeature2Stub17StubThreadHandlerEv+0x9c>
   15e18: 01 ec ff 54  	b.ne	0x15b98 <_ZN15ChiFeature2Stub17StubThreadHandlerEv+0x58>
   15e30: c1 ff ff 90  	adrp	x1, 0xd000 <_ZN15ChiFeature2Stub17StubThreadHandlerEv+0x2d0>
   15e34: a2 ff ff f0  	adrp	x2, 0xc000 <_ZN15ChiFeature2Stub17StubThreadHandlerEv+0x2d0>
   15e38: a5 ff ff 90  	adrp	x5, 0x9000 <_ZN15ChiFeature2Stub17StubThreadHandlerEv+0x2c8>
   15e5c: 4f ff ff 17  	b	0x15b98 <_ZN15ChiFeature2Stub17StubThreadHandlerEv+0x58>
0000000000015e80 <_ZN15ChiFeature2Stub5EmptyEv>:
0000000000015e98 <_ZN15ChiFeature2Stub7DeQueueEv>:
0000000000015eb8 <_ZN15ChiFeature2Stub27ExecuteProcessRequestHelperEP24ChiFeature2RequestObject>:
   15ee8: c1 06 00 b4  	cbz	x1, 0x15fc0 <_ZN15ChiFeature2Stub27ExecuteProcessRequestHelperEP24ChiFeature2RequestObject+0x108>
   15eec: d7 00 00 90  	adrp	x23, 0x2d000 <_ZN15ChiFeature2Stub27ExecuteProcessRequestHelperEP24ChiFeature2RequestObject+0x94>
   15f00: 69 05 18 36  	tbz	w9, #3, 0x15fac <_ZN15ChiFeature2Stub27ExecuteProcessRequestHelperEP24ChiFeature2RequestObject+0xf4>
   15f04: cf 00 00 90  	adrp	x15, 0x2d000 <_ZN15ChiFeature2Stub27ExecuteProcessRequestHelperEP24ChiFeature2RequestObject+0xac>
   15f08: ba ff ff f0  	adrp	x26, 0xc000 <_ZN15ChiFeature2Stub27ExecuteProcessRequestHelperEP24ChiFeature2RequestObject+0x2c>
   15f1c: 41 02 00 54  	b.ne	0x15f64 <_ZN15ChiFeature2Stub27ExecuteProcessRequestHelperEP24ChiFeature2RequestObject+0xac>
   15f34: c1 ff ff 90  	adrp	x1, 0xd000 <_ZN15ChiFeature2Stub27ExecuteProcessRequestHelperEP24ChiFeature2RequestObject+0x5c>
   15f38: a2 ff ff b0  	adrp	x2, 0xa000 <_ZN15ChiFeature2Stub27ExecuteProcessRequestHelperEP24ChiFeature2RequestObject+0x54>
   15f3c: a5 ff ff 90  	adrp	x5, 0x9000 <_ZN15ChiFeature2Stub27ExecuteProcessRequestHelperEP24ChiFeature2RequestObject+0x54>
   15f78: a1 ff ff d0  	adrp	x1, 0xb000 <_ZN15ChiFeature2Stub27ExecuteProcessRequestHelperEP24ChiFeature2RequestObject+0x98>
   15f80: c0 ff ff b0  	adrp	x0, 0xe000 <_ZN15ChiFeature2Stub27ExecuteProcessRequestHelperEP24ChiFeature2RequestObject+0xac>
   15f84: a3 ff ff 90  	adrp	x3, 0x9000 <_ZN15ChiFeature2Stub27ExecuteProcessRequestHelperEP24ChiFeature2RequestObject+0x9c>
   15f88: a5 ff ff f0  	adrp	x5, 0xc000 <_ZN15ChiFeature2Stub27ExecuteProcessRequestHelperEP24ChiFeature2RequestObject+0xac>
   15fa8: 66 58 00 94  	bl	0x2c140 <_ZN6ChiLog9LogSystemEPKcS1_S1_S1_iS1_z@plt>
   15fb8: aa 58 00 94  	bl	0x2c260 <_ZNK15ChiFeature2Base19GetCurrentStageInfoEP24ChiFeature2RequestObjectP20ChiFeature2StageInfo@plt>
   15fbc: a0 01 00 34  	cbz	w0, 0x15ff0 <_ZN15ChiFeature2Stub27ExecuteProcessRequestHelperEP24ChiFeature2RequestObject+0x138>
   15fcc: 61 34 00 54  	b.ne	0x16658 <_ZN15ChiFeature2Stub27ExecuteProcessRequestHelperEP24ChiFeature2RequestObject+0x7a0>
   16008: 49 01 00 54  	b.ls	0x16030 <_ZN15ChiFeature2Stub27ExecuteProcessRequestHelperEP24ChiFeature2RequestObject+0x178>
   16010: 2e 0c 00 b4  	cbz	x14, 0x16194 <_ZN15ChiFeature2Stub27ExecuteProcessRequestHelperEP24ChiFeature2RequestObject+0x2dc>
   1602c: 5c 00 00 14  	b	0x1619c <_ZN15ChiFeature2Stub27ExecuteProcessRequestHelperEP24ChiFeature2RequestObject+0x2e4>
   16034: 88 05 00 36  	tbz	w8, #0, 0x160e4 <_ZN15ChiFeature2Stub27ExecuteProcessRequestHelperEP24ChiFeature2RequestObject+0x22c>
   16038: b0 00 00 f0  	adrp	x16, 0x2d000 <_ZN15ChiFeature2Stub27ExecuteProcessRequestHelperEP24ChiFeature2RequestObject+0x1dc>
   1603c: 9a ff ff f0  	adrp	x26, 0x9000 <_ZN15ChiFeature2Stub27ExecuteProcessRequestHelperEP24ChiFeature2RequestObject+0x150>
   16050: 41 02 00 54  	b.ne	0x16098 <_ZN15ChiFeature2Stub27ExecuteProcessRequestHelperEP24ChiFeature2RequestObject+0x1e0>
   16068: a1 ff ff f0  	adrp	x1, 0xd000 <_ZN15ChiFeature2Stub27ExecuteProcessRequestHelperEP24ChiFeature2RequestObject+0x18c>
   1606c: a2 ff ff d0  	adrp	x2, 0xc000 <_ZN15ChiFeature2Stub27ExecuteProcessRequestHelperEP24ChiFeature2RequestObject+0x18c>
   16070: a5 ff ff 90  	adrp	x5, 0xa000 <_ZN15ChiFeature2Stub27ExecuteProcessRequestHelperEP24ChiFeature2RequestObject+0x188>
   160ac: a1 ff ff f0  	adrp	x1, 0xd000 <_ZN15ChiFeature2Stub27ExecuteProcessRequestHelperEP24ChiFeature2RequestObject+0x1d0>
   160b4: 80 ff ff f0  	adrp	x0, 0x9000 <_ZN15ChiFeature2Stub27ExecuteProcessRequestHelperEP24ChiFeature2RequestObject+0x1c8>
   160b8: a3 ff ff 90  	adrp	x3, 0xa000 <_ZN15ChiFeature2Stub27ExecuteProcessRequestHelperEP24ChiFeature2RequestObject+0x1d0>
   160bc: a5 ff ff b0  	adrp	x5, 0xb000 <_ZN15ChiFeature2Stub27ExecuteProcessRequestHelperEP24ChiFeature2RequestObject+0x1d8>
   160dc: 19 58 00 94  	bl	0x2c140 <_ZN6ChiLog9LogSystemEPKcS1_S1_S1_iS1_z@plt>
   160e4: e8 f6 07 36  	tbz	w8, #0, 0x15fc0 <_ZN15ChiFeature2Stub27ExecuteProcessRequestHelperEP24ChiFeature2RequestObject+0x108>
   160e8: a4 00 00 f0  	adrp	x4, 0x2d000 <_ZN15ChiFeature2Stub27ExecuteProcessRequestHelperEP24ChiFeature2RequestObject+0x28c>
   160f8: 61 02 00 54  	b.ne	0x16144 <_ZN15ChiFeature2Stub27ExecuteProcessRequestHelperEP24ChiFeature2RequestObject+0x28c>
   160fc: bb ff ff d0  	adrp	x27, 0xc000 <_ZN15ChiFeature2Stub27ExecuteProcessRequestHelperEP24ChiFeature2RequestObject+0x21c>
   16118: a1 ff ff f0  	adrp	x1, 0xd000 <_ZN15ChiFeature2Stub27ExecuteProcessRequestHelperEP24ChiFeature2RequestObject+0x23c>
   1611c: a2 ff ff b0  	adrp	x2, 0xb000 <_ZN15ChiFeature2Stub27ExecuteProcessRequestHelperEP24ChiFeature2RequestObject+0x238>
   16120: 85 ff ff f0  	adrp	x5, 0x9000 <_ZN15ChiFeature2Stub27ExecuteProcessRequestHelperEP24ChiFeature2RequestObject+0x234>
   16144: ba ff ff d0  	adrp	x26, 0xc000 <_ZN15ChiFeature2Stub27ExecuteProcessRequestHelperEP24ChiFeature2RequestObject+0x264>
   16160: a1 ff ff f0  	adrp	x1, 0xd000 <_ZN15ChiFeature2Stub27ExecuteProcessRequestHelperEP24ChiFeature2RequestObject+0x284>
   16168: 80 ff ff f0  	adrp	x0, 0x9000 <_ZN15ChiFeature2Stub27ExecuteProcessRequestHelperEP24ChiFeature2RequestObject+0x27c>
   1616c: 83 ff ff f0  	adrp	x3, 0x9000 <_ZN15ChiFeature2Stub27ExecuteProcessRequestHelperEP24ChiFeature2RequestObject+0x280>
   16170: 85 ff ff f0  	adrp	x5, 0x9000 <_ZN15ChiFeature2Stub27ExecuteProcessRequestHelperEP24ChiFeature2RequestObject+0x284>
   1618c: ed 57 00 94  	bl	0x2c140 <_ZN6ChiLog9LogSystemEPKcS1_S1_S1_iS1_z@plt>
   16190: 8c ff ff 17  	b	0x15fc0 <_ZN15ChiFeature2Stub27ExecuteProcessRequestHelperEP24ChiFeature2RequestObject+0x108>
   161a8: 52 58 00 94  	bl	0x2c2f0 <_ZNK24ChiFeature2RequestObject19GetSequencePrivDataE24ChiFeature2SequenceOrderh@plt>
   161b0: 00 01 00 b4  	cbz	x0, 0x161d0 <_ZN15ChiFeature2Stub27ExecuteProcessRequestHelperEP24ChiFeature2RequestObject+0x318>
   161c8: c1 00 00 54  	b.ne	0x161e0 <_ZN15ChiFeature2Stub27ExecuteProcessRequestHelperEP24ChiFeature2RequestObject+0x328>
   161cc: 94 00 00 14  	b	0x1641c <_ZN15ChiFeature2Stub27ExecuteProcessRequestHelperEP24ChiFeature2RequestObject+0x564>
   161dc: 00 12 00 54  	b.eq	0x1641c <_ZN15ChiFeature2Stub27ExecuteProcessRequestHelperEP24ChiFeature2RequestObject+0x564>
   16200: 05 00 00 14  	b	0x16214 <_ZN15ChiFeature2Stub27ExecuteProcessRequestHelperEP24ChiFeature2RequestObject+0x35c>
   16210: e0 0f 00 54  	b.eq	0x1640c <_ZN15ChiFeature2Stub27ExecuteProcessRequestHelperEP24ChiFeature2RequestObject+0x554>
   16230: 62 03 00 54  	b.hs	0x1629c <_ZN15ChiFeature2Stub27ExecuteProcessRequestHelperEP24ChiFeature2RequestObject+0x3e4>
   16238: 2a 03 00 b4  	cbz	x10, 0x1629c <_ZN15ChiFeature2Stub27ExecuteProcessRequestHelperEP24ChiFeature2RequestObject+0x3e4>
   1624c: 82 02 00 54  	b.hs	0x1629c <_ZN15ChiFeature2Stub27ExecuteProcessRequestHelperEP24ChiFeature2RequestObject+0x3e4>
   16254: 77 02 00 b4  	cbz	x23, 0x162a0 <_ZN15ChiFeature2Stub27ExecuteProcessRequestHelperEP24ChiFeature2RequestObject+0x3e8>
   16264: a8 0b 00 54  	b.hi	0x163d8 <_ZN15ChiFeature2Stub27ExecuteProcessRequestHelperEP24ChiFeature2RequestObject+0x520>
   1628c: a9 00 00 54  	b.ls	0x162a0 <_ZN15ChiFeature2Stub27ExecuteProcessRequestHelperEP24ChiFeature2RequestObject+0x3e8>
   16298: 03 00 00 14  	b	0x162a4 <_ZN15ChiFeature2Stub27ExecuteProcessRequestHelperEP24ChiFeature2RequestObject+0x3ec>
   162b0: 10 58 00 94  	bl	0x2c2f0 <_ZNK24ChiFeature2RequestObject19GetSequencePrivDataE24ChiFeature2SequenceOrderh@plt>
   162d0: 0c 58 00 94  	bl	0x2c300 <_ZNK24ChiFeature2RequestObject13GetBufferInfoE31ChiFeature2RequestObjectOpsTypePK21ChiFeature2IdentifierPPvPmhh@plt>
   162f8: 06 58 00 94  	bl	0x2c310 <_ZNK24ChiFeature2RequestObject26GetFinalBufferMetadataInfoE21ChiFeature2IdentifierPP29ChiFeature2BufferMetadataInfoh@plt>
   16300: cb 00 00 b4  	cbz	x11, 0x16318 <_ZN15ChiFeature2Stub27ExecuteProcessRequestHelperEP24ChiFeature2RequestObject+0x460>
   16318: 7b f7 ff b4  	cbz	x27, 0x16204 <_ZN15ChiFeature2Stub27ExecuteProcessRequestHelperEP24ChiFeature2RequestObject+0x34c>
   16320: af 03 00 34  	cbz	w15, 0x16394 <_ZN15ChiFeature2Stub27ExecuteProcessRequestHelperEP24ChiFeature2RequestObject+0x4dc>
   16324: 17 f7 ff b4  	cbz	x23, 0x16204 <_ZN15ChiFeature2Stub27ExecuteProcessRequestHelperEP24ChiFeature2RequestObject+0x34c>
   16330: a1 f6 ff 54  	b.ne	0x16204 <_ZN15ChiFeature2Stub27ExecuteProcessRequestHelperEP24ChiFeature2RequestObject+0x34c>
   16338: 60 f6 ff b4  	cbz	x0, 0x16204 <_ZN15ChiFeature2Stub27ExecuteProcessRequestHelperEP24ChiFeature2RequestObject+0x34c>
   16344: f7 57 00 94  	bl	0x2c320 <_ZN22CHITargetBufferManager9GetTargetEPvm@plt>
   16348: e0 f5 ff b4  	cbz	x0, 0x16204 <_ZN15ChiFeature2Stub27ExecuteProcessRequestHelperEP24ChiFeature2RequestObject+0x34c>
   1636c: f1 57 00 94  	bl	0x2c330 <_ZN22CHITargetBufferManager12UpdateTargetEjmPv15ChiTargetStatusPS0_@plt>
   16390: 9d ff ff 17  	b	0x16204 <_ZN15ChiFeature2Stub27ExecuteProcessRequestHelperEP24ChiFeature2RequestObject+0x34c>
   16398: ea 57 00 94  	bl	0x2c340 <_ZN22CHITargetBufferManager22GetTargetBufferManagerEPv@plt>
   1639c: 40 fc ff b4  	cbz	x0, 0x16324 <_ZN15ChiFeature2Stub27ExecuteProcessRequestHelperEP24ChiFeature2RequestObject+0x46c>
   163ac: dd 57 00 94  	bl	0x2c320 <_ZN22CHITargetBufferManager9GetTargetEPvm@plt>
   163b0: a0 fb ff b4  	cbz	x0, 0x16324 <_ZN15ChiFeature2Stub27ExecuteProcessRequestHelperEP24ChiFeature2RequestObject+0x46c>
   163d0: d8 57 00 94  	bl	0x2c330 <_ZN22CHITargetBufferManager12UpdateTargetEjmPv15ChiTargetStatusPS0_@plt>
   163d4: d4 ff ff 17  	b	0x16324 <_ZN15ChiFeature2Stub27ExecuteProcessRequestHelperEP24ChiFeature2RequestObject+0x46c>
   163fc: 29 f5 ff 54  	b.ls	0x162a0 <_ZN15ChiFeature2Stub27ExecuteProcessRequestHelperEP24ChiFeature2RequestObject+0x3e8>
   16408: a7 ff ff 17  	b	0x162a4 <_ZN15ChiFeature2Stub27ExecuteProcessRequestHelperEP24ChiFeature2RequestObject+0x3ec>
   16478: b6 57 00 94  	bl	0x2c350 <_ZN15ChiFeature2Base14ProcessMessageEPK20ChiMessageDescriptorPv@plt>
   16490: b0 57 00 94  	bl	0x2c350 <_ZN15ChiFeature2Base14ProcessMessageEPK20ChiMessageDescriptorPv@plt>
   16494: 78 00 00 b4  	cbz	x24, 0x164a0 <_ZN15ChiFeature2Stub27ExecuteProcessRequestHelperEP24ChiFeature2RequestObject+0x5e8>
   164a8: 77 01 00 b4  	cbz	x23, 0x164d4 <_ZN15ChiFeature2Stub27ExecuteProcessRequestHelperEP24ChiFeature2RequestObject+0x61c>
   164b0: 60 00 00 b4  	cbz	x0, 0x164bc <_ZN15ChiFeature2Stub27ExecuteProcessRequestHelperEP24ChiFeature2RequestObject+0x604>
   164c0: 60 00 00 b4  	cbz	x0, 0x164cc <_ZN15ChiFeature2Stub27ExecuteProcessRequestHelperEP24ChiFeature2RequestObject+0x614>
   164e0: a0 57 00 94  	bl	0x2c360 <_ZN24ChiFeature2RequestObject18SetCurRequestStateE23ChiFeature2RequestStateh@plt>
   1650c: 99 57 00 94  	bl	0x2c370 <_ZNK15ChiFeature2Base21ProcessFeatureMessageEP28ChiFeature2MessageDescriptor@plt>
   16524: 97 57 00 94  	bl	0x2c380 <_ZNK15ChiFeature2Base24ProcessReleaseDependencyEP24ChiFeature2RequestObjecthhP20ChiFeature2StageInfo@plt>
   1653c: 22 d4 ff 54  	b.hs	0x15fc0 <_ZN15ChiFeature2Stub27ExecuteProcessRequestHelperEP24ChiFeature2RequestObject+0x108>
   16548: 69 02 00 54  	b.ls	0x16594 <_ZN15ChiFeature2Stub27ExecuteProcessRequestHelperEP24ChiFeature2RequestObject+0x6dc>
   16554: 7a d3 ff b4  	cbz	x26, 0x15fc0 <_ZN15ChiFeature2Stub27ExecuteProcessRequestHelperEP24ChiFeature2RequestObject+0x108>
   16568: 4a 57 00 94  	bl	0x2c290 <_ZNK15ChiFeature2Base40GetNumDependencyListsFromStageDescriptorEPK26ChiFeature2StageDescriptorhh@plt>
   16580: 48 57 00 94  	bl	0x2c2a0 <_ZNK15ChiFeature2Base35SetNextStageInfoFromStageDescriptorEP24ChiFeature2RequestObjectPK26ChiFeature2StageDescriptorhh@plt>
   1658c: 49 57 00 94  	bl	0x2c2b0 <_ZNK15ChiFeature2Base18PopulateDependencyEP24ChiFeature2RequestObject@plt>
   16590: 8c fe ff 17  	b	0x15fc0 <_ZN15ChiFeature2Stub27ExecuteProcessRequestHelperEP24ChiFeature2RequestObject+0x108>
   16594: a5 00 00 f0  	adrp	x5, 0x2d000 <_ZN15ChiFeature2Stub27ExecuteProcessRequestHelperEP24ChiFeature2RequestObject+0x738>
   165a0: 11 d1 07 36  	tbz	w17, #0, 0x15fc0 <_ZN15ChiFeature2Stub27ExecuteProcessRequestHelperEP24ChiFeature2RequestObject+0x108>
   165a4: a2 00 00 f0  	adrp	x2, 0x2d000 <_ZN15ChiFeature2Stub27ExecuteProcessRequestHelperEP24ChiFeature2RequestObject+0x748>
   165b4: 81 02 00 54  	b.ne	0x16604 <_ZN15ChiFeature2Stub27ExecuteProcessRequestHelperEP24ChiFeature2RequestObject+0x74c>
   165b8: 9b ff ff f0  	adrp	x27, 0x9000 <_ZN15ChiFeature2Stub27ExecuteProcessRequestHelperEP24ChiFeature2RequestObject+0x6cc>
   165d4: a1 ff ff f0  	adrp	x1, 0xd000 <_ZN15ChiFeature2Stub27ExecuteProcessRequestHelperEP24ChiFeature2RequestObject+0x6f8>
   165d8: a2 ff ff d0  	adrp	x2, 0xc000 <_ZN15ChiFeature2Stub27ExecuteProcessRequestHelperEP24ChiFeature2RequestObject+0x6f8>
   165dc: a5 ff ff b0  	adrp	x5, 0xb000 <_ZN15ChiFeature2Stub27ExecuteProcessRequestHelperEP24ChiFeature2RequestObject+0x6f8>
   16604: 9a ff ff f0  	adrp	x26, 0x9000 <_ZN15ChiFeature2Stub27ExecuteProcessRequestHelperEP24ChiFeature2RequestObject+0x718>
   16620: a1 ff ff f0  	adrp	x1, 0xd000 <_ZN15ChiFeature2Stub27ExecuteProcessRequestHelperEP24ChiFeature2RequestObject+0x744>
   16628: 80 ff ff f0  	adrp	x0, 0x9000 <_ZN15ChiFeature2Stub27ExecuteProcessRequestHelperEP24ChiFeature2RequestObject+0x73c>
   1662c: a3 ff ff b0  	adrp	x3, 0xb000 <_ZN15ChiFeature2Stub27ExecuteProcessRequestHelperEP24ChiFeature2RequestObject+0x748>
   16630: a5 ff ff b0  	adrp	x5, 0xb000 <_ZN15ChiFeature2Stub27ExecuteProcessRequestHelperEP24ChiFeature2RequestObject+0x74c>
   16650: bc 56 00 94  	bl	0x2c140 <_ZN6ChiLog9LogSystemEPKcS1_S1_S1_iS1_z@plt>
   16654: 5b fe ff 17  	b	0x15fc0 <_ZN15ChiFeature2Stub27ExecuteProcessRequestHelperEP24ChiFeature2RequestObject+0x108>
0000000000016660 <_ZN15ChiFeature2Stub11OnDumpEventEimjP24ChiFeature2RequestObject>:
0000000000016668 <_ZN15ChiFeature2Stub7EnQueueEP24ChiFeature2RequestObject>:
0000000000016688 <_ZN15ChiFeature2Stub15DoProcessResultEP16ChiCaptureResultPv>:
0000000000016690 <_ZN15ChiFeature2Stub16DoProcessMessageEPK20ChiMessageDescriptorPv>:
0000000000016698 <_ZN15ChiFeature2Stub22DoProcessPartialResultEP23ChiPartialCaptureResultPv>:
00000000000166a0 <_ZNK15ChiFeature2Stub16DoCleanupRequestEP24ChiFeature2RequestObject>:
00000000000166a8 <_ZN15ChiFeature2Stub7DoFlushEv>:
00000000000166b0 <_ZN15ChiFeature2Stub9DoDestroyEv>:
00000000000166b8 <_ZN15ChiFeature2Stub32CalculateMaxFeatureExecutionTimeEv>:
   166c8: a9 ff ff d0  	adrp	x9, 0xc000 <_ZNK15ChiFeature2Stub16DoCleanupRequestEP24ChiFeature2RequestObject>
   16708: 22 57 00 14  	b	0x2c390 <_ZN15ChiFeature2Stub6CreateEP26ChiFeature2CreateInputInfo@plt>
   1684c: 3d 56 00 94  	bl	0x2c140 <_ZN6ChiLog9LogSystemEPKcS1_S1_S1_iS1_z@plt>
   16900: 10 56 00 94  	bl	0x2c140 <_ZN6ChiLog9LogSystemEPKcS1_S1_S1_iS1_z@plt>
   16950: 94 56 00 94  	bl	0x2c3a0 <_ZN15ChiFeature2BaseD2Ev@plt>
   169bc: b5 23 00 14  	b	0x1f890 <_ZN8ChxUtils11GetTotalRamEv+0x208>
00000000000169c0 <_Znwm>:
00000000000169d0 <_ZdlPv>:
00000000000169d8 <_ZN5Mutex6CreateEv>:
   16a10: 40 02 00 b4  	cbz	x0, 0x16a58 <_ZN5Mutex6CreateEv+0x80>
   16a20: 60 01 00 35  	cbnz	w0, 0x16a4c <_ZN5Mutex6CreateEv+0x74>
   16a30: a0 00 00 35  	cbnz	w0, 0x16a44 <_ZN5Mutex6CreateEv+0x6c>
   16a40: e0 01 00 34  	cbz	w0, 0x16a7c <_ZN5Mutex6CreateEv+0xa4>
   16a64: c1 01 00 54  	b.ne	0x16a9c <_ZN5Mutex6CreateEv+0xc4>
   16a98: 80 fe ff 54  	b.eq	0x16a68 <_ZN5Mutex6CreateEv+0x90>
0000000000016aa0 <_ZN5Mutex10InitializeEv>:
   16ad0: 80 01 00 34  	cbz	w0, 0x16b00 <_ZN5Mutex10InitializeEv+0x60>
   16ae4: 21 03 00 54  	b.ne	0x16b48 <_ZN5Mutex10InitializeEv+0xa8>
   16b10: 00 01 00 35  	cbnz	w0, 0x16b30 <_ZN5Mutex10InitializeEv+0x90>
   16b24: 60 00 00 35  	cbnz	w0, 0x16b30 <_ZN5Mutex10InitializeEv+0x90>
   16b44: 20 fd ff 54  	b.eq	0x16ae8 <_ZN5Mutex10InitializeEv+0x48>
0000000000016b50 <_ZN5Mutex7DestroyEv>:
   16b68: 61 00 00 54  	b.ne	0x16b74 <_ZN5Mutex7DestroyEv+0x24>
0000000000016b88 <_ZN5Mutex4LockEv>:
0000000000016b90 <_ZN5Mutex7TryLockEv>:
0000000000016bb8 <_ZN5Mutex6UnlockEv>:
0000000000016bc0 <_ZN5Mutex15GetNativeHandleEv>:
0000000000016bd0 <_ZN9Condition6CreateEv>:
   16bfc: 00 01 00 b4  	cbz	x0, 0x16c1c <_ZN9Condition6CreateEv+0x4c>
   16c0c: 00 01 00 34  	cbz	w0, 0x16c2c <_ZN9Condition6CreateEv+0x5c>
0000000000016c48 <_ZN9Condition10InitializeEv>:
   16c68: 88 00 00 34  	cbz	w8, 0x16c78 <_ZN9Condition10InitializeEv+0x30>
0000000000016c90 <_ZN9Condition7DestroyEv>:
   16ca8: 61 00 00 54  	b.ne	0x16cb4 <_ZN9Condition7DestroyEv+0x24>
0000000000016cc8 <_ZN9Condition4WaitEP15pthread_mutex_t>:
0000000000016ce8 <_ZN9Condition9TimedWaitEP15pthread_mutex_tj>:
   16dac: e1 00 00 54  	b.ne	0x16dc8 <_ZN9Condition9TimedWaitEP15pthread_mutex_tj+0xe0>
0000000000016dd0 <_ZN9Condition6SignalEv>:
0000000000016dd8 <_ZN9Condition9BroadcastEv>:
0000000000016de0 <_ZN9Semaphore6CreateEi>:
   16e0c: 40 00 00 b4  	cbz	x0, 0x16e14 <_ZN9Semaphore6CreateEi+0x34>
0000000000016e20 <_ZN9Semaphore10InitializeEi>:
0000000000016e30 <_ZN9Semaphore16NotifyAllThreadsEv>:
   16e40: 6c 55 00 94  	bl	0x2c3f0 <_ZNSt3__15mutex4lockEv@plt>
   16e54: 69 05 00 54  	b.ls	0x16f00 <_ZN9Semaphore16NotifyAllThreadsEv+0xd0>
   16e58: a8 00 00 f0  	adrp	x8, 0x2d000 <_ZN9Semaphore16NotifyAllThreadsEv+0x84>
   16e64: e8 04 08 36  	tbz	w8, #1, 0x16f00 <_ZN9Semaphore16NotifyAllThreadsEv+0xd0>
   16e68: a9 00 00 f0  	adrp	x9, 0x2d000 <_ZN9Semaphore16NotifyAllThreadsEv+0x94>
   16e6c: b4 ff ff d0  	adrp	x20, 0xc000 <_ZN9Semaphore16NotifyAllThreadsEv+0x14>
   16e80: 01 02 00 54  	b.ne	0x16ec0 <_ZN9Semaphore16NotifyAllThreadsEv+0x90>
   16e98: a1 ff ff f0  	adrp	x1, 0xd000 <_ZN9Semaphore16NotifyAllThreadsEv+0x44>
   16e9c: a2 ff ff b0  	adrp	x2, 0xb000 <_ZN9Semaphore16NotifyAllThreadsEv+0x40>
   16ea0: 85 ff ff f0  	adrp	x5, 0x9000 <_ZN9Semaphore16NotifyAllThreadsEv+0x3c>
   16ed4: a1 ff ff 90  	adrp	x1, 0xa000 <_ZN9Semaphore16NotifyAllThreadsEv+0x74>
   16edc: a0 ff ff d0  	adrp	x0, 0xc000 <_ZN9Semaphore16NotifyAllThreadsEv+0x84>
   16ee0: 83 ff ff f0  	adrp	x3, 0x9000 <_ZN9Semaphore16NotifyAllThreadsEv+0x7c>
   16ee4: 85 ff ff f0  	adrp	x5, 0x9000 <_ZN9Semaphore16NotifyAllThreadsEv+0x80>
   16efc: 91 54 00 94  	bl	0x2c140 <_ZN6ChiLog9LogSystemEPKcS1_S1_S1_iS1_z@plt>
   16f04: 3f 55 00 94  	bl	0x2c400 <_ZNSt3__118condition_variable10notify_allEv@plt>
   16f14: 3f 55 00 14  	b	0x2c410 <_ZNSt3__15mutex6unlockEv@plt>
0000000000016f18 <_ZN9Semaphore5ResetEv>:
   16f28: 32 55 00 94  	bl	0x2c3f0 <_ZNSt3__15mutex4lockEv@plt>
   16f2c: a8 00 00 f0  	adrp	x8, 0x2d000 <_ZN9Semaphore5ResetEv+0x70>
   16f40: e8 04 18 36  	tbz	w8, #3, 0x16fdc <_ZN9Semaphore5ResetEv+0xc4>
   16f44: a9 00 00 f0  	adrp	x9, 0x2d000 <_ZN9Semaphore5ResetEv+0x88>
   16f48: b4 ff ff d0  	adrp	x20, 0xc000 <_ZN9Semaphore5ResetEv+0x8>
   16f5c: 01 02 00 54  	b.ne	0x16f9c <_ZN9Semaphore5ResetEv+0x84>
   16f74: a1 ff ff f0  	adrp	x1, 0xd000 <_ZN9Semaphore5ResetEv+0x38>
   16f78: a2 ff ff 90  	adrp	x2, 0xa000 <_ZN9Semaphore5ResetEv+0x30>
   16f7c: a5 ff ff f0  	adrp	x5, 0xd000 <_ZN9Semaphore5ResetEv+0x40>
   16fb0: a1 ff ff b0  	adrp	x1, 0xb000 <_ZN9Semaphore5ResetEv+0x6c>
   16fb8: c0 ff ff 90  	adrp	x0, 0xe000 <_ZN9Semaphore5ResetEv+0x80>
   16fbc: a3 ff ff f0  	adrp	x3, 0xd000 <_ZN9Semaphore5ResetEv+0x80>
   16fc0: a5 ff ff 90  	adrp	x5, 0xa000 <_ZN9Semaphore5ResetEv+0x78>
   16fd8: 5a 54 00 94  	bl	0x2c140 <_ZN6ChiLog9LogSystemEPKcS1_S1_S1_iS1_z@plt>
   16fe0: 08 55 00 94  	bl	0x2c400 <_ZNSt3__118condition_variable10notify_allEv@plt>
   16ff0: 08 55 00 14  	b	0x2c410 <_ZNSt3__15mutex6unlockEv@plt>
0000000000016ff8 <_ZN9Semaphore16WaitForSemaphoreEv>:
   17034: ef 54 00 94  	bl	0x2c3f0 <_ZNSt3__15mutex4lockEv@plt>
   1703c: 88 00 00 34  	cbz	w8, 0x1704c <_ZN9Semaphore16WaitForSemaphoreEv+0x54>
   17048: 79 00 00 14  	b	0x1722c <_ZN9Semaphore16WaitForSemaphoreEv+0x234>
   1704c: 88 ff ff d0  	adrp	x8, 0x9000 <_ZN9Semaphore16WaitForSemaphoreEv+0x1c>
   17050: 89 ff ff d0  	adrp	x9, 0x9000 <_ZN9Semaphore16WaitForSemaphoreEv+0x20>
   17054: b6 00 00 d0  	adrp	x22, 0x2d000 <_ZN9Semaphore16WaitForSemaphoreEv+0xb4>
   17060: b7 ff ff b0  	adrp	x23, 0xc000 <_ZN9Semaphore16WaitForSemaphoreEv+0x3c>
   1706c: 98 ff ff f0  	adrp	x24, 0xa000 <_ZN9Semaphore16WaitForSemaphoreEv+0x40>
   17098: 12 00 00 14  	b	0x170e0 <_ZN9Semaphore16WaitForSemaphoreEv+0xe8>
   170b0: a1 ff ff 90  	adrp	x1, 0xb000 <_ZN9Semaphore16WaitForSemaphoreEv+0x88>
   170b8: a0 ff ff f0  	adrp	x0, 0xe000 <_ZN9Semaphore16WaitForSemaphoreEv+0x9c>
   170bc: a5 ff ff 90  	adrp	x5, 0xb000 <_ZN9Semaphore16WaitForSemaphoreEv+0x94>
   170d4: 1b 54 00 94  	bl	0x2c140 <_ZN6ChiLog9LogSystemEPKcS1_S1_S1_iS1_z@plt>
   170dc: c9 09 00 35  	cbnz	w9, 0x17214 <_ZN9Semaphore16WaitForSemaphoreEv+0x21c>
   170e0: d0 54 00 94  	bl	0x2c420 <_ZNSt3__16chrono12steady_clock3nowEv@plt>
   170e8: d2 54 00 94  	bl	0x2c430 <_ZNSt3__16chrono12system_clock3nowEv@plt>
   1711c: d5 54 00 94  	bl	0x2c470 <_ZNSt3__118condition_variable15__do_timed_waitERNS_11unique_lockINS_5mutexEEENS_6chrono10time_pointINS5_12system_clockENS5_8durationIxNS_5ratioILl1ELl1000000000EEEEEEE@plt>
   17120: c0 54 00 94  	bl	0x2c420 <_ZNSt3__16chrono12steady_clock3nowEv@plt>
   17130: ca 02 00 54  	b.ge	0x17188 <_ZN9Semaphore16WaitForSemaphoreEv+0x190>
   17134: 28 fd 1f 36  	tbz	w8, #3, 0x170d8 <_ZN9Semaphore16WaitForSemaphoreEv+0xe0>
   17138: aa 00 00 d0  	adrp	x10, 0x2d000 <_ZN9Semaphore16WaitForSemaphoreEv+0x198>
   17148: a1 fa ff 54  	b.ne	0x1709c <_ZN9Semaphore16WaitForSemaphoreEv+0xa4>
   17160: a1 ff ff d0  	adrp	x1, 0xd000 <_ZN9Semaphore16WaitForSemaphoreEv+0x140>
   17164: a2 ff ff b0  	adrp	x2, 0xc000 <_ZN9Semaphore16WaitForSemaphoreEv+0x140>
   17184: c6 ff ff 17  	b	0x1709c <_ZN9Semaphore16WaitForSemaphoreEv+0xa4>
   17188: 88 fa 07 36  	tbz	w8, #0, 0x170d8 <_ZN9Semaphore16WaitForSemaphoreEv+0xe0>
   1718c: ab 00 00 d0  	adrp	x11, 0x2d000 <_ZN9Semaphore16WaitForSemaphoreEv+0x1ec>
   1719c: e1 01 00 54  	b.ne	0x171d8 <_ZN9Semaphore16WaitForSemaphoreEv+0x1e0>
   171b4: a1 ff ff d0  	adrp	x1, 0xd000 <_ZN9Semaphore16WaitForSemaphoreEv+0x194>
   171b8: a2 ff ff d0  	adrp	x2, 0xd000 <_ZN9Semaphore16WaitForSemaphoreEv+0x198>
   171ec: a1 ff ff d0  	adrp	x1, 0xd000 <_ZN9Semaphore16WaitForSemaphoreEv+0x1cc>
   171f4: 80 ff ff d0  	adrp	x0, 0x9000 <_ZN9Semaphore16WaitForSemaphoreEv+0x1c4>
   171f8: a5 ff ff d0  	adrp	x5, 0xd000 <_ZN9Semaphore16WaitForSemaphoreEv+0x1d8>
   17210: b1 ff ff 17  	b	0x170d4 <_ZN9Semaphore16WaitForSemaphoreEv+0xdc>
   17224: 8a 00 00 34  	cbz	w10, 0x17234 <_ZN9Semaphore16WaitForSemaphoreEv+0x23c>
   17230: 78 54 00 94  	bl	0x2c410 <_ZNSt3__15mutex6unlockEv@plt>
   17240: 21 01 00 54  	b.ne	0x17264 <_ZN9Semaphore16WaitForSemaphoreEv+0x26c>
0000000000017268 <_ZN9Semaphore7DestroyEv>:
   17268: a0 01 00 b4  	cbz	x0, 0x1729c <_ZN9Semaphore7DestroyEv+0x34>
   17280: 80 54 00 94  	bl	0x2c480 <_ZNSt3__118condition_variableD1Ev@plt>
   17288: 82 54 00 94  	bl	0x2c490 <_ZNSt3__15mutexD1Ev@plt>
00000000000172a0 <_ZN8ChxUtils14AlignGeneric32Ejj>:
00000000000172c0 <_ZN8ChxUtils17EvenCeilingUINT32Ej>:
00000000000172d8 <_ZN8ChxUtils9DownscaleEjj>:
   172dc: 80 01 00 54  	b.eq	0x1730c <_ZN8ChxUtils9DownscaleEjj+0x34>
0000000000017310 <_ZN8ChxUtils9DownscaleE12ChiDimensionj>:
   17318: e0 02 00 54  	b.eq	0x17374 <_ZN8ChxUtils9DownscaleE12ChiDimensionj+0x64>
0000000000017380 <_ZN8ChxUtils15EvenFloorUINT32Ej>:
0000000000017388 <_ZN8ChxUtils12FEqualCoarseEff>:
   1738c: 88 ff ff d0  	adrp	x8, 0x9000 <_ZN8ChxUtils9DownscaleE12ChiDimensionj+0x44>
00000000000173a8 <_ZN8ChxUtils8IsBitSetEjj>:
00000000000173b8 <_ZN8ChxUtils8BitResetEjj>:
00000000000173c8 <_ZN8ChxUtils6BitSetEjj>:
00000000000173d8 <_ZN8ChxUtils7DPrintFEiPKcz>:
   17460: a1 00 00 54  	b.ne	0x17474 <_ZN8ChxUtils7DPrintFEiPKcz+0x9c>
0000000000017478 <_ZN8ChxUtils11GetFileNameEPKc>:
00000000000174a8 <_ZN8ChxUtils6MemMapEimm>:
00000000000174d8 <_ZN8ChxUtils8MemUnmapEPvm>:
00000000000174e0 <_ZN8ChxUtils6MemcpyEPvPKvm>:
   174f4: b3 00 00 b4  	cbz	x19, 0x17508 <_ZN8ChxUtils6MemcpyEPvPKvm+0x28>
   174f8: 81 00 00 b4  	cbz	x1, 0x17508 <_ZN8ChxUtils6MemcpyEPvPKvm+0x28>
0000000000017518 <_ZN8ChxUtils6MemsetEPvim>:
0000000000017540 <_ZN8ChxUtils6CallocEm>:
   17558: a0 00 00 b4  	cbz	x0, 0x1756c <_ZN8ChxUtils6CallocEm+0x2c>
0000000000017580 <_ZN8ChxUtils4FreeEPv>:
0000000000017588 <_ZN8ChxUtils12ThreadCreateEPFPvS0_ES0_Pl>:
   175e4: c0 02 00 54  	b.eq	0x1763c <_ZN8ChxUtils12ThreadCreateEPFPvS0_ES0_Pl+0xb4>
   175ec: b7 20 00 94  	bl	0x1f8c8 <_ZN8ChxUtils11GetTotalRamEv+0x240>
   175f0: 60 02 00 34  	cbz	w0, 0x1763c <_ZN8ChxUtils12ThreadCreateEPFPvS0_ES0_Pl+0xb4>
   175f8: b4 20 00 94  	bl	0x1f8c8 <_ZN8ChxUtils11GetTotalRamEv+0x240>
   175fc: 00 02 00 34  	cbz	w0, 0x1763c <_ZN8ChxUtils12ThreadCreateEPFPvS0_ES0_Pl+0xb4>
   17664: c1 00 00 54  	b.ne	0x1767c <_ZN8ChxUtils12ThreadCreateEPFPvS0_ES0_Pl+0xf4>
0000000000017680 <_ZN8ChxUtils13ThreadSetNameElPKc>:
00000000000176a0 <_ZN8ChxUtils15ThreadTerminateEl>:
00000000000176a8 <_ZN8ChxUtils13AtomicStore64EPVll>:
00000000000176b0 <_ZN8ChxUtils14AtomicStoreU64EPVmm>:
00000000000176b8 <_ZN8ChxUtils13AtomicLoadU64EPVm>:
   176c4: c9 ff ff 35  	cbnz	w9, 0x176bc <_ZN8ChxUtils13AtomicLoadU64EPVm+0x4>
00000000000176d0 <_ZN8ChxUtils14AtomicStoreU32EPVjj>:
00000000000176d8 <_ZN8ChxUtils13AtomicLoadU32EPVj>:
   176e4: c9 ff ff 35  	cbnz	w9, 0x176dc <_ZN8ChxUtils13AtomicLoadU32EPVj+0x4>
00000000000176f0 <_ZN8ChxUtils12AtomicIncU32EPVj>:
   176fc: a9 ff ff 35  	cbnz	w9, 0x176f0 <_ZN8ChxUtils12AtomicIncU32EPVj>
0000000000017708 <_ZN8ChxUtils12AtomicDecU32EPVj>:
   17714: aa ff ff 35  	cbnz	w10, 0x17708 <_ZN8ChxUtils12AtomicDecU32EPVj>
0000000000017720 <_ZN8ChxUtils17SleepMicrosecondsEj>:
   1772c: a8 00 00 d0  	adrp	x8, 0x2d000 <_ZN8ChxUtils17SleepMicrosecondsEj+0x64>
   1773c: 28 05 30 36  	tbz	w8, #6, 0x177e0 <_ZN8ChxUtils17SleepMicrosecondsEj+0xc0>
   17740: a9 00 00 d0  	adrp	x9, 0x2d000 <_ZN8ChxUtils17SleepMicrosecondsEj+0x78>
   17744: b4 ff ff b0  	adrp	x20, 0xc000 <_ZN8ChxUtils12AtomicDecU32EPVj+0x10>
   17758: 21 02 00 54  	b.ne	0x1779c <_ZN8ChxUtils17SleepMicrosecondsEj+0x7c>
   17770: a1 ff ff d0  	adrp	x1, 0xd000 <_ZN8ChxUtils17SleepMicrosecondsEj+0x28>
   17774: a2 ff ff b0  	adrp	x2, 0xc000 <_ZN8ChxUtils17SleepMicrosecondsEj+0x28>
   17778: 85 ff ff d0  	adrp	x5, 0x9000 <_ZN8ChxUtils17SleepMicrosecondsEj+0x20>
   177b0: 81 ff ff d0  	adrp	x1, 0x9000 <_ZN8ChxUtils17SleepMicrosecondsEj+0x58>
   177b8: a0 ff ff b0  	adrp	x0, 0xc000 <_ZN8ChxUtils17SleepMicrosecondsEj+0x6c>
   177bc: 83 ff ff d0  	adrp	x3, 0x9000 <_ZN8ChxUtils17SleepMicrosecondsEj+0x64>
   177c0: 85 ff ff f0  	adrp	x5, 0xa000 <_ZN8ChxUtils17SleepMicrosecondsEj+0x6c>
   177dc: 59 52 00 94  	bl	0x2c140 <_ZN6ChiLog9LogSystemEPKcS1_S1_S1_iS1_z@plt>
00000000000177f0 <_ZN8ChxUtils10LibGetAddrEPvPKc>:
   177f0: 40 00 00 b4  	cbz	x0, 0x177f8 <_ZN8ChxUtils10LibGetAddrEPvPKc+0x8>
0000000000017800 <_ZN8ChxUtils6LibMapEPKc>:
   17820: 60 06 00 b5  	cbnz	x0, 0x178ec <_ZN8ChxUtils6LibMapEPKc+0xec>
   17824: a8 00 00 d0  	adrp	x8, 0x2d000 <_ZN8ChxUtils6LibMapEPKc+0x7c>
   17830: e8 05 08 36  	tbz	w8, #1, 0x178ec <_ZN8ChxUtils6LibMapEPKc+0xec>
   17834: a9 00 00 d0  	adrp	x9, 0x2d000 <_ZN8ChxUtils6LibMapEPKc+0x8c>
   17838: b5 ff ff b0  	adrp	x21, 0xc000 <_ZN8ChxUtils6LibMapEPKc+0xc>
   1784c: 81 02 00 54  	b.ne	0x1789c <_ZN8ChxUtils6LibMapEPKc+0x9c>
   1786c: a1 ff ff d0  	adrp	x1, 0xd000 <_ZN8ChxUtils6LibMapEPKc+0x44>
   17870: a2 ff ff b0  	adrp	x2, 0xc000 <_ZN8ChxUtils6LibMapEPKc+0x44>
   17874: a5 ff ff b0  	adrp	x5, 0xc000 <_ZN8ChxUtils6LibMapEPKc+0x48>
   178bc: a0 ff ff b0  	adrp	x0, 0xc000 <_ZN8ChxUtils6LibMapEPKc+0x90>
   178c0: 81 ff ff f0  	adrp	x1, 0xa000 <_ZN8ChxUtils6LibMapEPKc+0x8c>
   178c4: a3 ff ff b0  	adrp	x3, 0xc000 <_ZN8ChxUtils6LibMapEPKc+0x98>
   178c8: a5 ff ff b0  	adrp	x5, 0xc000 <_ZN8ChxUtils6LibMapEPKc+0x9c>
   178e8: 16 52 00 94  	bl	0x2c140 <_ZN6ChiLog9LogSystemEPKcS1_S1_S1_iS1_z@plt>
0000000000017900 <_ZN8ChxUtils15AndroidMetadata18IsVendorTagPresentEPKv9VendorTag>:
   17930: 08 53 00 94  	bl	0x2c550 <_ZN15ExtensionModule11GetInstanceEv@plt>
   17960: c1 00 00 54  	b.ne	0x17978 <_ZN8ChxUtils15AndroidMetadata18IsVendorTagPresentEPKv9VendorTag+0x78>
0000000000017980 <_ZN8ChxUtils15AndroidMetadata21IsLongExposureCaptureEPKv>:
   179b4: a0 06 00 35  	cbnz	w0, 0x17a88 <_ZN8ChxUtils15AndroidMetadata21IsLongExposureCaptureEPKv+0x108>
   179cc: e3 05 00 54  	b.lo	0x17a88 <_ZN8ChxUtils15AndroidMetadata21IsLongExposureCaptureEPKv+0x108>
   179d0: a9 00 00 d0  	adrp	x9, 0x2d000 <_ZN8ChxUtils15AndroidMetadata21IsLongExposureCaptureEPKv+0xa8>
   179dc: 28 05 30 36  	tbz	w8, #6, 0x17a80 <_ZN8ChxUtils15AndroidMetadata21IsLongExposureCaptureEPKv+0x100>
   179e0: aa 00 00 d0  	adrp	x10, 0x2d000 <_ZN8ChxUtils15AndroidMetadata21IsLongExposureCaptureEPKv+0xb8>
   179e4: b4 ff ff b0  	adrp	x20, 0xc000 <_ZN8ChxUtils15AndroidMetadata21IsLongExposureCaptureEPKv+0x38>
   179f8: 21 02 00 54  	b.ne	0x17a3c <_ZN8ChxUtils15AndroidMetadata21IsLongExposureCaptureEPKv+0xbc>
   17a10: a1 ff ff d0  	adrp	x1, 0xd000 <_ZN8ChxUtils15AndroidMetadata21IsLongExposureCaptureEPKv+0x68>
   17a14: a2 ff ff d0  	adrp	x2, 0xd000 <_ZN8ChxUtils15AndroidMetadata21IsLongExposureCaptureEPKv+0x6c>
   17a18: a5 ff ff d0  	adrp	x5, 0xd000 <_ZN8ChxUtils15AndroidMetadata21IsLongExposureCaptureEPKv+0x70>
   17a50: 81 ff ff d0  	adrp	x1, 0x9000 <_ZN8ChxUtils15AndroidMetadata21IsLongExposureCaptureEPKv+0x98>
   17a58: a0 ff ff b0  	adrp	x0, 0xc000 <_ZN8ChxUtils15AndroidMetadata21IsLongExposureCaptureEPKv+0xac>
   17a5c: a3 ff ff d0  	adrp	x3, 0xd000 <_ZN8ChxUtils15AndroidMetadata21IsLongExposureCaptureEPKv+0xb4>
   17a60: a5 ff ff d0  	adrp	x5, 0xd000 <_ZN8ChxUtils15AndroidMetadata21IsLongExposureCaptureEPKv+0xb8>
   17a7c: b1 51 00 94  	bl	0x2c140 <_ZN6ChiLog9LogSystemEPKcS1_S1_S1_iS1_z@plt>
   17a84: 02 00 00 14  	b	0x17a8c <_ZN8ChxUtils15AndroidMetadata21IsLongExposureCaptureEPKv+0x10c>
   17a98: c1 00 00 54  	b.ne	0x17ab0 <_ZN8ChxUtils15AndroidMetadata21IsLongExposureCaptureEPKv+0x130>
0000000000017ab8 <_ZN8ChxUtils15AndroidMetadata17GetVendorTagValueEPKv9VendorTagPPv>:
   17af0: 98 52 00 94  	bl	0x2c550 <_ZN15ExtensionModule11GetInstanceEv@plt>
   17b0c: 60 00 00 35  	cbnz	w0, 0x17b18 <_ZN8ChxUtils15AndroidMetadata17GetVendorTagValueEPKv9VendorTagPPv+0x60>
   17b24: c1 00 00 54  	b.ne	0x17b3c <_ZN8ChxUtils15AndroidMetadata17GetVendorTagValueEPKv9VendorTagPPv+0x84>
0000000000017b40 <_ZN8ChxUtils15AndroidMetadata17SetVendorTagValueEPv9VendorTagjS1_>:
   17b7c: 75 52 00 94  	bl	0x2c550 <_ZN15ExtensionModule11GetInstanceEv@plt>
   17b9c: 00 02 00 34  	cbz	w0, 0x17bdc <_ZN8ChxUtils15AndroidMetadata17SetVendorTagValueEPv9VendorTagjS1_+0x9c>
   17bc0: 61 02 00 54  	b.ne	0x17c0c <_ZN8ChxUtils15AndroidMetadata17SetVendorTagValueEPv9VendorTagjS1_+0xcc>
   17c08: e0 fd ff 54  	b.eq	0x17bc4 <_ZN8ChxUtils15AndroidMetadata17SetVendorTagValueEPv9VendorTagjS1_+0x84>
0000000000017c10 <_ZN8ChxUtils15AndroidMetadata13MergeMetadataEPvS1_>:
   17c44: 14 08 00 b4  	cbz	x20, 0x17d44 <_ZN8ChxUtils15AndroidMetadata13MergeMetadataEPvS1_+0x134>
   17c4c: c1 07 00 b4  	cbz	x1, 0x17d44 <_ZN8ChxUtils15AndroidMetadata13MergeMetadataEPvS1_+0x134>
   17c58: 60 07 00 b4  	cbz	x0, 0x17d44 <_ZN8ChxUtils15AndroidMetadata13MergeMetadataEPvS1_+0x134>
   17c5c: b9 00 00 d0  	adrp	x25, 0x2d000 <_ZN8ChxUtils15AndroidMetadata13MergeMetadataEPvS1_+0xa4>
   17c9c: 60 01 00 34  	cbz	w0, 0x17cc8 <_ZN8ChxUtils15AndroidMetadata13MergeMetadataEPvS1_+0xb8>
   17cb0: a0 04 00 35  	cbnz	w0, 0x17d44 <_ZN8ChxUtils15AndroidMetadata13MergeMetadataEPvS1_+0x134>
   17cc0: 88 fd ff 54  	b.hi	0x17c70 <_ZN8ChxUtils15AndroidMetadata13MergeMetadataEPvS1_+0x60>
   17cc4: 1f 00 00 14  	b	0x17d40 <_ZN8ChxUtils15AndroidMetadata13MergeMetadataEPvS1_+0x130>
   17ccc: 36 02 00 b4  	cbz	x22, 0x17d10 <_ZN8ChxUtils15AndroidMetadata13MergeMetadataEPvS1_+0x100>
   17cec: c0 01 00 35  	cbnz	w0, 0x17d24 <_ZN8ChxUtils15AndroidMetadata13MergeMetadataEPvS1_+0x114>
   17cf8: 61 01 00 54  	b.ne	0x17d24 <_ZN8ChxUtils15AndroidMetadata13MergeMetadataEPvS1_+0x114>
   17d04: 01 01 00 54  	b.ne	0x17d24 <_ZN8ChxUtils15AndroidMetadata13MergeMetadataEPvS1_+0x114>
   17d0c: e9 ff ff 17  	b	0x17cb0 <_ZN8ChxUtils15AndroidMetadata13MergeMetadataEPvS1_+0xa0>
   17d1c: a0 fc ff 35  	cbnz	w0, 0x17cb0 <_ZN8ChxUtils15AndroidMetadata13MergeMetadataEPvS1_+0xa0>
   17d20: e0 ff ff 17  	b	0x17ca0 <_ZN8ChxUtils15AndroidMetadata13MergeMetadataEPvS1_+0x90>
   17d3c: dd ff ff 17  	b	0x17cb0 <_ZN8ChxUtils15AndroidMetadata13MergeMetadataEPvS1_+0xa0>
   17d50: 21 01 00 54  	b.ne	0x17d74 <_ZN8ChxUtils15AndroidMetadata13MergeMetadataEPvS1_+0x164>
0000000000017d78 <_ZN8ChxUtils15AndroidMetadata12FreeMetaDataEPv>:
   17d78: 40 00 00 b4  	cbz	x0, 0x17d80 <_ZN8ChxUtils15AndroidMetadata12FreeMetaDataEPv+0x8>
0000000000017d88 <_ZN8ChxUtils15AndroidMetadata13ResetMetadataEP15camera_metadata>:
   17dd0: a8 00 00 d0  	adrp	x8, 0x2d000 <_ZN8ChxUtils15AndroidMetadata13ResetMetadataEP15camera_metadata+0xa0>
   17de0: a8 05 30 36  	tbz	w8, #6, 0x17e94 <_ZN8ChxUtils15AndroidMetadata13ResetMetadataEP15camera_metadata+0x10c>
   17de4: a9 00 00 d0  	adrp	x9, 0x2d000 <_ZN8ChxUtils15AndroidMetadata13ResetMetadataEP15camera_metadata+0xb4>
   17de8: b9 ff ff b0  	adrp	x25, 0xc000 <_ZN8ChxUtils15AndroidMetadata13ResetMetadataEP15camera_metadata+0x34>
   17dfc: 61 02 00 54  	b.ne	0x17e48 <_ZN8ChxUtils15AndroidMetadata13ResetMetadataEP15camera_metadata+0xc0>
   17e14: a1 ff ff d0  	adrp	x1, 0xd000 <_ZN8ChxUtils15AndroidMetadata13ResetMetadataEP15camera_metadata+0x64>
   17e18: a2 ff ff b0  	adrp	x2, 0xc000 <_ZN8ChxUtils15AndroidMetadata13ResetMetadataEP15camera_metadata+0x64>
   17e1c: 85 ff ff f0  	adrp	x5, 0xa000 <_ZN8ChxUtils15AndroidMetadata13ResetMetadataEP15camera_metadata+0x60>
   17e5c: 81 ff ff d0  	adrp	x1, 0x9000 <_ZN8ChxUtils15AndroidMetadata13ResetMetadataEP15camera_metadata+0x9c>
   17e64: a0 ff ff b0  	adrp	x0, 0xc000 <_ZN8ChxUtils15AndroidMetadata13ResetMetadataEP15camera_metadata+0xb0>
   17e68: 83 ff ff f0  	adrp	x3, 0xa000 <_ZN8ChxUtils15AndroidMetadata13ResetMetadataEP15camera_metadata+0xac>
   17e6c: a5 ff ff b0  	adrp	x5, 0xc000 <_ZN8ChxUtils15AndroidMetadata13ResetMetadataEP15camera_metadata+0xb8>
   17e90: ac 50 00 94  	bl	0x2c140 <_ZN6ChiLog9LogSystemEPKcS1_S1_S1_iS1_z@plt>
0000000000017ec0 <_ZN8ChxUtils15AndroidMetadata16AllocateMetaDataEjj>:
0000000000017ed0 <_ZN8ChxUtils15AndroidMetadata22AllocateAppendMetaDataEPKvjj>:
   17ee0: 00 03 00 b4  	cbz	x0, 0x17f40 <_ZN8ChxUtils15AndroidMetadata22AllocateAppendMetaDataEPKvjj+0x70>
   17f10: 00 01 00 b4  	cbz	x0, 0x17f30 <_ZN8ChxUtils15AndroidMetadata22AllocateAppendMetaDataEPKvjj+0x60>
   17f20: 80 00 00 34  	cbz	w0, 0x17f30 <_ZN8ChxUtils15AndroidMetadata22AllocateAppendMetaDataEPKvjj+0x60>
   17f3c: 02 00 00 14  	b	0x17f44 <_ZN8ChxUtils15AndroidMetadata22AllocateAppendMetaDataEPKvjj+0x74>
0000000000017f58 <_ZN8ChxUtils15AndroidMetadata20AllocateCopyMetaDataEPKv>:
0000000000017f80 <_ZN8ChxUtils15AndroidMetadata15GetFeature1ModeEPvPj>:
   17fb0: 68 51 00 94  	bl	0x2c550 <_ZN15ExtensionModule11GetInstanceEv@plt>
   17fc4: e0 00 00 34  	cbz	w0, 0x17fe0 <_ZN8ChxUtils15AndroidMetadata15GetFeature1ModeEPvPj+0x60>
   17fcc: a9 00 00 d0  	adrp	x9, 0x2d000 <_ZN8ChxUtils15AndroidMetadata15GetFeature1ModeEPvPj+0xa4>
   17fd8: 28 01 30 37  	tbnz	w8, #6, 0x17ffc <_ZN8ChxUtils15AndroidMetadata15GetFeature1ModeEPvPj+0x7c>
   17fdc: 30 00 00 14  	b	0x1809c <_ZN8ChxUtils15AndroidMetadata15GetFeature1ModeEPvPj+0x11c>
   17fec: a9 00 00 d0  	adrp	x9, 0x2d000 <_ZN8ChxUtils15AndroidMetadata15GetFeature1ModeEPvPj+0xc4>
   17ff8: 28 05 30 36  	tbz	w8, #6, 0x1809c <_ZN8ChxUtils15AndroidMetadata15GetFeature1ModeEPvPj+0x11c>
   17ffc: aa 00 00 d0  	adrp	x10, 0x2d000 <_ZN8ChxUtils15AndroidMetadata15GetFeature1ModeEPvPj+0xd4>
   18000: b4 ff ff 90  	adrp	x20, 0xc000 <_ZN8ChxUtils15AndroidMetadata15GetFeature1ModeEPvPj+0x50>
   18014: 21 02 00 54  	b.ne	0x18058 <_ZN8ChxUtils15AndroidMetadata15GetFeature1ModeEPvPj+0xd8>
   1802c: a1 ff ff b0  	adrp	x1, 0xd000 <_ZN8ChxUtils15AndroidMetadata15GetFeature1ModeEPvPj+0x80>
   18030: a2 ff ff d0  	adrp	x2, 0xe000 <_ZN8ChxUtils15AndroidMetadata15GetFeature1ModeEPvPj+0x88>
   18034: 85 ff ff f0  	adrp	x5, 0xb000 <_ZN8ChxUtils15AndroidMetadata15GetFeature1ModeEPvPj+0x80>
   1806c: 81 ff ff b0  	adrp	x1, 0x9000 <_ZN8ChxUtils15AndroidMetadata15GetFeature1ModeEPvPj+0xb0>
   18074: a0 ff ff 90  	adrp	x0, 0xc000 <_ZN8ChxUtils15AndroidMetadata15GetFeature1ModeEPvPj+0xc4>
   18078: 83 ff ff f0  	adrp	x3, 0xb000 <_ZN8ChxUtils15AndroidMetadata15GetFeature1ModeEPvPj+0xc4>
   1807c: 85 ff ff d0  	adrp	x5, 0xa000 <_ZN8ChxUtils15AndroidMetadata15GetFeature1ModeEPvPj+0xc4>
   18098: 2a 50 00 94  	bl	0x2c140 <_ZN6ChiLog9LogSystemEPKcS1_S1_S1_iS1_z@plt>
   180a8: e1 00 00 54  	b.ne	0x180c4 <_ZN8ChxUtils15AndroidMetadata15GetFeature1ModeEPvPj+0x144>
00000000000180c8 <_ZN8ChxUtils15AndroidMetadata24GetMetadataOwnerCameraIdEPv>:
   180f0: 18 51 00 94  	bl	0x2c550 <_ZN15ExtensionModule11GetInstanceEv@plt>
   18104: 40 01 00 34  	cbz	w0, 0x1812c <_ZN8ChxUtils15AndroidMetadata24GetMetadataOwnerCameraIdEPv+0x64>
   18118: 61 01 00 54  	b.ne	0x18144 <_ZN8ChxUtils15AndroidMetadata24GetMetadataOwnerCameraIdEPv+0x7c>
   18140: e0 fe ff 54  	b.eq	0x1811c <_ZN8ChxUtils15AndroidMetadata24GetMetadataOwnerCameraIdEPv+0x54>
0000000000018148 <_ZN8ChxUtils15GetFeature2ModeEP11ChiMetadataPj>:
   18170: f8 50 00 94  	bl	0x2c550 <_ZN15ExtensionModule11GetInstanceEv@plt>
   18194: 08 01 00 b4  	cbz	x8, 0x181b4 <_ZN8ChxUtils15GetFeature2ModeEP11ChiMetadataPj+0x6c>
   181a0: a9 00 00 b0  	adrp	x9, 0x2d000 <_ZN8ChxUtils15GetFeature2ModeEP11ChiMetadataPj+0xac>
   181ac: e8 00 30 37  	tbnz	w8, #6, 0x181c8 <_ZN8ChxUtils15GetFeature2ModeEP11ChiMetadataPj+0x80>
   181b0: 2e 00 00 14  	b	0x18268 <_ZN8ChxUtils15GetFeature2ModeEP11ChiMetadataPj+0x120>
   181b8: a9 00 00 b0  	adrp	x9, 0x2d000 <_ZN8ChxUtils15GetFeature2ModeEP11ChiMetadataPj+0xc4>
   181c4: 28 05 30 36  	tbz	w8, #6, 0x18268 <_ZN8ChxUtils15GetFeature2ModeEP11ChiMetadataPj+0x120>
   181c8: aa 00 00 b0  	adrp	x10, 0x2d000 <_ZN8ChxUtils15GetFeature2ModeEP11ChiMetadataPj+0xd4>
   181cc: b4 ff ff 90  	adrp	x20, 0xc000 <_ZN8ChxUtils15GetFeature2ModeEP11ChiMetadataPj+0x54>
   181e0: 21 02 00 54  	b.ne	0x18224 <_ZN8ChxUtils15GetFeature2ModeEP11ChiMetadataPj+0xdc>
   181f8: a1 ff ff b0  	adrp	x1, 0xd000 <_ZN8ChxUtils15GetFeature2ModeEP11ChiMetadataPj+0x84>
   181fc: 82 ff ff d0  	adrp	x2, 0xa000 <_ZN8ChxUtils15GetFeature2ModeEP11ChiMetadataPj+0x7c>
   18200: a5 ff ff 90  	adrp	x5, 0xc000 <_ZN8ChxUtils15GetFeature2ModeEP11ChiMetadataPj+0x88>
   18238: 81 ff ff b0  	adrp	x1, 0x9000 <_ZN8ChxUtils15GetFeature2ModeEP11ChiMetadataPj+0xb4>
   18240: a0 ff ff 90  	adrp	x0, 0xc000 <_ZN8ChxUtils15GetFeature2ModeEP11ChiMetadataPj+0xc8>
   18244: a3 ff ff 90  	adrp	x3, 0xc000 <_ZN8ChxUtils15GetFeature2ModeEP11ChiMetadataPj+0xcc>
   18248: 85 ff ff d0  	adrp	x5, 0xa000 <_ZN8ChxUtils15GetFeature2ModeEP11ChiMetadataPj+0xc8>
   18264: b7 4f 00 94  	bl	0x2c140 <_ZN6ChiLog9LogSystemEPKcS1_S1_S1_iS1_z@plt>
   18274: e1 00 00 54  	b.ne	0x18290 <_ZN8ChxUtils15GetFeature2ModeEP11ChiMetadataPj+0x148>
0000000000018298 <_ZN8ChxUtils15GetFeature2ModeEPj>:
   182a4: 63 00 00 54  	b.lo	0x182b0 <_ZN8ChxUtils15GetFeature2ModeEPj+0x18>
00000000000182b8 <_ZN8ChxUtils28PopulateHALToChiStreamBufferEPK21camera3_stream_bufferP15ChiStreamBufferi>:
   182e4: 9b 50 00 94  	bl	0x2c550 <_ZN15ExtensionModule11GetInstanceEv@plt>
   182ec: 2d 00 00 94  	bl	0x183a0 <_ZN8ChxUtils28PopulateHALToChiStreamBufferEPK21camera3_stream_bufferP15ChiStreamBufferi+0xe8>
   18308: 92 50 00 94  	bl	0x2c550 <_ZN15ExtensionModule11GetInstanceEv@plt>
   18318: c1 00 00 54  	b.ne	0x18330 <_ZN8ChxUtils28PopulateHALToChiStreamBufferEPK21camera3_stream_bufferP15ChiStreamBufferi+0x78>
   18324: 6b 00 00 35  	cbnz	w11, 0x18330 <_ZN8ChxUtils28PopulateHALToChiStreamBufferEPK21camera3_stream_bufferP15ChiStreamBufferi+0x78>
   1832c: cc 02 00 34  	cbz	w12, 0x18384 <_ZN8ChxUtils28PopulateHALToChiStreamBufferEPK21camera3_stream_bufferP15ChiStreamBufferi+0xcc>
   1834c: 80 00 00 54  	b.eq	0x1835c <_ZN8ChxUtils28PopulateHALToChiStreamBufferEPK21camera3_stream_bufferP15ChiStreamBufferi+0xa4>
   18364: 80 00 00 54  	b.eq	0x18374 <_ZN8ChxUtils28PopulateHALToChiStreamBufferEPK21camera3_stream_bufferP15ChiStreamBufferi+0xbc>
   18384: 73 50 00 94  	bl	0x2c550 <_ZN15ExtensionModule11GetInstanceEv@plt>
   18390: bc 50 00 94  	bl	0x2c680 <_ZN15ExtensionModule18GetBufferAllocatorEP9ChiStreamPPv@plt>
   1839c: e7 ff ff 17  	b	0x18338 <_ZN8ChxUtils28PopulateHALToChiStreamBufferEPK21camera3_stream_bufferP15ChiStreamBufferi+0x80>
   183bc: 58 0b 00 b4  	cbz	x24, 0x18524 <_ZN8ChxUtils28PopulateHALToChiStreamBufferEPK21camera3_stream_bufferP15ChiStreamBufferi+0x26c>
   183d4: 03 00 00 14  	b	0x183e0 <_ZN8ChxUtils28PopulateHALToChiStreamBufferEPK21camera3_stream_bufferP15ChiStreamBufferi+0x128>
   183dc: 48 0a 00 b4  	cbz	x8, 0x18524 <_ZN8ChxUtils28PopulateHALToChiStreamBufferEPK21camera3_stream_bufferP15ChiStreamBufferi+0x26c>
   183e8: 88 ff ff 54  	b.hi	0x183d8 <_ZN8ChxUtils28PopulateHALToChiStreamBufferEPK21camera3_stream_bufferP15ChiStreamBufferi+0x120>
   183ec: 62 00 00 54  	b.hs	0x183f8 <_ZN8ChxUtils28PopulateHALToChiStreamBufferEPK21camera3_stream_bufferP15ChiStreamBufferi+0x140>
   183f4: f9 ff ff 17  	b	0x183d8 <_ZN8ChxUtils28PopulateHALToChiStreamBufferEPK21camera3_stream_bufferP15ChiStreamBufferi+0x120>
   18404: 05 00 00 14  	b	0x18418 <_ZN8ChxUtils28PopulateHALToChiStreamBufferEPK21camera3_stream_bufferP15ChiStreamBufferi+0x160>
   18410: 29 01 00 b4  	cbz	x9, 0x18434 <_ZN8ChxUtils28PopulateHALToChiStreamBufferEPK21camera3_stream_bufferP15ChiStreamBufferi+0x17c>
   18420: 48 ff ff 54  	b.hi	0x18408 <_ZN8ChxUtils28PopulateHALToChiStreamBufferEPK21camera3_stream_bufferP15ChiStreamBufferi+0x150>
   18424: 82 00 00 54  	b.hs	0x18434 <_ZN8ChxUtils28PopulateHALToChiStreamBufferEPK21camera3_stream_bufferP15ChiStreamBufferi+0x17c>
   18430: 29 ff ff b5  	cbnz	x9, 0x18414 <_ZN8ChxUtils28PopulateHALToChiStreamBufferEPK21camera3_stream_bufferP15ChiStreamBufferi+0x15c>
   18438: 75 02 00 b4  	cbz	x21, 0x18484 <_ZN8ChxUtils28PopulateHALToChiStreamBufferEPK21camera3_stream_bufferP15ChiStreamBufferi+0x1cc>
   18440: 2e 07 00 b4  	cbz	x14, 0x18524 <_ZN8ChxUtils28PopulateHALToChiStreamBufferEPK21camera3_stream_bufferP15ChiStreamBufferi+0x26c>
   18448: b8 03 00 b4  	cbz	x24, 0x184bc <_ZN8ChxUtils28PopulateHALToChiStreamBufferEPK21camera3_stream_bufferP15ChiStreamBufferi+0x204>
   18454: c9 00 00 54  	b.ls	0x1846c <_ZN8ChxUtils28PopulateHALToChiStreamBufferEPK21camera3_stream_bufferP15ChiStreamBufferi+0x1b4>
   1845c: 28 07 00 b4  	cbz	x8, 0x18540 <_ZN8ChxUtils28PopulateHALToChiStreamBufferEPK21camera3_stream_bufferP15ChiStreamBufferi+0x288>
   18468: f9 ff ff 17  	b	0x1844c <_ZN8ChxUtils28PopulateHALToChiStreamBufferEPK21camera3_stream_bufferP15ChiStreamBufferi+0x194>
   1846c: c2 02 00 54  	b.hs	0x184c4 <_ZN8ChxUtils28PopulateHALToChiStreamBufferEPK21camera3_stream_bufferP15ChiStreamBufferi+0x20c>
   18478: 68 02 00 b4  	cbz	x8, 0x184c4 <_ZN8ChxUtils28PopulateHALToChiStreamBufferEPK21camera3_stream_bufferP15ChiStreamBufferi+0x20c>
   18480: f3 ff ff 17  	b	0x1844c <_ZN8ChxUtils28PopulateHALToChiStreamBufferEPK21camera3_stream_bufferP15ChiStreamBufferi+0x194>
   184ac: ca 02 00 b4  	cbz	x10, 0x18504 <_ZN8ChxUtils28PopulateHALToChiStreamBufferEPK21camera3_stream_bufferP15ChiStreamBufferi+0x24c>
   184b8: 14 00 00 14  	b	0x18508 <_ZN8ChxUtils28PopulateHALToChiStreamBufferEPK21camera3_stream_bufferP15ChiStreamBufferi+0x250>
   184c8: 15 05 00 b5  	cbnz	x21, 0x18568 <_ZN8ChxUtils28PopulateHALToChiStreamBufferEPK21camera3_stream_bufferP15ChiStreamBufferi+0x2b0>
   184f4: eb 02 00 b4  	cbz	x11, 0x18550 <_ZN8ChxUtils28PopulateHALToChiStreamBufferEPK21camera3_stream_bufferP15ChiStreamBufferi+0x298>
   18500: 15 00 00 14  	b	0x18554 <_ZN8ChxUtils28PopulateHALToChiStreamBufferEPK21camera3_stream_bufferP15ChiStreamBufferi+0x29c>
   1850c: 7f 1d 00 94  	bl	0x1fb08 <_ZN8ChxUtils11GetTotalRamEv+0x480>
   18520: 2e f9 ff b5  	cbnz	x14, 0x18444 <_ZN8ChxUtils28PopulateHALToChiStreamBufferEPK21camera3_stream_bufferP15ChiStreamBufferi+0x18c>
   18548: 15 01 00 b5  	cbnz	x21, 0x18568 <_ZN8ChxUtils28PopulateHALToChiStreamBufferEPK21camera3_stream_bufferP15ChiStreamBufferi+0x2b0>
   1854c: e0 ff ff 17  	b	0x184cc <_ZN8ChxUtils28PopulateHALToChiStreamBufferEPK21camera3_stream_bufferP15ChiStreamBufferi+0x214>
   18558: 6c 1d 00 94  	bl	0x1fb08 <_ZN8ChxUtils11GetTotalRamEv+0x480>
   18570: ee ff ff 17  	b	0x18528 <_ZN8ChxUtils28PopulateHALToChiStreamBufferEPK21camera3_stream_bufferP15ChiStreamBufferi+0x270>
0000000000018578 <_ZN8ChxUtils28PopulateChiToHALStreamBufferEPK15ChiStreamBufferP21camera3_stream_bufferi>:
   18594: c1 04 00 54  	b.ne	0x1862c <_ZN8ChxUtils28PopulateChiToHALStreamBufferEPK15ChiStreamBufferP21camera3_stream_bufferi+0xb4>
   185a4: c3 00 00 54  	b.lo	0x185bc <_ZN8ChxUtils28PopulateChiToHALStreamBufferEPK15ChiStreamBufferP21camera3_stream_bufferi+0x44>
   185ac: e9 4f 00 94  	bl	0x2c550 <_ZN15ExtensionModule11GetInstanceEv@plt>
   185b4: 7b ff ff 97  	bl	0x183a0 <_ZN8ChxUtils28PopulateHALToChiStreamBufferEPK21camera3_stream_bufferP15ChiStreamBufferi+0xe8>
   185b8: 60 0a 00 34  	cbz	w0, 0x18704 <_ZN8ChxUtils28PopulateChiToHALStreamBufferEPK15ChiStreamBufferP21camera3_stream_bufferi+0x18c>
   185e0: 01 01 00 54  	b.ne	0x18600 <_ZN8ChxUtils28PopulateChiToHALStreamBufferEPK15ChiStreamBufferP21camera3_stream_bufferi+0x88>
   185ec: a1 00 00 54  	b.ne	0x18600 <_ZN8ChxUtils28PopulateChiToHALStreamBufferEPK15ChiStreamBufferP21camera3_stream_bufferi+0x88>
   185f8: 40 00 00 54  	b.eq	0x18600 <_ZN8ChxUtils28PopulateChiToHALStreamBufferEPK15ChiStreamBufferP21camera3_stream_bufferi+0x88>
   18608: a1 01 00 54  	b.ne	0x1863c <_ZN8ChxUtils28PopulateChiToHALStreamBufferEPK15ChiStreamBufferP21camera3_stream_bufferi+0xc4>
   18614: 41 01 00 54  	b.ne	0x1863c <_ZN8ChxUtils28PopulateChiToHALStreamBufferEPK15ChiStreamBufferP21camera3_stream_bufferi+0xc4>
   18620: e0 00 00 54  	b.eq	0x1863c <_ZN8ChxUtils28PopulateChiToHALStreamBufferEPK15ChiStreamBufferP21camera3_stream_bufferi+0xc4>
   18628: 05 00 00 14  	b	0x1863c <_ZN8ChxUtils28PopulateChiToHALStreamBufferEPK15ChiStreamBufferP21camera3_stream_bufferi+0xc4>
   1862c: a8 00 00 b0  	adrp	x8, 0x2d000 <_ZN8ChxUtils28PopulateChiToHALStreamBufferEPK15ChiStreamBufferP21camera3_stream_bufferi+0x108>
   18638: a8 00 00 37  	tbnz	w8, #0, 0x1864c <_ZN8ChxUtils28PopulateChiToHALStreamBufferEPK15ChiStreamBufferP21camera3_stream_bufferi+0xd4>
   1864c: a9 00 00 b0  	adrp	x9, 0x2d000 <_ZN8ChxUtils28PopulateChiToHALStreamBufferEPK15ChiStreamBufferP21camera3_stream_bufferi+0x128>
   18650: b4 ff ff 90  	adrp	x20, 0xc000 <_ZN8ChxUtils28PopulateChiToHALStreamBufferEPK15ChiStreamBufferP21camera3_stream_bufferi+0xa8>
   18664: 41 02 00 54  	b.ne	0x186ac <_ZN8ChxUtils28PopulateChiToHALStreamBufferEPK15ChiStreamBufferP21camera3_stream_bufferi+0x134>
   18680: a1 ff ff b0  	adrp	x1, 0xd000 <_ZN8ChxUtils28PopulateChiToHALStreamBufferEPK15ChiStreamBufferP21camera3_stream_bufferi+0xdc>
   18684: a2 ff ff b0  	adrp	x2, 0xd000 <_ZN8ChxUtils28PopulateChiToHALStreamBufferEPK15ChiStreamBufferP21camera3_stream_bufferi+0xe0>
   18688: a5 ff ff 90  	adrp	x5, 0xc000 <_ZN8ChxUtils28PopulateChiToHALStreamBufferEPK15ChiStreamBufferP21camera3_stream_bufferi+0xe0>
   186d0: 88 ff ff b0  	adrp	x8, 0x9000 <_ZN8ChxUtils28PopulateChiToHALStreamBufferEPK15ChiStreamBufferP21camera3_stream_bufferi+0x11c>
   186d4: a1 ff ff b0  	adrp	x1, 0xd000 <_ZN8ChxUtils28PopulateChiToHALStreamBufferEPK15ChiStreamBufferP21camera3_stream_bufferi+0x130>
   186dc: a3 ff ff 90  	adrp	x3, 0xc000 <_ZN8ChxUtils28PopulateChiToHALStreamBufferEPK15ChiStreamBufferP21camera3_stream_bufferi+0x134>
   186e0: 85 ff ff d0  	adrp	x5, 0xa000 <_ZN8ChxUtils28PopulateChiToHALStreamBufferEPK15ChiStreamBufferP21camera3_stream_bufferi+0x130>
   18700: 90 4e 00 14  	b	0x2c140 <_ZN6ChiLog9LogSystemEPKcS1_S1_S1_iS1_z@plt>
   18704: aa 00 00 b0  	adrp	x10, 0x2d000 <_ZN8ChxUtils28PopulateChiToHALStreamBufferEPK15ChiStreamBufferP21camera3_stream_bufferi+0x1e0>
   18710: 69 f9 07 36  	tbz	w9, #0, 0x1863c <_ZN8ChxUtils28PopulateChiToHALStreamBufferEPK15ChiStreamBufferP21camera3_stream_bufferi+0xc4>
   18714: ab 00 00 b0  	adrp	x11, 0x2d000 <_ZN8ChxUtils28PopulateChiToHALStreamBufferEPK15ChiStreamBufferP21camera3_stream_bufferi+0x1f0>
   18724: 61 02 00 54  	b.ne	0x18770 <_ZN8ChxUtils28PopulateChiToHALStreamBufferEPK15ChiStreamBufferP21camera3_stream_bufferi+0x1f8>
   18728: b4 ff ff 90  	adrp	x20, 0xc000 <_ZN8ChxUtils28PopulateChiToHALStreamBufferEPK15ChiStreamBufferP21camera3_stream_bufferi+0x180>
   18748: a1 ff ff b0  	adrp	x1, 0xd000 <_ZN8ChxUtils28PopulateChiToHALStreamBufferEPK15ChiStreamBufferP21camera3_stream_bufferi+0x1a4>
   1874c: a2 ff ff 90  	adrp	x2, 0xc000 <_ZN8ChxUtils28PopulateChiToHALStreamBufferEPK15ChiStreamBufferP21camera3_stream_bufferi+0x1a4>
   18750: a5 ff ff 90  	adrp	x5, 0xc000 <_ZN8ChxUtils28PopulateChiToHALStreamBufferEPK15ChiStreamBufferP21camera3_stream_bufferi+0x1a8>
   18770: b4 ff ff 90  	adrp	x20, 0xc000 <_ZN8ChxUtils28PopulateChiToHALStreamBufferEPK15ChiStreamBufferP21camera3_stream_bufferi+0x1c8>
   1879c: 89 ff ff b0  	adrp	x9, 0x9000 <_ZN8ChxUtils28PopulateChiToHALStreamBufferEPK15ChiStreamBufferP21camera3_stream_bufferi+0x1e8>
   187a0: a1 ff ff b0  	adrp	x1, 0xd000 <_ZN8ChxUtils28PopulateChiToHALStreamBufferEPK15ChiStreamBufferP21camera3_stream_bufferi+0x1fc>
   187a8: a3 ff ff 90  	adrp	x3, 0xc000 <_ZN8ChxUtils28PopulateChiToHALStreamBufferEPK15ChiStreamBufferP21camera3_stream_bufferi+0x200>
   187ac: 85 ff ff b0  	adrp	x5, 0x9000 <_ZN8ChxUtils28PopulateChiToHALStreamBufferEPK15ChiStreamBufferP21camera3_stream_bufferi+0x1f8>
   187c8: 5e 4e 00 14  	b	0x2c140 <_ZN6ChiLog9LogSystemEPKcS1_S1_S1_iS1_z@plt>
00000000000187d0 <_ZN8ChxUtils29DeepCopyCamera3CaptureRequestEPK23camera3_capture_requestPS0_>:
   187ec: a9 03 00 34  	cbz	w9, 0x18860 <_ZN8ChxUtils29DeepCopyCamera3CaptureRequestEPK23camera3_capture_requestPS0_+0x90>
   187fc: 83 01 00 54  	b.lo	0x1882c <_ZN8ChxUtils29DeepCopyCamera3CaptureRequestEPK23camera3_capture_requestPS0_+0x5c>
   18814: 89 02 00 54  	b.ls	0x18864 <_ZN8ChxUtils29DeepCopyCamera3CaptureRequestEPK23camera3_capture_requestPS0_+0x94>
   18828: e9 01 00 54  	b.ls	0x18864 <_ZN8ChxUtils29DeepCopyCamera3CaptureRequestEPK23camera3_capture_requestPS0_+0x94>
   1885c: c1 fe ff 54  	b.ne	0x18834 <_ZN8ChxUtils29DeepCopyCamera3CaptureRequestEPK23camera3_capture_requestPS0_+0x64>
   188e8: 81 fc ff 54  	b.ne	0x18878 <_ZN8ChxUtils29DeepCopyCamera3CaptureRequestEPK23camera3_capture_requestPS0_+0xa8>
   188ec: ac fb ff b4  	cbz	x12, 0x18860 <_ZN8ChxUtils29DeepCopyCamera3CaptureRequestEPK23camera3_capture_requestPS0_+0x90>
   188f4: 60 02 00 54  	b.eq	0x18940 <_ZN8ChxUtils29DeepCopyCamera3CaptureRequestEPK23camera3_capture_requestPS0_+0x170>
   1893c: 2a f9 ff 54  	b.ge	0x18860 <_ZN8ChxUtils29DeepCopyCamera3CaptureRequestEPK23camera3_capture_requestPS0_+0x90>
0000000000018968 <_ZN8ChxUtils14GetUsecaseModeEP23camera3_capture_request>:
   18984: f3 4e 00 94  	bl	0x2c550 <_ZN15ExtensionModule11GetInstanceEv@plt>
   18990: f0 4e 00 94  	bl	0x2c550 <_ZN15ExtensionModule11GetInstanceEv@plt>
   189a0: e9 05 00 34  	cbz	w9, 0x18a5c <_ZN8ChxUtils14GetUsecaseModeEP23camera3_capture_request+0xf4>
   189b8: 0c 00 00 14  	b	0x189e8 <_ZN8ChxUtils14GetUsecaseModeEP23camera3_capture_request+0x80>
   189c8: 32 4f 00 94  	bl	0x2c690 <_ZN15UsecaseSelector19IsYUVSnapshotStreamEPK14camera3_stream@plt>
   189e4: 22 03 00 54  	b.hs	0x18a48 <_ZN8ChxUtils14GetUsecaseModeEP23camera3_capture_request+0xe0>
   189f0: 2c 4f 00 94  	bl	0x2c6a0 <_ZN15UsecaseSelector13IsVideoStreamEPK14camera3_stream@plt>
   189f4: 40 fe ff 35  	cbnz	w0, 0x189bc <_ZN8ChxUtils14GetUsecaseModeEP23camera3_capture_request+0x54>
   18a00: 24 4f 00 94  	bl	0x2c690 <_ZN15UsecaseSelector19IsYUVSnapshotStreamEPK14camera3_stream@plt>
   18a04: 20 01 00 35  	cbnz	w0, 0x18a28 <_ZN8ChxUtils14GetUsecaseModeEP23camera3_capture_request+0xc0>
   18a10: 28 4f 00 94  	bl	0x2c6b0 <_ZN15UsecaseSelector20IsJPEGSnapshotStreamEPK14camera3_stream@plt>
   18a14: a0 00 00 35  	cbnz	w0, 0x18a28 <_ZN8ChxUtils14GetUsecaseModeEP23camera3_capture_request+0xc0>
   18a20: 28 4f 00 94  	bl	0x2c6c0 <_ZN15UsecaseSelector20IsHeicSnapshotStreamEPK14camera3_stream@plt>
   18a24: 60 00 00 34  	cbz	w0, 0x18a30 <_ZN8ChxUtils14GetUsecaseModeEP23camera3_capture_request+0xc8>
   18a2c: e5 ff ff 17  	b	0x189c0 <_ZN8ChxUtils14GetUsecaseModeEP23camera3_capture_request+0x58>
   18a38: 26 4f 00 94  	bl	0x2c6d0 <_ZN15UsecaseSelector15IsPreviewStreamEPK14camera3_stream@plt>
   18a44: df ff ff 17  	b	0x189c0 <_ZN8ChxUtils14GetUsecaseModeEP23camera3_capture_request+0x58>
   18a50: e1 00 00 54  	b.ne	0x18a6c <_ZN8ChxUtils14GetUsecaseModeEP23camera3_capture_request+0x104>
   18a58: 0b 00 00 14  	b	0x18a84 <_ZN8ChxUtils14GetUsecaseModeEP23camera3_capture_request+0x11c>
   18a68: 05 00 00 14  	b	0x18a7c <_ZN8ChxUtils14GetUsecaseModeEP23camera3_capture_request+0x114>
   18a78: 68 00 00 35  	cbnz	w8, 0x18a84 <_ZN8ChxUtils14GetUsecaseModeEP23camera3_capture_request+0x11c>
   18a84: af 00 00 b0  	adrp	x15, 0x2d000 <_ZN8ChxUtils14GetUsecaseModeEP23camera3_capture_request+0x170>
   18a90: 6b 05 28 36  	tbz	w11, #5, 0x18b3c <_ZN8ChxUtils14GetUsecaseModeEP23camera3_capture_request+0x1d4>
   18a94: b0 00 00 b0  	adrp	x16, 0x2d000 <_ZN8ChxUtils14GetUsecaseModeEP23camera3_capture_request+0x180>
   18a98: b5 ff ff 90  	adrp	x21, 0xc000 <_ZN8ChxUtils14GetUsecaseModeEP23camera3_capture_request+0x100>
   18aac: 41 02 00 54  	b.ne	0x18af4 <_ZN8ChxUtils14GetUsecaseModeEP23camera3_capture_request+0x18c>
   18ac4: a1 ff ff b0  	adrp	x1, 0xd000 <_ZN8ChxUtils14GetUsecaseModeEP23camera3_capture_request+0x130>
   18ac8: a2 ff ff d0  	adrp	x2, 0xe000 <_ZN8ChxUtils14GetUsecaseModeEP23camera3_capture_request+0x138>
   18acc: a5 ff ff 90  	adrp	x5, 0xc000 <_ZN8ChxUtils14GetUsecaseModeEP23camera3_capture_request+0x134>
   18b08: a1 ff ff 90  	adrp	x1, 0xc000 <_ZN8ChxUtils14GetUsecaseModeEP23camera3_capture_request+0x170>
   18b10: a0 ff ff b0  	adrp	x0, 0xd000 <_ZN8ChxUtils14GetUsecaseModeEP23camera3_capture_request+0x17c>
   18b14: a3 ff ff 90  	adrp	x3, 0xc000 <_ZN8ChxUtils14GetUsecaseModeEP23camera3_capture_request+0x17c>
   18b18: 85 ff ff b0  	adrp	x5, 0x9000 <_ZN8ChxUtils14GetUsecaseModeEP23camera3_capture_request+0x174>
   18b38: 82 4d 00 94  	bl	0x2c140 <_ZN6ChiLog9LogSystemEPKcS1_S1_S1_iS1_z@plt>
   18b4c: 81 4e 00 94  	bl	0x2c550 <_ZN15ExtensionModule11GetInstanceEv@plt>
0000000000018b78 <_ZN8ChxUtils9SkipFrameEP21camera3_stream_buffer>:
0000000000018b88 <_ZN8ChxUtils15AndroidMetadata12GetSceneModeEPvPj>:
   18bc8: 60 01 00 35  	cbnz	w0, 0x18bf4 <_ZN8ChxUtils15AndroidMetadata12GetSceneModeEPvPj+0x6c>
   18bd8: e1 00 00 54  	b.ne	0x18bf4 <_ZN8ChxUtils15AndroidMetadata12GetSceneModeEPvPj+0x6c>
   18bf0: e0 01 00 34  	cbz	w0, 0x18c2c <_ZN8ChxUtils15AndroidMetadata12GetSceneModeEPvPj+0xa4>
   18c04: 21 02 00 54  	b.ne	0x18c48 <_ZN8ChxUtils15AndroidMetadata12GetSceneModeEPvPj+0xc0>
   18c08: aa ff ff d0  	adrp	x10, 0xe000 <_ZN8ChxUtils15AndroidMetadata12GetSceneModeEPvPj+0x58>
   18c44: 20 fe ff 54  	b.eq	0x18c08 <_ZN8ChxUtils15AndroidMetadata12GetSceneModeEPvPj+0x80>
0000000000018c50 <_ZN8ChxUtils17GetVendorTagValueEP11ChiMetadata9VendorTagPPv>:
   18c80: 34 4e 00 94  	bl	0x2c550 <_ZN15ExtensionModule11GetInstanceEv@plt>
   18cb4: aa 00 00 b5  	cbnz	x10, 0x18cc8 <_ZN8ChxUtils17GetVendorTagValueEP11ChiMetadata9VendorTagPPv+0x78>
   18cb8: a9 00 00 b0  	adrp	x9, 0x2d000 <_ZN8ChxUtils17GetVendorTagValueEP11ChiMetadata9VendorTagPPv+0xbc>
   18cc4: 49 01 30 37  	tbnz	w9, #6, 0x18cec <_ZN8ChxUtils17GetVendorTagValueEP11ChiMetadata9VendorTagPPv+0x9c>
   18cd4: 41 06 00 54  	b.ne	0x18d9c <_ZN8ChxUtils17GetVendorTagValueEP11ChiMetadata9VendorTagPPv+0x14c>
   18cec: aa 00 00 b0  	adrp	x10, 0x2d000 <_ZN8ChxUtils17GetVendorTagValueEP11ChiMetadata9VendorTagPPv+0xf0>
   18cf0: b4 ff ff 90  	adrp	x20, 0xc000 <_ZN8ChxUtils17GetVendorTagValueEP11ChiMetadata9VendorTagPPv+0x70>
   18d04: 21 02 00 54  	b.ne	0x18d48 <_ZN8ChxUtils17GetVendorTagValueEP11ChiMetadata9VendorTagPPv+0xf8>
   18d1c: a1 ff ff b0  	adrp	x1, 0xd000 <_ZN8ChxUtils17GetVendorTagValueEP11ChiMetadata9VendorTagPPv+0xa0>
   18d20: a2 ff ff b0  	adrp	x2, 0xd000 <_ZN8ChxUtils17GetVendorTagValueEP11ChiMetadata9VendorTagPPv+0xa4>
   18d24: 85 ff ff f0  	adrp	x5, 0xb000 <_ZN8ChxUtils17GetVendorTagValueEP11ChiMetadata9VendorTagPPv+0xa0>
   18d5c: 81 ff ff b0  	adrp	x1, 0x9000 <_ZN8ChxUtils17GetVendorTagValueEP11ChiMetadata9VendorTagPPv+0xd0>
   18d64: a0 ff ff 90  	adrp	x0, 0xc000 <_ZN8ChxUtils17GetVendorTagValueEP11ChiMetadata9VendorTagPPv+0xe4>
   18d68: 83 ff ff f0  	adrp	x3, 0xb000 <_ZN8ChxUtils17GetVendorTagValueEP11ChiMetadata9VendorTagPPv+0xe4>
   18d6c: 85 ff ff d0  	adrp	x5, 0xa000 <_ZN8ChxUtils17GetVendorTagValueEP11ChiMetadata9VendorTagPPv+0xe4>
   18d88: ee 4c 00 94  	bl	0x2c140 <_ZN6ChiLog9LogSystemEPKcS1_S1_S1_iS1_z@plt>
   18d98: 00 fa ff 54  	b.eq	0x18cd8 <_ZN8ChxUtils17GetVendorTagValueEP11ChiMetadata9VendorTagPPv+0x88>
0000000000018da0 <_ZN8ChxUtils15AndroidMetadata13GetEffectModeEPvPj>:
   18dd8: c0 01 00 34  	cbz	w0, 0x18e10 <_ZN8ChxUtils15AndroidMetadata13GetEffectModeEPvPj+0x70>
   18dec: 01 02 00 54  	b.ne	0x18e2c <_ZN8ChxUtils15AndroidMetadata13GetEffectModeEPvPj+0x8c>
   18df0: a9 ff ff d0  	adrp	x9, 0xe000 <_ZN8ChxUtils15AndroidMetadata13GetEffectModeEPvPj+0x28>
   18e28: 40 fe ff 54  	b.eq	0x18df0 <_ZN8ChxUtils15AndroidMetadata13GetEffectModeEPvPj+0x50>
0000000000018e30 <_ZN8ChxUtils15NativeFenceWaitEij>:
   18e50: 80 07 00 34  	cbz	w0, 0x18f40 <_ZN8ChxUtils15NativeFenceWaitEij+0x110>
   18e54: a8 00 00 b0  	adrp	x8, 0x2d000 <_ZN8ChxUtils15NativeFenceWaitEij+0x78>
   18e60: e8 06 00 36  	tbz	w8, #0, 0x18f3c <_ZN8ChxUtils15NativeFenceWaitEij+0x10c>
   18e64: a9 00 00 b0  	adrp	x9, 0x2d000 <_ZN8ChxUtils15NativeFenceWaitEij+0x88>
   18e68: b5 ff ff 90  	adrp	x21, 0xc000 <_ZN8ChxUtils15NativeFenceWaitEij+0x8>
   18e7c: 01 03 00 54  	b.ne	0x18edc <_ZN8ChxUtils15NativeFenceWaitEij+0xac>
   18ea4: a1 ff ff b0  	adrp	x1, 0xd000 <_ZN8ChxUtils15NativeFenceWaitEij+0x48>
   18ea8: 82 ff ff f0  	adrp	x2, 0xb000 <_ZN8ChxUtils15NativeFenceWaitEij+0x44>
   18eac: 85 ff ff d0  	adrp	x5, 0xa000 <_ZN8ChxUtils15NativeFenceWaitEij+0x44>
   18f04: 80 ff ff b0  	adrp	x0, 0x9000 <_ZN8ChxUtils15NativeFenceWaitEij+0x98>
   18f08: a1 ff ff b0  	adrp	x1, 0xd000 <_ZN8ChxUtils15NativeFenceWaitEij+0xac>
   18f0c: 83 ff ff d0  	adrp	x3, 0xa000 <_ZN8ChxUtils15NativeFenceWaitEij+0xa4>
   18f10: 85 ff ff f0  	adrp	x5, 0xb000 <_ZN8ChxUtils15NativeFenceWaitEij+0xac>
   18f38: 82 4c 00 94  	bl	0x2c140 <_ZN6ChiLog9LogSystemEPKcS1_S1_S1_iS1_z@plt>
0000000000018f58 <_ZN8ChxUtils5CloseEi>:
   18f5c: 00 01 00 54  	b.eq	0x18f7c <_ZN8ChxUtils5CloseEi+0x24>
0000000000018f88 <_ZN8ChxUtils9ReadSocIDEv>:
   18fa0: b3 ff ff 90  	adrp	x19, 0xc000 <_ZN8ChxUtils5CloseEi+0x18>
   18fbc: a9 ff ff b0  	adrp	x9, 0xd000 <_ZN8ChxUtils9ReadSocIDEv+0x8>
   18fd8: a0 01 00 54  	b.eq	0x1900c <_ZN8ChxUtils9ReadSocIDEv+0x84>
   19008: 03 00 00 14  	b	0x19014 <_ZN8ChxUtils9ReadSocIDEv+0x8c>
   19024: e1 00 00 54  	b.ne	0x19040 <_ZN8ChxUtils9ReadSocIDEv+0xb8>
0000000000019048 <_ZN8ChxUtils10GetDDRRankEv>:
   19060: 80 ff ff 90  	adrp	x0, 0x9000 <_ZN8ChxUtils9ReadSocIDEv+0x98>
   1907c: 80 01 00 54  	b.eq	0x190ac <_ZN8ChxUtils10GetDDRRankEv+0x64>
   19098: 00 01 00 54  	b.eq	0x190b8 <_ZN8ChxUtils10GetDDRRankEv+0x70>
   190a8: 30 00 00 14  	b	0x19168 <_ZN8ChxUtils10GetDDRRankEv+0x120>
   190b4: 2d 00 00 14  	b	0x19168 <_ZN8ChxUtils10GetDDRRankEv+0x120>
   190b8: a8 00 00 90  	adrp	x8, 0x2d000 <_ZN8ChxUtils10GetDDRRankEv+0xc0>
   190c4: e8 04 00 36  	tbz	w8, #0, 0x19160 <_ZN8ChxUtils10GetDDRRankEv+0x118>
   190c8: a9 00 00 90  	adrp	x9, 0x2d000 <_ZN8ChxUtils10GetDDRRankEv+0xd0>
   190cc: 94 ff ff f0  	adrp	x20, 0xc000 <_ZN8ChxUtils10GetDDRRankEv+0x50>
   190e0: 01 02 00 54  	b.ne	0x19120 <_ZN8ChxUtils10GetDDRRankEv+0xd8>
   190f8: a1 ff ff 90  	adrp	x1, 0xd000 <_ZN8ChxUtils10GetDDRRankEv+0x80>
   190fc: a2 ff ff 90  	adrp	x2, 0xd000 <_ZN8ChxUtils10GetDDRRankEv+0x84>
   19100: a5 ff ff 90  	adrp	x5, 0xd000 <_ZN8ChxUtils10GetDDRRankEv+0x88>
   19134: a1 ff ff 90  	adrp	x1, 0xd000 <_ZN8ChxUtils10GetDDRRankEv+0xbc>
   1913c: 80 ff ff 90  	adrp	x0, 0x9000 <_ZN8ChxUtils10GetDDRRankEv+0xb4>
   19140: a3 ff ff 90  	adrp	x3, 0xd000 <_ZN8ChxUtils10GetDDRRankEv+0xc8>
   19144: a5 ff ff 90  	adrp	x5, 0xd000 <_ZN8ChxUtils10GetDDRRankEv+0xcc>
   1915c: f9 4b 00 94  	bl	0x2c140 <_ZN6ChiLog9LogSystemEPKcS1_S1_S1_iS1_z@plt>
   19178: e1 00 00 54  	b.ne	0x19194 <_ZN8ChxUtils10GetDDRRankEv+0x14c>
0000000000019198 <_ZN8ChxUtils10GetDDRTypeEv>:
   191b0: 80 ff ff d0  	adrp	x0, 0xb000 <_ZN8ChxUtils10GetDDRRankEv+0x130>
   191cc: 80 06 00 54  	b.eq	0x1929c <_ZN8ChxUtils10GetDDRTypeEv+0x104>
   191e4: 20 06 00 b4  	cbz	x0, 0x192a8 <_ZN8ChxUtils10GetDDRTypeEv+0x110>
   191e8: a8 00 00 90  	adrp	x8, 0x2d000 <_ZN8ChxUtils10GetDDRTypeEv+0xa0>
   191f4: e8 04 00 36  	tbz	w8, #0, 0x19290 <_ZN8ChxUtils10GetDDRTypeEv+0xf8>
   191f8: a9 00 00 90  	adrp	x9, 0x2d000 <_ZN8ChxUtils10GetDDRTypeEv+0xb0>
   191fc: 94 ff ff f0  	adrp	x20, 0xc000 <_ZN8ChxUtils10GetDDRTypeEv+0x30>
   19210: 01 02 00 54  	b.ne	0x19250 <_ZN8ChxUtils10GetDDRTypeEv+0xb8>
   19228: a1 ff ff 90  	adrp	x1, 0xd000 <_ZN8ChxUtils10GetDDRTypeEv+0x60>
   1922c: a2 ff ff 90  	adrp	x2, 0xd000 <_ZN8ChxUtils10GetDDRTypeEv+0x64>
   19230: 85 ff ff b0  	adrp	x5, 0xa000 <_ZN8ChxUtils10GetDDRTypeEv+0x5c>
   19264: a1 ff ff 90  	adrp	x1, 0xd000 <_ZN8ChxUtils10GetDDRTypeEv+0x9c>
   1926c: 80 ff ff 90  	adrp	x0, 0x9000 <_ZN8ChxUtils10GetDDRTypeEv+0x94>
   19270: 83 ff ff b0  	adrp	x3, 0xa000 <_ZN8ChxUtils10GetDDRTypeEv+0x9c>
   19274: a5 ff ff 90  	adrp	x5, 0xd000 <_ZN8ChxUtils10GetDDRTypeEv+0xac>
   1928c: ad 4b 00 94  	bl	0x2c140 <_ZN6ChiLog9LogSystemEPKcS1_S1_S1_iS1_z@plt>
   19298: 07 00 00 14  	b	0x192b4 <_ZN8ChxUtils10GetDDRTypeEv+0x11c>
   192a4: 04 00 00 14  	b	0x192b4 <_ZN8ChxUtils10GetDDRTypeEv+0x11c>
   192c4: e1 00 00 54  	b.ne	0x192e0 <_ZN8ChxUtils10GetDDRTypeEv+0x148>
00000000000192e8 <_ZN8ChxUtils11Is32bitModeEv>:
   19350: 60 01 00 34  	cbz	w0, 0x1937c <_ZN8ChxUtils11Is32bitModeEv+0x94>
   19364: 21 0a 00 54  	b.ne	0x194a8 <_ZN8ChxUtils11Is32bitModeEv+0x1c0>
   1937c: a8 00 00 90  	adrp	x8, 0x2d000 <_ZN8ChxUtils11Is32bitModeEv+0xe4>
   19388: e8 06 28 36  	tbz	w8, #5, 0x19464 <_ZN8ChxUtils11Is32bitModeEv+0x17c>
   1938c: a9 00 00 90  	adrp	x9, 0x2d000 <_ZN8ChxUtils11Is32bitModeEv+0xf4>
   19390: 93 ff ff f0  	adrp	x19, 0xc000 <_ZN8ChxUtils11Is32bitModeEv+0x74>
   193a4: 01 03 00 54  	b.ne	0x19404 <_ZN8ChxUtils11Is32bitModeEv+0x11c>
   193c0: a1 ff ff 90  	adrp	x1, 0xd000 <_ZN8ChxUtils11Is32bitModeEv+0xa8>
   193c4: 82 ff ff d0  	adrp	x2, 0xb000 <_ZN8ChxUtils11Is32bitModeEv+0xa4>
   193c8: a5 ff ff 90  	adrp	x5, 0xd000 <_ZN8ChxUtils11Is32bitModeEv+0xb0>
   19420: a0 ff ff 90  	adrp	x0, 0xd000 <_ZN8ChxUtils11Is32bitModeEv+0x108>
   19424: 81 ff ff f0  	adrp	x1, 0xc000 <_ZN8ChxUtils11Is32bitModeEv+0x108>
   19428: a3 ff ff 90  	adrp	x3, 0xd000 <_ZN8ChxUtils11Is32bitModeEv+0x110>
   1942c: a5 ff ff b0  	adrp	x5, 0xe000 <_ZN8ChxUtils11Is32bitModeEv+0x118>
   19460: 38 4b 00 94  	bl	0x2c140 <_ZN6ChiLog9LogSystemEPKcS1_S1_S1_iS1_z@plt>
   194a4: 20 f6 ff 54  	b.eq	0x19368 <_ZN8ChxUtils11Is32bitModeEv+0x80>
00000000000194b0 <_ZN8ChxUtils18WaitOnAcquireFenceEPK15ChiStreamBuffer>:
   194c8: 01 0c 00 54  	b.ne	0x19648 <_ZN8ChxUtils18WaitOnAcquireFenceEPK15ChiStreamBuffer+0x198>
   194d4: a1 0b 00 54  	b.ne	0x19648 <_ZN8ChxUtils18WaitOnAcquireFenceEPK15ChiStreamBuffer+0x198>
   194e0: 40 0b 00 54  	b.eq	0x19648 <_ZN8ChxUtils18WaitOnAcquireFenceEPK15ChiStreamBuffer+0x198>
   194e4: b5 00 00 90  	adrp	x21, 0x2d000 <_ZN8ChxUtils18WaitOnAcquireFenceEPK15ChiStreamBuffer+0x84>
   194e8: b6 00 00 90  	adrp	x22, 0x2d000 <_ZN8ChxUtils18WaitOnAcquireFenceEPK15ChiStreamBuffer+0x88>
   194ec: 94 ff ff f0  	adrp	x20, 0xc000 <_ZN8ChxUtils18WaitOnAcquireFenceEPK15ChiStreamBuffer+0x8>
   19500: a8 04 30 36  	tbz	w8, #6, 0x19594 <_ZN8ChxUtils18WaitOnAcquireFenceEPK15ChiStreamBuffer+0xe4>
   1950c: 21 02 00 54  	b.ne	0x19550 <_ZN8ChxUtils18WaitOnAcquireFenceEPK15ChiStreamBuffer+0xa0>
   19524: a1 ff ff 90  	adrp	x1, 0xd000 <_ZN8ChxUtils18WaitOnAcquireFenceEPK15ChiStreamBuffer+0x44>
   19528: a2 ff ff 90  	adrp	x2, 0xd000 <_ZN8ChxUtils18WaitOnAcquireFenceEPK15ChiStreamBuffer+0x48>
   1952c: 85 ff ff d0  	adrp	x5, 0xb000 <_ZN8ChxUtils18WaitOnAcquireFenceEPK15ChiStreamBuffer+0x44>
   19564: 81 ff ff 90  	adrp	x1, 0x9000 <_ZN8ChxUtils18WaitOnAcquireFenceEPK15ChiStreamBuffer+0x74>
   1956c: 80 ff ff f0  	adrp	x0, 0xc000 <_ZN8ChxUtils18WaitOnAcquireFenceEPK15ChiStreamBuffer+0x88>
   19570: 83 ff ff d0  	adrp	x3, 0xb000 <_ZN8ChxUtils18WaitOnAcquireFenceEPK15ChiStreamBuffer+0x88>
   19574: 85 ff ff 90  	adrp	x5, 0x9000 <_ZN8ChxUtils18WaitOnAcquireFenceEPK15ChiStreamBuffer+0x84>
   19590: ec 4a 00 94  	bl	0x2c140 <_ZN6ChiLog9LogSystemEPKcS1_S1_S1_iS1_z@plt>
   1959c: 75 4c 00 94  	bl	0x2c770 <_ZN8ChxUtils15NativeFenceWaitEij@plt>
   195a8: a9 04 30 36  	tbz	w9, #6, 0x1963c <_ZN8ChxUtils18WaitOnAcquireFenceEPK15ChiStreamBuffer+0x18c>
   195b4: 21 02 00 54  	b.ne	0x195f8 <_ZN8ChxUtils18WaitOnAcquireFenceEPK15ChiStreamBuffer+0x148>
   195cc: a1 ff ff 90  	adrp	x1, 0xd000 <_ZN8ChxUtils18WaitOnAcquireFenceEPK15ChiStreamBuffer+0xec>
   195d0: a2 ff ff b0  	adrp	x2, 0xe000 <_ZN8ChxUtils18WaitOnAcquireFenceEPK15ChiStreamBuffer+0xf4>
   195d4: 85 ff ff d0  	adrp	x5, 0xb000 <_ZN8ChxUtils18WaitOnAcquireFenceEPK15ChiStreamBuffer+0xec>
   1960c: 81 ff ff 90  	adrp	x1, 0x9000 <_ZN8ChxUtils18WaitOnAcquireFenceEPK15ChiStreamBuffer+0x11c>
   19614: 80 ff ff f0  	adrp	x0, 0xc000 <_ZN8ChxUtils18WaitOnAcquireFenceEPK15ChiStreamBuffer+0x130>
   19618: 83 ff ff d0  	adrp	x3, 0xb000 <_ZN8ChxUtils18WaitOnAcquireFenceEPK15ChiStreamBuffer+0x130>
   1961c: 85 ff ff f0  	adrp	x5, 0xc000 <_ZN8ChxUtils18WaitOnAcquireFenceEPK15ChiStreamBuffer+0x138>
   19638: c2 4a 00 94  	bl	0x2c140 <_ZN6ChiLog9LogSystemEPKcS1_S1_S1_iS1_z@plt>
   19644: 02 00 00 14  	b	0x1964c <_ZN8ChxUtils18WaitOnAcquireFenceEPK15ChiStreamBuffer+0x19c>
0000000000019660 <_ZN8ChxUtils18WaitOnAcquireFenceEPK21camera3_stream_buffer>:
   19678: 40 0b 00 54  	b.eq	0x197e0 <_ZN8ChxUtils18WaitOnAcquireFenceEPK21camera3_stream_buffer+0x180>
   1967c: b5 00 00 90  	adrp	x21, 0x2d000 <_ZN8ChxUtils18WaitOnAcquireFenceEPK21camera3_stream_buffer+0x6c>
   19680: b6 00 00 90  	adrp	x22, 0x2d000 <_ZN8ChxUtils18WaitOnAcquireFenceEPK21camera3_stream_buffer+0x70>
   19684: 94 ff ff f0  	adrp	x20, 0xc000 <_ZN8ChxUtils18WaitOnAcquireFenceEPK15ChiStreamBuffer+0x1a0>
   19698: a8 04 30 36  	tbz	w8, #6, 0x1972c <_ZN8ChxUtils18WaitOnAcquireFenceEPK21camera3_stream_buffer+0xcc>
   196a4: 21 02 00 54  	b.ne	0x196e8 <_ZN8ChxUtils18WaitOnAcquireFenceEPK21camera3_stream_buffer+0x88>
   196bc: a1 ff ff 90  	adrp	x1, 0xd000 <_ZN8ChxUtils18WaitOnAcquireFenceEPK21camera3_stream_buffer+0x2c>
   196c0: a2 ff ff 90  	adrp	x2, 0xd000 <_ZN8ChxUtils18WaitOnAcquireFenceEPK21camera3_stream_buffer+0x30>
   196c4: 85 ff ff d0  	adrp	x5, 0xb000 <_ZN8ChxUtils18WaitOnAcquireFenceEPK21camera3_stream_buffer+0x2c>
   196fc: 81 ff ff 90  	adrp	x1, 0x9000 <_ZN8ChxUtils18WaitOnAcquireFenceEPK21camera3_stream_buffer+0x5c>
   19704: 80 ff ff f0  	adrp	x0, 0xc000 <_ZN8ChxUtils18WaitOnAcquireFenceEPK21camera3_stream_buffer+0x70>
   19708: 83 ff ff d0  	adrp	x3, 0xb000 <_ZN8ChxUtils18WaitOnAcquireFenceEPK21camera3_stream_buffer+0x70>
   1970c: 85 ff ff 90  	adrp	x5, 0x9000 <_ZN8ChxUtils18WaitOnAcquireFenceEPK21camera3_stream_buffer+0x6c>
   19728: 86 4a 00 94  	bl	0x2c140 <_ZN6ChiLog9LogSystemEPKcS1_S1_S1_iS1_z@plt>
   19734: 0f 4c 00 94  	bl	0x2c770 <_ZN8ChxUtils15NativeFenceWaitEij@plt>
   19740: a9 04 30 36  	tbz	w9, #6, 0x197d4 <_ZN8ChxUtils18WaitOnAcquireFenceEPK21camera3_stream_buffer+0x174>
   1974c: 21 02 00 54  	b.ne	0x19790 <_ZN8ChxUtils18WaitOnAcquireFenceEPK21camera3_stream_buffer+0x130>
   19764: a1 ff ff 90  	adrp	x1, 0xd000 <_ZN8ChxUtils18WaitOnAcquireFenceEPK21camera3_stream_buffer+0xd4>
   19768: a2 ff ff b0  	adrp	x2, 0xe000 <_ZN8ChxUtils18WaitOnAcquireFenceEPK21camera3_stream_buffer+0xdc>
   1976c: 85 ff ff d0  	adrp	x5, 0xb000 <_ZN8ChxUtils18WaitOnAcquireFenceEPK21camera3_stream_buffer+0xd4>
   197a4: 81 ff ff 90  	adrp	x1, 0x9000 <_ZN8ChxUtils18WaitOnAcquireFenceEPK21camera3_stream_buffer+0x104>
   197ac: 80 ff ff f0  	adrp	x0, 0xc000 <_ZN8ChxUtils18WaitOnAcquireFenceEPK21camera3_stream_buffer+0x118>
   197b0: 83 ff ff d0  	adrp	x3, 0xb000 <_ZN8ChxUtils18WaitOnAcquireFenceEPK21camera3_stream_buffer+0x118>
   197b4: 85 ff ff f0  	adrp	x5, 0xc000 <_ZN8ChxUtils18WaitOnAcquireFenceEPK21camera3_stream_buffer+0x120>
   197d0: 5c 4a 00 94  	bl	0x2c140 <_ZN6ChiLog9LogSystemEPKcS1_S1_S1_iS1_z@plt>
   197dc: 02 00 00 14  	b	0x197e4 <_ZN8ChxUtils18WaitOnAcquireFenceEPK21camera3_stream_buffer+0x184>
00000000000197f8 <_ZN8ChxUtils15AndroidMetadata12FillCameraIdEPvj>:
   19818: e0 09 00 b4  	cbz	x0, 0x19954 <_ZN8ChxUtils15AndroidMetadata12FillCameraIdEPvj+0x15c>
   19834: 47 4b 00 94  	bl	0x2c550 <_ZN15ExtensionModule11GetInstanceEv@plt>
   19848: e0 00 00 35  	cbnz	w0, 0x19864 <_ZN8ChxUtils15AndroidMetadata12FillCameraIdEPvj+0x6c>
   19850: a8 00 00 b4  	cbz	x8, 0x19864 <_ZN8ChxUtils15AndroidMetadata12FillCameraIdEPvj+0x6c>
   19864: a9 00 00 90  	adrp	x9, 0x2d000 <_ZN8ChxUtils15AndroidMetadata12FillCameraIdEPvj+0xbc>
   19878: 48 05 18 36  	tbz	w8, #3, 0x19920 <_ZN8ChxUtils15AndroidMetadata12FillCameraIdEPvj+0x128>
   1987c: aa 00 00 90  	adrp	x10, 0x2d000 <_ZN8ChxUtils15AndroidMetadata12FillCameraIdEPvj+0xd4>
   19880: 95 ff ff f0  	adrp	x21, 0xc000 <_ZN8ChxUtils15AndroidMetadata12FillCameraIdEPvj+0x54>
   19894: 21 02 00 54  	b.ne	0x198d8 <_ZN8ChxUtils15AndroidMetadata12FillCameraIdEPvj+0xe0>
   198ac: a1 ff ff 90  	adrp	x1, 0xd000 <_ZN8ChxUtils15AndroidMetadata12FillCameraIdEPvj+0x84>
   198b0: 82 ff ff b0  	adrp	x2, 0xa000 <_ZN8ChxUtils15AndroidMetadata12FillCameraIdEPvj+0x7c>
   198b4: a5 ff ff b0  	adrp	x5, 0xe000 <_ZN8ChxUtils15AndroidMetadata12FillCameraIdEPvj+0x90>
   198ec: 81 ff ff d0  	adrp	x1, 0xb000 <_ZN8ChxUtils15AndroidMetadata12FillCameraIdEPvj+0xbc>
   198f4: a0 ff ff b0  	adrp	x0, 0xe000 <_ZN8ChxUtils15AndroidMetadata12FillCameraIdEPvj+0xd0>
   198f8: a3 ff ff b0  	adrp	x3, 0xe000 <_ZN8ChxUtils15AndroidMetadata12FillCameraIdEPvj+0xd4>
   198fc: 85 ff ff b0  	adrp	x5, 0xa000 <_ZN8ChxUtils15AndroidMetadata12FillCameraIdEPvj+0xc8>
   19918: 0a 4a 00 94  	bl	0x2c140 <_ZN6ChiLog9LogSystemEPKcS1_S1_S1_iS1_z@plt>
   19924: 0b 4b 00 94  	bl	0x2c550 <_ZN15ExtensionModule11GetInstanceEv@plt>
   1993c: e0 01 00 34  	cbz	w0, 0x19978 <_ZN8ChxUtils15AndroidMetadata12FillCameraIdEPvj+0x180>
   19960: 41 02 00 54  	b.ne	0x199a8 <_ZN8ChxUtils15AndroidMetadata12FillCameraIdEPvj+0x1b0>
   199a4: 00 fe ff 54  	b.eq	0x19964 <_ZN8ChxUtils15AndroidMetadata12FillCameraIdEPvj+0x16c>
00000000000199b0 <_ZN8ChxUtils15AndroidMetadata11GetFpsRangeEPKvPiS3_>:
   199f0: 60 01 00 34  	cbz	w0, 0x19a1c <_ZN8ChxUtils15AndroidMetadata11GetFpsRangeEPKvPiS3_+0x6c>
   19a04: 81 07 00 54  	b.ne	0x19af4 <_ZN8ChxUtils15AndroidMetadata11GetFpsRangeEPKvPiS3_+0x144>
   19a28: a8 00 00 90  	adrp	x8, 0x2d000 <_ZN8ChxUtils15AndroidMetadata11GetFpsRangeEPKvPiS3_+0xc8>
   19a3c: 2a 05 18 36  	tbz	w10, #3, 0x19ae0 <_ZN8ChxUtils15AndroidMetadata11GetFpsRangeEPKvPiS3_+0x130>
   19a40: a9 00 00 90  	adrp	x9, 0x2d000 <_ZN8ChxUtils15AndroidMetadata11GetFpsRangeEPKvPiS3_+0xe0>
   19a44: 93 ff ff f0  	adrp	x19, 0xc000 <_ZN8ChxUtils15AndroidMetadata11GetFpsRangeEPKvPiS3_+0x60>
   19a58: 21 02 00 54  	b.ne	0x19a9c <_ZN8ChxUtils15AndroidMetadata11GetFpsRangeEPKvPiS3_+0xec>
   19a74: a1 ff ff 90  	adrp	x1, 0xd000 <_ZN8ChxUtils15AndroidMetadata11GetFpsRangeEPKvPiS3_+0x94>
   19a78: 82 ff ff f0  	adrp	x2, 0xc000 <_ZN8ChxUtils15AndroidMetadata11GetFpsRangeEPKvPiS3_+0x94>
   19a7c: 85 ff ff b0  	adrp	x5, 0xa000 <_ZN8ChxUtils15AndroidMetadata11GetFpsRangeEPKvPiS3_+0x90>
   19ab0: 81 ff ff d0  	adrp	x1, 0xb000 <_ZN8ChxUtils15AndroidMetadata11GetFpsRangeEPKvPiS3_+0xc8>
   19abc: a0 ff ff b0  	adrp	x0, 0xe000 <_ZN8ChxUtils15AndroidMetadata11GetFpsRangeEPKvPiS3_+0xe0>
   19ac0: 83 ff ff b0  	adrp	x3, 0xa000 <_ZN8ChxUtils15AndroidMetadata11GetFpsRangeEPKvPiS3_+0xd4>
   19ac4: 85 ff ff f0  	adrp	x5, 0xc000 <_ZN8ChxUtils15AndroidMetadata11GetFpsRangeEPKvPiS3_+0xe0>
   19adc: 99 49 00 94  	bl	0x2c140 <_ZN6ChiLog9LogSystemEPKcS1_S1_S1_iS1_z@plt>
   19af0: c0 f8 ff 54  	b.eq	0x19a08 <_ZN8ChxUtils15AndroidMetadata11GetFpsRangeEPKvPiS3_+0x58>
0000000000019af8 <_ZN8ChxUtils15AndroidMetadata10GetZSLModeEPv>:
   19b30: e0 00 00 34  	cbz	w0, 0x19b4c <_ZN8ChxUtils15AndroidMetadata10GetZSLModeEPv+0x54>
   19b38: a9 00 00 90  	adrp	x9, 0x2d000 <_ZN8ChxUtils15AndroidMetadata10GetZSLModeEPv+0x90>
   19b44: 08 01 30 37  	tbnz	w8, #6, 0x19b64 <_ZN8ChxUtils15AndroidMetadata10GetZSLModeEPv+0x6c>
   19b48: 2f 00 00 14  	b	0x19c04 <_ZN8ChxUtils15AndroidMetadata10GetZSLModeEPv+0x10c>
   19b54: a9 00 00 90  	adrp	x9, 0x2d000 <_ZN8ChxUtils15AndroidMetadata10GetZSLModeEPv+0xac>
   19b60: 28 05 30 36  	tbz	w8, #6, 0x19c04 <_ZN8ChxUtils15AndroidMetadata10GetZSLModeEPv+0x10c>
   19b64: aa 00 00 90  	adrp	x10, 0x2d000 <_ZN8ChxUtils15AndroidMetadata10GetZSLModeEPv+0xbc>
   19b68: 94 ff ff f0  	adrp	x20, 0xc000 <_ZN8ChxUtils15AndroidMetadata10GetZSLModeEPv+0x3c>
   19b7c: 21 02 00 54  	b.ne	0x19bc0 <_ZN8ChxUtils15AndroidMetadata10GetZSLModeEPv+0xc8>
   19b94: a1 ff ff 90  	adrp	x1, 0xd000 <_ZN8ChxUtils15AndroidMetadata10GetZSLModeEPv+0x6c>
   19b98: 82 ff ff f0  	adrp	x2, 0xc000 <_ZN8ChxUtils15AndroidMetadata10GetZSLModeEPv+0x6c>
   19b9c: 85 ff ff f0  	adrp	x5, 0xc000 <_ZN8ChxUtils15AndroidMetadata10GetZSLModeEPv+0x70>
   19bd4: 81 ff ff 90  	adrp	x1, 0x9000 <_ZN8ChxUtils15AndroidMetadata10GetZSLModeEPv+0x9c>
   19bdc: 80 ff ff f0  	adrp	x0, 0xc000 <_ZN8ChxUtils15AndroidMetadata10GetZSLModeEPv+0xb0>
   19be0: 83 ff ff f0  	adrp	x3, 0xc000 <_ZN8ChxUtils15AndroidMetadata10GetZSLModeEPv+0xb4>
   19be4: 85 ff ff f0  	adrp	x5, 0xc000 <_ZN8ChxUtils15AndroidMetadata10GetZSLModeEPv+0xb8>
   19c00: 50 49 00 94  	bl	0x2c140 <_ZN6ChiLog9LogSystemEPKcS1_S1_S1_iS1_z@plt>
   19c10: e1 00 00 54  	b.ne	0x19c2c <_ZN8ChxUtils15AndroidMetadata10GetZSLModeEPv+0x134>
0000000000019c30 <_ZN8ChxUtils15AndroidMetadata12GetBokehModeEPKv>:
   19c54: 20 01 00 b4  	cbz	x0, 0x19c78 <_ZN8ChxUtils15AndroidMetadata12GetBokehModeEPKv+0x48>
   19c74: e0 00 00 34  	cbz	w0, 0x19c90 <_ZN8ChxUtils15AndroidMetadata12GetBokehModeEPKv+0x60>
   19c7c: a9 00 00 90  	adrp	x9, 0x2d000 <_ZN8ChxUtils15AndroidMetadata12GetBokehModeEPKv+0x9c>
   19c88: 08 01 18 37  	tbnz	w8, #3, 0x19ca8 <_ZN8ChxUtils15AndroidMetadata12GetBokehModeEPKv+0x78>
   19c8c: 31 00 00 14  	b	0x19d50 <_ZN8ChxUtils15AndroidMetadata12GetBokehModeEPKv+0x120>
   19c98: a9 00 00 90  	adrp	x9, 0x2d000 <_ZN8ChxUtils15AndroidMetadata12GetBokehModeEPKv+0xb8>
   19ca4: 68 05 18 36  	tbz	w8, #3, 0x19d50 <_ZN8ChxUtils15AndroidMetadata12GetBokehModeEPKv+0x120>
   19ca8: aa 00 00 90  	adrp	x10, 0x2d000 <_ZN8ChxUtils15AndroidMetadata12GetBokehModeEPKv+0xc8>
   19cac: 95 ff ff f0  	adrp	x21, 0xc000 <_ZN8ChxUtils15AndroidMetadata12GetBokehModeEPKv+0x48>
   19cc0: 41 02 00 54  	b.ne	0x19d08 <_ZN8ChxUtils15AndroidMetadata12GetBokehModeEPKv+0xd8>
   19cd8: a1 ff ff 90  	adrp	x1, 0xd000 <_ZN8ChxUtils15AndroidMetadata12GetBokehModeEPKv+0x78>
   19cdc: 82 ff ff f0  	adrp	x2, 0xc000 <_ZN8ChxUtils15AndroidMetadata12GetBokehModeEPKv+0x78>
   19ce0: a5 ff ff 90  	adrp	x5, 0xd000 <_ZN8ChxUtils15AndroidMetadata12GetBokehModeEPKv+0x80>
   19d1c: 81 ff ff d0  	adrp	x1, 0xb000 <_ZN8ChxUtils15AndroidMetadata12GetBokehModeEPKv+0xb4>
   19d24: a0 ff ff b0  	adrp	x0, 0xe000 <_ZN8ChxUtils15AndroidMetadata12GetBokehModeEPKv+0xc8>
   19d28: a3 ff ff 90  	adrp	x3, 0xd000 <_ZN8ChxUtils15AndroidMetadata12GetBokehModeEPKv+0xc8>
   19d2c: 85 ff ff d0  	adrp	x5, 0xb000 <_ZN8ChxUtils15AndroidMetadata12GetBokehModeEPKv+0xc4>
   19d4c: fd 48 00 94  	bl	0x2c140 <_ZN6ChiLog9LogSystemEPKcS1_S1_S1_iS1_z@plt>
   19d5c: e1 00 00 54  	b.ne	0x19d78 <_ZN8ChxUtils15AndroidMetadata12GetBokehModeEPKv+0x148>
0000000000019d80 <_ZN8ChxUtils15AndroidMetadata18FillTuningModeDataEPvP23camera3_capture_requestjPjS4_S4_S4_>:
   19dac: c0 1a 00 b4  	cbz	x0, 0x1a104 <_ZN8ChxUtils15AndroidMetadata18FillTuningModeDataEPvP23camera3_capture_requestjPjS4_S4_S4_+0x384>
   19db0: 88 ff ff 90  	adrp	x8, 0x9000 <_ZN8ChxUtils15AndroidMetadata12GetBokehModeEPKv+0x140>
   19e00: 60 4a 00 94  	bl	0x2c780 <_ZN8ChxUtils14GetUsecaseModeEP23camera3_capture_request@plt>
   19e14: cf 49 00 94  	bl	0x2c550 <_ZN15ExtensionModule11GetInstanceEv@plt>
   19e28: 60 00 00 34  	cbz	w0, 0x19e34 <_ZN8ChxUtils15AndroidMetadata18FillTuningModeDataEPvP23camera3_capture_requestjPjS4_S4_S4_+0xb4>
   19e30: 04 00 00 14  	b	0x19e40 <_ZN8ChxUtils15AndroidMetadata18FillTuningModeDataEPvP23camera3_capture_requestjPjS4_S4_S4_+0xc0>
   19e40: bc 00 00 90  	adrp	x28, 0x2d000 <_ZN8ChxUtils15AndroidMetadata18FillTuningModeDataEPvP23camera3_capture_requestjPjS4_S4_S4_+0x110>
   19e44: bb 00 00 90  	adrp	x27, 0x2d000 <_ZN8ChxUtils15AndroidMetadata18FillTuningModeDataEPvP23camera3_capture_requestjPjS4_S4_S4_+0x114>
   19e4c: 94 ff ff f0  	adrp	x20, 0xc000 <_ZN8ChxUtils15AndroidMetadata18FillTuningModeDataEPvP23camera3_capture_requestjPjS4_S4_S4_+0x98>
   19e60: cd 04 30 36  	tbz	w13, #6, 0x19ef8 <_ZN8ChxUtils15AndroidMetadata18FillTuningModeDataEPvP23camera3_capture_requestjPjS4_S4_S4_+0x178>
   19e6c: 21 02 00 54  	b.ne	0x19eb0 <_ZN8ChxUtils15AndroidMetadata18FillTuningModeDataEPvP23camera3_capture_requestjPjS4_S4_S4_+0x130>
   19e84: a1 ff ff 90  	adrp	x1, 0xd000 <_ZN8ChxUtils15AndroidMetadata18FillTuningModeDataEPvP23camera3_capture_requestjPjS4_S4_S4_+0xd4>
   19e88: a2 ff ff b0  	adrp	x2, 0xe000 <_ZN8ChxUtils15AndroidMetadata18FillTuningModeDataEPvP23camera3_capture_requestjPjS4_S4_S4_+0xdc>
   19e8c: 85 ff ff d0  	adrp	x5, 0xb000 <_ZN8ChxUtils15AndroidMetadata18FillTuningModeDataEPvP23camera3_capture_requestjPjS4_S4_S4_+0xd4>
   19ec4: 81 ff ff 90  	adrp	x1, 0x9000 <_ZN8ChxUtils15AndroidMetadata18FillTuningModeDataEPvP23camera3_capture_requestjPjS4_S4_S4_+0x104>
   19ecc: 80 ff ff f0  	adrp	x0, 0xc000 <_ZN8ChxUtils15AndroidMetadata18FillTuningModeDataEPvP23camera3_capture_requestjPjS4_S4_S4_+0x118>
   19ed0: 83 ff ff d0  	adrp	x3, 0xb000 <_ZN8ChxUtils15AndroidMetadata18FillTuningModeDataEPvP23camera3_capture_requestjPjS4_S4_S4_+0x118>
   19ed4: 85 ff ff b0  	adrp	x5, 0xa000 <_ZN8ChxUtils15AndroidMetadata18FillTuningModeDataEPvP23camera3_capture_requestjPjS4_S4_S4_+0x118>
   19ef0: 94 48 00 94  	bl	0x2c140 <_ZN6ChiLog9LogSystemEPKcS1_S1_S1_iS1_z@plt>
   19f38: 60 01 00 35  	cbnz	w0, 0x19f64 <_ZN8ChxUtils15AndroidMetadata18FillTuningModeDataEPvP23camera3_capture_requestjPjS4_S4_S4_+0x1e4>
   19f48: e1 00 00 54  	b.ne	0x19f64 <_ZN8ChxUtils15AndroidMetadata18FillTuningModeDataEPvP23camera3_capture_requestjPjS4_S4_S4_+0x1e4>
   19f60: a0 0e 00 34  	cbz	w0, 0x1a134 <_ZN8ChxUtils15AndroidMetadata18FillTuningModeDataEPvP23camera3_capture_requestjPjS4_S4_S4_+0x3b4>
   19f68: ac ff ff b0  	adrp	x12, 0xe000 <_ZN8ChxUtils15AndroidMetadata18FillTuningModeDataEPvP23camera3_capture_requestjPjS4_S4_S4_+0x1bc>
   19f9c: 60 00 00 34  	cbz	w0, 0x19fa8 <_ZN8ChxUtils15AndroidMetadata18FillTuningModeDataEPvP23camera3_capture_requestjPjS4_S4_S4_+0x228>
   19fa4: 04 00 00 14  	b	0x19fb4 <_ZN8ChxUtils15AndroidMetadata18FillTuningModeDataEPvP23camera3_capture_requestjPjS4_S4_S4_+0x234>
   19fb4: ae ff ff b0  	adrp	x14, 0xe000 <_ZN8ChxUtils15AndroidMetadata18FillTuningModeDataEPvP23camera3_capture_requestjPjS4_S4_S4_+0x208>
   19fd0: 60 49 00 94  	bl	0x2c550 <_ZN15ExtensionModule11GetInstanceEv@plt>
   19fe8: 20 01 00 34  	cbz	w0, 0x1a00c <_ZN8ChxUtils15AndroidMetadata18FillTuningModeDataEPvP23camera3_capture_requestjPjS4_S4_S4_+0x28c>
   1a004: 86 01 28 37  	tbnz	w6, #5, 0x1a034 <_ZN8ChxUtils15AndroidMetadata18FillTuningModeDataEPvP23camera3_capture_requestjPjS4_S4_S4_+0x2b4>
   1a008: 3f 00 00 14  	b	0x1a104 <_ZN8ChxUtils15AndroidMetadata18FillTuningModeDataEPvP23camera3_capture_requestjPjS4_S4_S4_+0x384>
   1a030: a6 06 28 36  	tbz	w6, #5, 0x1a104 <_ZN8ChxUtils15AndroidMetadata18FillTuningModeDataEPvP23camera3_capture_requestjPjS4_S4_S4_+0x384>
   1a03c: 21 03 00 54  	b.ne	0x1a0a0 <_ZN8ChxUtils15AndroidMetadata18FillTuningModeDataEPvP23camera3_capture_requestjPjS4_S4_S4_+0x320>
   1a05c: 81 ff ff f0  	adrp	x1, 0xd000 <_ZN8ChxUtils15AndroidMetadata18FillTuningModeDataEPvP23camera3_capture_requestjPjS4_S4_S4_+0x2a8>
   1a064: 82 ff ff 90  	adrp	x2, 0xa000 <_ZN8ChxUtils15AndroidMetadata18FillTuningModeDataEPvP23camera3_capture_requestjPjS4_S4_S4_+0x2a4>
   1a06c: 85 ff ff b0  	adrp	x5, 0xb000 <_ZN8ChxUtils15AndroidMetadata18FillTuningModeDataEPvP23camera3_capture_requestjPjS4_S4_S4_+0x2b0>
   1a0c4: 80 ff ff f0  	adrp	x0, 0xd000 <_ZN8ChxUtils15AndroidMetadata18FillTuningModeDataEPvP23camera3_capture_requestjPjS4_S4_S4_+0x310>
   1a0cc: 81 ff ff d0  	adrp	x1, 0xc000 <_ZN8ChxUtils15AndroidMetadata18FillTuningModeDataEPvP23camera3_capture_requestjPjS4_S4_S4_+0x314>
   1a0d0: 83 ff ff b0  	adrp	x3, 0xb000 <_ZN8ChxUtils15AndroidMetadata18FillTuningModeDataEPvP23camera3_capture_requestjPjS4_S4_S4_+0x314>
   1a0d4: 85 ff ff 90  	adrp	x5, 0xa000 <_ZN8ChxUtils15AndroidMetadata18FillTuningModeDataEPvP23camera3_capture_requestjPjS4_S4_S4_+0x314>
   1a100: 10 48 00 94  	bl	0x2c140 <_ZN6ChiLog9LogSystemEPKcS1_S1_S1_iS1_z@plt>
   1a110: a1 01 00 54  	b.ne	0x1a144 <_ZN8ChxUtils15AndroidMetadata18FillTuningModeDataEPvP23camera3_capture_requestjPjS4_S4_S4_+0x3c4>
   1a140: 8a ff ff 17  	b	0x19f68 <_ZN8ChxUtils15AndroidMetadata18FillTuningModeDataEPvP23camera3_capture_requestjPjS4_S4_S4_+0x1e8>
000000000001a148 <_ZN8ChxUtils15AndroidMetadata15UpdateTimeStampEP15camera_metadatamj>:
   1a198: 00 01 00 34  	cbz	w0, 0x1a1b8 <_ZN8ChxUtils15AndroidMetadata15UpdateTimeStampEP15camera_metadatamj+0x70>
   1a1b4: 11 00 00 14  	b	0x1a1f8 <_ZN8ChxUtils15AndroidMetadata15UpdateTimeStampEP15camera_metadatamj+0xb0>
   1a1c4: e1 00 00 54  	b.ne	0x1a1e0 <_ZN8ChxUtils15AndroidMetadata15UpdateTimeStampEP15camera_metadatamj+0x98>
   1a1cc: 89 00 00 f0  	adrp	x9, 0x2d000 <_ZN8ChxUtils15AndroidMetadata15UpdateTimeStampEP15camera_metadatamj+0xd0>
   1a1d8: a8 01 30 37  	tbnz	w8, #6, 0x1a20c <_ZN8ChxUtils15AndroidMetadata15UpdateTimeStampEP15camera_metadatamj+0xc4>
   1a1dc: 54 00 00 14  	b	0x1a32c <_ZN8ChxUtils15AndroidMetadata15UpdateTimeStampEP15camera_metadatamj+0x1e4>
   1a1fc: 89 00 00 f0  	adrp	x9, 0x2d000 <_ZN8ChxUtils15AndroidMetadata15UpdateTimeStampEP15camera_metadatamj+0x100>
   1a208: 28 09 30 36  	tbz	w8, #6, 0x1a32c <_ZN8ChxUtils15AndroidMetadata15UpdateTimeStampEP15camera_metadatamj+0x1e4>
   1a20c: 8a 00 00 f0  	adrp	x10, 0x2d000 <_ZN8ChxUtils15AndroidMetadata15UpdateTimeStampEP15camera_metadatamj+0x110>
   1a210: 96 ff ff d0  	adrp	x22, 0xc000 <_ZN8ChxUtils15AndroidMetadata15UpdateTimeStampEP15camera_metadatamj+0x90>
   1a224: 21 04 00 54  	b.ne	0x1a2a8 <_ZN8ChxUtils15AndroidMetadata15UpdateTimeStampEP15camera_metadatamj+0x160>
   1a264: 60 00 00 35  	cbnz	w0, 0x1a270 <_ZN8ChxUtils15AndroidMetadata15UpdateTimeStampEP15camera_metadatamj+0x128>
   1a270: 81 ff ff f0  	adrp	x1, 0xd000 <_ZN8ChxUtils15AndroidMetadata15UpdateTimeStampEP15camera_metadatamj+0xf4>
   1a274: 82 ff ff b0  	adrp	x2, 0xb000 <_ZN8ChxUtils15AndroidMetadata15UpdateTimeStampEP15camera_metadatamj+0xf0>
   1a278: 85 ff ff d0  	adrp	x5, 0xc000 <_ZN8ChxUtils15AndroidMetadata15UpdateTimeStampEP15camera_metadatamj+0xf8>
   1a2e4: 60 00 00 35  	cbnz	w0, 0x1a2f0 <_ZN8ChxUtils15AndroidMetadata15UpdateTimeStampEP15camera_metadatamj+0x1a8>
   1a2f0: 80 ff ff d0  	adrp	x0, 0xc000 <_ZN8ChxUtils15AndroidMetadata15UpdateTimeStampEP15camera_metadatamj+0x170>
   1a2f4: 61 ff ff f0  	adrp	x1, 0x9000 <_ZN8ChxUtils15AndroidMetadata15UpdateTimeStampEP15camera_metadatamj+0x168>
   1a2f8: 83 ff ff d0  	adrp	x3, 0xc000 <_ZN8ChxUtils15AndroidMetadata15UpdateTimeStampEP15camera_metadatamj+0x178>
   1a2fc: 65 ff ff f0  	adrp	x5, 0x9000 <_ZN8ChxUtils15AndroidMetadata15UpdateTimeStampEP15camera_metadatamj+0x170>
   1a328: 86 47 00 94  	bl	0x2c140 <_ZN6ChiLog9LogSystemEPKcS1_S1_S1_iS1_z@plt>
   1a340: 01 01 00 54  	b.ne	0x1a360 <_ZN8ChxUtils15AndroidMetadata15UpdateTimeStampEP15camera_metadatamj+0x218>
000000000001a368 <_ZN8ChxUtils15AndroidMetadata12GetTimeStampEP15camera_metadata>:
   1a3a0: 60 00 00 35  	cbnz	w0, 0x1a3ac <_ZN8ChxUtils15AndroidMetadata12GetTimeStampEP15camera_metadata+0x44>
   1a3b8: c1 00 00 54  	b.ne	0x1a3d0 <_ZN8ChxUtils15AndroidMetadata12GetTimeStampEP15camera_metadata+0x68>
000000000001a3d8 <_ZN8ChxUtils10GetZSLModeEP11ChiMetadata>:
   1a41c: e8 00 00 b4  	cbz	x8, 0x1a438 <_ZN8ChxUtils10GetZSLModeEP11ChiMetadata+0x60>
   1a424: 89 00 00 f0  	adrp	x9, 0x2d000 <_ZN8ChxUtils10GetZSLModeEP11ChiMetadata+0x98>
   1a430: e8 00 30 37  	tbnz	w8, #6, 0x1a44c <_ZN8ChxUtils10GetZSLModeEP11ChiMetadata+0x74>
   1a434: 2e 00 00 14  	b	0x1a4ec <_ZN8ChxUtils10GetZSLModeEP11ChiMetadata+0x114>
   1a43c: 89 00 00 f0  	adrp	x9, 0x2d000 <_ZN8ChxUtils10GetZSLModeEP11ChiMetadata+0xb0>
   1a448: 28 05 30 36  	tbz	w8, #6, 0x1a4ec <_ZN8ChxUtils10GetZSLModeEP11ChiMetadata+0x114>
   1a44c: 8a 00 00 f0  	adrp	x10, 0x2d000 <_ZN8ChxUtils10GetZSLModeEP11ChiMetadata+0xc0>
   1a450: 94 ff ff d0  	adrp	x20, 0xc000 <_ZN8ChxUtils10GetZSLModeEP11ChiMetadata+0x40>
   1a464: 21 02 00 54  	b.ne	0x1a4a8 <_ZN8ChxUtils10GetZSLModeEP11ChiMetadata+0xd0>
   1a47c: 81 ff ff f0  	adrp	x1, 0xd000 <_ZN8ChxUtils10GetZSLModeEP11ChiMetadata+0x70>
   1a480: 82 ff ff d0  	adrp	x2, 0xc000 <_ZN8ChxUtils10GetZSLModeEP11ChiMetadata+0x70>
   1a484: 85 ff ff d0  	adrp	x5, 0xc000 <_ZN8ChxUtils10GetZSLModeEP11ChiMetadata+0x74>
   1a4bc: 61 ff ff f0  	adrp	x1, 0x9000 <_ZN8ChxUtils10GetZSLModeEP11ChiMetadata+0xa0>
   1a4c4: 80 ff ff d0  	adrp	x0, 0xc000 <_ZN8ChxUtils10GetZSLModeEP11ChiMetadata+0xb4>
   1a4c8: 83 ff ff d0  	adrp	x3, 0xc000 <_ZN8ChxUtils10GetZSLModeEP11ChiMetadata+0xb8>
   1a4cc: 85 ff ff d0  	adrp	x5, 0xc000 <_ZN8ChxUtils10GetZSLModeEP11ChiMetadata+0xbc>
   1a4e8: 16 47 00 94  	bl	0x2c140 <_ZN6ChiLog9LogSystemEPKcS1_S1_S1_iS1_z@plt>
   1a4f8: e1 00 00 54  	b.ne	0x1a514 <_ZN8ChxUtils10GetZSLModeEP11ChiMetadata+0x13c>
000000000001a518 <_ZN8ChxUtils12GetFlashModeEP11ChiMetadata>:
   1a55c: e8 00 00 b4  	cbz	x8, 0x1a578 <_ZN8ChxUtils12GetFlashModeEP11ChiMetadata+0x60>
   1a564: 89 00 00 f0  	adrp	x9, 0x2d000 <_ZN8ChxUtils12GetFlashModeEP11ChiMetadata+0x98>
   1a570: e8 00 18 37  	tbnz	w8, #3, 0x1a58c <_ZN8ChxUtils12GetFlashModeEP11ChiMetadata+0x74>
   1a574: 2e 00 00 14  	b	0x1a62c <_ZN8ChxUtils12GetFlashModeEP11ChiMetadata+0x114>
   1a57c: 89 00 00 f0  	adrp	x9, 0x2d000 <_ZN8ChxUtils12GetFlashModeEP11ChiMetadata+0xb0>
   1a588: 28 05 18 36  	tbz	w8, #3, 0x1a62c <_ZN8ChxUtils12GetFlashModeEP11ChiMetadata+0x114>
   1a58c: 8a 00 00 f0  	adrp	x10, 0x2d000 <_ZN8ChxUtils12GetFlashModeEP11ChiMetadata+0xc0>
   1a590: 94 ff ff d0  	adrp	x20, 0xc000 <_ZN8ChxUtils12GetFlashModeEP11ChiMetadata+0x40>
   1a5a4: 21 02 00 54  	b.ne	0x1a5e8 <_ZN8ChxUtils12GetFlashModeEP11ChiMetadata+0xd0>
   1a5bc: 81 ff ff f0  	adrp	x1, 0xd000 <_ZN8ChxUtils12GetFlashModeEP11ChiMetadata+0x70>
   1a5c0: 82 ff ff f0  	adrp	x2, 0xd000 <_ZN8ChxUtils12GetFlashModeEP11ChiMetadata+0x74>
   1a5c4: a5 ff ff 90  	adrp	x5, 0xe000 <_ZN8ChxUtils12GetFlashModeEP11ChiMetadata+0x7c>
   1a5fc: 81 ff ff b0  	adrp	x1, 0xb000 <_ZN8ChxUtils12GetFlashModeEP11ChiMetadata+0xa8>
   1a604: a0 ff ff 90  	adrp	x0, 0xe000 <_ZN8ChxUtils12GetFlashModeEP11ChiMetadata+0xbc>
   1a608: a3 ff ff 90  	adrp	x3, 0xe000 <_ZN8ChxUtils12GetFlashModeEP11ChiMetadata+0xc0>
   1a60c: 85 ff ff d0  	adrp	x5, 0xc000 <_ZN8ChxUtils12GetFlashModeEP11ChiMetadata+0xbc>
   1a628: c6 46 00 94  	bl	0x2c140 <_ZN6ChiLog9LogSystemEPKcS1_S1_S1_iS1_z@plt>
   1a640: c1 00 00 54  	b.ne	0x1a658 <_ZN8ChxUtils12GetFlashModeEP11ChiMetadata+0x140>
000000000001a660 <_ZN8ChxUtils18GetFlashFiredStateEP11ChiMetadata>:
   1a6a4: e8 00 00 b4  	cbz	x8, 0x1a6c0 <_ZN8ChxUtils18GetFlashFiredStateEP11ChiMetadata+0x60>
   1a6ac: 89 00 00 f0  	adrp	x9, 0x2d000 <_ZN8ChxUtils18GetFlashFiredStateEP11ChiMetadata+0x98>
   1a6b8: e8 00 18 37  	tbnz	w8, #3, 0x1a6d4 <_ZN8ChxUtils18GetFlashFiredStateEP11ChiMetadata+0x74>
   1a6bc: 2e 00 00 14  	b	0x1a774 <_ZN8ChxUtils18GetFlashFiredStateEP11ChiMetadata+0x114>
   1a6c4: 89 00 00 f0  	adrp	x9, 0x2d000 <_ZN8ChxUtils18GetFlashFiredStateEP11ChiMetadata+0xb0>
   1a6d0: 28 05 18 36  	tbz	w8, #3, 0x1a774 <_ZN8ChxUtils18GetFlashFiredStateEP11ChiMetadata+0x114>
   1a6d4: 8a 00 00 f0  	adrp	x10, 0x2d000 <_ZN8ChxUtils18GetFlashFiredStateEP11ChiMetadata+0xc0>
   1a6d8: 94 ff ff d0  	adrp	x20, 0xc000 <_ZN8ChxUtils18GetFlashFiredStateEP11ChiMetadata+0x40>
   1a6ec: 21 02 00 54  	b.ne	0x1a730 <_ZN8ChxUtils18GetFlashFiredStateEP11ChiMetadata+0xd0>
   1a704: 81 ff ff f0  	adrp	x1, 0xd000 <_ZN8ChxUtils18GetFlashFiredStateEP11ChiMetadata+0x70>
   1a708: 82 ff ff 90  	adrp	x2, 0xa000 <_ZN8ChxUtils18GetFlashFiredStateEP11ChiMetadata+0x68>
   1a70c: 85 ff ff d0  	adrp	x5, 0xc000 <_ZN8ChxUtils18GetFlashFiredStateEP11ChiMetadata+0x74>
   1a744: 81 ff ff b0  	adrp	x1, 0xb000 <_ZN8ChxUtils18GetFlashFiredStateEP11ChiMetadata+0xa8>
   1a74c: a0 ff ff 90  	adrp	x0, 0xe000 <_ZN8ChxUtils18GetFlashFiredStateEP11ChiMetadata+0xbc>
   1a750: 83 ff ff d0  	adrp	x3, 0xc000 <_ZN8ChxUtils18GetFlashFiredStateEP11ChiMetadata+0xb8>
   1a754: 85 ff ff d0  	adrp	x5, 0xc000 <_ZN8ChxUtils18GetFlashFiredStateEP11ChiMetadata+0xbc>
   1a770: 74 46 00 94  	bl	0x2c140 <_ZN6ChiLog9LogSystemEPKcS1_S1_S1_iS1_z@plt>
   1a788: c1 00 00 54  	b.ne	0x1a7a0 <_ZN8ChxUtils18GetFlashFiredStateEP11ChiMetadata+0x140>
000000000001a7a8 <_ZN8ChxUtils17SetVendorTagValueEP11ChiMetadata9VendorTagjPv>:
   1a7c8: 62 47 00 94  	bl	0x2c550 <_ZN15ExtensionModule11GetInstanceEv@plt>
000000000001a800 <_ZN8ChxUtils12GetSceneModeEP11ChiMetadataPj>:
   1a84c: 08 02 00 b4  	cbz	x8, 0x1a88c <_ZN8ChxUtils12GetSceneModeEP11ChiMetadataPj+0x8c>
   1a878: a1 00 00 54  	b.ne	0x1a88c <_ZN8ChxUtils12GetSceneModeEP11ChiMetadataPj+0x8c>
   1a880: 69 00 00 b4  	cbz	x9, 0x1a88c <_ZN8ChxUtils12GetSceneModeEP11ChiMetadataPj+0x8c>
   1a88c: 31 47 00 94  	bl	0x2c550 <_ZN15ExtensionModule11GetInstanceEv@plt>
   1a8c0: a8 00 00 54  	b.hi	0x1a8d4 <_ZN8ChxUtils12GetSceneModeEP11ChiMetadataPj+0xd4>
   1a8c4: ac ff ff 90  	adrp	x12, 0xe000 <_ZN8ChxUtils12GetSceneModeEP11ChiMetadataPj+0x94>
   1a8e0: c1 00 00 54  	b.ne	0x1a8f8 <_ZN8ChxUtils12GetSceneModeEP11ChiMetadataPj+0xf8>
000000000001a900 <_ZN8ChxUtils13GetEffectModeEP11ChiMetadataPj>:
   1a944: 48 02 00 b4  	cbz	x8, 0x1a98c <_ZN8ChxUtils13GetEffectModeEP11ChiMetadataPj+0x8c>
   1a958: a2 00 00 54  	b.hs	0x1a96c <_ZN8ChxUtils13GetEffectModeEP11ChiMetadataPj+0x6c>
   1a95c: a9 ff ff 90  	adrp	x9, 0xe000 <_ZN8ChxUtils13GetEffectModeEP11ChiMetadataPj+0x2c>
   1a978: 41 01 00 54  	b.ne	0x1a9a0 <_ZN8ChxUtils13GetEffectModeEP11ChiMetadataPj+0xa0>
   1a998: 23 fe ff 54  	b.lo	0x1a95c <_ZN8ChxUtils13GetEffectModeEP11ChiMetadataPj+0x5c>
   1a99c: f4 ff ff 17  	b	0x1a96c <_ZN8ChxUtils13GetEffectModeEP11ChiMetadataPj+0x6c>
000000000001a9a8 <_ZN8ChxUtils15GetFeature1ModeEP11ChiMetadataPj>:
   1a9d0: e0 46 00 94  	bl	0x2c550 <_ZN15ExtensionModule11GetInstanceEv@plt>
   1a9f4: 08 01 00 b4  	cbz	x8, 0x1aa14 <_ZN8ChxUtils15GetFeature1ModeEP11ChiMetadataPj+0x6c>
   1aa00: 89 00 00 f0  	adrp	x9, 0x2d000 <_ZN8ChxUtils15GetFeature1ModeEP11ChiMetadataPj+0xa4>
   1aa0c: e8 00 30 37  	tbnz	w8, #6, 0x1aa28 <_ZN8ChxUtils15GetFeature1ModeEP11ChiMetadataPj+0x80>
   1aa10: 2e 00 00 14  	b	0x1aac8 <_ZN8ChxUtils15GetFeature1ModeEP11ChiMetadataPj+0x120>
   1aa18: 89 00 00 f0  	adrp	x9, 0x2d000 <_ZN8ChxUtils15GetFeature1ModeEP11ChiMetadataPj+0xbc>
   1aa24: 28 05 30 36  	tbz	w8, #6, 0x1aac8 <_ZN8ChxUtils15GetFeature1ModeEP11ChiMetadataPj+0x120>
   1aa28: 8a 00 00 f0  	adrp	x10, 0x2d000 <_ZN8ChxUtils15GetFeature1ModeEP11ChiMetadataPj+0xcc>
   1aa2c: 94 ff ff d0  	adrp	x20, 0xc000 <_ZN8ChxUtils15GetFeature1ModeEP11ChiMetadataPj+0x4c>
   1aa40: 21 02 00 54  	b.ne	0x1aa84 <_ZN8ChxUtils15GetFeature1ModeEP11ChiMetadataPj+0xdc>
   1aa58: 81 ff ff f0  	adrp	x1, 0xd000 <_ZN8ChxUtils15GetFeature1ModeEP11ChiMetadataPj+0x7c>
   1aa5c: a2 ff ff 90  	adrp	x2, 0xe000 <_ZN8ChxUtils15GetFeature1ModeEP11ChiMetadataPj+0x84>
   1aa60: 85 ff ff b0  	adrp	x5, 0xb000 <_ZN8ChxUtils15GetFeature1ModeEP11ChiMetadataPj+0x7c>
   1aa98: 61 ff ff f0  	adrp	x1, 0x9000 <_ZN8ChxUtils15GetFeature1ModeEP11ChiMetadataPj+0xac>
   1aaa0: 80 ff ff d0  	adrp	x0, 0xc000 <_ZN8ChxUtils15GetFeature1ModeEP11ChiMetadataPj+0xc0>
   1aaa4: 83 ff ff b0  	adrp	x3, 0xb000 <_ZN8ChxUtils15GetFeature1ModeEP11ChiMetadataPj+0xc0>
   1aaa8: 85 ff ff 90  	adrp	x5, 0xa000 <_ZN8ChxUtils15GetFeature1ModeEP11ChiMetadataPj+0xc0>
   1aac4: 9f 45 00 94  	bl	0x2c140 <_ZN6ChiLog9LogSystemEPKcS1_S1_S1_iS1_z@plt>
   1aad4: e1 00 00 54  	b.ne	0x1aaf0 <_ZN8ChxUtils15GetFeature1ModeEP11ChiMetadataPj+0x148>
000000000001aaf8 <_ZN8ChxUtils12FillCameraIdEP11ChiMetadataj>:
   1ab1c: c0 0e 00 b4  	cbz	x0, 0x1acf4 <_ZN8ChxUtils12FillCameraIdEP11ChiMetadataj+0x1fc>
   1ab30: 88 46 00 94  	bl	0x2c550 <_ZN15ExtensionModule11GetInstanceEv@plt>
   1ab54: 98 00 00 f0  	adrp	x24, 0x2d000 <_ZN8ChxUtils12FillCameraIdEP11ChiMetadataj+0xa8>
   1ab60: c8 00 00 b4  	cbz	x8, 0x1ab78 <_ZN8ChxUtils12FillCameraIdEP11ChiMetadataj+0x80>
   1ab74: 2d 00 00 14  	b	0x1ac28 <_ZN8ChxUtils12FillCameraIdEP11ChiMetadataj+0x130>
   1ab7c: 68 05 30 36  	tbz	w8, #6, 0x1ac28 <_ZN8ChxUtils12FillCameraIdEP11ChiMetadataj+0x130>
   1ab80: 89 00 00 f0  	adrp	x9, 0x2d000 <_ZN8ChxUtils12FillCameraIdEP11ChiMetadataj+0xd4>
   1ab90: 61 02 00 54  	b.ne	0x1abdc <_ZN8ChxUtils12FillCameraIdEP11ChiMetadataj+0xe4>
   1ab94: 96 ff ff d0  	adrp	x22, 0xc000 <_ZN8ChxUtils12FillCameraIdEP11ChiMetadataj+0x64>
   1abb0: 81 ff ff f0  	adrp	x1, 0xd000 <_ZN8ChxUtils12FillCameraIdEP11ChiMetadataj+0x84>
   1abb4: 82 ff ff f0  	adrp	x2, 0xd000 <_ZN8ChxUtils12FillCameraIdEP11ChiMetadataj+0x88>
   1abb8: 85 ff ff b0  	adrp	x5, 0xb000 <_ZN8ChxUtils12FillCameraIdEP11ChiMetadataj+0x84>
   1abdc: 96 ff ff d0  	adrp	x22, 0xc000 <_ZN8ChxUtils12FillCameraIdEP11ChiMetadataj+0xac>
   1abf8: 61 ff ff f0  	adrp	x1, 0x9000 <_ZN8ChxUtils12FillCameraIdEP11ChiMetadataj+0xbc>
   1ac00: 80 ff ff d0  	adrp	x0, 0xc000 <_ZN8ChxUtils12FillCameraIdEP11ChiMetadataj+0xd0>
   1ac04: 83 ff ff b0  	adrp	x3, 0xb000 <_ZN8ChxUtils12FillCameraIdEP11ChiMetadataj+0xd0>
   1ac08: 85 ff ff 90  	adrp	x5, 0xa000 <_ZN8ChxUtils12FillCameraIdEP11ChiMetadataj+0xd0>
   1ac24: 47 45 00 94  	bl	0x2c140 <_ZN6ChiLog9LogSystemEPKcS1_S1_S1_iS1_z@plt>
   1ac30: 29 05 30 36  	tbz	w9, #6, 0x1acd4 <_ZN8ChxUtils12FillCameraIdEP11ChiMetadataj+0x1dc>
   1ac34: 8a 00 00 f0  	adrp	x10, 0x2d000 <_ZN8ChxUtils12FillCameraIdEP11ChiMetadataj+0x188>
   1ac38: 95 ff ff d0  	adrp	x21, 0xc000 <_ZN8ChxUtils12FillCameraIdEP11ChiMetadataj+0x108>
   1ac4c: 21 02 00 54  	b.ne	0x1ac90 <_ZN8ChxUtils12FillCameraIdEP11ChiMetadataj+0x198>
   1ac64: 81 ff ff f0  	adrp	x1, 0xd000 <_ZN8ChxUtils12FillCameraIdEP11ChiMetadataj+0x138>
   1ac68: a2 ff ff 90  	adrp	x2, 0xe000 <_ZN8ChxUtils12FillCameraIdEP11ChiMetadataj+0x140>
   1ac6c: a5 ff ff 90  	adrp	x5, 0xe000 <_ZN8ChxUtils12FillCameraIdEP11ChiMetadataj+0x144>
   1aca4: 61 ff ff f0  	adrp	x1, 0x9000 <_ZN8ChxUtils12FillCameraIdEP11ChiMetadataj+0x168>
   1acac: 80 ff ff d0  	adrp	x0, 0xc000 <_ZN8ChxUtils12FillCameraIdEP11ChiMetadataj+0x17c>
   1acb0: a3 ff ff 90  	adrp	x3, 0xe000 <_ZN8ChxUtils12FillCameraIdEP11ChiMetadataj+0x188>
   1acb4: 85 ff ff 90  	adrp	x5, 0xa000 <_ZN8ChxUtils12FillCameraIdEP11ChiMetadataj+0x17c>
   1acd0: 1c 45 00 94  	bl	0x2c140 <_ZN6ChiLog9LogSystemEPKcS1_S1_S1_iS1_z@plt>
   1acd4: 1f 46 00 94  	bl	0x2c550 <_ZN15ExtensionModule11GetInstanceEv@plt>
   1ad00: e1 00 00 54  	b.ne	0x1ad1c <_ZN8ChxUtils12FillCameraIdEP11ChiMetadataj+0x224>
000000000001ad20 <_ZN8ChxUtils15GetFeatureValueEP23camera3_capture_requestPv26ChiModeFeature2SubModeType25ChiModeUsecaseSubModeTypeS3_>:
   1ad44: 03 46 00 94  	bl	0x2c550 <_ZN15ExtensionModule11GetInstanceEv@plt>
   1ad5c: 49 04 00 b4  	cbz	x9, 0x1ade4 <_ZN8ChxUtils15GetFeatureValueEP23camera3_capture_requestPv26ChiModeFeature2SubModeType25ChiModeUsecaseSubModeTypeS3_+0xc4>
   1ad68: 61 09 00 54  	b.ne	0x1ae94 <_ZN8ChxUtils15GetFeatureValueEP23camera3_capture_requestPv26ChiModeFeature2SubModeType25ChiModeUsecaseSubModeTypeS3_+0x174>
   1ad7c: c1 08 00 54  	b.ne	0x1ae94 <_ZN8ChxUtils15GetFeatureValueEP23camera3_capture_requestPv26ChiModeFeature2SubModeType25ChiModeUsecaseSubModeTypeS3_+0x174>
   1ad8c: 41 08 00 54  	b.ne	0x1ae94 <_ZN8ChxUtils15GetFeatureValueEP23camera3_capture_requestPv26ChiModeFeature2SubModeType25ChiModeUsecaseSubModeTypeS3_+0x174>
   1ada0: a1 07 00 54  	b.ne	0x1ae94 <_ZN8ChxUtils15GetFeatureValueEP23camera3_capture_requestPv26ChiModeFeature2SubModeType25ChiModeUsecaseSubModeTypeS3_+0x174>
   1adb0: 21 07 00 54  	b.ne	0x1ae94 <_ZN8ChxUtils15GetFeatureValueEP23camera3_capture_requestPv26ChiModeFeature2SubModeType25ChiModeUsecaseSubModeTypeS3_+0x174>
   1adbc: c0 06 00 54  	b.eq	0x1ae94 <_ZN8ChxUtils15GetFeatureValueEP23camera3_capture_requestPv26ChiModeFeature2SubModeType25ChiModeUsecaseSubModeTypeS3_+0x174>
   1adc0: a8 06 00 35  	cbnz	w8, 0x1ae94 <_ZN8ChxUtils15GetFeatureValueEP23camera3_capture_requestPv26ChiModeFeature2SubModeType25ChiModeUsecaseSubModeTypeS3_+0x174>
   1add0: 20 06 00 54  	b.eq	0x1ae94 <_ZN8ChxUtils15GetFeatureValueEP23camera3_capture_requestPv26ChiModeFeature2SubModeType25ChiModeUsecaseSubModeTypeS3_+0x174>
   1add8: e9 05 00 35  	cbnz	w9, 0x1ae94 <_ZN8ChxUtils15GetFeatureValueEP23camera3_capture_requestPv26ChiModeFeature2SubModeType25ChiModeUsecaseSubModeTypeS3_+0x174>
   1ade0: a4 02 00 14  	b	0x1b870 <_ZN8ChxUtils15GetFeatureValueEP23camera3_capture_requestPv26ChiModeFeature2SubModeType25ChiModeUsecaseSubModeTypeS3_+0xb50>
   1ade4: 80 00 00 f0  	adrp	x0, 0x2d000 <_ZN8ChxUtils15GetFeatureValueEP23camera3_capture_requestPv26ChiModeFeature2SubModeType25ChiModeUsecaseSubModeTypeS3_+0x110>
   1adf0: 28 05 00 36  	tbz	w8, #0, 0x1ae94 <_ZN8ChxUtils15GetFeatureValueEP23camera3_capture_requestPv26ChiModeFeature2SubModeType25ChiModeUsecaseSubModeTypeS3_+0x174>
   1adf4: 88 00 00 f0  	adrp	x8, 0x2d000 <_ZN8ChxUtils15GetFeatureValueEP23camera3_capture_requestPv26ChiModeFeature2SubModeType25ChiModeUsecaseSubModeTypeS3_+0x120>
   1adf8: 97 ff ff d0  	adrp	x23, 0xc000 <_ZN8ChxUtils15GetFeatureValueEP23camera3_capture_requestPv26ChiModeFeature2SubModeType25ChiModeUsecaseSubModeTypeS3_+0xa0>
   1ae0c: 21 02 00 54  	b.ne	0x1ae50 <_ZN8ChxUtils15GetFeatureValueEP23camera3_capture_requestPv26ChiModeFeature2SubModeType25ChiModeUsecaseSubModeTypeS3_+0x130>
   1ae28: 81 ff ff f0  	adrp	x1, 0xd000 <_ZN8ChxUtils15GetFeatureValueEP23camera3_capture_requestPv26ChiModeFeature2SubModeType25ChiModeUsecaseSubModeTypeS3_+0xd4>
   1ae2c: a2 ff ff 90  	adrp	x2, 0xe000 <_ZN8ChxUtils15GetFeatureValueEP23camera3_capture_requestPv26ChiModeFeature2SubModeType25ChiModeUsecaseSubModeTypeS3_+0xdc>
   1ae30: 85 ff ff f0  	adrp	x5, 0xd000 <_ZN8ChxUtils15GetFeatureValueEP23camera3_capture_requestPv26ChiModeFeature2SubModeType25ChiModeUsecaseSubModeTypeS3_+0xdc>
   1ae6c: 60 ff ff f0  	adrp	x0, 0x9000 <_ZN8ChxUtils15GetFeatureValueEP23camera3_capture_requestPv26ChiModeFeature2SubModeType25ChiModeUsecaseSubModeTypeS3_+0x108>
   1ae70: 81 ff ff f0  	adrp	x1, 0xd000 <_ZN8ChxUtils15GetFeatureValueEP23camera3_capture_requestPv26ChiModeFeature2SubModeType25ChiModeUsecaseSubModeTypeS3_+0x11c>
   1ae74: 83 ff ff f0  	adrp	x3, 0xd000 <_ZN8ChxUtils15GetFeatureValueEP23camera3_capture_requestPv26ChiModeFeature2SubModeType25ChiModeUsecaseSubModeTypeS3_+0x120>
   1ae78: 85 ff ff f0  	adrp	x5, 0xd000 <_ZN8ChxUtils15GetFeatureValueEP23camera3_capture_requestPv26ChiModeFeature2SubModeType25ChiModeUsecaseSubModeTypeS3_+0x124>
   1ae90: ac 44 00 94  	bl	0x2c140 <_ZN6ChiLog9LogSystemEPKcS1_S1_S1_iS1_z@plt>
   1ae9c: 21 02 00 54  	b.ne	0x1aee0 <_ZN8ChxUtils15GetFeatureValueEP23camera3_capture_requestPv26ChiModeFeature2SubModeType25ChiModeUsecaseSubModeTypeS3_+0x1c0>
   1aea4: 89 02 00 34  	cbz	w9, 0x1aef4 <_ZN8ChxUtils15GetFeatureValueEP23camera3_capture_requestPv26ChiModeFeature2SubModeType25ChiModeUsecaseSubModeTypeS3_+0x1d4>
   1aed8: 01 ff ff 54  	b.ne	0x1aeb8 <_ZN8ChxUtils15GetFeatureValueEP23camera3_capture_requestPv26ChiModeFeature2SubModeType25ChiModeUsecaseSubModeTypeS3_+0x198>
   1aedc: 08 00 00 14  	b	0x1aefc <_ZN8ChxUtils15GetFeatureValueEP23camera3_capture_requestPv26ChiModeFeature2SubModeType25ChiModeUsecaseSubModeTypeS3_+0x1dc>
   1aef0: 60 02 00 14  	b	0x1b870 <_ZN8ChxUtils15GetFeatureValueEP23camera3_capture_requestPv26ChiModeFeature2SubModeType25ChiModeUsecaseSubModeTypeS3_+0xb50>
   1aefc: b6 00 00 f0  	adrp	x22, 0x31000 <_ZN8ChxUtils15GetFeatureValueEP23camera3_capture_requestPv26ChiModeFeature2SubModeType25ChiModeUsecaseSubModeTypeS3_+0x238>
   1af0c: c8 02 00 b4  	cbz	x8, 0x1af64 <_ZN8ChxUtils15GetFeatureValueEP23camera3_capture_requestPv26ChiModeFeature2SubModeType25ChiModeUsecaseSubModeTypeS3_+0x244>
   1af14: 05 00 00 14  	b	0x1af28 <_ZN8ChxUtils15GetFeatureValueEP23camera3_capture_requestPv26ChiModeFeature2SubModeType25ChiModeUsecaseSubModeTypeS3_+0x208>
   1af1c: aa 04 00 b4  	cbz	x10, 0x1afb0 <_ZN8ChxUtils15GetFeatureValueEP23camera3_capture_requestPv26ChiModeFeature2SubModeType25ChiModeUsecaseSubModeTypeS3_+0x290>
   1af30: 4a ff ff 54  	b.ge	0x1af18 <_ZN8ChxUtils15GetFeatureValueEP23camera3_capture_requestPv26ChiModeFeature2SubModeType25ChiModeUsecaseSubModeTypeS3_+0x1f8>
   1af38: 80 00 00 54  	b.eq	0x1af48 <_ZN8ChxUtils15GetFeatureValueEP23camera3_capture_requestPv26ChiModeFeature2SubModeType25ChiModeUsecaseSubModeTypeS3_+0x228>
   1af44: 0a ff ff b5  	cbnz	x10, 0x1af24 <_ZN8ChxUtils15GetFeatureValueEP23camera3_capture_requestPv26ChiModeFeature2SubModeType25ChiModeUsecaseSubModeTypeS3_+0x204>
   1af50: 13 01 00 b4  	cbz	x19, 0x1af70 <_ZN8ChxUtils15GetFeatureValueEP23camera3_capture_requestPv26ChiModeFeature2SubModeType25ChiModeUsecaseSubModeTypeS3_+0x250>
   1af5c: 68 04 00 54  	b.hi	0x1afe8 <_ZN8ChxUtils15GetFeatureValueEP23camera3_capture_requestPv26ChiModeFeature2SubModeType25ChiModeUsecaseSubModeTypeS3_+0x2c8>
   1af60: ad 00 00 14  	b	0x1b214 <_ZN8ChxUtils15GetFeatureValueEP23camera3_capture_requestPv26ChiModeFeature2SubModeType25ChiModeUsecaseSubModeTypeS3_+0x4f4>
   1af6c: 53 ff ff b5  	cbnz	x19, 0x1af54 <_ZN8ChxUtils15GetFeatureValueEP23camera3_capture_requestPv26ChiModeFeature2SubModeType25ChiModeUsecaseSubModeTypeS3_+0x234>
   1afa0: 22 01 00 b4  	cbz	x2, 0x1afc4 <_ZN8ChxUtils15GetFeatureValueEP23camera3_capture_requestPv26ChiModeFeature2SubModeType25ChiModeUsecaseSubModeTypeS3_+0x2a4>
   1afac: 07 00 00 14  	b	0x1afc8 <_ZN8ChxUtils15GetFeatureValueEP23camera3_capture_requestPv26ChiModeFeature2SubModeType25ChiModeUsecaseSubModeTypeS3_+0x2a8>
   1afbc: d3 fc ff b5  	cbnz	x19, 0x1af54 <_ZN8ChxUtils15GetFeatureValueEP23camera3_capture_requestPv26ChiModeFeature2SubModeType25ChiModeUsecaseSubModeTypeS3_+0x234>
   1afc0: ec ff ff 17  	b	0x1af70 <_ZN8ChxUtils15GetFeatureValueEP23camera3_capture_requestPv26ChiModeFeature2SubModeType25ChiModeUsecaseSubModeTypeS3_+0x250>
   1afcc: cf 12 00 94  	bl	0x1fb08 <_ZN8ChxUtils11GetTotalRamEv+0x480>
   1afe4: 89 11 00 54  	b.ls	0x1b214 <_ZN8ChxUtils15GetFeatureValueEP23camera3_capture_requestPv26ChiModeFeature2SubModeType25ChiModeUsecaseSubModeTypeS3_+0x4f4>
   1aff0: c9 02 00 b4  	cbz	x9, 0x1b048 <_ZN8ChxUtils15GetFeatureValueEP23camera3_capture_requestPv26ChiModeFeature2SubModeType25ChiModeUsecaseSubModeTypeS3_+0x328>
   1aff8: 05 00 00 14  	b	0x1b00c <_ZN8ChxUtils15GetFeatureValueEP23camera3_capture_requestPv26ChiModeFeature2SubModeType25ChiModeUsecaseSubModeTypeS3_+0x2ec>
   1b000: ab 04 00 b4  	cbz	x11, 0x1b094 <_ZN8ChxUtils15GetFeatureValueEP23camera3_capture_requestPv26ChiModeFeature2SubModeType25ChiModeUsecaseSubModeTypeS3_+0x374>
   1b014: 4a ff ff 54  	b.ge	0x1affc <_ZN8ChxUtils15GetFeatureValueEP23camera3_capture_requestPv26ChiModeFeature2SubModeType25ChiModeUsecaseSubModeTypeS3_+0x2dc>
   1b01c: 80 00 00 54  	b.eq	0x1b02c <_ZN8ChxUtils15GetFeatureValueEP23camera3_capture_requestPv26ChiModeFeature2SubModeType25ChiModeUsecaseSubModeTypeS3_+0x30c>
   1b028: 0b ff ff b5  	cbnz	x11, 0x1b008 <_ZN8ChxUtils15GetFeatureValueEP23camera3_capture_requestPv26ChiModeFeature2SubModeType25ChiModeUsecaseSubModeTypeS3_+0x2e8>
   1b034: 13 01 00 b4  	cbz	x19, 0x1b054 <_ZN8ChxUtils15GetFeatureValueEP23camera3_capture_requestPv26ChiModeFeature2SubModeType25ChiModeUsecaseSubModeTypeS3_+0x334>
   1b040: 69 04 00 54  	b.ls	0x1b0cc <_ZN8ChxUtils15GetFeatureValueEP23camera3_capture_requestPv26ChiModeFeature2SubModeType25ChiModeUsecaseSubModeTypeS3_+0x3ac>
   1b044: 74 00 00 14  	b	0x1b214 <_ZN8ChxUtils15GetFeatureValueEP23camera3_capture_requestPv26ChiModeFeature2SubModeType25ChiModeUsecaseSubModeTypeS3_+0x4f4>
   1b050: 53 ff ff b5  	cbnz	x19, 0x1b038 <_ZN8ChxUtils15GetFeatureValueEP23camera3_capture_requestPv26ChiModeFeature2SubModeType25ChiModeUsecaseSubModeTypeS3_+0x318>
   1b084: 23 01 00 b4  	cbz	x3, 0x1b0a8 <_ZN8ChxUtils15GetFeatureValueEP23camera3_capture_requestPv26ChiModeFeature2SubModeType25ChiModeUsecaseSubModeTypeS3_+0x388>
   1b090: 07 00 00 14  	b	0x1b0ac <_ZN8ChxUtils15GetFeatureValueEP23camera3_capture_requestPv26ChiModeFeature2SubModeType25ChiModeUsecaseSubModeTypeS3_+0x38c>
   1b0a0: d3 fc ff b5  	cbnz	x19, 0x1b038 <_ZN8ChxUtils15GetFeatureValueEP23camera3_capture_requestPv26ChiModeFeature2SubModeType25ChiModeUsecaseSubModeTypeS3_+0x318>
   1b0a4: ec ff ff 17  	b	0x1b054 <_ZN8ChxUtils15GetFeatureValueEP23camera3_capture_requestPv26ChiModeFeature2SubModeType25ChiModeUsecaseSubModeTypeS3_+0x334>
   1b0b0: 96 12 00 94  	bl	0x1fb08 <_ZN8ChxUtils11GetTotalRamEv+0x480>
   1b0c8: 68 0a 00 54  	b.hi	0x1b214 <_ZN8ChxUtils15GetFeatureValueEP23camera3_capture_requestPv26ChiModeFeature2SubModeType25ChiModeUsecaseSubModeTypeS3_+0x4f4>
   1b0d4: ea 02 00 b4  	cbz	x10, 0x1b130 <_ZN8ChxUtils15GetFeatureValueEP23camera3_capture_requestPv26ChiModeFeature2SubModeType25ChiModeUsecaseSubModeTypeS3_+0x410>
   1b0dc: 02 00 00 14  	b	0x1b0e4 <_ZN8ChxUtils15GetFeatureValueEP23camera3_capture_requestPv26ChiModeFeature2SubModeType25ChiModeUsecaseSubModeTypeS3_+0x3c4>
   1b0ec: ab 00 00 54  	b.lt	0x1b100 <_ZN8ChxUtils15GetFeatureValueEP23camera3_capture_requestPv26ChiModeFeature2SubModeType25ChiModeUsecaseSubModeTypeS3_+0x3e0>
   1b0f4: 4c 04 00 b4  	cbz	x12, 0x1b17c <_ZN8ChxUtils15GetFeatureValueEP23camera3_capture_requestPv26ChiModeFeature2SubModeType25ChiModeUsecaseSubModeTypeS3_+0x45c>
   1b0fc: f9 ff ff 17  	b	0x1b0e0 <_ZN8ChxUtils15GetFeatureValueEP23camera3_capture_requestPv26ChiModeFeature2SubModeType25ChiModeUsecaseSubModeTypeS3_+0x3c0>
   1b104: 80 00 00 54  	b.eq	0x1b114 <_ZN8ChxUtils15GetFeatureValueEP23camera3_capture_requestPv26ChiModeFeature2SubModeType25ChiModeUsecaseSubModeTypeS3_+0x3f4>
   1b110: 8c fe ff b5  	cbnz	x12, 0x1b0e0 <_ZN8ChxUtils15GetFeatureValueEP23camera3_capture_requestPv26ChiModeFeature2SubModeType25ChiModeUsecaseSubModeTypeS3_+0x3c0>
   1b11c: 13 01 00 b4  	cbz	x19, 0x1b13c <_ZN8ChxUtils15GetFeatureValueEP23camera3_capture_requestPv26ChiModeFeature2SubModeType25ChiModeUsecaseSubModeTypeS3_+0x41c>
   1b128: 68 04 00 54  	b.hi	0x1b1b4 <_ZN8ChxUtils15GetFeatureValueEP23camera3_capture_requestPv26ChiModeFeature2SubModeType25ChiModeUsecaseSubModeTypeS3_+0x494>
   1b12c: 3a 00 00 14  	b	0x1b214 <_ZN8ChxUtils15GetFeatureValueEP23camera3_capture_requestPv26ChiModeFeature2SubModeType25ChiModeUsecaseSubModeTypeS3_+0x4f4>
   1b138: 53 ff ff b5  	cbnz	x19, 0x1b120 <_ZN8ChxUtils15GetFeatureValueEP23camera3_capture_requestPv26ChiModeFeature2SubModeType25ChiModeUsecaseSubModeTypeS3_+0x400>
   1b16c: 25 01 00 b4  	cbz	x5, 0x1b190 <_ZN8ChxUtils15GetFeatureValueEP23camera3_capture_requestPv26ChiModeFeature2SubModeType25ChiModeUsecaseSubModeTypeS3_+0x470>
   1b178: 07 00 00 14  	b	0x1b194 <_ZN8ChxUtils15GetFeatureValueEP23camera3_capture_requestPv26ChiModeFeature2SubModeType25ChiModeUsecaseSubModeTypeS3_+0x474>
   1b188: d3 fc ff b5  	cbnz	x19, 0x1b120 <_ZN8ChxUtils15GetFeatureValueEP23camera3_capture_requestPv26ChiModeFeature2SubModeType25ChiModeUsecaseSubModeTypeS3_+0x400>
   1b18c: ec ff ff 17  	b	0x1b13c <_ZN8ChxUtils15GetFeatureValueEP23camera3_capture_requestPv26ChiModeFeature2SubModeType25ChiModeUsecaseSubModeTypeS3_+0x41c>
   1b198: 5c 12 00 94  	bl	0x1fb08 <_ZN8ChxUtils11GetTotalRamEv+0x480>
   1b1b0: 29 03 00 54  	b.ls	0x1b214 <_ZN8ChxUtils15GetFeatureValueEP23camera3_capture_requestPv26ChiModeFeature2SubModeType25ChiModeUsecaseSubModeTypeS3_+0x4f4>
   1b1bc: 4b 17 00 b4  	cbz	x11, 0x1b4a4 <_ZN8ChxUtils15GetFeatureValueEP23camera3_capture_requestPv26ChiModeFeature2SubModeType25ChiModeUsecaseSubModeTypeS3_+0x784>
   1b1c4: 02 00 00 14  	b	0x1b1cc <_ZN8ChxUtils15GetFeatureValueEP23camera3_capture_requestPv26ChiModeFeature2SubModeType25ChiModeUsecaseSubModeTypeS3_+0x4ac>
   1b1d4: ab 00 00 54  	b.lt	0x1b1e8 <_ZN8ChxUtils15GetFeatureValueEP23camera3_capture_requestPv26ChiModeFeature2SubModeType25ChiModeUsecaseSubModeTypeS3_+0x4c8>
   1b1dc: 8d 1b 00 b4  	cbz	x13, 0x1b54c <_ZN8ChxUtils15GetFeatureValueEP23camera3_capture_requestPv26ChiModeFeature2SubModeType25ChiModeUsecaseSubModeTypeS3_+0x82c>
   1b1e4: f9 ff ff 17  	b	0x1b1c8 <_ZN8ChxUtils15GetFeatureValueEP23camera3_capture_requestPv26ChiModeFeature2SubModeType25ChiModeUsecaseSubModeTypeS3_+0x4a8>
   1b1ec: 80 00 00 54  	b.eq	0x1b1fc <_ZN8ChxUtils15GetFeatureValueEP23camera3_capture_requestPv26ChiModeFeature2SubModeType25ChiModeUsecaseSubModeTypeS3_+0x4dc>
   1b1f8: 8d fe ff b5  	cbnz	x13, 0x1b1c8 <_ZN8ChxUtils15GetFeatureValueEP23camera3_capture_requestPv26ChiModeFeature2SubModeType25ChiModeUsecaseSubModeTypeS3_+0x4a8>
   1b204: d3 1a 00 b4  	cbz	x19, 0x1b55c <_ZN8ChxUtils15GetFeatureValueEP23camera3_capture_requestPv26ChiModeFeature2SubModeType25ChiModeUsecaseSubModeTypeS3_+0x83c>
   1b210: 09 20 00 54  	b.ls	0x1b610 <_ZN8ChxUtils15GetFeatureValueEP23camera3_capture_requestPv26ChiModeFeature2SubModeType25ChiModeUsecaseSubModeTypeS3_+0x8f0>
   1b21c: ec 02 00 b4  	cbz	x12, 0x1b278 <_ZN8ChxUtils15GetFeatureValueEP23camera3_capture_requestPv26ChiModeFeature2SubModeType25ChiModeUsecaseSubModeTypeS3_+0x558>
   1b224: 02 00 00 14  	b	0x1b22c <_ZN8ChxUtils15GetFeatureValueEP23camera3_capture_requestPv26ChiModeFeature2SubModeType25ChiModeUsecaseSubModeTypeS3_+0x50c>
   1b234: ab 00 00 54  	b.lt	0x1b248 <_ZN8ChxUtils15GetFeatureValueEP23camera3_capture_requestPv26ChiModeFeature2SubModeType25ChiModeUsecaseSubModeTypeS3_+0x528>
   1b23c: 4e 04 00 b4  	cbz	x14, 0x1b2c4 <_ZN8ChxUtils15GetFeatureValueEP23camera3_capture_requestPv26ChiModeFeature2SubModeType25ChiModeUsecaseSubModeTypeS3_+0x5a4>
   1b244: f9 ff ff 17  	b	0x1b228 <_ZN8ChxUtils15GetFeatureValueEP23camera3_capture_requestPv26ChiModeFeature2SubModeType25ChiModeUsecaseSubModeTypeS3_+0x508>
   1b24c: 80 00 00 54  	b.eq	0x1b25c <_ZN8ChxUtils15GetFeatureValueEP23camera3_capture_requestPv26ChiModeFeature2SubModeType25ChiModeUsecaseSubModeTypeS3_+0x53c>
   1b258: 8e fe ff b5  	cbnz	x14, 0x1b228 <_ZN8ChxUtils15GetFeatureValueEP23camera3_capture_requestPv26ChiModeFeature2SubModeType25ChiModeUsecaseSubModeTypeS3_+0x508>
   1b264: 13 01 00 b4  	cbz	x19, 0x1b284 <_ZN8ChxUtils15GetFeatureValueEP23camera3_capture_requestPv26ChiModeFeature2SubModeType25ChiModeUsecaseSubModeTypeS3_+0x564>
   1b270: 68 04 00 54  	b.hi	0x1b2fc <_ZN8ChxUtils15GetFeatureValueEP23camera3_capture_requestPv26ChiModeFeature2SubModeType25ChiModeUsecaseSubModeTypeS3_+0x5dc>
   1b274: f2 00 00 14  	b	0x1b63c <_ZN8ChxUtils15GetFeatureValueEP23camera3_capture_requestPv26ChiModeFeature2SubModeType25ChiModeUsecaseSubModeTypeS3_+0x91c>
   1b280: 53 ff ff b5  	cbnz	x19, 0x1b268 <_ZN8ChxUtils15GetFeatureValueEP23camera3_capture_requestPv26ChiModeFeature2SubModeType25ChiModeUsecaseSubModeTypeS3_+0x548>
   1b2b4: 28 01 00 b4  	cbz	x8, 0x1b2d8 <_ZN8ChxUtils15GetFeatureValueEP23camera3_capture_requestPv26ChiModeFeature2SubModeType25ChiModeUsecaseSubModeTypeS3_+0x5b8>
   1b2c0: 07 00 00 14  	b	0x1b2dc <_ZN8ChxUtils15GetFeatureValueEP23camera3_capture_requestPv26ChiModeFeature2SubModeType25ChiModeUsecaseSubModeTypeS3_+0x5bc>
   1b2d0: d3 fc ff b5  	cbnz	x19, 0x1b268 <_ZN8ChxUtils15GetFeatureValueEP23camera3_capture_requestPv26ChiModeFeature2SubModeType25ChiModeUsecaseSubModeTypeS3_+0x548>
   1b2d4: ec ff ff 17  	b	0x1b284 <_ZN8ChxUtils15GetFeatureValueEP23camera3_capture_requestPv26ChiModeFeature2SubModeType25ChiModeUsecaseSubModeTypeS3_+0x564>
   1b2e0: 0a 12 00 94  	bl	0x1fb08 <_ZN8ChxUtils11GetTotalRamEv+0x480>
   1b2f8: 29 1a 00 54  	b.ls	0x1b63c <_ZN8ChxUtils15GetFeatureValueEP23camera3_capture_requestPv26ChiModeFeature2SubModeType25ChiModeUsecaseSubModeTypeS3_+0x91c>
   1b304: ed 02 00 b4  	cbz	x13, 0x1b360 <_ZN8ChxUtils15GetFeatureValueEP23camera3_capture_requestPv26ChiModeFeature2SubModeType25ChiModeUsecaseSubModeTypeS3_+0x640>
   1b30c: 02 00 00 14  	b	0x1b314 <_ZN8ChxUtils15GetFeatureValueEP23camera3_capture_requestPv26ChiModeFeature2SubModeType25ChiModeUsecaseSubModeTypeS3_+0x5f4>
   1b31c: ab 00 00 54  	b.lt	0x1b330 <_ZN8ChxUtils15GetFeatureValueEP23camera3_capture_requestPv26ChiModeFeature2SubModeType25ChiModeUsecaseSubModeTypeS3_+0x610>
   1b324: 4f 04 00 b4  	cbz	x15, 0x1b3ac <_ZN8ChxUtils15GetFeatureValueEP23camera3_capture_requestPv26ChiModeFeature2SubModeType25ChiModeUsecaseSubModeTypeS3_+0x68c>
   1b32c: f9 ff ff 17  	b	0x1b310 <_ZN8ChxUtils15GetFeatureValueEP23camera3_capture_requestPv26ChiModeFeature2SubModeType25ChiModeUsecaseSubModeTypeS3_+0x5f0>
   1b334: 80 00 00 54  	b.eq	0x1b344 <_ZN8ChxUtils15GetFeatureValueEP23camera3_capture_requestPv26ChiModeFeature2SubModeType25ChiModeUsecaseSubModeTypeS3_+0x624>
   1b340: 8f fe ff b5  	cbnz	x15, 0x1b310 <_ZN8ChxUtils15GetFeatureValueEP23camera3_capture_requestPv26ChiModeFeature2SubModeType25ChiModeUsecaseSubModeTypeS3_+0x5f0>
   1b34c: 13 01 00 b4  	cbz	x19, 0x1b36c <_ZN8ChxUtils15GetFeatureValueEP23camera3_capture_requestPv26ChiModeFeature2SubModeType25ChiModeUsecaseSubModeTypeS3_+0x64c>
   1b358: 28 17 00 54  	b.hi	0x1b63c <_ZN8ChxUtils15GetFeatureValueEP23camera3_capture_requestPv26ChiModeFeature2SubModeType25ChiModeUsecaseSubModeTypeS3_+0x91c>
   1b35c: 22 00 00 14  	b	0x1b3e4 <_ZN8ChxUtils15GetFeatureValueEP23camera3_capture_requestPv26ChiModeFeature2SubModeType25ChiModeUsecaseSubModeTypeS3_+0x6c4>
   1b368: 53 ff ff b5  	cbnz	x19, 0x1b350 <_ZN8ChxUtils15GetFeatureValueEP23camera3_capture_requestPv26ChiModeFeature2SubModeType25ChiModeUsecaseSubModeTypeS3_+0x630>
   1b39c: 29 01 00 b4  	cbz	x9, 0x1b3c0 <_ZN8ChxUtils15GetFeatureValueEP23camera3_capture_requestPv26ChiModeFeature2SubModeType25ChiModeUsecaseSubModeTypeS3_+0x6a0>
   1b3a8: 07 00 00 14  	b	0x1b3c4 <_ZN8ChxUtils15GetFeatureValueEP23camera3_capture_requestPv26ChiModeFeature2SubModeType25ChiModeUsecaseSubModeTypeS3_+0x6a4>
   1b3b8: d3 fc ff b5  	cbnz	x19, 0x1b350 <_ZN8ChxUtils15GetFeatureValueEP23camera3_capture_requestPv26ChiModeFeature2SubModeType25ChiModeUsecaseSubModeTypeS3_+0x630>
   1b3bc: ec ff ff 17  	b	0x1b36c <_ZN8ChxUtils15GetFeatureValueEP23camera3_capture_requestPv26ChiModeFeature2SubModeType25ChiModeUsecaseSubModeTypeS3_+0x64c>
   1b3c8: d0 11 00 94  	bl	0x1fb08 <_ZN8ChxUtils11GetTotalRamEv+0x480>
   1b3e0: e8 12 00 54  	b.hi	0x1b63c <_ZN8ChxUtils15GetFeatureValueEP23camera3_capture_requestPv26ChiModeFeature2SubModeType25ChiModeUsecaseSubModeTypeS3_+0x91c>
   1b3ec: ce 02 00 b4  	cbz	x14, 0x1b444 <_ZN8ChxUtils15GetFeatureValueEP23camera3_capture_requestPv26ChiModeFeature2SubModeType25ChiModeUsecaseSubModeTypeS3_+0x724>
   1b3f4: 05 00 00 14  	b	0x1b408 <_ZN8ChxUtils15GetFeatureValueEP23camera3_capture_requestPv26ChiModeFeature2SubModeType25ChiModeUsecaseSubModeTypeS3_+0x6e8>
   1b3fc: b0 04 00 b4  	cbz	x16, 0x1b490 <_ZN8ChxUtils15GetFeatureValueEP23camera3_capture_requestPv26ChiModeFeature2SubModeType25ChiModeUsecaseSubModeTypeS3_+0x770>
   1b410: 4a ff ff 54  	b.ge	0x1b3f8 <_ZN8ChxUtils15GetFeatureValueEP23camera3_capture_requestPv26ChiModeFeature2SubModeType25ChiModeUsecaseSubModeTypeS3_+0x6d8>
   1b418: 80 00 00 54  	b.eq	0x1b428 <_ZN8ChxUtils15GetFeatureValueEP23camera3_capture_requestPv26ChiModeFeature2SubModeType25ChiModeUsecaseSubModeTypeS3_+0x708>
   1b424: 10 ff ff b5  	cbnz	x16, 0x1b404 <_ZN8ChxUtils15GetFeatureValueEP23camera3_capture_requestPv26ChiModeFeature2SubModeType25ChiModeUsecaseSubModeTypeS3_+0x6e4>
   1b430: 13 01 00 b4  	cbz	x19, 0x1b450 <_ZN8ChxUtils15GetFeatureValueEP23camera3_capture_requestPv26ChiModeFeature2SubModeType25ChiModeUsecaseSubModeTypeS3_+0x730>
   1b43c: 03 10 00 54  	b.lo	0x1b63c <_ZN8ChxUtils15GetFeatureValueEP23camera3_capture_requestPv26ChiModeFeature2SubModeType25ChiModeUsecaseSubModeTypeS3_+0x91c>
   1b440: 26 00 00 14  	b	0x1b4d8 <_ZN8ChxUtils15GetFeatureValueEP23camera3_capture_requestPv26ChiModeFeature2SubModeType25ChiModeUsecaseSubModeTypeS3_+0x7b8>
   1b44c: 53 ff ff b5  	cbnz	x19, 0x1b434 <_ZN8ChxUtils15GetFeatureValueEP23camera3_capture_requestPv26ChiModeFeature2SubModeType25ChiModeUsecaseSubModeTypeS3_+0x714>
   1b480: aa 01 00 b4  	cbz	x10, 0x1b4b4 <_ZN8ChxUtils15GetFeatureValueEP23camera3_capture_requestPv26ChiModeFeature2SubModeType25ChiModeUsecaseSubModeTypeS3_+0x794>
   1b48c: 0b 00 00 14  	b	0x1b4b8 <_ZN8ChxUtils15GetFeatureValueEP23camera3_capture_requestPv26ChiModeFeature2SubModeType25ChiModeUsecaseSubModeTypeS3_+0x798>
   1b49c: d3 fc ff b5  	cbnz	x19, 0x1b434 <_ZN8ChxUtils15GetFeatureValueEP23camera3_capture_requestPv26ChiModeFeature2SubModeType25ChiModeUsecaseSubModeTypeS3_+0x714>
   1b4a0: ec ff ff 17  	b	0x1b450 <_ZN8ChxUtils15GetFeatureValueEP23camera3_capture_requestPv26ChiModeFeature2SubModeType25ChiModeUsecaseSubModeTypeS3_+0x730>
   1b4ac: f3 ea ff b5  	cbnz	x19, 0x1b208 <_ZN8ChxUtils15GetFeatureValueEP23camera3_capture_requestPv26ChiModeFeature2SubModeType25ChiModeUsecaseSubModeTypeS3_+0x4e8>
   1b4b0: 2b 00 00 14  	b	0x1b55c <_ZN8ChxUtils15GetFeatureValueEP23camera3_capture_requestPv26ChiModeFeature2SubModeType25ChiModeUsecaseSubModeTypeS3_+0x83c>
   1b4bc: 93 11 00 94  	bl	0x1fb08 <_ZN8ChxUtils11GetTotalRamEv+0x480>
   1b4d4: 43 0b 00 54  	b.lo	0x1b63c <_ZN8ChxUtils15GetFeatureValueEP23camera3_capture_requestPv26ChiModeFeature2SubModeType25ChiModeUsecaseSubModeTypeS3_+0x91c>
   1b4e0: ef 02 00 b4  	cbz	x15, 0x1b53c <_ZN8ChxUtils15GetFeatureValueEP23camera3_capture_requestPv26ChiModeFeature2SubModeType25ChiModeUsecaseSubModeTypeS3_+0x81c>
   1b4e8: 02 00 00 14  	b	0x1b4f0 <_ZN8ChxUtils15GetFeatureValueEP23camera3_capture_requestPv26ChiModeFeature2SubModeType25ChiModeUsecaseSubModeTypeS3_+0x7d0>
   1b4f8: ab 00 00 54  	b.lt	0x1b50c <_ZN8ChxUtils15GetFeatureValueEP23camera3_capture_requestPv26ChiModeFeature2SubModeType25ChiModeUsecaseSubModeTypeS3_+0x7ec>
   1b500: f1 04 00 b4  	cbz	x17, 0x1b59c <_ZN8ChxUtils15GetFeatureValueEP23camera3_capture_requestPv26ChiModeFeature2SubModeType25ChiModeUsecaseSubModeTypeS3_+0x87c>
   1b508: f9 ff ff 17  	b	0x1b4ec <_ZN8ChxUtils15GetFeatureValueEP23camera3_capture_requestPv26ChiModeFeature2SubModeType25ChiModeUsecaseSubModeTypeS3_+0x7cc>
   1b510: 80 00 00 54  	b.eq	0x1b520 <_ZN8ChxUtils15GetFeatureValueEP23camera3_capture_requestPv26ChiModeFeature2SubModeType25ChiModeUsecaseSubModeTypeS3_+0x800>
   1b51c: 91 fe ff b5  	cbnz	x17, 0x1b4ec <_ZN8ChxUtils15GetFeatureValueEP23camera3_capture_requestPv26ChiModeFeature2SubModeType25ChiModeUsecaseSubModeTypeS3_+0x7cc>
   1b528: 33 04 00 b4  	cbz	x19, 0x1b5ac <_ZN8ChxUtils15GetFeatureValueEP23camera3_capture_requestPv26ChiModeFeature2SubModeType25ChiModeUsecaseSubModeTypeS3_+0x88c>
   1b534: 42 08 00 54  	b.hs	0x1b63c <_ZN8ChxUtils15GetFeatureValueEP23camera3_capture_requestPv26ChiModeFeature2SubModeType25ChiModeUsecaseSubModeTypeS3_+0x91c>
   1b538: cd 00 00 14  	b	0x1b86c <_ZN8ChxUtils15GetFeatureValueEP23camera3_capture_requestPv26ChiModeFeature2SubModeType25ChiModeUsecaseSubModeTypeS3_+0xb4c>
   1b544: 53 ff ff b5  	cbnz	x19, 0x1b52c <_ZN8ChxUtils15GetFeatureValueEP23camera3_capture_requestPv26ChiModeFeature2SubModeType25ChiModeUsecaseSubModeTypeS3_+0x80c>
   1b548: 19 00 00 14  	b	0x1b5ac <_ZN8ChxUtils15GetFeatureValueEP23camera3_capture_requestPv26ChiModeFeature2SubModeType25ChiModeUsecaseSubModeTypeS3_+0x88c>
   1b558: 93 e5 ff b5  	cbnz	x19, 0x1b208 <_ZN8ChxUtils15GetFeatureValueEP23camera3_capture_requestPv26ChiModeFeature2SubModeType25ChiModeUsecaseSubModeTypeS3_+0x4e8>
   1b58c: 00 03 00 b4  	cbz	x0, 0x1b5ec <_ZN8ChxUtils15GetFeatureValueEP23camera3_capture_requestPv26ChiModeFeature2SubModeType25ChiModeUsecaseSubModeTypeS3_+0x8cc>
   1b598: 16 00 00 14  	b	0x1b5f0 <_ZN8ChxUtils15GetFeatureValueEP23camera3_capture_requestPv26ChiModeFeature2SubModeType25ChiModeUsecaseSubModeTypeS3_+0x8d0>
   1b5a8: 33 fc ff b5  	cbnz	x19, 0x1b52c <_ZN8ChxUtils15GetFeatureValueEP23camera3_capture_requestPv26ChiModeFeature2SubModeType25ChiModeUsecaseSubModeTypeS3_+0x80c>
   1b5dc: eb 01 00 b4  	cbz	x11, 0x1b618 <_ZN8ChxUtils15GetFeatureValueEP23camera3_capture_requestPv26ChiModeFeature2SubModeType25ChiModeUsecaseSubModeTypeS3_+0x8f8>
   1b5e8: 0d 00 00 14  	b	0x1b61c <_ZN8ChxUtils15GetFeatureValueEP23camera3_capture_requestPv26ChiModeFeature2SubModeType25ChiModeUsecaseSubModeTypeS3_+0x8fc>
   1b5f4: 45 11 00 94  	bl	0x1fb08 <_ZN8ChxUtils11GetTotalRamEv+0x480>
   1b60c: 48 e0 ff 54  	b.hi	0x1b214 <_ZN8ChxUtils15GetFeatureValueEP23camera3_capture_requestPv26ChiModeFeature2SubModeType25ChiModeUsecaseSubModeTypeS3_+0x4f4>
   1b614: 97 00 00 14  	b	0x1b870 <_ZN8ChxUtils15GetFeatureValueEP23camera3_capture_requestPv26ChiModeFeature2SubModeType25ChiModeUsecaseSubModeTypeS3_+0xb50>
   1b620: 3a 11 00 94  	bl	0x1fb08 <_ZN8ChxUtils11GetTotalRamEv+0x480>
   1b638: a3 11 00 54  	b.lo	0x1b86c <_ZN8ChxUtils15GetFeatureValueEP23camera3_capture_requestPv26ChiModeFeature2SubModeType25ChiModeUsecaseSubModeTypeS3_+0xb4c>
   1b644: f0 02 00 b4  	cbz	x16, 0x1b6a0 <_ZN8ChxUtils15GetFeatureValueEP23camera3_capture_requestPv26ChiModeFeature2SubModeType25ChiModeUsecaseSubModeTypeS3_+0x980>
   1b64c: 02 00 00 14  	b	0x1b654 <_ZN8ChxUtils15GetFeatureValueEP23camera3_capture_requestPv26ChiModeFeature2SubModeType25ChiModeUsecaseSubModeTypeS3_+0x934>
   1b65c: ab 00 00 54  	b.lt	0x1b670 <_ZN8ChxUtils15GetFeatureValueEP23camera3_capture_requestPv26ChiModeFeature2SubModeType25ChiModeUsecaseSubModeTypeS3_+0x950>
   1b664: 44 04 00 b4  	cbz	x4, 0x1b6ec <_ZN8ChxUtils15GetFeatureValueEP23camera3_capture_requestPv26ChiModeFeature2SubModeType25ChiModeUsecaseSubModeTypeS3_+0x9cc>
   1b66c: f9 ff ff 17  	b	0x1b650 <_ZN8ChxUtils15GetFeatureValueEP23camera3_capture_requestPv26ChiModeFeature2SubModeType25ChiModeUsecaseSubModeTypeS3_+0x930>
   1b674: 80 00 00 54  	b.eq	0x1b684 <_ZN8ChxUtils15GetFeatureValueEP23camera3_capture_requestPv26ChiModeFeature2SubModeType25ChiModeUsecaseSubModeTypeS3_+0x964>
   1b680: 84 fe ff b5  	cbnz	x4, 0x1b650 <_ZN8ChxUtils15GetFeatureValueEP23camera3_capture_requestPv26ChiModeFeature2SubModeType25ChiModeUsecaseSubModeTypeS3_+0x930>
   1b68c: 13 01 00 b4  	cbz	x19, 0x1b6ac <_ZN8ChxUtils15GetFeatureValueEP23camera3_capture_requestPv26ChiModeFeature2SubModeType25ChiModeUsecaseSubModeTypeS3_+0x98c>
   1b698: a3 0e 00 54  	b.lo	0x1b86c <_ZN8ChxUtils15GetFeatureValueEP23camera3_capture_requestPv26ChiModeFeature2SubModeType25ChiModeUsecaseSubModeTypeS3_+0xb4c>
   1b69c: 22 00 00 14  	b	0x1b724 <_ZN8ChxUtils15GetFeatureValueEP23camera3_capture_requestPv26ChiModeFeature2SubModeType25ChiModeUsecaseSubModeTypeS3_+0xa04>
   1b6a8: 53 ff ff b5  	cbnz	x19, 0x1b690 <_ZN8ChxUtils15GetFeatureValueEP23camera3_capture_requestPv26ChiModeFeature2SubModeType25ChiModeUsecaseSubModeTypeS3_+0x970>
   1b6dc: 2c 01 00 b4  	cbz	x12, 0x1b700 <_ZN8ChxUtils15GetFeatureValueEP23camera3_capture_requestPv26ChiModeFeature2SubModeType25ChiModeUsecaseSubModeTypeS3_+0x9e0>
   1b6e8: 07 00 00 14  	b	0x1b704 <_ZN8ChxUtils15GetFeatureValueEP23camera3_capture_requestPv26ChiModeFeature2SubModeType25ChiModeUsecaseSubModeTypeS3_+0x9e4>
   1b6f8: d3 fc ff b5  	cbnz	x19, 0x1b690 <_ZN8ChxUtils15GetFeatureValueEP23camera3_capture_requestPv26ChiModeFeature2SubModeType25ChiModeUsecaseSubModeTypeS3_+0x970>
   1b6fc: ec ff ff 17  	b	0x1b6ac <_ZN8ChxUtils15GetFeatureValueEP23camera3_capture_requestPv26ChiModeFeature2SubModeType25ChiModeUsecaseSubModeTypeS3_+0x98c>
   1b708: 00 11 00 94  	bl	0x1fb08 <_ZN8ChxUtils11GetTotalRamEv+0x480>
   1b720: 63 0a 00 54  	b.lo	0x1b86c <_ZN8ChxUtils15GetFeatureValueEP23camera3_capture_requestPv26ChiModeFeature2SubModeType25ChiModeUsecaseSubModeTypeS3_+0xb4c>
   1b72c: 71 05 00 b4  	cbz	x17, 0x1b7d8 <_ZN8ChxUtils15GetFeatureValueEP23camera3_capture_requestPv26ChiModeFeature2SubModeType25ChiModeUsecaseSubModeTypeS3_+0xab8>
   1b734: 02 00 00 14  	b	0x1b73c <_ZN8ChxUtils15GetFeatureValueEP23camera3_capture_requestPv26ChiModeFeature2SubModeType25ChiModeUsecaseSubModeTypeS3_+0xa1c>
   1b744: ab 00 00 54  	b.lt	0x1b758 <_ZN8ChxUtils15GetFeatureValueEP23camera3_capture_requestPv26ChiModeFeature2SubModeType25ChiModeUsecaseSubModeTypeS3_+0xa38>
   1b74c: c6 06 00 b4  	cbz	x6, 0x1b824 <_ZN8ChxUtils15GetFeatureValueEP23camera3_capture_requestPv26ChiModeFeature2SubModeType25ChiModeUsecaseSubModeTypeS3_+0xb04>
   1b754: f9 ff ff 17  	b	0x1b738 <_ZN8ChxUtils15GetFeatureValueEP23camera3_capture_requestPv26ChiModeFeature2SubModeType25ChiModeUsecaseSubModeTypeS3_+0xa18>
   1b75c: 80 00 00 54  	b.eq	0x1b76c <_ZN8ChxUtils15GetFeatureValueEP23camera3_capture_requestPv26ChiModeFeature2SubModeType25ChiModeUsecaseSubModeTypeS3_+0xa4c>
   1b768: 86 fe ff b5  	cbnz	x6, 0x1b738 <_ZN8ChxUtils15GetFeatureValueEP23camera3_capture_requestPv26ChiModeFeature2SubModeType25ChiModeUsecaseSubModeTypeS3_+0xa18>
   1b774: 93 03 00 b4  	cbz	x19, 0x1b7e4 <_ZN8ChxUtils15GetFeatureValueEP23camera3_capture_requestPv26ChiModeFeature2SubModeType25ChiModeUsecaseSubModeTypeS3_+0xac4>
   1b780: 62 07 00 54  	b.hs	0x1b86c <_ZN8ChxUtils15GetFeatureValueEP23camera3_capture_requestPv26ChiModeFeature2SubModeType25ChiModeUsecaseSubModeTypeS3_+0xb4c>
   1b78c: 61 05 00 b4  	cbz	x1, 0x1b838 <_ZN8ChxUtils15GetFeatureValueEP23camera3_capture_requestPv26ChiModeFeature2SubModeType25ChiModeUsecaseSubModeTypeS3_+0xb18>
   1b794: 05 00 00 14  	b	0x1b7a8 <_ZN8ChxUtils15GetFeatureValueEP23camera3_capture_requestPv26ChiModeFeature2SubModeType25ChiModeUsecaseSubModeTypeS3_+0xa88>
   1b79c: 67 07 00 b4  	cbz	x7, 0x1b888 <_ZN8ChxUtils15GetFeatureValueEP23camera3_capture_requestPv26ChiModeFeature2SubModeType25ChiModeUsecaseSubModeTypeS3_+0xb68>
   1b7b0: 4a ff ff 54  	b.ge	0x1b798 <_ZN8ChxUtils15GetFeatureValueEP23camera3_capture_requestPv26ChiModeFeature2SubModeType25ChiModeUsecaseSubModeTypeS3_+0xa78>
   1b7b8: 80 00 00 54  	b.eq	0x1b7c8 <_ZN8ChxUtils15GetFeatureValueEP23camera3_capture_requestPv26ChiModeFeature2SubModeType25ChiModeUsecaseSubModeTypeS3_+0xaa8>
   1b7c4: 07 ff ff b5  	cbnz	x7, 0x1b7a4 <_ZN8ChxUtils15GetFeatureValueEP23camera3_capture_requestPv26ChiModeFeature2SubModeType25ChiModeUsecaseSubModeTypeS3_+0xa84>
   1b7d0: 13 09 00 b5  	cbnz	x19, 0x1b8f0 <_ZN8ChxUtils15GetFeatureValueEP23camera3_capture_requestPv26ChiModeFeature2SubModeType25ChiModeUsecaseSubModeTypeS3_+0xbd0>
   1b7d4: 31 00 00 14  	b	0x1b898 <_ZN8ChxUtils15GetFeatureValueEP23camera3_capture_requestPv26ChiModeFeature2SubModeType25ChiModeUsecaseSubModeTypeS3_+0xb78>
   1b7e0: d3 fc ff b5  	cbnz	x19, 0x1b778 <_ZN8ChxUtils15GetFeatureValueEP23camera3_capture_requestPv26ChiModeFeature2SubModeType25ChiModeUsecaseSubModeTypeS3_+0xa58>
   1b814: ad 01 00 b4  	cbz	x13, 0x1b848 <_ZN8ChxUtils15GetFeatureValueEP23camera3_capture_requestPv26ChiModeFeature2SubModeType25ChiModeUsecaseSubModeTypeS3_+0xb28>
   1b820: 0b 00 00 14  	b	0x1b84c <_ZN8ChxUtils15GetFeatureValueEP23camera3_capture_requestPv26ChiModeFeature2SubModeType25ChiModeUsecaseSubModeTypeS3_+0xb2c>
   1b830: 53 fa ff b5  	cbnz	x19, 0x1b778 <_ZN8ChxUtils15GetFeatureValueEP23camera3_capture_requestPv26ChiModeFeature2SubModeType25ChiModeUsecaseSubModeTypeS3_+0xa58>
   1b834: ec ff ff 17  	b	0x1b7e4 <_ZN8ChxUtils15GetFeatureValueEP23camera3_capture_requestPv26ChiModeFeature2SubModeType25ChiModeUsecaseSubModeTypeS3_+0xac4>
   1b840: 93 05 00 b5  	cbnz	x19, 0x1b8f0 <_ZN8ChxUtils15GetFeatureValueEP23camera3_capture_requestPv26ChiModeFeature2SubModeType25ChiModeUsecaseSubModeTypeS3_+0xbd0>
   1b844: 15 00 00 14  	b	0x1b898 <_ZN8ChxUtils15GetFeatureValueEP23camera3_capture_requestPv26ChiModeFeature2SubModeType25ChiModeUsecaseSubModeTypeS3_+0xb78>
   1b850: ae 10 00 94  	bl	0x1fb08 <_ZN8ChxUtils11GetTotalRamEv+0x480>
   1b868: e3 f8 ff 54  	b.lo	0x1b784 <_ZN8ChxUtils15GetFeatureValueEP23camera3_capture_requestPv26ChiModeFeature2SubModeType25ChiModeUsecaseSubModeTypeS3_+0xa64>
   1b894: f3 02 00 b5  	cbnz	x19, 0x1b8f0 <_ZN8ChxUtils15GetFeatureValueEP23camera3_capture_requestPv26ChiModeFeature2SubModeType25ChiModeUsecaseSubModeTypeS3_+0xbd0>
   1b8c8: 8e 00 00 b4  	cbz	x14, 0x1b8d8 <_ZN8ChxUtils15GetFeatureValueEP23camera3_capture_requestPv26ChiModeFeature2SubModeType25ChiModeUsecaseSubModeTypeS3_+0xbb8>
   1b8d4: 02 00 00 14  	b	0x1b8dc <_ZN8ChxUtils15GetFeatureValueEP23camera3_capture_requestPv26ChiModeFeature2SubModeType25ChiModeUsecaseSubModeTypeS3_+0xbbc>
   1b8e0: 8a 10 00 94  	bl	0x1fb08 <_ZN8ChxUtils11GetTotalRamEv+0x480>
   1b8fc: a3 fb ff 54  	b.lo	0x1b870 <_ZN8ChxUtils15GetFeatureValueEP23camera3_capture_requestPv26ChiModeFeature2SubModeType25ChiModeUsecaseSubModeTypeS3_+0xb50>
   1b908: 62 02 00 b4  	cbz	x2, 0x1b954 <_ZN8ChxUtils15GetFeatureValueEP23camera3_capture_requestPv26ChiModeFeature2SubModeType25ChiModeUsecaseSubModeTypeS3_+0xc34>
   1b910: 05 00 00 14  	b	0x1b924 <_ZN8ChxUtils15GetFeatureValueEP23camera3_capture_requestPv26ChiModeFeature2SubModeType25ChiModeUsecaseSubModeTypeS3_+0xc04>
   1b918: 61 02 00 b4  	cbz	x1, 0x1b964 <_ZN8ChxUtils15GetFeatureValueEP23camera3_capture_requestPv26ChiModeFeature2SubModeType25ChiModeUsecaseSubModeTypeS3_+0xc44>
   1b92c: 4a ff ff 54  	b.ge	0x1b914 <_ZN8ChxUtils15GetFeatureValueEP23camera3_capture_requestPv26ChiModeFeature2SubModeType25ChiModeUsecaseSubModeTypeS3_+0xbf4>
   1b934: 80 00 00 54  	b.eq	0x1b944 <_ZN8ChxUtils15GetFeatureValueEP23camera3_capture_requestPv26ChiModeFeature2SubModeType25ChiModeUsecaseSubModeTypeS3_+0xc24>
   1b940: 01 ff ff b5  	cbnz	x1, 0x1b920 <_ZN8ChxUtils15GetFeatureValueEP23camera3_capture_requestPv26ChiModeFeature2SubModeType25ChiModeUsecaseSubModeTypeS3_+0xc00>
   1b94c: 14 04 00 b5  	cbnz	x20, 0x1b9cc <_ZN8ChxUtils15GetFeatureValueEP23camera3_capture_requestPv26ChiModeFeature2SubModeType25ChiModeUsecaseSubModeTypeS3_+0xcac>
   1b950: 09 00 00 14  	b	0x1b974 <_ZN8ChxUtils15GetFeatureValueEP23camera3_capture_requestPv26ChiModeFeature2SubModeType25ChiModeUsecaseSubModeTypeS3_+0xc54>
   1b95c: 94 03 00 b5  	cbnz	x20, 0x1b9cc <_ZN8ChxUtils15GetFeatureValueEP23camera3_capture_requestPv26ChiModeFeature2SubModeType25ChiModeUsecaseSubModeTypeS3_+0xcac>
   1b960: 05 00 00 14  	b	0x1b974 <_ZN8ChxUtils15GetFeatureValueEP23camera3_capture_requestPv26ChiModeFeature2SubModeType25ChiModeUsecaseSubModeTypeS3_+0xc54>
   1b970: f4 02 00 b5  	cbnz	x20, 0x1b9cc <_ZN8ChxUtils15GetFeatureValueEP23camera3_capture_requestPv26ChiModeFeature2SubModeType25ChiModeUsecaseSubModeTypeS3_+0xcac>
   1b9a4: 8f 00 00 b4  	cbz	x15, 0x1b9b4 <_ZN8ChxUtils15GetFeatureValueEP23camera3_capture_requestPv26ChiModeFeature2SubModeType25ChiModeUsecaseSubModeTypeS3_+0xc94>
   1b9b0: 02 00 00 14  	b	0x1b9b8 <_ZN8ChxUtils15GetFeatureValueEP23camera3_capture_requestPv26ChiModeFeature2SubModeType25ChiModeUsecaseSubModeTypeS3_+0xc98>
   1b9bc: 53 10 00 94  	bl	0x1fb08 <_ZN8ChxUtils11GetTotalRamEv+0x480>
   1b9dc: a5 ff ff 17  	b	0x1b870 <_ZN8ChxUtils15GetFeatureValueEP23camera3_capture_requestPv26ChiModeFeature2SubModeType25ChiModeUsecaseSubModeTypeS3_+0xb50>
000000000001b9e0 <_ZN8ChxUtils28FillTuningModeDataThirdPartyEP11ChiMetadataP23camera3_capture_requestjPjS4_S4_S4_S4_>:
   1ba0c: e0 25 00 b4  	cbz	x0, 0x1bec8 <_ZN8ChxUtils28FillTuningModeDataThirdPartyEP11ChiMetadataP23camera3_capture_requestjPjS4_S4_S4_S4_+0x4e8>
   1ba14: 85 00 00 d0  	adrp	x5, 0x2d000 <_ZN8ChxUtils28FillTuningModeDataThirdPartyEP11ChiMetadataP23camera3_capture_requestjPjS4_S4_S4_S4_+0x7c>
   1ba54: 68 05 30 36  	tbz	w8, #6, 0x1bb00 <_ZN8ChxUtils28FillTuningModeDataThirdPartyEP11ChiMetadataP23camera3_capture_requestjPjS4_S4_S4_S4_+0x120>
   1ba58: 82 00 00 d0  	adrp	x2, 0x2d000 <_ZN8ChxUtils28FillTuningModeDataThirdPartyEP11ChiMetadataP23camera3_capture_requestjPjS4_S4_S4_S4_+0xc0>
   1ba68: 61 02 00 54  	b.ne	0x1bab4 <_ZN8ChxUtils28FillTuningModeDataThirdPartyEP11ChiMetadataP23camera3_capture_requestjPjS4_S4_S4_S4_+0xd4>
   1ba6c: 97 ff ff b0  	adrp	x23, 0xc000 <_ZN8ChxUtils28FillTuningModeDataThirdPartyEP11ChiMetadataP23camera3_capture_requestjPjS4_S4_S4_S4_+0x50>
   1ba88: 81 ff ff d0  	adrp	x1, 0xd000 <_ZN8ChxUtils28FillTuningModeDataThirdPartyEP11ChiMetadataP23camera3_capture_requestjPjS4_S4_S4_S4_+0x70>
   1ba8c: 82 ff ff d0  	adrp	x2, 0xd000 <_ZN8ChxUtils28FillTuningModeDataThirdPartyEP11ChiMetadataP23camera3_capture_requestjPjS4_S4_S4_S4_+0x74>
   1ba90: 85 ff ff d0  	adrp	x5, 0xd000 <_ZN8ChxUtils28FillTuningModeDataThirdPartyEP11ChiMetadataP23camera3_capture_requestjPjS4_S4_S4_S4_+0x78>
   1bab4: 97 ff ff b0  	adrp	x23, 0xc000 <_ZN8ChxUtils28FillTuningModeDataThirdPartyEP11ChiMetadataP23camera3_capture_requestjPjS4_S4_S4_S4_+0x98>
   1bad0: 61 ff ff d0  	adrp	x1, 0x9000 <_ZN8ChxUtils28FillTuningModeDataThirdPartyEP11ChiMetadataP23camera3_capture_requestjPjS4_S4_S4_S4_+0xa8>
   1bad8: 80 ff ff b0  	adrp	x0, 0xc000 <_ZN8ChxUtils28FillTuningModeDataThirdPartyEP11ChiMetadataP23camera3_capture_requestjPjS4_S4_S4_S4_+0xbc>
   1badc: 83 ff ff d0  	adrp	x3, 0xd000 <_ZN8ChxUtils28FillTuningModeDataThirdPartyEP11ChiMetadataP23camera3_capture_requestjPjS4_S4_S4_S4_+0xc4>
   1bae0: 65 ff ff d0  	adrp	x5, 0x9000 <_ZN8ChxUtils28FillTuningModeDataThirdPartyEP11ChiMetadataP23camera3_capture_requestjPjS4_S4_S4_S4_+0xb8>
   1bafc: 91 41 00 94  	bl	0x2c140 <_ZN6ChiLog9LogSystemEPKcS1_S1_S1_iS1_z@plt>
   1bb00: 6c ff ff d0  	adrp	x12, 0x9000 <_ZN8ChxUtils28FillTuningModeDataThirdPartyEP11ChiMetadataP23camera3_capture_requestjPjS4_S4_S4_S4_+0xd8>
   1bb28: 16 43 00 94  	bl	0x2c780 <_ZN8ChxUtils14GetUsecaseModeEP23camera3_capture_request@plt>
   1bb38: 86 42 00 94  	bl	0x2c550 <_ZN15ExtensionModule11GetInstanceEv@plt>
   1bb5c: 08 01 00 b4  	cbz	x8, 0x1bb7c <_ZN8ChxUtils28FillTuningModeDataThirdPartyEP11ChiMetadataP23camera3_capture_requestjPjS4_S4_S4_S4_+0x19c>
   1bb68: 84 00 00 d0  	adrp	x4, 0x2d000 <_ZN8ChxUtils28FillTuningModeDataThirdPartyEP11ChiMetadataP23camera3_capture_requestjPjS4_S4_S4_S4_+0x1d0>
   1bb74: ec 00 30 37  	tbnz	w12, #6, 0x1bb90 <_ZN8ChxUtils28FillTuningModeDataThirdPartyEP11ChiMetadataP23camera3_capture_requestjPjS4_S4_S4_S4_+0x1b0>
   1bb78: 30 00 00 14  	b	0x1bc38 <_ZN8ChxUtils28FillTuningModeDataThirdPartyEP11ChiMetadataP23camera3_capture_requestjPjS4_S4_S4_S4_+0x258>
   1bb80: 84 00 00 d0  	adrp	x4, 0x2d000 <_ZN8ChxUtils28FillTuningModeDataThirdPartyEP11ChiMetadataP23camera3_capture_requestjPjS4_S4_S4_S4_+0x1e8>
   1bb8c: 6c 05 30 36  	tbz	w12, #6, 0x1bc38 <_ZN8ChxUtils28FillTuningModeDataThirdPartyEP11ChiMetadataP23camera3_capture_requestjPjS4_S4_S4_S4_+0x258>
   1bb90: 91 00 00 d0  	adrp	x17, 0x2d000 <_ZN8ChxUtils28FillTuningModeDataThirdPartyEP11ChiMetadataP23camera3_capture_requestjPjS4_S4_S4_S4_+0x1f8>
   1bba0: 61 02 00 54  	b.ne	0x1bbec <_ZN8ChxUtils28FillTuningModeDataThirdPartyEP11ChiMetadataP23camera3_capture_requestjPjS4_S4_S4_S4_+0x20c>
   1bba4: 99 ff ff b0  	adrp	x25, 0xc000 <_ZN8ChxUtils28FillTuningModeDataThirdPartyEP11ChiMetadataP23camera3_capture_requestjPjS4_S4_S4_S4_+0x188>
   1bbc0: 81 ff ff d0  	adrp	x1, 0xd000 <_ZN8ChxUtils28FillTuningModeDataThirdPartyEP11ChiMetadataP23camera3_capture_requestjPjS4_S4_S4_S4_+0x1a8>
   1bbc4: 82 ff ff f0  	adrp	x2, 0xe000 <_ZN8ChxUtils28FillTuningModeDataThirdPartyEP11ChiMetadataP23camera3_capture_requestjPjS4_S4_S4_S4_+0x1b0>
   1bbc8: 85 ff ff 90  	adrp	x5, 0xb000 <_ZN8ChxUtils28FillTuningModeDataThirdPartyEP11ChiMetadataP23camera3_capture_requestjPjS4_S4_S4_S4_+0x1a8>
   1bbec: 99 ff ff b0  	adrp	x25, 0xc000 <_ZN8ChxUtils28FillTuningModeDataThirdPartyEP11ChiMetadataP23camera3_capture_requestjPjS4_S4_S4_S4_+0x1d0>
   1bc08: 61 ff ff d0  	adrp	x1, 0x9000 <_ZN8ChxUtils28FillTuningModeDataThirdPartyEP11ChiMetadataP23camera3_capture_requestjPjS4_S4_S4_S4_+0x1e0>
   1bc10: 80 ff ff b0  	adrp	x0, 0xc000 <_ZN8ChxUtils28FillTuningModeDataThirdPartyEP11ChiMetadataP23camera3_capture_requestjPjS4_S4_S4_S4_+0x1f4>
   1bc14: 83 ff ff 90  	adrp	x3, 0xb000 <_ZN8ChxUtils28FillTuningModeDataThirdPartyEP11ChiMetadataP23camera3_capture_requestjPjS4_S4_S4_S4_+0x1f4>
   1bc18: 65 ff ff f0  	adrp	x5, 0xa000 <_ZN8ChxUtils28FillTuningModeDataThirdPartyEP11ChiMetadataP23camera3_capture_requestjPjS4_S4_S4_S4_+0x1f4>
   1bc34: 43 41 00 94  	bl	0x2c140 <_ZN6ChiLog9LogSystemEPKcS1_S1_S1_iS1_z@plt>
   1bc48: 48 16 00 54  	b.hi	0x1bf10 <_ZN8ChxUtils28FillTuningModeDataThirdPartyEP11ChiMetadataP23camera3_capture_requestjPjS4_S4_S4_S4_+0x530>
   1bc5c: 40 01 00 54  	b.eq	0x1bc84 <_ZN8ChxUtils28FillTuningModeDataThirdPartyEP11ChiMetadataP23camera3_capture_requestjPjS4_S4_S4_S4_+0x2a4>
   1bc70: c8 42 00 94  	bl	0x2c790 <_ZN8ChxUtils15GetFeatureValueEP23camera3_capture_requestPv26ChiModeFeature2SubModeType25ChiModeUsecaseSubModeTypeS3_@plt>
   1bc78: d7 01 00 35  	cbnz	w23, 0x1bcb0 <_ZN8ChxUtils28FillTuningModeDataThirdPartyEP11ChiMetadataP23camera3_capture_requestjPjS4_S4_S4_S4_+0x2d0>
   1bc80: 0c 00 00 14  	b	0x1bcb0 <_ZN8ChxUtils28FillTuningModeDataThirdPartyEP11ChiMetadataP23camera3_capture_requestjPjS4_S4_S4_S4_+0x2d0>
   1bc88: 60 00 00 54  	b.eq	0x1bc94 <_ZN8ChxUtils28FillTuningModeDataThirdPartyEP11ChiMetadataP23camera3_capture_requestjPjS4_S4_S4_S4_+0x2b4>
   1bc90: 01 14 00 54  	b.ne	0x1bf10 <_ZN8ChxUtils28FillTuningModeDataThirdPartyEP11ChiMetadataP23camera3_capture_requestjPjS4_S4_S4_S4_+0x530>
   1bca8: ba 42 00 94  	bl	0x2c790 <_ZN8ChxUtils15GetFeatureValueEP23camera3_capture_requestPv26ChiModeFeature2SubModeType25ChiModeUsecaseSubModeTypeS3_@plt>
   1bcdc: 09 02 00 b4  	cbz	x9, 0x1bd1c <_ZN8ChxUtils28FillTuningModeDataThirdPartyEP11ChiMetadataP23camera3_capture_requestjPjS4_S4_S4_S4_+0x33c>
   1bd08: a1 00 00 54  	b.ne	0x1bd1c <_ZN8ChxUtils28FillTuningModeDataThirdPartyEP11ChiMetadataP23camera3_capture_requestjPjS4_S4_S4_S4_+0x33c>
   1bd10: 6a 00 00 b4  	cbz	x10, 0x1bd1c <_ZN8ChxUtils28FillTuningModeDataThirdPartyEP11ChiMetadataP23camera3_capture_requestjPjS4_S4_S4_S4_+0x33c>
   1bd1c: 0d 42 00 94  	bl	0x2c550 <_ZN15ExtensionModule11GetInstanceEv@plt>
   1bd50: a8 00 00 54  	b.hi	0x1bd64 <_ZN8ChxUtils28FillTuningModeDataThirdPartyEP11ChiMetadataP23camera3_capture_requestjPjS4_S4_S4_S4_+0x384>
   1bd54: 8e ff ff f0  	adrp	x14, 0xe000 <_ZN8ChxUtils28FillTuningModeDataThirdPartyEP11ChiMetadataP23camera3_capture_requestjPjS4_S4_S4_S4_+0x340>
   1bd90: 4b 0b 00 b4  	cbz	x11, 0x1bef8 <_ZN8ChxUtils28FillTuningModeDataThirdPartyEP11ChiMetadataP23camera3_capture_requestjPjS4_S4_S4_S4_+0x518>
   1bda8: a2 00 00 54  	b.hs	0x1bdbc <_ZN8ChxUtils28FillTuningModeDataThirdPartyEP11ChiMetadataP23camera3_capture_requestjPjS4_S4_S4_S4_+0x3dc>
   1bdac: 90 ff ff f0  	adrp	x16, 0xe000 <_ZN8ChxUtils28FillTuningModeDataThirdPartyEP11ChiMetadataP23camera3_capture_requestjPjS4_S4_S4_S4_+0x398>
   1bdbc: 83 00 00 d0  	adrp	x3, 0x2d000 <_ZN8ChxUtils28FillTuningModeDataThirdPartyEP11ChiMetadataP23camera3_capture_requestjPjS4_S4_S4_S4_+0x424>
   1bdcc: e5 06 18 36  	tbz	w5, #3, 0x1bea8 <_ZN8ChxUtils28FillTuningModeDataThirdPartyEP11ChiMetadataP23camera3_capture_requestjPjS4_S4_S4_S4_+0x4c8>
   1bdd0: 81 00 00 d0  	adrp	x1, 0x2d000 <_ZN8ChxUtils28FillTuningModeDataThirdPartyEP11ChiMetadataP23camera3_capture_requestjPjS4_S4_S4_S4_+0x438>
   1bde0: 21 03 00 54  	b.ne	0x1be44 <_ZN8ChxUtils28FillTuningModeDataThirdPartyEP11ChiMetadataP23camera3_capture_requestjPjS4_S4_S4_S4_+0x464>
   1bde4: 9b ff ff b0  	adrp	x27, 0xc000 <_ZN8ChxUtils28FillTuningModeDataThirdPartyEP11ChiMetadataP23camera3_capture_requestjPjS4_S4_S4_S4_+0x3c8>
   1be04: 81 ff ff d0  	adrp	x1, 0xd000 <_ZN8ChxUtils28FillTuningModeDataThirdPartyEP11ChiMetadataP23camera3_capture_requestjPjS4_S4_S4_S4_+0x3ec>
   1be08: 62 ff ff f0  	adrp	x2, 0xa000 <_ZN8ChxUtils28FillTuningModeDataThirdPartyEP11ChiMetadataP23camera3_capture_requestjPjS4_S4_S4_S4_+0x3e4>
   1be0c: 85 ff ff d0  	adrp	x5, 0xd000 <_ZN8ChxUtils28FillTuningModeDataThirdPartyEP11ChiMetadataP23camera3_capture_requestjPjS4_S4_S4_S4_+0x3f4>
   1be44: 99 ff ff b0  	adrp	x25, 0xc000 <_ZN8ChxUtils28FillTuningModeDataThirdPartyEP11ChiMetadataP23camera3_capture_requestjPjS4_S4_S4_S4_+0x428>
   1be68: 80 ff ff f0  	adrp	x0, 0xe000 <_ZN8ChxUtils28FillTuningModeDataThirdPartyEP11ChiMetadataP23camera3_capture_requestjPjS4_S4_S4_S4_+0x454>
   1be6c: 81 ff ff 90  	adrp	x1, 0xb000 <_ZN8ChxUtils28FillTuningModeDataThirdPartyEP11ChiMetadataP23camera3_capture_requestjPjS4_S4_S4_S4_+0x44c>
   1be70: 83 ff ff d0  	adrp	x3, 0xd000 <_ZN8ChxUtils28FillTuningModeDataThirdPartyEP11ChiMetadataP23camera3_capture_requestjPjS4_S4_S4_S4_+0x458>
   1be74: 85 ff ff 90  	adrp	x5, 0xb000 <_ZN8ChxUtils28FillTuningModeDataThirdPartyEP11ChiMetadataP23camera3_capture_requestjPjS4_S4_S4_S4_+0x454>
   1bea4: a7 40 00 94  	bl	0x2c140 <_ZN6ChiLog9LogSystemEPKcS1_S1_S1_iS1_z@plt>
   1bea8: aa 41 00 94  	bl	0x2c550 <_ZN15ExtensionModule11GetInstanceEv@plt>
   1bed4: 41 02 00 54  	b.ne	0x1bf1c <_ZN8ChxUtils28FillTuningModeDataThirdPartyEP11ChiMetadataP23camera3_capture_requestjPjS4_S4_S4_S4_+0x53c>
   1bf08: 23 f5 ff 54  	b.lo	0x1bdac <_ZN8ChxUtils28FillTuningModeDataThirdPartyEP11ChiMetadataP23camera3_capture_requestjPjS4_S4_S4_S4_+0x3cc>
   1bf0c: ac ff ff 17  	b	0x1bdbc <_ZN8ChxUtils28FillTuningModeDataThirdPartyEP11ChiMetadataP23camera3_capture_requestjPjS4_S4_S4_S4_+0x3dc>
   1bf18: 52 ff ff 17  	b	0x1bc60 <_ZN8ChxUtils28FillTuningModeDataThirdPartyEP11ChiMetadataP23camera3_capture_requestjPjS4_S4_S4_S4_+0x280>
000000000001bf20 <_ZN8ChxUtils18FillTuningModeDataEP11ChiMetadata25ChiModeUsecaseSubModeTypejPjS3_S3_S3_>:
   1bf4c: 40 21 00 b4  	cbz	x0, 0x1c374 <_ZN8ChxUtils18FillTuningModeDataEP11ChiMetadata25ChiModeUsecaseSubModeTypejPjS3_S3_S3_+0x454>
   1bf50: 6e ff ff d0  	adrp	x14, 0x9000 <_ZN8ChxUtils28FillTuningModeDataThirdPartyEP11ChiMetadataP23camera3_capture_requestjPjS4_S4_S4_S4_+0x528>
   1bfa0: 6c 41 00 94  	bl	0x2c550 <_ZN15ExtensionModule11GetInstanceEv@plt>
   1bfc4: 89 00 00 b4  	cbz	x9, 0x1bfd4 <_ZN8ChxUtils18FillTuningModeDataEP11ChiMetadata25ChiModeUsecaseSubModeTypejPjS3_S3_S3_+0xb4>
   1bfd0: 02 00 00 14  	b	0x1bfd8 <_ZN8ChxUtils18FillTuningModeDataEP11ChiMetadata25ChiModeUsecaseSubModeTypejPjS3_S3_S3_+0xb8>
   1bfd8: 9b 00 00 d0  	adrp	x27, 0x2d000 <_ZN8ChxUtils18FillTuningModeDataEP11ChiMetadata25ChiModeUsecaseSubModeTypejPjS3_S3_S3_+0x100>
   1bfdc: 9a 00 00 d0  	adrp	x26, 0x2d000 <_ZN8ChxUtils18FillTuningModeDataEP11ChiMetadata25ChiModeUsecaseSubModeTypejPjS3_S3_S3_+0x104>
   1bfe0: 93 ff ff b0  	adrp	x19, 0xc000 <_ZN8ChxUtils18FillTuningModeDataEP11ChiMetadata25ChiModeUsecaseSubModeTypejPjS3_S3_S3_+0x84>
   1bff4: ab 04 30 36  	tbz	w11, #6, 0x1c088 <_ZN8ChxUtils18FillTuningModeDataEP11ChiMetadata25ChiModeUsecaseSubModeTypejPjS3_S3_S3_+0x168>
   1c000: 21 02 00 54  	b.ne	0x1c044 <_ZN8ChxUtils18FillTuningModeDataEP11ChiMetadata25ChiModeUsecaseSubModeTypejPjS3_S3_S3_+0x124>
   1c018: 81 ff ff b0  	adrp	x1, 0xd000 <_ZN8ChxUtils18FillTuningModeDataEP11ChiMetadata25ChiModeUsecaseSubModeTypejPjS3_S3_S3_+0xbc>
   1c01c: 82 ff ff d0  	adrp	x2, 0xe000 <_ZN8ChxUtils18FillTuningModeDataEP11ChiMetadata25ChiModeUsecaseSubModeTypejPjS3_S3_S3_+0xc4>
   1c020: 65 ff ff f0  	adrp	x5, 0xb000 <_ZN8ChxUtils18FillTuningModeDataEP11ChiMetadata25ChiModeUsecaseSubModeTypejPjS3_S3_S3_+0xbc>
   1c058: 61 ff ff b0  	adrp	x1, 0x9000 <_ZN8ChxUtils18FillTuningModeDataEP11ChiMetadata25ChiModeUsecaseSubModeTypejPjS3_S3_S3_+0xec>
   1c060: 80 ff ff 90  	adrp	x0, 0xc000 <_ZN8ChxUtils18FillTuningModeDataEP11ChiMetadata25ChiModeUsecaseSubModeTypejPjS3_S3_S3_+0x100>
   1c064: 63 ff ff f0  	adrp	x3, 0xb000 <_ZN8ChxUtils18FillTuningModeDataEP11ChiMetadata25ChiModeUsecaseSubModeTypejPjS3_S3_S3_+0x100>
   1c068: 65 ff ff d0  	adrp	x5, 0xa000 <_ZN8ChxUtils18FillTuningModeDataEP11ChiMetadata25ChiModeUsecaseSubModeTypejPjS3_S3_S3_+0x100>
   1c084: 2f 40 00 94  	bl	0x2c140 <_ZN6ChiLog9LogSystemEPKcS1_S1_S1_iS1_z@plt>
   1c090: 30 41 00 94  	bl	0x2c550 <_ZN15ExtensionModule11GetInstanceEv@plt>
   1c0b4: ca 00 00 b4  	cbz	x10, 0x1c0cc <_ZN8ChxUtils18FillTuningModeDataEP11ChiMetadata25ChiModeUsecaseSubModeTypejPjS3_S3_S3_+0x1ac>
   1c0c4: ad 00 30 37  	tbnz	w13, #6, 0x1c0d8 <_ZN8ChxUtils18FillTuningModeDataEP11ChiMetadata25ChiModeUsecaseSubModeTypejPjS3_S3_S3_+0x1b8>
   1c0c8: 28 00 00 14  	b	0x1c168 <_ZN8ChxUtils18FillTuningModeDataEP11ChiMetadata25ChiModeUsecaseSubModeTypejPjS3_S3_S3_+0x248>
   1c0d4: ad 04 30 36  	tbz	w13, #6, 0x1c168 <_ZN8ChxUtils18FillTuningModeDataEP11ChiMetadata25ChiModeUsecaseSubModeTypejPjS3_S3_S3_+0x248>
   1c0e0: 21 02 00 54  	b.ne	0x1c124 <_ZN8ChxUtils18FillTuningModeDataEP11ChiMetadata25ChiModeUsecaseSubModeTypejPjS3_S3_S3_+0x204>
   1c0f8: 81 ff ff b0  	adrp	x1, 0xd000 <_ZN8ChxUtils18FillTuningModeDataEP11ChiMetadata25ChiModeUsecaseSubModeTypejPjS3_S3_S3_+0x19c>
   1c0fc: 62 ff ff d0  	adrp	x2, 0xa000 <_ZN8ChxUtils18FillTuningModeDataEP11ChiMetadata25ChiModeUsecaseSubModeTypejPjS3_S3_S3_+0x194>
   1c100: 85 ff ff 90  	adrp	x5, 0xc000 <_ZN8ChxUtils18FillTuningModeDataEP11ChiMetadata25ChiModeUsecaseSubModeTypejPjS3_S3_S3_+0x1a0>
   1c138: 61 ff ff b0  	adrp	x1, 0x9000 <_ZN8ChxUtils18FillTuningModeDataEP11ChiMetadata25ChiModeUsecaseSubModeTypejPjS3_S3_S3_+0x1cc>
   1c140: 80 ff ff 90  	adrp	x0, 0xc000 <_ZN8ChxUtils18FillTuningModeDataEP11ChiMetadata25ChiModeUsecaseSubModeTypejPjS3_S3_S3_+0x1e0>
   1c144: 83 ff ff 90  	adrp	x3, 0xc000 <_ZN8ChxUtils18FillTuningModeDataEP11ChiMetadata25ChiModeUsecaseSubModeTypejPjS3_S3_S3_+0x1e4>
   1c148: 65 ff ff d0  	adrp	x5, 0xa000 <_ZN8ChxUtils18FillTuningModeDataEP11ChiMetadata25ChiModeUsecaseSubModeTypejPjS3_S3_S3_+0x1e0>
   1c164: f7 3f 00 94  	bl	0x2c140 <_ZN6ChiLog9LogSystemEPKcS1_S1_S1_iS1_z@plt>
   1c194: 0b 02 00 b4  	cbz	x11, 0x1c1d4 <_ZN8ChxUtils18FillTuningModeDataEP11ChiMetadata25ChiModeUsecaseSubModeTypejPjS3_S3_S3_+0x2b4>
   1c1c0: a1 00 00 54  	b.ne	0x1c1d4 <_ZN8ChxUtils18FillTuningModeDataEP11ChiMetadata25ChiModeUsecaseSubModeTypejPjS3_S3_S3_+0x2b4>
   1c1c8: 6c 00 00 b4  	cbz	x12, 0x1c1d4 <_ZN8ChxUtils18FillTuningModeDataEP11ChiMetadata25ChiModeUsecaseSubModeTypejPjS3_S3_S3_+0x2b4>
   1c1d4: df 40 00 94  	bl	0x2c550 <_ZN15ExtensionModule11GetInstanceEv@plt>
   1c208: a8 00 00 54  	b.hi	0x1c21c <_ZN8ChxUtils18FillTuningModeDataEP11ChiMetadata25ChiModeUsecaseSubModeTypejPjS3_S3_S3_+0x2fc>
   1c20c: 8f ff ff d0  	adrp	x15, 0xe000 <_ZN8ChxUtils18FillTuningModeDataEP11ChiMetadata25ChiModeUsecaseSubModeTypejPjS3_S3_S3_+0x2b4>
   1c248: ed 0a 00 b4  	cbz	x13, 0x1c3a4 <_ZN8ChxUtils18FillTuningModeDataEP11ChiMetadata25ChiModeUsecaseSubModeTypejPjS3_S3_S3_+0x484>
   1c25c: a2 00 00 54  	b.hs	0x1c270 <_ZN8ChxUtils18FillTuningModeDataEP11ChiMetadata25ChiModeUsecaseSubModeTypejPjS3_S3_S3_+0x350>
   1c260: 81 ff ff d0  	adrp	x1, 0xe000 <_ZN8ChxUtils18FillTuningModeDataEP11ChiMetadata25ChiModeUsecaseSubModeTypejPjS3_S3_S3_+0x308>
   1c274: b7 40 00 94  	bl	0x2c550 <_ZN15ExtensionModule11GetInstanceEv@plt>
   1c298: f1 06 28 36  	tbz	w17, #5, 0x1c374 <_ZN8ChxUtils18FillTuningModeDataEP11ChiMetadata25ChiModeUsecaseSubModeTypejPjS3_S3_S3_+0x454>
   1c2a4: 41 03 00 54  	b.ne	0x1c30c <_ZN8ChxUtils18FillTuningModeDataEP11ChiMetadata25ChiModeUsecaseSubModeTypejPjS3_S3_S3_+0x3ec>
   1c2c4: 81 ff ff b0  	adrp	x1, 0xd000 <_ZN8ChxUtils18FillTuningModeDataEP11ChiMetadata25ChiModeUsecaseSubModeTypejPjS3_S3_S3_+0x368>
   1c2cc: 62 ff ff d0  	adrp	x2, 0xa000 <_ZN8ChxUtils18FillTuningModeDataEP11ChiMetadata25ChiModeUsecaseSubModeTypejPjS3_S3_S3_+0x364>
   1c2d4: 65 ff ff f0  	adrp	x5, 0xb000 <_ZN8ChxUtils18FillTuningModeDataEP11ChiMetadata25ChiModeUsecaseSubModeTypejPjS3_S3_S3_+0x370>
   1c330: 80 ff ff b0  	adrp	x0, 0xd000 <_ZN8ChxUtils18FillTuningModeDataEP11ChiMetadata25ChiModeUsecaseSubModeTypejPjS3_S3_S3_+0x3d4>
   1c338: 81 ff ff 90  	adrp	x1, 0xc000 <_ZN8ChxUtils18FillTuningModeDataEP11ChiMetadata25ChiModeUsecaseSubModeTypejPjS3_S3_S3_+0x3d8>
   1c340: 63 ff ff f0  	adrp	x3, 0xb000 <_ZN8ChxUtils18FillTuningModeDataEP11ChiMetadata25ChiModeUsecaseSubModeTypejPjS3_S3_S3_+0x3dc>
   1c348: 65 ff ff d0  	adrp	x5, 0xa000 <_ZN8ChxUtils18FillTuningModeDataEP11ChiMetadata25ChiModeUsecaseSubModeTypejPjS3_S3_S3_+0x3e0>
   1c370: 74 3f 00 94  	bl	0x2c140 <_ZN6ChiLog9LogSystemEPKcS1_S1_S1_iS1_z@plt>
   1c380: c1 01 00 54  	b.ne	0x1c3b8 <_ZN8ChxUtils18FillTuningModeDataEP11ChiMetadata25ChiModeUsecaseSubModeTypejPjS3_S3_S3_+0x498>
   1c3b0: 83 f5 ff 54  	b.lo	0x1c260 <_ZN8ChxUtils18FillTuningModeDataEP11ChiMetadata25ChiModeUsecaseSubModeTypejPjS3_S3_S3_+0x340>
   1c3b4: af ff ff 17  	b	0x1c270 <_ZN8ChxUtils18FillTuningModeDataEP11ChiMetadata25ChiModeUsecaseSubModeTypejPjS3_S3_S3_+0x350>
000000000001c3c0 <_ZN8ChxUtils21IPEMFHDRDebugDataSizeEv>:
   1c3c8: 62 40 00 94  	bl	0x2c550 <_ZN15ExtensionModule11GetInstanceEv@plt>
000000000001c3e0 <_ZN8ChxUtils13DebugDataSizeE13DebugDataType>:
   1c3f0: 58 40 00 94  	bl	0x2c550 <_ZN15ExtensionModule11GetInstanceEv@plt>
   1c400: 21 01 00 54  	b.ne	0x1c424 <_ZN8ChxUtils13DebugDataSizeE13DebugDataType+0x44>
   1c408: 60 08 00 54  	b.eq	0x1c514 <_ZN8ChxUtils13DebugDataSizeE13DebugDataType+0x134>
   1c410: 80 08 00 54  	b.eq	0x1c520 <_ZN8ChxUtils13DebugDataSizeE13DebugDataType+0x140>
   1c414: 93 00 00 35  	cbnz	w19, 0x1c424 <_ZN8ChxUtils13DebugDataSizeE13DebugDataType+0x44>
   1c420: 02 00 00 14  	b	0x1c428 <_ZN8ChxUtils13DebugDataSizeE13DebugDataType+0x48>
   1c438: a1 01 00 54  	b.ne	0x1c46c <_ZN8ChxUtils13DebugDataSizeE13DebugDataType+0x8c>
   1c444: 48 03 00 54  	b.hi	0x1c4ac <_ZN8ChxUtils13DebugDataSizeE13DebugDataType+0xcc>
   1c448: 8c ff ff d0  	adrp	x12, 0xe000 <_ZN8ChxUtils13DebugDataSizeE13DebugDataType+0x30>
   1c468: 11 00 00 14  	b	0x1c4ac <_ZN8ChxUtils13DebugDataSizeE13DebugDataType+0xcc>
   1c470: e1 01 00 54  	b.ne	0x1c4ac <_ZN8ChxUtils13DebugDataSizeE13DebugDataType+0xcc>
   1c478: 21 02 00 54  	b.ne	0x1c4bc <_ZN8ChxUtils13DebugDataSizeE13DebugDataType+0xdc>
   1c4a0: 40 01 00 54  	b.eq	0x1c4c8 <_ZN8ChxUtils13DebugDataSizeE13DebugDataType+0xe8>
   1c4a8: 16 00 00 14  	b	0x1c500 <_ZN8ChxUtils13DebugDataSizeE13DebugDataType+0x120>
   1c4c4: 01 ff ff 54  	b.ne	0x1c4a4 <_ZN8ChxUtils13DebugDataSizeE13DebugDataType+0xc4>
   1c51c: c3 ff ff 17  	b	0x1c428 <_ZN8ChxUtils13DebugDataSizeE13DebugDataType+0x48>
   1c528: c0 ff ff 17  	b	0x1c428 <_ZN8ChxUtils13DebugDataSizeE13DebugDataType+0x48>
000000000001c590 <_ZN8ChxUtils20DebugDataAllocBufferEP9DebugData>:
   1c5a4: eb 3f 00 94  	bl	0x2c550 <_ZN15ExtensionModule11GetInstanceEv@plt>
   1c5bc: 81 03 00 54  	b.ne	0x1c62c <_ZN8ChxUtils20DebugDataAllocBufferEP9DebugData+0x9c>
   1c5e4: a0 02 00 54  	b.eq	0x1c638 <_ZN8ChxUtils20DebugDataAllocBufferEP9DebugData+0xa8>
   1c5ec: 53 04 00 b4  	cbz	x19, 0x1c674 <_ZN8ChxUtils20DebugDataAllocBufferEP9DebugData+0xe4>
   1c5f4: b4 04 00 b4  	cbz	x20, 0x1c688 <_ZN8ChxUtils20DebugDataAllocBufferEP9DebugData+0xf8>
   1c600: e0 04 00 b4  	cbz	x0, 0x1c69c <_ZN8ChxUtils20DebugDataAllocBufferEP9DebugData+0x10c>
   1c634: a1 fd ff 54  	b.ne	0x1c5e8 <_ZN8ChxUtils20DebugDataAllocBufferEP9DebugData+0x58>
   1c670: 13 fc ff b5  	cbnz	x19, 0x1c5f0 <_ZN8ChxUtils20DebugDataAllocBufferEP9DebugData+0x60>
   1c69c: 81 00 00 b0  	adrp	x1, 0x2d000 <_ZN8ChxUtils20DebugDataAllocBufferEP9DebugData+0x150>
   1c6ac: e5 04 08 36  	tbz	w5, #1, 0x1c748 <_ZN8ChxUtils20DebugDataAllocBufferEP9DebugData+0x1b8>
   1c6b0: 82 00 00 b0  	adrp	x2, 0x2d000 <_ZN8ChxUtils20DebugDataAllocBufferEP9DebugData+0x164>
   1c6b4: 93 ff ff 90  	adrp	x19, 0xc000 <_ZN8ChxUtils20DebugDataAllocBufferEP9DebugData+0xe4>
   1c6c8: 01 02 00 54  	b.ne	0x1c708 <_ZN8ChxUtils20DebugDataAllocBufferEP9DebugData+0x178>
   1c6e0: 81 ff ff b0  	adrp	x1, 0xd000 <_ZN8ChxUtils20DebugDataAllocBufferEP9DebugData+0x114>
   1c6e4: 82 ff ff 90  	adrp	x2, 0xc000 <_ZN8ChxUtils20DebugDataAllocBufferEP9DebugData+0x114>
   1c6e8: 85 ff ff b0  	adrp	x5, 0xd000 <_ZN8ChxUtils20DebugDataAllocBufferEP9DebugData+0x11c>
   1c71c: 61 ff ff d0  	adrp	x1, 0xa000 <_ZN8ChxUtils20DebugDataAllocBufferEP9DebugData+0x144>
   1c724: 80 ff ff 90  	adrp	x0, 0xc000 <_ZN8ChxUtils20DebugDataAllocBufferEP9DebugData+0x154>
   1c728: 83 ff ff b0  	adrp	x3, 0xd000 <_ZN8ChxUtils20DebugDataAllocBufferEP9DebugData+0x15c>
   1c72c: 65 ff ff b0  	adrp	x5, 0x9000 <_ZN8ChxUtils20DebugDataAllocBufferEP9DebugData+0x150>
   1c744: 7f 3e 00 94  	bl	0x2c140 <_ZN6ChiLog9LogSystemEPKcS1_S1_S1_iS1_z@plt>
000000000001c760 <_ZN8ChxUtils21GetPartialResultCountE19PartialResultSender>:
   1c770: 78 3f 00 94  	bl	0x2c550 <_ZN15ExtensionModule11GetInstanceEv@plt>
   1c778: 76 3f 00 94  	bl	0x2c550 <_ZN15ExtensionModule11GetInstanceEv@plt>
   1c780: e1 00 00 54  	b.ne	0x1c79c <_ZN8ChxUtils21GetPartialResultCountE19PartialResultSender+0x3c>
000000000001c7c0 <_ZN8ChxUtils16MatchAspectRatioEPK12CHIDimensionPS0_>:
   1c7e4: a5 00 00 54  	b.pl	0x1c7f8 <_ZN8ChxUtils16MatchAspectRatioEPK12CHIDimensionPS0_+0x38>
   1c7f8: 8d 00 00 54  	b.le	0x1c808 <_ZN8ChxUtils16MatchAspectRatioEPK12CHIDimensionPS0_+0x48>
000000000001c810 <_ZN8ChxUtils15UpdateTimeStampEP11ChiMetadatamj>:
   1c838: 40 02 00 b4  	cbz	x0, 0x1c880 <_ZN8ChxUtils15UpdateTimeStampEP11ChiMetadatamj+0x70>
   1c86c: c8 06 00 b4  	cbz	x8, 0x1c944 <_ZN8ChxUtils15UpdateTimeStampEP11ChiMetadatamj+0x134>
   1c878: c1 06 00 54  	b.ne	0x1c950 <_ZN8ChxUtils15UpdateTimeStampEP11ChiMetadatamj+0x140>
   1c87c: 71 00 00 14  	b	0x1ca40 <_ZN8ChxUtils15UpdateTimeStampEP11ChiMetadatamj+0x230>
   1c880: 8b 00 00 b0  	adrp	x11, 0x2d000 <_ZN8ChxUtils15UpdateTimeStampEP11ChiMetadatamj+0xb4>
   1c88c: a9 0d 08 36  	tbz	w9, #1, 0x1ca40 <_ZN8ChxUtils15UpdateTimeStampEP11ChiMetadatamj+0x230>
   1c890: 8c 00 00 b0  	adrp	x12, 0x2d000 <_ZN8ChxUtils15UpdateTimeStampEP11ChiMetadatamj+0xc4>
   1c8a0: 41 02 00 54  	b.ne	0x1c8e8 <_ZN8ChxUtils15UpdateTimeStampEP11ChiMetadatamj+0xd8>
   1c8a4: 95 ff ff 90  	adrp	x21, 0xc000 <_ZN8ChxUtils15UpdateTimeStampEP11ChiMetadatamj+0x54>
   1c8c0: 81 ff ff b0  	adrp	x1, 0xd000 <_ZN8ChxUtils15UpdateTimeStampEP11ChiMetadatamj+0x74>
   1c8c4: 62 ff ff b0  	adrp	x2, 0x9000 <_ZN8ChxUtils15UpdateTimeStampEP11ChiMetadatamj+0x68>
   1c8c8: 85 ff ff 90  	adrp	x5, 0xc000 <_ZN8ChxUtils15UpdateTimeStampEP11ChiMetadatamj+0x78>
   1c8e8: 96 ff ff 90  	adrp	x22, 0xc000 <_ZN8ChxUtils15UpdateTimeStampEP11ChiMetadatamj+0x98>
   1c904: 61 ff ff d0  	adrp	x1, 0xa000 <_ZN8ChxUtils15UpdateTimeStampEP11ChiMetadatamj+0xac>
   1c90c: 80 ff ff 90  	adrp	x0, 0xc000 <_ZN8ChxUtils15UpdateTimeStampEP11ChiMetadatamj+0xbc>
   1c910: 83 ff ff 90  	adrp	x3, 0xc000 <_ZN8ChxUtils15UpdateTimeStampEP11ChiMetadatamj+0xc0>
   1c914: 85 ff ff b0  	adrp	x5, 0xd000 <_ZN8ChxUtils15UpdateTimeStampEP11ChiMetadatamj+0xc8>
   1c92c: 05 3e 00 94  	bl	0x2c140 <_ZN6ChiLog9LogSystemEPKcS1_S1_S1_iS1_z@plt>
   1c93c: a0 08 00 54  	b.eq	0x1ca50 <_ZN8ChxUtils15UpdateTimeStampEP11ChiMetadatamj+0x240>
   1c94c: a0 07 00 54  	b.eq	0x1ca40 <_ZN8ChxUtils15UpdateTimeStampEP11ChiMetadatamj+0x230>
   1c970: 89 00 00 b0  	adrp	x9, 0x2d000 <_ZN8ChxUtils15UpdateTimeStampEP11ChiMetadatamj+0x1a4>
   1c97c: 28 06 18 36  	tbz	w8, #3, 0x1ca40 <_ZN8ChxUtils15UpdateTimeStampEP11ChiMetadatamj+0x230>
   1c980: 8a 00 00 b0  	adrp	x10, 0x2d000 <_ZN8ChxUtils15UpdateTimeStampEP11ChiMetadatamj+0x1b4>
   1c984: 96 ff ff 90  	adrp	x22, 0xc000 <_ZN8ChxUtils15UpdateTimeStampEP11ChiMetadatamj+0x134>
   1c998: a1 02 00 54  	b.ne	0x1c9ec <_ZN8ChxUtils15UpdateTimeStampEP11ChiMetadatamj+0x1dc>
   1c9b8: 81 ff ff b0  	adrp	x1, 0xd000 <_ZN8ChxUtils15UpdateTimeStampEP11ChiMetadatamj+0x16c>
   1c9bc: 82 ff ff d0  	adrp	x2, 0xe000 <_ZN8ChxUtils15UpdateTimeStampEP11ChiMetadatamj+0x174>
   1c9c0: 85 ff ff 90  	adrp	x5, 0xc000 <_ZN8ChxUtils15UpdateTimeStampEP11ChiMetadatamj+0x170>
   1ca0c: 80 ff ff d0  	adrp	x0, 0xe000 <_ZN8ChxUtils15UpdateTimeStampEP11ChiMetadatamj+0x1c4>
   1ca10: 61 ff ff f0  	adrp	x1, 0xb000 <_ZN8ChxUtils15UpdateTimeStampEP11ChiMetadatamj+0x1bc>
   1ca14: 83 ff ff 90  	adrp	x3, 0xc000 <_ZN8ChxUtils15UpdateTimeStampEP11ChiMetadatamj+0x1c4>
   1ca18: 65 ff ff d0  	adrp	x5, 0xa000 <_ZN8ChxUtils15UpdateTimeStampEP11ChiMetadatamj+0x1c0>
   1ca3c: c1 3d 00 94  	bl	0x2c140 <_ZN6ChiLog9LogSystemEPKcS1_S1_S1_iS1_z@plt>
   1ca4c: a1 f7 ff 54  	b.ne	0x1c940 <_ZN8ChxUtils15UpdateTimeStampEP11ChiMetadatamj+0x130>
000000000001ca68 <_ZN8ChxUtils18IsVendorTagPresentEP11ChiMetadata9VendorTag>:
   1ca88: a0 02 00 b4  	cbz	x0, 0x1cadc <_ZN8ChxUtils18IsVendorTagPresentEP11ChiMetadata9VendorTag+0x74>
   1ca94: af 3e 00 94  	bl	0x2c550 <_ZN15ExtensionModule11GetInstanceEv@plt>
   1cad4: e0 00 00 54  	b.eq	0x1caf0 <_ZN8ChxUtils18IsVendorTagPresentEP11ChiMetadata9VendorTag+0x88>
   1cad8: 0b 00 00 14  	b	0x1cb04 <_ZN8ChxUtils18IsVendorTagPresentEP11ChiMetadata9VendorTag+0x9c>
   1cae8: e1 00 00 54  	b.ne	0x1cb04 <_ZN8ChxUtils18IsVendorTagPresentEP11ChiMetadata9VendorTag+0x9c>
000000000001cb08 <_ZN8ChxUtils19HasInputBufferErrorEP18ChiPipelineRequest>:
   1cb0c: e8 02 00 34  	cbz	w8, 0x1cb68 <_ZN8ChxUtils19HasInputBufferErrorEP18ChiPipelineRequest+0x60>
   1cb1c: 04 00 00 14  	b	0x1cb2c <_ZN8ChxUtils19HasInputBufferErrorEP18ChiPipelineRequest+0x24>
   1cb28: 00 02 00 54  	b.eq	0x1cb68 <_ZN8ChxUtils19HasInputBufferErrorEP18ChiPipelineRequest+0x60>
   1cb34: 6c ff ff 34  	cbz	w12, 0x1cb20 <_ZN8ChxUtils19HasInputBufferErrorEP18ChiPipelineRequest+0x18>
   1cb48: cf 00 00 35  	cbnz	w15, 0x1cb60 <_ZN8ChxUtils19HasInputBufferErrorEP18ChiPipelineRequest+0x58>
   1cb58: 61 ff ff 54  	b.ne	0x1cb44 <_ZN8ChxUtils19HasInputBufferErrorEP18ChiPipelineRequest+0x3c>
   1cb5c: f1 ff ff 17  	b	0x1cb20 <_ZN8ChxUtils19HasInputBufferErrorEP18ChiPipelineRequest+0x18>
000000000001cb70 <_ZN8ChxUtils25FillDefaultTuningMetadataEP11ChiMetadata25ChiModeUsecaseSubModeTypej>:
   1cb94: 80 20 00 b4  	cbz	x0, 0x1cfa4 <_ZN8ChxUtils25FillDefaultTuningMetadataEP11ChiMetadata25ChiModeUsecaseSubModeTypej+0x434>
   1cb98: 6e ff ff b0  	adrp	x14, 0x9000 <_ZN8ChxUtils19HasInputBufferErrorEP18ChiPipelineRequest+0x44>
   1cbdc: 5d 3e 00 94  	bl	0x2c550 <_ZN15ExtensionModule11GetInstanceEv@plt>
   1cc00: 6b 00 00 b4  	cbz	x11, 0x1cc0c <_ZN8ChxUtils25FillDefaultTuningMetadataEP11ChiMetadata25ChiModeUsecaseSubModeTypej+0x9c>
   1cc08: 02 00 00 14  	b	0x1cc10 <_ZN8ChxUtils25FillDefaultTuningMetadataEP11ChiMetadata25ChiModeUsecaseSubModeTypej+0xa0>
   1cc10: 98 00 00 b0  	adrp	x24, 0x2d000 <_ZN8ChxUtils25FillDefaultTuningMetadataEP11ChiMetadata25ChiModeUsecaseSubModeTypej+0xe4>
   1cc14: 97 00 00 b0  	adrp	x23, 0x2d000 <_ZN8ChxUtils25FillDefaultTuningMetadataEP11ChiMetadata25ChiModeUsecaseSubModeTypej+0xe8>
   1cc18: 93 ff ff 90  	adrp	x19, 0xc000 <_ZN8ChxUtils25FillDefaultTuningMetadataEP11ChiMetadata25ChiModeUsecaseSubModeTypej+0x68>
   1cc2c: ab 04 30 36  	tbz	w11, #6, 0x1ccc0 <_ZN8ChxUtils25FillDefaultTuningMetadataEP11ChiMetadata25ChiModeUsecaseSubModeTypej+0x150>
   1cc38: 21 02 00 54  	b.ne	0x1cc7c <_ZN8ChxUtils25FillDefaultTuningMetadataEP11ChiMetadata25ChiModeUsecaseSubModeTypej+0x10c>
   1cc50: 81 ff ff b0  	adrp	x1, 0xd000 <_ZN8ChxUtils25FillDefaultTuningMetadataEP11ChiMetadata25ChiModeUsecaseSubModeTypej+0xa4>
   1cc54: 82 ff ff d0  	adrp	x2, 0xe000 <_ZN8ChxUtils25FillDefaultTuningMetadataEP11ChiMetadata25ChiModeUsecaseSubModeTypej+0xac>
   1cc58: 65 ff ff f0  	adrp	x5, 0xb000 <_ZN8ChxUtils25FillDefaultTuningMetadataEP11ChiMetadata25ChiModeUsecaseSubModeTypej+0xa4>
   1cc90: 61 ff ff b0  	adrp	x1, 0x9000 <_ZN8ChxUtils25FillDefaultTuningMetadataEP11ChiMetadata25ChiModeUsecaseSubModeTypej+0xd4>
   1cc98: 80 ff ff 90  	adrp	x0, 0xc000 <_ZN8ChxUtils25FillDefaultTuningMetadataEP11ChiMetadata25ChiModeUsecaseSubModeTypej+0xe8>
   1cc9c: 63 ff ff f0  	adrp	x3, 0xb000 <_ZN8ChxUtils25FillDefaultTuningMetadataEP11ChiMetadata25ChiModeUsecaseSubModeTypej+0xe8>
   1cca0: 65 ff ff d0  	adrp	x5, 0xa000 <_ZN8ChxUtils25FillDefaultTuningMetadataEP11ChiMetadata25ChiModeUsecaseSubModeTypej+0xe8>
   1ccbc: 21 3d 00 94  	bl	0x2c140 <_ZN6ChiLog9LogSystemEPKcS1_S1_S1_iS1_z@plt>
   1ccc8: 22 3e 00 94  	bl	0x2c550 <_ZN15ExtensionModule11GetInstanceEv@plt>
   1ccec: ac 00 00 b4  	cbz	x12, 0x1cd00 <_ZN8ChxUtils25FillDefaultTuningMetadataEP11ChiMetadata25ChiModeUsecaseSubModeTypej+0x190>
   1ccf8: ad 00 30 37  	tbnz	w13, #6, 0x1cd0c <_ZN8ChxUtils25FillDefaultTuningMetadataEP11ChiMetadata25ChiModeUsecaseSubModeTypej+0x19c>
   1ccfc: 28 00 00 14  	b	0x1cd9c <_ZN8ChxUtils25FillDefaultTuningMetadataEP11ChiMetadata25ChiModeUsecaseSubModeTypej+0x22c>
   1cd08: ad 04 30 36  	tbz	w13, #6, 0x1cd9c <_ZN8ChxUtils25FillDefaultTuningMetadataEP11ChiMetadata25ChiModeUsecaseSubModeTypej+0x22c>
   1cd14: 21 02 00 54  	b.ne	0x1cd58 <_ZN8ChxUtils25FillDefaultTuningMetadataEP11ChiMetadata25ChiModeUsecaseSubModeTypej+0x1e8>
   1cd2c: 81 ff ff b0  	adrp	x1, 0xd000 <_ZN8ChxUtils25FillDefaultTuningMetadataEP11ChiMetadata25ChiModeUsecaseSubModeTypej+0x180>
   1cd30: 62 ff ff d0  	adrp	x2, 0xa000 <_ZN8ChxUtils25FillDefaultTuningMetadataEP11ChiMetadata25ChiModeUsecaseSubModeTypej+0x178>
   1cd34: 85 ff ff 90  	adrp	x5, 0xc000 <_ZN8ChxUtils25FillDefaultTuningMetadataEP11ChiMetadata25ChiModeUsecaseSubModeTypej+0x184>
   1cd6c: 61 ff ff b0  	adrp	x1, 0x9000 <_ZN8ChxUtils25FillDefaultTuningMetadataEP11ChiMetadata25ChiModeUsecaseSubModeTypej+0x1b0>
   1cd74: 80 ff ff 90  	adrp	x0, 0xc000 <_ZN8ChxUtils25FillDefaultTuningMetadataEP11ChiMetadata25ChiModeUsecaseSubModeTypej+0x1c4>
   1cd78: 83 ff ff 90  	adrp	x3, 0xc000 <_ZN8ChxUtils25FillDefaultTuningMetadataEP11ChiMetadata25ChiModeUsecaseSubModeTypej+0x1c8>
   1cd7c: 65 ff ff d0  	adrp	x5, 0xa000 <_ZN8ChxUtils25FillDefaultTuningMetadataEP11ChiMetadata25ChiModeUsecaseSubModeTypej+0x1c4>
   1cd98: ea 3c 00 94  	bl	0x2c140 <_ZN6ChiLog9LogSystemEPKcS1_S1_S1_iS1_z@plt>
   1cdc8: 09 02 00 b4  	cbz	x9, 0x1ce08 <_ZN8ChxUtils25FillDefaultTuningMetadataEP11ChiMetadata25ChiModeUsecaseSubModeTypej+0x298>
   1cdf4: a1 00 00 54  	b.ne	0x1ce08 <_ZN8ChxUtils25FillDefaultTuningMetadataEP11ChiMetadata25ChiModeUsecaseSubModeTypej+0x298>
   1cdfc: 6a 00 00 b4  	cbz	x10, 0x1ce08 <_ZN8ChxUtils25FillDefaultTuningMetadataEP11ChiMetadata25ChiModeUsecaseSubModeTypej+0x298>
   1ce08: d2 3d 00 94  	bl	0x2c550 <_ZN15ExtensionModule11GetInstanceEv@plt>
   1ce40: a8 00 00 54  	b.hi	0x1ce54 <_ZN8ChxUtils25FillDefaultTuningMetadataEP11ChiMetadata25ChiModeUsecaseSubModeTypej+0x2e4>
   1ce44: 8e ff ff d0  	adrp	x14, 0xe000 <_ZN8ChxUtils25FillDefaultTuningMetadataEP11ChiMetadata25ChiModeUsecaseSubModeTypej+0x29c>
   1ce80: ad 00 00 b4  	cbz	x13, 0x1ce94 <_ZN8ChxUtils25FillDefaultTuningMetadataEP11ChiMetadata25ChiModeUsecaseSubModeTypej+0x324>
   1ce8c: 63 00 00 54  	b.lo	0x1ce98 <_ZN8ChxUtils25FillDefaultTuningMetadataEP11ChiMetadata25ChiModeUsecaseSubModeTypej+0x328>
   1ce90: 06 00 00 14  	b	0x1cea8 <_ZN8ChxUtils25FillDefaultTuningMetadataEP11ChiMetadata25ChiModeUsecaseSubModeTypej+0x338>
   1ce98: 82 ff ff d0  	adrp	x2, 0xe000 <_ZN8ChxUtils25FillDefaultTuningMetadataEP11ChiMetadata25ChiModeUsecaseSubModeTypej+0x2f0>
   1ceac: a9 3d 00 94  	bl	0x2c550 <_ZN15ExtensionModule11GetInstanceEv@plt>
   1ced0: b1 06 28 36  	tbz	w17, #5, 0x1cfa4 <_ZN8ChxUtils25FillDefaultTuningMetadataEP11ChiMetadata25ChiModeUsecaseSubModeTypej+0x434>
   1cedc: 21 03 00 54  	b.ne	0x1cf40 <_ZN8ChxUtils25FillDefaultTuningMetadataEP11ChiMetadata25ChiModeUsecaseSubModeTypej+0x3d0>
   1cefc: 81 ff ff b0  	adrp	x1, 0xd000 <_ZN8ChxUtils25FillDefaultTuningMetadataEP11ChiMetadata25ChiModeUsecaseSubModeTypej+0x350>
   1cf04: 62 ff ff d0  	adrp	x2, 0xa000 <_ZN8ChxUtils25FillDefaultTuningMetadataEP11ChiMetadata25ChiModeUsecaseSubModeTypej+0x34c>
   1cf0c: 85 ff ff b0  	adrp	x5, 0xd000 <_ZN8ChxUtils25FillDefaultTuningMetadataEP11ChiMetadata25ChiModeUsecaseSubModeTypej+0x360>
   1cf64: 80 ff ff b0  	adrp	x0, 0xd000 <_ZN8ChxUtils25FillDefaultTuningMetadataEP11ChiMetadata25ChiModeUsecaseSubModeTypej+0x3b8>
   1cf6c: 81 ff ff 90  	adrp	x1, 0xc000 <_ZN8ChxUtils25FillDefaultTuningMetadataEP11ChiMetadata25ChiModeUsecaseSubModeTypej+0x3bc>
   1cf74: 83 ff ff b0  	adrp	x3, 0xd000 <_ZN8ChxUtils25FillDefaultTuningMetadataEP11ChiMetadata25ChiModeUsecaseSubModeTypej+0x3c8>
   1cf78: 65 ff ff d0  	adrp	x5, 0xa000 <_ZN8ChxUtils25FillDefaultTuningMetadataEP11ChiMetadata25ChiModeUsecaseSubModeTypej+0x3c0>
   1cfa0: 68 3c 00 94  	bl	0x2c140 <_ZN6ChiLog9LogSystemEPKcS1_S1_S1_iS1_z@plt>
   1cfb0: e1 00 00 54  	b.ne	0x1cfcc <_ZN8ChxUtils25FillDefaultTuningMetadataEP11ChiMetadata25ChiModeUsecaseSubModeTypej+0x45c>
000000000001cfd0 <_ZN8ChxUtils21GetCameraIdFromStreamEPK9ChiStream>:
   1cfdc: 60 01 00 b4  	cbz	x0, 0x1d008 <_ZN8ChxUtils21GetCameraIdFromStreamEPK9ChiStream+0x38>
   1cfe8: 00 01 00 b4  	cbz	x0, 0x1d008 <_ZN8ChxUtils21GetCameraIdFromStreamEPK9ChiStream+0x38>
   1cff4: a0 00 00 b4  	cbz	x0, 0x1d008 <_ZN8ChxUtils21GetCameraIdFromStreamEPK9ChiStream+0x38>
000000000001d018 <_ZN8ChxUtils31UpdateMetadataWithInputSettingsER11ChiMetadataS1_>:
   1d064: e2 00 00 b4  	cbz	x2, 0x1d080 <_ZN8ChxUtils31UpdateMetadataWithInputSettingsER11ChiMetadataS1_+0x68>
   1d0a4: 02 01 00 b4  	cbz	x2, 0x1d0c4 <_ZN8ChxUtils31UpdateMetadataWithInputSettingsER11ChiMetadataS1_+0xac>
   1d0e8: 02 01 00 b4  	cbz	x2, 0x1d108 <_ZN8ChxUtils31UpdateMetadataWithInputSettingsER11ChiMetadataS1_+0xf0>
   1d12c: 02 01 00 b4  	cbz	x2, 0x1d14c <_ZN8ChxUtils31UpdateMetadataWithInputSettingsER11ChiMetadataS1_+0x134>
   1d170: 02 01 00 b4  	cbz	x2, 0x1d190 <_ZN8ChxUtils31UpdateMetadataWithInputSettingsER11ChiMetadataS1_+0x178>
   1d1b4: 02 01 00 b4  	cbz	x2, 0x1d1d4 <_ZN8ChxUtils31UpdateMetadataWithInputSettingsER11ChiMetadataS1_+0x1bc>
   1d1f4: e2 00 00 b4  	cbz	x2, 0x1d210 <_ZN8ChxUtils31UpdateMetadataWithInputSettingsER11ChiMetadataS1_+0x1f8>
   1d234: 02 01 00 b4  	cbz	x2, 0x1d254 <_ZN8ChxUtils31UpdateMetadataWithInputSettingsER11ChiMetadataS1_+0x23c>
   1d254: bf 3c 00 94  	bl	0x2c550 <_ZN15ExtensionModule11GetInstanceEv@plt>
   1d27c: 56 01 00 b4  	cbz	x22, 0x1d2a4 <_ZN8ChxUtils31UpdateMetadataWithInputSettingsER11ChiMetadataS1_+0x28c>
   1d280: b4 3c 00 94  	bl	0x2c550 <_ZN15ExtensionModule11GetInstanceEv@plt>
   1d2a0: 2d 00 00 14  	b	0x1d354 <_ZN8ChxUtils31UpdateMetadataWithInputSettingsER11ChiMetadataS1_+0x33c>
   1d2a4: 88 00 00 90  	adrp	x8, 0x2d000 <_ZN8ChxUtils31UpdateMetadataWithInputSettingsER11ChiMetadataS1_+0x2cc>
   1d2b0: 28 05 30 36  	tbz	w8, #6, 0x1d354 <_ZN8ChxUtils31UpdateMetadataWithInputSettingsER11ChiMetadataS1_+0x33c>
   1d2b4: 89 00 00 90  	adrp	x9, 0x2d000 <_ZN8ChxUtils31UpdateMetadataWithInputSettingsER11ChiMetadataS1_+0x2dc>
   1d2b8: 76 ff ff f0  	adrp	x22, 0xc000 <_ZN8ChxUtils31UpdateMetadataWithInputSettingsER11ChiMetadataS1_+0x25c>
   1d2cc: 21 02 00 54  	b.ne	0x1d310 <_ZN8ChxUtils31UpdateMetadataWithInputSettingsER11ChiMetadataS1_+0x2f8>
   1d2e4: 81 ff ff 90  	adrp	x1, 0xd000 <_ZN8ChxUtils31UpdateMetadataWithInputSettingsER11ChiMetadataS1_+0x28c>
   1d2e8: 82 ff ff 90  	adrp	x2, 0xd000 <_ZN8ChxUtils31UpdateMetadataWithInputSettingsER11ChiMetadataS1_+0x290>
   1d2ec: 65 ff ff d0  	adrp	x5, 0xb000 <_ZN8ChxUtils31UpdateMetadataWithInputSettingsER11ChiMetadataS1_+0x28c>
   1d324: 61 ff ff 90  	adrp	x1, 0x9000 <_ZN8ChxUtils31UpdateMetadataWithInputSettingsER11ChiMetadataS1_+0x2bc>
   1d32c: 60 ff ff f0  	adrp	x0, 0xc000 <_ZN8ChxUtils31UpdateMetadataWithInputSettingsER11ChiMetadataS1_+0x2d0>
   1d330: 63 ff ff d0  	adrp	x3, 0xb000 <_ZN8ChxUtils31UpdateMetadataWithInputSettingsER11ChiMetadataS1_+0x2d0>
   1d334: 65 ff ff b0  	adrp	x5, 0xa000 <_ZN8ChxUtils31UpdateMetadataWithInputSettingsER11ChiMetadataS1_+0x2d0>
   1d350: 7c 3b 00 94  	bl	0x2c140 <_ZN6ChiLog9LogSystemEPKcS1_S1_S1_iS1_z@plt>
   1d378: 02 01 00 b4  	cbz	x2, 0x1d398 <_ZN8ChxUtils31UpdateMetadataWithInputSettingsER11ChiMetadataS1_+0x380>
   1d3a4: 01 01 00 54  	b.ne	0x1d3c4 <_ZN8ChxUtils31UpdateMetadataWithInputSettingsER11ChiMetadataS1_+0x3ac>
000000000001d3c8 <_ZN8ChxUtils34UpdateMetadataWithSnapshotSettingsER11ChiMetadata>:
   1d3e8: 61 ff ff f0  	adrp	x1, 0xc000 <_ZN8ChxUtils31UpdateMetadataWithInputSettingsER11ChiMetadataS1_+0x38c>
   1d3ec: 62 ff ff f0  	adrp	x2, 0xc000 <_ZN8ChxUtils31UpdateMetadataWithInputSettingsER11ChiMetadataS1_+0x390>
   1d418: 0a 07 00 b5  	cbnz	x10, 0x1d4f8 <_ZN8ChxUtils34UpdateMetadataWithSnapshotSettingsER11ChiMetadata+0x130>
   1d41c: 88 00 00 90  	adrp	x8, 0x2d000 <_ZN8ChxUtils34UpdateMetadataWithSnapshotSettingsER11ChiMetadata+0x94>
   1d428: 28 05 30 36  	tbz	w8, #6, 0x1d4cc <_ZN8ChxUtils34UpdateMetadataWithSnapshotSettingsER11ChiMetadata+0x104>
   1d42c: 89 00 00 90  	adrp	x9, 0x2d000 <_ZN8ChxUtils34UpdateMetadataWithSnapshotSettingsER11ChiMetadata+0xa4>
   1d43c: 41 02 00 54  	b.ne	0x1d484 <_ZN8ChxUtils34UpdateMetadataWithSnapshotSettingsER11ChiMetadata+0xbc>
   1d440: 74 ff ff f0  	adrp	x20, 0xc000 <_ZN8ChxUtils34UpdateMetadataWithSnapshotSettingsER11ChiMetadata+0x34>
   1d45c: 81 ff ff 90  	adrp	x1, 0xd000 <_ZN8ChxUtils34UpdateMetadataWithSnapshotSettingsER11ChiMetadata+0x54>
   1d460: 62 ff ff f0  	adrp	x2, 0xc000 <_ZN8ChxUtils34UpdateMetadataWithSnapshotSettingsER11ChiMetadata+0x54>
   1d464: 65 ff ff f0  	adrp	x5, 0xc000 <_ZN8ChxUtils34UpdateMetadataWithSnapshotSettingsER11ChiMetadata+0x58>
   1d484: 74 ff ff f0  	adrp	x20, 0xc000 <_ZN8ChxUtils34UpdateMetadataWithSnapshotSettingsER11ChiMetadata+0x78>
   1d4a0: 61 ff ff 90  	adrp	x1, 0x9000 <_ZN8ChxUtils34UpdateMetadataWithSnapshotSettingsER11ChiMetadata+0x88>
   1d4a8: 60 ff ff f0  	adrp	x0, 0xc000 <_ZN8ChxUtils34UpdateMetadataWithSnapshotSettingsER11ChiMetadata+0x9c>
   1d4ac: 63 ff ff f0  	adrp	x3, 0xc000 <_ZN8ChxUtils34UpdateMetadataWithSnapshotSettingsER11ChiMetadata+0xa0>
   1d4b0: 65 ff ff f0  	adrp	x5, 0xc000 <_ZN8ChxUtils34UpdateMetadataWithSnapshotSettingsER11ChiMetadata+0xa4>
   1d4c8: 1e 3b 00 94  	bl	0x2c140 <_ZN6ChiLog9LogSystemEPKcS1_S1_S1_iS1_z@plt>
   1d4d0: 61 ff ff f0  	adrp	x1, 0xc000 <_ZN8ChxUtils34UpdateMetadataWithSnapshotSettingsER11ChiMetadata+0xc4>
   1d4d8: 62 ff ff f0  	adrp	x2, 0xc000 <_ZN8ChxUtils34UpdateMetadataWithSnapshotSettingsER11ChiMetadata+0xcc>
   1d4fc: 61 ff ff f0  	adrp	x1, 0xc000 <_ZN8ChxUtils34UpdateMetadataWithSnapshotSettingsER11ChiMetadata+0xf0>
   1d504: 62 ff ff b0  	adrp	x2, 0xa000 <_ZN8ChxUtils34UpdateMetadataWithSnapshotSettingsER11ChiMetadata+0xf0>
   1d524: 2d 07 00 b5  	cbnz	x13, 0x1d608 <_ZN8ChxUtils34UpdateMetadataWithSnapshotSettingsER11ChiMetadata+0x240>
   1d528: 8a 00 00 90  	adrp	x10, 0x2d000 <_ZN8ChxUtils34UpdateMetadataWithSnapshotSettingsER11ChiMetadata+0x1a0>
   1d534: 29 05 30 36  	tbz	w9, #6, 0x1d5d8 <_ZN8ChxUtils34UpdateMetadataWithSnapshotSettingsER11ChiMetadata+0x210>
   1d538: 8b 00 00 90  	adrp	x11, 0x2d000 <_ZN8ChxUtils34UpdateMetadataWithSnapshotSettingsER11ChiMetadata+0x1b0>
   1d548: 41 02 00 54  	b.ne	0x1d590 <_ZN8ChxUtils34UpdateMetadataWithSnapshotSettingsER11ChiMetadata+0x1c8>
   1d54c: 74 ff ff f0  	adrp	x20, 0xc000 <_ZN8ChxUtils34UpdateMetadataWithSnapshotSettingsER11ChiMetadata+0x140>
   1d568: 81 ff ff 90  	adrp	x1, 0xd000 <_ZN8ChxUtils34UpdateMetadataWithSnapshotSettingsER11ChiMetadata+0x160>
   1d56c: 62 ff ff f0  	adrp	x2, 0xc000 <_ZN8ChxUtils34UpdateMetadataWithSnapshotSettingsER11ChiMetadata+0x160>
   1d570: 65 ff ff f0  	adrp	x5, 0xc000 <_ZN8ChxUtils34UpdateMetadataWithSnapshotSettingsER11ChiMetadata+0x164>
   1d590: 74 ff ff f0  	adrp	x20, 0xc000 <_ZN8ChxUtils34UpdateMetadataWithSnapshotSettingsER11ChiMetadata+0x184>
   1d5ac: 61 ff ff 90  	adrp	x1, 0x9000 <_ZN8ChxUtils34UpdateMetadataWithSnapshotSettingsER11ChiMetadata+0x194>
   1d5b4: 60 ff ff f0  	adrp	x0, 0xc000 <_ZN8ChxUtils34UpdateMetadataWithSnapshotSettingsER11ChiMetadata+0x1a8>
   1d5b8: 63 ff ff f0  	adrp	x3, 0xc000 <_ZN8ChxUtils34UpdateMetadataWithSnapshotSettingsER11ChiMetadata+0x1ac>
   1d5bc: 65 ff ff f0  	adrp	x5, 0xc000 <_ZN8ChxUtils34UpdateMetadataWithSnapshotSettingsER11ChiMetadata+0x1b0>
   1d5d4: db 3a 00 94  	bl	0x2c140 <_ZN6ChiLog9LogSystemEPKcS1_S1_S1_iS1_z@plt>
   1d5dc: 61 ff ff f0  	adrp	x1, 0xc000 <_ZN8ChxUtils34UpdateMetadataWithSnapshotSettingsER11ChiMetadata+0x1d0>
   1d5e4: 62 ff ff b0  	adrp	x2, 0xa000 <_ZN8ChxUtils34UpdateMetadataWithSnapshotSettingsER11ChiMetadata+0x1d0>
   1d60c: 81 ff ff b0  	adrp	x1, 0xe000 <_ZN8ChxUtils34UpdateMetadataWithSnapshotSettingsER11ChiMetadata+0x208>
   1d614: 82 ff ff 90  	adrp	x2, 0xd000 <_ZN8ChxUtils34UpdateMetadataWithSnapshotSettingsER11ChiMetadata+0x20c>
   1d634: 70 05 00 b5  	cbnz	x16, 0x1d6e0 <_ZN8ChxUtils34UpdateMetadataWithSnapshotSettingsER11ChiMetadata+0x318>
   1d638: 8c 00 00 90  	adrp	x12, 0x2d000 <_ZN8ChxUtils34UpdateMetadataWithSnapshotSettingsER11ChiMetadata+0x2b0>
   1d644: eb 04 30 36  	tbz	w11, #6, 0x1d6e0 <_ZN8ChxUtils34UpdateMetadataWithSnapshotSettingsER11ChiMetadata+0x318>
   1d648: 8d 00 00 90  	adrp	x13, 0x2d000 <_ZN8ChxUtils34UpdateMetadataWithSnapshotSettingsER11ChiMetadata+0x2c0>
   1d64c: 73 ff ff f0  	adrp	x19, 0xc000 <_ZN8ChxUtils34UpdateMetadataWithSnapshotSettingsER11ChiMetadata+0x240>
   1d660: 01 02 00 54  	b.ne	0x1d6a0 <_ZN8ChxUtils34UpdateMetadataWithSnapshotSettingsER11ChiMetadata+0x2d8>
   1d678: 81 ff ff 90  	adrp	x1, 0xd000 <_ZN8ChxUtils34UpdateMetadataWithSnapshotSettingsER11ChiMetadata+0x270>
   1d67c: 62 ff ff 90  	adrp	x2, 0x9000 <_ZN8ChxUtils34UpdateMetadataWithSnapshotSettingsER11ChiMetadata+0x264>
   1d680: 65 ff ff f0  	adrp	x5, 0xc000 <_ZN8ChxUtils34UpdateMetadataWithSnapshotSettingsER11ChiMetadata+0x274>
   1d6b4: 61 ff ff 90  	adrp	x1, 0x9000 <_ZN8ChxUtils34UpdateMetadataWithSnapshotSettingsER11ChiMetadata+0x29c>
   1d6bc: 60 ff ff f0  	adrp	x0, 0xc000 <_ZN8ChxUtils34UpdateMetadataWithSnapshotSettingsER11ChiMetadata+0x2b0>
   1d6c0: 63 ff ff f0  	adrp	x3, 0xc000 <_ZN8ChxUtils34UpdateMetadataWithSnapshotSettingsER11ChiMetadata+0x2b4>
   1d6c4: 65 ff ff f0  	adrp	x5, 0xc000 <_ZN8ChxUtils34UpdateMetadataWithSnapshotSettingsER11ChiMetadata+0x2b8>
   1d6dc: 99 3a 00 94  	bl	0x2c140 <_ZN6ChiLog9LogSystemEPKcS1_S1_S1_iS1_z@plt>
   1d6ec: e1 00 00 54  	b.ne	0x1d708 <_ZN8ChxUtils34UpdateMetadataWithSnapshotSettingsER11ChiMetadata+0x340>
000000000001d710 <_ZN8ChxUtils21GetCaptureIntentValueEP11ChiMetadata>:
   1d730: 40 01 00 b4  	cbz	x0, 0x1d758 <_ZN8ChxUtils21GetCaptureIntentValueEP11ChiMetadata+0x48>
   1d754: 80 01 00 34  	cbz	w0, 0x1d784 <_ZN8ChxUtils21GetCaptureIntentValueEP11ChiMetadata+0x74>
   1d768: c1 06 00 54  	b.ne	0x1d840 <_ZN8ChxUtils21GetCaptureIntentValueEP11ChiMetadata+0x130>
   1d784: 88 00 00 90  	adrp	x8, 0x2d000 <_ZN8ChxUtils21GetCaptureIntentValueEP11ChiMetadata+0xb4>
   1d798: 28 fe 2f 36  	tbz	w8, #5, 0x1d75c <_ZN8ChxUtils21GetCaptureIntentValueEP11ChiMetadata+0x4c>
   1d79c: 8a 00 00 90  	adrp	x10, 0x2d000 <_ZN8ChxUtils21GetCaptureIntentValueEP11ChiMetadata+0xcc>
   1d7a0: 74 ff ff f0  	adrp	x20, 0xc000 <_ZN8ChxUtils21GetCaptureIntentValueEP11ChiMetadata+0x4c>
   1d7b4: 21 02 00 54  	b.ne	0x1d7f8 <_ZN8ChxUtils21GetCaptureIntentValueEP11ChiMetadata+0xe8>
   1d7cc: 81 ff ff 90  	adrp	x1, 0xd000 <_ZN8ChxUtils21GetCaptureIntentValueEP11ChiMetadata+0x7c>
   1d7d0: 62 ff ff d0  	adrp	x2, 0xb000 <_ZN8ChxUtils21GetCaptureIntentValueEP11ChiMetadata+0x78>
   1d7d4: 65 ff ff d0  	adrp	x5, 0xb000 <_ZN8ChxUtils21GetCaptureIntentValueEP11ChiMetadata+0x7c>
   1d80c: 61 ff ff f0  	adrp	x1, 0xc000 <_ZN8ChxUtils21GetCaptureIntentValueEP11ChiMetadata+0xb8>
   1d814: 80 ff ff 90  	adrp	x0, 0xd000 <_ZN8ChxUtils21GetCaptureIntentValueEP11ChiMetadata+0xc4>
   1d818: 63 ff ff d0  	adrp	x3, 0xb000 <_ZN8ChxUtils21GetCaptureIntentValueEP11ChiMetadata+0xc0>
   1d81c: 65 ff ff d0  	adrp	x5, 0xb000 <_ZN8ChxUtils21GetCaptureIntentValueEP11ChiMetadata+0xc4>
   1d838: 42 3a 00 94  	bl	0x2c140 <_ZN6ChiLog9LogSystemEPKcS1_S1_S1_iS1_z@plt>
   1d83c: c8 ff ff 17  	b	0x1d75c <_ZN8ChxUtils21GetCaptureIntentValueEP11ChiMetadata+0x4c>
000000000001d848 <_ZN8ChxUtils28DoesCameraHaveOnlyRawStreamsEP19ChiStreamConfigInfoj>:
   1d864: 48 04 00 34  	cbz	w8, 0x1d8ec <_ZN8ChxUtils28DoesCameraHaveOnlyRawStreamsEP19ChiStreamConfigInfoj+0xa4>
   1d880: 06 00 00 14  	b	0x1d898 <_ZN8ChxUtils28DoesCameraHaveOnlyRawStreamsEP19ChiStreamConfigInfoj+0x50>
   1d894: e2 02 00 54  	b.hs	0x1d8f0 <_ZN8ChxUtils28DoesCameraHaveOnlyRawStreamsEP19ChiStreamConfigInfoj+0xa8>
   1d8a4: 20 ff ff b4  	cbz	x0, 0x1d888 <_ZN8ChxUtils28DoesCameraHaveOnlyRawStreamsEP19ChiStreamConfigInfoj+0x40>
   1d8a8: 39 01 00 b4  	cbz	x25, 0x1d8cc <_ZN8ChxUtils28DoesCameraHaveOnlyRawStreamsEP19ChiStreamConfigInfoj+0x84>
   1d8b4: c0 00 00 b4  	cbz	x0, 0x1d8cc <_ZN8ChxUtils28DoesCameraHaveOnlyRawStreamsEP19ChiStreamConfigInfoj+0x84>
   1d8c8: 01 fe ff 54  	b.ne	0x1d888 <_ZN8ChxUtils28DoesCameraHaveOnlyRawStreamsEP19ChiStreamConfigInfoj+0x40>
   1d8d8: 68 00 00 54  	b.hi	0x1d8e4 <_ZN8ChxUtils28DoesCameraHaveOnlyRawStreamsEP19ChiStreamConfigInfoj+0x9c>
   1d8e0: 29 fd 07 37  	tbnz	w9, #0, 0x1d884 <_ZN8ChxUtils28DoesCameraHaveOnlyRawStreamsEP19ChiStreamConfigInfoj+0x3c>
   1d8e8: 04 00 00 14  	b	0x1d8f8 <_ZN8ChxUtils28DoesCameraHaveOnlyRawStreamsEP19ChiStreamConfigInfoj+0xb0>
000000000001d910 <_ZN8ChxUtils23UpdateOptimalDimensionsE12ChiDimensionRK16ChiBufferOptionsRS0_>:
   1d934: 68 05 00 34  	cbz	w8, 0x1d9e0 <_ZN8ChxUtils23UpdateOptimalDimensionsE12ChiDimensionRK16ChiBufferOptionsRS0_+0xd0>
   1d978: 0d 04 00 54  	b.le	0x1d9f8 <_ZN8ChxUtils23UpdateOptimalDimensionsE12ChiDimensionRK16ChiBufferOptionsRS0_+0xe8>
   1d9b4: 99 00 00 90  	adrp	x25, 0x2d000 <_ZN8ChxUtils23UpdateOptimalDimensionsE12ChiDimensionRK16ChiBufferOptionsRS0_+0xe4>
   1d9c0: 63 02 28 37  	tbnz	w3, #5, 0x1da0c <_ZN8ChxUtils23UpdateOptimalDimensionsE12ChiDimensionRK16ChiBufferOptionsRS0_+0xfc>
   1d9cc: 42 08 00 54  	b.hs	0x1dad4 <_ZN8ChxUtils23UpdateOptimalDimensionsE12ChiDimensionRK16ChiBufferOptionsRS0_+0x1c4>
   1d9dc: cd 00 00 14  	b	0x1dd10 <_ZN8ChxUtils23UpdateOptimalDimensionsE12ChiDimensionRK16ChiBufferOptionsRS0_+0x400>
   1d9e0: 88 00 00 90  	adrp	x8, 0x2d000 <_ZN8ChxUtils23UpdateOptimalDimensionsE12ChiDimensionRK16ChiBufferOptionsRS0_+0x110>
   1d9ec: 8b 0d 00 37  	tbnz	w11, #0, 0x1db9c <_ZN8ChxUtils23UpdateOptimalDimensionsE12ChiDimensionRK16ChiBufferOptionsRS0_+0x28c>
   1d9f4: c7 00 00 14  	b	0x1dd10 <_ZN8ChxUtils23UpdateOptimalDimensionsE12ChiDimensionRK16ChiBufferOptionsRS0_+0x400>
   1d9fc: 99 00 00 90  	adrp	x25, 0x2d000 <_ZN8ChxUtils23UpdateOptimalDimensionsE12ChiDimensionRK16ChiBufferOptionsRS0_+0x12c>
   1da08: e3 fd 2f 36  	tbz	w3, #5, 0x1d9c4 <_ZN8ChxUtils23UpdateOptimalDimensionsE12ChiDimensionRK16ChiBufferOptionsRS0_+0xb4>
   1da0c: 8a 00 00 90  	adrp	x10, 0x2d000 <_ZN8ChxUtils23UpdateOptimalDimensionsE12ChiDimensionRK16ChiBufferOptionsRS0_+0x13c>
   1da10: 76 ff ff f0  	adrp	x22, 0xc000 <_ZN8ChxUtils23UpdateOptimalDimensionsE12ChiDimensionRK16ChiBufferOptionsRS0_+0xbc>
   1da24: 81 02 00 54  	b.ne	0x1da74 <_ZN8ChxUtils23UpdateOptimalDimensionsE12ChiDimensionRK16ChiBufferOptionsRS0_+0x164>
   1da40: 81 ff ff 90  	adrp	x1, 0xd000 <_ZN8ChxUtils23UpdateOptimalDimensionsE12ChiDimensionRK16ChiBufferOptionsRS0_+0xf0>
   1da44: 62 ff ff f0  	adrp	x2, 0xc000 <_ZN8ChxUtils23UpdateOptimalDimensionsE12ChiDimensionRK16ChiBufferOptionsRS0_+0xf0>
   1da48: 65 ff ff 90  	adrp	x5, 0x9000 <_ZN8ChxUtils23UpdateOptimalDimensionsE12ChiDimensionRK16ChiBufferOptionsRS0_+0xe8>
   1da8c: 61 ff ff f0  	adrp	x1, 0xc000 <_ZN8ChxUtils23UpdateOptimalDimensionsE12ChiDimensionRK16ChiBufferOptionsRS0_+0x138>
   1da94: 80 ff ff 90  	adrp	x0, 0xd000 <_ZN8ChxUtils23UpdateOptimalDimensionsE12ChiDimensionRK16ChiBufferOptionsRS0_+0x144>
   1da98: 63 ff ff 90  	adrp	x3, 0x9000 <_ZN8ChxUtils23UpdateOptimalDimensionsE12ChiDimensionRK16ChiBufferOptionsRS0_+0x138>
   1da9c: 65 ff ff 90  	adrp	x5, 0x9000 <_ZN8ChxUtils23UpdateOptimalDimensionsE12ChiDimensionRK16ChiBufferOptionsRS0_+0x13c>
   1dac0: a0 39 00 94  	bl	0x2c140 <_ZN6ChiLog9LogSystemEPKcS1_S1_S1_iS1_z@plt>
   1dad0: 03 f8 ff 54  	b.lo	0x1d9d0 <_ZN8ChxUtils23UpdateOptimalDimensionsE12ChiDimensionRK16ChiBufferOptionsRS0_+0xc0>
   1dae4: 49 0b 00 54  	b.ls	0x1dc4c <_ZN8ChxUtils23UpdateOptimalDimensionsE12ChiDimensionRK16ChiBufferOptionsRS0_+0x33c>
   1dae8: 0a 11 08 36  	tbz	w10, #1, 0x1dd08 <_ZN8ChxUtils23UpdateOptimalDimensionsE12ChiDimensionRK16ChiBufferOptionsRS0_+0x3f8>
   1daec: 8b 00 00 90  	adrp	x11, 0x2d000 <_ZN8ChxUtils23UpdateOptimalDimensionsE12ChiDimensionRK16ChiBufferOptionsRS0_+0x21c>
   1dafc: a1 02 00 54  	b.ne	0x1db50 <_ZN8ChxUtils23UpdateOptimalDimensionsE12ChiDimensionRK16ChiBufferOptionsRS0_+0x240>
   1db00: 76 ff ff f0  	adrp	x22, 0xc000 <_ZN8ChxUtils23UpdateOptimalDimensionsE12ChiDimensionRK16ChiBufferOptionsRS0_+0x1ac>
   1db20: 81 ff ff 90  	adrp	x1, 0xd000 <_ZN8ChxUtils23UpdateOptimalDimensionsE12ChiDimensionRK16ChiBufferOptionsRS0_+0x1d0>
   1db24: 62 ff ff 90  	adrp	x2, 0x9000 <_ZN8ChxUtils23UpdateOptimalDimensionsE12ChiDimensionRK16ChiBufferOptionsRS0_+0x1c4>
   1db28: 65 ff ff 90  	adrp	x5, 0x9000 <_ZN8ChxUtils23UpdateOptimalDimensionsE12ChiDimensionRK16ChiBufferOptionsRS0_+0x1c8>
   1db50: 76 ff ff f0  	adrp	x22, 0xc000 <_ZN8ChxUtils23UpdateOptimalDimensionsE12ChiDimensionRK16ChiBufferOptionsRS0_+0x1fc>
   1db6c: 61 ff ff b0  	adrp	x1, 0xa000 <_ZN8ChxUtils23UpdateOptimalDimensionsE12ChiDimensionRK16ChiBufferOptionsRS0_+0x210>
   1db78: 60 ff ff f0  	adrp	x0, 0xc000 <_ZN8ChxUtils23UpdateOptimalDimensionsE12ChiDimensionRK16ChiBufferOptionsRS0_+0x224>
   1db7c: 63 ff ff 90  	adrp	x3, 0x9000 <_ZN8ChxUtils23UpdateOptimalDimensionsE12ChiDimensionRK16ChiBufferOptionsRS0_+0x21c>
   1db80: 65 ff ff 90  	adrp	x5, 0x9000 <_ZN8ChxUtils23UpdateOptimalDimensionsE12ChiDimensionRK16ChiBufferOptionsRS0_+0x220>
   1db98: 59 00 00 14  	b	0x1dcfc <_ZN8ChxUtils23UpdateOptimalDimensionsE12ChiDimensionRK16ChiBufferOptionsRS0_+0x3ec>
   1db9c: 89 00 00 90  	adrp	x9, 0x2d000 <_ZN8ChxUtils23UpdateOptimalDimensionsE12ChiDimensionRK16ChiBufferOptionsRS0_+0x2cc>
   1dbac: 61 02 00 54  	b.ne	0x1dbf8 <_ZN8ChxUtils23UpdateOptimalDimensionsE12ChiDimensionRK16ChiBufferOptionsRS0_+0x2e8>
   1dbb0: 76 ff ff f0  	adrp	x22, 0xc000 <_ZN8ChxUtils23UpdateOptimalDimensionsE12ChiDimensionRK16ChiBufferOptionsRS0_+0x25c>
   1dbd0: 81 ff ff 90  	adrp	x1, 0xd000 <_ZN8ChxUtils23UpdateOptimalDimensionsE12ChiDimensionRK16ChiBufferOptionsRS0_+0x280>
   1dbd4: 62 ff ff f0  	adrp	x2, 0xc000 <_ZN8ChxUtils23UpdateOptimalDimensionsE12ChiDimensionRK16ChiBufferOptionsRS0_+0x280>
   1dbd8: 65 ff ff 90  	adrp	x5, 0x9000 <_ZN8ChxUtils23UpdateOptimalDimensionsE12ChiDimensionRK16ChiBufferOptionsRS0_+0x278>
   1dbf8: 76 ff ff f0  	adrp	x22, 0xc000 <_ZN8ChxUtils23UpdateOptimalDimensionsE12ChiDimensionRK16ChiBufferOptionsRS0_+0x2a4>
   1dc1c: 60 ff ff 90  	adrp	x0, 0x9000 <_ZN8ChxUtils23UpdateOptimalDimensionsE12ChiDimensionRK16ChiBufferOptionsRS0_+0x2bc>
   1dc20: 81 ff ff 90  	adrp	x1, 0xd000 <_ZN8ChxUtils23UpdateOptimalDimensionsE12ChiDimensionRK16ChiBufferOptionsRS0_+0x2d0>
   1dc24: 63 ff ff 90  	adrp	x3, 0x9000 <_ZN8ChxUtils23UpdateOptimalDimensionsE12ChiDimensionRK16ChiBufferOptionsRS0_+0x2c4>
   1dc28: 85 ff ff 90  	adrp	x5, 0xd000 <_ZN8ChxUtils23UpdateOptimalDimensionsE12ChiDimensionRK16ChiBufferOptionsRS0_+0x2d8>
   1dc40: 40 39 00 94  	bl	0x2c140 <_ZN6ChiLog9LogSystemEPKcS1_S1_S1_iS1_z@plt>
   1dc48: 32 00 00 14  	b	0x1dd10 <_ZN8ChxUtils23UpdateOptimalDimensionsE12ChiDimensionRK16ChiBufferOptionsRS0_+0x400>
   1dc4c: ea 05 18 36  	tbz	w10, #3, 0x1dd08 <_ZN8ChxUtils23UpdateOptimalDimensionsE12ChiDimensionRK16ChiBufferOptionsRS0_+0x3f8>
   1dc50: 8c 00 00 90  	adrp	x12, 0x2d000 <_ZN8ChxUtils23UpdateOptimalDimensionsE12ChiDimensionRK16ChiBufferOptionsRS0_+0x380>
   1dc60: a1 02 00 54  	b.ne	0x1dcb4 <_ZN8ChxUtils23UpdateOptimalDimensionsE12ChiDimensionRK16ChiBufferOptionsRS0_+0x3a4>
   1dc64: 76 ff ff f0  	adrp	x22, 0xc000 <_ZN8ChxUtils23UpdateOptimalDimensionsE12ChiDimensionRK16ChiBufferOptionsRS0_+0x310>
   1dc84: 81 ff ff 90  	adrp	x1, 0xd000 <_ZN8ChxUtils23UpdateOptimalDimensionsE12ChiDimensionRK16ChiBufferOptionsRS0_+0x334>
   1dc88: 62 ff ff f0  	adrp	x2, 0xc000 <_ZN8ChxUtils23UpdateOptimalDimensionsE12ChiDimensionRK16ChiBufferOptionsRS0_+0x334>
   1dc8c: 65 ff ff 90  	adrp	x5, 0x9000 <_ZN8ChxUtils23UpdateOptimalDimensionsE12ChiDimensionRK16ChiBufferOptionsRS0_+0x32c>
   1dcb4: 76 ff ff f0  	adrp	x22, 0xc000 <_ZN8ChxUtils23UpdateOptimalDimensionsE12ChiDimensionRK16ChiBufferOptionsRS0_+0x360>
   1dcd4: 61 ff ff d0  	adrp	x1, 0xb000 <_ZN8ChxUtils23UpdateOptimalDimensionsE12ChiDimensionRK16ChiBufferOptionsRS0_+0x37c>
   1dcdc: 80 ff ff b0  	adrp	x0, 0xe000 <_ZN8ChxUtils23UpdateOptimalDimensionsE12ChiDimensionRK16ChiBufferOptionsRS0_+0x390>
   1dce0: 63 ff ff 90  	adrp	x3, 0x9000 <_ZN8ChxUtils23UpdateOptimalDimensionsE12ChiDimensionRK16ChiBufferOptionsRS0_+0x380>
   1dce4: 65 ff ff b0  	adrp	x5, 0xa000 <_ZN8ChxUtils23UpdateOptimalDimensionsE12ChiDimensionRK16ChiBufferOptionsRS0_+0x388>
   1dd04: 0f 39 00 94  	bl	0x2c140 <_ZN6ChiLog9LogSystemEPKcS1_S1_S1_iS1_z@plt>
000000000001dd30 <_ZN8ChxUtils18SetStreamDimensionEP11ChiMetadataPKcjj>:
   1dd4c: a0 01 00 b4  	cbz	x0, 0x1dd80 <_ZN8ChxUtils18SetStreamDimensionEP11ChiMetadataPKcjj+0x50>
   1dd58: 41 01 00 b4  	cbz	x1, 0x1dd80 <_ZN8ChxUtils18SetStreamDimensionEP11ChiMetadataPKcjj+0x50>
   1dd60: 61 ff ff 90  	adrp	x1, 0x9000 <_ZN8ChxUtils23UpdateOptimalDimensionsE12ChiDimensionRK16ChiBufferOptionsRS0_+0x400>
   1dd8c: c1 00 00 54  	b.ne	0x1dda4 <_ZN8ChxUtils18SetStreamDimensionEP11ChiMetadataPKcjj+0x74>
000000000001dda8 <_ZN8ChxUtils22UpdatePhysicalMetadataEP15camera_metadataP11ChiMetadata12CHIRectangleii>:
   1ddd8: 41 02 00 54  	b.ne	0x1de20 <_ZN8ChxUtils22UpdatePhysicalMetadataEP15camera_metadataP11ChiMetadata12CHIRectangleii+0x78>
   1ddec: e0 00 00 34  	cbz	w0, 0x1de08 <_ZN8ChxUtils22UpdatePhysicalMetadataEP15camera_metadataP11ChiMetadata12CHIRectangleii+0x60>
   1de04: 07 00 00 14  	b	0x1de20 <_ZN8ChxUtils22UpdatePhysicalMetadataEP15camera_metadataP11ChiMetadata12CHIRectangleii+0x78>
   1de34: 80 00 00 35  	cbnz	w0, 0x1de44 <_ZN8ChxUtils22UpdatePhysicalMetadataEP15camera_metadataP11ChiMetadata12CHIRectangleii+0x9c>
   1de50: a1 00 00 54  	b.ne	0x1de64 <_ZN8ChxUtils22UpdatePhysicalMetadataEP15camera_metadataP11ChiMetadata12CHIRectangleii+0xbc>
000000000001de68 <_ZN8ChxUtils18IsSnapshotMetadataEP11ChiMetadata>:
   1de7c: 61 ff ff 90  	adrp	x1, 0x9000 <_ZN8ChxUtils22UpdatePhysicalMetadataEP15camera_metadataP11ChiMetadata12CHIRectangleii+0x84>
   1de84: 62 ff ff d0  	adrp	x2, 0xb000 <_ZN8ChxUtils22UpdatePhysicalMetadataEP15camera_metadataP11ChiMetadata12CHIRectangleii+0x94>
   1deb0: a8 01 00 b4  	cbz	x8, 0x1dee4 <_ZN8ChxUtils18IsSnapshotMetadataEP11ChiMetadata+0x7c>
   1ded0: 01 07 00 54  	b.ne	0x1dfb0 <_ZN8ChxUtils18IsSnapshotMetadataEP11ChiMetadata+0x148>
   1dee4: 89 00 00 90  	adrp	x9, 0x2d000 <_ZN8ChxUtils18IsSnapshotMetadataEP11ChiMetadata+0xbc>
   1def0: e8 04 00 36  	tbz	w8, #0, 0x1df8c <_ZN8ChxUtils18IsSnapshotMetadataEP11ChiMetadata+0x124>
   1def4: 8a 00 00 90  	adrp	x10, 0x2d000 <_ZN8ChxUtils18IsSnapshotMetadataEP11ChiMetadata+0xcc>
   1def8: 73 ff ff f0  	adrp	x19, 0xc000 <_ZN8ChxUtils18IsSnapshotMetadataEP11ChiMetadata+0x4c>
   1df0c: 01 02 00 54  	b.ne	0x1df4c <_ZN8ChxUtils18IsSnapshotMetadataEP11ChiMetadata+0xe4>
   1df24: 81 ff ff 90  	adrp	x1, 0xd000 <_ZN8ChxUtils18IsSnapshotMetadataEP11ChiMetadata+0x7c>
   1df28: 62 ff ff d0  	adrp	x2, 0xb000 <_ZN8ChxUtils18IsSnapshotMetadataEP11ChiMetadata+0x78>
   1df2c: 65 ff ff b0  	adrp	x5, 0xa000 <_ZN8ChxUtils18IsSnapshotMetadataEP11ChiMetadata+0x78>
   1df60: 81 ff ff 90  	adrp	x1, 0xd000 <_ZN8ChxUtils18IsSnapshotMetadataEP11ChiMetadata+0xb8>
   1df68: 60 ff ff 90  	adrp	x0, 0x9000 <_ZN8ChxUtils18IsSnapshotMetadataEP11ChiMetadata+0xb0>
   1df6c: 63 ff ff b0  	adrp	x3, 0xa000 <_ZN8ChxUtils18IsSnapshotMetadataEP11ChiMetadata+0xb8>
   1df70: 65 ff ff d0  	adrp	x5, 0xb000 <_ZN8ChxUtils18IsSnapshotMetadataEP11ChiMetadata+0xc0>
   1df88: 6e 38 00 94  	bl	0x2c140 <_ZN6ChiLog9LogSystemEPKcS1_S1_S1_iS1_z@plt>
   1df98: c1 00 00 54  	b.ne	0x1dfb0 <_ZN8ChxUtils18IsSnapshotMetadataEP11ChiMetadata+0x148>
000000000001dfb8 <_ZN8ChxUtils27UpdatePartialTuningModeDataEP11ChiMetadatajjj>:
   1dfe4: 60 13 00 b4  	cbz	x0, 0x1e250 <_ZN8ChxUtils27UpdatePartialTuningModeDataEP11ChiMetadatajjj+0x298>
   1dfe8: 5a 39 00 94  	bl	0x2c550 <_ZN15ExtensionModule11GetInstanceEv@plt>
   1e008: 76 00 00 f0  	adrp	x22, 0x2d000 <_ZN8ChxUtils27UpdatePartialTuningModeDataEP11ChiMetadatajjj+0x8c>
   1e010: 20 05 00 34  	cbz	w0, 0x1e0b4 <_ZN8ChxUtils27UpdatePartialTuningModeDataEP11ChiMetadatajjj+0xfc>
   1e018: e8 04 08 36  	tbz	w8, #1, 0x1e0b4 <_ZN8ChxUtils27UpdatePartialTuningModeDataEP11ChiMetadatajjj+0xfc>
   1e01c: 68 00 00 f0  	adrp	x8, 0x2d000 <_ZN8ChxUtils27UpdatePartialTuningModeDataEP11ChiMetadatajjj+0xa0>
   1e020: 74 ff ff d0  	adrp	x20, 0xc000 <_ZN8ChxUtils27UpdatePartialTuningModeDataEP11ChiMetadatajjj+0x20>
   1e034: 01 02 00 54  	b.ne	0x1e074 <_ZN8ChxUtils27UpdatePartialTuningModeDataEP11ChiMetadatajjj+0xbc>
   1e04c: 61 ff ff f0  	adrp	x1, 0xd000 <_ZN8ChxUtils27UpdatePartialTuningModeDataEP11ChiMetadatajjj+0x50>
   1e050: 62 ff ff 90  	adrp	x2, 0xa000 <_ZN8ChxUtils27UpdatePartialTuningModeDataEP11ChiMetadatajjj+0x48>
   1e054: 65 ff ff d0  	adrp	x5, 0xc000 <_ZN8ChxUtils27UpdatePartialTuningModeDataEP11ChiMetadatajjj+0x54>
   1e088: 61 ff ff 90  	adrp	x1, 0xa000 <_ZN8ChxUtils27UpdatePartialTuningModeDataEP11ChiMetadatajjj+0x80>
   1e090: 60 ff ff d0  	adrp	x0, 0xc000 <_ZN8ChxUtils27UpdatePartialTuningModeDataEP11ChiMetadatajjj+0x90>
   1e094: 63 ff ff d0  	adrp	x3, 0xc000 <_ZN8ChxUtils27UpdatePartialTuningModeDataEP11ChiMetadatajjj+0x94>
   1e098: 65 ff ff d0  	adrp	x5, 0xc000 <_ZN8ChxUtils27UpdatePartialTuningModeDataEP11ChiMetadatajjj+0x98>
   1e0b0: 24 38 00 94  	bl	0x2c140 <_ZN6ChiLog9LogSystemEPKcS1_S1_S1_iS1_z@plt>
   1e0b4: 27 39 00 94  	bl	0x2c550 <_ZN15ExtensionModule11GetInstanceEv@plt>
   1e0d4: 60 05 00 34  	cbz	w0, 0x1e180 <_ZN8ChxUtils27UpdatePartialTuningModeDataEP11ChiMetadatajjj+0x1c8>
   1e0dc: 29 05 08 36  	tbz	w9, #1, 0x1e180 <_ZN8ChxUtils27UpdatePartialTuningModeDataEP11ChiMetadatajjj+0x1c8>
   1e0e0: 69 00 00 f0  	adrp	x9, 0x2d000 <_ZN8ChxUtils27UpdatePartialTuningModeDataEP11ChiMetadatajjj+0x164>
   1e0f0: 41 02 00 54  	b.ne	0x1e138 <_ZN8ChxUtils27UpdatePartialTuningModeDataEP11ChiMetadatajjj+0x180>
   1e0f4: 74 ff ff d0  	adrp	x20, 0xc000 <_ZN8ChxUtils27UpdatePartialTuningModeDataEP11ChiMetadatajjj+0xf4>
   1e110: 61 ff ff f0  	adrp	x1, 0xd000 <_ZN8ChxUtils27UpdatePartialTuningModeDataEP11ChiMetadatajjj+0x114>
   1e114: 62 ff ff d0  	adrp	x2, 0xc000 <_ZN8ChxUtils27UpdatePartialTuningModeDataEP11ChiMetadatajjj+0x114>
   1e118: 65 ff ff d0  	adrp	x5, 0xc000 <_ZN8ChxUtils27UpdatePartialTuningModeDataEP11ChiMetadatajjj+0x118>
   1e138: 74 ff ff d0  	adrp	x20, 0xc000 <_ZN8ChxUtils27UpdatePartialTuningModeDataEP11ChiMetadatajjj+0x138>
   1e154: 61 ff ff 90  	adrp	x1, 0xa000 <_ZN8ChxUtils27UpdatePartialTuningModeDataEP11ChiMetadatajjj+0x14c>
   1e15c: 60 ff ff d0  	adrp	x0, 0xc000 <_ZN8ChxUtils27UpdatePartialTuningModeDataEP11ChiMetadatajjj+0x15c>
   1e160: 63 ff ff d0  	adrp	x3, 0xc000 <_ZN8ChxUtils27UpdatePartialTuningModeDataEP11ChiMetadatajjj+0x160>
   1e164: 45 ff ff f0  	adrp	x5, 0x9000 <_ZN8ChxUtils27UpdatePartialTuningModeDataEP11ChiMetadatajjj+0x158>
   1e17c: f1 37 00 94  	bl	0x2c140 <_ZN6ChiLog9LogSystemEPKcS1_S1_S1_iS1_z@plt>
   1e180: f4 38 00 94  	bl	0x2c550 <_ZN15ExtensionModule11GetInstanceEv@plt>
   1e1a4: 60 05 00 34  	cbz	w0, 0x1e250 <_ZN8ChxUtils27UpdatePartialTuningModeDataEP11ChiMetadatajjj+0x298>
   1e1ac: 2a 05 08 36  	tbz	w10, #1, 0x1e250 <_ZN8ChxUtils27UpdatePartialTuningModeDataEP11ChiMetadatajjj+0x298>
   1e1b0: 6a 00 00 f0  	adrp	x10, 0x2d000 <_ZN8ChxUtils27UpdatePartialTuningModeDataEP11ChiMetadatajjj+0x234>
   1e1c0: 41 02 00 54  	b.ne	0x1e208 <_ZN8ChxUtils27UpdatePartialTuningModeDataEP11ChiMetadatajjj+0x250>
   1e1c4: 74 ff ff d0  	adrp	x20, 0xc000 <_ZN8ChxUtils27UpdatePartialTuningModeDataEP11ChiMetadatajjj+0x1c4>
   1e1e0: 61 ff ff f0  	adrp	x1, 0xd000 <_ZN8ChxUtils27UpdatePartialTuningModeDataEP11ChiMetadatajjj+0x1e4>
   1e1e4: 62 ff ff d0  	adrp	x2, 0xc000 <_ZN8ChxUtils27UpdatePartialTuningModeDataEP11ChiMetadatajjj+0x1e4>
   1e1e8: 65 ff ff d0  	adrp	x5, 0xc000 <_ZN8ChxUtils27UpdatePartialTuningModeDataEP11ChiMetadatajjj+0x1e8>
   1e208: 74 ff ff d0  	adrp	x20, 0xc000 <_ZN8ChxUtils27UpdatePartialTuningModeDataEP11ChiMetadatajjj+0x208>
   1e224: 61 ff ff 90  	adrp	x1, 0xa000 <_ZN8ChxUtils27UpdatePartialTuningModeDataEP11ChiMetadatajjj+0x21c>
   1e22c: 60 ff ff d0  	adrp	x0, 0xc000 <_ZN8ChxUtils27UpdatePartialTuningModeDataEP11ChiMetadatajjj+0x22c>
   1e230: 63 ff ff d0  	adrp	x3, 0xc000 <_ZN8ChxUtils27UpdatePartialTuningModeDataEP11ChiMetadatajjj+0x230>
   1e234: 65 ff ff b0  	adrp	x5, 0xb000 <_ZN8ChxUtils27UpdatePartialTuningModeDataEP11ChiMetadatajjj+0x230>
   1e24c: bd 37 00 94  	bl	0x2c140 <_ZN6ChiLog9LogSystemEPKcS1_S1_S1_iS1_z@plt>
   1e25c: e1 00 00 54  	b.ne	0x1e278 <_ZN8ChxUtils27UpdatePartialTuningModeDataEP11ChiMetadatajjj+0x2c0>
000000000001e280 <_ZN8ChxUtils31GetFeatureValueForInternelVideoE13VideoSizeType>:
   1e288: a2 00 00 54  	b.hs	0x1e29c <_ZN8ChxUtils31GetFeatureValueForInternelVideoE13VideoSizeType+0x1c>
   1e28c: 89 ff ff 90  	adrp	x9, 0xe000 <_ZN8ChxUtils27UpdatePartialTuningModeDataEP11ChiMetadatajjj+0x294>
000000000001e2b0 <_ZN8ChxUtils19SetOfflineDebugDataEP11ChiMetadatam>:
   1e300: e8 00 00 b4  	cbz	x8, 0x1e31c <_ZN8ChxUtils19SetOfflineDebugDataEP11ChiMetadatam+0x6c>
   1e308: 78 00 00 f0  	adrp	x24, 0x2d000 <_ZN8ChxUtils19SetOfflineDebugDataEP11ChiMetadatam+0x94>
   1e314: ea 00 18 37  	tbnz	w10, #3, 0x1e330 <_ZN8ChxUtils19SetOfflineDebugDataEP11ChiMetadatam+0x80>
   1e318: 30 00 00 14  	b	0x1e3d8 <_ZN8ChxUtils19SetOfflineDebugDataEP11ChiMetadatam+0x128>
   1e320: 78 00 00 f0  	adrp	x24, 0x2d000 <_ZN8ChxUtils19SetOfflineDebugDataEP11ChiMetadatam+0xac>
   1e32c: 6a 05 18 36  	tbz	w10, #3, 0x1e3d8 <_ZN8ChxUtils19SetOfflineDebugDataEP11ChiMetadatam+0x128>
   1e330: 69 00 00 f0  	adrp	x9, 0x2d000 <_ZN8ChxUtils19SetOfflineDebugDataEP11ChiMetadatam+0xbc>
   1e334: 76 ff ff d0  	adrp	x22, 0xc000 <_ZN8ChxUtils19SetOfflineDebugDataEP11ChiMetadatam+0x3c>
   1e348: 41 02 00 54  	b.ne	0x1e390 <_ZN8ChxUtils19SetOfflineDebugDataEP11ChiMetadatam+0xe0>
   1e360: 61 ff ff f0  	adrp	x1, 0xd000 <_ZN8ChxUtils19SetOfflineDebugDataEP11ChiMetadatam+0x6c>
   1e364: 62 ff ff b0  	adrp	x2, 0xb000 <_ZN8ChxUtils19SetOfflineDebugDataEP11ChiMetadatam+0x68>
   1e368: 65 ff ff b0  	adrp	x5, 0xb000 <_ZN8ChxUtils19SetOfflineDebugDataEP11ChiMetadatam+0x6c>
   1e3a4: 61 ff ff b0  	adrp	x1, 0xb000 <_ZN8ChxUtils19SetOfflineDebugDataEP11ChiMetadatam+0xa8>
   1e3ac: 80 ff ff 90  	adrp	x0, 0xe000 <_ZN8ChxUtils19SetOfflineDebugDataEP11ChiMetadatam+0xbc>
   1e3b0: 63 ff ff b0  	adrp	x3, 0xb000 <_ZN8ChxUtils19SetOfflineDebugDataEP11ChiMetadatam+0xb4>
   1e3b4: 85 ff ff 90  	adrp	x5, 0xe000 <_ZN8ChxUtils19SetOfflineDebugDataEP11ChiMetadatam+0xc4>
   1e3d4: 5b 37 00 94  	bl	0x2c140 <_ZN6ChiLog9LogSystemEPKcS1_S1_S1_iS1_z@plt>
   1e3d8: 5e 38 00 94  	bl	0x2c550 <_ZN15ExtensionModule11GetInstanceEv@plt>
   1e404: 34 14 00 b4  	cbz	x20, 0x1e688 <_ZN8ChxUtils19SetOfflineDebugDataEP11ChiMetadatam+0x3d8>
   1e408: e8 05 18 36  	tbz	w8, #3, 0x1e4c4 <_ZN8ChxUtils19SetOfflineDebugDataEP11ChiMetadatam+0x214>
   1e40c: 6b 00 00 f0  	adrp	x11, 0x2d000 <_ZN8ChxUtils19SetOfflineDebugDataEP11ChiMetadatam+0x198>
   1e41c: a1 02 00 54  	b.ne	0x1e470 <_ZN8ChxUtils19SetOfflineDebugDataEP11ChiMetadatam+0x1c0>
   1e420: 75 ff ff d0  	adrp	x21, 0xc000 <_ZN8ChxUtils19SetOfflineDebugDataEP11ChiMetadatam+0x128>
   1e440: 61 ff ff f0  	adrp	x1, 0xd000 <_ZN8ChxUtils19SetOfflineDebugDataEP11ChiMetadatam+0x14c>
   1e444: 62 ff ff d0  	adrp	x2, 0xc000 <_ZN8ChxUtils19SetOfflineDebugDataEP11ChiMetadatam+0x14c>
   1e448: 65 ff ff b0  	adrp	x5, 0xb000 <_ZN8ChxUtils19SetOfflineDebugDataEP11ChiMetadatam+0x14c>
   1e470: 76 ff ff d0  	adrp	x22, 0xc000 <_ZN8ChxUtils19SetOfflineDebugDataEP11ChiMetadatam+0x178>
   1e48c: 61 ff ff b0  	adrp	x1, 0xb000 <_ZN8ChxUtils19SetOfflineDebugDataEP11ChiMetadatam+0x190>
   1e498: 80 ff ff 90  	adrp	x0, 0xe000 <_ZN8ChxUtils19SetOfflineDebugDataEP11ChiMetadatam+0x1a8>
   1e49c: 63 ff ff b0  	adrp	x3, 0xb000 <_ZN8ChxUtils19SetOfflineDebugDataEP11ChiMetadatam+0x1a0>
   1e4a0: 65 ff ff b0  	adrp	x5, 0xb000 <_ZN8ChxUtils19SetOfflineDebugDataEP11ChiMetadatam+0x1a4>
   1e4c0: 20 37 00 94  	bl	0x2c140 <_ZN6ChiLog9LogSystemEPKcS1_S1_S1_iS1_z@plt>
   1e4c8: 6d 13 00 b4  	cbz	x13, 0x1e734 <_ZN8ChxUtils19SetOfflineDebugDataEP11ChiMetadatam+0x484>
   1e4d0: 2e 13 00 b4  	cbz	x14, 0x1e734 <_ZN8ChxUtils19SetOfflineDebugDataEP11ChiMetadatam+0x484>
   1e4d4: 1f 38 00 94  	bl	0x2c550 <_ZN15ExtensionModule11GetInstanceEv@plt>
   1e4d8: b6 38 00 94  	bl	0x2c7b0 <_ZN15ExtensionModule33GetDebugDataBufferAndAddReferenceEv@plt>
   1e4dc: 20 18 00 b4  	cbz	x0, 0x1e7e0 <_ZN8ChxUtils19SetOfflineDebugDataEP11ChiMetadatam+0x530>
   1e4e8: 6b 05 18 36  	tbz	w11, #3, 0x1e594 <_ZN8ChxUtils19SetOfflineDebugDataEP11ChiMetadatam+0x2e4>
   1e4ec: 6c 00 00 f0  	adrp	x12, 0x2d000 <_ZN8ChxUtils19SetOfflineDebugDataEP11ChiMetadatam+0x278>
   1e4fc: 61 02 00 54  	b.ne	0x1e548 <_ZN8ChxUtils19SetOfflineDebugDataEP11ChiMetadatam+0x298>
   1e500: 76 ff ff d0  	adrp	x22, 0xc000 <_ZN8ChxUtils19SetOfflineDebugDataEP11ChiMetadatam+0x208>
   1e520: 61 ff ff f0  	adrp	x1, 0xd000 <_ZN8ChxUtils19SetOfflineDebugDataEP11ChiMetadatam+0x22c>
   1e524: 62 ff ff b0  	adrp	x2, 0xb000 <_ZN8ChxUtils19SetOfflineDebugDataEP11ChiMetadatam+0x228>
   1e528: 65 ff ff b0  	adrp	x5, 0xb000 <_ZN8ChxUtils19SetOfflineDebugDataEP11ChiMetadatam+0x22c>
   1e548: 76 ff ff d0  	adrp	x22, 0xc000 <_ZN8ChxUtils19SetOfflineDebugDataEP11ChiMetadatam+0x250>
   1e56c: 80 ff ff 90  	adrp	x0, 0xe000 <_ZN8ChxUtils19SetOfflineDebugDataEP11ChiMetadatam+0x27c>
   1e570: 61 ff ff b0  	adrp	x1, 0xb000 <_ZN8ChxUtils19SetOfflineDebugDataEP11ChiMetadatam+0x274>
   1e574: 63 ff ff b0  	adrp	x3, 0xb000 <_ZN8ChxUtils19SetOfflineDebugDataEP11ChiMetadatam+0x278>
   1e578: 65 ff ff b0  	adrp	x5, 0xb000 <_ZN8ChxUtils19SetOfflineDebugDataEP11ChiMetadatam+0x27c>
   1e590: ec 36 00 94  	bl	0x2c140 <_ZN6ChiLog9LogSystemEPKcS1_S1_S1_iS1_z@plt>
   1e598: 40 12 00 b4  	cbz	x0, 0x1e7e0 <_ZN8ChxUtils19SetOfflineDebugDataEP11ChiMetadatam+0x530>
   1e5a0: 42 1e 00 b4  	cbz	x2, 0x1e968 <_ZN8ChxUtils19SetOfflineDebugDataEP11ChiMetadatam+0x6b8>
   1e5ac: e1 12 00 54  	b.ne	0x1e808 <_ZN8ChxUtils19SetOfflineDebugDataEP11ChiMetadatam+0x558>
   1e5b4: 41 00 00 b4  	cbz	x1, 0x1e5bc <_ZN8ChxUtils19SetOfflineDebugDataEP11ChiMetadatam+0x30c>
   1e5bc: e5 37 00 94  	bl	0x2c550 <_ZN15ExtensionModule11GetInstanceEv@plt>
   1e5e0: 20 17 00 34  	cbz	w0, 0x1e8c4 <_ZN8ChxUtils19SetOfflineDebugDataEP11ChiMetadatam+0x614>
   1e5e4: c9 0f 00 36  	tbz	w9, #0, 0x1e7dc <_ZN8ChxUtils19SetOfflineDebugDataEP11ChiMetadatam+0x52c>
   1e5e8: 6e 00 00 f0  	adrp	x14, 0x2d000 <_ZN8ChxUtils19SetOfflineDebugDataEP11ChiMetadatam+0x374>
   1e5f8: 41 02 00 54  	b.ne	0x1e640 <_ZN8ChxUtils19SetOfflineDebugDataEP11ChiMetadatam+0x390>
   1e5fc: 74 ff ff d0  	adrp	x20, 0xc000 <_ZN8ChxUtils19SetOfflineDebugDataEP11ChiMetadatam+0x304>
   1e618: 61 ff ff f0  	adrp	x1, 0xd000 <_ZN8ChxUtils19SetOfflineDebugDataEP11ChiMetadatam+0x324>
   1e61c: 62 ff ff b0  	adrp	x2, 0xb000 <_ZN8ChxUtils19SetOfflineDebugDataEP11ChiMetadatam+0x320>
   1e620: 65 ff ff b0  	adrp	x5, 0xb000 <_ZN8ChxUtils19SetOfflineDebugDataEP11ChiMetadatam+0x324>
   1e640: 75 ff ff d0  	adrp	x21, 0xc000 <_ZN8ChxUtils19SetOfflineDebugDataEP11ChiMetadatam+0x348>
   1e65c: 61 ff ff f0  	adrp	x1, 0xd000 <_ZN8ChxUtils19SetOfflineDebugDataEP11ChiMetadatam+0x368>
   1e664: 40 ff ff f0  	adrp	x0, 0x9000 <_ZN8ChxUtils19SetOfflineDebugDataEP11ChiMetadatam+0x360>
   1e668: 63 ff ff b0  	adrp	x3, 0xb000 <_ZN8ChxUtils19SetOfflineDebugDataEP11ChiMetadatam+0x36c>
   1e66c: 65 ff ff 90  	adrp	x5, 0xa000 <_ZN8ChxUtils19SetOfflineDebugDataEP11ChiMetadatam+0x36c>
   1e684: 55 00 00 14  	b	0x1e7d8 <_ZN8ChxUtils19SetOfflineDebugDataEP11ChiMetadatam+0x528>
   1e688: 68 05 30 36  	tbz	w8, #6, 0x1e734 <_ZN8ChxUtils19SetOfflineDebugDataEP11ChiMetadatam+0x484>
   1e68c: 6a 00 00 f0  	adrp	x10, 0x2d000 <_ZN8ChxUtils19SetOfflineDebugDataEP11ChiMetadatam+0x418>
   1e69c: 61 02 00 54  	b.ne	0x1e6e8 <_ZN8ChxUtils19SetOfflineDebugDataEP11ChiMetadatam+0x438>
   1e6a0: 74 ff ff d0  	adrp	x20, 0xc000 <_ZN8ChxUtils19SetOfflineDebugDataEP11ChiMetadatam+0x3a8>
   1e6bc: 61 ff ff f0  	adrp	x1, 0xd000 <_ZN8ChxUtils19SetOfflineDebugDataEP11ChiMetadatam+0x3c8>
   1e6c0: 62 ff ff f0  	adrp	x2, 0xd000 <_ZN8ChxUtils19SetOfflineDebugDataEP11ChiMetadatam+0x3cc>
   1e6c4: 65 ff ff b0  	adrp	x5, 0xb000 <_ZN8ChxUtils19SetOfflineDebugDataEP11ChiMetadatam+0x3c8>
   1e6e8: 76 ff ff d0  	adrp	x22, 0xc000 <_ZN8ChxUtils19SetOfflineDebugDataEP11ChiMetadatam+0x3f0>
   1e704: 41 ff ff f0  	adrp	x1, 0x9000 <_ZN8ChxUtils19SetOfflineDebugDataEP11ChiMetadatam+0x400>
   1e70c: 60 ff ff d0  	adrp	x0, 0xc000 <_ZN8ChxUtils19SetOfflineDebugDataEP11ChiMetadatam+0x414>
   1e710: 63 ff ff b0  	adrp	x3, 0xb000 <_ZN8ChxUtils19SetOfflineDebugDataEP11ChiMetadatam+0x414>
   1e714: 65 ff ff 90  	adrp	x5, 0xa000 <_ZN8ChxUtils19SetOfflineDebugDataEP11ChiMetadatam+0x414>
   1e730: 84 36 00 94  	bl	0x2c140 <_ZN6ChiLog9LogSystemEPKcS1_S1_S1_iS1_z@plt>
   1e738: 2d 05 00 36  	tbz	w13, #0, 0x1e7dc <_ZN8ChxUtils19SetOfflineDebugDataEP11ChiMetadatam+0x52c>
   1e73c: 70 00 00 f0  	adrp	x16, 0x2d000 <_ZN8ChxUtils19SetOfflineDebugDataEP11ChiMetadatam+0x4c8>
   1e74c: 41 02 00 54  	b.ne	0x1e794 <_ZN8ChxUtils19SetOfflineDebugDataEP11ChiMetadatam+0x4e4>
   1e750: 75 ff ff d0  	adrp	x21, 0xc000 <_ZN8ChxUtils19SetOfflineDebugDataEP11ChiMetadatam+0x458>
   1e76c: 61 ff ff f0  	adrp	x1, 0xd000 <_ZN8ChxUtils19SetOfflineDebugDataEP11ChiMetadatam+0x478>
   1e770: 62 ff ff f0  	adrp	x2, 0xd000 <_ZN8ChxUtils19SetOfflineDebugDataEP11ChiMetadatam+0x47c>
   1e774: 65 ff ff b0  	adrp	x5, 0xb000 <_ZN8ChxUtils19SetOfflineDebugDataEP11ChiMetadatam+0x478>
   1e794: 76 ff ff d0  	adrp	x22, 0xc000 <_ZN8ChxUtils19SetOfflineDebugDataEP11ChiMetadatam+0x49c>
   1e7b0: 61 ff ff f0  	adrp	x1, 0xd000 <_ZN8ChxUtils19SetOfflineDebugDataEP11ChiMetadatam+0x4bc>
   1e7b8: 40 ff ff f0  	adrp	x0, 0x9000 <_ZN8ChxUtils19SetOfflineDebugDataEP11ChiMetadatam+0x4b4>
   1e7bc: 63 ff ff b0  	adrp	x3, 0xb000 <_ZN8ChxUtils19SetOfflineDebugDataEP11ChiMetadatam+0x4c0>
   1e7c0: 45 ff ff f0  	adrp	x5, 0x9000 <_ZN8ChxUtils19SetOfflineDebugDataEP11ChiMetadatam+0x4bc>
   1e7d8: 5a 36 00 94  	bl	0x2c140 <_ZN6ChiLog9LogSystemEPKcS1_S1_S1_iS1_z@plt>
   1e7ec: 81 0c 00 54  	b.ne	0x1e97c <_ZN8ChxUtils19SetOfflineDebugDataEP11ChiMetadatam+0x6cc>
   1e80c: 8c fe 07 36  	tbz	w12, #0, 0x1e7dc <_ZN8ChxUtils19SetOfflineDebugDataEP11ChiMetadatam+0x52c>
   1e810: 6d 00 00 f0  	adrp	x13, 0x2d000 <_ZN8ChxUtils19SetOfflineDebugDataEP11ChiMetadatam+0x59c>
   1e820: 81 02 00 54  	b.ne	0x1e870 <_ZN8ChxUtils19SetOfflineDebugDataEP11ChiMetadatam+0x5c0>
   1e824: 76 ff ff d0  	adrp	x22, 0xc000 <_ZN8ChxUtils19SetOfflineDebugDataEP11ChiMetadatam+0x52c>
   1e848: 61 ff ff f0  	adrp	x1, 0xd000 <_ZN8ChxUtils19SetOfflineDebugDataEP11ChiMetadatam+0x554>
   1e84c: 62 ff ff b0  	adrp	x2, 0xb000 <_ZN8ChxUtils19SetOfflineDebugDataEP11ChiMetadatam+0x550>
   1e850: 65 ff ff b0  	adrp	x5, 0xb000 <_ZN8ChxUtils19SetOfflineDebugDataEP11ChiMetadatam+0x554>
   1e870: 76 ff ff d0  	adrp	x22, 0xc000 <_ZN8ChxUtils19SetOfflineDebugDataEP11ChiMetadatam+0x578>
   1e898: 40 ff ff f0  	adrp	x0, 0x9000 <_ZN8ChxUtils19SetOfflineDebugDataEP11ChiMetadatam+0x594>
   1e89c: 61 ff ff f0  	adrp	x1, 0xd000 <_ZN8ChxUtils19SetOfflineDebugDataEP11ChiMetadatam+0x5a8>
   1e8a0: 63 ff ff b0  	adrp	x3, 0xb000 <_ZN8ChxUtils19SetOfflineDebugDataEP11ChiMetadatam+0x5a4>
   1e8a4: 45 ff ff f0  	adrp	x5, 0x9000 <_ZN8ChxUtils19SetOfflineDebugDataEP11ChiMetadatam+0x5a0>
   1e8bc: 21 36 00 94  	bl	0x2c140 <_ZN6ChiLog9LogSystemEPKcS1_S1_S1_iS1_z@plt>
   1e8c0: c7 ff ff 17  	b	0x1e7dc <_ZN8ChxUtils19SetOfflineDebugDataEP11ChiMetadatam+0x52c>
   1e8c4: 29 05 18 36  	tbz	w9, #3, 0x1e968 <_ZN8ChxUtils19SetOfflineDebugDataEP11ChiMetadatam+0x6b8>
   1e8c8: 6f 00 00 f0  	adrp	x15, 0x2d000 <_ZN8ChxUtils19SetOfflineDebugDataEP11ChiMetadatam+0x654>
   1e8d8: 41 02 00 54  	b.ne	0x1e920 <_ZN8ChxUtils19SetOfflineDebugDataEP11ChiMetadatam+0x670>
   1e8dc: 76 ff ff d0  	adrp	x22, 0xc000 <_ZN8ChxUtils19SetOfflineDebugDataEP11ChiMetadatam+0x5e4>
   1e8f8: 61 ff ff f0  	adrp	x1, 0xd000 <_ZN8ChxUtils19SetOfflineDebugDataEP11ChiMetadatam+0x604>
   1e8fc: 42 ff ff f0  	adrp	x2, 0x9000 <_ZN8ChxUtils19SetOfflineDebugDataEP11ChiMetadatam+0x5f8>
   1e900: 65 ff ff b0  	adrp	x5, 0xb000 <_ZN8ChxUtils19SetOfflineDebugDataEP11ChiMetadatam+0x604>
   1e920: 74 ff ff d0  	adrp	x20, 0xc000 <_ZN8ChxUtils19SetOfflineDebugDataEP11ChiMetadatam+0x628>
   1e93c: 61 ff ff b0  	adrp	x1, 0xb000 <_ZN8ChxUtils19SetOfflineDebugDataEP11ChiMetadatam+0x640>
   1e944: 80 ff ff 90  	adrp	x0, 0xe000 <_ZN8ChxUtils19SetOfflineDebugDataEP11ChiMetadatam+0x654>
   1e948: 63 ff ff b0  	adrp	x3, 0xb000 <_ZN8ChxUtils19SetOfflineDebugDataEP11ChiMetadatam+0x64c>
   1e94c: 45 ff ff f0  	adrp	x5, 0x9000 <_ZN8ChxUtils19SetOfflineDebugDataEP11ChiMetadatam+0x648>
   1e964: f7 35 00 94  	bl	0x2c140 <_ZN6ChiLog9LogSystemEPKcS1_S1_S1_iS1_z@plt>
   1e978: c0 f3 ff 54  	b.eq	0x1e7f0 <_ZN8ChxUtils19SetOfflineDebugDataEP11ChiMetadatam+0x540>
000000000001e980 <_ZN8ChxUtils23ReleaseOfflineDebugDataEP11ChiMetadata>:
   1e9cc: e8 00 00 b4  	cbz	x8, 0x1e9e8 <_ZN8ChxUtils23ReleaseOfflineDebugDataEP11ChiMetadata+0x68>
   1e9d4: 77 00 00 f0  	adrp	x23, 0x2d000 <_ZN8ChxUtils23ReleaseOfflineDebugDataEP11ChiMetadata+0x90>
   1e9e0: e8 00 18 37  	tbnz	w8, #3, 0x1e9fc <_ZN8ChxUtils23ReleaseOfflineDebugDataEP11ChiMetadata+0x7c>
   1e9e4: 2e 00 00 14  	b	0x1ea9c <_ZN8ChxUtils23ReleaseOfflineDebugDataEP11ChiMetadata+0x11c>
   1e9ec: 77 00 00 f0  	adrp	x23, 0x2d000 <_ZN8ChxUtils23ReleaseOfflineDebugDataEP11ChiMetadata+0xa8>
   1e9f8: 28 05 18 36  	tbz	w8, #3, 0x1ea9c <_ZN8ChxUtils23ReleaseOfflineDebugDataEP11ChiMetadata+0x11c>
   1e9fc: 69 00 00 f0  	adrp	x9, 0x2d000 <_ZN8ChxUtils23ReleaseOfflineDebugDataEP11ChiMetadata+0xb8>
   1ea00: 75 ff ff d0  	adrp	x21, 0xc000 <_ZN8ChxUtils23ReleaseOfflineDebugDataEP11ChiMetadata+0x38>
   1ea14: 21 02 00 54  	b.ne	0x1ea58 <_ZN8ChxUtils23ReleaseOfflineDebugDataEP11ChiMetadata+0xd8>
   1ea2c: 61 ff ff f0  	adrp	x1, 0xd000 <_ZN8ChxUtils23ReleaseOfflineDebugDataEP11ChiMetadata+0x68>
   1ea30: 62 ff ff b0  	adrp	x2, 0xb000 <_ZN8ChxUtils23ReleaseOfflineDebugDataEP11ChiMetadata+0x64>
   1ea34: 85 ff ff 90  	adrp	x5, 0xe000 <_ZN8ChxUtils23ReleaseOfflineDebugDataEP11ChiMetadata+0x74>
   1ea6c: 61 ff ff b0  	adrp	x1, 0xb000 <_ZN8ChxUtils23ReleaseOfflineDebugDataEP11ChiMetadata+0xa0>
   1ea74: 80 ff ff 90  	adrp	x0, 0xe000 <_ZN8ChxUtils23ReleaseOfflineDebugDataEP11ChiMetadata+0xb4>
   1ea78: 83 ff ff 90  	adrp	x3, 0xe000 <_ZN8ChxUtils23ReleaseOfflineDebugDataEP11ChiMetadata+0xb8>
   1ea7c: 65 ff ff f0  	adrp	x5, 0xd000 <_ZN8ChxUtils23ReleaseOfflineDebugDataEP11ChiMetadata+0xb8>
   1ea98: aa 35 00 94  	bl	0x2c140 <_ZN6ChiLog9LogSystemEPKcS1_S1_S1_iS1_z@plt>
   1ea9c: ad 36 00 94  	bl	0x2c550 <_ZN15ExtensionModule11GetInstanceEv@plt>
   1eac4: 73 06 00 b4  	cbz	x19, 0x1eb90 <_ZN8ChxUtils23ReleaseOfflineDebugDataEP11ChiMetadata+0x210>
   1eacc: ab 0b 00 b4  	cbz	x11, 0x1ec40 <_ZN8ChxUtils23ReleaseOfflineDebugDataEP11ChiMetadata+0x2c0>
   1ead4: 6a 05 00 36  	tbz	w10, #0, 0x1eb80 <_ZN8ChxUtils23ReleaseOfflineDebugDataEP11ChiMetadata+0x200>
   1ead8: 6b 00 00 f0  	adrp	x11, 0x2d000 <_ZN8ChxUtils23ReleaseOfflineDebugDataEP11ChiMetadata+0x194>
   1eae8: 61 02 00 54  	b.ne	0x1eb34 <_ZN8ChxUtils23ReleaseOfflineDebugDataEP11ChiMetadata+0x1b4>
   1eaec: 74 ff ff d0  	adrp	x20, 0xc000 <_ZN8ChxUtils23ReleaseOfflineDebugDataEP11ChiMetadata+0x124>
   1eb0c: 61 ff ff f0  	adrp	x1, 0xd000 <_ZN8ChxUtils23ReleaseOfflineDebugDataEP11ChiMetadata+0x148>
   1eb10: 42 ff ff f0  	adrp	x2, 0x9000 <_ZN8ChxUtils23ReleaseOfflineDebugDataEP11ChiMetadata+0x13c>
   1eb14: 85 ff ff 90  	adrp	x5, 0xe000 <_ZN8ChxUtils23ReleaseOfflineDebugDataEP11ChiMetadata+0x154>
   1eb34: 75 ff ff d0  	adrp	x21, 0xc000 <_ZN8ChxUtils23ReleaseOfflineDebugDataEP11ChiMetadata+0x16c>
   1eb58: 40 ff ff f0  	adrp	x0, 0x9000 <_ZN8ChxUtils23ReleaseOfflineDebugDataEP11ChiMetadata+0x184>
   1eb5c: 61 ff ff f0  	adrp	x1, 0xd000 <_ZN8ChxUtils23ReleaseOfflineDebugDataEP11ChiMetadata+0x198>
   1eb60: 83 ff ff 90  	adrp	x3, 0xe000 <_ZN8ChxUtils23ReleaseOfflineDebugDataEP11ChiMetadata+0x1a0>
   1eb64: 65 ff ff f0  	adrp	x5, 0xd000 <_ZN8ChxUtils23ReleaseOfflineDebugDataEP11ChiMetadata+0x1a0>
   1eb7c: 71 35 00 94  	bl	0x2c140 <_ZN6ChiLog9LogSystemEPKcS1_S1_S1_iS1_z@plt>
   1eb80: 74 36 00 94  	bl	0x2c550 <_ZN15ExtensionModule11GetInstanceEv@plt>
   1eb88: 0e 37 00 94  	bl	0x2c7c0 <_ZN15ExtensionModule31DebugDataBufferReleaseReferenceEP9DebugData@plt>
   1eb8c: 57 00 00 14  	b	0x1ece8 <_ZN8ChxUtils23ReleaseOfflineDebugDataEP11ChiMetadata+0x368>
   1eb94: 69 05 30 36  	tbz	w9, #6, 0x1ec40 <_ZN8ChxUtils23ReleaseOfflineDebugDataEP11ChiMetadata+0x2c0>
   1eb98: 6a 00 00 f0  	adrp	x10, 0x2d000 <_ZN8ChxUtils23ReleaseOfflineDebugDataEP11ChiMetadata+0x254>
   1eba8: 61 02 00 54  	b.ne	0x1ebf4 <_ZN8ChxUtils23ReleaseOfflineDebugDataEP11ChiMetadata+0x274>
   1ebac: 75 ff ff d0  	adrp	x21, 0xc000 <_ZN8ChxUtils23ReleaseOfflineDebugDataEP11ChiMetadata+0x1e4>
   1ebc8: 61 ff ff f0  	adrp	x1, 0xd000 <_ZN8ChxUtils23ReleaseOfflineDebugDataEP11ChiMetadata+0x204>
   1ebcc: 62 ff ff f0  	adrp	x2, 0xd000 <_ZN8ChxUtils23ReleaseOfflineDebugDataEP11ChiMetadata+0x208>
   1ebd0: 65 ff ff b0  	adrp	x5, 0xb000 <_ZN8ChxUtils23ReleaseOfflineDebugDataEP11ChiMetadata+0x204>
   1ebf4: 75 ff ff d0  	adrp	x21, 0xc000 <_ZN8ChxUtils23ReleaseOfflineDebugDataEP11ChiMetadata+0x22c>
   1ec10: 41 ff ff f0  	adrp	x1, 0x9000 <_ZN8ChxUtils23ReleaseOfflineDebugDataEP11ChiMetadata+0x23c>
   1ec18: 60 ff ff d0  	adrp	x0, 0xc000 <_ZN8ChxUtils23ReleaseOfflineDebugDataEP11ChiMetadata+0x250>
   1ec1c: 63 ff ff b0  	adrp	x3, 0xb000 <_ZN8ChxUtils23ReleaseOfflineDebugDataEP11ChiMetadata+0x250>
   1ec20: 65 ff ff 90  	adrp	x5, 0xa000 <_ZN8ChxUtils23ReleaseOfflineDebugDataEP11ChiMetadata+0x250>
   1ec3c: 41 35 00 94  	bl	0x2c140 <_ZN6ChiLog9LogSystemEPKcS1_S1_S1_iS1_z@plt>
   1ec44: 2b 05 00 36  	tbz	w11, #0, 0x1ece8 <_ZN8ChxUtils23ReleaseOfflineDebugDataEP11ChiMetadata+0x368>
   1ec48: 6c 00 00 f0  	adrp	x12, 0x2d000 <_ZN8ChxUtils23ReleaseOfflineDebugDataEP11ChiMetadata+0x304>
   1ec58: 41 02 00 54  	b.ne	0x1eca0 <_ZN8ChxUtils23ReleaseOfflineDebugDataEP11ChiMetadata+0x320>
   1ec5c: 74 ff ff d0  	adrp	x20, 0xc000 <_ZN8ChxUtils23ReleaseOfflineDebugDataEP11ChiMetadata+0x294>
   1ec78: 61 ff ff f0  	adrp	x1, 0xd000 <_ZN8ChxUtils23ReleaseOfflineDebugDataEP11ChiMetadata+0x2b4>
   1ec7c: 62 ff ff d0  	adrp	x2, 0xc000 <_ZN8ChxUtils23ReleaseOfflineDebugDataEP11ChiMetadata+0x2b4>
   1ec80: 85 ff ff 90  	adrp	x5, 0xe000 <_ZN8ChxUtils23ReleaseOfflineDebugDataEP11ChiMetadata+0x2c0>
   1eca0: 75 ff ff d0  	adrp	x21, 0xc000 <_ZN8ChxUtils23ReleaseOfflineDebugDataEP11ChiMetadata+0x2d8>
   1ecbc: 61 ff ff f0  	adrp	x1, 0xd000 <_ZN8ChxUtils23ReleaseOfflineDebugDataEP11ChiMetadata+0x2f8>
   1ecc4: 40 ff ff f0  	adrp	x0, 0x9000 <_ZN8ChxUtils23ReleaseOfflineDebugDataEP11ChiMetadata+0x2f0>
   1ecc8: 83 ff ff 90  	adrp	x3, 0xe000 <_ZN8ChxUtils23ReleaseOfflineDebugDataEP11ChiMetadata+0x308>
   1eccc: 65 ff ff b0  	adrp	x5, 0xb000 <_ZN8ChxUtils23ReleaseOfflineDebugDataEP11ChiMetadata+0x300>
   1ece4: 17 35 00 94  	bl	0x2c140 <_ZN6ChiLog9LogSystemEPKcS1_S1_S1_iS1_z@plt>
   1ecf4: 01 01 00 54  	b.ne	0x1ed14 <_ZN8ChxUtils23ReleaseOfflineDebugDataEP11ChiMetadata+0x394>
000000000001ed18 <_ZN8ChxUtils26isDebugDataSetForBurstShotEP11ChiMetadataj>:
   1ed48: 60 ff ff d0  	adrp	x0, 0xc000 <_ZN8ChxUtils23ReleaseOfflineDebugDataEP11ChiMetadata+0x380>
   1ed4c: 82 ff ff 90  	adrp	x2, 0xe000 <_ZN8ChxUtils23ReleaseOfflineDebugDataEP11ChiMetadata+0x38c>
   1ed80: 15 02 00 b4  	cbz	x21, 0x1edc0 <_ZN8ChxUtils26isDebugDataSetForBurstShotEP11ChiMetadataj+0xa8>
   1ed90: 61 ff ff f0  	adrp	x1, 0xd000 <_ZN8ChxUtils26isDebugDataSetForBurstShotEP11ChiMetadataj+0x34>
   1ed94: 62 ff ff d0  	adrp	x2, 0xc000 <_ZN8ChxUtils26isDebugDataSetForBurstShotEP11ChiMetadataj+0x34>
   1edb4: 2a 06 00 b4  	cbz	x10, 0x1ee78 <_ZN8ChxUtils26isDebugDataSetForBurstShotEP11ChiMetadataj+0x160>
   1edbc: 30 00 00 14  	b	0x1ee7c <_ZN8ChxUtils26isDebugDataSetForBurstShotEP11ChiMetadataj+0x164>
   1edc0: 6e 00 00 f0  	adrp	x14, 0x2d000 <_ZN8ChxUtils26isDebugDataSetForBurstShotEP11ChiMetadataj+0xe4>
   1edcc: 2e 05 00 36  	tbz	w14, #0, 0x1ee70 <_ZN8ChxUtils26isDebugDataSetForBurstShotEP11ChiMetadataj+0x158>
   1edd0: 6f 00 00 f0  	adrp	x15, 0x2d000 <_ZN8ChxUtils26isDebugDataSetForBurstShotEP11ChiMetadataj+0xf4>
   1ede0: 41 02 00 54  	b.ne	0x1ee28 <_ZN8ChxUtils26isDebugDataSetForBurstShotEP11ChiMetadataj+0x110>
   1ede4: 76 ff ff d0  	adrp	x22, 0xc000 <_ZN8ChxUtils26isDebugDataSetForBurstShotEP11ChiMetadataj+0x84>
   1ee00: 61 ff ff f0  	adrp	x1, 0xd000 <_ZN8ChxUtils26isDebugDataSetForBurstShotEP11ChiMetadataj+0xa4>
   1ee04: 42 ff ff f0  	adrp	x2, 0x9000 <_ZN8ChxUtils26isDebugDataSetForBurstShotEP11ChiMetadataj+0x98>
   1ee08: 65 ff ff d0  	adrp	x5, 0xc000 <_ZN8ChxUtils26isDebugDataSetForBurstShotEP11ChiMetadataj+0xa8>
   1ee28: 76 ff ff d0  	adrp	x22, 0xc000 <_ZN8ChxUtils26isDebugDataSetForBurstShotEP11ChiMetadataj+0xc8>
   1ee44: 61 ff ff f0  	adrp	x1, 0xd000 <_ZN8ChxUtils26isDebugDataSetForBurstShotEP11ChiMetadataj+0xe8>
   1ee4c: 40 ff ff f0  	adrp	x0, 0x9000 <_ZN8ChxUtils26isDebugDataSetForBurstShotEP11ChiMetadataj+0xe0>
   1ee50: 63 ff ff d0  	adrp	x3, 0xc000 <_ZN8ChxUtils26isDebugDataSetForBurstShotEP11ChiMetadataj+0xf0>
   1ee54: 45 ff ff f0  	adrp	x5, 0x9000 <_ZN8ChxUtils26isDebugDataSetForBurstShotEP11ChiMetadataj+0xe8>
   1ee6c: b5 34 00 94  	bl	0x2c140 <_ZN6ChiLog9LogSystemEPKcS1_S1_S1_iS1_z@plt>
   1ee74: e1 00 00 14  	b	0x1f1f8 <_ZN8ChxUtils26isDebugDataSetForBurstShotEP11ChiMetadataj+0x4e0>
   1ee80: 61 ff ff d0  	adrp	x1, 0xc000 <_ZN8ChxUtils26isDebugDataSetForBurstShotEP11ChiMetadataj+0x120>
   1ee88: 42 ff ff f0  	adrp	x2, 0x9000 <_ZN8ChxUtils26isDebugDataSetForBurstShotEP11ChiMetadataj+0x11c>
   1eea8: 0b 01 00 b4  	cbz	x11, 0x1eec8 <_ZN8ChxUtils26isDebugDataSetForBurstShotEP11ChiMetadataj+0x1b0>
   1eec4: 03 00 00 14  	b	0x1eed0 <_ZN8ChxUtils26isDebugDataSetForBurstShotEP11ChiMetadataj+0x1b8>
   1eed0: 7b 00 00 f0  	adrp	x27, 0x2d000 <_ZN8ChxUtils26isDebugDataSetForBurstShotEP11ChiMetadataj+0x1f4>
   1eed4: 76 ff ff d0  	adrp	x22, 0xc000 <_ZN8ChxUtils26isDebugDataSetForBurstShotEP11ChiMetadataj+0x174>
   1eee4: 6a 05 18 36  	tbz	w10, #3, 0x1ef90 <_ZN8ChxUtils26isDebugDataSetForBurstShotEP11ChiMetadataj+0x278>
   1eee8: 71 00 00 f0  	adrp	x17, 0x2d000 <_ZN8ChxUtils26isDebugDataSetForBurstShotEP11ChiMetadataj+0x20c>
   1eef8: 61 02 00 54  	b.ne	0x1ef44 <_ZN8ChxUtils26isDebugDataSetForBurstShotEP11ChiMetadataj+0x22c>
   1ef10: 61 ff ff f0  	adrp	x1, 0xd000 <_ZN8ChxUtils26isDebugDataSetForBurstShotEP11ChiMetadataj+0x1b4>
   1ef14: 62 ff ff d0  	adrp	x2, 0xc000 <_ZN8ChxUtils26isDebugDataSetForBurstShotEP11ChiMetadataj+0x1b4>
   1ef18: 65 ff ff d0  	adrp	x5, 0xc000 <_ZN8ChxUtils26isDebugDataSetForBurstShotEP11ChiMetadataj+0x1b8>
   1ef58: 61 ff ff b0  	adrp	x1, 0xb000 <_ZN8ChxUtils26isDebugDataSetForBurstShotEP11ChiMetadataj+0x1f4>
   1ef60: 80 ff ff 90  	adrp	x0, 0xe000 <_ZN8ChxUtils26isDebugDataSetForBurstShotEP11ChiMetadataj+0x208>
   1ef64: 63 ff ff d0  	adrp	x3, 0xc000 <_ZN8ChxUtils26isDebugDataSetForBurstShotEP11ChiMetadataj+0x204>
   1ef68: 65 ff ff f0  	adrp	x5, 0xd000 <_ZN8ChxUtils26isDebugDataSetForBurstShotEP11ChiMetadataj+0x20c>
   1ef8c: 6d 34 00 94  	bl	0x2c140 <_ZN6ChiLog9LogSystemEPKcS1_S1_S1_iS1_z@plt>
   1ef94: 81 ff ff 90  	adrp	x1, 0xe000 <_ZN8ChxUtils26isDebugDataSetForBurstShotEP11ChiMetadataj+0x23c>
   1ef9c: 42 ff ff f0  	adrp	x2, 0x9000 <_ZN8ChxUtils26isDebugDataSetForBurstShotEP11ChiMetadataj+0x230>
   1efbc: 6c 00 00 b4  	cbz	x12, 0x1efc8 <_ZN8ChxUtils26isDebugDataSetForBurstShotEP11ChiMetadataj+0x2b0>
   1efc4: 02 00 00 14  	b	0x1efcc <_ZN8ChxUtils26isDebugDataSetForBurstShotEP11ChiMetadataj+0x2b4>
   1efd0: 61 ff ff d0  	adrp	x1, 0xc000 <_ZN8ChxUtils26isDebugDataSetForBurstShotEP11ChiMetadataj+0x270>
   1efd8: 42 ff ff f0  	adrp	x2, 0x9000 <_ZN8ChxUtils26isDebugDataSetForBurstShotEP11ChiMetadataj+0x26c>
   1eff8: 48 00 00 b4  	cbz	x8, 0x1f000 <_ZN8ChxUtils26isDebugDataSetForBurstShotEP11ChiMetadataj+0x2e8>
   1f01c: 6c 05 18 36  	tbz	w12, #3, 0x1f0c8 <_ZN8ChxUtils26isDebugDataSetForBurstShotEP11ChiMetadataj+0x3b0>
   1f020: 70 00 00 d0  	adrp	x16, 0x2d000 <_ZN8ChxUtils26isDebugDataSetForBurstShotEP11ChiMetadataj+0x340>
   1f030: 61 02 00 54  	b.ne	0x1f07c <_ZN8ChxUtils26isDebugDataSetForBurstShotEP11ChiMetadataj+0x364>
   1f048: 61 ff ff d0  	adrp	x1, 0xd000 <_ZN8ChxUtils26isDebugDataSetForBurstShotEP11ChiMetadataj+0x2e8>
   1f04c: 62 ff ff d0  	adrp	x2, 0xd000 <_ZN8ChxUtils26isDebugDataSetForBurstShotEP11ChiMetadataj+0x2ec>
   1f050: 65 ff ff b0  	adrp	x5, 0xc000 <_ZN8ChxUtils26isDebugDataSetForBurstShotEP11ChiMetadataj+0x2ec>
   1f090: 61 ff ff 90  	adrp	x1, 0xb000 <_ZN8ChxUtils26isDebugDataSetForBurstShotEP11ChiMetadataj+0x328>
   1f098: 60 ff ff f0  	adrp	x0, 0xe000 <_ZN8ChxUtils26isDebugDataSetForBurstShotEP11ChiMetadataj+0x33c>
   1f09c: 63 ff ff b0  	adrp	x3, 0xc000 <_ZN8ChxUtils26isDebugDataSetForBurstShotEP11ChiMetadataj+0x338>
   1f0a0: 65 ff ff d0  	adrp	x5, 0xd000 <_ZN8ChxUtils26isDebugDataSetForBurstShotEP11ChiMetadataj+0x340>
   1f0c4: 1f 34 00 94  	bl	0x2c140 <_ZN6ChiLog9LogSystemEPKcS1_S1_S1_iS1_z@plt>
   1f0cc: 61 ff ff d0  	adrp	x1, 0xd000 <_ZN8ChxUtils26isDebugDataSetForBurstShotEP11ChiMetadataj+0x36c>
   1f0d4: 62 ff ff b0  	adrp	x2, 0xc000 <_ZN8ChxUtils26isDebugDataSetForBurstShotEP11ChiMetadataj+0x370>
   1f0f4: 6d 00 00 b4  	cbz	x13, 0x1f100 <_ZN8ChxUtils26isDebugDataSetForBurstShotEP11ChiMetadataj+0x3e8>
   1f0fc: 02 00 00 14  	b	0x1f104 <_ZN8ChxUtils26isDebugDataSetForBurstShotEP11ChiMetadataj+0x3ec>
   1f108: 61 ff ff b0  	adrp	x1, 0xc000 <_ZN8ChxUtils26isDebugDataSetForBurstShotEP11ChiMetadataj+0x3a4>
   1f110: 42 ff ff d0  	adrp	x2, 0x9000 <_ZN8ChxUtils26isDebugDataSetForBurstShotEP11ChiMetadataj+0x3a0>
   1f130: 49 00 00 b4  	cbz	x9, 0x1f138 <_ZN8ChxUtils26isDebugDataSetForBurstShotEP11ChiMetadataj+0x420>
   1f14c: 6d 05 18 36  	tbz	w13, #3, 0x1f1f8 <_ZN8ChxUtils26isDebugDataSetForBurstShotEP11ChiMetadataj+0x4e0>
   1f150: 61 00 00 d0  	adrp	x1, 0x2d000 <_ZN8ChxUtils26isDebugDataSetForBurstShotEP11ChiMetadataj+0x470>
   1f160: 61 02 00 54  	b.ne	0x1f1ac <_ZN8ChxUtils26isDebugDataSetForBurstShotEP11ChiMetadataj+0x494>
   1f178: 61 ff ff d0  	adrp	x1, 0xd000 <_ZN8ChxUtils26isDebugDataSetForBurstShotEP11ChiMetadataj+0x418>
   1f17c: 42 ff ff d0  	adrp	x2, 0x9000 <_ZN8ChxUtils26isDebugDataSetForBurstShotEP11ChiMetadataj+0x40c>
   1f180: 65 ff ff b0  	adrp	x5, 0xc000 <_ZN8ChxUtils26isDebugDataSetForBurstShotEP11ChiMetadataj+0x41c>
   1f1c0: 61 ff ff 90  	adrp	x1, 0xb000 <_ZN8ChxUtils26isDebugDataSetForBurstShotEP11ChiMetadataj+0x458>
   1f1c8: 60 ff ff f0  	adrp	x0, 0xe000 <_ZN8ChxUtils26isDebugDataSetForBurstShotEP11ChiMetadataj+0x46c>
   1f1cc: 63 ff ff b0  	adrp	x3, 0xc000 <_ZN8ChxUtils26isDebugDataSetForBurstShotEP11ChiMetadataj+0x468>
   1f1d0: 65 ff ff b0  	adrp	x5, 0xc000 <_ZN8ChxUtils26isDebugDataSetForBurstShotEP11ChiMetadataj+0x46c>
   1f1f4: d3 33 00 94  	bl	0x2c140 <_ZN6ChiLog9LogSystemEPKcS1_S1_S1_iS1_z@plt>
   1f204: 41 01 00 54  	b.ne	0x1f22c <_ZN8ChxUtils26isDebugDataSetForBurstShotEP11ChiMetadataj+0x514>
000000000001f230 <_ZN8ChxUtils18isBurstShotUsecaseEP11ChiMetadataj>:
   1f24c: 79 00 00 d0  	adrp	x25, 0x2d000 <_ZN8ChxUtils18isBurstShotUsecaseEP11ChiMetadataj+0x54>
   1f250: 78 00 00 d0  	adrp	x24, 0x2d000 <_ZN8ChxUtils18isBurstShotUsecaseEP11ChiMetadataj+0x58>
   1f258: 73 ff ff b0  	adrp	x19, 0xc000 <_ZN8ChxUtils26isDebugDataSetForBurstShotEP11ChiMetadataj+0x4f4>
   1f270: 60 02 00 b4  	cbz	x0, 0x1f2bc <_ZN8ChxUtils18isBurstShotUsecaseEP11ChiMetadataj+0x8c>
   1f280: 61 ff ff d0  	adrp	x1, 0xd000 <_ZN8ChxUtils18isBurstShotUsecaseEP11ChiMetadataj+0x8>
   1f288: 62 ff ff b0  	adrp	x2, 0xc000 <_ZN8ChxUtils18isBurstShotUsecaseEP11ChiMetadataj+0xc>
   1f2a8: a9 05 00 b4  	cbz	x9, 0x1f35c <_ZN8ChxUtils18isBurstShotUsecaseEP11ChiMetadataj+0x12c>
   1f2b4: a8 05 18 37  	tbnz	w8, #3, 0x1f368 <_ZN8ChxUtils18isBurstShotUsecaseEP11ChiMetadataj+0x138>
   1f2b8: 50 00 00 14  	b	0x1f3f8 <_ZN8ChxUtils18isBurstShotUsecaseEP11ChiMetadataj+0x1c8>
   1f2c0: 6d 04 00 36  	tbz	w13, #0, 0x1f34c <_ZN8ChxUtils18isBurstShotUsecaseEP11ChiMetadataj+0x11c>
   1f2cc: 01 02 00 54  	b.ne	0x1f30c <_ZN8ChxUtils18isBurstShotUsecaseEP11ChiMetadataj+0xdc>
   1f2e4: 61 ff ff d0  	adrp	x1, 0xd000 <_ZN8ChxUtils18isBurstShotUsecaseEP11ChiMetadataj+0x6c>
   1f2e8: 42 ff ff d0  	adrp	x2, 0x9000 <_ZN8ChxUtils18isBurstShotUsecaseEP11ChiMetadataj+0x60>
   1f2ec: 45 ff ff d0  	adrp	x5, 0x9000 <_ZN8ChxUtils18isBurstShotUsecaseEP11ChiMetadataj+0x64>
   1f320: 61 ff ff d0  	adrp	x1, 0xd000 <_ZN8ChxUtils18isBurstShotUsecaseEP11ChiMetadataj+0xa8>
   1f328: 40 ff ff d0  	adrp	x0, 0x9000 <_ZN8ChxUtils18isBurstShotUsecaseEP11ChiMetadataj+0xa0>
   1f32c: 43 ff ff d0  	adrp	x3, 0x9000 <_ZN8ChxUtils18isBurstShotUsecaseEP11ChiMetadataj+0xa4>
   1f330: 45 ff ff d0  	adrp	x5, 0x9000 <_ZN8ChxUtils18isBurstShotUsecaseEP11ChiMetadataj+0xa8>
   1f348: 7e 33 00 94  	bl	0x2c140 <_ZN6ChiLog9LogSystemEPKcS1_S1_S1_iS1_z@plt>
   1f354: 2e 0e 18 36  	tbz	w14, #3, 0x1f518 <_ZN8ChxUtils18isBurstShotUsecaseEP11ChiMetadataj+0x2e8>
   1f358: a2 00 00 14  	b	0x1f5e0 <_ZN8ChxUtils18isBurstShotUsecaseEP11ChiMetadataj+0x3b0>
   1f364: a8 04 18 36  	tbz	w8, #3, 0x1f3f8 <_ZN8ChxUtils18isBurstShotUsecaseEP11ChiMetadataj+0x1c8>
   1f370: 21 02 00 54  	b.ne	0x1f3b4 <_ZN8ChxUtils18isBurstShotUsecaseEP11ChiMetadataj+0x184>
   1f388: 61 ff ff d0  	adrp	x1, 0xd000 <_ZN8ChxUtils18isBurstShotUsecaseEP11ChiMetadataj+0x110>
   1f38c: 62 ff ff b0  	adrp	x2, 0xc000 <_ZN8ChxUtils18isBurstShotUsecaseEP11ChiMetadataj+0x110>
   1f390: 45 ff ff d0  	adrp	x5, 0x9000 <_ZN8ChxUtils18isBurstShotUsecaseEP11ChiMetadataj+0x108>
   1f3c8: 61 ff ff 90  	adrp	x1, 0xb000 <_ZN8ChxUtils18isBurstShotUsecaseEP11ChiMetadataj+0x148>
   1f3d0: 60 ff ff f0  	adrp	x0, 0xe000 <_ZN8ChxUtils18isBurstShotUsecaseEP11ChiMetadataj+0x15c>
   1f3d4: 43 ff ff d0  	adrp	x3, 0x9000 <_ZN8ChxUtils18isBurstShotUsecaseEP11ChiMetadataj+0x14c>
   1f3d8: 65 ff ff 90  	adrp	x5, 0xb000 <_ZN8ChxUtils18isBurstShotUsecaseEP11ChiMetadataj+0x158>
   1f3f4: 53 33 00 94  	bl	0x2c140 <_ZN6ChiLog9LogSystemEPKcS1_S1_S1_iS1_z@plt>
   1f3fc: 61 ff ff f0  	adrp	x1, 0xe000 <_ZN8ChxUtils18isBurstShotUsecaseEP11ChiMetadataj+0x188>
   1f404: 42 ff ff d0  	adrp	x2, 0x9000 <_ZN8ChxUtils18isBurstShotUsecaseEP11ChiMetadataj+0x17c>
   1f424: 6a 00 00 b4  	cbz	x10, 0x1f430 <_ZN8ChxUtils18isBurstShotUsecaseEP11ChiMetadataj+0x200>
   1f434: aa 04 18 36  	tbz	w10, #3, 0x1f4c8 <_ZN8ChxUtils18isBurstShotUsecaseEP11ChiMetadataj+0x298>
   1f440: 21 02 00 54  	b.ne	0x1f484 <_ZN8ChxUtils18isBurstShotUsecaseEP11ChiMetadataj+0x254>
   1f458: 61 ff ff d0  	adrp	x1, 0xd000 <_ZN8ChxUtils18isBurstShotUsecaseEP11ChiMetadataj+0x1e0>
   1f45c: 42 ff ff f0  	adrp	x2, 0xa000 <_ZN8ChxUtils18isBurstShotUsecaseEP11ChiMetadataj+0x1d8>
   1f460: 45 ff ff d0  	adrp	x5, 0x9000 <_ZN8ChxUtils18isBurstShotUsecaseEP11ChiMetadataj+0x1d8>
   1f498: 61 ff ff 90  	adrp	x1, 0xb000 <_ZN8ChxUtils18isBurstShotUsecaseEP11ChiMetadataj+0x218>
   1f4a0: 60 ff ff f0  	adrp	x0, 0xe000 <_ZN8ChxUtils18isBurstShotUsecaseEP11ChiMetadataj+0x22c>
   1f4a4: 43 ff ff d0  	adrp	x3, 0x9000 <_ZN8ChxUtils18isBurstShotUsecaseEP11ChiMetadataj+0x21c>
   1f4a8: 65 ff ff b0  	adrp	x5, 0xc000 <_ZN8ChxUtils18isBurstShotUsecaseEP11ChiMetadataj+0x22c>
   1f4c4: 1f 33 00 94  	bl	0x2c140 <_ZN6ChiLog9LogSystemEPKcS1_S1_S1_iS1_z@plt>
   1f4cc: 61 ff ff d0  	adrp	x1, 0xd000 <_ZN8ChxUtils18isBurstShotUsecaseEP11ChiMetadataj+0x254>
   1f4d4: 62 ff ff b0  	adrp	x2, 0xc000 <_ZN8ChxUtils18isBurstShotUsecaseEP11ChiMetadataj+0x258>
   1f4f4: a1 00 00 54  	b.ne	0x1f508 <_ZN8ChxUtils18isBurstShotUsecaseEP11ChiMetadataj+0x2d8>
   1f4fc: 68 00 00 b4  	cbz	x8, 0x1f508 <_ZN8ChxUtils18isBurstShotUsecaseEP11ChiMetadataj+0x2d8>
   1f50c: ec 01 18 37  	tbnz	w12, #3, 0x1f548 <_ZN8ChxUtils18isBurstShotUsecaseEP11ChiMetadataj+0x318>
   1f514: 6e 06 18 37  	tbnz	w14, #3, 0x1f5e0 <_ZN8ChxUtils18isBurstShotUsecaseEP11ChiMetadataj+0x3b0>
   1f524: e1 0a 00 54  	b.ne	0x1f680 <_ZN8ChxUtils18isBurstShotUsecaseEP11ChiMetadataj+0x450>
   1f550: 21 02 00 54  	b.ne	0x1f594 <_ZN8ChxUtils18isBurstShotUsecaseEP11ChiMetadataj+0x364>
   1f568: 61 ff ff d0  	adrp	x1, 0xd000 <_ZN8ChxUtils18isBurstShotUsecaseEP11ChiMetadataj+0x2f0>
   1f56c: 42 ff ff f0  	adrp	x2, 0xa000 <_ZN8ChxUtils18isBurstShotUsecaseEP11ChiMetadataj+0x2e8>
   1f570: 45 ff ff d0  	adrp	x5, 0x9000 <_ZN8ChxUtils18isBurstShotUsecaseEP11ChiMetadataj+0x2e8>
   1f5a8: 61 ff ff 90  	adrp	x1, 0xb000 <_ZN8ChxUtils18isBurstShotUsecaseEP11ChiMetadataj+0x328>
   1f5b0: 60 ff ff f0  	adrp	x0, 0xe000 <_ZN8ChxUtils18isBurstShotUsecaseEP11ChiMetadataj+0x33c>
   1f5b4: 43 ff ff d0  	adrp	x3, 0x9000 <_ZN8ChxUtils18isBurstShotUsecaseEP11ChiMetadataj+0x32c>
   1f5b8: 45 ff ff d0  	adrp	x5, 0x9000 <_ZN8ChxUtils18isBurstShotUsecaseEP11ChiMetadataj+0x330>
   1f5d4: db 32 00 94  	bl	0x2c140 <_ZN6ChiLog9LogSystemEPKcS1_S1_S1_iS1_z@plt>
   1f5dc: ee f9 1f 36  	tbz	w14, #3, 0x1f518 <_ZN8ChxUtils18isBurstShotUsecaseEP11ChiMetadataj+0x2e8>
   1f5e8: 21 02 00 54  	b.ne	0x1f62c <_ZN8ChxUtils18isBurstShotUsecaseEP11ChiMetadataj+0x3fc>
   1f600: 61 ff ff d0  	adrp	x1, 0xd000 <_ZN8ChxUtils18isBurstShotUsecaseEP11ChiMetadataj+0x388>
   1f604: 42 ff ff f0  	adrp	x2, 0xa000 <_ZN8ChxUtils18isBurstShotUsecaseEP11ChiMetadataj+0x380>
   1f608: 45 ff ff d0  	adrp	x5, 0x9000 <_ZN8ChxUtils18isBurstShotUsecaseEP11ChiMetadataj+0x380>
   1f640: 61 ff ff 90  	adrp	x1, 0xb000 <_ZN8ChxUtils18isBurstShotUsecaseEP11ChiMetadataj+0x3c0>
   1f648: 60 ff ff f0  	adrp	x0, 0xe000 <_ZN8ChxUtils18isBurstShotUsecaseEP11ChiMetadataj+0x3d4>
   1f64c: 43 ff ff d0  	adrp	x3, 0x9000 <_ZN8ChxUtils18isBurstShotUsecaseEP11ChiMetadataj+0x3c4>
   1f650: 65 ff ff d0  	adrp	x5, 0xd000 <_ZN8ChxUtils18isBurstShotUsecaseEP11ChiMetadataj+0x3d8>
   1f66c: b5 32 00 94  	bl	0x2c140 <_ZN6ChiLog9LogSystemEPKcS1_S1_S1_iS1_z@plt>
   1f67c: 60 f5 ff 54  	b.eq	0x1f528 <_ZN8ChxUtils18isBurstShotUsecaseEP11ChiMetadataj+0x2f8>
000000000001f688 <_ZN8ChxUtils11GetTotalRamEv>:
   1f6c4: 68 00 00 d0  	adrp	x8, 0x2d000 <_ZN8ChxUtils11GetTotalRamEv+0x74>
   1f6d0: 00 07 00 34  	cbz	w0, 0x1f7b0 <_ZN8ChxUtils11GetTotalRamEv+0x128>
   1f6d4: a8 05 00 36  	tbz	w8, #0, 0x1f788 <_ZN8ChxUtils11GetTotalRamEv+0x100>
   1f6d8: 69 00 00 d0  	adrp	x9, 0x2d000 <_ZN8ChxUtils11GetTotalRamEv+0x88>
   1f6dc: 73 ff ff b0  	adrp	x19, 0xc000 <_ZN8ChxUtils11GetTotalRamEv+0x8>
   1f6f0: 61 02 00 54  	b.ne	0x1f73c <_ZN8ChxUtils11GetTotalRamEv+0xb4>
   1f714: 61 ff ff d0  	adrp	x1, 0xd000 <_ZN8ChxUtils11GetTotalRamEv+0x44>
   1f718: 62 ff ff d0  	adrp	x2, 0xd000 <_ZN8ChxUtils11GetTotalRamEv+0x48>
   1f71c: 45 ff ff d0  	adrp	x5, 0x9000 <_ZN8ChxUtils11GetTotalRamEv+0x3c>
   1f75c: 40 ff ff d0  	adrp	x0, 0x9000 <_ZN8ChxUtils11GetTotalRamEv+0x7c>
   1f760: 61 ff ff d0  	adrp	x1, 0xd000 <_ZN8ChxUtils11GetTotalRamEv+0x90>
   1f764: 43 ff ff d0  	adrp	x3, 0x9000 <_ZN8ChxUtils11GetTotalRamEv+0x84>
   1f768: 65 ff ff d0  	adrp	x5, 0xd000 <_ZN8ChxUtils11GetTotalRamEv+0x98>
   1f784: 6f 32 00 94  	bl	0x2c140 <_ZN6ChiLog9LogSystemEPKcS1_S1_S1_iS1_z@plt>
   1f798: 81 07 00 54  	b.ne	0x1f888 <_ZN8ChxUtils11GetTotalRamEv+0x200>
   1f7b0: e8 05 18 36  	tbz	w8, #3, 0x1f86c <_ZN8ChxUtils11GetTotalRamEv+0x1e4>
   1f7b4: 6a 00 00 d0  	adrp	x10, 0x2d000 <_ZN8ChxUtils11GetTotalRamEv+0x164>
   1f7c4: a1 02 00 54  	b.ne	0x1f818 <_ZN8ChxUtils11GetTotalRamEv+0x190>
   1f7c8: 74 ff ff b0  	adrp	x20, 0xc000 <_ZN8ChxUtils11GetTotalRamEv+0xf4>
   1f7e8: 61 ff ff d0  	adrp	x1, 0xd000 <_ZN8ChxUtils11GetTotalRamEv+0x118>
   1f7f0: 62 ff ff b0  	adrp	x2, 0xc000 <_ZN8ChxUtils11GetTotalRamEv+0x11c>
   1f7f4: 45 ff ff d0  	adrp	x5, 0x9000 <_ZN8ChxUtils11GetTotalRamEv+0x114>
   1f818: 73 ff ff b0  	adrp	x19, 0xc000 <_ZN8ChxUtils11GetTotalRamEv+0x144>
   1f840: 60 ff ff f0  	adrp	x0, 0xe000 <_ZN8ChxUtils11GetTotalRamEv+0x174>
   1f844: 61 ff ff 90  	adrp	x1, 0xb000 <_ZN8ChxUtils11GetTotalRamEv+0x16c>
   1f848: 43 ff ff d0  	adrp	x3, 0x9000 <_ZN8ChxUtils11GetTotalRamEv+0x168>
   1f84c: 45 ff ff f0  	adrp	x5, 0xa000 <_ZN8ChxUtils11GetTotalRamEv+0x170>
   1f868: 36 32 00 94  	bl	0x2c140 <_ZN6ChiLog9LogSystemEPKcS1_S1_S1_iS1_z@plt>
   1f884: c0 f8 ff 54  	b.eq	0x1f79c <_ZN8ChxUtils11GetTotalRamEv+0x114>
   1f890: a0 01 00 b4  	cbz	x0, 0x1f8c4 <_ZN8ChxUtils11GetTotalRamEv+0x23c>
   1f8a8: fa ff ff 97  	bl	0x1f890 <_ZN8ChxUtils11GetTotalRamEv+0x208>
   1f8b0: f8 ff ff 97  	bl	0x1f890 <_ZN8ChxUtils11GetTotalRamEv+0x208>
   1f918: 52 00 00 94  	bl	0x1fa60 <_ZN8ChxUtils11GetTotalRamEv+0x3d8>
   1f92c: 40 02 00 54  	b.eq	0x1f974 <_ZN8ChxUtils11GetTotalRamEv+0x2ec>
   1f960: 68 00 00 d0  	adrp	x8, 0x2d000 <_ZN8ChxUtils11GetTotalRamEv+0x310>
   1f96c: 08 01 08 37  	tbnz	w8, #1, 0x1f98c <_ZN8ChxUtils11GetTotalRamEv+0x304>
   1f970: 31 00 00 14  	b	0x1fa34 <_ZN8ChxUtils11GetTotalRamEv+0x3ac>
   1f97c: 68 00 00 d0  	adrp	x8, 0x2d000 <_ZN8ChxUtils11GetTotalRamEv+0x32c>
   1f988: 68 05 08 36  	tbz	w8, #1, 0x1fa34 <_ZN8ChxUtils11GetTotalRamEv+0x3ac>
   1f98c: 69 00 00 d0  	adrp	x9, 0x2d000 <_ZN8ChxUtils11GetTotalRamEv+0x33c>
   1f990: 54 ff ff f0  	adrp	x20, 0xa000 <_ZN8ChxUtils11GetTotalRamEv+0x2b4>
   1f9a4: 41 02 00 54  	b.ne	0x1f9ec <_ZN8ChxUtils11GetTotalRamEv+0x364>
   1f9bc: 61 ff ff d0  	adrp	x1, 0xd000 <_ZN8ChxUtils11GetTotalRamEv+0x2ec>
   1f9c0: 62 ff ff 90  	adrp	x2, 0xb000 <_ZN8ChxUtils11GetTotalRamEv+0x2e8>
   1f9c4: 65 ff ff b0  	adrp	x5, 0xc000 <_ZN8ChxUtils11GetTotalRamEv+0x2f0>
   1fa00: 41 ff ff f0  	adrp	x1, 0xa000 <_ZN8ChxUtils11GetTotalRamEv+0x324>
   1fa08: 60 ff ff b0  	adrp	x0, 0xc000 <_ZN8ChxUtils11GetTotalRamEv+0x334>
   1fa0c: 63 ff ff b0  	adrp	x3, 0xc000 <_ZN8ChxUtils11GetTotalRamEv+0x338>
   1fa10: 65 ff ff f0  	adrp	x5, 0xe000 <_ZN8ChxUtils11GetTotalRamEv+0x344>
   1fa30: c4 31 00 94  	bl	0x2c140 <_ZN6ChiLog9LogSystemEPKcS1_S1_S1_iS1_z@plt>
   1fa40: e1 00 00 54  	b.ne	0x1fa5c <_ZN8ChxUtils11GetTotalRamEv+0x3d4>
   1faac: 62 ff ff 90  	adrp	x2, 0xb000 <_ZN8ChxUtils11GetTotalRamEv+0x3d4>
   1faec: a1 00 00 54  	b.ne	0x1fb00 <_ZN8ChxUtils11GetTotalRamEv+0x478>
   1fb14: 80 0e 00 54  	b.eq	0x1fce4 <_ZN8ChxUtils11GetTotalRamEv+0x65c>
   1fb1c: 04 00 00 14  	b	0x1fb2c <_ZN8ChxUtils11GetTotalRamEv+0x4a4>
   1fb28: e0 0d 00 54  	b.eq	0x1fce4 <_ZN8ChxUtils11GetTotalRamEv+0x65c>
   1fb34: 89 0d 00 35  	cbnz	w9, 0x1fce4 <_ZN8ChxUtils11GetTotalRamEv+0x65c>
   1fb44: 40 01 00 54  	b.eq	0x1fb6c <_ZN8ChxUtils11GetTotalRamEv+0x4e4>
   1fb48: 6f 02 00 b4  	cbz	x15, 0x1fb94 <_ZN8ChxUtils11GetTotalRamEv+0x50c>
   1fb50: 2d 02 00 35  	cbnz	w13, 0x1fb94 <_ZN8ChxUtils11GetTotalRamEv+0x50c>
   1fb68: ee ff ff 17  	b	0x1fb20 <_ZN8ChxUtils11GetTotalRamEv+0x498>
   1fb70: d0 01 00 b4  	cbz	x16, 0x1fba8 <_ZN8ChxUtils11GetTotalRamEv+0x520>
   1fb78: 8b 01 00 35  	cbnz	w11, 0x1fba8 <_ZN8ChxUtils11GetTotalRamEv+0x520>
   1fb90: e4 ff ff 17  	b	0x1fb20 <_ZN8ChxUtils11GetTotalRamEv+0x498>
   1fb9c: 60 02 00 54  	b.eq	0x1fbe8 <_ZN8ChxUtils11GetTotalRamEv+0x560>
   1fba4: 3c 00 00 14  	b	0x1fc94 <_ZN8ChxUtils11GetTotalRamEv+0x60c>
   1fbb0: 40 03 00 54  	b.eq	0x1fc18 <_ZN8ChxUtils11GetTotalRamEv+0x590>
   1fbc0: 67 00 00 b4  	cbz	x7, 0x1fbcc <_ZN8ChxUtils11GetTotalRamEv+0x544>
   1fbdc: 20 02 00 54  	b.eq	0x1fc20 <_ZN8ChxUtils11GetTotalRamEv+0x598>
   1fbe4: 10 00 00 14  	b	0x1fc24 <_ZN8ChxUtils11GetTotalRamEv+0x59c>
   1fbf0: 66 00 00 b4  	cbz	x6, 0x1fbfc <_ZN8ChxUtils11GetTotalRamEv+0x574>
   1fc0c: e0 03 00 54  	b.eq	0x1fc88 <_ZN8ChxUtils11GetTotalRamEv+0x600>
   1fc14: 1e 00 00 14  	b	0x1fc8c <_ZN8ChxUtils11GetTotalRamEv+0x604>
   1fc1c: 04 00 00 14  	b	0x1fc2c <_ZN8ChxUtils11GetTotalRamEv+0x5a4>
   1fc48: 44 00 00 b4  	cbz	x4, 0x1fc50 <_ZN8ChxUtils11GetTotalRamEv+0x5c8>
   1fc64: a0 00 00 54  	b.eq	0x1fc78 <_ZN8ChxUtils11GetTotalRamEv+0x5f0>
   1fcb0: 45 00 00 b4  	cbz	x5, 0x1fcb8 <_ZN8ChxUtils11GetTotalRamEv+0x630>
   1fccc: 60 00 00 54  	b.eq	0x1fcd8 <_ZN8ChxUtils11GetTotalRamEv+0x650>
   1fcd4: 02 00 00 14  	b	0x1fcdc <_ZN8ChxUtils11GetTotalRamEv+0x654>
   1fd08: 93 00 00 d0  	adrp	x19, 0x31000 <_ZN8ChxUtils11GetTotalRamEv+0x6c8>
   1fd0c: 76 ff ff 90  	adrp	x22, 0xb000 <_ZN8ChxUtils11GetTotalRamEv+0x634>
   1fd20: e8 30 00 94  	bl	0x2c0c0 <_ZN7android8hardware11hidl_stringC1EPKc@plt>
   1fd24: 95 ff ff f0  	adrp	x21, 0x12000 <_ZN8ChxUtils11GetTotalRamEv+0x668>
   1fd28: 74 00 00 d0  	adrp	x20, 0x2d000 <_ZN8ChxUtils11GetTotalRamEv+0x6d8>
   1fd58: da 30 00 94  	bl	0x2c0c0 <_ZN7android8hardware11hidl_stringC1EPKc@plt>
   1fd80: d0 30 00 94  	bl	0x2c0c0 <_ZN7android8hardware11hidl_stringC1EPKc@plt>
   1fda8: c6 30 00 94  	bl	0x2c0c0 <_ZN7android8hardware11hidl_stringC1EPKc@plt>
   1fdd0: bc 30 00 94  	bl	0x2c0c0 <_ZN7android8hardware11hidl_stringC1EPKc@plt>
   1fdf8: b2 30 00 94  	bl	0x2c0c0 <_ZN7android8hardware11hidl_stringC1EPKc@plt>
   1fe20: a8 30 00 94  	bl	0x2c0c0 <_ZN7android8hardware11hidl_stringC1EPKc@plt>
   1fe48: 9e 30 00 94  	bl	0x2c0c0 <_ZN7android8hardware11hidl_stringC1EPKc@plt>
   1fe70: 94 30 00 94  	bl	0x2c0c0 <_ZN7android8hardware11hidl_stringC1EPKc@plt>
   1fe98: 8a 30 00 94  	bl	0x2c0c0 <_ZN7android8hardware11hidl_stringC1EPKc@plt>
   1fec0: 80 30 00 94  	bl	0x2c0c0 <_ZN7android8hardware11hidl_stringC1EPKc@plt>
   1fee8: 76 30 00 94  	bl	0x2c0c0 <_ZN7android8hardware11hidl_stringC1EPKc@plt>
   1ff10: 6c 30 00 94  	bl	0x2c0c0 <_ZN7android8hardware11hidl_stringC1EPKc@plt>
   1ff38: 62 30 00 94  	bl	0x2c0c0 <_ZN7android8hardware11hidl_stringC1EPKc@plt>
   1ff60: 58 30 00 94  	bl	0x2c0c0 <_ZN7android8hardware11hidl_stringC1EPKc@plt>
   1ff88: 4e 30 00 94  	bl	0x2c0c0 <_ZN7android8hardware11hidl_stringC1EPKc@plt>
   1ffb0: 44 30 00 94  	bl	0x2c0c0 <_ZN7android8hardware11hidl_stringC1EPKc@plt>
   1ffd8: 3a 30 00 94  	bl	0x2c0c0 <_ZN7android8hardware11hidl_stringC1EPKc@plt>
   20000: 30 30 00 94  	bl	0x2c0c0 <_ZN7android8hardware11hidl_stringC1EPKc@plt>
   20028: 26 30 00 94  	bl	0x2c0c0 <_ZN7android8hardware11hidl_stringC1EPKc@plt>
   20050: 1c 30 00 94  	bl	0x2c0c0 <_ZN7android8hardware11hidl_stringC1EPKc@plt>
   20078: 6d ff ff b0  	adrp	x13, 0xd000 <_ZN8ChxUtils11GetTotalRamEv+0x9a4>
   2007c: 4c ff ff b0  	adrp	x12, 0x9000 <_ZN8ChxUtils11GetTotalRamEv+0x998>
   20084: 96 ff ff d0  	adrp	x22, 0x12000 <_ZN8ChxUtils11GetTotalRamEv+0x9c4>
   20114: 6f ff ff d0  	adrp	x15, 0xe000 <_ZN8ChxUtils11GetTotalRamEv+0xa44>
   20118: 4e ff ff b0  	adrp	x14, 0x9000 <_ZN8ChxUtils11GetTotalRamEv+0xa34>
   201ec: 71 ff ff b0  	adrp	x17, 0xd000 <_ZN8ChxUtils11GetTotalRamEv+0xb18>
   201f0: 50 ff ff b0  	adrp	x16, 0x9000 <_ZN8ChxUtils11GetTotalRamEv+0xb0c>
   20308: 43 ff ff b0  	adrp	x3, 0x9000 <_ZN8ChxUtils11GetTotalRamEv+0xc24>
   2030c: 42 ff ff b0  	adrp	x2, 0x9000 <_ZN8ChxUtils11GetTotalRamEv+0xc28>
   20590: 60 00 00 b0  	adrp	x0, 0x2d000 <_ZN8ChxUtils11GetTotalRamEv+0xf3c>
   205c0: cc 2e 00 94  	bl	0x2c0f0 <_ZN7android8hardware11hidl_stringC1ERKNSt3__112basic_stringIcNS2_11char_traitsIcEENS2_9allocatorIcEEEE@plt>
   205e8: c2 2e 00 94  	bl	0x2c0f0 <_ZN7android8hardware11hidl_stringC1ERKNSt3__112basic_stringIcNS2_11char_traitsIcEENS2_9allocatorIcEEEE@plt>
   20610: b8 2e 00 94  	bl	0x2c0f0 <_ZN7android8hardware11hidl_stringC1ERKNSt3__112basic_stringIcNS2_11char_traitsIcEENS2_9allocatorIcEEEE@plt>
   20638: ae 2e 00 94  	bl	0x2c0f0 <_ZN7android8hardware11hidl_stringC1ERKNSt3__112basic_stringIcNS2_11char_traitsIcEENS2_9allocatorIcEEEE@plt>
   20660: a4 2e 00 94  	bl	0x2c0f0 <_ZN7android8hardware11hidl_stringC1ERKNSt3__112basic_stringIcNS2_11char_traitsIcEENS2_9allocatorIcEEEE@plt>
   20688: 9a 2e 00 94  	bl	0x2c0f0 <_ZN7android8hardware11hidl_stringC1ERKNSt3__112basic_stringIcNS2_11char_traitsIcEENS2_9allocatorIcEEEE@plt>
   206b0: 90 2e 00 94  	bl	0x2c0f0 <_ZN7android8hardware11hidl_stringC1ERKNSt3__112basic_stringIcNS2_11char_traitsIcEENS2_9allocatorIcEEEE@plt>
   206d8: 86 2e 00 94  	bl	0x2c0f0 <_ZN7android8hardware11hidl_stringC1ERKNSt3__112basic_stringIcNS2_11char_traitsIcEENS2_9allocatorIcEEEE@plt>
   20700: 7c 2e 00 94  	bl	0x2c0f0 <_ZN7android8hardware11hidl_stringC1ERKNSt3__112basic_stringIcNS2_11char_traitsIcEENS2_9allocatorIcEEEE@plt>
   20728: 72 2e 00 94  	bl	0x2c0f0 <_ZN7android8hardware11hidl_stringC1ERKNSt3__112basic_stringIcNS2_11char_traitsIcEENS2_9allocatorIcEEEE@plt>
   20750: 68 2e 00 94  	bl	0x2c0f0 <_ZN7android8hardware11hidl_stringC1ERKNSt3__112basic_stringIcNS2_11char_traitsIcEENS2_9allocatorIcEEEE@plt>
   20778: 5e 2e 00 94  	bl	0x2c0f0 <_ZN7android8hardware11hidl_stringC1ERKNSt3__112basic_stringIcNS2_11char_traitsIcEENS2_9allocatorIcEEEE@plt>
   207a0: 54 2e 00 94  	bl	0x2c0f0 <_ZN7android8hardware11hidl_stringC1ERKNSt3__112basic_stringIcNS2_11char_traitsIcEENS2_9allocatorIcEEEE@plt>
   207c8: 4a 2e 00 94  	bl	0x2c0f0 <_ZN7android8hardware11hidl_stringC1ERKNSt3__112basic_stringIcNS2_11char_traitsIcEENS2_9allocatorIcEEEE@plt>
   207f0: 40 2e 00 94  	bl	0x2c0f0 <_ZN7android8hardware11hidl_stringC1ERKNSt3__112basic_stringIcNS2_11char_traitsIcEENS2_9allocatorIcEEEE@plt>
   20818: 36 2e 00 94  	bl	0x2c0f0 <_ZN7android8hardware11hidl_stringC1ERKNSt3__112basic_stringIcNS2_11char_traitsIcEENS2_9allocatorIcEEEE@plt>
   20840: 2c 2e 00 94  	bl	0x2c0f0 <_ZN7android8hardware11hidl_stringC1ERKNSt3__112basic_stringIcNS2_11char_traitsIcEENS2_9allocatorIcEEEE@plt>
   20868: 22 2e 00 94  	bl	0x2c0f0 <_ZN7android8hardware11hidl_stringC1ERKNSt3__112basic_stringIcNS2_11char_traitsIcEENS2_9allocatorIcEEEE@plt>
   20890: 18 2e 00 94  	bl	0x2c0f0 <_ZN7android8hardware11hidl_stringC1ERKNSt3__112basic_stringIcNS2_11char_traitsIcEENS2_9allocatorIcEEEE@plt>
   208b8: 0e 2e 00 94  	bl	0x2c0f0 <_ZN7android8hardware11hidl_stringC1ERKNSt3__112basic_stringIcNS2_11char_traitsIcEENS2_9allocatorIcEEEE@plt>
   208e0: 04 2e 00 94  	bl	0x2c0f0 <_ZN7android8hardware11hidl_stringC1ERKNSt3__112basic_stringIcNS2_11char_traitsIcEENS2_9allocatorIcEEEE@plt>
   20908: fa 2d 00 94  	bl	0x2c0f0 <_ZN7android8hardware11hidl_stringC1ERKNSt3__112basic_stringIcNS2_11char_traitsIcEENS2_9allocatorIcEEEE@plt>
   20930: f0 2d 00 94  	bl	0x2c0f0 <_ZN7android8hardware11hidl_stringC1ERKNSt3__112basic_stringIcNS2_11char_traitsIcEENS2_9allocatorIcEEEE@plt>
   20958: e6 2d 00 94  	bl	0x2c0f0 <_ZN7android8hardware11hidl_stringC1ERKNSt3__112basic_stringIcNS2_11char_traitsIcEENS2_9allocatorIcEEEE@plt>
   20980: dc 2d 00 94  	bl	0x2c0f0 <_ZN7android8hardware11hidl_stringC1ERKNSt3__112basic_stringIcNS2_11char_traitsIcEENS2_9allocatorIcEEEE@plt>
   209a8: d2 2d 00 94  	bl	0x2c0f0 <_ZN7android8hardware11hidl_stringC1ERKNSt3__112basic_stringIcNS2_11char_traitsIcEENS2_9allocatorIcEEEE@plt>
   209cc: cd 2d 00 94  	bl	0x2c100 <_ZNSt3__112basic_stringIcNS_11char_traitsIcEENS_9allocatorIcEEEC1ERKS5_@plt>
   209f4: c3 2d 00 94  	bl	0x2c100 <_ZNSt3__112basic_stringIcNS_11char_traitsIcEENS_9allocatorIcEEEC1ERKS5_@plt>
   20a1c: b9 2d 00 94  	bl	0x2c100 <_ZNSt3__112basic_stringIcNS_11char_traitsIcEENS_9allocatorIcEEEC1ERKS5_@plt>
   20a44: af 2d 00 94  	bl	0x2c100 <_ZNSt3__112basic_stringIcNS_11char_traitsIcEENS_9allocatorIcEEEC1ERKS5_@plt>
   20a78: 74 ff ff d0  	adrp	x20, 0xe000 <_ZN8ChxUtils11GetTotalRamEv+0x13a8>
   20a9c: 40 00 00 b4  	cbz	x0, 0x20aa4 <_ZN8ChxUtils11GetTotalRamEv+0x141c>
   20aa8: 18 fc ff 97  	bl	0x1fb08 <_ZN8ChxUtils11GetTotalRamEv+0x480>
   20ac4: 00 02 00 54  	b.eq	0x20b04 <_ZN8ChxUtils11GetTotalRamEv+0x147c>
   20ac8: c9 00 00 b4  	cbz	x9, 0x20ae0 <_ZN8ChxUtils11GetTotalRamEv+0x1458>
   20ad8: cb ff ff b5  	cbnz	x11, 0x20ad0 <_ZN8ChxUtils11GetTotalRamEv+0x1448>
   20adc: 07 00 00 14  	b	0x20af8 <_ZN8ChxUtils11GetTotalRamEv+0x1470>
   20af4: 80 ff ff 54  	b.eq	0x20ae4 <_ZN8ChxUtils11GetTotalRamEv+0x145c>
   20b00: cc 00 00 54  	b.gt	0x20b18 <_ZN8ChxUtils11GetTotalRamEv+0x1490>
   20b04: c9 00 00 b4  	cbz	x9, 0x20b1c <_ZN8ChxUtils11GetTotalRamEv+0x1494>
   20b10: 56 05 00 b5  	cbnz	x22, 0x20bb8 <_ZN8ChxUtils11GetTotalRamEv+0x1530>
   20b14: 04 00 00 14  	b	0x20b24 <_ZN8ChxUtils11GetTotalRamEv+0x149c>
   20b18: a9 02 00 b5  	cbnz	x9, 0x20b6c <_ZN8ChxUtils11GetTotalRamEv+0x14e4>
   20b54: 49 02 00 b4  	cbz	x9, 0x20b9c <_ZN8ChxUtils11GetTotalRamEv+0x1514>
   20b60: 10 00 00 14  	b	0x20ba0 <_ZN8ChxUtils11GetTotalRamEv+0x1518>
   20b68: c9 fd ff b4  	cbz	x9, 0x20b20 <_ZN8ChxUtils11GetTotalRamEv+0x1498>
   20b78: 6a ff ff 54  	b.ge	0x20b64 <_ZN8ChxUtils11GetTotalRamEv+0x14dc>
   20b80: c0 01 00 54  	b.eq	0x20bb8 <_ZN8ChxUtils11GetTotalRamEv+0x1530>
   20b88: 29 ff ff b5  	cbnz	x9, 0x20b6c <_ZN8ChxUtils11GetTotalRamEv+0x14e4>
   20b98: e3 ff ff 17  	b	0x20b24 <_ZN8ChxUtils11GetTotalRamEv+0x149c>
   20ba4: d9 fb ff 97  	bl	0x1fb08 <_ZN8ChxUtils11GetTotalRamEv+0x480>
   20bc4: e0 00 00 54  	b.eq	0x20be0 <_ZN8ChxUtils11GetTotalRamEv+0x1558>
   20bc8: 0a 01 00 b4  	cbz	x10, 0x20be8 <_ZN8ChxUtils11GetTotalRamEv+0x1560>
   20bd8: c8 ff ff b5  	cbnz	x8, 0x20bd0 <_ZN8ChxUtils11GetTotalRamEv+0x1548>
   20bdc: 09 00 00 14  	b	0x20c00 <_ZN8ChxUtils11GetTotalRamEv+0x1578>
   20be4: 0a 00 00 14  	b	0x20c0c <_ZN8ChxUtils11GetTotalRamEv+0x1584>
   20bfc: 80 ff ff 54  	b.eq	0x20bec <_ZN8ChxUtils11GetTotalRamEv+0x1564>
   20c08: cc 00 00 54  	b.gt	0x20c20 <_ZN8ChxUtils11GetTotalRamEv+0x1598>
   20c0c: ea 00 00 b4  	cbz	x10, 0x20c28 <_ZN8ChxUtils11GetTotalRamEv+0x15a0>
   20c18: 30 05 00 b5  	cbnz	x16, 0x20cbc <_ZN8ChxUtils11GetTotalRamEv+0x1634>
   20c1c: 04 00 00 14  	b	0x20c2c <_ZN8ChxUtils11GetTotalRamEv+0x15a4>
   20c20: aa 02 00 b5  	cbnz	x10, 0x20c74 <_ZN8ChxUtils11GetTotalRamEv+0x15ec>
   20c5c: 4a 02 00 b4  	cbz	x10, 0x20ca4 <_ZN8ChxUtils11GetTotalRamEv+0x161c>
   20c68: 10 00 00 14  	b	0x20ca8 <_ZN8ChxUtils11GetTotalRamEv+0x1620>
   20c70: ca fd ff b4  	cbz	x10, 0x20c28 <_ZN8ChxUtils11GetTotalRamEv+0x15a0>
   20c80: 6a ff ff 54  	b.ge	0x20c6c <_ZN8ChxUtils11GetTotalRamEv+0x15e4>
   20c88: a0 01 00 54  	b.eq	0x20cbc <_ZN8ChxUtils11GetTotalRamEv+0x1634>
   20c90: 2a ff ff b5  	cbnz	x10, 0x20c74 <_ZN8ChxUtils11GetTotalRamEv+0x15ec>
   20ca0: e3 ff ff 17  	b	0x20c2c <_ZN8ChxUtils11GetTotalRamEv+0x15a4>
   20cac: 97 fb ff 97  	bl	0x1fb08 <_ZN8ChxUtils11GetTotalRamEv+0x480>
   20cc0: a0 ff ff d0  	adrp	x0, 0x16000 <_ZN8ChxUtils11GetTotalRamEv+0x1610>
   20cdc: 62 00 00 b0  	adrp	x2, 0x2d000 <_ZN11ChiMetadata6CreateEPKjjbP18ChiMetadataManagerj+0x20>
0000000000020cf0 <_ZN11ChiMetadata6CreateEPKjjbP18ChiMetadataManagerj>:
   20d40: 60 09 00 b4  	cbz	x0, 0x20e6c <_ZN11ChiMetadata6CreateEPKjjbP18ChiMetadataManagerj+0x17c>
   20d4c: ad 2e 00 94  	bl	0x2c800 <_ZN11ChiMetadata21InitializeMetadataOpsEP14ChiMetadataOps@plt>
   20d54: 00 08 00 35  	cbnz	w0, 0x20e54 <_ZN11ChiMetadata6CreateEPKjjbP18ChiMetadataManagerj+0x164>
   20d64: b6 03 00 b5  	cbnz	x22, 0x20dd8 <_ZN11ChiMetadata6CreateEPKjjbP18ChiMetadataManagerj+0xe8>
   20d68: 97 03 00 36  	tbz	w23, #0, 0x20dd8 <_ZN11ChiMetadata6CreateEPKjjbP18ChiMetadataManagerj+0xe8>
   20db4: e7 2d 00 94  	bl	0x2c550 <_ZN15ExtensionModule11GetInstanceEv@plt>
   20dc8: 92 2e 00 94  	bl	0x2c810 <_ZN15ExtensionModule23GetAvailableRequestKeysEjPjjS0_@plt>
   20dec: 56 01 00 b4  	cbz	x22, 0x20e14 <_ZN11ChiMetadata6CreateEPKjjbP18ChiMetadataManagerj+0x124>
   20df0: 35 01 00 34  	cbz	w21, 0x20e14 <_ZN11ChiMetadata6CreateEPKjjbP18ChiMetadataManagerj+0x124>
   20e10: 06 00 00 14  	b	0x20e28 <_ZN11ChiMetadata6CreateEPKjjbP18ChiMetadataManagerj+0x138>
   20e50: 80 00 00 34  	cbz	w0, 0x20e60 <_ZN11ChiMetadata6CreateEPKjjbP18ChiMetadataManagerj+0x170>
   20e60: 74 00 00 b4  	cbz	x20, 0x20e6c <_ZN11ChiMetadata6CreateEPKjjbP18ChiMetadataManagerj+0x17c>
   20e78: 21 01 00 54  	b.ne	0x20e9c <_ZN11ChiMetadata6CreateEPKjjbP18ChiMetadataManagerj+0x1ac>
0000000000020ea0 <_ZN11ChiMetadata21InitializeMetadataOpsEP14ChiMetadataOps>:
   20eb0: a8 2d 00 94  	bl	0x2c550 <_ZN15ExtensionModule11GetInstanceEv@plt>
   20eb8: 5a 2e 00 94  	bl	0x2c820 <_ZN15ExtensionModule14GetMetadataOpsEP14ChiMetadataOps@plt>
   20ec0: e8 09 00 b4  	cbz	x8, 0x20ffc <_ZN11ChiMetadata21InitializeMetadataOpsEP14ChiMetadataOps+0x15c>
   20ec8: a9 0f 00 b4  	cbz	x9, 0x210bc <_ZN11ChiMetadata21InitializeMetadataOpsEP14ChiMetadataOps+0x21c>
   20ed0: 6a 15 00 b4  	cbz	x10, 0x2117c <_ZN11ChiMetadata21InitializeMetadataOpsEP14ChiMetadataOps+0x2dc>
   20ed8: 2b 1b 00 b4  	cbz	x11, 0x2123c <_ZN11ChiMetadata21InitializeMetadataOpsEP14ChiMetadataOps+0x39c>
   20ee0: ec 20 00 b4  	cbz	x12, 0x212fc <_ZN11ChiMetadata21InitializeMetadataOpsEP14ChiMetadataOps+0x45c>
   20ee8: ad 26 00 b4  	cbz	x13, 0x213bc <_ZN11ChiMetadata21InitializeMetadataOpsEP14ChiMetadataOps+0x51c>
   20ef0: 6e 2c 00 b4  	cbz	x14, 0x2147c <_ZN11ChiMetadata21InitializeMetadataOpsEP14ChiMetadataOps+0x5dc>
   20ef8: 2f 32 00 b4  	cbz	x15, 0x2153c <_ZN11ChiMetadata21InitializeMetadataOpsEP14ChiMetadataOps+0x69c>
   20f00: f0 37 00 b4  	cbz	x16, 0x215fc <_ZN11ChiMetadata21InitializeMetadataOpsEP14ChiMetadataOps+0x75c>
   20f08: b1 3d 00 b4  	cbz	x17, 0x216bc <_ZN11ChiMetadata21InitializeMetadataOpsEP14ChiMetadataOps+0x81c>
   20f10: 64 43 00 b4  	cbz	x4, 0x2177c <_ZN11ChiMetadata21InitializeMetadataOpsEP14ChiMetadataOps+0x8dc>
   20f18: 27 49 00 b4  	cbz	x7, 0x2183c <_ZN11ChiMetadata21InitializeMetadataOpsEP14ChiMetadataOps+0x99c>
   20f20: e2 4e 00 b4  	cbz	x2, 0x218fc <_ZN11ChiMetadata21InitializeMetadataOpsEP14ChiMetadataOps+0xa5c>
   20f28: a0 54 00 b4  	cbz	x0, 0x219bc <_ZN11ChiMetadata21InitializeMetadataOpsEP14ChiMetadataOps+0xb1c>
   20f30: 61 5a 00 b4  	cbz	x1, 0x21a7c <_ZN11ChiMetadata21InitializeMetadataOpsEP14ChiMetadataOps+0xbdc>
   20f38: 23 60 00 b4  	cbz	x3, 0x21b3c <_ZN11ChiMetadata21InitializeMetadataOpsEP14ChiMetadataOps+0xc9c>
   20f40: e5 65 00 b4  	cbz	x5, 0x21bfc <_ZN11ChiMetadata21InitializeMetadataOpsEP14ChiMetadataOps+0xd5c>
   20f48: a6 6b 00 b4  	cbz	x6, 0x21cbc <_ZN11ChiMetadata21InitializeMetadataOpsEP14ChiMetadataOps+0xe1c>
   20f50: 68 71 00 b4  	cbz	x8, 0x21d7c <_ZN11ChiMetadata21InitializeMetadataOpsEP14ChiMetadataOps+0xedc>
   20f58: 29 77 00 b4  	cbz	x9, 0x21e3c <_ZN11ChiMetadata21InitializeMetadataOpsEP14ChiMetadataOps+0xf9c>
   20f60: ea 7c 00 b4  	cbz	x10, 0x21efc <_ZN11ChiMetadata21InitializeMetadataOpsEP14ChiMetadataOps+0x105c>
   20f68: ab 82 00 b4  	cbz	x11, 0x21fbc <_ZN11ChiMetadata21InitializeMetadataOpsEP14ChiMetadataOps+0x111c>
   20f70: 6c 88 00 b4  	cbz	x12, 0x2207c <_ZN11ChiMetadata21InitializeMetadataOpsEP14ChiMetadataOps+0x11dc>
   20f78: 2d 8e 00 b4  	cbz	x13, 0x2213c <_ZN11ChiMetadata21InitializeMetadataOpsEP14ChiMetadataOps+0x129c>
   20f80: ee 93 00 b4  	cbz	x14, 0x221fc <_ZN11ChiMetadata21InitializeMetadataOpsEP14ChiMetadataOps+0x135c>
   20f88: af 99 00 b4  	cbz	x15, 0x222bc <_ZN11ChiMetadata21InitializeMetadataOpsEP14ChiMetadataOps+0x141c>
   20f90: 70 9f 00 b4  	cbz	x16, 0x2237c <_ZN11ChiMetadata21InitializeMetadataOpsEP14ChiMetadataOps+0x14dc>
   20f98: 31 a5 00 b4  	cbz	x17, 0x2243c <_ZN11ChiMetadata21InitializeMetadataOpsEP14ChiMetadataOps+0x159c>
   20fa0: e4 aa 00 b4  	cbz	x4, 0x224fc <_ZN11ChiMetadata21InitializeMetadataOpsEP14ChiMetadataOps+0x165c>
   20fa8: a7 b0 00 b4  	cbz	x7, 0x225bc <_ZN11ChiMetadata21InitializeMetadataOpsEP14ChiMetadataOps+0x171c>
   20fb0: 62 b6 00 b4  	cbz	x2, 0x2267c <_ZN11ChiMetadata21InitializeMetadataOpsEP14ChiMetadataOps+0x17dc>
   20fb8: 20 bc 00 b4  	cbz	x0, 0x2273c <_ZN11ChiMetadata21InitializeMetadataOpsEP14ChiMetadataOps+0x189c>
   20fc0: e1 c1 00 b4  	cbz	x1, 0x227fc <_ZN11ChiMetadata21InitializeMetadataOpsEP14ChiMetadataOps+0x195c>
   20fc8: a3 c7 00 b4  	cbz	x3, 0x228bc <_ZN11ChiMetadata21InitializeMetadataOpsEP14ChiMetadataOps+0x1a1c>
   20fd0: 65 cd 00 b4  	cbz	x5, 0x2297c <_ZN11ChiMetadata21InitializeMetadataOpsEP14ChiMetadataOps+0x1adc>
   20fd8: 26 d3 00 b4  	cbz	x6, 0x22a3c <_ZN11ChiMetadata21InitializeMetadataOpsEP14ChiMetadataOps+0x1b9c>
   20fe0: e8 d8 00 b4  	cbz	x8, 0x22afc <_ZN11ChiMetadata21InitializeMetadataOpsEP14ChiMetadataOps+0x1c5c>
   20fe8: a9 de 00 b4  	cbz	x9, 0x22bbc <_ZN11ChiMetadata21InitializeMetadataOpsEP14ChiMetadataOps+0x1d1c>
   20ff0: 73 e4 00 b4  	cbz	x19, 0x22c7c <_ZN11ChiMetadata21InitializeMetadataOpsEP14ChiMetadataOps+0x1ddc>
   20ff8: 50 07 00 14  	b	0x22d38 <_ZN11ChiMetadata21InitializeMetadataOpsEP14ChiMetadataOps+0x1e98>
   20ffc: 68 00 00 b0  	adrp	x8, 0x2d000 <_ZN11ChiMetadata21InitializeMetadataOpsEP14ChiMetadataOps+0x190>
   21008: 68 e9 30 36  	tbz	w8, #6, 0x22d34 <_ZN11ChiMetadata21InitializeMetadataOpsEP14ChiMetadataOps+0x1e94>
   2100c: 69 00 00 90  	adrp	x9, 0x2d000 <_ZN11ChiMetadata21InitializeMetadataOpsEP14ChiMetadataOps+0x19c>
   2101c: 81 02 00 54  	b.ne	0x2106c <_ZN11ChiMetadata21InitializeMetadataOpsEP14ChiMetadataOps+0x1cc>
   21020: 53 ff ff d0  	adrp	x19, 0xb000 <_ZN11ChiMetadata21InitializeMetadataOpsEP14ChiMetadataOps+0x128>
   2103c: 61 ff ff 90  	adrp	x1, 0xd000 <_ZN11ChiMetadata21InitializeMetadataOpsEP14ChiMetadataOps+0x14c>
   21040: 42 ff ff 90  	adrp	x2, 0x9000 <_ZN11ChiMetadata21InitializeMetadataOpsEP14ChiMetadataOps+0x140>
   21044: 65 ff ff b0  	adrp	x5, 0xe000 <_ZN11ChiMetadata21InitializeMetadataOpsEP14ChiMetadataOps+0x158>
   21048: 46 ff ff f0  	adrp	x6, 0xc000 <_ZN11ChiMetadata21InitializeMetadataOpsEP14ChiMetadataOps+0x154>
   2106c: 53 ff ff d0  	adrp	x19, 0xb000 <_ZN11ChiMetadata21InitializeMetadataOpsEP14ChiMetadataOps+0x174>
   21088: 41 ff ff 90  	adrp	x1, 0x9000 <_ZN11ChiMetadata21InitializeMetadataOpsEP14ChiMetadataOps+0x188>
   21090: 40 ff ff f0  	adrp	x0, 0xc000 <_ZN11ChiMetadata21InitializeMetadataOpsEP14ChiMetadataOps+0x19c>
   21094: 63 ff ff b0  	adrp	x3, 0xe000 <_ZN11ChiMetadata21InitializeMetadataOpsEP14ChiMetadataOps+0x1a8>
   21098: 45 ff ff 90  	adrp	x5, 0x9000 <_ZN11ChiMetadata21InitializeMetadataOpsEP14ChiMetadataOps+0x198>
   2109c: 46 ff ff f0  	adrp	x6, 0xc000 <_ZN11ChiMetadata21InitializeMetadataOpsEP14ChiMetadataOps+0x1a8>
   210b8: 1e 07 00 14  	b	0x22d30 <_ZN11ChiMetadata21InitializeMetadataOpsEP14ChiMetadataOps+0x1e90>
   210bc: 6a 00 00 90  	adrp	x10, 0x2d000 <_ZN11ChiMetadata21InitializeMetadataOpsEP14ChiMetadataOps+0x24c>
   210c8: 69 e3 30 36  	tbz	w9, #6, 0x22d34 <_ZN11ChiMetadata21InitializeMetadataOpsEP14ChiMetadataOps+0x1e94>
   210cc: 6b 00 00 90  	adrp	x11, 0x2d000 <_ZN11ChiMetadata21InitializeMetadataOpsEP14ChiMetadataOps+0x25c>
   210dc: 81 02 00 54  	b.ne	0x2112c <_ZN11ChiMetadata21InitializeMetadataOpsEP14ChiMetadataOps+0x28c>
   210e0: 53 ff ff d0  	adrp	x19, 0xb000 <_ZN11ChiMetadata21InitializeMetadataOpsEP14ChiMetadataOps+0x1e8>
   210fc: 61 ff ff 90  	adrp	x1, 0xd000 <_ZN11ChiMetadata21InitializeMetadataOpsEP14ChiMetadataOps+0x20c>
   21100: 42 ff ff 90  	adrp	x2, 0x9000 <_ZN11ChiMetadata21InitializeMetadataOpsEP14ChiMetadataOps+0x200>
   21104: 65 ff ff b0  	adrp	x5, 0xe000 <_ZN11ChiMetadata21InitializeMetadataOpsEP14ChiMetadataOps+0x218>
   21108: 66 ff ff 90  	adrp	x6, 0xd000 <_ZN11ChiMetadata21InitializeMetadataOpsEP14ChiMetadataOps+0x218>
   2112c: 53 ff ff d0  	adrp	x19, 0xb000 <_ZN11ChiMetadata21InitializeMetadataOpsEP14ChiMetadataOps+0x234>
   21148: 41 ff ff 90  	adrp	x1, 0x9000 <_ZN11ChiMetadata21InitializeMetadataOpsEP14ChiMetadataOps+0x248>
   21150: 40 ff ff f0  	adrp	x0, 0xc000 <_ZN11ChiMetadata21InitializeMetadataOpsEP14ChiMetadataOps+0x25c>
   21154: 63 ff ff b0  	adrp	x3, 0xe000 <_ZN11ChiMetadata21InitializeMetadataOpsEP14ChiMetadataOps+0x268>
   21158: 45 ff ff 90  	adrp	x5, 0x9000 <_ZN11ChiMetadata21InitializeMetadataOpsEP14ChiMetadataOps+0x258>
   2115c: 66 ff ff 90  	adrp	x6, 0xd000 <_ZN11ChiMetadata21InitializeMetadataOpsEP14ChiMetadataOps+0x26c>
   21178: ee 06 00 14  	b	0x22d30 <_ZN11ChiMetadata21InitializeMetadataOpsEP14ChiMetadataOps+0x1e90>
   2117c: 6c 00 00 90  	adrp	x12, 0x2d000 <_ZN11ChiMetadata21InitializeMetadataOpsEP14ChiMetadataOps+0x30c>
   21188: 6a dd 30 36  	tbz	w10, #6, 0x22d34 <_ZN11ChiMetadata21InitializeMetadataOpsEP14ChiMetadataOps+0x1e94>
   2118c: 6d 00 00 90  	adrp	x13, 0x2d000 <_ZN11ChiMetadata21InitializeMetadataOpsEP14ChiMetadataOps+0x31c>
   2119c: 81 02 00 54  	b.ne	0x211ec <_ZN11ChiMetadata21InitializeMetadataOpsEP14ChiMetadataOps+0x34c>
   211a0: 53 ff ff d0  	adrp	x19, 0xb000 <_ZN11ChiMetadata21InitializeMetadataOpsEP14ChiMetadataOps+0x2a8>
   211bc: 61 ff ff 90  	adrp	x1, 0xd000 <_ZN11ChiMetadata21InitializeMetadataOpsEP14ChiMetadataOps+0x2cc>
   211c0: 42 ff ff 90  	adrp	x2, 0x9000 <_ZN11ChiMetadata21InitializeMetadataOpsEP14ChiMetadataOps+0x2c0>
   211c4: 65 ff ff b0  	adrp	x5, 0xe000 <_ZN11ChiMetadata21InitializeMetadataOpsEP14ChiMetadataOps+0x2d8>
   211c8: 46 ff ff d0  	adrp	x6, 0xb000 <_ZN11ChiMetadata21InitializeMetadataOpsEP14ChiMetadataOps+0x2d0>
   211ec: 53 ff ff d0  	adrp	x19, 0xb000 <_ZN11ChiMetadata21InitializeMetadataOpsEP14ChiMetadataOps+0x2f4>
   21208: 41 ff ff 90  	adrp	x1, 0x9000 <_ZN11ChiMetadata21InitializeMetadataOpsEP14ChiMetadataOps+0x308>
   21210: 40 ff ff f0  	adrp	x0, 0xc000 <_ZN11ChiMetadata21InitializeMetadataOpsEP14ChiMetadataOps+0x31c>
   21214: 63 ff ff b0  	adrp	x3, 0xe000 <_ZN11ChiMetadata21InitializeMetadataOpsEP14ChiMetadataOps+0x328>
   21218: 45 ff ff 90  	adrp	x5, 0x9000 <_ZN11ChiMetadata21InitializeMetadataOpsEP14ChiMetadataOps+0x318>
   2121c: 46 ff ff d0  	adrp	x6, 0xb000 <_ZN11ChiMetadata21InitializeMetadataOpsEP14ChiMetadataOps+0x324>
   21238: be 06 00 14  	b	0x22d30 <_ZN11ChiMetadata21InitializeMetadataOpsEP14ChiMetadataOps+0x1e90>
   2123c: 6e 00 00 90  	adrp	x14, 0x2d000 <_ZN11ChiMetadata21InitializeMetadataOpsEP14ChiMetadataOps+0x3cc>
   21248: 6b d7 30 36  	tbz	w11, #6, 0x22d34 <_ZN11ChiMetadata21InitializeMetadataOpsEP14ChiMetadataOps+0x1e94>
   2124c: 6f 00 00 90  	adrp	x15, 0x2d000 <_ZN11ChiMetadata21InitializeMetadataOpsEP14ChiMetadataOps+0x3dc>
   2125c: 81 02 00 54  	b.ne	0x212ac <_ZN11ChiMetadata21InitializeMetadataOpsEP14ChiMetadataOps+0x40c>
   21260: 53 ff ff d0  	adrp	x19, 0xb000 <_ZN11ChiMetadata21InitializeMetadataOpsEP14ChiMetadataOps+0x368>
   2127c: 61 ff ff 90  	adrp	x1, 0xd000 <_ZN11ChiMetadata21InitializeMetadataOpsEP14ChiMetadataOps+0x38c>
   21280: 42 ff ff 90  	adrp	x2, 0x9000 <_ZN11ChiMetadata21InitializeMetadataOpsEP14ChiMetadataOps+0x380>
   21284: 65 ff ff b0  	adrp	x5, 0xe000 <_ZN11ChiMetadata21InitializeMetadataOpsEP14ChiMetadataOps+0x398>
   21288: 46 ff ff b0  	adrp	x6, 0xa000 <_ZN11ChiMetadata21InitializeMetadataOpsEP14ChiMetadataOps+0x38c>
   212ac: 53 ff ff d0  	adrp	x19, 0xb000 <_ZN11ChiMetadata21InitializeMetadataOpsEP14ChiMetadataOps+0x3b4>
   212c8: 41 ff ff 90  	adrp	x1, 0x9000 <_ZN11ChiMetadata21InitializeMetadataOpsEP14ChiMetadataOps+0x3c8>
   212d0: 40 ff ff f0  	adrp	x0, 0xc000 <_ZN11ChiMetadata21InitializeMetadataOpsEP14ChiMetadataOps+0x3dc>
   212d4: 63 ff ff b0  	adrp	x3, 0xe000 <_ZN11ChiMetadata21InitializeMetadataOpsEP14ChiMetadataOps+0x3e8>
   212d8: 45 ff ff 90  	adrp	x5, 0x9000 <_ZN11ChiMetadata21InitializeMetadataOpsEP14ChiMetadataOps+0x3d8>
   212dc: 46 ff ff b0  	adrp	x6, 0xa000 <_ZN11ChiMetadata21InitializeMetadataOpsEP14ChiMetadataOps+0x3e0>
   212f8: 8e 06 00 14  	b	0x22d30 <_ZN11ChiMetadata21InitializeMetadataOpsEP14ChiMetadataOps+0x1e90>
   212fc: 70 00 00 90  	adrp	x16, 0x2d000 <_ZN11ChiMetadata21InitializeMetadataOpsEP14ChiMetadataOps+0x48c>
   21308: 6c d1 30 36  	tbz	w12, #6, 0x22d34 <_ZN11ChiMetadata21InitializeMetadataOpsEP14ChiMetadataOps+0x1e94>
   2130c: 71 00 00 90  	adrp	x17, 0x2d000 <_ZN11ChiMetadata21InitializeMetadataOpsEP14ChiMetadataOps+0x49c>
   2131c: 81 02 00 54  	b.ne	0x2136c <_ZN11ChiMetadata21InitializeMetadataOpsEP14ChiMetadataOps+0x4cc>
   21320: 53 ff ff d0  	adrp	x19, 0xb000 <_ZN11ChiMetadata21InitializeMetadataOpsEP14ChiMetadataOps+0x428>
   2133c: 61 ff ff 90  	adrp	x1, 0xd000 <_ZN11ChiMetadata21InitializeMetadataOpsEP14ChiMetadataOps+0x44c>
   21340: 42 ff ff 90  	adrp	x2, 0x9000 <_ZN11ChiMetadata21InitializeMetadataOpsEP14ChiMetadataOps+0x440>
   21344: 65 ff ff b0  	adrp	x5, 0xe000 <_ZN11ChiMetadata21InitializeMetadataOpsEP14ChiMetadataOps+0x458>
   21348: 46 ff ff d0  	adrp	x6, 0xb000 <_ZN11ChiMetadata21InitializeMetadataOpsEP14ChiMetadataOps+0x450>
   2136c: 53 ff ff d0  	adrp	x19, 0xb000 <_ZN11ChiMetadata21InitializeMetadataOpsEP14ChiMetadataOps+0x474>
   21388: 41 ff ff 90  	adrp	x1, 0x9000 <_ZN11ChiMetadata21InitializeMetadataOpsEP14ChiMetadataOps+0x488>
   21390: 40 ff ff f0  	adrp	x0, 0xc000 <_ZN11ChiMetadata21InitializeMetadataOpsEP14ChiMetadataOps+0x49c>
   21394: 63 ff ff b0  	adrp	x3, 0xe000 <_ZN11ChiMetadata21InitializeMetadataOpsEP14ChiMetadataOps+0x4a8>
   21398: 45 ff ff 90  	adrp	x5, 0x9000 <_ZN11ChiMetadata21InitializeMetadataOpsEP14ChiMetadataOps+0x498>
   2139c: 46 ff ff d0  	adrp	x6, 0xb000 <_ZN11ChiMetadata21InitializeMetadataOpsEP14ChiMetadataOps+0x4a4>
   213b8: 5e 06 00 14  	b	0x22d30 <_ZN11ChiMetadata21InitializeMetadataOpsEP14ChiMetadataOps+0x1e90>
   213bc: 61 00 00 90  	adrp	x1, 0x2d000 <_ZN11ChiMetadata21InitializeMetadataOpsEP14ChiMetadataOps+0x54c>
   213c8: 6d cb 30 36  	tbz	w13, #6, 0x22d34 <_ZN11ChiMetadata21InitializeMetadataOpsEP14ChiMetadataOps+0x1e94>
   213cc: 62 00 00 90  	adrp	x2, 0x2d000 <_ZN11ChiMetadata21InitializeMetadataOpsEP14ChiMetadataOps+0x55c>
   213dc: 81 02 00 54  	b.ne	0x2142c <_ZN11ChiMetadata21InitializeMetadataOpsEP14ChiMetadataOps+0x58c>
   213e0: 53 ff ff d0  	adrp	x19, 0xb000 <_ZN11ChiMetadata21InitializeMetadataOpsEP14ChiMetadataOps+0x4e8>
   213fc: 61 ff ff 90  	adrp	x1, 0xd000 <_ZN11ChiMetadata21InitializeMetadataOpsEP14ChiMetadataOps+0x50c>
   21400: 42 ff ff 90  	adrp	x2, 0x9000 <_ZN11ChiMetadata21InitializeMetadataOpsEP14ChiMetadataOps+0x500>
   21404: 65 ff ff b0  	adrp	x5, 0xe000 <_ZN11ChiMetadata21InitializeMetadataOpsEP14ChiMetadataOps+0x518>
   21408: 66 ff ff 90  	adrp	x6, 0xd000 <_ZN11ChiMetadata21InitializeMetadataOpsEP14ChiMetadataOps+0x518>
   2142c: 53 ff ff d0  	adrp	x19, 0xb000 <_ZN11ChiMetadata21InitializeMetadataOpsEP14ChiMetadataOps+0x534>
   21448: 41 ff ff 90  	adrp	x1, 0x9000 <_ZN11ChiMetadata21InitializeMetadataOpsEP14ChiMetadataOps+0x548>
   21450: 40 ff ff f0  	adrp	x0, 0xc000 <_ZN11ChiMetadata21InitializeMetadataOpsEP14ChiMetadataOps+0x55c>
   21454: 63 ff ff b0  	adrp	x3, 0xe000 <_ZN11ChiMetadata21InitializeMetadataOpsEP14ChiMetadataOps+0x568>
   21458: 45 ff ff 90  	adrp	x5, 0x9000 <_ZN11ChiMetadata21InitializeMetadataOpsEP14ChiMetadataOps+0x558>
   2145c: 66 ff ff 90  	adrp	x6, 0xd000 <_ZN11ChiMetadata21InitializeMetadataOpsEP14ChiMetadataOps+0x56c>
   21478: 2e 06 00 14  	b	0x22d30 <_ZN11ChiMetadata21InitializeMetadataOpsEP14ChiMetadataOps+0x1e90>
   2147c: 63 00 00 90  	adrp	x3, 0x2d000 <_ZN11ChiMetadata21InitializeMetadataOpsEP14ChiMetadataOps+0x60c>
   21488: 6e c5 30 36  	tbz	w14, #6, 0x22d34 <_ZN11ChiMetadata21InitializeMetadataOpsEP14ChiMetadataOps+0x1e94>
   2148c: 64 00 00 90  	adrp	x4, 0x2d000 <_ZN11ChiMetadata21InitializeMetadataOpsEP14ChiMetadataOps+0x61c>
   2149c: 81 02 00 54  	b.ne	0x214ec <_ZN11ChiMetadata21InitializeMetadataOpsEP14ChiMetadataOps+0x64c>
   214a0: 53 ff ff d0  	adrp	x19, 0xb000 <_ZN11ChiMetadata21InitializeMetadataOpsEP14ChiMetadataOps+0x5a8>
   214bc: 61 ff ff 90  	adrp	x1, 0xd000 <_ZN11ChiMetadata21InitializeMetadataOpsEP14ChiMetadataOps+0x5cc>
   214c0: 42 ff ff 90  	adrp	x2, 0x9000 <_ZN11ChiMetadata21InitializeMetadataOpsEP14ChiMetadataOps+0x5c0>
   214c4: 65 ff ff b0  	adrp	x5, 0xe000 <_ZN11ChiMetadata21InitializeMetadataOpsEP14ChiMetadataOps+0x5d8>
   214c8: 46 ff ff f0  	adrp	x6, 0xc000 <_ZN11ChiMetadata21InitializeMetadataOpsEP14ChiMetadataOps+0x5d4>
   214ec: 53 ff ff d0  	adrp	x19, 0xb000 <_ZN11ChiMetadata21InitializeMetadataOpsEP14ChiMetadataOps+0x5f4>
   21508: 41 ff ff 90  	adrp	x1, 0x9000 <_ZN11ChiMetadata21InitializeMetadataOpsEP14ChiMetadataOps+0x608>
   21510: 40 ff ff f0  	adrp	x0, 0xc000 <_ZN11ChiMetadata21InitializeMetadataOpsEP14ChiMetadataOps+0x61c>
   21514: 63 ff ff b0  	adrp	x3, 0xe000 <_ZN11ChiMetadata21InitializeMetadataOpsEP14ChiMetadataOps+0x628>
   21518: 45 ff ff 90  	adrp	x5, 0x9000 <_ZN11ChiMetadata21InitializeMetadataOpsEP14ChiMetadataOps+0x618>
   2151c: 46 ff ff f0  	adrp	x6, 0xc000 <_ZN11ChiMetadata21InitializeMetadataOpsEP14ChiMetadataOps+0x628>
   21538: fe 05 00 14  	b	0x22d30 <_ZN11ChiMetadata21InitializeMetadataOpsEP14ChiMetadataOps+0x1e90>
   2153c: 65 00 00 90  	adrp	x5, 0x2d000 <_ZN11ChiMetadata21InitializeMetadataOpsEP14ChiMetadataOps+0x6cc>
   21548: 6f bf 30 36  	tbz	w15, #6, 0x22d34 <_ZN11ChiMetadata21InitializeMetadataOpsEP14ChiMetadataOps+0x1e94>
   2154c: 66 00 00 90  	adrp	x6, 0x2d000 <_ZN11ChiMetadata21InitializeMetadataOpsEP14ChiMetadataOps+0x6dc>
   2155c: 81 02 00 54  	b.ne	0x215ac <_ZN11ChiMetadata21InitializeMetadataOpsEP14ChiMetadataOps+0x70c>
   21560: 53 ff ff d0  	adrp	x19, 0xb000 <_ZN11ChiMetadata21InitializeMetadataOpsEP14ChiMetadataOps+0x668>
   2157c: 61 ff ff 90  	adrp	x1, 0xd000 <_ZN11ChiMetadata21InitializeMetadataOpsEP14ChiMetadataOps+0x68c>
   21580: 42 ff ff 90  	adrp	x2, 0x9000 <_ZN11ChiMetadata21InitializeMetadataOpsEP14ChiMetadataOps+0x680>
   21584: 65 ff ff b0  	adrp	x5, 0xe000 <_ZN11ChiMetadata21InitializeMetadataOpsEP14ChiMetadataOps+0x698>
   21588: 46 ff ff 90  	adrp	x6, 0x9000 <_ZN11ChiMetadata21InitializeMetadataOpsEP14ChiMetadataOps+0x688>
   215ac: 53 ff ff d0  	adrp	x19, 0xb000 <_ZN11ChiMetadata21InitializeMetadataOpsEP14ChiMetadataOps+0x6b4>
   215c8: 41 ff ff 90  	adrp	x1, 0x9000 <_ZN11ChiMetadata21InitializeMetadataOpsEP14ChiMetadataOps+0x6c8>
   215d0: 40 ff ff f0  	adrp	x0, 0xc000 <_ZN11ChiMetadata21InitializeMetadataOpsEP14ChiMetadataOps+0x6dc>
   215d4: 63 ff ff b0  	adrp	x3, 0xe000 <_ZN11ChiMetadata21InitializeMetadataOpsEP14ChiMetadataOps+0x6e8>
   215d8: 45 ff ff 90  	adrp	x5, 0x9000 <_ZN11ChiMetadata21InitializeMetadataOpsEP14ChiMetadataOps+0x6d8>
   215dc: 46 ff ff 90  	adrp	x6, 0x9000 <_ZN11ChiMetadata21InitializeMetadataOpsEP14ChiMetadataOps+0x6dc>
   215f8: ce 05 00 14  	b	0x22d30 <_ZN11ChiMetadata21InitializeMetadataOpsEP14ChiMetadataOps+0x1e90>
   215fc: 67 00 00 90  	adrp	x7, 0x2d000 <_ZN11ChiMetadata21InitializeMetadataOpsEP14ChiMetadataOps+0x78c>
   21608: 70 b9 30 36  	tbz	w16, #6, 0x22d34 <_ZN11ChiMetadata21InitializeMetadataOpsEP14ChiMetadataOps+0x1e94>
   2160c: 73 00 00 90  	adrp	x19, 0x2d000 <_ZN11ChiMetadata21InitializeMetadataOpsEP14ChiMetadataOps+0x79c>
   2161c: 81 02 00 54  	b.ne	0x2166c <_ZN11ChiMetadata21InitializeMetadataOpsEP14ChiMetadataOps+0x7cc>
   21620: 53 ff ff d0  	adrp	x19, 0xb000 <_ZN11ChiMetadata21InitializeMetadataOpsEP14ChiMetadataOps+0x728>
   2163c: 61 ff ff 90  	adrp	x1, 0xd000 <_ZN11ChiMetadata21InitializeMetadataOpsEP14ChiMetadataOps+0x74c>
   21640: 42 ff ff 90  	adrp	x2, 0x9000 <_ZN11ChiMetadata21InitializeMetadataOpsEP14ChiMetadataOps+0x740>
   21644: 65 ff ff b0  	adrp	x5, 0xe000 <_ZN11ChiMetadata21InitializeMetadataOpsEP14ChiMetadataOps+0x758>
   21648: 46 ff ff f0  	adrp	x6, 0xc000 <_ZN11ChiMetadata21InitializeMetadataOpsEP14ChiMetadataOps+0x754>
   2166c: 53 ff ff d0  	adrp	x19, 0xb000 <_ZN11ChiMetadata21InitializeMetadataOpsEP14ChiMetadataOps+0x774>
   21688: 41 ff ff 90  	adrp	x1, 0x9000 <_ZN11ChiMetadata21InitializeMetadataOpsEP14ChiMetadataOps+0x788>
   21690: 40 ff ff f0  	adrp	x0, 0xc000 <_ZN11ChiMetadata21InitializeMetadataOpsEP14ChiMetadataOps+0x79c>
   21694: 63 ff ff b0  	adrp	x3, 0xe000 <_ZN11ChiMetadata21InitializeMetadataOpsEP14ChiMetadataOps+0x7a8>
   21698: 45 ff ff 90  	adrp	x5, 0x9000 <_ZN11ChiMetadata21InitializeMetadataOpsEP14ChiMetadataOps+0x798>
   2169c: 46 ff ff f0  	adrp	x6, 0xc000 <_ZN11ChiMetadata21InitializeMetadataOpsEP14ChiMetadataOps+0x7a8>
   216b8: 9e 05 00 14  	b	0x22d30 <_ZN11ChiMetadata21InitializeMetadataOpsEP14ChiMetadataOps+0x1e90>
   216bc: 60 00 00 90  	adrp	x0, 0x2d000 <_ZN11ChiMetadata21InitializeMetadataOpsEP14ChiMetadataOps+0x84c>
   216c8: 71 b3 30 36  	tbz	w17, #6, 0x22d34 <_ZN11ChiMetadata21InitializeMetadataOpsEP14ChiMetadataOps+0x1e94>
   216cc: 68 00 00 90  	adrp	x8, 0x2d000 <_ZN11ChiMetadata21InitializeMetadataOpsEP14ChiMetadataOps+0x85c>
   216dc: 81 02 00 54  	b.ne	0x2172c <_ZN11ChiMetadata21InitializeMetadataOpsEP14ChiMetadataOps+0x88c>
   216e0: 53 ff ff d0  	adrp	x19, 0xb000 <_ZN11ChiMetadata21InitializeMetadataOpsEP14ChiMetadataOps+0x7e8>
   216fc: 61 ff ff 90  	adrp	x1, 0xd000 <_ZN11ChiMetadata21InitializeMetadataOpsEP14ChiMetadataOps+0x80c>
   21700: 42 ff ff 90  	adrp	x2, 0x9000 <_ZN11ChiMetadata21InitializeMetadataOpsEP14ChiMetadataOps+0x800>
   21704: 65 ff ff b0  	adrp	x5, 0xe000 <_ZN11ChiMetadata21InitializeMetadataOpsEP14ChiMetadataOps+0x818>
   21708: 46 ff ff d0  	adrp	x6, 0xb000 <_ZN11ChiMetadata21InitializeMetadataOpsEP14ChiMetadataOps+0x810>
   2172c: 53 ff ff d0  	adrp	x19, 0xb000 <_ZN11ChiMetadata21InitializeMetadataOpsEP14ChiMetadataOps+0x834>
   21748: 41 ff ff 90  	adrp	x1, 0x9000 <_ZN11ChiMetadata21InitializeMetadataOpsEP14ChiMetadataOps+0x848>
   21750: 40 ff ff f0  	adrp	x0, 0xc000 <_ZN11ChiMetadata21InitializeMetadataOpsEP14ChiMetadataOps+0x85c>
   21754: 63 ff ff b0  	adrp	x3, 0xe000 <_ZN11ChiMetadata21InitializeMetadataOpsEP14ChiMetadataOps+0x868>
   21758: 45 ff ff 90  	adrp	x5, 0x9000 <_ZN11ChiMetadata21InitializeMetadataOpsEP14ChiMetadataOps+0x858>
   2175c: 46 ff ff d0  	adrp	x6, 0xb000 <_ZN11ChiMetadata21InitializeMetadataOpsEP14ChiMetadataOps+0x864>
   21778: 6e 05 00 14  	b	0x22d30 <_ZN11ChiMetadata21InitializeMetadataOpsEP14ChiMetadataOps+0x1e90>
   2177c: 69 00 00 90  	adrp	x9, 0x2d000 <_ZN11ChiMetadata21InitializeMetadataOpsEP14ChiMetadataOps+0x90c>
   21788: 62 ad 30 36  	tbz	w2, #6, 0x22d34 <_ZN11ChiMetadata21InitializeMetadataOpsEP14ChiMetadataOps+0x1e94>
   2178c: 6a 00 00 90  	adrp	x10, 0x2d000 <_ZN11ChiMetadata21InitializeMetadataOpsEP14ChiMetadataOps+0x91c>
   2179c: 81 02 00 54  	b.ne	0x217ec <_ZN11ChiMetadata21InitializeMetadataOpsEP14ChiMetadataOps+0x94c>
   217a0: 53 ff ff d0  	adrp	x19, 0xb000 <_ZN11ChiMetadata21InitializeMetadataOpsEP14ChiMetadataOps+0x8a8>
   217bc: 61 ff ff 90  	adrp	x1, 0xd000 <_ZN11ChiMetadata21InitializeMetadataOpsEP14ChiMetadataOps+0x8cc>
   217c0: 42 ff ff 90  	adrp	x2, 0x9000 <_ZN11ChiMetadata21InitializeMetadataOpsEP14ChiMetadataOps+0x8c0>
   217c4: 65 ff ff b0  	adrp	x5, 0xe000 <_ZN11ChiMetadata21InitializeMetadataOpsEP14ChiMetadataOps+0x8d8>
   217c8: 66 ff ff b0  	adrp	x6, 0xe000 <_ZN11ChiMetadata21InitializeMetadataOpsEP14ChiMetadataOps+0x8dc>
   217ec: 53 ff ff d0  	adrp	x19, 0xb000 <_ZN11ChiMetadata21InitializeMetadataOpsEP14ChiMetadataOps+0x8f4>
   21808: 41 ff ff 90  	adrp	x1, 0x9000 <_ZN11ChiMetadata21InitializeMetadataOpsEP14ChiMetadataOps+0x908>
   21810: 40 ff ff f0  	adrp	x0, 0xc000 <_ZN11ChiMetadata21InitializeMetadataOpsEP14ChiMetadataOps+0x91c>
   21814: 63 ff ff b0  	adrp	x3, 0xe000 <_ZN11ChiMetadata21InitializeMetadataOpsEP14ChiMetadataOps+0x928>
   21818: 45 ff ff 90  	adrp	x5, 0x9000 <_ZN11ChiMetadata21InitializeMetadataOpsEP14ChiMetadataOps+0x918>
   2181c: 66 ff ff b0  	adrp	x6, 0xe000 <_ZN11ChiMetadata21InitializeMetadataOpsEP14ChiMetadataOps+0x930>
   21838: 3e 05 00 14  	b	0x22d30 <_ZN11ChiMetadata21InitializeMetadataOpsEP14ChiMetadataOps+0x1e90>
   2183c: 6b 00 00 90  	adrp	x11, 0x2d000 <_ZN11ChiMetadata21InitializeMetadataOpsEP14ChiMetadataOps+0x9cc>
   21848: 63 a7 30 36  	tbz	w3, #6, 0x22d34 <_ZN11ChiMetadata21InitializeMetadataOpsEP14ChiMetadataOps+0x1e94>
   2184c: 6c 00 00 90  	adrp	x12, 0x2d000 <_ZN11ChiMetadata21InitializeMetadataOpsEP14ChiMetadataOps+0x9dc>
   2185c: 81 02 00 54  	b.ne	0x218ac <_ZN11ChiMetadata21InitializeMetadataOpsEP14ChiMetadataOps+0xa0c>
   21860: 53 ff ff d0  	adrp	x19, 0xb000 <_ZN11ChiMetadata21InitializeMetadataOpsEP14ChiMetadataOps+0x968>
   2187c: 61 ff ff 90  	adrp	x1, 0xd000 <_ZN11ChiMetadata21InitializeMetadataOpsEP14ChiMetadataOps+0x98c>
   21880: 42 ff ff 90  	adrp	x2, 0x9000 <_ZN11ChiMetadata21InitializeMetadataOpsEP14ChiMetadataOps+0x980>
   21884: 65 ff ff b0  	adrp	x5, 0xe000 <_ZN11ChiMetadata21InitializeMetadataOpsEP14ChiMetadataOps+0x998>
   21888: 46 ff ff f0  	adrp	x6, 0xc000 <_ZN11ChiMetadata21InitializeMetadataOpsEP14ChiMetadataOps+0x994>
   218ac: 53 ff ff d0  	adrp	x19, 0xb000 <_ZN11ChiMetadata21InitializeMetadataOpsEP14ChiMetadataOps+0x9b4>
   218c8: 41 ff ff 90  	adrp	x1, 0x9000 <_ZN11ChiMetadata21InitializeMetadataOpsEP14ChiMetadataOps+0x9c8>
   218d0: 40 ff ff f0  	adrp	x0, 0xc000 <_ZN11ChiMetadata21InitializeMetadataOpsEP14ChiMetadataOps+0x9dc>
   218d4: 63 ff ff b0  	adrp	x3, 0xe000 <_ZN11ChiMetadata21InitializeMetadataOpsEP14ChiMetadataOps+0x9e8>
   218d8: 45 ff ff 90  	adrp	x5, 0x9000 <_ZN11ChiMetadata21InitializeMetadataOpsEP14ChiMetadataOps+0x9d8>
   218dc: 46 ff ff f0  	adrp	x6, 0xc000 <_ZN11ChiMetadata21InitializeMetadataOpsEP14ChiMetadataOps+0x9e8>
   218f8: 0e 05 00 14  	b	0x22d30 <_ZN11ChiMetadata21InitializeMetadataOpsEP14ChiMetadataOps+0x1e90>
   218fc: 6d 00 00 90  	adrp	x13, 0x2d000 <_ZN11ChiMetadata21InitializeMetadataOpsEP14ChiMetadataOps+0xa8c>
   21908: 65 a1 30 36  	tbz	w5, #6, 0x22d34 <_ZN11ChiMetadata21InitializeMetadataOpsEP14ChiMetadataOps+0x1e94>
   2190c: 6e 00 00 90  	adrp	x14, 0x2d000 <_ZN11ChiMetadata21InitializeMetadataOpsEP14ChiMetadataOps+0xa9c>
   2191c: 81 02 00 54  	b.ne	0x2196c <_ZN11ChiMetadata21InitializeMetadataOpsEP14ChiMetadataOps+0xacc>
   21920: 53 ff ff d0  	adrp	x19, 0xb000 <_ZN11ChiMetadata21InitializeMetadataOpsEP14ChiMetadataOps+0xa28>
   2193c: 61 ff ff 90  	adrp	x1, 0xd000 <_ZN11ChiMetadata21InitializeMetadataOpsEP14ChiMetadataOps+0xa4c>
   21940: 42 ff ff 90  	adrp	x2, 0x9000 <_ZN11ChiMetadata21InitializeMetadataOpsEP14ChiMetadataOps+0xa40>
   21944: 65 ff ff b0  	adrp	x5, 0xe000 <_ZN11ChiMetadata21InitializeMetadataOpsEP14ChiMetadataOps+0xa58>
   21948: 46 ff ff b0  	adrp	x6, 0xa000 <_ZN11ChiMetadata21InitializeMetadataOpsEP14ChiMetadataOps+0xa4c>
   2196c: 53 ff ff d0  	adrp	x19, 0xb000 <_ZN11ChiMetadata21InitializeMetadataOpsEP14ChiMetadataOps+0xa74>
   21988: 41 ff ff 90  	adrp	x1, 0x9000 <_ZN11ChiMetadata21InitializeMetadataOpsEP14ChiMetadataOps+0xa88>
   21990: 40 ff ff f0  	adrp	x0, 0xc000 <_ZN11ChiMetadata21InitializeMetadataOpsEP14ChiMetadataOps+0xa9c>
   21994: 63 ff ff b0  	adrp	x3, 0xe000 <_ZN11ChiMetadata21InitializeMetadataOpsEP14ChiMetadataOps+0xaa8>
   21998: 45 ff ff 90  	adrp	x5, 0x9000 <_ZN11ChiMetadata21InitializeMetadataOpsEP14ChiMetadataOps+0xa98>
   2199c: 46 ff ff b0  	adrp	x6, 0xa000 <_ZN11ChiMetadata21InitializeMetadataOpsEP14ChiMetadataOps+0xaa0>
   219b8: de 04 00 14  	b	0x22d30 <_ZN11ChiMetadata21InitializeMetadataOpsEP14ChiMetadataOps+0x1e90>
   219bc: 6f 00 00 90  	adrp	x15, 0x2d000 <_ZN11ChiMetadata21InitializeMetadataOpsEP14ChiMetadataOps+0xb4c>
   219c8: 66 9b 30 36  	tbz	w6, #6, 0x22d34 <_ZN11ChiMetadata21InitializeMetadataOpsEP14ChiMetadataOps+0x1e94>
   219cc: 70 00 00 90  	adrp	x16, 0x2d000 <_ZN11ChiMetadata21InitializeMetadataOpsEP14ChiMetadataOps+0xb5c>
   219dc: 81 02 00 54  	b.ne	0x21a2c <_ZN11ChiMetadata21InitializeMetadataOpsEP14ChiMetadataOps+0xb8c>
   219e0: 53 ff ff d0  	adrp	x19, 0xb000 <_ZN11ChiMetadata21InitializeMetadataOpsEP14ChiMetadataOps+0xae8>
   219fc: 61 ff ff 90  	adrp	x1, 0xd000 <_ZN11ChiMetadata21InitializeMetadataOpsEP14ChiMetadataOps+0xb0c>
   21a00: 42 ff ff 90  	adrp	x2, 0x9000 <_ZN11ChiMetadata21InitializeMetadataOpsEP14ChiMetadataOps+0xb00>
   21a04: 65 ff ff b0  	adrp	x5, 0xe000 <_ZN11ChiMetadata21InitializeMetadataOpsEP14ChiMetadataOps+0xb18>
   21a08: 46 ff ff d0  	adrp	x6, 0xb000 <_ZN11ChiMetadata21InitializeMetadataOpsEP14ChiMetadataOps+0xb10>
   21a2c: 53 ff ff d0  	adrp	x19, 0xb000 <_ZN11ChiMetadata21InitializeMetadataOpsEP14ChiMetadataOps+0xb34>
   21a48: 41 ff ff 90  	adrp	x1, 0x9000 <_ZN11ChiMetadata21InitializeMetadataOpsEP14ChiMetadataOps+0xb48>
   21a50: 40 ff ff f0  	adrp	x0, 0xc000 <_ZN11ChiMetadata21InitializeMetadataOpsEP14ChiMetadataOps+0xb5c>
   21a54: 63 ff ff b0  	adrp	x3, 0xe000 <_ZN11ChiMetadata21InitializeMetadataOpsEP14ChiMetadataOps+0xb68>
   21a58: 45 ff ff 90  	adrp	x5, 0x9000 <_ZN11ChiMetadata21InitializeMetadataOpsEP14ChiMetadataOps+0xb58>
   21a5c: 46 ff ff d0  	adrp	x6, 0xb000 <_ZN11ChiMetadata21InitializeMetadataOpsEP14ChiMetadataOps+0xb64>
   21a78: ae 04 00 14  	b	0x22d30 <_ZN11ChiMetadata21InitializeMetadataOpsEP14ChiMetadataOps+0x1e90>
   21a7c: 71 00 00 90  	adrp	x17, 0x2d000 <_ZN11ChiMetadata21InitializeMetadataOpsEP14ChiMetadataOps+0xc0c>
   21a88: 67 95 30 36  	tbz	w7, #6, 0x22d34 <_ZN11ChiMetadata21InitializeMetadataOpsEP14ChiMetadataOps+0x1e94>
   21a8c: 61 00 00 90  	adrp	x1, 0x2d000 <_ZN11ChiMetadata21InitializeMetadataOpsEP14ChiMetadataOps+0xc1c>
   21a9c: 81 02 00 54  	b.ne	0x21aec <_ZN11ChiMetadata21InitializeMetadataOpsEP14ChiMetadataOps+0xc4c>
   21aa0: 53 ff ff d0  	adrp	x19, 0xb000 <_ZN11ChiMetadata21InitializeMetadataOpsEP14ChiMetadataOps+0xba8>
   21abc: 61 ff ff 90  	adrp	x1, 0xd000 <_ZN11ChiMetadata21InitializeMetadataOpsEP14ChiMetadataOps+0xbcc>
   21ac0: 42 ff ff 90  	adrp	x2, 0x9000 <_ZN11ChiMetadata21InitializeMetadataOpsEP14ChiMetadataOps+0xbc0>
   21ac4: 65 ff ff b0  	adrp	x5, 0xe000 <_ZN11ChiMetadata21InitializeMetadataOpsEP14ChiMetadataOps+0xbd8>
   21ac8: 66 ff ff b0  	adrp	x6, 0xe000 <_ZN11ChiMetadata21InitializeMetadataOpsEP14ChiMetadataOps+0xbdc>
   21aec: 53 ff ff d0  	adrp	x19, 0xb000 <_ZN11ChiMetadata21InitializeMetadataOpsEP14ChiMetadataOps+0xbf4>
   21b08: 41 ff ff 90  	adrp	x1, 0x9000 <_ZN11ChiMetadata21InitializeMetadataOpsEP14ChiMetadataOps+0xc08>
   21b10: 40 ff ff f0  	adrp	x0, 0xc000 <_ZN11ChiMetadata21InitializeMetadataOpsEP14ChiMetadataOps+0xc1c>
   21b14: 63 ff ff b0  	adrp	x3, 0xe000 <_ZN11ChiMetadata21InitializeMetadataOpsEP14ChiMetadataOps+0xc28>
   21b18: 45 ff ff 90  	adrp	x5, 0x9000 <_ZN11ChiMetadata21InitializeMetadataOpsEP14ChiMetadataOps+0xc18>
   21b1c: 66 ff ff b0  	adrp	x6, 0xe000 <_ZN11ChiMetadata21InitializeMetadataOpsEP14ChiMetadataOps+0xc30>
   21b38: 7e 04 00 14  	b	0x22d30 <_ZN11ChiMetadata21InitializeMetadataOpsEP14ChiMetadataOps+0x1e90>
   21b3c: 62 00 00 90  	adrp	x2, 0x2d000 <_ZN11ChiMetadata21InitializeMetadataOpsEP14ChiMetadataOps+0xccc>
   21b48: 60 8f 30 36  	tbz	w0, #6, 0x22d34 <_ZN11ChiMetadata21InitializeMetadataOpsEP14ChiMetadataOps+0x1e94>
   21b4c: 63 00 00 90  	adrp	x3, 0x2d000 <_ZN11ChiMetadata21InitializeMetadataOpsEP14ChiMetadataOps+0xcdc>
   21b5c: 81 02 00 54  	b.ne	0x21bac <_ZN11ChiMetadata21InitializeMetadataOpsEP14ChiMetadataOps+0xd0c>
   21b60: 53 ff ff d0  	adrp	x19, 0xb000 <_ZN11ChiMetadata21InitializeMetadataOpsEP14ChiMetadataOps+0xc68>
   21b7c: 61 ff ff 90  	adrp	x1, 0xd000 <_ZN11ChiMetadata21InitializeMetadataOpsEP14ChiMetadataOps+0xc8c>
   21b80: 42 ff ff 90  	adrp	x2, 0x9000 <_ZN11ChiMetadata21InitializeMetadataOpsEP14ChiMetadataOps+0xc80>
   21b84: 65 ff ff b0  	adrp	x5, 0xe000 <_ZN11ChiMetadata21InitializeMetadataOpsEP14ChiMetadataOps+0xc98>
   21b88: 66 ff ff 90  	adrp	x6, 0xd000 <_ZN11ChiMetadata21InitializeMetadataOpsEP14ChiMetadataOps+0xc98>
   21bac: 53 ff ff d0  	adrp	x19, 0xb000 <_ZN11ChiMetadata21InitializeMetadataOpsEP14ChiMetadataOps+0xcb4>
   21bc8: 41 ff ff 90  	adrp	x1, 0x9000 <_ZN11ChiMetadata21InitializeMetadataOpsEP14ChiMetadataOps+0xcc8>
   21bd0: 40 ff ff f0  	adrp	x0, 0xc000 <_ZN11ChiMetadata21InitializeMetadataOpsEP14ChiMetadataOps+0xcdc>
   21bd4: 63 ff ff b0  	adrp	x3, 0xe000 <_ZN11ChiMetadata21InitializeMetadataOpsEP14ChiMetadataOps+0xce8>
   21bd8: 45 ff ff 90  	adrp	x5, 0x9000 <_ZN11ChiMetadata21InitializeMetadataOpsEP14ChiMetadataOps+0xcd8>
   21bdc: 66 ff ff 90  	adrp	x6, 0xd000 <_ZN11ChiMetadata21InitializeMetadataOpsEP14ChiMetadataOps+0xcec>
   21bf8: 4e 04 00 14  	b	0x22d30 <_ZN11ChiMetadata21InitializeMetadataOpsEP14ChiMetadataOps+0x1e90>
   21bfc: 64 00 00 90  	adrp	x4, 0x2d000 <_ZN11ChiMetadata21InitializeMetadataOpsEP14ChiMetadataOps+0xd8c>
   21c08: 61 89 30 36  	tbz	w1, #6, 0x22d34 <_ZN11ChiMetadata21InitializeMetadataOpsEP14ChiMetadataOps+0x1e94>
   21c0c: 65 00 00 90  	adrp	x5, 0x2d000 <_ZN11ChiMetadata21InitializeMetadataOpsEP14ChiMetadataOps+0xd9c>
   21c1c: 81 02 00 54  	b.ne	0x21c6c <_ZN11ChiMetadata21InitializeMetadataOpsEP14ChiMetadataOps+0xdcc>
   21c20: 53 ff ff d0  	adrp	x19, 0xb000 <_ZN11ChiMetadata21InitializeMetadataOpsEP14ChiMetadataOps+0xd28>
   21c3c: 61 ff ff 90  	adrp	x1, 0xd000 <_ZN11ChiMetadata21InitializeMetadataOpsEP14ChiMetadataOps+0xd4c>
   21c40: 42 ff ff 90  	adrp	x2, 0x9000 <_ZN11ChiMetadata21InitializeMetadataOpsEP14ChiMetadataOps+0xd40>
   21c44: 65 ff ff b0  	adrp	x5, 0xe000 <_ZN11ChiMetadata21InitializeMetadataOpsEP14ChiMetadataOps+0xd58>
   21c48: 46 ff ff 90  	adrp	x6, 0x9000 <_ZN11ChiMetadata21InitializeMetadataOpsEP14ChiMetadataOps+0xd48>
   21c6c: 53 ff ff d0  	adrp	x19, 0xb000 <_ZN11ChiMetadata21InitializeMetadataOpsEP14ChiMetadataOps+0xd74>
   21c88: 41 ff ff 90  	adrp	x1, 0x9000 <_ZN11ChiMetadata21InitializeMetadataOpsEP14ChiMetadataOps+0xd88>
   21c90: 40 ff ff f0  	adrp	x0, 0xc000 <_ZN11ChiMetadata21InitializeMetadataOpsEP14ChiMetadataOps+0xd9c>
   21c94: 63 ff ff b0  	adrp	x3, 0xe000 <_ZN11ChiMetadata21InitializeMetadataOpsEP14ChiMetadataOps+0xda8>
   21c98: 45 ff ff 90  	adrp	x5, 0x9000 <_ZN11ChiMetadata21InitializeMetadataOpsEP14ChiMetadataOps+0xd98>
   21c9c: 46 ff ff 90  	adrp	x6, 0x9000 <_ZN11ChiMetadata21InitializeMetadataOpsEP14ChiMetadataOps+0xd9c>
   21cb8: 1e 04 00 14  	b	0x22d30 <_ZN11ChiMetadata21InitializeMetadataOpsEP14ChiMetadataOps+0x1e90>
   21cbc: 66 00 00 90  	adrp	x6, 0x2d000 <_ZN11ChiMetadata21InitializeMetadataOpsEP14ChiMetadataOps+0xe4c>
   21cc8: 64 83 30 36  	tbz	w4, #6, 0x22d34 <_ZN11ChiMetadata21InitializeMetadataOpsEP14ChiMetadataOps+0x1e94>
   21ccc: 67 00 00 90  	adrp	x7, 0x2d000 <_ZN11ChiMetadata21InitializeMetadataOpsEP14ChiMetadataOps+0xe5c>
   21cdc: 81 02 00 54  	b.ne	0x21d2c <_ZN11ChiMetadata21InitializeMetadataOpsEP14ChiMetadataOps+0xe8c>
   21ce0: 53 ff ff d0  	adrp	x19, 0xb000 <_ZN11ChiMetadata21InitializeMetadataOpsEP14ChiMetadataOps+0xde8>
   21cfc: 61 ff ff 90  	adrp	x1, 0xd000 <_ZN11ChiMetadata21InitializeMetadataOpsEP14ChiMetadataOps+0xe0c>
   21d00: 42 ff ff 90  	adrp	x2, 0x9000 <_ZN11ChiMetadata21InitializeMetadataOpsEP14ChiMetadataOps+0xe00>
   21d04: 65 ff ff b0  	adrp	x5, 0xe000 <_ZN11ChiMetadata21InitializeMetadataOpsEP14ChiMetadataOps+0xe18>
   21d08: 66 ff ff b0  	adrp	x6, 0xe000 <_ZN11ChiMetadata21InitializeMetadataOpsEP14ChiMetadataOps+0xe1c>
   21d2c: 53 ff ff d0  	adrp	x19, 0xb000 <_ZN11ChiMetadata21InitializeMetadataOpsEP14ChiMetadataOps+0xe34>
   21d48: 41 ff ff 90  	adrp	x1, 0x9000 <_ZN11ChiMetadata21InitializeMetadataOpsEP14ChiMetadataOps+0xe48>
   21d50: 40 ff ff f0  	adrp	x0, 0xc000 <_ZN11ChiMetadata21InitializeMetadataOpsEP14ChiMetadataOps+0xe5c>
   21d54: 63 ff ff b0  	adrp	x3, 0xe000 <_ZN11ChiMetadata21InitializeMetadataOpsEP14ChiMetadataOps+0xe68>
   21d58: 45 ff ff 90  	adrp	x5, 0x9000 <_ZN11ChiMetadata21InitializeMetadataOpsEP14ChiMetadataOps+0xe58>
   21d5c: 66 ff ff b0  	adrp	x6, 0xe000 <_ZN11ChiMetadata21InitializeMetadataOpsEP14ChiMetadataOps+0xe70>
   21d78: ee 03 00 14  	b	0x22d30 <_ZN11ChiMetadata21InitializeMetadataOpsEP14ChiMetadataOps+0x1e90>
   21d7c: 73 00 00 90  	adrp	x19, 0x2d000 <_ZN11ChiMetadata21InitializeMetadataOpsEP14ChiMetadataOps+0xf0c>
   21d88: 68 7d 30 36  	tbz	w8, #6, 0x22d34 <_ZN11ChiMetadata21InitializeMetadataOpsEP14ChiMetadataOps+0x1e94>
   21d8c: 60 00 00 90  	adrp	x0, 0x2d000 <_ZN11ChiMetadata21InitializeMetadataOpsEP14ChiMetadataOps+0xf1c>
   21d9c: 81 02 00 54  	b.ne	0x21dec <_ZN11ChiMetadata21InitializeMetadataOpsEP14ChiMetadataOps+0xf4c>
   21da0: 53 ff ff d0  	adrp	x19, 0xb000 <_ZN11ChiMetadata21InitializeMetadataOpsEP14ChiMetadataOps+0xea8>
   21dbc: 61 ff ff 90  	adrp	x1, 0xd000 <_ZN11ChiMetadata21InitializeMetadataOpsEP14ChiMetadataOps+0xecc>
   21dc0: 42 ff ff 90  	adrp	x2, 0x9000 <_ZN11ChiMetadata21InitializeMetadataOpsEP14ChiMetadataOps+0xec0>
   21dc4: 65 ff ff b0  	adrp	x5, 0xe000 <_ZN11ChiMetadata21InitializeMetadataOpsEP14ChiMetadataOps+0xed8>
   21dc8: 46 ff ff d0  	adrp	x6, 0xb000 <_ZN11ChiMetadata21InitializeMetadataOpsEP14ChiMetadataOps+0xed0>
   21dec: 53 ff ff d0  	adrp	x19, 0xb000 <_ZN11ChiMetadata21InitializeMetadataOpsEP14ChiMetadataOps+0xef4>
   21e08: 41 ff ff 90  	adrp	x1, 0x9000 <_ZN11ChiMetadata21InitializeMetadataOpsEP14ChiMetadataOps+0xf08>
   21e10: 40 ff ff f0  	adrp	x0, 0xc000 <_ZN11ChiMetadata21InitializeMetadataOpsEP14ChiMetadataOps+0xf1c>
   21e14: 63 ff ff b0  	adrp	x3, 0xe000 <_ZN11ChiMetadata21InitializeMetadataOpsEP14ChiMetadataOps+0xf28>
   21e18: 45 ff ff 90  	adrp	x5, 0x9000 <_ZN11ChiMetadata21InitializeMetadataOpsEP14ChiMetadataOps+0xf18>
   21e1c: 46 ff ff d0  	adrp	x6, 0xb000 <_ZN11ChiMetadata21InitializeMetadataOpsEP14ChiMetadataOps+0xf24>
   21e38: be 03 00 14  	b	0x22d30 <_ZN11ChiMetadata21InitializeMetadataOpsEP14ChiMetadataOps+0x1e90>
   21e3c: 68 00 00 90  	adrp	x8, 0x2d000 <_ZN11ChiMetadata21InitializeMetadataOpsEP14ChiMetadataOps+0xfcc>
   21e48: 69 77 30 36  	tbz	w9, #6, 0x22d34 <_ZN11ChiMetadata21InitializeMetadataOpsEP14ChiMetadataOps+0x1e94>
   21e4c: 69 00 00 90  	adrp	x9, 0x2d000 <_ZN11ChiMetadata21InitializeMetadataOpsEP14ChiMetadataOps+0xfdc>
   21e5c: 81 02 00 54  	b.ne	0x21eac <_ZN11ChiMetadata21InitializeMetadataOpsEP14ChiMetadataOps+0x100c>
   21e60: 53 ff ff d0  	adrp	x19, 0xb000 <_ZN11ChiMetadata21InitializeMetadataOpsEP14ChiMetadataOps+0xf68>
   21e7c: 61 ff ff 90  	adrp	x1, 0xd000 <_ZN11ChiMetadata21InitializeMetadataOpsEP14ChiMetadataOps+0xf8c>
   21e80: 42 ff ff 90  	adrp	x2, 0x9000 <_ZN11ChiMetadata21InitializeMetadataOpsEP14ChiMetadataOps+0xf80>
   21e84: 65 ff ff b0  	adrp	x5, 0xe000 <_ZN11ChiMetadata21InitializeMetadataOpsEP14ChiMetadataOps+0xf98>
   21e88: 46 ff ff d0  	adrp	x6, 0xb000 <_ZN11ChiMetadata21InitializeMetadataOpsEP14ChiMetadataOps+0xf90>
   21eac: 53 ff ff d0  	adrp	x19, 0xb000 <_ZN11ChiMetadata21InitializeMetadataOpsEP14ChiMetadataOps+0xfb4>
   21ec8: 41 ff ff 90  	adrp	x1, 0x9000 <_ZN11ChiMetadata21InitializeMetadataOpsEP14ChiMetadataOps+0xfc8>
   21ed0: 40 ff ff f0  	adrp	x0, 0xc000 <_ZN11ChiMetadata21InitializeMetadataOpsEP14ChiMetadataOps+0xfdc>
   21ed4: 63 ff ff b0  	adrp	x3, 0xe000 <_ZN11ChiMetadata21InitializeMetadataOpsEP14ChiMetadataOps+0xfe8>
   21ed8: 45 ff ff 90  	adrp	x5, 0x9000 <_ZN11ChiMetadata21InitializeMetadataOpsEP14ChiMetadataOps+0xfd8>
   21edc: 46 ff ff d0  	adrp	x6, 0xb000 <_ZN11ChiMetadata21InitializeMetadataOpsEP14ChiMetadataOps+0xfe4>
   21ef8: 8e 03 00 14  	b	0x22d30 <_ZN11ChiMetadata21InitializeMetadataOpsEP14ChiMetadataOps+0x1e90>
   21efc: 6a 00 00 90  	adrp	x10, 0x2d000 <_ZN11ChiMetadata21InitializeMetadataOpsEP14ChiMetadataOps+0x108c>
   21f08: 6a 71 30 36  	tbz	w10, #6, 0x22d34 <_ZN11ChiMetadata21InitializeMetadataOpsEP14ChiMetadataOps+0x1e94>
   21f0c: 6b 00 00 90  	adrp	x11, 0x2d000 <_ZN11ChiMetadata21InitializeMetadataOpsEP14ChiMetadataOps+0x109c>
   21f1c: 81 02 00 54  	b.ne	0x21f6c <_ZN11ChiMetadata21InitializeMetadataOpsEP14ChiMetadataOps+0x10cc>
   21f20: 53 ff ff d0  	adrp	x19, 0xb000 <_ZN11ChiMetadata21InitializeMetadataOpsEP14ChiMetadataOps+0x1028>
   21f3c: 61 ff ff 90  	adrp	x1, 0xd000 <_ZN11ChiMetadata21InitializeMetadataOpsEP14ChiMetadataOps+0x104c>
   21f40: 42 ff ff 90  	adrp	x2, 0x9000 <_ZN11ChiMetadata21InitializeMetadataOpsEP14ChiMetadataOps+0x1040>
   21f44: 65 ff ff b0  	adrp	x5, 0xe000 <_ZN11ChiMetadata21InitializeMetadataOpsEP14ChiMetadataOps+0x1058>
   21f48: 66 ff ff b0  	adrp	x6, 0xe000 <_ZN11ChiMetadata21InitializeMetadataOpsEP14ChiMetadataOps+0x105c>
   21f6c: 53 ff ff d0  	adrp	x19, 0xb000 <_ZN11ChiMetadata21InitializeMetadataOpsEP14ChiMetadataOps+0x1074>
   21f88: 41 ff ff 90  	adrp	x1, 0x9000 <_ZN11ChiMetadata21InitializeMetadataOpsEP14ChiMetadataOps+0x1088>
   21f90: 40 ff ff f0  	adrp	x0, 0xc000 <_ZN11ChiMetadata21InitializeMetadataOpsEP14ChiMetadataOps+0x109c>
   21f94: 63 ff ff b0  	adrp	x3, 0xe000 <_ZN11ChiMetadata21InitializeMetadataOpsEP14ChiMetadataOps+0x10a8>
   21f98: 45 ff ff 90  	adrp	x5, 0x9000 <_ZN11ChiMetadata21InitializeMetadataOpsEP14ChiMetadataOps+0x1098>
   21f9c: 66 ff ff b0  	adrp	x6, 0xe000 <_ZN11ChiMetadata21InitializeMetadataOpsEP14ChiMetadataOps+0x10b0>
   21fb8: 5e 03 00 14  	b	0x22d30 <_ZN11ChiMetadata21InitializeMetadataOpsEP14ChiMetadataOps+0x1e90>
   21fbc: 6c 00 00 90  	adrp	x12, 0x2d000 <_ZN11ChiMetadata21InitializeMetadataOpsEP14ChiMetadataOps+0x114c>
   21fc8: 6b 6b 30 36  	tbz	w11, #6, 0x22d34 <_ZN11ChiMetadata21InitializeMetadataOpsEP14ChiMetadataOps+0x1e94>
   21fcc: 6d 00 00 90  	adrp	x13, 0x2d000 <_ZN11ChiMetadata21InitializeMetadataOpsEP14ChiMetadataOps+0x115c>
   21fdc: 81 02 00 54  	b.ne	0x2202c <_ZN11ChiMetadata21InitializeMetadataOpsEP14ChiMetadataOps+0x118c>
   21fe0: 53 ff ff d0  	adrp	x19, 0xb000 <_ZN11ChiMetadata21InitializeMetadataOpsEP14ChiMetadataOps+0x10e8>
   21ffc: 61 ff ff 90  	adrp	x1, 0xd000 <_ZN11ChiMetadata21InitializeMetadataOpsEP14ChiMetadataOps+0x110c>
   22000: 22 ff ff f0  	adrp	x2, 0x9000 <_ZN11ChiMetadata21InitializeMetadataOpsEP14ChiMetadataOps+0x10fc>
   22004: 65 ff ff 90  	adrp	x5, 0xe000 <_ZN11ChiMetadata21InitializeMetadataOpsEP14ChiMetadataOps+0x1114>
   22008: 66 ff ff 90  	adrp	x6, 0xe000 <_ZN11ChiMetadata21InitializeMetadataOpsEP14ChiMetadataOps+0x1118>
   2202c: 53 ff ff b0  	adrp	x19, 0xb000 <_ZN11ChiMetadata21InitializeMetadataOpsEP14ChiMetadataOps+0x1130>
   22048: 21 ff ff f0  	adrp	x1, 0x9000 <_ZN11ChiMetadata21InitializeMetadataOpsEP14ChiMetadataOps+0x1144>
   22050: 40 ff ff d0  	adrp	x0, 0xc000 <_ZN11ChiMetadata21InitializeMetadataOpsEP14ChiMetadataOps+0x1158>
   22054: 63 ff ff 90  	adrp	x3, 0xe000 <_ZN11ChiMetadata21InitializeMetadataOpsEP14ChiMetadataOps+0x1164>
   22058: 25 ff ff f0  	adrp	x5, 0x9000 <_ZN11ChiMetadata21InitializeMetadataOpsEP14ChiMetadataOps+0x1154>
   2205c: 66 ff ff 90  	adrp	x6, 0xe000 <_ZN11ChiMetadata21InitializeMetadataOpsEP14ChiMetadataOps+0x116c>
   22078: 2e 03 00 14  	b	0x22d30 <_ZN11ChiMetadata21InitializeMetadataOpsEP14ChiMetadataOps+0x1e90>
   2207c: 4e 00 00 f0  	adrp	x14, 0x2d000 <_ZN11ChiMetadata21InitializeMetadataOpsEP14ChiMetadataOps+0x1208>
   22088: 6c 65 30 36  	tbz	w12, #6, 0x22d34 <_ZN11ChiMetadata21InitializeMetadataOpsEP14ChiMetadataOps+0x1e94>
   2208c: 4f 00 00 f0  	adrp	x15, 0x2d000 <_ZN11ChiMetadata21InitializeMetadataOpsEP14ChiMetadataOps+0x1218>
   2209c: 81 02 00 54  	b.ne	0x220ec <_ZN11ChiMetadata21InitializeMetadataOpsEP14ChiMetadataOps+0x124c>
   220a0: 53 ff ff b0  	adrp	x19, 0xb000 <_ZN11ChiMetadata21InitializeMetadataOpsEP14ChiMetadataOps+0x11a4>
   220bc: 41 ff ff f0  	adrp	x1, 0xd000 <_ZN11ChiMetadata21InitializeMetadataOpsEP14ChiMetadataOps+0x11c8>
   220c0: 22 ff ff f0  	adrp	x2, 0x9000 <_ZN11ChiMetadata21InitializeMetadataOpsEP14ChiMetadataOps+0x11bc>
   220c4: 65 ff ff 90  	adrp	x5, 0xe000 <_ZN11ChiMetadata21InitializeMetadataOpsEP14ChiMetadataOps+0x11d4>
   220c8: 46 ff ff d0  	adrp	x6, 0xc000 <_ZN11ChiMetadata21InitializeMetadataOpsEP14ChiMetadataOps+0x11d0>
   220ec: 53 ff ff b0  	adrp	x19, 0xb000 <_ZN11ChiMetadata21InitializeMetadataOpsEP14ChiMetadataOps+0x11f0>
   22108: 21 ff ff f0  	adrp	x1, 0x9000 <_ZN11ChiMetadata21InitializeMetadataOpsEP14ChiMetadataOps+0x1204>
   22110: 40 ff ff d0  	adrp	x0, 0xc000 <_ZN11ChiMetadata21InitializeMetadataOpsEP14ChiMetadataOps+0x1218>
   22114: 63 ff ff 90  	adrp	x3, 0xe000 <_ZN11ChiMetadata21InitializeMetadataOpsEP14ChiMetadataOps+0x1224>
   22118: 25 ff ff f0  	adrp	x5, 0x9000 <_ZN11ChiMetadata21InitializeMetadataOpsEP14ChiMetadataOps+0x1214>
   2211c: 46 ff ff d0  	adrp	x6, 0xc000 <_ZN11ChiMetadata21InitializeMetadataOpsEP14ChiMetadataOps+0x1224>
   22138: fe 02 00 14  	b	0x22d30 <_ZN11ChiMetadata21InitializeMetadataOpsEP14ChiMetadataOps+0x1e90>
   2213c: 50 00 00 f0  	adrp	x16, 0x2d000 <_ZN11ChiMetadata21InitializeMetadataOpsEP14ChiMetadataOps+0x12c8>
   22148: 6d 5f 30 36  	tbz	w13, #6, 0x22d34 <_ZN11ChiMetadata21InitializeMetadataOpsEP14ChiMetadataOps+0x1e94>
   2214c: 51 00 00 f0  	adrp	x17, 0x2d000 <_ZN11ChiMetadata21InitializeMetadataOpsEP14ChiMetadataOps+0x12d8>
   2215c: 81 02 00 54  	b.ne	0x221ac <_ZN11ChiMetadata21InitializeMetadataOpsEP14ChiMetadataOps+0x130c>
   22160: 53 ff ff b0  	adrp	x19, 0xb000 <_ZN11ChiMetadata21InitializeMetadataOpsEP14ChiMetadataOps+0x1264>
   2217c: 41 ff ff f0  	adrp	x1, 0xd000 <_ZN11ChiMetadata21InitializeMetadataOpsEP14ChiMetadataOps+0x1288>
   22180: 22 ff ff f0  	adrp	x2, 0x9000 <_ZN11ChiMetadata21InitializeMetadataOpsEP14ChiMetadataOps+0x127c>
   22184: 65 ff ff 90  	adrp	x5, 0xe000 <_ZN11ChiMetadata21InitializeMetadataOpsEP14ChiMetadataOps+0x1294>
   22188: 46 ff ff 90  	adrp	x6, 0xa000 <_ZN11ChiMetadata21InitializeMetadataOpsEP14ChiMetadataOps+0x1288>
   221ac: 53 ff ff b0  	adrp	x19, 0xb000 <_ZN11ChiMetadata21InitializeMetadataOpsEP14ChiMetadataOps+0x12b0>
   221c8: 21 ff ff f0  	adrp	x1, 0x9000 <_ZN11ChiMetadata21InitializeMetadataOpsEP14ChiMetadataOps+0x12c4>
   221d0: 40 ff ff d0  	adrp	x0, 0xc000 <_ZN11ChiMetadata21InitializeMetadataOpsEP14ChiMetadataOps+0x12d8>
   221d4: 63 ff ff 90  	adrp	x3, 0xe000 <_ZN11ChiMetadata21InitializeMetadataOpsEP14ChiMetadataOps+0x12e4>
   221d8: 25 ff ff f0  	adrp	x5, 0x9000 <_ZN11ChiMetadata21InitializeMetadataOpsEP14ChiMetadataOps+0x12d4>
   221dc: 46 ff ff 90  	adrp	x6, 0xa000 <_ZN11ChiMetadata21InitializeMetadataOpsEP14ChiMetadataOps+0x12dc>
   221f8: ce 02 00 14  	b	0x22d30 <_ZN11ChiMetadata21InitializeMetadataOpsEP14ChiMetadataOps+0x1e90>
   221fc: 41 00 00 f0  	adrp	x1, 0x2d000 <_ZN11ChiMetadata21InitializeMetadataOpsEP14ChiMetadataOps+0x1388>
   22208: 6e 59 30 36  	tbz	w14, #6, 0x22d34 <_ZN11ChiMetadata21InitializeMetadataOpsEP14ChiMetadataOps+0x1e94>
   2220c: 42 00 00 f0  	adrp	x2, 0x2d000 <_ZN11ChiMetadata21InitializeMetadataOpsEP14ChiMetadataOps+0x1398>
   2221c: 81 02 00 54  	b.ne	0x2226c <_ZN11ChiMetadata21InitializeMetadataOpsEP14ChiMetadataOps+0x13cc>
   22220: 53 ff ff b0  	adrp	x19, 0xb000 <_ZN11ChiMetadata21InitializeMetadataOpsEP14ChiMetadataOps+0x1324>
   2223c: 41 ff ff f0  	adrp	x1, 0xd000 <_ZN11ChiMetadata21InitializeMetadataOpsEP14ChiMetadataOps+0x1348>
   22240: 22 ff ff f0  	adrp	x2, 0x9000 <_ZN11ChiMetadata21InitializeMetadataOpsEP14ChiMetadataOps+0x133c>
   22244: 65 ff ff 90  	adrp	x5, 0xe000 <_ZN11ChiMetadata21InitializeMetadataOpsEP14ChiMetadataOps+0x1354>
   22248: 26 ff ff f0  	adrp	x6, 0x9000 <_ZN11ChiMetadata21InitializeMetadataOpsEP14ChiMetadataOps+0x1344>
   2226c: 53 ff ff b0  	adrp	x19, 0xb000 <_ZN11ChiMetadata21InitializeMetadataOpsEP14ChiMetadataOps+0x1370>
   22288: 21 ff ff f0  	adrp	x1, 0x9000 <_ZN11ChiMetadata21InitializeMetadataOpsEP14ChiMetadataOps+0x1384>
   22290: 40 ff ff d0  	adrp	x0, 0xc000 <_ZN11ChiMetadata21InitializeMetadataOpsEP14ChiMetadataOps+0x1398>
   22294: 63 ff ff 90  	adrp	x3, 0xe000 <_ZN11ChiMetadata21InitializeMetadataOpsEP14ChiMetadataOps+0x13a4>
   22298: 25 ff ff f0  	adrp	x5, 0x9000 <_ZN11ChiMetadata21InitializeMetadataOpsEP14ChiMetadataOps+0x1394>
   2229c: 26 ff ff f0  	adrp	x6, 0x9000 <_ZN11ChiMetadata21InitializeMetadataOpsEP14ChiMetadataOps+0x1398>
   222b8: 9e 02 00 14  	b	0x22d30 <_ZN11ChiMetadata21InitializeMetadataOpsEP14ChiMetadataOps+0x1e90>
   222bc: 43 00 00 f0  	adrp	x3, 0x2d000 <_ZN11ChiMetadata21InitializeMetadataOpsEP14ChiMetadataOps+0x1448>
   222c8: 6f 53 30 36  	tbz	w15, #6, 0x22d34 <_ZN11ChiMetadata21InitializeMetadataOpsEP14ChiMetadataOps+0x1e94>
   222cc: 44 00 00 f0  	adrp	x4, 0x2d000 <_ZN11ChiMetadata21InitializeMetadataOpsEP14ChiMetadataOps+0x1458>
   222dc: 81 02 00 54  	b.ne	0x2232c <_ZN11ChiMetadata21InitializeMetadataOpsEP14ChiMetadataOps+0x148c>
   222e0: 53 ff ff b0  	adrp	x19, 0xb000 <_ZN11ChiMetadata21InitializeMetadataOpsEP14ChiMetadataOps+0x13e4>
   222fc: 41 ff ff f0  	adrp	x1, 0xd000 <_ZN11ChiMetadata21InitializeMetadataOpsEP14ChiMetadataOps+0x1408>
   22300: 22 ff ff f0  	adrp	x2, 0x9000 <_ZN11ChiMetadata21InitializeMetadataOpsEP14ChiMetadataOps+0x13fc>
   22304: 65 ff ff 90  	adrp	x5, 0xe000 <_ZN11ChiMetadata21InitializeMetadataOpsEP14ChiMetadataOps+0x1414>
   22308: 46 ff ff b0  	adrp	x6, 0xb000 <_ZN11ChiMetadata21InitializeMetadataOpsEP14ChiMetadataOps+0x140c>
   2232c: 53 ff ff b0  	adrp	x19, 0xb000 <_ZN11ChiMetadata21InitializeMetadataOpsEP14ChiMetadataOps+0x1430>
   22348: 21 ff ff f0  	adrp	x1, 0x9000 <_ZN11ChiMetadata21InitializeMetadataOpsEP14ChiMetadataOps+0x1444>
   22350: 40 ff ff d0  	adrp	x0, 0xc000 <_ZN11ChiMetadata21InitializeMetadataOpsEP14ChiMetadataOps+0x1458>
   22354: 63 ff ff 90  	adrp	x3, 0xe000 <_ZN11ChiMetadata21InitializeMetadataOpsEP14ChiMetadataOps+0x1464>
   22358: 25 ff ff f0  	adrp	x5, 0x9000 <_ZN11ChiMetadata21InitializeMetadataOpsEP14ChiMetadataOps+0x1454>
   2235c: 46 ff ff b0  	adrp	x6, 0xb000 <_ZN11ChiMetadata21InitializeMetadataOpsEP14ChiMetadataOps+0x1460>
   22378: 6e 02 00 14  	b	0x22d30 <_ZN11ChiMetadata21InitializeMetadataOpsEP14ChiMetadataOps+0x1e90>
   2237c: 45 00 00 f0  	adrp	x5, 0x2d000 <_ZN11ChiMetadata21InitializeMetadataOpsEP14ChiMetadataOps+0x1508>
   22388: 70 4d 30 36  	tbz	w16, #6, 0x22d34 <_ZN11ChiMetadata21InitializeMetadataOpsEP14ChiMetadataOps+0x1e94>
   2238c: 46 00 00 f0  	adrp	x6, 0x2d000 <_ZN11ChiMetadata21InitializeMetadataOpsEP14ChiMetadataOps+0x1518>
   2239c: 81 02 00 54  	b.ne	0x223ec <_ZN11ChiMetadata21InitializeMetadataOpsEP14ChiMetadataOps+0x154c>
   223a0: 53 ff ff b0  	adrp	x19, 0xb000 <_ZN11ChiMetadata21InitializeMetadataOpsEP14ChiMetadataOps+0x14a4>
   223bc: 41 ff ff f0  	adrp	x1, 0xd000 <_ZN11ChiMetadata21InitializeMetadataOpsEP14ChiMetadataOps+0x14c8>
   223c0: 22 ff ff f0  	adrp	x2, 0x9000 <_ZN11ChiMetadata21InitializeMetadataOpsEP14ChiMetadataOps+0x14bc>
   223c4: 65 ff ff 90  	adrp	x5, 0xe000 <_ZN11ChiMetadata21InitializeMetadataOpsEP14ChiMetadataOps+0x14d4>
   223c8: 26 ff ff f0  	adrp	x6, 0x9000 <_ZN11ChiMetadata21InitializeMetadataOpsEP14ChiMetadataOps+0x14c4>
   223ec: 53 ff ff b0  	adrp	x19, 0xb000 <_ZN11ChiMetadata21InitializeMetadataOpsEP14ChiMetadataOps+0x14f0>
   22408: 21 ff ff f0  	adrp	x1, 0x9000 <_ZN11ChiMetadata21InitializeMetadataOpsEP14ChiMetadataOps+0x1504>
   22410: 40 ff ff d0  	adrp	x0, 0xc000 <_ZN11ChiMetadata21InitializeMetadataOpsEP14ChiMetadataOps+0x1518>
   22414: 63 ff ff 90  	adrp	x3, 0xe000 <_ZN11ChiMetadata21InitializeMetadataOpsEP14ChiMetadataOps+0x1524>
   22418: 25 ff ff f0  	adrp	x5, 0x9000 <_ZN11ChiMetadata21InitializeMetadataOpsEP14ChiMetadataOps+0x1514>
   2241c: 26 ff ff f0  	adrp	x6, 0x9000 <_ZN11ChiMetadata21InitializeMetadataOpsEP14ChiMetadataOps+0x1518>
   22438: 3e 02 00 14  	b	0x22d30 <_ZN11ChiMetadata21InitializeMetadataOpsEP14ChiMetadataOps+0x1e90>
   2243c: 47 00 00 f0  	adrp	x7, 0x2d000 <_ZN11ChiMetadata21InitializeMetadataOpsEP14ChiMetadataOps+0x15c8>
   22448: 71 47 30 36  	tbz	w17, #6, 0x22d34 <_ZN11ChiMetadata21InitializeMetadataOpsEP14ChiMetadataOps+0x1e94>
   2244c: 53 00 00 f0  	adrp	x19, 0x2d000 <_ZN11ChiMetadata21InitializeMetadataOpsEP14ChiMetadataOps+0x15d8>
   2245c: 81 02 00 54  	b.ne	0x224ac <_ZN11ChiMetadata21InitializeMetadataOpsEP14ChiMetadataOps+0x160c>
   22460: 53 ff ff b0  	adrp	x19, 0xb000 <_ZN11ChiMetadata21InitializeMetadataOpsEP14ChiMetadataOps+0x1564>
   2247c: 41 ff ff f0  	adrp	x1, 0xd000 <_ZN11ChiMetadata21InitializeMetadataOpsEP14ChiMetadataOps+0x1588>
   22480: 22 ff ff f0  	adrp	x2, 0x9000 <_ZN11ChiMetadata21InitializeMetadataOpsEP14ChiMetadataOps+0x157c>
   22484: 65 ff ff 90  	adrp	x5, 0xe000 <_ZN11ChiMetadata21InitializeMetadataOpsEP14ChiMetadataOps+0x1594>
   22488: 26 ff ff f0  	adrp	x6, 0x9000 <_ZN11ChiMetadata21InitializeMetadataOpsEP14ChiMetadataOps+0x1584>
   224ac: 53 ff ff b0  	adrp	x19, 0xb000 <_ZN11ChiMetadata21InitializeMetadataOpsEP14ChiMetadataOps+0x15b0>
   224c8: 21 ff ff f0  	adrp	x1, 0x9000 <_ZN11ChiMetadata21InitializeMetadataOpsEP14ChiMetadataOps+0x15c4>
   224d0: 40 ff ff d0  	adrp	x0, 0xc000 <_ZN11ChiMetadata21InitializeMetadataOpsEP14ChiMetadataOps+0x15d8>
   224d4: 63 ff ff 90  	adrp	x3, 0xe000 <_ZN11ChiMetadata21InitializeMetadataOpsEP14ChiMetadataOps+0x15e4>
   224d8: 25 ff ff f0  	adrp	x5, 0x9000 <_ZN11ChiMetadata21InitializeMetadataOpsEP14ChiMetadataOps+0x15d4>
   224dc: 26 ff ff f0  	adrp	x6, 0x9000 <_ZN11ChiMetadata21InitializeMetadataOpsEP14ChiMetadataOps+0x15d8>
   224f8: 0e 02 00 14  	b	0x22d30 <_ZN11ChiMetadata21InitializeMetadataOpsEP14ChiMetadataOps+0x1e90>
   224fc: 40 00 00 f0  	adrp	x0, 0x2d000 <_ZN11ChiMetadata21InitializeMetadataOpsEP14ChiMetadataOps+0x1688>
   22508: 62 41 30 36  	tbz	w2, #6, 0x22d34 <_ZN11ChiMetadata21InitializeMetadataOpsEP14ChiMetadataOps+0x1e94>
   2250c: 48 00 00 f0  	adrp	x8, 0x2d000 <_ZN11ChiMetadata21InitializeMetadataOpsEP14ChiMetadataOps+0x1698>
   2251c: 81 02 00 54  	b.ne	0x2256c <_ZN11ChiMetadata21InitializeMetadataOpsEP14ChiMetadataOps+0x16cc>
   22520: 53 ff ff b0  	adrp	x19, 0xb000 <_ZN11ChiMetadata21InitializeMetadataOpsEP14ChiMetadataOps+0x1624>
   2253c: 41 ff ff f0  	adrp	x1, 0xd000 <_ZN11ChiMetadata21InitializeMetadataOpsEP14ChiMetadataOps+0x1648>
   22540: 22 ff ff f0  	adrp	x2, 0x9000 <_ZN11ChiMetadata21InitializeMetadataOpsEP14ChiMetadataOps+0x163c>
   22544: 65 ff ff 90  	adrp	x5, 0xe000 <_ZN11ChiMetadata21InitializeMetadataOpsEP14ChiMetadataOps+0x1654>
   22548: 26 ff ff f0  	adrp	x6, 0x9000 <_ZN11ChiMetadata21InitializeMetadataOpsEP14ChiMetadataOps+0x1644>
   2256c: 53 ff ff b0  	adrp	x19, 0xb000 <_ZN11ChiMetadata21InitializeMetadataOpsEP14ChiMetadataOps+0x1670>
   22588: 21 ff ff f0  	adrp	x1, 0x9000 <_ZN11ChiMetadata21InitializeMetadataOpsEP14ChiMetadataOps+0x1684>
   22590: 40 ff ff d0  	adrp	x0, 0xc000 <_ZN11ChiMetadata21InitializeMetadataOpsEP14ChiMetadataOps+0x1698>
   22594: 63 ff ff 90  	adrp	x3, 0xe000 <_ZN11ChiMetadata21InitializeMetadataOpsEP14ChiMetadataOps+0x16a4>
   22598: 25 ff ff f0  	adrp	x5, 0x9000 <_ZN11ChiMetadata21InitializeMetadataOpsEP14ChiMetadataOps+0x1694>
   2259c: 26 ff ff f0  	adrp	x6, 0x9000 <_ZN11ChiMetadata21InitializeMetadataOpsEP14ChiMetadataOps+0x1698>
   225b8: de 01 00 14  	b	0x22d30 <_ZN11ChiMetadata21InitializeMetadataOpsEP14ChiMetadataOps+0x1e90>
   225bc: 49 00 00 f0  	adrp	x9, 0x2d000 <_ZN11ChiMetadata21InitializeMetadataOpsEP14ChiMetadataOps+0x1748>
   225c8: 63 3b 30 36  	tbz	w3, #6, 0x22d34 <_ZN11ChiMetadata21InitializeMetadataOpsEP14ChiMetadataOps+0x1e94>
   225cc: 4a 00 00 f0  	adrp	x10, 0x2d000 <_ZN11ChiMetadata21InitializeMetadataOpsEP14ChiMetadataOps+0x1758>
   225dc: 81 02 00 54  	b.ne	0x2262c <_ZN11ChiMetadata21InitializeMetadataOpsEP14ChiMetadataOps+0x178c>
   225e0: 53 ff ff b0  	adrp	x19, 0xb000 <_ZN11ChiMetadata21InitializeMetadataOpsEP14ChiMetadataOps+0x16e4>
   225fc: 41 ff ff f0  	adrp	x1, 0xd000 <_ZN11ChiMetadata21InitializeMetadataOpsEP14ChiMetadataOps+0x1708>
   22600: 22 ff ff f0  	adrp	x2, 0x9000 <_ZN11ChiMetadata21InitializeMetadataOpsEP14ChiMetadataOps+0x16fc>
   22604: 65 ff ff 90  	adrp	x5, 0xe000 <_ZN11ChiMetadata21InitializeMetadataOpsEP14ChiMetadataOps+0x1714>
   22608: 26 ff ff f0  	adrp	x6, 0x9000 <_ZN11ChiMetadata21InitializeMetadataOpsEP14ChiMetadataOps+0x1704>
   2262c: 53 ff ff b0  	adrp	x19, 0xb000 <_ZN11ChiMetadata21InitializeMetadataOpsEP14ChiMetadataOps+0x1730>
   22648: 21 ff ff f0  	adrp	x1, 0x9000 <_ZN11ChiMetadata21InitializeMetadataOpsEP14ChiMetadataOps+0x1744>
   22650: 40 ff ff d0  	adrp	x0, 0xc000 <_ZN11ChiMetadata21InitializeMetadataOpsEP14ChiMetadataOps+0x1758>
   22654: 63 ff ff 90  	adrp	x3, 0xe000 <_ZN11ChiMetadata21InitializeMetadataOpsEP14ChiMetadataOps+0x1764>
   22658: 25 ff ff f0  	adrp	x5, 0x9000 <_ZN11ChiMetadata21InitializeMetadataOpsEP14ChiMetadataOps+0x1754>
   2265c: 26 ff ff f0  	adrp	x6, 0x9000 <_ZN11ChiMetadata21InitializeMetadataOpsEP14ChiMetadataOps+0x1758>
   22678: ae 01 00 14  	b	0x22d30 <_ZN11ChiMetadata21InitializeMetadataOpsEP14ChiMetadataOps+0x1e90>
   2267c: 4b 00 00 f0  	adrp	x11, 0x2d000 <_ZN11ChiMetadata21InitializeMetadataOpsEP14ChiMetadataOps+0x1808>
   22688: 65 35 30 36  	tbz	w5, #6, 0x22d34 <_ZN11ChiMetadata21InitializeMetadataOpsEP14ChiMetadataOps+0x1e94>
   2268c: 4c 00 00 f0  	adrp	x12, 0x2d000 <_ZN11ChiMetadata21InitializeMetadataOpsEP14ChiMetadataOps+0x1818>
   2269c: 81 02 00 54  	b.ne	0x226ec <_ZN11ChiMetadata21InitializeMetadataOpsEP14ChiMetadataOps+0x184c>
   226a0: 53 ff ff b0  	adrp	x19, 0xb000 <_ZN11ChiMetadata21InitializeMetadataOpsEP14ChiMetadataOps+0x17a4>
   226bc: 41 ff ff f0  	adrp	x1, 0xd000 <_ZN11ChiMetadata21InitializeMetadataOpsEP14ChiMetadataOps+0x17c8>
   226c0: 22 ff ff f0  	adrp	x2, 0x9000 <_ZN11ChiMetadata21InitializeMetadataOpsEP14ChiMetadataOps+0x17bc>
   226c4: 65 ff ff 90  	adrp	x5, 0xe000 <_ZN11ChiMetadata21InitializeMetadataOpsEP14ChiMetadataOps+0x17d4>
   226c8: 46 ff ff f0  	adrp	x6, 0xd000 <_ZN11ChiMetadata21InitializeMetadataOpsEP14ChiMetadataOps+0x17d4>
   226ec: 53 ff ff b0  	adrp	x19, 0xb000 <_ZN11ChiMetadata21InitializeMetadataOpsEP14ChiMetadataOps+0x17f0>
   22708: 21 ff ff f0  	adrp	x1, 0x9000 <_ZN11ChiMetadata21InitializeMetadataOpsEP14ChiMetadataOps+0x1804>
   22710: 40 ff ff d0  	adrp	x0, 0xc000 <_ZN11ChiMetadata21InitializeMetadataOpsEP14ChiMetadataOps+0x1818>
   22714: 63 ff ff 90  	adrp	x3, 0xe000 <_ZN11ChiMetadata21InitializeMetadataOpsEP14ChiMetadataOps+0x1824>
   22718: 25 ff ff f0  	adrp	x5, 0x9000 <_ZN11ChiMetadata21InitializeMetadataOpsEP14ChiMetadataOps+0x1814>
   2271c: 46 ff ff f0  	adrp	x6, 0xd000 <_ZN11ChiMetadata21InitializeMetadataOpsEP14ChiMetadataOps+0x1828>
   22738: 7e 01 00 14  	b	0x22d30 <_ZN11ChiMetadata21InitializeMetadataOpsEP14ChiMetadataOps+0x1e90>
   2273c: 4d 00 00 f0  	adrp	x13, 0x2d000 <_ZN11ChiMetadata21InitializeMetadataOpsEP14ChiMetadataOps+0x18c8>
   22748: 66 2f 30 36  	tbz	w6, #6, 0x22d34 <_ZN11ChiMetadata21InitializeMetadataOpsEP14ChiMetadataOps+0x1e94>
   2274c: 4e 00 00 f0  	adrp	x14, 0x2d000 <_ZN11ChiMetadata21InitializeMetadataOpsEP14ChiMetadataOps+0x18d8>
   2275c: 81 02 00 54  	b.ne	0x227ac <_ZN11ChiMetadata21InitializeMetadataOpsEP14ChiMetadataOps+0x190c>
   22760: 53 ff ff b0  	adrp	x19, 0xb000 <_ZN11ChiMetadata21InitializeMetadataOpsEP14ChiMetadataOps+0x1864>
   2277c: 41 ff ff f0  	adrp	x1, 0xd000 <_ZN11ChiMetadata21InitializeMetadataOpsEP14ChiMetadataOps+0x1888>
   22780: 22 ff ff f0  	adrp	x2, 0x9000 <_ZN11ChiMetadata21InitializeMetadataOpsEP14ChiMetadataOps+0x187c>
   22784: 65 ff ff 90  	adrp	x5, 0xe000 <_ZN11ChiMetadata21InitializeMetadataOpsEP14ChiMetadataOps+0x1894>
   22788: 46 ff ff 90  	adrp	x6, 0xa000 <_ZN11ChiMetadata21InitializeMetadataOpsEP14ChiMetadataOps+0x1888>
   227ac: 53 ff ff b0  	adrp	x19, 0xb000 <_ZN11ChiMetadata21InitializeMetadataOpsEP14ChiMetadataOps+0x18b0>
   227c8: 21 ff ff f0  	adrp	x1, 0x9000 <_ZN11ChiMetadata21InitializeMetadataOpsEP14ChiMetadataOps+0x18c4>
   227d0: 40 ff ff d0  	adrp	x0, 0xc000 <_ZN11ChiMetadata21InitializeMetadataOpsEP14ChiMetadataOps+0x18d8>
   227d4: 63 ff ff 90  	adrp	x3, 0xe000 <_ZN11ChiMetadata21InitializeMetadataOpsEP14ChiMetadataOps+0x18e4>
   227d8: 25 ff ff f0  	adrp	x5, 0x9000 <_ZN11ChiMetadata21InitializeMetadataOpsEP14ChiMetadataOps+0x18d4>
   227dc: 46 ff ff 90  	adrp	x6, 0xa000 <_ZN11ChiMetadata21InitializeMetadataOpsEP14ChiMetadataOps+0x18dc>
   227f8: 4e 01 00 14  	b	0x22d30 <_ZN11ChiMetadata21InitializeMetadataOpsEP14ChiMetadataOps+0x1e90>
   227fc: 4f 00 00 f0  	adrp	x15, 0x2d000 <_ZN11ChiMetadata21InitializeMetadataOpsEP14ChiMetadataOps+0x1988>
   22808: 67 29 30 36  	tbz	w7, #6, 0x22d34 <_ZN11ChiMetadata21InitializeMetadataOpsEP14ChiMetadataOps+0x1e94>
   2280c: 50 00 00 f0  	adrp	x16, 0x2d000 <_ZN11ChiMetadata21InitializeMetadataOpsEP14ChiMetadataOps+0x1998>
   2281c: 81 02 00 54  	b.ne	0x2286c <_ZN11ChiMetadata21InitializeMetadataOpsEP14ChiMetadataOps+0x19cc>
   22820: 53 ff ff b0  	adrp	x19, 0xb000 <_ZN11ChiMetadata21InitializeMetadataOpsEP14ChiMetadataOps+0x1924>
   2283c: 41 ff ff f0  	adrp	x1, 0xd000 <_ZN11ChiMetadata21InitializeMetadataOpsEP14ChiMetadataOps+0x1948>
   22840: 22 ff ff f0  	adrp	x2, 0x9000 <_ZN11ChiMetadata21InitializeMetadataOpsEP14ChiMetadataOps+0x193c>
   22844: 65 ff ff 90  	adrp	x5, 0xe000 <_ZN11ChiMetadata21InitializeMetadataOpsEP14ChiMetadataOps+0x1954>
   22848: 26 ff ff f0  	adrp	x6, 0x9000 <_ZN11ChiMetadata21InitializeMetadataOpsEP14ChiMetadataOps+0x1944>
   2286c: 53 ff ff b0  	adrp	x19, 0xb000 <_ZN11ChiMetadata21InitializeMetadataOpsEP14ChiMetadataOps+0x1970>
   22888: 21 ff ff f0  	adrp	x1, 0x9000 <_ZN11ChiMetadata21InitializeMetadataOpsEP14ChiMetadataOps+0x1984>
   22890: 40 ff ff d0  	adrp	x0, 0xc000 <_ZN11ChiMetadata21InitializeMetadataOpsEP14ChiMetadataOps+0x1998>
   22894: 63 ff ff 90  	adrp	x3, 0xe000 <_ZN11ChiMetadata21InitializeMetadataOpsEP14ChiMetadataOps+0x19a4>
   22898: 25 ff ff f0  	adrp	x5, 0x9000 <_ZN11ChiMetadata21InitializeMetadataOpsEP14ChiMetadataOps+0x1994>
   2289c: 26 ff ff f0  	adrp	x6, 0x9000 <_ZN11ChiMetadata21InitializeMetadataOpsEP14ChiMetadataOps+0x1998>
   228b8: 1e 01 00 14  	b	0x22d30 <_ZN11ChiMetadata21InitializeMetadataOpsEP14ChiMetadataOps+0x1e90>
   228bc: 51 00 00 f0  	adrp	x17, 0x2d000 <_ZN11ChiMetadata21InitializeMetadataOpsEP14ChiMetadataOps+0x1a48>
   228c8: 60 23 30 36  	tbz	w0, #6, 0x22d34 <_ZN11ChiMetadata21InitializeMetadataOpsEP14ChiMetadataOps+0x1e94>
   228cc: 41 00 00 f0  	adrp	x1, 0x2d000 <_ZN11ChiMetadata21InitializeMetadataOpsEP14ChiMetadataOps+0x1a58>
   228dc: 81 02 00 54  	b.ne	0x2292c <_ZN11ChiMetadata21InitializeMetadataOpsEP14ChiMetadataOps+0x1a8c>
   228e0: 53 ff ff b0  	adrp	x19, 0xb000 <_ZN11ChiMetadata21InitializeMetadataOpsEP14ChiMetadataOps+0x19e4>
   228fc: 41 ff ff f0  	adrp	x1, 0xd000 <_ZN11ChiMetadata21InitializeMetadataOpsEP14ChiMetadataOps+0x1a08>
   22900: 22 ff ff f0  	adrp	x2, 0x9000 <_ZN11ChiMetadata21InitializeMetadataOpsEP14ChiMetadataOps+0x19fc>
   22904: 65 ff ff 90  	adrp	x5, 0xe000 <_ZN11ChiMetadata21InitializeMetadataOpsEP14ChiMetadataOps+0x1a14>
   22908: 46 ff ff 90  	adrp	x6, 0xa000 <_ZN11ChiMetadata21InitializeMetadataOpsEP14ChiMetadataOps+0x1a08>
   2292c: 53 ff ff b0  	adrp	x19, 0xb000 <_ZN11ChiMetadata21InitializeMetadataOpsEP14ChiMetadataOps+0x1a30>
   22948: 21 ff ff f0  	adrp	x1, 0x9000 <_ZN11ChiMetadata21InitializeMetadataOpsEP14ChiMetadataOps+0x1a44>
   22950: 40 ff ff d0  	adrp	x0, 0xc000 <_ZN11ChiMetadata21InitializeMetadataOpsEP14ChiMetadataOps+0x1a58>
   22954: 63 ff ff 90  	adrp	x3, 0xe000 <_ZN11ChiMetadata21InitializeMetadataOpsEP14ChiMetadataOps+0x1a64>
   22958: 25 ff ff f0  	adrp	x5, 0x9000 <_ZN11ChiMetadata21InitializeMetadataOpsEP14ChiMetadataOps+0x1a54>
   2295c: 46 ff ff 90  	adrp	x6, 0xa000 <_ZN11ChiMetadata21InitializeMetadataOpsEP14ChiMetadataOps+0x1a5c>
   22978: ee 00 00 14  	b	0x22d30 <_ZN11ChiMetadata21InitializeMetadataOpsEP14ChiMetadataOps+0x1e90>
   2297c: 42 00 00 f0  	adrp	x2, 0x2d000 <_ZN11ChiMetadata21InitializeMetadataOpsEP14ChiMetadataOps+0x1b08>
   22988: 61 1d 30 36  	tbz	w1, #6, 0x22d34 <_ZN11ChiMetadata21InitializeMetadataOpsEP14ChiMetadataOps+0x1e94>
   2298c: 43 00 00 f0  	adrp	x3, 0x2d000 <_ZN11ChiMetadata21InitializeMetadataOpsEP14ChiMetadataOps+0x1b18>
   2299c: 81 02 00 54  	b.ne	0x229ec <_ZN11ChiMetadata21InitializeMetadataOpsEP14ChiMetadataOps+0x1b4c>
   229a0: 53 ff ff b0  	adrp	x19, 0xb000 <_ZN11ChiMetadata21InitializeMetadataOpsEP14ChiMetadataOps+0x1aa4>
   229bc: 41 ff ff f0  	adrp	x1, 0xd000 <_ZN11ChiMetadata21InitializeMetadataOpsEP14ChiMetadataOps+0x1ac8>
   229c0: 22 ff ff f0  	adrp	x2, 0x9000 <_ZN11ChiMetadata21InitializeMetadataOpsEP14ChiMetadataOps+0x1abc>
   229c4: 65 ff ff 90  	adrp	x5, 0xe000 <_ZN11ChiMetadata21InitializeMetadataOpsEP14ChiMetadataOps+0x1ad4>
   229c8: 46 ff ff d0  	adrp	x6, 0xc000 <_ZN11ChiMetadata21InitializeMetadataOpsEP14ChiMetadataOps+0x1ad0>
   229ec: 53 ff ff b0  	adrp	x19, 0xb000 <_ZN11ChiMetadata21InitializeMetadataOpsEP14ChiMetadataOps+0x1af0>
   22a08: 21 ff ff f0  	adrp	x1, 0x9000 <_ZN11ChiMetadata21InitializeMetadataOpsEP14ChiMetadataOps+0x1b04>
   22a10: 40 ff ff d0  	adrp	x0, 0xc000 <_ZN11ChiMetadata21InitializeMetadataOpsEP14ChiMetadataOps+0x1b18>
   22a14: 63 ff ff 90  	adrp	x3, 0xe000 <_ZN11ChiMetadata21InitializeMetadataOpsEP14ChiMetadataOps+0x1b24>
   22a18: 25 ff ff f0  	adrp	x5, 0x9000 <_ZN11ChiMetadata21InitializeMetadataOpsEP14ChiMetadataOps+0x1b14>
   22a1c: 46 ff ff d0  	adrp	x6, 0xc000 <_ZN11ChiMetadata21InitializeMetadataOpsEP14ChiMetadataOps+0x1b24>
   22a38: be 00 00 14  	b	0x22d30 <_ZN11ChiMetadata21InitializeMetadataOpsEP14ChiMetadataOps+0x1e90>
   22a3c: 44 00 00 f0  	adrp	x4, 0x2d000 <_ZN11ChiMetadata21InitializeMetadataOpsEP14ChiMetadataOps+0x1bc8>
   22a48: 64 17 30 36  	tbz	w4, #6, 0x22d34 <_ZN11ChiMetadata21InitializeMetadataOpsEP14ChiMetadataOps+0x1e94>
   22a4c: 45 00 00 f0  	adrp	x5, 0x2d000 <_ZN11ChiMetadata21InitializeMetadataOpsEP14ChiMetadataOps+0x1bd8>
   22a5c: 81 02 00 54  	b.ne	0x22aac <_ZN11ChiMetadata21InitializeMetadataOpsEP14ChiMetadataOps+0x1c0c>
   22a60: 53 ff ff b0  	adrp	x19, 0xb000 <_ZN11ChiMetadata21InitializeMetadataOpsEP14ChiMetadataOps+0x1b64>
   22a7c: 41 ff ff f0  	adrp	x1, 0xd000 <_ZN11ChiMetadata21InitializeMetadataOpsEP14ChiMetadataOps+0x1b88>
   22a80: 22 ff ff f0  	adrp	x2, 0x9000 <_ZN11ChiMetadata21InitializeMetadataOpsEP14ChiMetadataOps+0x1b7c>
   22a84: 65 ff ff 90  	adrp	x5, 0xe000 <_ZN11ChiMetadata21InitializeMetadataOpsEP14ChiMetadataOps+0x1b94>
   22a88: 46 ff ff f0  	adrp	x6, 0xd000 <_ZN11ChiMetadata21InitializeMetadataOpsEP14ChiMetadataOps+0x1b94>
   22aac: 53 ff ff b0  	adrp	x19, 0xb000 <_ZN11ChiMetadata21InitializeMetadataOpsEP14ChiMetadataOps+0x1bb0>
   22ac8: 21 ff ff f0  	adrp	x1, 0x9000 <_ZN11ChiMetadata21InitializeMetadataOpsEP14ChiMetadataOps+0x1bc4>
   22ad0: 40 ff ff d0  	adrp	x0, 0xc000 <_ZN11ChiMetadata21InitializeMetadataOpsEP14ChiMetadataOps+0x1bd8>
   22ad4: 63 ff ff 90  	adrp	x3, 0xe000 <_ZN11ChiMetadata21InitializeMetadataOpsEP14ChiMetadataOps+0x1be4>
   22ad8: 25 ff ff f0  	adrp	x5, 0x9000 <_ZN11ChiMetadata21InitializeMetadataOpsEP14ChiMetadataOps+0x1bd4>
   22adc: 46 ff ff f0  	adrp	x6, 0xd000 <_ZN11ChiMetadata21InitializeMetadataOpsEP14ChiMetadataOps+0x1be8>
   22af8: 8e 00 00 14  	b	0x22d30 <_ZN11ChiMetadata21InitializeMetadataOpsEP14ChiMetadataOps+0x1e90>
   22afc: 46 00 00 f0  	adrp	x6, 0x2d000 <_ZN11ChiMetadata21InitializeMetadataOpsEP14ChiMetadataOps+0x1c88>
   22b08: 68 11 30 36  	tbz	w8, #6, 0x22d34 <_ZN11ChiMetadata21InitializeMetadataOpsEP14ChiMetadataOps+0x1e94>
   22b0c: 47 00 00 f0  	adrp	x7, 0x2d000 <_ZN11ChiMetadata21InitializeMetadataOpsEP14ChiMetadataOps+0x1c98>
   22b1c: 81 02 00 54  	b.ne	0x22b6c <_ZN11ChiMetadata21InitializeMetadataOpsEP14ChiMetadataOps+0x1ccc>
   22b20: 53 ff ff b0  	adrp	x19, 0xb000 <_ZN11ChiMetadata21InitializeMetadataOpsEP14ChiMetadataOps+0x1c24>
   22b3c: 41 ff ff f0  	adrp	x1, 0xd000 <_ZN11ChiMetadata21InitializeMetadataOpsEP14ChiMetadataOps+0x1c48>
   22b40: 22 ff ff f0  	adrp	x2, 0x9000 <_ZN11ChiMetadata21InitializeMetadataOpsEP14ChiMetadataOps+0x1c3c>
   22b44: 65 ff ff 90  	adrp	x5, 0xe000 <_ZN11ChiMetadata21InitializeMetadataOpsEP14ChiMetadataOps+0x1c54>
   22b48: 46 ff ff b0  	adrp	x6, 0xb000 <_ZN11ChiMetadata21InitializeMetadataOpsEP14ChiMetadataOps+0x1c4c>
   22b6c: 53 ff ff b0  	adrp	x19, 0xb000 <_ZN11ChiMetadata21InitializeMetadataOpsEP14ChiMetadataOps+0x1c70>
   22b88: 21 ff ff f0  	adrp	x1, 0x9000 <_ZN11ChiMetadata21InitializeMetadataOpsEP14ChiMetadataOps+0x1c84>
   22b90: 40 ff ff d0  	adrp	x0, 0xc000 <_ZN11ChiMetadata21InitializeMetadataOpsEP14ChiMetadataOps+0x1c98>
   22b94: 63 ff ff 90  	adrp	x3, 0xe000 <_ZN11ChiMetadata21InitializeMetadataOpsEP14ChiMetadataOps+0x1ca4>
   22b98: 25 ff ff f0  	adrp	x5, 0x9000 <_ZN11ChiMetadata21InitializeMetadataOpsEP14ChiMetadataOps+0x1c94>
   22b9c: 46 ff ff b0  	adrp	x6, 0xb000 <_ZN11ChiMetadata21InitializeMetadataOpsEP14ChiMetadataOps+0x1ca0>
   22bb8: 5e 00 00 14  	b	0x22d30 <_ZN11ChiMetadata21InitializeMetadataOpsEP14ChiMetadataOps+0x1e90>
   22bbc: 53 00 00 f0  	adrp	x19, 0x2d000 <_ZN11ChiMetadata21InitializeMetadataOpsEP14ChiMetadataOps+0x1d48>
   22bc8: 69 0b 30 36  	tbz	w9, #6, 0x22d34 <_ZN11ChiMetadata21InitializeMetadataOpsEP14ChiMetadataOps+0x1e94>
   22bcc: 40 00 00 f0  	adrp	x0, 0x2d000 <_ZN11ChiMetadata21InitializeMetadataOpsEP14ChiMetadataOps+0x1d58>
   22bdc: 81 02 00 54  	b.ne	0x22c2c <_ZN11ChiMetadata21InitializeMetadataOpsEP14ChiMetadataOps+0x1d8c>
   22be0: 53 ff ff b0  	adrp	x19, 0xb000 <_ZN11ChiMetadata21InitializeMetadataOpsEP14ChiMetadataOps+0x1ce4>
   22bfc: 41 ff ff f0  	adrp	x1, 0xd000 <_ZN11ChiMetadata21InitializeMetadataOpsEP14ChiMetadataOps+0x1d08>
   22c00: 22 ff ff f0  	adrp	x2, 0x9000 <_ZN11ChiMetadata21InitializeMetadataOpsEP14ChiMetadataOps+0x1cfc>
   22c04: 65 ff ff 90  	adrp	x5, 0xe000 <_ZN11ChiMetadata21InitializeMetadataOpsEP14ChiMetadataOps+0x1d14>
   22c08: 46 ff ff b0  	adrp	x6, 0xb000 <_ZN11ChiMetadata21InitializeMetadataOpsEP14ChiMetadataOps+0x1d0c>
   22c2c: 53 ff ff b0  	adrp	x19, 0xb000 <_ZN11ChiMetadata21InitializeMetadataOpsEP14ChiMetadataOps+0x1d30>
   22c48: 21 ff ff f0  	adrp	x1, 0x9000 <_ZN11ChiMetadata21InitializeMetadataOpsEP14ChiMetadataOps+0x1d44>
   22c50: 40 ff ff d0  	adrp	x0, 0xc000 <_ZN11ChiMetadata21InitializeMetadataOpsEP14ChiMetadataOps+0x1d58>
   22c54: 63 ff ff 90  	adrp	x3, 0xe000 <_ZN11ChiMetadata21InitializeMetadataOpsEP14ChiMetadataOps+0x1d64>
   22c58: 25 ff ff f0  	adrp	x5, 0x9000 <_ZN11ChiMetadata21InitializeMetadataOpsEP14ChiMetadataOps+0x1d54>
   22c5c: 46 ff ff b0  	adrp	x6, 0xb000 <_ZN11ChiMetadata21InitializeMetadataOpsEP14ChiMetadataOps+0x1d60>
   22c78: 2e 00 00 14  	b	0x22d30 <_ZN11ChiMetadata21InitializeMetadataOpsEP14ChiMetadataOps+0x1e90>
   22c7c: 48 00 00 f0  	adrp	x8, 0x2d000 <_ZN11ChiMetadata21InitializeMetadataOpsEP14ChiMetadataOps+0x1e08>
   22c88: 6a 05 30 36  	tbz	w10, #6, 0x22d34 <_ZN11ChiMetadata21InitializeMetadataOpsEP14ChiMetadataOps+0x1e94>
   22c8c: 49 00 00 f0  	adrp	x9, 0x2d000 <_ZN11ChiMetadata21InitializeMetadataOpsEP14ChiMetadataOps+0x1e18>
   22c90: 53 ff ff b0  	adrp	x19, 0xb000 <_ZN11ChiMetadata21InitializeMetadataOpsEP14ChiMetadataOps+0x1d94>
   22ca4: 41 02 00 54  	b.ne	0x22cec <_ZN11ChiMetadata21InitializeMetadataOpsEP14ChiMetadataOps+0x1e4c>
   22cbc: 41 ff ff f0  	adrp	x1, 0xd000 <_ZN11ChiMetadata21InitializeMetadataOpsEP14ChiMetadataOps+0x1dc8>
   22cc0: 22 ff ff f0  	adrp	x2, 0x9000 <_ZN11ChiMetadata21InitializeMetadataOpsEP14ChiMetadataOps+0x1dbc>
   22cc4: 65 ff ff 90  	adrp	x5, 0xe000 <_ZN11ChiMetadata21InitializeMetadataOpsEP14ChiMetadataOps+0x1dd4>
   22cc8: 26 ff ff f0  	adrp	x6, 0x9000 <_ZN11ChiMetadata21InitializeMetadataOpsEP14ChiMetadataOps+0x1dc4>
   22d00: 21 ff ff f0  	adrp	x1, 0x9000 <_ZN11ChiMetadata21InitializeMetadataOpsEP14ChiMetadataOps+0x1dfc>
   22d08: 40 ff ff d0  	adrp	x0, 0xc000 <_ZN11ChiMetadata21InitializeMetadataOpsEP14ChiMetadataOps+0x1e10>
   22d0c: 63 ff ff 90  	adrp	x3, 0xe000 <_ZN11ChiMetadata21InitializeMetadataOpsEP14ChiMetadataOps+0x1e1c>
   22d10: 25 ff ff f0  	adrp	x5, 0x9000 <_ZN11ChiMetadata21InitializeMetadataOpsEP14ChiMetadataOps+0x1e0c>
   22d14: 26 ff ff f0  	adrp	x6, 0x9000 <_ZN11ChiMetadata21InitializeMetadataOpsEP14ChiMetadataOps+0x1e10>
   22d30: 04 25 00 94  	bl	0x2c140 <_ZN6ChiLog9LogSystemEPKcS1_S1_S1_iS1_z@plt>
0000000000022d48 <_ZN11ChiMetadata10InitializeEPKjji>:
   22d84: a1 00 00 54  	b.ne	0x22d98 <_ZN11ChiMetadata10InitializeEPKjji+0x50>
   22d90: 55 05 00 b5  	cbnz	x21, 0x22e38 <_ZN11ChiMetadata10InitializeEPKjji+0xf0>
   22d94: 32 00 00 14  	b	0x22e5c <_ZN11ChiMetadata10InitializeEPKjji+0x114>
   22d98: ee 25 00 94  	bl	0x2c550 <_ZN15ExtensionModule11GetInstanceEv@plt>
   22da4: 40 04 00 54  	b.eq	0x22e2c <_ZN11ChiMetadata10InitializeEPKjji+0xe4>
   22dc0: 41 02 00 54  	b.ne	0x22e08 <_ZN11ChiMetadata10InitializeEPKjji+0xc0>
   22dc8: 41 02 00 54  	b.ne	0x22e10 <_ZN11ChiMetadata10InitializeEPKjji+0xc8>
   22dd8: c1 01 00 54  	b.ne	0x22e10 <_ZN11ChiMetadata10InitializeEPKjji+0xc8>
   22dec: e0 fc ff 54  	b.eq	0x22d88 <_ZN11ChiMetadata10InitializeEPKjji+0x40>
   22e00: d5 01 00 b5  	cbnz	x21, 0x22e38 <_ZN11ChiMetadata10InitializeEPKjji+0xf0>
   22e04: 16 00 00 14  	b	0x22e5c <_ZN11ChiMetadata10InitializeEPKjji+0x114>
   22e0c: 01 01 00 54  	b.ne	0x22e2c <_ZN11ChiMetadata10InitializeEPKjji+0xe4>
   22e24: b5 00 00 b5  	cbnz	x21, 0x22e38 <_ZN11ChiMetadata10InitializeEPKjji+0xf0>
   22e28: 0d 00 00 14  	b	0x22e5c <_ZN11ChiMetadata10InitializeEPKjji+0x114>
   22e34: 55 01 00 b4  	cbz	x21, 0x22e5c <_ZN11ChiMetadata10InitializeEPKjji+0x114>
   22e38: 34 01 00 34  	cbz	w20, 0x22e5c <_ZN11ChiMetadata10InitializeEPKjji+0x114>
   22e58: 06 00 00 14  	b	0x22e70 <_ZN11ChiMetadata10InitializeEPKjji+0x128>
   22ea4: c1 00 00 54  	b.ne	0x22ebc <_ZN11ChiMetadata10InitializeEPKjji+0x174>
0000000000022ec0 <_ZN11ChiMetadata16ReadDataFromFileEPKcRNSt3__16vectorIhNS2_9allocatorIhEEEE>:
   22ee0: 41 ff ff b0  	adrp	x1, 0xb000 <_ZN11ChiMetadata10InitializeEPKjji+0x13c>
   22ef0: c0 05 00 b4  	cbz	x0, 0x22fa8 <_ZN11ChiMetadata16ReadDataFromFileEPKcRNSt3__16vectorIhNS2_9allocatorIhEEEE+0xe8>
   22f24: 8b 13 00 54  	b.lt	0x23194 <_ZN11ChiMetadata16ReadDataFromFileEPKcRNSt3__16vectorIhNS2_9allocatorIhEEEE+0x2d4>
   22f38: 89 09 00 54  	b.ls	0x23068 <_ZN11ChiMetadata16ReadDataFromFileEPKcRNSt3__16vectorIhNS2_9allocatorIhEEEE+0x1a8>
   22f48: 22 02 00 54  	b.hs	0x22f8c <_ZN11ChiMetadata16ReadDataFromFileEPKcRNSt3__16vectorIhNS2_9allocatorIhEEEE+0xcc>
   22f50: 88 13 f8 b7  	tbnz	x8, #63, 0x231c0 <_ZN11ChiMetadata16ReadDataFromFileEPKcRNSt3__16vectorIhNS2_9allocatorIhEEEE+0x300>
   22f74: 3a 08 00 b4  	cbz	x26, 0x23078 <_ZN11ChiMetadata16ReadDataFromFileEPKcRNSt3__16vectorIhNS2_9allocatorIhEEEE+0x1b8>
   22f88: 3d 00 00 14  	b	0x2307c <_ZN11ChiMetadata16ReadDataFromFileEPKcRNSt3__16vectorIhNS2_9allocatorIhEEEE+0x1bc>
   22fa0: 61 ff ff 54  	b.ne	0x22f8c <_ZN11ChiMetadata16ReadDataFromFileEPKcRNSt3__16vectorIhNS2_9allocatorIhEEEE+0xcc>
   22fa4: 47 00 00 14  	b	0x230c0 <_ZN11ChiMetadata16ReadDataFromFileEPKcRNSt3__16vectorIhNS2_9allocatorIhEEEE+0x200>
   22fa8: 4c 00 00 f0  	adrp	x12, 0x2d000 <_ZN11ChiMetadata16ReadDataFromFileEPKcRNSt3__16vectorIhNS2_9allocatorIhEEEE+0x114>
   22fb4: 69 05 00 36  	tbz	w9, #0, 0x23060 <_ZN11ChiMetadata16ReadDataFromFileEPKcRNSt3__16vectorIhNS2_9allocatorIhEEEE+0x1a0>
   22fb8: 4d 00 00 f0  	adrp	x13, 0x2d000 <_ZN11ChiMetadata16ReadDataFromFileEPKcRNSt3__16vectorIhNS2_9allocatorIhEEEE+0x124>
   22fc8: 61 02 00 54  	b.ne	0x23014 <_ZN11ChiMetadata16ReadDataFromFileEPKcRNSt3__16vectorIhNS2_9allocatorIhEEEE+0x154>
   22fcc: 54 ff ff b0  	adrp	x20, 0xb000 <_ZN11ChiMetadata16ReadDataFromFileEPKcRNSt3__16vectorIhNS2_9allocatorIhEEEE+0xb0>
   22fe8: 41 ff ff f0  	adrp	x1, 0xd000 <_ZN11ChiMetadata16ReadDataFromFileEPKcRNSt3__16vectorIhNS2_9allocatorIhEEEE+0xd4>
   22fec: 42 ff ff b0  	adrp	x2, 0xb000 <_ZN11ChiMetadata16ReadDataFromFileEPKcRNSt3__16vectorIhNS2_9allocatorIhEEEE+0xd0>
   22ff0: 45 ff ff 90  	adrp	x5, 0xa000 <_ZN11ChiMetadata16ReadDataFromFileEPKcRNSt3__16vectorIhNS2_9allocatorIhEEEE+0xd0>
   23014: 57 ff ff 90  	adrp	x23, 0xb000 <_ZN11ChiMetadata16ReadDataFromFileEPKcRNSt3__16vectorIhNS2_9allocatorIhEEEE+0xf4>
   23030: 41 ff ff d0  	adrp	x1, 0xd000 <_ZN11ChiMetadata16ReadDataFromFileEPKcRNSt3__16vectorIhNS2_9allocatorIhEEEE+0x118>
   23038: 20 ff ff d0  	adrp	x0, 0x9000 <_ZN11ChiMetadata16ReadDataFromFileEPKcRNSt3__16vectorIhNS2_9allocatorIhEEEE+0x110>
   2303c: 23 ff ff f0  	adrp	x3, 0xa000 <_ZN11ChiMetadata16ReadDataFromFileEPKcRNSt3__16vectorIhNS2_9allocatorIhEEEE+0x118>
   23040: 45 ff ff 90  	adrp	x5, 0xb000 <_ZN11ChiMetadata16ReadDataFromFileEPKcRNSt3__16vectorIhNS2_9allocatorIhEEEE+0x120>
   2305c: 39 24 00 94  	bl	0x2c140 <_ZN6ChiLog9LogSystemEPKcS1_S1_S1_iS1_z@plt>
   23064: 4f 00 00 14  	b	0x231a0 <_ZN11ChiMetadata16ReadDataFromFileEPKcRNSt3__16vectorIhNS2_9allocatorIhEEEE+0x2e0>
   23068: c2 02 00 54  	b.hs	0x230c0 <_ZN11ChiMetadata16ReadDataFromFileEPKcRNSt3__16vectorIhNS2_9allocatorIhEEEE+0x200>
   23074: 13 00 00 14  	b	0x230c0 <_ZN11ChiMetadata16ReadDataFromFileEPKcRNSt3__16vectorIhNS2_9allocatorIhEEEE+0x200>
   23098: ab 00 00 54  	b.lt	0x230ac <_ZN11ChiMetadata16ReadDataFromFileEPKcRNSt3__16vectorIhNS2_9allocatorIhEEEE+0x1ec>
   230b4: 77 00 00 b4  	cbz	x23, 0x230c0 <_ZN11ChiMetadata16ReadDataFromFileEPKcRNSt3__16vectorIhNS2_9allocatorIhEEEE+0x200>
   230d8: 6d 00 00 54  	b.le	0x230e4 <_ZN11ChiMetadata16ReadDataFromFileEPKcRNSt3__16vectorIhNS2_9allocatorIhEEEE+0x224>
   230e0: 2e 00 00 14  	b	0x23198 <_ZN11ChiMetadata16ReadDataFromFileEPKcRNSt3__16vectorIhNS2_9allocatorIhEEEE+0x2d8>
   230e4: 4a 00 00 d0  	adrp	x10, 0x2d000 <_ZN11ChiMetadata16ReadDataFromFileEPKcRNSt3__16vectorIhNS2_9allocatorIhEEEE+0x24c>
   230f0: 28 05 00 36  	tbz	w8, #0, 0x23194 <_ZN11ChiMetadata16ReadDataFromFileEPKcRNSt3__16vectorIhNS2_9allocatorIhEEEE+0x2d4>
   230f4: 4b 00 00 d0  	adrp	x11, 0x2d000 <_ZN11ChiMetadata16ReadDataFromFileEPKcRNSt3__16vectorIhNS2_9allocatorIhEEEE+0x25c>
   230f8: 56 ff ff 90  	adrp	x22, 0xb000 <_ZN11ChiMetadata16ReadDataFromFileEPKcRNSt3__16vectorIhNS2_9allocatorIhEEEE+0x1d8>
   2310c: 21 02 00 54  	b.ne	0x23150 <_ZN11ChiMetadata16ReadDataFromFileEPKcRNSt3__16vectorIhNS2_9allocatorIhEEEE+0x290>
   23124: 41 ff ff d0  	adrp	x1, 0xd000 <_ZN11ChiMetadata16ReadDataFromFileEPKcRNSt3__16vectorIhNS2_9allocatorIhEEEE+0x20c>
   23128: 42 ff ff 90  	adrp	x2, 0xb000 <_ZN11ChiMetadata16ReadDataFromFileEPKcRNSt3__16vectorIhNS2_9allocatorIhEEEE+0x208>
   2312c: 25 ff ff f0  	adrp	x5, 0xa000 <_ZN11ChiMetadata16ReadDataFromFileEPKcRNSt3__16vectorIhNS2_9allocatorIhEEEE+0x208>
   23164: 41 ff ff d0  	adrp	x1, 0xd000 <_ZN11ChiMetadata16ReadDataFromFileEPKcRNSt3__16vectorIhNS2_9allocatorIhEEEE+0x24c>
   2316c: 20 ff ff d0  	adrp	x0, 0x9000 <_ZN11ChiMetadata16ReadDataFromFileEPKcRNSt3__16vectorIhNS2_9allocatorIhEEEE+0x244>
   23170: 23 ff ff f0  	adrp	x3, 0xa000 <_ZN11ChiMetadata16ReadDataFromFileEPKcRNSt3__16vectorIhNS2_9allocatorIhEEEE+0x24c>
   23174: 45 ff ff 90  	adrp	x5, 0xb000 <_ZN11ChiMetadata16ReadDataFromFileEPKcRNSt3__16vectorIhNS2_9allocatorIhEEEE+0x254>
   23190: ec 23 00 94  	bl	0x2c140 <_ZN6ChiLog9LogSystemEPKcS1_S1_S1_iS1_z@plt>
   231c4: af 25 00 94  	bl	0x2c880 <_ZNKSt3__120__vector_base_commonILb1EE20__throw_length_errorEv@plt>
00000000000231c8 <_ZN11ChiMetadata19ParseAndSetMetadataERNSt3__16vectorIhNS0_9allocatorIhEEEE>:
   231fc: a0 05 00 54  	b.eq	0x232b0 <_ZN11ChiMetadata19ParseAndSetMetadataERNSt3__16vectorIhNS0_9allocatorIhEEEE+0xe8>
   23200: 4b 00 00 d0  	adrp	x11, 0x2d000 <_ZN11ChiMetadata19ParseAndSetMetadataERNSt3__16vectorIhNS0_9allocatorIhEEEE+0x60>
   2320c: ee 04 00 36  	tbz	w14, #0, 0x232a8 <_ZN11ChiMetadata19ParseAndSetMetadataERNSt3__16vectorIhNS0_9allocatorIhEEEE+0xe0>
   23210: 4c 00 00 d0  	adrp	x12, 0x2d000 <_ZN11ChiMetadata19ParseAndSetMetadataERNSt3__16vectorIhNS0_9allocatorIhEEEE+0x70>
   23214: 53 ff ff 90  	adrp	x19, 0xb000 <_ZN11ChiMetadata16ReadDataFromFileEPKcRNSt3__16vectorIhNS2_9allocatorIhEEEE+0x2f4>
   23228: 01 02 00 54  	b.ne	0x23268 <_ZN11ChiMetadata19ParseAndSetMetadataERNSt3__16vectorIhNS0_9allocatorIhEEEE+0xa0>
   23240: 41 ff ff d0  	adrp	x1, 0xd000 <_ZN11ChiMetadata19ParseAndSetMetadataERNSt3__16vectorIhNS0_9allocatorIhEEEE+0x20>
   23244: 42 ff ff 90  	adrp	x2, 0xb000 <_ZN11ChiMetadata19ParseAndSetMetadataERNSt3__16vectorIhNS0_9allocatorIhEEEE+0x1c>
   23248: 25 ff ff d0  	adrp	x5, 0x9000 <_ZN11ChiMetadata19ParseAndSetMetadataERNSt3__16vectorIhNS0_9allocatorIhEEEE+0x18>
   2327c: 41 ff ff d0  	adrp	x1, 0xd000 <_ZN11ChiMetadata19ParseAndSetMetadataERNSt3__16vectorIhNS0_9allocatorIhEEEE+0x5c>
   23284: 20 ff ff d0  	adrp	x0, 0x9000 <_ZN11ChiMetadata19ParseAndSetMetadataERNSt3__16vectorIhNS0_9allocatorIhEEEE+0x54>
   23288: 23 ff ff d0  	adrp	x3, 0x9000 <_ZN11ChiMetadata19ParseAndSetMetadataERNSt3__16vectorIhNS0_9allocatorIhEEEE+0x58>
   2328c: 25 ff ff d0  	adrp	x5, 0x9000 <_ZN11ChiMetadata19ParseAndSetMetadataERNSt3__16vectorIhNS0_9allocatorIhEEEE+0x5c>
   232a4: a7 23 00 94  	bl	0x2c140 <_ZN6ChiLog9LogSystemEPKcS1_S1_S1_iS1_z@plt>
   232ac: a2 00 00 14  	b	0x23534 <_ZN11ChiMetadata19ParseAndSetMetadataERNSt3__16vectorIhNS0_9allocatorIhEEEE+0x36c>
   232e0: 09 07 00 54  	b.ls	0x233c0 <_ZN11ChiMetadata19ParseAndSetMetadataERNSt3__16vectorIhNS0_9allocatorIhEEEE+0x1f8>
   232e8: a1 07 00 54  	b.ne	0x233dc <_ZN11ChiMetadata19ParseAndSetMetadataERNSt3__16vectorIhNS0_9allocatorIhEEEE+0x214>
   23300: 10 00 00 14  	b	0x23340 <_ZN11ChiMetadata19ParseAndSetMetadataERNSt3__16vectorIhNS0_9allocatorIhEEEE+0x178>
   2333c: 89 08 00 54  	b.ls	0x2344c <_ZN11ChiMetadata19ParseAndSetMetadataERNSt3__16vectorIhNS0_9allocatorIhEEEE+0x284>
   2334c: e3 07 00 34  	cbz	w3, 0x23448 <_ZN11ChiMetadata19ParseAndSetMetadataERNSt3__16vectorIhNS0_9allocatorIhEEEE+0x280>
   23364: 29 07 00 54  	b.ls	0x23448 <_ZN11ChiMetadata19ParseAndSetMetadataERNSt3__16vectorIhNS0_9allocatorIhEEEE+0x280>
   23378: 63 fc ff 54  	b.lo	0x23304 <_ZN11ChiMetadata19ParseAndSetMetadataERNSt3__16vectorIhNS0_9allocatorIhEEEE+0x13c>
   233b8: c1 fe ff 54  	b.ne	0x23390 <_ZN11ChiMetadata19ParseAndSetMetadataERNSt3__16vectorIhNS0_9allocatorIhEEEE+0x1c8>
   233bc: d8 ff ff 17  	b	0x2331c <_ZN11ChiMetadata19ParseAndSetMetadataERNSt3__16vectorIhNS0_9allocatorIhEEEE+0x154>
   233c8: 48 00 00 d0  	adrp	x8, 0x2d000 <_ZN11ChiMetadata19ParseAndSetMetadataERNSt3__16vectorIhNS0_9allocatorIhEEEE+0x228>
   233d4: ed 0a 18 36  	tbz	w13, #3, 0x23530 <_ZN11ChiMetadata19ParseAndSetMetadataERNSt3__16vectorIhNS0_9allocatorIhEEEE+0x368>
   233d8: 21 00 00 14  	b	0x2345c <_ZN11ChiMetadata19ParseAndSetMetadataERNSt3__16vectorIhNS0_9allocatorIhEEEE+0x294>
   233f4: 03 0b 00 34  	cbz	w3, 0x23554 <_ZN11ChiMetadata19ParseAndSetMetadataERNSt3__16vectorIhNS0_9allocatorIhEEEE+0x38c>
   23404: 89 0a 00 54  	b.ls	0x23554 <_ZN11ChiMetadata19ParseAndSetMetadataERNSt3__16vectorIhNS0_9allocatorIhEEEE+0x38c>
   23440: 48 fd ff 54  	b.hi	0x233e8 <_ZN11ChiMetadata19ParseAndSetMetadataERNSt3__16vectorIhNS0_9allocatorIhEEEE+0x220>
   23444: 02 00 00 14  	b	0x2344c <_ZN11ChiMetadata19ParseAndSetMetadataERNSt3__16vectorIhNS0_9allocatorIhEEEE+0x284>
   2344c: 48 00 00 d0  	adrp	x8, 0x2d000 <_ZN11ChiMetadata19ParseAndSetMetadataERNSt3__16vectorIhNS0_9allocatorIhEEEE+0x2ac>
   23458: cd 06 18 36  	tbz	w13, #3, 0x23530 <_ZN11ChiMetadata19ParseAndSetMetadataERNSt3__16vectorIhNS0_9allocatorIhEEEE+0x368>
   2345c: 4a 00 00 d0  	adrp	x10, 0x2d000 <_ZN11ChiMetadata19ParseAndSetMetadataERNSt3__16vectorIhNS0_9allocatorIhEEEE+0x2bc>
   23470: 01 03 00 54  	b.ne	0x234d0 <_ZN11ChiMetadata19ParseAndSetMetadataERNSt3__16vectorIhNS0_9allocatorIhEEEE+0x308>
   23474: 56 ff ff 90  	adrp	x22, 0xb000 <_ZN11ChiMetadata19ParseAndSetMetadataERNSt3__16vectorIhNS0_9allocatorIhEEEE+0x24c>
   23494: 25 ff ff d0  	adrp	x5, 0x9000 <_ZN11ChiMetadata19ParseAndSetMetadataERNSt3__16vectorIhNS0_9allocatorIhEEEE+0x264>
   234ac: 41 ff ff d0  	adrp	x1, 0xd000 <_ZN11ChiMetadata19ParseAndSetMetadataERNSt3__16vectorIhNS0_9allocatorIhEEEE+0x28c>
   234b0: 42 ff ff d0  	adrp	x2, 0xd000 <_ZN11ChiMetadata19ParseAndSetMetadataERNSt3__16vectorIhNS0_9allocatorIhEEEE+0x290>
   234d0: 56 ff ff 90  	adrp	x22, 0xb000 <_ZN11ChiMetadata19ParseAndSetMetadataERNSt3__16vectorIhNS0_9allocatorIhEEEE+0x2a8>
   234f0: 41 ff ff 90  	adrp	x1, 0xb000 <_ZN11ChiMetadata19ParseAndSetMetadataERNSt3__16vectorIhNS0_9allocatorIhEEEE+0x2c8>
   234f8: 40 ff ff f0  	adrp	x0, 0xe000 <_ZN11ChiMetadata19ParseAndSetMetadataERNSt3__16vectorIhNS0_9allocatorIhEEEE+0x2dc>
   23508: 23 ff ff d0  	adrp	x3, 0x9000 <_ZN11ChiMetadata19ParseAndSetMetadataERNSt3__16vectorIhNS0_9allocatorIhEEEE+0x2d8>
   2350c: 45 ff ff d0  	adrp	x5, 0xd000 <_ZN11ChiMetadata19ParseAndSetMetadataERNSt3__16vectorIhNS0_9allocatorIhEEEE+0x2ec>
   2352c: 05 23 00 94  	bl	0x2c140 <_ZN6ChiLog9LogSystemEPKcS1_S1_S1_iS1_z@plt>
   23558: 48 00 00 d0  	adrp	x8, 0x2d000 <_ZN11ChiMetadata6CreateEPKc>
   23564: 6d fe 1f 36  	tbz	w13, #3, 0x23530 <_ZN11ChiMetadata19ParseAndSetMetadataERNSt3__16vectorIhNS0_9allocatorIhEEEE+0x368>
   23568: bd ff ff 17  	b	0x2345c <_ZN11ChiMetadata19ParseAndSetMetadataERNSt3__16vectorIhNS0_9allocatorIhEEEE+0x294>
0000000000023570 <_ZN11ChiMetadata6SetTagEjPKvjj>:
0000000000023580 <_ZN11ChiMetadata6CreateEPKc>:
   235a8: c0 15 00 b4  	cbz	x0, 0x23860 <_ZN11ChiMetadata6CreateEPKc+0x2e0>
   235b0: b8 24 00 94  	bl	0x2c890 <_ZN11ChiMetadata16ReadDataFromFileEPKcRNSt3__16vectorIhNS2_9allocatorIhEEEE@plt>
   235b4: 60 15 00 35  	cbnz	w0, 0x23860 <_ZN11ChiMetadata6CreateEPKc+0x2e0>
   235c8: e0 05 00 b4  	cbz	x0, 0x23684 <_ZN11ChiMetadata6CreateEPKc+0x104>
   235d0: 8c 24 00 94  	bl	0x2c800 <_ZN11ChiMetadata21InitializeMetadataOpsEP14ChiMetadataOps@plt>
   235d4: 20 0b 00 34  	cbz	w0, 0x23738 <_ZN11ChiMetadata6CreateEPKc+0x1b8>
   235d8: 4a 00 00 d0  	adrp	x10, 0x2d000 <_ZN11ChiMetadata6CreateEPKc+0x80>
   235e4: aa 13 00 36  	tbz	w10, #0, 0x23858 <_ZN11ChiMetadata6CreateEPKc+0x2d8>
   235e8: 4b 00 00 d0  	adrp	x11, 0x2d000 <_ZN11ChiMetadata6CreateEPKc+0x90>
   235ec: 54 ff ff 90  	adrp	x20, 0xb000 <_ZN11ChiMetadata6CreateEPKc+0xc>
   23600: 01 02 00 54  	b.ne	0x23640 <_ZN11ChiMetadata6CreateEPKc+0xc0>
   23618: 41 ff ff d0  	adrp	x1, 0xd000 <_ZN11ChiMetadata6CreateEPKc+0x40>
   2361c: 42 ff ff f0  	adrp	x2, 0xe000 <_ZN11ChiMetadata6CreateEPKc+0x48>
   23620: 45 ff ff d0  	adrp	x5, 0xd000 <_ZN11ChiMetadata6CreateEPKc+0x48>
   23654: 41 ff ff d0  	adrp	x1, 0xd000 <_ZN11ChiMetadata6CreateEPKc+0x7c>
   2365c: 20 ff ff d0  	adrp	x0, 0x9000 <_ZN11ChiMetadata6CreateEPKc+0x74>
   23660: 43 ff ff d0  	adrp	x3, 0xd000 <_ZN11ChiMetadata6CreateEPKc+0x88>
   23664: 45 ff ff f0  	adrp	x5, 0xe000 <_ZN11ChiMetadata6CreateEPKc+0x90>
   2367c: b1 22 00 94  	bl	0x2c140 <_ZN6ChiLog9LogSystemEPKcS1_S1_S1_iS1_z@plt>
   23680: 76 00 00 14  	b	0x23858 <_ZN11ChiMetadata6CreateEPKc+0x2d8>
   23684: 4c 00 00 d0  	adrp	x12, 0x2d000 <_ZN11ChiMetadata6CreateEPKc+0x12c>
   23690: ab 0e 00 36  	tbz	w11, #0, 0x23864 <_ZN11ChiMetadata6CreateEPKc+0x2e4>
   23694: 4d 00 00 d0  	adrp	x13, 0x2d000 <_ZN11ChiMetadata6CreateEPKc+0x13c>
   236a4: 41 02 00 54  	b.ne	0x236ec <_ZN11ChiMetadata6CreateEPKc+0x16c>
   236a8: 54 ff ff 90  	adrp	x20, 0xb000 <_ZN11ChiMetadata6CreateEPKc+0xc8>
   236c4: 41 ff ff d0  	adrp	x1, 0xd000 <_ZN11ChiMetadata6CreateEPKc+0xec>
   236c8: 42 ff ff f0  	adrp	x2, 0xe000 <_ZN11ChiMetadata6CreateEPKc+0xf4>
   236cc: 45 ff ff d0  	adrp	x5, 0xd000 <_ZN11ChiMetadata6CreateEPKc+0xf4>
   236ec: 54 ff ff 90  	adrp	x20, 0xb000 <_ZN11ChiMetadata6CreateEPKc+0x10c>
   23708: 41 ff ff d0  	adrp	x1, 0xd000 <_ZN11ChiMetadata6CreateEPKc+0x130>
   23710: 20 ff ff d0  	adrp	x0, 0x9000 <_ZN11ChiMetadata6CreateEPKc+0x128>
   23714: 43 ff ff d0  	adrp	x3, 0xd000 <_ZN11ChiMetadata6CreateEPKc+0x13c>
   23718: 45 ff ff 90  	adrp	x5, 0xb000 <_ZN11ChiMetadata6CreateEPKc+0x138>
   23730: 84 22 00 94  	bl	0x2c140 <_ZN6ChiLog9LogSystemEPKcS1_S1_S1_iS1_z@plt>
   23734: 4c 00 00 14  	b	0x23864 <_ZN11ChiMetadata6CreateEPKc+0x2e4>
   23790: c0 05 00 34  	cbz	w0, 0x23848 <_ZN11ChiMetadata6CreateEPKc+0x2c8>
   23794: 48 00 00 d0  	adrp	x8, 0x2d000 <_ZN11ChiMetadata6CreateEPKc+0x23c>
   237a0: c9 05 00 36  	tbz	w9, #0, 0x23858 <_ZN11ChiMetadata6CreateEPKc+0x2d8>
   237a4: 49 00 00 d0  	adrp	x9, 0x2d000 <_ZN11ChiMetadata6CreateEPKc+0x24c>
   237b4: 41 02 00 54  	b.ne	0x237fc <_ZN11ChiMetadata6CreateEPKc+0x27c>
   237b8: 54 ff ff 90  	adrp	x20, 0xb000 <_ZN11ChiMetadata6CreateEPKc+0x1d8>
   237d4: 41 ff ff d0  	adrp	x1, 0xd000 <_ZN11ChiMetadata6CreateEPKc+0x1fc>
   237d8: 22 ff ff d0  	adrp	x2, 0x9000 <_ZN11ChiMetadata6CreateEPKc+0x1f0>
   237dc: 45 ff ff d0  	adrp	x5, 0xd000 <_ZN11ChiMetadata6CreateEPKc+0x204>
   237fc: 54 ff ff 90  	adrp	x20, 0xb000 <_ZN11ChiMetadata6CreateEPKc+0x21c>
   23818: 41 ff ff d0  	adrp	x1, 0xd000 <_ZN11ChiMetadata6CreateEPKc+0x240>
   23820: 20 ff ff d0  	adrp	x0, 0x9000 <_ZN11ChiMetadata6CreateEPKc+0x238>
   23824: 43 ff ff d0  	adrp	x3, 0xd000 <_ZN11ChiMetadata6CreateEPKc+0x24c>
   23828: 45 ff ff b0  	adrp	x5, 0xc000 <_ZN11ChiMetadata6CreateEPKc+0x24c>
   23840: 40 22 00 94  	bl	0x2c140 <_ZN6ChiLog9LogSystemEPKcS1_S1_S1_iS1_z@plt>
   23844: 05 00 00 14  	b	0x23858 <_ZN11ChiMetadata6CreateEPKc+0x2d8>
   23850: 14 24 00 94  	bl	0x2c8a0 <_ZN11ChiMetadata19ParseAndSetMetadataERNSt3__16vectorIhNS0_9allocatorIhEEEE@plt>
   23854: 80 00 00 34  	cbz	w0, 0x23864 <_ZN11ChiMetadata6CreateEPKc+0x2e4>
   23868: 60 00 00 b4  	cbz	x0, 0x23874 <_ZN11ChiMetadata6CreateEPKc+0x2f4>
   23880: e1 00 00 54  	b.ne	0x2389c <_ZN11ChiMetadata6CreateEPKc+0x31c>
00000000000238a0 <_ZN11ChiMetadata7DestroyEb>:
   238c0: 00 08 00 54  	b.eq	0x239c0 <_ZN11ChiMetadata7DestroyEb+0x120>
   238c4: 4a 00 00 d0  	adrp	x10, 0x2d000 <_ZN11ChiMetadata7DestroyEb+0x4c>
   238d0: ab 06 00 36  	tbz	w11, #0, 0x239a4 <_ZN11ChiMetadata7DestroyEb+0x104>
   238d4: 4b 00 00 d0  	adrp	x11, 0x2d000 <_ZN11ChiMetadata7DestroyEb+0x5c>
   238d8: 54 ff ff 90  	adrp	x20, 0xb000 <_ZN11ChiMetadata6CreateEPKc+0x2f8>
   238ec: e1 02 00 54  	b.ne	0x23948 <_ZN11ChiMetadata7DestroyEb+0xa8>
   2390c: 41 ff ff d0  	adrp	x1, 0xd000 <_ZN11ChiMetadata7DestroyEb+0x14>
   23910: 22 ff ff d0  	adrp	x2, 0x9000 <_ZN11ChiMetadata7DestroyEb+0x8>
   23914: 45 ff ff b0  	adrp	x5, 0xc000 <_ZN11ChiMetadata7DestroyEb+0x18>
   23968: 20 ff ff d0  	adrp	x0, 0x9000 <_ZN11ChiMetadata7DestroyEb+0x60>
   2396c: 41 ff ff d0  	adrp	x1, 0xd000 <_ZN11ChiMetadata7DestroyEb+0x74>
   23970: 43 ff ff b0  	adrp	x3, 0xc000 <_ZN11ChiMetadata7DestroyEb+0x74>
   23974: 45 ff ff b0  	adrp	x5, 0xc000 <_ZN11ChiMetadata7DestroyEb+0x78>
   239a0: e8 21 00 94  	bl	0x2c140 <_ZN6ChiLog9LogSystemEPKcS1_S1_S1_iS1_z@plt>
   239c4: 00 f8 ff b4  	cbz	x0, 0x238c4 <_ZN11ChiMetadata7DestroyEb+0x24>
   239dc: 80 06 00 34  	cbz	w0, 0x23aac <_ZN11ChiMetadata7DestroyEb+0x20c>
   239e0: 48 00 00 d0  	adrp	x8, 0x2d000 <_ZN11ChiMetadata7DestroyEb+0x168>
   239ec: e8 fd 07 36  	tbz	w8, #0, 0x239a8 <_ZN11ChiMetadata7DestroyEb+0x108>
   239f0: 49 00 00 d0  	adrp	x9, 0x2d000 <_ZN11ChiMetadata7DestroyEb+0x178>
   23a00: a1 02 00 54  	b.ne	0x23a54 <_ZN11ChiMetadata7DestroyEb+0x1b4>
   23a04: 55 ff ff 90  	adrp	x21, 0xb000 <_ZN11ChiMetadata7DestroyEb+0x104>
   23a24: 41 ff ff d0  	adrp	x1, 0xd000 <_ZN11ChiMetadata7DestroyEb+0x12c>
   23a28: 22 ff ff f0  	adrp	x2, 0xa000 <_ZN11ChiMetadata7DestroyEb+0x124>
   23a2c: 45 ff ff 90  	adrp	x5, 0xb000 <_ZN11ChiMetadata7DestroyEb+0x12c>
   23a54: 55 ff ff 90  	adrp	x21, 0xb000 <_ZN11ChiMetadata7DestroyEb+0x154>
   23a78: 20 ff ff d0  	adrp	x0, 0x9000 <_ZN11ChiMetadata7DestroyEb+0x170>
   23a7c: 41 ff ff d0  	adrp	x1, 0xd000 <_ZN11ChiMetadata7DestroyEb+0x184>
   23a80: 43 ff ff 90  	adrp	x3, 0xb000 <_ZN11ChiMetadata7DestroyEb+0x180>
   23a84: 25 ff ff f0  	adrp	x5, 0xa000 <_ZN11ChiMetadata7DestroyEb+0x180>
   23aa4: a7 21 00 94  	bl	0x2c140 <_ZN6ChiLog9LogSystemEPKcS1_S1_S1_iS1_z@plt>
   23aa8: c0 ff ff 17  	b	0x239a8 <_ZN11ChiMetadata7DestroyEb+0x108>
   23ab4: bd ff ff 17  	b	0x239a8 <_ZN11ChiMetadata7DestroyEb+0x108>
0000000000023ab8 <_ZN11ChiMetadata15DestroyInternalEb>:
   23ae4: 40 06 00 34  	cbz	w0, 0x23bac <_ZN11ChiMetadata15DestroyInternalEb+0xf4>
   23ae8: 48 00 00 d0  	adrp	x8, 0x2d000 <_ZN11ChiMetadata15DestroyInternalEb+0x58>
   23af4: 08 06 00 36  	tbz	w8, #0, 0x23bb4 <_ZN11ChiMetadata15DestroyInternalEb+0xfc>
   23af8: 49 00 00 d0  	adrp	x9, 0x2d000 <_ZN11ChiMetadata15DestroyInternalEb+0x68>
   23afc: 55 ff ff 90  	adrp	x21, 0xb000 <_ZN11ChiMetadata7DestroyEb+0x1fc>
   23b10: 61 02 00 54  	b.ne	0x23b5c <_ZN11ChiMetadata15DestroyInternalEb+0xa4>
   23b2c: 41 ff ff d0  	adrp	x1, 0xd000 <_ZN11ChiMetadata15DestroyInternalEb+0x1c>
   23b30: 22 ff ff f0  	adrp	x2, 0xa000 <_ZN11ChiMetadata15DestroyInternalEb+0x14>
   23b34: 45 ff ff 90  	adrp	x5, 0xb000 <_ZN11ChiMetadata15DestroyInternalEb+0x1c>
   23b78: 20 ff ff d0  	adrp	x0, 0x9000 <_ZN11ChiMetadata15DestroyInternalEb+0x58>
   23b7c: 41 ff ff d0  	adrp	x1, 0xd000 <_ZN11ChiMetadata15DestroyInternalEb+0x6c>
   23b80: 43 ff ff 90  	adrp	x3, 0xb000 <_ZN11ChiMetadata15DestroyInternalEb+0x68>
   23b84: 25 ff ff f0  	adrp	x5, 0xa000 <_ZN11ChiMetadata15DestroyInternalEb+0x68>
   23ba4: 67 21 00 94  	bl	0x2c140 <_ZN6ChiLog9LogSystemEPKcS1_S1_S1_iS1_z@plt>
   23ba8: 03 00 00 14  	b	0x23bb4 <_ZN11ChiMetadata15DestroyInternalEb+0xfc>
0000000000023bc8 <_ZN11ChiMetadata6GetTagEjj>:
   23c08: a1 00 00 54  	b.ne	0x23c1c <_ZN11ChiMetadata6GetTagEjj+0x54>
0000000000023c20 <_ZN11ChiMetadata6GetTagEjR16ChiMetadataEntry>:
0000000000023c30 <_ZN11ChiMetadata6GetTagEPKcS1_j>:
   23c70: a1 00 00 54  	b.ne	0x23c84 <_ZN11ChiMetadata6GetTagEPKcS1_j+0x54>
0000000000023c88 <_ZNK11ChiMetadata7FindTagEjP21camera_metadata_entry>:
   23cc8: e0 00 00 35  	cbnz	w0, 0x23ce4 <_ZNK11ChiMetadata7FindTagEjP21camera_metadata_entry+0x5c>
   23cf0: c1 00 00 54  	b.ne	0x23d08 <_ZNK11ChiMetadata7FindTagEjP21camera_metadata_entry+0x80>
0000000000023d10 <_ZN11ChiMetadata18SetAndroidMetadataEPK15camera_metadata>:
0000000000023d20 <_ZN11ChiMetadata6SetTagEPKcS1_PKvjj>:
0000000000023d30 <_ZN11ChiMetadata9DeleteTagEj>:
0000000000023d40 <_ZN11ChiMetadata5CountEv>:
   23d80: a1 00 00 54  	b.ne	0x23d94 <_ZN11ChiMetadata5CountEv+0x54>
0000000000023d98 <_ZN11ChiMetadata5ResetEv>:
0000000000023da8 <_ZN11ChiMetadata5MergeERS_b>:
   23dd8: 92 21 00 94  	bl	0x2c420 <_ZNSt3__16chrono12steady_clock3nowEv@plt>
   23de4: 40 00 00 54  	b.eq	0x23dec <_ZN11ChiMetadata5MergeERS_b+0x44>
   23df4: 40 00 00 54  	b.eq	0x23dfc <_ZN11ChiMetadata5MergeERS_b+0x54>
0000000000023e10 <_ZN11ChiMetadata24MergeMultiCameraMetadataEjPPS_Pjj>:
   23e38: 81 02 00 34  	cbz	w1, 0x23e88 <_ZN11ChiMetadata24MergeMultiCameraMetadataEjPPS_Pjj+0x78>
   23e80: 61 ff ff 54  	b.ne	0x23e6c <_ZN11ChiMetadata24MergeMultiCameraMetadataEjPPS_Pjj+0x5c>
   23e84: 02 00 00 14  	b	0x23e8c <_ZN11ChiMetadata24MergeMultiCameraMetadataEjPPS_Pjj+0x7c>
   23eac: 77 00 00 b4  	cbz	x23, 0x23eb8 <_ZN11ChiMetadata24MergeMultiCameraMetadataEjPPS_Pjj+0xa8>
0000000000023ed8 <_ZN11ChiMetadata4CopyERS_b>:
0000000000023ef0 <_ZN11ChiMetadata5CloneEv>:
   23f2c: 80 01 00 35  	cbnz	w0, 0x23f5c <_ZN11ChiMetadata5CloneEv+0x6c>
   23f40: 20 02 00 b4  	cbz	x0, 0x23f84 <_ZN11ChiMetadata5CloneEv+0x94>
   23f68: e1 01 00 54  	b.ne	0x23fa4 <_ZN11ChiMetadata5CloneEv+0xb4>
   23fa0: 60 fe ff 54  	b.eq	0x23f6c <_ZN11ChiMetadata5CloneEv+0x7c>
0000000000023fa8 <_ZN11ChiMetadata32TranslateToCameraPartialMetadataEP15camera_metadataPjj>:
   23fe4: 83 11 00 34  	cbz	w3, 0x24214 <_ZN11ChiMetadata32TranslateToCameraPartialMetadataEP15camera_metadataPjj+0x26c>
   23fe8: 58 00 00 d0  	adrp	x24, 0x2d000 <_ZN11ChiMetadata32TranslateToCameraPartialMetadataEP15camera_metadataPjj+0x68>
   23fec: 54 ff ff 90  	adrp	x20, 0xb000 <_ZN11ChiMetadata5CloneEv+0x9c>
   23ff0: 59 ff ff 90  	adrp	x25, 0xb000 <_ZN11ChiMetadata5CloneEv+0xa0>
   2401c: 13 00 00 14  	b	0x24068 <_ZN11ChiMetadata32TranslateToCameraPartialMetadataEP15camera_metadataPjj+0xc0>
   24034: 41 ff ff 90  	adrp	x1, 0xc000 <_ZN11ChiMetadata32TranslateToCameraPartialMetadataEP15camera_metadataPjj+0x2c>
   2403c: 40 ff ff b0  	adrp	x0, 0xd000 <_ZN11ChiMetadata32TranslateToCameraPartialMetadataEP15camera_metadataPjj+0x38>
   24040: 25 ff ff f0  	adrp	x5, 0xb000 <_ZN11ChiMetadata32TranslateToCameraPartialMetadataEP15camera_metadataPjj+0x34>
   24058: 3a 20 00 94  	bl	0x2c140 <_ZN6ChiLog9LogSystemEPKcS1_S1_S1_iS1_z@plt>
   24064: 80 0d 00 54  	b.eq	0x24214 <_ZN11ChiMetadata32TranslateToCameraPartialMetadataEP15camera_metadataPjj+0x26c>
   2407c: e0 01 00 35  	cbnz	w0, 0x240b8 <_ZN11ChiMetadata32TranslateToCameraPartialMetadataEP15camera_metadataPjj+0x110>
   24084: ac 01 00 b4  	cbz	x12, 0x240b8 <_ZN11ChiMetadata32TranslateToCameraPartialMetadataEP15camera_metadataPjj+0x110>
   24098: c0 03 00 34  	cbz	w0, 0x24110 <_ZN11ChiMetadata32TranslateToCameraPartialMetadataEP15camera_metadataPjj+0x168>
   240b0: 60 fd ff 34  	cbz	w0, 0x2405c <_ZN11ChiMetadata32TranslateToCameraPartialMetadataEP15camera_metadataPjj+0xb4>
   240b4: 20 00 00 14  	b	0x24134 <_ZN11ChiMetadata32TranslateToCameraPartialMetadataEP15camera_metadataPjj+0x18c>
   240bc: 09 fd 2f 36  	tbz	w9, #5, 0x2405c <_ZN11ChiMetadata32TranslateToCameraPartialMetadataEP15camera_metadataPjj+0xb4>
   240c0: 4a 00 00 b0  	adrp	x10, 0x2d000 <_ZN11ChiMetadata32TranslateToCameraPartialMetadataEP15camera_metadataPjj+0x13c>
   240d0: 81 fa ff 54  	b.ne	0x24020 <_ZN11ChiMetadata32TranslateToCameraPartialMetadataEP15camera_metadataPjj+0x78>
   240e8: 41 ff ff b0  	adrp	x1, 0xd000 <_ZN11ChiMetadata32TranslateToCameraPartialMetadataEP15camera_metadataPjj+0xe4>
   240ec: 42 ff ff b0  	adrp	x2, 0xd000 <_ZN11ChiMetadata32TranslateToCameraPartialMetadataEP15camera_metadataPjj+0xe8>
   2410c: c5 ff ff 17  	b	0x24020 <_ZN11ChiMetadata32TranslateToCameraPartialMetadataEP15camera_metadataPjj+0x78>
   24130: 60 f9 ff 34  	cbz	w0, 0x2405c <_ZN11ChiMetadata32TranslateToCameraPartialMetadataEP15camera_metadataPjj+0xb4>
   24138: e8 06 00 36  	tbz	w8, #0, 0x24214 <_ZN11ChiMetadata32TranslateToCameraPartialMetadataEP15camera_metadataPjj+0x26c>
   2413c: 4b 00 00 b0  	adrp	x11, 0x2d000 <_ZN11ChiMetadata32TranslateToCameraPartialMetadataEP15camera_metadataPjj+0x1b8>
   2414c: 21 03 00 54  	b.ne	0x241b0 <_ZN11ChiMetadata32TranslateToCameraPartialMetadataEP15camera_metadataPjj+0x208>
   24178: 41 ff ff b0  	adrp	x1, 0xd000 <_ZN11ChiMetadata32TranslateToCameraPartialMetadataEP15camera_metadataPjj+0x174>
   2417c: 22 ff ff d0  	adrp	x2, 0xa000 <_ZN11ChiMetadata32TranslateToCameraPartialMetadataEP15camera_metadataPjj+0x16c>
   24180: 25 ff ff f0  	adrp	x5, 0xb000 <_ZN11ChiMetadata32TranslateToCameraPartialMetadataEP15camera_metadataPjj+0x174>
   241dc: 20 ff ff b0  	adrp	x0, 0x9000 <_ZN11ChiMetadata32TranslateToCameraPartialMetadataEP15camera_metadataPjj+0x1c8>
   241e0: 41 ff ff b0  	adrp	x1, 0xd000 <_ZN11ChiMetadata32TranslateToCameraPartialMetadataEP15camera_metadataPjj+0x1dc>
   241e4: 23 ff ff f0  	adrp	x3, 0xb000 <_ZN11ChiMetadata32TranslateToCameraPartialMetadataEP15camera_metadataPjj+0x1d8>
   241e8: 25 ff ff d0  	adrp	x5, 0xa000 <_ZN11ChiMetadata32TranslateToCameraPartialMetadataEP15camera_metadataPjj+0x1d8>
   24210: cc 1f 00 94  	bl	0x2c140 <_ZN6ChiLog9LogSystemEPKcS1_S1_S1_iS1_z@plt>
   24224: 41 01 00 54  	b.ne	0x2424c <_ZN11ChiMetadata32TranslateToCameraPartialMetadataEP15camera_metadataPjj+0x2a4>
0000000000024250 <_ZN11ChiMetadata25TranslateToCameraMetadataEP15camera_metadatabbjPj>:
0000000000024278 <_ZN11ChiMetadata17DumpDetailsToFileEPKc>:
0000000000024288 <_ZN11ChiMetadata12PrintDetailsEv>:
0000000000024298 <_ZN11ChiMetadata10InvalidateEv>:
00000000000242a8 <_ZN11ChiMetadata21IsMultiCameraMetadataEv>:
00000000000242b8 <_ZN11ChiMetadata14ReferenceCountEv>:
   242fc: a1 00 00 54  	b.ne	0x24310 <_ZN11ChiMetadata14ReferenceCountEv+0x58>
0000000000024318 <_ZN11ChiMetadata12AddReferenceEPKc>:
   24360: 14 15 00 b4  	cbz	x20, 0x24600 <_ZN11ChiMetadata12AddReferenceEPKc+0x2e8>
   24364: e0 14 00 35  	cbnz	w0, 0x24600 <_ZN11ChiMetadata12AddReferenceEPKc+0x2e8>
   2436c: ab 07 00 b4  	cbz	x11, 0x24460 <_ZN11ChiMetadata12AddReferenceEPKc+0x148>
   24374: ac 07 00 b4  	cbz	x12, 0x24468 <_ZN11ChiMetadata12AddReferenceEPKc+0x150>
   2437c: af 07 00 b4  	cbz	x15, 0x24470 <_ZN11ChiMetadata12AddReferenceEPKc+0x158>
   24384: b0 07 00 b4  	cbz	x16, 0x24478 <_ZN11ChiMetadata12AddReferenceEPKc+0x160>
   2438c: b1 07 00 b4  	cbz	x17, 0x24480 <_ZN11ChiMetadata12AddReferenceEPKc+0x168>
   24394: a4 07 00 b4  	cbz	x4, 0x24488 <_ZN11ChiMetadata12AddReferenceEPKc+0x170>
   2439c: a6 07 00 b4  	cbz	x6, 0x24490 <_ZN11ChiMetadata12AddReferenceEPKc+0x178>
   243a4: b5 07 00 b4  	cbz	x21, 0x24498 <_ZN11ChiMetadata12AddReferenceEPKc+0x180>
   243ac: a8 07 00 b4  	cbz	x8, 0x244a0 <_ZN11ChiMetadata12AddReferenceEPKc+0x188>
   243b4: a7 07 00 b4  	cbz	x7, 0x244a8 <_ZN11ChiMetadata12AddReferenceEPKc+0x190>
   243bc: a2 07 00 b4  	cbz	x2, 0x244b0 <_ZN11ChiMetadata12AddReferenceEPKc+0x198>
   243c4: a1 07 00 b4  	cbz	x1, 0x244b8 <_ZN11ChiMetadata12AddReferenceEPKc+0x1a0>
   243cc: a3 07 00 b4  	cbz	x3, 0x244c0 <_ZN11ChiMetadata12AddReferenceEPKc+0x1a8>
   243d4: a5 07 00 b4  	cbz	x5, 0x244c8 <_ZN11ChiMetadata12AddReferenceEPKc+0x1b0>
   243dc: a0 07 00 b4  	cbz	x0, 0x244d0 <_ZN11ChiMetadata12AddReferenceEPKc+0x1b8>
   243e4: a9 07 00 b4  	cbz	x9, 0x244d8 <_ZN11ChiMetadata12AddReferenceEPKc+0x1c0>
   243ec: aa 07 00 b4  	cbz	x10, 0x244e0 <_ZN11ChiMetadata12AddReferenceEPKc+0x1c8>
   243f4: ab 07 00 b4  	cbz	x11, 0x244e8 <_ZN11ChiMetadata12AddReferenceEPKc+0x1d0>
   243fc: ac 07 00 b4  	cbz	x12, 0x244f0 <_ZN11ChiMetadata12AddReferenceEPKc+0x1d8>
   24404: ad 07 00 b4  	cbz	x13, 0x244f8 <_ZN11ChiMetadata12AddReferenceEPKc+0x1e0>
   2440c: ae 07 00 b4  	cbz	x14, 0x24500 <_ZN11ChiMetadata12AddReferenceEPKc+0x1e8>
   24414: af 07 00 b4  	cbz	x15, 0x24508 <_ZN11ChiMetadata12AddReferenceEPKc+0x1f0>
   2441c: b0 07 00 b4  	cbz	x16, 0x24510 <_ZN11ChiMetadata12AddReferenceEPKc+0x1f8>
   24424: b1 07 00 b4  	cbz	x17, 0x24518 <_ZN11ChiMetadata12AddReferenceEPKc+0x200>
   2442c: a4 07 00 b4  	cbz	x4, 0x24520 <_ZN11ChiMetadata12AddReferenceEPKc+0x208>
   24434: a6 07 00 b4  	cbz	x6, 0x24528 <_ZN11ChiMetadata12AddReferenceEPKc+0x210>
   2443c: b5 07 00 b4  	cbz	x21, 0x24530 <_ZN11ChiMetadata12AddReferenceEPKc+0x218>
   24444: a8 07 00 b4  	cbz	x8, 0x24538 <_ZN11ChiMetadata12AddReferenceEPKc+0x220>
   2444c: a7 07 00 b4  	cbz	x7, 0x24540 <_ZN11ChiMetadata12AddReferenceEPKc+0x228>
   24454: a2 07 00 b5  	cbnz	x2, 0x24548 <_ZN11ChiMetadata12AddReferenceEPKc+0x230>
   2445c: 3a 00 00 14  	b	0x24544 <_ZN11ChiMetadata12AddReferenceEPKc+0x22c>
   24464: 38 00 00 14  	b	0x24544 <_ZN11ChiMetadata12AddReferenceEPKc+0x22c>
   2446c: 36 00 00 14  	b	0x24544 <_ZN11ChiMetadata12AddReferenceEPKc+0x22c>
   24474: 34 00 00 14  	b	0x24544 <_ZN11ChiMetadata12AddReferenceEPKc+0x22c>
   2447c: 32 00 00 14  	b	0x24544 <_ZN11ChiMetadata12AddReferenceEPKc+0x22c>
   24484: 30 00 00 14  	b	0x24544 <_ZN11ChiMetadata12AddReferenceEPKc+0x22c>
   2448c: 2e 00 00 14  	b	0x24544 <_ZN11ChiMetadata12AddReferenceEPKc+0x22c>
   24494: 2c 00 00 14  	b	0x24544 <_ZN11ChiMetadata12AddReferenceEPKc+0x22c>
   2449c: 2a 00 00 14  	b	0x24544 <_ZN11ChiMetadata12AddReferenceEPKc+0x22c>
   244a4: 28 00 00 14  	b	0x24544 <_ZN11ChiMetadata12AddReferenceEPKc+0x22c>
   244ac: 26 00 00 14  	b	0x24544 <_ZN11ChiMetadata12AddReferenceEPKc+0x22c>
   244b4: 24 00 00 14  	b	0x24544 <_ZN11ChiMetadata12AddReferenceEPKc+0x22c>
   244bc: 22 00 00 14  	b	0x24544 <_ZN11ChiMetadata12AddReferenceEPKc+0x22c>
   244c4: 20 00 00 14  	b	0x24544 <_ZN11ChiMetadata12AddReferenceEPKc+0x22c>
   244cc: 1e 00 00 14  	b	0x24544 <_ZN11ChiMetadata12AddReferenceEPKc+0x22c>
   244d4: 1c 00 00 14  	b	0x24544 <_ZN11ChiMetadata12AddReferenceEPKc+0x22c>
   244dc: 1a 00 00 14  	b	0x24544 <_ZN11ChiMetadata12AddReferenceEPKc+0x22c>
   244e4: 18 00 00 14  	b	0x24544 <_ZN11ChiMetadata12AddReferenceEPKc+0x22c>
   244ec: 16 00 00 14  	b	0x24544 <_ZN11ChiMetadata12AddReferenceEPKc+0x22c>
   244f4: 14 00 00 14  	b	0x24544 <_ZN11ChiMetadata12AddReferenceEPKc+0x22c>
   244fc: 12 00 00 14  	b	0x24544 <_ZN11ChiMetadata12AddReferenceEPKc+0x22c>
   24504: 10 00 00 14  	b	0x24544 <_ZN11ChiMetadata12AddReferenceEPKc+0x22c>
   2450c: 0e 00 00 14  	b	0x24544 <_ZN11ChiMetadata12AddReferenceEPKc+0x22c>
   24514: 0c 00 00 14  	b	0x24544 <_ZN11ChiMetadata12AddReferenceEPKc+0x22c>
   2451c: 0a 00 00 14  	b	0x24544 <_ZN11ChiMetadata12AddReferenceEPKc+0x22c>
   24524: 08 00 00 14  	b	0x24544 <_ZN11ChiMetadata12AddReferenceEPKc+0x22c>
   2452c: 06 00 00 14  	b	0x24544 <_ZN11ChiMetadata12AddReferenceEPKc+0x22c>
   24534: 04 00 00 14  	b	0x24544 <_ZN11ChiMetadata12AddReferenceEPKc+0x22c>
   2453c: 02 00 00 14  	b	0x24544 <_ZN11ChiMetadata12AddReferenceEPKc+0x22c>
   24548: 48 00 00 b0  	adrp	x8, 0x2d000 <_ZN11ChiMetadata12AddReferenceEPKc+0x254>
   24554: 68 05 28 36  	tbz	w8, #5, 0x24600 <_ZN11ChiMetadata12AddReferenceEPKc+0x2e8>
   24558: 49 00 00 b0  	adrp	x9, 0x2d000 <_ZN11ChiMetadata12AddReferenceEPKc+0x264>
   2455c: 35 ff ff f0  	adrp	x21, 0xb000 <_ZN11ChiMetadata12AddReferenceEPKc+0x1e0>
   24570: 41 02 00 54  	b.ne	0x245b8 <_ZN11ChiMetadata12AddReferenceEPKc+0x2a0>
   2458c: 41 ff ff b0  	adrp	x1, 0xd000 <_ZN11ChiMetadata12AddReferenceEPKc+0x218>
   24590: 22 ff ff b0  	adrp	x2, 0x9000 <_ZN11ChiMetadata12AddReferenceEPKc+0x20c>
   24594: 45 ff ff d0  	adrp	x5, 0xe000 <_ZN11ChiMetadata12AddReferenceEPKc+0x224>
   245d4: 40 ff ff b0  	adrp	x0, 0xd000 <_ZN11ChiMetadata12AddReferenceEPKc+0x260>
   245d8: 41 ff ff 90  	adrp	x1, 0xc000 <_ZN11ChiMetadata12AddReferenceEPKc+0x260>
   245dc: 43 ff ff d0  	adrp	x3, 0xe000 <_ZN11ChiMetadata12AddReferenceEPKc+0x26c>
   245e0: 25 ff ff b0  	adrp	x5, 0x9000 <_ZN11ChiMetadata12AddReferenceEPKc+0x25c>
   245fc: d1 1e 00 94  	bl	0x2c140 <_ZN6ChiLog9LogSystemEPKcS1_S1_S1_iS1_z@plt>
   24608: 60 00 00 54  	b.eq	0x24614 <_ZN11ChiMetadata12AddReferenceEPKc+0x2fc>
   2460c: 85 1f 00 94  	bl	0x2c420 <_ZNSt3__16chrono12steady_clock3nowEv@plt>
   24624: c1 00 00 54  	b.ne	0x2463c <_ZN11ChiMetadata12AddReferenceEPKc+0x324>
0000000000024640 <_ZN11ChiMetadata16ReleaseReferenceEPKc>:
   24688: d3 18 00 b4  	cbz	x19, 0x249a0 <_ZN11ChiMetadata16ReleaseReferenceEPKc+0x360>
   2468c: a0 18 00 35  	cbnz	w0, 0x249a0 <_ZN11ChiMetadata16ReleaseReferenceEPKc+0x360>
   24698: 40 0b 00 54  	b.eq	0x24800 <_ZN11ChiMetadata16ReleaseReferenceEPKc+0x1c0>
   246a4: 20 0b 00 54  	b.eq	0x24808 <_ZN11ChiMetadata16ReleaseReferenceEPKc+0x1c8>
   246b0: 00 0b 00 54  	b.eq	0x24810 <_ZN11ChiMetadata16ReleaseReferenceEPKc+0x1d0>
   246bc: e0 0a 00 54  	b.eq	0x24818 <_ZN11ChiMetadata16ReleaseReferenceEPKc+0x1d8>
   246c8: c0 0a 00 54  	b.eq	0x24820 <_ZN11ChiMetadata16ReleaseReferenceEPKc+0x1e0>
   246d4: a0 0a 00 54  	b.eq	0x24828 <_ZN11ChiMetadata16ReleaseReferenceEPKc+0x1e8>
   246e0: 80 0a 00 54  	b.eq	0x24830 <_ZN11ChiMetadata16ReleaseReferenceEPKc+0x1f0>
   246ec: 60 0a 00 54  	b.eq	0x24838 <_ZN11ChiMetadata16ReleaseReferenceEPKc+0x1f8>
   246f8: 40 0a 00 54  	b.eq	0x24840 <_ZN11ChiMetadata16ReleaseReferenceEPKc+0x200>
   24704: 20 0a 00 54  	b.eq	0x24848 <_ZN11ChiMetadata16ReleaseReferenceEPKc+0x208>
   24710: 00 0a 00 54  	b.eq	0x24850 <_ZN11ChiMetadata16ReleaseReferenceEPKc+0x210>
   2471c: e0 09 00 54  	b.eq	0x24858 <_ZN11ChiMetadata16ReleaseReferenceEPKc+0x218>
   24728: c0 09 00 54  	b.eq	0x24860 <_ZN11ChiMetadata16ReleaseReferenceEPKc+0x220>
   24734: a0 09 00 54  	b.eq	0x24868 <_ZN11ChiMetadata16ReleaseReferenceEPKc+0x228>
   24740: 80 09 00 54  	b.eq	0x24870 <_ZN11ChiMetadata16ReleaseReferenceEPKc+0x230>
   2474c: 60 09 00 54  	b.eq	0x24878 <_ZN11ChiMetadata16ReleaseReferenceEPKc+0x238>
   24758: 40 09 00 54  	b.eq	0x24880 <_ZN11ChiMetadata16ReleaseReferenceEPKc+0x240>
   24764: 20 09 00 54  	b.eq	0x24888 <_ZN11ChiMetadata16ReleaseReferenceEPKc+0x248>
   24770: 00 09 00 54  	b.eq	0x24890 <_ZN11ChiMetadata16ReleaseReferenceEPKc+0x250>
   2477c: e0 08 00 54  	b.eq	0x24898 <_ZN11ChiMetadata16ReleaseReferenceEPKc+0x258>
   24788: c0 08 00 54  	b.eq	0x248a0 <_ZN11ChiMetadata16ReleaseReferenceEPKc+0x260>
   24794: a0 08 00 54  	b.eq	0x248a8 <_ZN11ChiMetadata16ReleaseReferenceEPKc+0x268>
   247a0: 80 08 00 54  	b.eq	0x248b0 <_ZN11ChiMetadata16ReleaseReferenceEPKc+0x270>
   247ac: 60 08 00 54  	b.eq	0x248b8 <_ZN11ChiMetadata16ReleaseReferenceEPKc+0x278>
   247b8: 40 08 00 54  	b.eq	0x248c0 <_ZN11ChiMetadata16ReleaseReferenceEPKc+0x280>
   247c4: 20 08 00 54  	b.eq	0x248c8 <_ZN11ChiMetadata16ReleaseReferenceEPKc+0x288>
   247d0: 00 08 00 54  	b.eq	0x248d0 <_ZN11ChiMetadata16ReleaseReferenceEPKc+0x290>
   247dc: e0 07 00 54  	b.eq	0x248d8 <_ZN11ChiMetadata16ReleaseReferenceEPKc+0x298>
   247e8: c0 07 00 54  	b.eq	0x248e0 <_ZN11ChiMetadata16ReleaseReferenceEPKc+0x2a0>
   247f4: a1 07 00 54  	b.ne	0x248e8 <_ZN11ChiMetadata16ReleaseReferenceEPKc+0x2a8>
   247fc: 3a 00 00 14  	b	0x248e4 <_ZN11ChiMetadata16ReleaseReferenceEPKc+0x2a4>
   24804: 38 00 00 14  	b	0x248e4 <_ZN11ChiMetadata16ReleaseReferenceEPKc+0x2a4>
   2480c: 36 00 00 14  	b	0x248e4 <_ZN11ChiMetadata16ReleaseReferenceEPKc+0x2a4>
   24814: 34 00 00 14  	b	0x248e4 <_ZN11ChiMetadata16ReleaseReferenceEPKc+0x2a4>
   2481c: 32 00 00 14  	b	0x248e4 <_ZN11ChiMetadata16ReleaseReferenceEPKc+0x2a4>
   24824: 30 00 00 14  	b	0x248e4 <_ZN11ChiMetadata16ReleaseReferenceEPKc+0x2a4>
   2482c: 2e 00 00 14  	b	0x248e4 <_ZN11ChiMetadata16ReleaseReferenceEPKc+0x2a4>
   24834: 2c 00 00 14  	b	0x248e4 <_ZN11ChiMetadata16ReleaseReferenceEPKc+0x2a4>
   2483c: 2a 00 00 14  	b	0x248e4 <_ZN11ChiMetadata16ReleaseReferenceEPKc+0x2a4>
   24844: 28 00 00 14  	b	0x248e4 <_ZN11ChiMetadata16ReleaseReferenceEPKc+0x2a4>
   2484c: 26 00 00 14  	b	0x248e4 <_ZN11ChiMetadata16ReleaseReferenceEPKc+0x2a4>
   24854: 24 00 00 14  	b	0x248e4 <_ZN11ChiMetadata16ReleaseReferenceEPKc+0x2a4>
   2485c: 22 00 00 14  	b	0x248e4 <_ZN11ChiMetadata16ReleaseReferenceEPKc+0x2a4>
   24864: 20 00 00 14  	b	0x248e4 <_ZN11ChiMetadata16ReleaseReferenceEPKc+0x2a4>
   2486c: 1e 00 00 14  	b	0x248e4 <_ZN11ChiMetadata16ReleaseReferenceEPKc+0x2a4>
   24874: 1c 00 00 14  	b	0x248e4 <_ZN11ChiMetadata16ReleaseReferenceEPKc+0x2a4>
   2487c: 1a 00 00 14  	b	0x248e4 <_ZN11ChiMetadata16ReleaseReferenceEPKc+0x2a4>
   24884: 18 00 00 14  	b	0x248e4 <_ZN11ChiMetadata16ReleaseReferenceEPKc+0x2a4>
   2488c: 16 00 00 14  	b	0x248e4 <_ZN11ChiMetadata16ReleaseReferenceEPKc+0x2a4>
   24894: 14 00 00 14  	b	0x248e4 <_ZN11ChiMetadata16ReleaseReferenceEPKc+0x2a4>
   2489c: 12 00 00 14  	b	0x248e4 <_ZN11ChiMetadata16ReleaseReferenceEPKc+0x2a4>
   248a4: 10 00 00 14  	b	0x248e4 <_ZN11ChiMetadata16ReleaseReferenceEPKc+0x2a4>
   248ac: 0e 00 00 14  	b	0x248e4 <_ZN11ChiMetadata16ReleaseReferenceEPKc+0x2a4>
   248b4: 0c 00 00 14  	b	0x248e4 <_ZN11ChiMetadata16ReleaseReferenceEPKc+0x2a4>
   248bc: 0a 00 00 14  	b	0x248e4 <_ZN11ChiMetadata16ReleaseReferenceEPKc+0x2a4>
   248c4: 08 00 00 14  	b	0x248e4 <_ZN11ChiMetadata16ReleaseReferenceEPKc+0x2a4>
   248cc: 06 00 00 14  	b	0x248e4 <_ZN11ChiMetadata16ReleaseReferenceEPKc+0x2a4>
   248d4: 04 00 00 14  	b	0x248e4 <_ZN11ChiMetadata16ReleaseReferenceEPKc+0x2a4>
   248dc: 02 00 00 14  	b	0x248e4 <_ZN11ChiMetadata16ReleaseReferenceEPKc+0x2a4>
   248e8: 48 00 00 b0  	adrp	x8, 0x2d000 <_ZN11ChiMetadata16ReleaseReferenceEPKc+0x2cc>
   248f4: 68 05 28 36  	tbz	w8, #5, 0x249a0 <_ZN11ChiMetadata16ReleaseReferenceEPKc+0x360>
   248f8: 49 00 00 b0  	adrp	x9, 0x2d000 <_ZN11ChiMetadata16ReleaseReferenceEPKc+0x2dc>
   248fc: 35 ff ff f0  	adrp	x21, 0xb000 <_ZN11ChiMetadata16ReleaseReferenceEPKc+0x258>
   24910: 41 02 00 54  	b.ne	0x24958 <_ZN11ChiMetadata16ReleaseReferenceEPKc+0x318>
   2492c: 41 ff ff b0  	adrp	x1, 0xd000 <_ZN11ChiMetadata16ReleaseReferenceEPKc+0x290>
   24930: 42 ff ff b0  	adrp	x2, 0xd000 <_ZN11ChiMetadata16ReleaseReferenceEPKc+0x294>
   24934: 25 ff ff d0  	adrp	x5, 0xa000 <_ZN11ChiMetadata16ReleaseReferenceEPKc+0x28c>
   24974: 40 ff ff b0  	adrp	x0, 0xd000 <_ZN11ChiMetadata16ReleaseReferenceEPKc+0x2d8>
   24978: 41 ff ff 90  	adrp	x1, 0xc000 <_ZN11ChiMetadata16ReleaseReferenceEPKc+0x2d8>
   2497c: 23 ff ff d0  	adrp	x3, 0xa000 <_ZN11ChiMetadata16ReleaseReferenceEPKc+0x2d4>
   24980: 25 ff ff f0  	adrp	x5, 0xb000 <_ZN11ChiMetadata16ReleaseReferenceEPKc+0x2dc>
   2499c: e9 1d 00 94  	bl	0x2c140 <_ZN6ChiLog9LogSystemEPKcS1_S1_S1_iS1_z@plt>
   249b0: c1 00 00 54  	b.ne	0x249c8 <_ZN11ChiMetadata16ReleaseReferenceEPKc+0x388>
00000000000249d0 <_ZN11ChiMetadata20ReleaseAllReferencesEi>:
00000000000249e0 <_ZN11ChiMetadata8IteratorC2ERS_>:
0000000000024a00 <_ZN11ChiMetadata8IteratorD2Ev>:
0000000000024a10 <_ZN11ChiMetadata8Iterator5BeginEv>:
0000000000024a38 <_ZN11ChiMetadata8Iterator4NextEv>:
0000000000024a60 <_ZN11ChiMetadata8Iterator3GetER16ChiMetadataEntry>:
0000000000024a88 <_ZN11ChiMetadata19DumpAndroidMetadataEPK15camera_metadataPKc>:
   24a94: 40 02 00 b4  	cbz	x0, 0x24adc <_ZN11ChiMetadata19DumpAndroidMetadataEPK15camera_metadataPKc+0x54>
   24a98: 21 02 00 b4  	cbz	x1, 0x24adc <_ZN11ChiMetadata19DumpAndroidMetadataEPK15camera_metadataPKc+0x54>
   24ab4: 40 01 f8 37  	tbnz	w0, #31, 0x24adc <_ZN11ChiMetadata19DumpAndroidMetadataEPK15camera_metadataPKc+0x54>
0000000000024ae8 <_ZN18ChiMetadataManager10MetaClientC2Ev>:
   24b94: a3 fb ff 54  	b.lo	0x24b08 <_ZN18ChiMetadataManager10MetaClientC2Ev+0x20>
0000000000024c50 <_ZN18ChiMetadataManager10MetaClientD2Ev>:
   24c60: 1c 1f 00 94  	bl	0x2c8d0 <_ZN18ChiMetadataManager10MetaClient14ReleaseBuffersEv@plt>
   24c68: a0 00 00 b4  	cbz	x0, 0x24c7c <_ZN18ChiMetadataManager10MetaClientD2Ev+0x2c>
   24c78: b4 ff ff b5  	cbnz	x20, 0x24c6c <_ZN18ChiMetadataManager10MetaClientD2Ev+0x1c>
   24c84: 40 00 00 b4  	cbz	x0, 0x24c8c <_ZN18ChiMetadataManager10MetaClientD2Ev+0x3c>
   24c90: 00 1e 00 94  	bl	0x2c490 <_ZNSt3__15mutexD1Ev@plt>
   24c98: a0 00 00 b4  	cbz	x0, 0x24cac <_ZN18ChiMetadataManager10MetaClientD2Ev+0x5c>
0000000000024cb8 <_ZN18ChiMetadataManager10MetaClient14ReleaseBuffersEv>:
   24cd8: 5c 00 00 b0  	adrp	x28, 0x2d000 <_ZN18ChiMetadataManager10MetaClient14ReleaseBuffersEv+0x44>
   24cdc: 3b ff ff f0  	adrp	x27, 0xb000 <_ZN18ChiMetadataManager10MetaClientD2Ev+0x28>
   24cf0: a9 06 18 36  	tbz	w9, #3, 0x24dc4 <_ZN18ChiMetadataManager10MetaClient14ReleaseBuffersEv+0x10c>
   24cf4: 49 00 00 b0  	adrp	x9, 0x2d000 <_ZN18ChiMetadataManager10MetaClient14ReleaseBuffersEv+0x60>
   24d04: 01 03 00 54  	b.ne	0x24d64 <_ZN18ChiMetadataManager10MetaClient14ReleaseBuffersEv+0xac>
   24d20: 41 ff ff b0  	adrp	x1, 0xd000 <_ZN18ChiMetadataManager10MetaClient14ReleaseBuffersEv+0xc>
   24d28: 22 ff ff d0  	adrp	x2, 0xa000 <_ZN18ChiMetadataManager10MetaClient14ReleaseBuffersEv+0x8>
   24d30: 25 ff ff b0  	adrp	x5, 0x9000 <_ZN18ChiMetadataManager10MetaClient14ReleaseBuffersEv+0xc>
   24d7c: 21 ff ff f0  	adrp	x1, 0xb000 <_ZN18ChiMetadataManager10MetaClient14ReleaseBuffersEv+0x60>
   24d8c: 40 ff ff d0  	adrp	x0, 0xe000 <_ZN18ChiMetadataManager10MetaClient14ReleaseBuffersEv+0x7c>
   24d90: 23 ff ff b0  	adrp	x3, 0x9000 <_ZN18ChiMetadataManager10MetaClient14ReleaseBuffersEv+0x6c>
   24d94: 45 ff ff d0  	adrp	x5, 0xe000 <_ZN18ChiMetadataManager10MetaClient14ReleaseBuffersEv+0x84>
   24dc0: e0 1c 00 94  	bl	0x2c140 <_ZN6ChiLog9LogSystemEPKcS1_S1_S1_iS1_z@plt>
   24dcc: 61 01 00 54  	b.ne	0x24df8 <_ZN18ChiMetadataManager10MetaClient14ReleaseBuffersEv+0x140>
   24e0c: 09 00 00 14  	b	0x24e30 <_ZN18ChiMetadataManager10MetaClient14ReleaseBuffersEv+0x178>
   24e2c: 42 fd ff 54  	b.hs	0x24dd4 <_ZN18ChiMetadataManager10MetaClient14ReleaseBuffersEv+0x11c>
   24e38: d3 fe ff b4  	cbz	x19, 0x24e10 <_ZN18ChiMetadataManager10MetaClient14ReleaseBuffersEv+0x158>
   24e50: 00 0b 00 34  	cbz	w0, 0x24fb0 <_ZN18ChiMetadataManager10MetaClient14ReleaseBuffersEv+0x2f8>
   24e5c: 88 05 00 36  	tbz	w8, #0, 0x24f0c <_ZN18ChiMetadataManager10MetaClient14ReleaseBuffersEv+0x254>
   24e60: 4a 00 00 b0  	adrp	x10, 0x2d000 <_ZN18ChiMetadataManager10MetaClient14ReleaseBuffersEv+0x1cc>
   24e70: 61 02 00 54  	b.ne	0x24ebc <_ZN18ChiMetadataManager10MetaClient14ReleaseBuffersEv+0x204>
   24e8c: 41 ff ff b0  	adrp	x1, 0xd000 <_ZN18ChiMetadataManager10MetaClient14ReleaseBuffersEv+0x178>
   24e90: 22 ff ff d0  	adrp	x2, 0xa000 <_ZN18ChiMetadataManager10MetaClient14ReleaseBuffersEv+0x170>
   24e94: 25 ff ff f0  	adrp	x5, 0xb000 <_ZN18ChiMetadataManager10MetaClient14ReleaseBuffersEv+0x178>
   24ed8: 20 ff ff b0  	adrp	x0, 0x9000 <_ZN18ChiMetadataManager10MetaClient14ReleaseBuffersEv+0x1b4>
   24edc: 41 ff ff b0  	adrp	x1, 0xd000 <_ZN18ChiMetadataManager10MetaClient14ReleaseBuffersEv+0x1c8>
   24ee0: 23 ff ff f0  	adrp	x3, 0xb000 <_ZN18ChiMetadataManager10MetaClient14ReleaseBuffersEv+0x1c4>
   24ee4: 25 ff ff d0  	adrp	x5, 0xa000 <_ZN18ChiMetadataManager10MetaClient14ReleaseBuffersEv+0x1c4>
   24f04: 8f 1c 00 94  	bl	0x2c140 <_ZN6ChiLog9LogSystemEPKcS1_S1_S1_iS1_z@plt>
   24f0c: 48 f8 07 36  	tbz	w8, #0, 0x24e14 <_ZN18ChiMetadataManager10MetaClient14ReleaseBuffersEv+0x15c>
   24f10: 48 00 00 b0  	adrp	x8, 0x2d000 <_ZN18ChiMetadataManager10MetaClient14ReleaseBuffersEv+0x27c>
   24f24: 21 02 00 54  	b.ne	0x24f68 <_ZN18ChiMetadataManager10MetaClient14ReleaseBuffersEv+0x2b0>
   24f3c: 41 ff ff b0  	adrp	x1, 0xd000 <_ZN18ChiMetadataManager10MetaClient14ReleaseBuffersEv+0x228>
   24f40: 22 ff ff d0  	adrp	x2, 0xa000 <_ZN18ChiMetadataManager10MetaClient14ReleaseBuffersEv+0x220>
   24f44: 25 ff ff b0  	adrp	x5, 0x9000 <_ZN18ChiMetadataManager10MetaClient14ReleaseBuffersEv+0x220>
   24f7c: 41 ff ff b0  	adrp	x1, 0xd000 <_ZN18ChiMetadataManager10MetaClient14ReleaseBuffersEv+0x268>
   24f84: 20 ff ff b0  	adrp	x0, 0x9000 <_ZN18ChiMetadataManager10MetaClient14ReleaseBuffersEv+0x260>
   24f88: 23 ff ff b0  	adrp	x3, 0x9000 <_ZN18ChiMetadataManager10MetaClient14ReleaseBuffersEv+0x264>
   24f8c: 45 ff ff 90  	adrp	x5, 0xc000 <_ZN18ChiMetadataManager10MetaClient14ReleaseBuffersEv+0x274>
   24fa8: 66 1c 00 94  	bl	0x2c140 <_ZN6ChiLog9LogSystemEPKcS1_S1_S1_iS1_z@plt>
   24fac: 9a ff ff 17  	b	0x24e14 <_ZN18ChiMetadataManager10MetaClient14ReleaseBuffersEv+0x15c>
   24fc0: 95 ff ff 17  	b	0x24e14 <_ZN18ChiMetadataManager10MetaClient14ReleaseBuffersEv+0x15c>
0000000000024fc8 <_ZN18ChiMetadataManager10MetaClient12TrackBuffersERNSt3__16chrono10time_pointINS2_12steady_clockENS2_8durationIxNS1_5ratioILl1ELl1000000000EEEEEEEj>:
   24ff8: a0 00 00 54  	b.eq	0x2500c <_ZN18ChiMetadataManager10MetaClient12TrackBuffersERNSt3__16chrono10time_pointINS2_12steady_clockENS2_8durationIxNS1_5ratioILl1ELl1000000000EEEEEEEj+0x44>
   25008: a1 01 00 54  	b.ne	0x2503c <_ZN18ChiMetadataManager10MetaClient12TrackBuffersERNSt3__16chrono10time_pointINS2_12steady_clockENS2_8durationIxNS1_5ratioILl1ELl1000000000EEEEEEEj+0x74>
   25018: 01 12 00 54  	b.ne	0x25258 <_ZN18ChiMetadataManager10MetaClient12TrackBuffersERNSt3__16chrono10time_pointINS2_12steady_clockENS2_8durationIxNS1_5ratioILl1ELl1000000000EEEEEEEj+0x290>
   2503c: 57 00 00 90  	adrp	x23, 0x2d000 <_ZN18ChiMetadataManager10MetaClient12TrackBuffersERNSt3__16chrono10time_pointINS2_12steady_clockENS2_8durationIxNS1_5ratioILl1ELl1000000000EEEEEEEj+0x94>
   25070: 39 00 00 14  	b	0x25154 <_ZN18ChiMetadataManager10MetaClient12TrackBuffersERNSt3__16chrono10time_pointINS2_12steady_clockENS2_8durationIxNS1_5ratioILl1ELl1000000000EEEEEEEj+0x18c>
   25074: 3a ff ff d0  	adrp	x26, 0xb000 <_ZN18ChiMetadataManager10MetaClient12TrackBuffersERNSt3__16chrono10time_pointINS2_12steady_clockENS2_8durationIxNS1_5ratioILl1ELl1000000000EEEEEEEj+0x44>
   250c4: 40 ff ff 90  	adrp	x0, 0xd000 <_ZN18ChiMetadataManager10MetaClient12TrackBuffersERNSt3__16chrono10time_pointINS2_12steady_clockENS2_8durationIxNS1_5ratioILl1ELl1000000000EEEEEEEj+0x9c>
   250c8: 21 ff ff f0  	adrp	x1, 0xc000 <_ZN18ChiMetadataManager10MetaClient12TrackBuffersERNSt3__16chrono10time_pointINS2_12steady_clockENS2_8durationIxNS1_5ratioILl1ELl1000000000EEEEEEEj+0x9c>
   250cc: 23 ff ff 90  	adrp	x3, 0x9000 <_ZN18ChiMetadataManager10MetaClient12TrackBuffersERNSt3__16chrono10time_pointINS2_12steady_clockENS2_8durationIxNS1_5ratioILl1ELl1000000000EEEEEEEj+0x94>
   250d0: 45 ff ff b0  	adrp	x5, 0xe000 <_ZN18ChiMetadataManager10MetaClient12TrackBuffersERNSt3__16chrono10time_pointINS2_12steady_clockENS2_8durationIxNS1_5ratioILl1ELl1000000000EEEEEEEj+0xac>
   2510c: 0d 1c 00 94  	bl	0x2c140 <_ZN6ChiLog9LogSystemEPKcS1_S1_S1_iS1_z@plt>
   25110: 57 00 00 90  	adrp	x23, 0x2d000 <_ZN18ChiMetadataManager10MetaClient12TrackBuffersERNSt3__16chrono10time_pointINS2_12steady_clockENS2_8durationIxNS1_5ratioILl1ELl1000000000EEEEEEEj+0x168>
   25150: e2 f5 ff 54  	b.hs	0x2500c <_ZN18ChiMetadataManager10MetaClient12TrackBuffersERNSt3__16chrono10time_pointINS2_12steady_clockENS2_8durationIxNS1_5ratioILl1ELl1000000000EEEEEEEj+0x44>
   2515c: 08 ff ff 35  	cbnz	w8, 0x2513c <_ZN18ChiMetadataManager10MetaClient12TrackBuffersERNSt3__16chrono10time_pointINS2_12steady_clockENS2_8durationIxNS1_5ratioILl1ELl1000000000EEEEEEEj+0x174>
   251a0: e0 fc ff 54  	b.eq	0x2513c <_ZN18ChiMetadataManager10MetaClient12TrackBuffersERNSt3__16chrono10time_pointINS2_12steady_clockENS2_8durationIxNS1_5ratioILl1ELl1000000000EEEEEEEj+0x174>
   251a8: 2a fc 2f 36  	tbz	w10, #5, 0x2512c <_ZN18ChiMetadataManager10MetaClient12TrackBuffersERNSt3__16chrono10time_pointINS2_12steady_clockENS2_8durationIxNS1_5ratioILl1ELl1000000000EEEEEEEj+0x164>
   251ac: 4a 00 00 90  	adrp	x10, 0x2d000 <_ZN18ChiMetadataManager10MetaClient12TrackBuffersERNSt3__16chrono10time_pointINS2_12steady_clockENS2_8durationIxNS1_5ratioILl1ELl1000000000EEEEEEEj+0x204>
   251c0: a1 f5 ff 54  	b.ne	0x25074 <_ZN18ChiMetadataManager10MetaClient12TrackBuffersERNSt3__16chrono10time_pointINS2_12steady_clockENS2_8durationIxNS1_5ratioILl1ELl1000000000EEEEEEEj+0xac>
   251c4: 39 ff ff d0  	adrp	x25, 0xb000 <_ZN18ChiMetadataManager10MetaClient12TrackBuffersERNSt3__16chrono10time_pointINS2_12steady_clockENS2_8durationIxNS1_5ratioILl1ELl1000000000EEEEEEEj+0x194>
   25214: 41 ff ff 90  	adrp	x1, 0xd000 <_ZN18ChiMetadataManager10MetaClient12TrackBuffersERNSt3__16chrono10time_pointINS2_12steady_clockENS2_8durationIxNS1_5ratioILl1ELl1000000000EEEEEEEj+0x1ec>
   25218: 42 ff ff 90  	adrp	x2, 0xd000 <_ZN18ChiMetadataManager10MetaClient12TrackBuffersERNSt3__16chrono10time_pointINS2_12steady_clockENS2_8durationIxNS1_5ratioILl1ELl1000000000EEEEEEEj+0x1f0>
   2521c: 25 ff ff 90  	adrp	x5, 0x9000 <_ZN18ChiMetadataManager10MetaClient12TrackBuffersERNSt3__16chrono10time_pointINS2_12steady_clockENS2_8durationIxNS1_5ratioILl1ELl1000000000EEEEEEEj+0x1e4>
   25254: 88 ff ff 17  	b	0x25074 <_ZN18ChiMetadataManager10MetaClient12TrackBuffersERNSt3__16chrono10time_pointINS2_12steady_clockENS2_8durationIxNS1_5ratioILl1ELl1000000000EEEEEEEj+0xac>
0000000000025260 <_ZN18ChiMetadataManager10MetaClient9SubClientC2Ev>:
0000000000025270 <_ZN18ChiMetadataManager10MetaClient10MetaHolderC2EP11ChiMetadata>:
0000000000025280 <_ZN18ChiMetadataManager10MetaClient15AllocateBuffersEPjjjjj>:
   252a0: 53 00 00 90  	adrp	x19, 0x2d000 <_ZN18ChiMetadataManager10MetaClient15AllocateBuffersEPjjjjj+0x40>
   252c8: 43 1c 00 34  	cbz	w3, 0x25650 <_ZN18ChiMetadataManager10MetaClient15AllocateBuffersEPjjjjj+0x3d0>
   252e4: a2 21 00 54  	b.hs	0x25718 <_ZN18ChiMetadataManager10MetaClient15AllocateBuffersEPjjjjj+0x498>
   25300: 56 02 00 b4  	cbz	x22, 0x25348 <_ZN18ChiMetadataManager10MetaClient15AllocateBuffersEPjjjjj+0xc8>
   25304: 39 02 00 34  	cbz	w25, 0x25348 <_ZN18ChiMetadataManager10MetaClient15AllocateBuffersEPjjjjj+0xc8>
   25310: 70 00 00 14  	b	0x254d0 <_ZN18ChiMetadataManager10MetaClient15AllocateBuffersEPjjjjj+0x250>
   25344: a2 1f 00 54  	b.hs	0x25738 <_ZN18ChiMetadataManager10MetaClient15AllocateBuffersEPjjjjj+0x4b8>
   25358: 20 1f 00 b4  	cbz	x0, 0x2573c <_ZN18ChiMetadataManager10MetaClient15AllocateBuffersEPjjjjj+0x4bc>
   25364: 27 1d 00 94  	bl	0x2c800 <_ZN11ChiMetadata21InitializeMetadataOpsEP14ChiMetadataOps@plt>
   25368: 00 1e 00 35  	cbnz	w0, 0x25728 <_ZN18ChiMetadataManager10MetaClient15AllocateBuffersEPjjjjj+0x4a8>
   253c8: 00 1b 00 35  	cbnz	w0, 0x25728 <_ZN18ChiMetadataManager10MetaClient15AllocateBuffersEPjjjjj+0x4a8>
   253dc: c3 f9 ff 54  	b.lo	0x25314 <_ZN18ChiMetadataManager10MetaClient15AllocateBuffersEPjjjjj+0x94>
   253f4: c2 28 00 b5  	cbnz	x2, 0x2590c <_ZN18ChiMetadataManager10MetaClient15AllocateBuffersEPjjjjj+0x68c>
   25418: 1c 01 00 b4  	cbz	x28, 0x25438 <_ZN18ChiMetadataManager10MetaClient15AllocateBuffersEPjjjjj+0x1b8>
   25420: a9 27 00 b5  	cbnz	x9, 0x25914 <_ZN18ChiMetadataManager10MetaClient15AllocateBuffersEPjjjjj+0x694>
   25434: 02 00 00 14  	b	0x2543c <_ZN18ChiMetadataManager10MetaClient15AllocateBuffersEPjjjjj+0x1bc>
   2546c: ab 00 00 54  	b.lt	0x25480 <_ZN18ChiMetadataManager10MetaClient15AllocateBuffersEPjjjjj+0x200>
   2548c: 99 f5 ff b4  	cbz	x25, 0x2533c <_ZN18ChiMetadataManager10MetaClient15AllocateBuffersEPjjjjj+0xbc>
   25498: a9 ff ff 17  	b	0x2533c <_ZN18ChiMetadataManager10MetaClient15AllocateBuffersEPjjjjj+0xbc>
   254cc: 62 13 00 54  	b.hs	0x25738 <_ZN18ChiMetadataManager10MetaClient15AllocateBuffersEPjjjjj+0x4b8>
   254e0: e0 12 00 b4  	cbz	x0, 0x2573c <_ZN18ChiMetadataManager10MetaClient15AllocateBuffersEPjjjjj+0x4bc>
   254ec: c5 1c 00 94  	bl	0x2c800 <_ZN11ChiMetadata21InitializeMetadataOpsEP14ChiMetadataOps@plt>
   254f0: c0 11 00 35  	cbnz	w0, 0x25728 <_ZN18ChiMetadataManager10MetaClient15AllocateBuffersEPjjjjj+0x4a8>
   25554: a0 0e 00 35  	cbnz	w0, 0x25728 <_ZN18ChiMetadataManager10MetaClient15AllocateBuffersEPjjjjj+0x4a8>
   25568: a3 f9 ff 54  	b.lo	0x2549c <_ZN18ChiMetadataManager10MetaClient15AllocateBuffersEPjjjjj+0x21c>
   25588: 2f 1c 00 b5  	cbnz	x15, 0x2590c <_ZN18ChiMetadataManager10MetaClient15AllocateBuffersEPjjjjj+0x68c>
   255b4: 19 01 00 b4  	cbz	x25, 0x255d4 <_ZN18ChiMetadataManager10MetaClient15AllocateBuffersEPjjjjj+0x354>
   255bc: c6 1a 00 b5  	cbnz	x6, 0x25914 <_ZN18ChiMetadataManager10MetaClient15AllocateBuffersEPjjjjj+0x694>
   255d0: 02 00 00 14  	b	0x255d8 <_ZN18ChiMetadataManager10MetaClient15AllocateBuffersEPjjjjj+0x358>
   25604: ab 00 00 54  	b.lt	0x25618 <_ZN18ChiMetadataManager10MetaClient15AllocateBuffersEPjjjjj+0x398>
   25640: 3b f4 ff b4  	cbz	x27, 0x254c4 <_ZN18ChiMetadataManager10MetaClient15AllocateBuffersEPjjjjj+0x244>
   2564c: 9e ff ff 17  	b	0x254c4 <_ZN18ChiMetadataManager10MetaClient15AllocateBuffersEPjjjjj+0x244>
   25654: e6 05 00 36  	tbz	w6, #0, 0x25710 <_ZN18ChiMetadataManager10MetaClient15AllocateBuffersEPjjjjj+0x490>
   25658: 43 00 00 90  	adrp	x3, 0x2d000 <_ZN18ChiMetadataManager10MetaClient15AllocateBuffersEPjjjjj+0x3f8>
   25668: a1 02 00 54  	b.ne	0x256bc <_ZN18ChiMetadataManager10MetaClient15AllocateBuffersEPjjjjj+0x43c>
   2566c: 3b ff ff d0  	adrp	x27, 0xb000 <_ZN18ChiMetadataManager10MetaClient15AllocateBuffersEPjjjjj+0x384>
   25688: 41 ff ff 90  	adrp	x1, 0xd000 <_ZN18ChiMetadataManager10MetaClient15AllocateBuffersEPjjjjj+0x3a8>
   2568c: 22 ff ff f0  	adrp	x2, 0xc000 <_ZN18ChiMetadataManager10MetaClient15AllocateBuffersEPjjjjj+0x3a8>
   25690: 25 ff ff b0  	adrp	x5, 0xa000 <_ZN18ChiMetadataManager10MetaClient15AllocateBuffersEPjjjjj+0x3a4>
   256bc: 3c ff ff d0  	adrp	x28, 0xb000 <_ZN18ChiMetadataManager10MetaClient15AllocateBuffersEPjjjjj+0x3d4>
   256d8: 41 ff ff 90  	adrp	x1, 0xd000 <_ZN18ChiMetadataManager10MetaClient15AllocateBuffersEPjjjjj+0x3f8>
   256e0: 20 ff ff 90  	adrp	x0, 0x9000 <_ZN18ChiMetadataManager10MetaClient15AllocateBuffersEPjjjjj+0x3f0>
   256e4: 23 ff ff b0  	adrp	x3, 0xa000 <_ZN18ChiMetadataManager10MetaClient15AllocateBuffersEPjjjjj+0x3f8>
   256e8: 45 ff ff 90  	adrp	x5, 0xd000 <_ZN18ChiMetadataManager10MetaClient15AllocateBuffersEPjjjjj+0x408>
   2570c: 8d 1a 00 94  	bl	0x2c140 <_ZN6ChiLog9LogSystemEPKcS1_S1_S1_iS1_z@plt>
   25714: 3a 00 00 14  	b	0x257fc <_ZN18ChiMetadataManager10MetaClient15AllocateBuffersEPjjjjj+0x57c>
   25720: a5 01 18 37  	tbnz	w5, #3, 0x25754 <_ZN18ChiMetadataManager10MetaClient15AllocateBuffersEPjjjjj+0x4d4>
   25724: 36 00 00 14  	b	0x257fc <_ZN18ChiMetadataManager10MetaClient15AllocateBuffersEPjjjjj+0x57c>
   25734: 02 00 00 14  	b	0x2573c <_ZN18ChiMetadataManager10MetaClient15AllocateBuffersEPjjjjj+0x4bc>
   2573c: 53 00 00 90  	adrp	x19, 0x2d000 <_ZN18ChiMetadataManager10MetaClient15AllocateBuffersEPjjjjj+0x4dc>
   25750: 65 05 18 36  	tbz	w5, #3, 0x257fc <_ZN18ChiMetadataManager10MetaClient15AllocateBuffersEPjjjjj+0x57c>
   25754: 42 00 00 90  	adrp	x2, 0x2d000 <_ZN18ChiMetadataManager10MetaClient15AllocateBuffersEPjjjjj+0x4f4>
   25758: 39 ff ff d0  	adrp	x25, 0xb000 <_ZN18ChiMetadataManager10MetaClient15AllocateBuffersEPjjjjj+0x470>
   2576c: 41 02 00 54  	b.ne	0x257b4 <_ZN18ChiMetadataManager10MetaClient15AllocateBuffersEPjjjjj+0x534>
   25784: 41 ff ff 90  	adrp	x1, 0xd000 <_ZN18ChiMetadataManager10MetaClient15AllocateBuffersEPjjjjj+0x4a4>
   25788: 22 ff ff 90  	adrp	x2, 0x9000 <_ZN18ChiMetadataManager10MetaClient15AllocateBuffersEPjjjjj+0x498>
   2578c: 25 ff ff b0  	adrp	x5, 0xa000 <_ZN18ChiMetadataManager10MetaClient15AllocateBuffersEPjjjjj+0x4a0>
   257c8: 21 ff ff d0  	adrp	x1, 0xb000 <_ZN18ChiMetadataManager10MetaClient15AllocateBuffersEPjjjjj+0x4e0>
   257d0: 40 ff ff b0  	adrp	x0, 0xe000 <_ZN18ChiMetadataManager10MetaClient15AllocateBuffersEPjjjjj+0x4f4>
   257d4: 23 ff ff b0  	adrp	x3, 0xa000 <_ZN18ChiMetadataManager10MetaClient15AllocateBuffersEPjjjjj+0x4e8>
   257d8: 25 ff ff b0  	adrp	x5, 0xa000 <_ZN18ChiMetadataManager10MetaClient15AllocateBuffersEPjjjjj+0x4ec>
   257f8: 52 1a 00 94  	bl	0x2c140 <_ZN6ChiLog9LogSystemEPKcS1_S1_S1_iS1_z@plt>
   25800: c7 01 18 37  	tbnz	w7, #3, 0x25838 <_ZN18ChiMetadataManager10MetaClient15AllocateBuffersEPjjjjj+0x5b8>
   25810: c1 07 00 54  	b.ne	0x25908 <_ZN18ChiMetadataManager10MetaClient15AllocateBuffersEPjjjjj+0x688>
   25838: 44 00 00 90  	adrp	x4, 0x2d000 <_ZN18ChiMetadataManager10MetaClient15AllocateBuffersEPjjjjj+0x5d8>
   25848: c1 02 00 54  	b.ne	0x258a0 <_ZN18ChiMetadataManager10MetaClient15AllocateBuffersEPjjjjj+0x620>
   2584c: 39 ff ff d0  	adrp	x25, 0xb000 <_ZN18ChiMetadataManager10MetaClient15AllocateBuffersEPjjjjj+0x564>
   2586c: 41 ff ff 90  	adrp	x1, 0xd000 <_ZN18ChiMetadataManager10MetaClient15AllocateBuffersEPjjjjj+0x58c>
   25870: 22 ff ff d0  	adrp	x2, 0xb000 <_ZN18ChiMetadataManager10MetaClient15AllocateBuffersEPjjjjj+0x588>
   25874: 25 ff ff b0  	adrp	x5, 0xa000 <_ZN18ChiMetadataManager10MetaClient15AllocateBuffersEPjjjjj+0x588>
   258a0: 3c ff ff d0  	adrp	x28, 0xb000 <_ZN18ChiMetadataManager10MetaClient15AllocateBuffersEPjjjjj+0x5b8>
   258c0: 21 ff ff d0  	adrp	x1, 0xb000 <_ZN18ChiMetadataManager10MetaClient15AllocateBuffersEPjjjjj+0x5d8>
   258c8: 40 ff ff b0  	adrp	x0, 0xe000 <_ZN18ChiMetadataManager10MetaClient15AllocateBuffersEPjjjjj+0x5ec>
   258cc: 23 ff ff b0  	adrp	x3, 0xa000 <_ZN18ChiMetadataManager10MetaClient15AllocateBuffersEPjjjjj+0x5e0>
   258d0: 45 ff ff 90  	adrp	x5, 0xd000 <_ZN18ChiMetadataManager10MetaClient15AllocateBuffersEPjjjjj+0x5f0>
   258f4: 13 1a 00 94  	bl	0x2c140 <_ZN6ChiLog9LogSystemEPKcS1_S1_S1_iS1_z@plt>
   25904: 80 f8 ff 54  	b.eq	0x25814 <_ZN18ChiMetadataManager10MetaClient15AllocateBuffersEPjjjjj+0x594>
   25910: dc 1b 00 94  	bl	0x2c880 <_ZNKSt3__120__vector_base_commonILb1EE20__throw_length_errorEv@plt>
0000000000025918 <_ZN18ChiMetadataManager21AndroidMetadataHolderC2Ev>:
0000000000025928 <_ZN18ChiMetadataManager21AndroidMetadataHolderC2EP15camera_metadatabb>:
0000000000025940 <_ZN18ChiMetadataManager21AndroidMetadataHolderD2Ev>:
   25960: e0 08 00 b4  	cbz	x0, 0x25a7c <_ZN18ChiMetadataManager21AndroidMetadataHolderD2Ev+0x13c>
   25964: 48 00 00 90  	adrp	x8, 0x2d000 <_ZN18ChiMetadataManager21AndroidMetadataHolderD2Ev+0x44>
   25970: 08 08 18 36  	tbz	w8, #3, 0x25a70 <_ZN18ChiMetadataManager21AndroidMetadataHolderD2Ev+0x130>
   25974: 49 00 00 90  	adrp	x9, 0x2d000 <_ZN18ChiMetadataManager21AndroidMetadataHolderD2Ev+0x54>
   25978: 34 ff ff d0  	adrp	x20, 0xb000 <_ZN18ChiMetadataManager10MetaClient15AllocateBuffersEPjjjjj+0x690>
   2598c: 81 03 00 54  	b.ne	0x259fc <_ZN18ChiMetadataManager21AndroidMetadataHolderD2Ev+0xbc>
   259c4: 41 ff ff 90  	adrp	x1, 0xd000 <_ZN18ChiMetadataManager21AndroidMetadataHolderD2Ev+0x24>
   259c8: 22 ff ff f0  	adrp	x2, 0xc000 <_ZN18ChiMetadataManager21AndroidMetadataHolderD2Ev+0x24>
   259cc: 25 ff ff d0  	adrp	x5, 0xb000 <_ZN18ChiMetadataManager21AndroidMetadataHolderD2Ev+0x24>
   25a34: 40 ff ff b0  	adrp	x0, 0xe000 <_ZN18ChiMetadataManager21AndroidMetadataHolderD2Ev+0x98>
   25a38: 21 ff ff d0  	adrp	x1, 0xb000 <_ZN18ChiMetadataManager21AndroidMetadataHolderD2Ev+0x90>
   25a3c: 23 ff ff d0  	adrp	x3, 0xb000 <_ZN18ChiMetadataManager21AndroidMetadataHolderD2Ev+0x94>
   25a40: 25 ff ff b0  	adrp	x5, 0xa000 <_ZN18ChiMetadataManager21AndroidMetadataHolderD2Ev+0x94>
   25a68: b6 19 00 94  	bl	0x2c140 <_ZN6ChiLog9LogSystemEPKcS1_S1_S1_iS1_z@plt>
   25a70: 40 00 00 b4  	cbz	x0, 0x25a78 <_ZN18ChiMetadataManager21AndroidMetadataHolderD2Ev+0x138>
0000000000025a98 <_ZN18ChiMetadataManager6CreateEjj>:
   25d20: a3 f3 ff 54  	b.lo	0x25b94 <_ZN18ChiMetadataManager6CreateEjj+0xfc>
   25e04: c1 eb ff 54  	b.ne	0x25b7c <_ZN18ChiMetadataManager6CreateEjj+0xe4>
   25e94: 5b 1a 00 94  	bl	0x2c800 <_ZN11ChiMetadata21InitializeMetadataOpsEP14ChiMetadataOps@plt>
   25e98: 80 00 00 35  	cbnz	w0, 0x25ea8 <_ZN18ChiMetadataManager6CreateEjj+0x410>
   25ea0: 94 1a 00 94  	bl	0x2c8f0 <_ZN18ChiMetadataManager10InitializeEv@plt>
   25ea4: c0 00 00 34  	cbz	w0, 0x25ebc <_ZN18ChiMetadataManager6CreateEjj+0x424>
   25eac: 95 1a 00 94  	bl	0x2c900 <_ZN18ChiMetadataManagerD2Ev@plt>
0000000000025ee0 <_ZN18ChiMetadataManager10InitializeEv>:
   25f2c: 80 3b 00 35  	cbnz	w0, 0x2669c <_ZN18ChiMetadataManager10InitializeEv+0x7bc>
   25f34: 4f 3b 00 34  	cbz	w15, 0x2669c <_ZN18ChiMetadataManager10InitializeEv+0x7bc>
   25f80: 88 17 00 34  	cbz	w8, 0x26270 <_ZN18ChiMetadataManager10InitializeEv+0x390>
   25f94: 14 00 00 14  	b	0x25fe4 <_ZN18ChiMetadataManager10InitializeEv+0x104>
   25fa8: 67 04 00 b4  	cbz	x7, 0x26034 <_ZN18ChiMetadataManager10InitializeEv+0x154>
   25fe0: 82 14 00 54  	b.hs	0x26270 <_ZN18ChiMetadataManager10InitializeEv+0x390>
   25ff0: f4 01 00 b4  	cbz	x20, 0x2602c <_ZN18ChiMetadataManager10InitializeEv+0x14c>
   26008: 69 03 00 54  	b.ls	0x26074 <_ZN18ChiMetadataManager10InitializeEv+0x194>
   26024: 37 03 00 b5  	cbnz	x23, 0x26088 <_ZN18ChiMetadataManager10InitializeEv+0x1a8>
   26028: 36 00 00 14  	b	0x26100 <_ZN18ChiMetadataManager10InitializeEv+0x220>
   26030: 34 00 00 14  	b	0x26100 <_ZN18ChiMetadataManager10InitializeEv+0x220>
   2604c: 80 fb ff b4  	cbz	x0, 0x25fbc <_ZN18ChiMetadataManager10InitializeEv+0xdc>
   2605c: 40 0f 00 54  	b.eq	0x26244 <_ZN18ChiMetadataManager10InitializeEv+0x364>
   26064: 23 0f 00 54  	b.lo	0x26248 <_ZN18ChiMetadataManager10InitializeEv+0x368>
   26070: 76 00 00 14  	b	0x26248 <_ZN18ChiMetadataManager10InitializeEv+0x368>
   26084: f7 03 00 b4  	cbz	x23, 0x26100 <_ZN18ChiMetadataManager10InitializeEv+0x220>
   2608c: 68 02 00 54  	b.hi	0x260d8 <_ZN18ChiMetadataManager10InitializeEv+0x1f8>
   26098: 57 03 00 b4  	cbz	x23, 0x26100 <_ZN18ChiMetadataManager10InitializeEv+0x220>
   260ac: a1 02 00 54  	b.ne	0x26100 <_ZN18ChiMetadataManager10InitializeEv+0x220>
   260b8: e1 fe ff 54  	b.ne	0x26094 <_ZN18ChiMetadataManager10InitializeEv+0x1b4>
   260c0: c3 ff ff 17  	b	0x25fcc <_ZN18ChiMetadataManager10InitializeEv+0xec>
   260c8: c1 01 00 54  	b.ne	0x26100 <_ZN18ChiMetadataManager10InitializeEv+0x220>
   260d4: 40 ff ff 54  	b.eq	0x260bc <_ZN18ChiMetadataManager10InitializeEv+0x1dc>
   260dc: 37 01 00 b4  	cbz	x23, 0x26100 <_ZN18ChiMetadataManager10InitializeEv+0x220>
   260e8: 20 ff ff 54  	b.eq	0x260cc <_ZN18ChiMetadataManager10InitializeEv+0x1ec>
   260f0: a3 fe ff 54  	b.lo	0x260c4 <_ZN18ChiMetadataManager10InitializeEv+0x1e4>
   260fc: f2 ff ff 17  	b	0x260c4 <_ZN18ChiMetadataManager10InitializeEv+0x1e4>
   26134: b4 00 00 b4  	cbz	x20, 0x26148 <_ZN18ChiMetadataManager10InitializeEv+0x268>
   26144: e5 f2 ff 54  	b.pl	0x25fa0 <_ZN18ChiMetadataManager10InitializeEv+0xc0>
   26178: 61 00 00 54  	b.ne	0x26184 <_ZN18ChiMetadataManager10InitializeEv+0x2a4>
   26180: 07 00 00 14  	b	0x2619c <_ZN18ChiMetadataManager10InitializeEv+0x2bc>
   26188: a0 00 00 54  	b.eq	0x2619c <_ZN18ChiMetadataManager10InitializeEv+0x2bc>
   26190: e0 19 00 94  	bl	0x2c910 <_ZNSt3__112__next_primeEm@plt>
   261a0: a9 00 00 54  	b.ls	0x261b4 <_ZN18ChiMetadataManager10InitializeEv+0x2d4>
   261ac: 5b 16 00 94  	bl	0x2bb18 <_ZN18ChiMetadataManager15PrintAllBuffersEj+0x48>
   261b0: 1a 00 00 14  	b	0x26218 <_ZN18ChiMetadataManager10InitializeEv+0x338>
   261b4: 22 03 00 54  	b.hs	0x26218 <_ZN18ChiMetadataManager10InitializeEv+0x338>
   261d0: 23 04 00 54  	b.lo	0x26254 <_ZN18ChiMetadataManager10InitializeEv+0x374>
   261e8: 68 03 00 54  	b.hi	0x26254 <_ZN18ChiMetadataManager10InitializeEv+0x374>
   26214: a3 02 00 54  	b.lo	0x26268 <_ZN18ChiMetadataManager10InitializeEv+0x388>
   26224: a0 eb ff 54  	b.eq	0x25f98 <_ZN18ChiMetadataManager10InitializeEv+0xb8>
   2622c: 69 00 00 54  	b.ls	0x26238 <_ZN18ChiMetadataManager10InitializeEv+0x358>
   26234: 5b ff ff 17  	b	0x25fa0 <_ZN18ChiMetadataManager10InitializeEv+0xc0>
   26240: 58 ff ff 17  	b	0x25fa0 <_ZN18ChiMetadataManager10InitializeEv+0xc0>
   26250: 5b ff ff 17  	b	0x25fbc <_ZN18ChiMetadataManager10InitializeEv+0xdc>
   26254: af 19 00 94  	bl	0x2c910 <_ZNSt3__112__next_primeEm@plt>
   26264: a2 fd ff 54  	b.hs	0x26218 <_ZN18ChiMetadataManager10InitializeEv+0x338>
   2626c: d0 ff ff 17  	b	0x261ac <_ZN18ChiMetadataManager10InitializeEv+0x2cc>
   26270: f5 20 00 35  	cbnz	w21, 0x2668c <_ZN18ChiMetadataManager10InitializeEv+0x7ac>
   26298: a8 04 00 54  	b.hi	0x2632c <_ZN18ChiMetadataManager10InitializeEv+0x44c>
   262bc: e0 02 00 54  	b.eq	0x26318 <_ZN18ChiMetadataManager10InitializeEv+0x438>
   262e0: 41 ff ff 54  	b.ne	0x262c8 <_ZN18ChiMetadataManager10InitializeEv+0x3e8>
   262f4: 60 01 00 54  	b.eq	0x26320 <_ZN18ChiMetadataManager10InitializeEv+0x440>
   26304: 87 19 00 94  	bl	0x2c920 <_ZN18ChiMetadataManager21AndroidMetadataHolderD2Ev@plt>
   26310: 61 ff ff 54  	b.ne	0x262fc <_ZN18ChiMetadataManager10InitializeEv+0x41c>
   26314: 03 00 00 14  	b	0x26320 <_ZN18ChiMetadataManager10InitializeEv+0x440>
   26320: 75 00 00 b4  	cbz	x21, 0x2632c <_ZN18ChiMetadataManager10InitializeEv+0x44c>
   2633c: 68 0e 00 54  	b.hi	0x26508 <_ZN18ChiMetadataManager10InitializeEv+0x628>
   26354: 69 0f 00 54  	b.ls	0x26540 <_ZN18ChiMetadataManager10InitializeEv+0x660>
   26380: 08 20 00 b5  	cbnz	x8, 0x26780 <_ZN18ChiMetadataManager10InitializeEv+0x8a0>
   26398: ea 10 00 54  	b.ge	0x265b4 <_ZN18ChiMetadataManager10InitializeEv+0x6d4>
   2644c: a1 fb ff 54  	b.ne	0x263c0 <_ZN18ChiMetadataManager10InitializeEv+0x4e0>
   26450: ed 0b 00 b4  	cbz	x13, 0x265cc <_ZN18ChiMetadataManager10InitializeEv+0x6ec>
   26458: 09 04 00 54  	b.ls	0x264d8 <_ZN18ChiMetadataManager10InitializeEv+0x5f8>
   264d4: cc 07 00 54  	b.gt	0x265cc <_ZN18ChiMetadataManager10InitializeEv+0x6ec>
   26500: 6b ff ff 54  	b.lt	0x264ec <_ZN18ChiMetadataManager10InitializeEv+0x60c>
   26504: 32 00 00 14  	b	0x265cc <_ZN18ChiMetadataManager10InitializeEv+0x6ec>
   2650c: c0 09 00 54  	b.eq	0x26644 <_ZN18ChiMetadataManager10InitializeEv+0x764>
   26518: 00 01 00 54  	b.eq	0x26538 <_ZN18ChiMetadataManager10InitializeEv+0x658>
   26528: fe 18 00 94  	bl	0x2c920 <_ZN18ChiMetadataManager21AndroidMetadataHolderD2Ev@plt>
   26534: 61 ff ff 54  	b.ne	0x26520 <_ZN18ChiMetadataManager10InitializeEv+0x640>
   2653c: 42 00 00 14  	b	0x26644 <_ZN18ChiMetadataManager10InitializeEv+0x764>
   26544: 89 00 00 54  	b.ls	0x26554 <_ZN18ChiMetadataManager10InitializeEv+0x674>
   26550: 10 00 00 14  	b	0x26590 <_ZN18ChiMetadataManager10InitializeEv+0x6b0>
   26584: 21 ff ff 54  	b.ne	0x26568 <_ZN18ChiMetadataManager10InitializeEv+0x688>
   2658c: c0 00 00 54  	b.eq	0x265a4 <_ZN18ChiMetadataManager10InitializeEv+0x6c4>
   265a0: 81 ff ff 54  	b.ne	0x26590 <_ZN18ChiMetadataManager10InitializeEv+0x6b0>
   265b0: 25 00 00 14  	b	0x26644 <_ZN18ChiMetadataManager10InitializeEv+0x764>
   265c8: 81 ff ff 54  	b.ne	0x265b8 <_ZN18ChiMetadataManager10InitializeEv+0x6d8>
   265dc: 40 01 00 54  	b.eq	0x26604 <_ZN18ChiMetadataManager10InitializeEv+0x724>
   265fc: 41 ff ff 54  	b.ne	0x265e4 <_ZN18ChiMetadataManager10InitializeEv+0x704>
   26614: 00 01 00 54  	b.eq	0x26634 <_ZN18ChiMetadataManager10InitializeEv+0x754>
   26624: bf 18 00 94  	bl	0x2c920 <_ZN18ChiMetadataManager21AndroidMetadataHolderD2Ev@plt>
   26630: 61 ff ff 54  	b.ne	0x2661c <_ZN18ChiMetadataManager10InitializeEv+0x73c>
   26638: 75 00 00 b4  	cbz	x21, 0x26644 <_ZN18ChiMetadataManager10InitializeEv+0x764>
   2665c: b5 18 00 94  	bl	0x2c930 <_ZN18ChiMetadataManager25AllocateFrameworkMetadataEjjbjj@plt>
   26668: 20 01 00 35  	cbnz	w0, 0x2668c <_ZN18ChiMetadataManager10InitializeEv+0x7ac>
   26684: ab 18 00 94  	bl	0x2c930 <_ZN18ChiMetadataManager25AllocateFrameworkMetadataEjjbjj@plt>
   26690: 78 00 00 b4  	cbz	x24, 0x2669c <_ZN18ChiMetadataManager10InitializeEv+0x7bc>
   2669c: 75 05 00 35  	cbnz	w21, 0x26748 <_ZN18ChiMetadataManager10InitializeEv+0x868>
   266a0: 3a 00 00 f0  	adrp	x26, 0x2d000 <_ZN18ChiMetadataManager10InitializeEv+0x7dc>
   266ac: ed 04 18 36  	tbz	w13, #3, 0x26748 <_ZN18ChiMetadataManager10InitializeEv+0x868>
   266b0: 39 00 00 f0  	adrp	x25, 0x2d000 <_ZN18ChiMetadataManager10InitializeEv+0x7ec>
   266b4: 33 ff ff b0  	adrp	x19, 0xb000 <_ZN18ChiMetadataManager10InitializeEv+0x768>
   266c8: 01 02 00 54  	b.ne	0x26708 <_ZN18ChiMetadataManager10InitializeEv+0x828>
   266e0: 21 ff ff f0  	adrp	x1, 0xd000 <_ZN18ChiMetadataManager10InitializeEv+0x79c>
   266e4: 02 ff ff f0  	adrp	x2, 0x9000 <_ZN18ChiMetadataManager10InitializeEv+0x790>
   266e8: 25 ff ff d0  	adrp	x5, 0xc000 <_ZN18ChiMetadataManager10InitializeEv+0x7a0>
   2671c: 21 ff ff b0  	adrp	x1, 0xb000 <_ZN18ChiMetadataManager10InitializeEv+0x7d0>
   26724: 40 ff ff 90  	adrp	x0, 0xe000 <_ZN18ChiMetadataManager10InitializeEv+0x7e4>
   26728: 23 ff ff d0  	adrp	x3, 0xc000 <_ZN18ChiMetadataManager10InitializeEv+0x7e0>
   2672c: 05 ff ff f0  	adrp	x5, 0x9000 <_ZN18ChiMetadataManager10InitializeEv+0x7d8>
   26744: 7f 16 00 94  	bl	0x2c140 <_ZN6ChiLog9LogSystemEPKcS1_S1_S1_iS1_z@plt>
   26754: 41 01 00 54  	b.ne	0x2677c <_ZN18ChiMetadataManager10InitializeEv+0x89c>
0000000000026788 <_ZN18ChiMetadataManager7DestroyEv>:
   26788: 40 01 00 b4  	cbz	x0, 0x267b0 <_ZN18ChiMetadataManager7DestroyEv+0x28>
   2679c: 59 18 00 94  	bl	0x2c900 <_ZN18ChiMetadataManagerD2Ev@plt>
00000000000267b8 <_ZN18ChiMetadataManager25AllocateFrameworkMetadataEjjbjj>:
   267dc: c2 0b 00 54  	b.hs	0x26954 <_ZN18ChiMetadataManager25AllocateFrameworkMetadataEjjbjj+0x19c>
   267e0: 39 00 00 f0  	adrp	x25, 0x2d000 <_ZN18ChiMetadataManager25AllocateFrameworkMetadataEjjbjj+0x44>
   26810: 23 00 00 14  	b	0x2689c <_ZN18ChiMetadataManager25AllocateFrameworkMetadataEjjbjj+0xe4>
   26814: 36 ff ff b0  	adrp	x22, 0xb000 <_ZN18ChiMetadataManager7DestroyEv+0x20>
   2684c: 40 ff ff 90  	adrp	x0, 0xe000 <_ZN18ChiMetadataManager25AllocateFrameworkMetadataEjjbjj+0x34>
   26850: 21 ff ff b0  	adrp	x1, 0xb000 <_ZN18ChiMetadataManager25AllocateFrameworkMetadataEjjbjj+0x2c>
   26854: 03 ff ff f0  	adrp	x3, 0x9000 <_ZN18ChiMetadataManager25AllocateFrameworkMetadataEjjbjj+0x28>
   26858: 05 ff ff f0  	adrp	x5, 0x9000 <_ZN18ChiMetadataManager25AllocateFrameworkMetadataEjjbjj+0x2c>
   26880: 30 16 00 94  	bl	0x2c140 <_ZN6ChiLog9LogSystemEPKcS1_S1_S1_iS1_z@plt>
   26898: e0 05 00 54  	b.eq	0x26954 <_ZN18ChiMetadataManager25AllocateFrameworkMetadataEjjbjj+0x19c>
   268a8: a0 05 00 b4  	cbz	x0, 0x2695c <_ZN18ChiMetadataManager25AllocateFrameworkMetadataEjjbjj+0x1a4>
   268c8: 28 fe 1f 36  	tbz	w8, #3, 0x2688c <_ZN18ChiMetadataManager25AllocateFrameworkMetadataEjjbjj+0xd4>
   268cc: 29 00 00 f0  	adrp	x9, 0x2d000 <_ZN18ChiMetadataManager25AllocateFrameworkMetadataEjjbjj+0x130>
   268e0: a1 f9 ff 54  	b.ne	0x26814 <_ZN18ChiMetadataManager25AllocateFrameworkMetadataEjjbjj+0x5c>
   268e4: 35 ff ff b0  	adrp	x21, 0xb000 <_ZN18ChiMetadataManager25AllocateFrameworkMetadataEjjbjj+0xc0>
   26918: 21 ff ff f0  	adrp	x1, 0xd000 <_ZN18ChiMetadataManager25AllocateFrameworkMetadataEjjbjj+0xfc>
   2691c: 22 ff ff b0  	adrp	x2, 0xb000 <_ZN18ChiMetadataManager25AllocateFrameworkMetadataEjjbjj+0xf8>
   26920: 05 ff ff f0  	adrp	x5, 0x9000 <_ZN18ChiMetadataManager25AllocateFrameworkMetadataEjjbjj+0xf4>
   26950: b1 ff ff 17  	b	0x26814 <_ZN18ChiMetadataManager25AllocateFrameworkMetadataEjjbjj+0x5c>
   26958: 02 00 00 14  	b	0x26960 <_ZN18ChiMetadataManager25AllocateFrameworkMetadataEjjbjj+0x1a8>
0000000000026980 <_ZN18ChiMetadataManagerC2Ejjj>:
   26c00: a3 f3 ff 54  	b.lo	0x26a74 <_ZN18ChiMetadataManagerC2Ejjj+0xf4>
   26cdc: e1 eb ff 54  	b.ne	0x26a58 <_ZN18ChiMetadataManagerC2Ejjj+0xd8>
0000000000026da0 <_ZN18ChiMetadataManagerD2Ev>:
   26dc8: 74 07 00 b4  	cbz	x20, 0x26eb4 <_ZN18ChiMetadataManagerD2Ev+0x114>
   26de0: 40 06 00 34  	cbz	w0, 0x26ea8 <_ZN18ChiMetadataManagerD2Ev+0x108>
   26de4: 28 00 00 f0  	adrp	x8, 0x2d000 <_ZN18ChiMetadataManagerD2Ev+0x60>
   26df0: 08 06 00 36  	tbz	w8, #0, 0x26eb0 <_ZN18ChiMetadataManagerD2Ev+0x110>
   26df4: 29 00 00 f0  	adrp	x9, 0x2d000 <_ZN18ChiMetadataManagerD2Ev+0x70>
   26df8: 35 ff ff b0  	adrp	x21, 0xb000 <_ZN18ChiMetadataManagerC2Ejjj+0x40c>
   26e0c: 61 02 00 54  	b.ne	0x26e58 <_ZN18ChiMetadataManagerD2Ev+0xb8>
   26e28: 21 ff ff f0  	adrp	x1, 0xd000 <_ZN18ChiMetadataManagerD2Ev+0x24>
   26e2c: 22 ff ff 90  	adrp	x2, 0xa000 <_ZN18ChiMetadataManagerD2Ev+0x1c>
   26e30: 25 ff ff b0  	adrp	x5, 0xb000 <_ZN18ChiMetadataManagerD2Ev+0x24>
   26e74: 00 ff ff f0  	adrp	x0, 0x9000 <_ZN18ChiMetadataManagerD2Ev+0x60>
   26e78: 21 ff ff f0  	adrp	x1, 0xd000 <_ZN18ChiMetadataManagerD2Ev+0x74>
   26e7c: 23 ff ff b0  	adrp	x3, 0xb000 <_ZN18ChiMetadataManagerD2Ev+0x70>
   26e80: 25 ff ff 90  	adrp	x5, 0xa000 <_ZN18ChiMetadataManagerD2Ev+0x70>
   26ea0: a8 14 00 94  	bl	0x2c140 <_ZN6ChiLog9LogSystemEPKcS1_S1_S1_iS1_z@plt>
   26ea4: 03 00 00 14  	b	0x26eb0 <_ZN18ChiMetadataManagerD2Ev+0x110>
   26eb8: 60 00 00 b4  	cbz	x0, 0x26ec4 <_ZN18ChiMetadataManagerD2Ev+0x124>
   26ebc: a1 16 00 94  	bl	0x2c940 <_ZdaPv@plt>
   26ec8: 15 02 00 b4  	cbz	x21, 0x26f08 <_ZN18ChiMetadataManagerD2Ev+0x168>
   26ed4: 40 01 00 54  	b.eq	0x26efc <_ZN18ChiMetadataManagerD2Ev+0x15c>
   26ee4: 8f 16 00 94  	bl	0x2c920 <_ZN18ChiMetadataManager21AndroidMetadataHolderD2Ev@plt>
   26ef0: 61 ff ff 54  	b.ne	0x26edc <_ZN18ChiMetadataManagerD2Ev+0x13c>
   26ef8: 02 00 00 14  	b	0x26f00 <_ZN18ChiMetadataManagerD2Ev+0x160>
   26f14: 5f 15 00 94  	bl	0x2c490 <_ZNSt3__15mutexD1Ev@plt>
   26f24: 5b 15 00 94  	bl	0x2c490 <_ZNSt3__15mutexD1Ev@plt>
   26f2c: a0 00 00 b4  	cbz	x0, 0x26f40 <_ZN18ChiMetadataManagerD2Ev+0x1a0>
   26f3c: b6 ff ff b5  	cbnz	x22, 0x26f30 <_ZN18ChiMetadataManagerD2Ev+0x190>
   26f48: 40 00 00 b4  	cbz	x0, 0x26f50 <_ZN18ChiMetadataManagerD2Ev+0x1b0>
   26f68: 04 00 00 14  	b	0x26f78 <_ZN18ChiMetadataManagerD2Ev+0x1d8>
   26f74: e0 0a 00 54  	b.eq	0x270d0 <_ZN18ChiMetadataManagerD2Ev+0x330>
   26f80: 54 16 00 94  	bl	0x2c8d0 <_ZN18ChiMetadataManager10MetaClient14ReleaseBuffersEv@plt>
   26f88: a0 00 00 b4  	cbz	x0, 0x26f9c <_ZN18ChiMetadataManagerD2Ev+0x1fc>
   26f98: b3 ff ff b5  	cbnz	x19, 0x26f8c <_ZN18ChiMetadataManagerD2Ev+0x1ec>
   26fa4: 40 00 00 b4  	cbz	x0, 0x26fac <_ZN18ChiMetadataManagerD2Ev+0x20c>
   26fb0: 38 15 00 94  	bl	0x2c490 <_ZNSt3__15mutexD1Ev@plt>
   26fb8: 80 00 00 b4  	cbz	x0, 0x26fc8 <_ZN18ChiMetadataManagerD2Ev+0x228>
   26fd0: 40 16 00 94  	bl	0x2c8d0 <_ZN18ChiMetadataManager10MetaClient14ReleaseBuffersEv@plt>
   26fdc: a0 00 00 b4  	cbz	x0, 0x26ff0 <_ZN18ChiMetadataManagerD2Ev+0x250>
   26fec: b4 ff ff b5  	cbnz	x20, 0x26fe0 <_ZN18ChiMetadataManagerD2Ev+0x240>
   26ffc: 40 00 00 b4  	cbz	x0, 0x27004 <_ZN18ChiMetadataManagerD2Ev+0x264>
   27008: 22 15 00 94  	bl	0x2c490 <_ZNSt3__15mutexD1Ev@plt>
   27010: 80 00 00 b4  	cbz	x0, 0x27020 <_ZN18ChiMetadataManagerD2Ev+0x280>
   27028: 2a 16 00 94  	bl	0x2c8d0 <_ZN18ChiMetadataManager10MetaClient14ReleaseBuffersEv@plt>
   27034: a0 00 00 b4  	cbz	x0, 0x27048 <_ZN18ChiMetadataManagerD2Ev+0x2a8>
   27044: b3 ff ff b5  	cbnz	x19, 0x27038 <_ZN18ChiMetadataManagerD2Ev+0x298>
   27054: 40 00 00 b4  	cbz	x0, 0x2705c <_ZN18ChiMetadataManagerD2Ev+0x2bc>
   27060: 0c 15 00 94  	bl	0x2c490 <_ZNSt3__15mutexD1Ev@plt>
   27068: 80 00 00 b4  	cbz	x0, 0x27078 <_ZN18ChiMetadataManagerD2Ev+0x2d8>
   27080: 14 16 00 94  	bl	0x2c8d0 <_ZN18ChiMetadataManager10MetaClient14ReleaseBuffersEv@plt>
   2708c: a0 00 00 b4  	cbz	x0, 0x270a0 <_ZN18ChiMetadataManagerD2Ev+0x300>
   2709c: b4 ff ff b5  	cbnz	x20, 0x27090 <_ZN18ChiMetadataManagerD2Ev+0x2f0>
   270ac: 40 00 00 b4  	cbz	x0, 0x270b4 <_ZN18ChiMetadataManagerD2Ev+0x314>
   270b8: f6 14 00 94  	bl	0x2c490 <_ZNSt3__15mutexD1Ev@plt>
   270c0: 60 f5 ff b4  	cbz	x0, 0x26f6c <_ZN18ChiMetadataManagerD2Ev+0x1cc>
   270cc: a8 ff ff 17  	b	0x26f6c <_ZN18ChiMetadataManagerD2Ev+0x1cc>
00000000000270e8 <_ZN18ChiMetadataManager30InitializeFrameworkInputClientEjb>:
   27130: b0 14 00 94  	bl	0x2c3f0 <_ZNSt3__15mutex4lockEv@plt>
   27134: 3a 00 00 d0  	adrp	x26, 0x2d000 <_ZN18ChiMetadataManager30InitializeFrameworkInputClientEjb+0x64>
   2714c: 73 06 00 34  	cbz	w19, 0x27218 <_ZN18ChiMetadataManager30InitializeFrameworkInputClientEjb+0x130>
   27154: 28 06 00 34  	cbz	w8, 0x27218 <_ZN18ChiMetadataManager30InitializeFrameworkInputClientEjb+0x130>
   2715c: 6e 05 18 36  	tbz	w14, #3, 0x27208 <_ZN18ChiMetadataManager30InitializeFrameworkInputClientEjb+0x120>
   27160: 2b 00 00 d0  	adrp	x11, 0x2d000 <_ZN18ChiMetadataManager30InitializeFrameworkInputClientEjb+0x90>
   27170: 61 02 00 54  	b.ne	0x271bc <_ZN18ChiMetadataManager30InitializeFrameworkInputClientEjb+0xd4>
   27174: 37 ff ff 90  	adrp	x23, 0xb000 <_ZN18ChiMetadataManager30InitializeFrameworkInputClientEjb+0x1c>
   27190: 21 ff ff d0  	adrp	x1, 0xd000 <_ZN18ChiMetadataManager30InitializeFrameworkInputClientEjb+0x40>
   27194: 22 ff ff f0  	adrp	x2, 0xe000 <_ZN18ChiMetadataManager30InitializeFrameworkInputClientEjb+0x48>
   27198: 25 ff ff d0  	adrp	x5, 0xd000 <_ZN18ChiMetadataManager30InitializeFrameworkInputClientEjb+0x48>
   271bc: 37 ff ff 90  	adrp	x23, 0xb000 <_ZN18ChiMetadataManager30InitializeFrameworkInputClientEjb+0x64>
   271d8: 21 ff ff 90  	adrp	x1, 0xb000 <_ZN18ChiMetadataManager30InitializeFrameworkInputClientEjb+0x80>
   271e0: 20 ff ff f0  	adrp	x0, 0xe000 <_ZN18ChiMetadataManager30InitializeFrameworkInputClientEjb+0x94>
   271e4: 23 ff ff d0  	adrp	x3, 0xd000 <_ZN18ChiMetadataManager30InitializeFrameworkInputClientEjb+0x94>
   271e8: 25 ff ff f0  	adrp	x5, 0xe000 <_ZN18ChiMetadataManager30InitializeFrameworkInputClientEjb+0x9c>
   27204: cf 13 00 94  	bl	0x2c140 <_ZN6ChiLog9LogSystemEPKcS1_S1_S1_iS1_z@plt>
   27210: 4f 18 18 37  	tbnz	w15, #3, 0x27518 <_ZN18ChiMetadataManager30InitializeFrameworkInputClientEjb+0x430>
   27214: eb 00 00 14  	b	0x275c0 <_ZN18ChiMetadataManager30InitializeFrameworkInputClientEjb+0x4d8>
   27270: b8 14 00 94  	bl	0x2c550 <_ZN15ExtensionModule11GetInstanceEv@plt>
   27284: 63 15 00 94  	bl	0x2c810 <_ZN15ExtensionModule23GetAvailableRequestKeysEjPjjS0_@plt>
   27288: 60 05 00 34  	cbz	w0, 0x27334 <_ZN18ChiMetadataManager30InitializeFrameworkInputClientEjb+0x24c>
   27290: 6a 06 00 36  	tbz	w10, #0, 0x2735c <_ZN18ChiMetadataManager30InitializeFrameworkInputClientEjb+0x274>
   27294: 29 00 00 d0  	adrp	x9, 0x2d000 <_ZN18ChiMetadataManager30InitializeFrameworkInputClientEjb+0x1c4>
   27298: 37 ff ff 90  	adrp	x23, 0xb000 <_ZN18ChiMetadataManager30InitializeFrameworkInputClientEjb+0x140>
   272b0: 21 02 00 54  	b.ne	0x272f4 <_ZN18ChiMetadataManager30InitializeFrameworkInputClientEjb+0x20c>
   272c8: 21 ff ff d0  	adrp	x1, 0xd000 <_ZN18ChiMetadataManager30InitializeFrameworkInputClientEjb+0x178>
   272cc: 22 ff ff d0  	adrp	x2, 0xd000 <_ZN18ChiMetadataManager30InitializeFrameworkInputClientEjb+0x17c>
   272d0: 25 ff ff d0  	adrp	x5, 0xd000 <_ZN18ChiMetadataManager30InitializeFrameworkInputClientEjb+0x180>
   27308: 21 ff ff d0  	adrp	x1, 0xd000 <_ZN18ChiMetadataManager30InitializeFrameworkInputClientEjb+0x1b8>
   27310: 00 ff ff d0  	adrp	x0, 0x9000 <_ZN18ChiMetadataManager30InitializeFrameworkInputClientEjb+0x1b0>
   27314: 23 ff ff d0  	adrp	x3, 0xd000 <_ZN18ChiMetadataManager30InitializeFrameworkInputClientEjb+0x1c4>
   27318: 05 ff ff f0  	adrp	x5, 0xa000 <_ZN18ChiMetadataManager30InitializeFrameworkInputClientEjb+0x1bc>
   27330: 73 00 00 14  	b	0x274fc <_ZN18ChiMetadataManager30InitializeFrameworkInputClientEjb+0x414>
   2734c: 81 15 00 94  	bl	0x2c950 <_ZN18ChiMetadataManager10MetaClient15AllocateBuffersEPjjjjj@plt>
   27350: 20 01 00 34  	cbz	w0, 0x27374 <_ZN18ChiMetadataManager30InitializeFrameworkInputClientEjb+0x28c>
   27358: 09 08 00 37  	tbnz	w9, #0, 0x27458 <_ZN18ChiMetadataManager30InitializeFrameworkInputClientEjb+0x370>
   2736c: 6f 0d 18 37  	tbnz	w15, #3, 0x27518 <_ZN18ChiMetadataManager30InitializeFrameworkInputClientEjb+0x430>
   27370: 94 00 00 14  	b	0x275c0 <_ZN18ChiMetadataManager30InitializeFrameworkInputClientEjb+0x4d8>
   273a0: e0 12 00 34  	cbz	w0, 0x275fc <_ZN18ChiMetadataManager30InitializeFrameworkInputClientEjb+0x514>
   273a8: 18 0b 00 b5  	cbnz	x24, 0x27508 <_ZN18ChiMetadataManager30InitializeFrameworkInputClientEjb+0x420>
   273b0: 6d fd 07 36  	tbz	w13, #0, 0x2735c <_ZN18ChiMetadataManager30InitializeFrameworkInputClientEjb+0x274>
   273b4: 2a 00 00 d0  	adrp	x10, 0x2d000 <_ZN18ChiMetadataManager30InitializeFrameworkInputClientEjb+0x2e4>
   273c4: 41 02 00 54  	b.ne	0x2740c <_ZN18ChiMetadataManager30InitializeFrameworkInputClientEjb+0x324>
   273c8: 37 ff ff 90  	adrp	x23, 0xb000 <_ZN18ChiMetadataManager30InitializeFrameworkInputClientEjb+0x270>
   273e4: 21 ff ff d0  	adrp	x1, 0xd000 <_ZN18ChiMetadataManager30InitializeFrameworkInputClientEjb+0x294>
   273e8: 02 ff ff d0  	adrp	x2, 0x9000 <_ZN18ChiMetadataManager30InitializeFrameworkInputClientEjb+0x288>
   273ec: 25 ff ff d0  	adrp	x5, 0xd000 <_ZN18ChiMetadataManager30InitializeFrameworkInputClientEjb+0x29c>
   2740c: 37 ff ff 90  	adrp	x23, 0xb000 <_ZN18ChiMetadataManager30InitializeFrameworkInputClientEjb+0x2b4>
   27428: 21 ff ff d0  	adrp	x1, 0xd000 <_ZN18ChiMetadataManager30InitializeFrameworkInputClientEjb+0x2d8>
   27430: 00 ff ff d0  	adrp	x0, 0x9000 <_ZN18ChiMetadataManager30InitializeFrameworkInputClientEjb+0x2d0>
   27434: 23 ff ff d0  	adrp	x3, 0xd000 <_ZN18ChiMetadataManager30InitializeFrameworkInputClientEjb+0x2e4>
   27438: 25 ff ff d0  	adrp	x5, 0xd000 <_ZN18ChiMetadataManager30InitializeFrameworkInputClientEjb+0x2e8>
   27450: 3c 13 00 94  	bl	0x2c140 <_ZN6ChiLog9LogSystemEPKcS1_S1_S1_iS1_z@plt>
   27454: c2 ff ff 17  	b	0x2735c <_ZN18ChiMetadataManager30InitializeFrameworkInputClientEjb+0x274>
   27458: 28 00 00 d0  	adrp	x8, 0x2d000 <_ZN18ChiMetadataManager30InitializeFrameworkInputClientEjb+0x388>
   2746c: 61 02 00 54  	b.ne	0x274b8 <_ZN18ChiMetadataManager30InitializeFrameworkInputClientEjb+0x3d0>
   27470: 37 ff ff 90  	adrp	x23, 0xb000 <_ZN18ChiMetadataManager30InitializeFrameworkInputClientEjb+0x318>
   2748c: 21 ff ff d0  	adrp	x1, 0xd000 <_ZN18ChiMetadataManager30InitializeFrameworkInputClientEjb+0x33c>
   27490: 22 ff ff 90  	adrp	x2, 0xb000 <_ZN18ChiMetadataManager30InitializeFrameworkInputClientEjb+0x338>
   27494: 25 ff ff d0  	adrp	x5, 0xd000 <_ZN18ChiMetadataManager30InitializeFrameworkInputClientEjb+0x344>
   274b8: 37 ff ff 90  	adrp	x23, 0xb000 <_ZN18ChiMetadataManager30InitializeFrameworkInputClientEjb+0x360>
   274d4: 21 ff ff d0  	adrp	x1, 0xd000 <_ZN18ChiMetadataManager30InitializeFrameworkInputClientEjb+0x384>
   274dc: 00 ff ff d0  	adrp	x0, 0x9000 <_ZN18ChiMetadataManager30InitializeFrameworkInputClientEjb+0x37c>
   274e0: 23 ff ff d0  	adrp	x3, 0xd000 <_ZN18ChiMetadataManager30InitializeFrameworkInputClientEjb+0x390>
   274e4: 25 ff ff 90  	adrp	x5, 0xb000 <_ZN18ChiMetadataManager30InitializeFrameworkInputClientEjb+0x38c>
   27500: 10 13 00 94  	bl	0x2c140 <_ZN6ChiLog9LogSystemEPKcS1_S1_S1_iS1_z@plt>
   27514: 6f 05 18 36  	tbz	w15, #3, 0x275c0 <_ZN18ChiMetadataManager30InitializeFrameworkInputClientEjb+0x4d8>
   27518: 2c 00 00 d0  	adrp	x12, 0x2d000 <_ZN18ChiMetadataManager30InitializeFrameworkInputClientEjb+0x448>
   27528: 61 02 00 54  	b.ne	0x27574 <_ZN18ChiMetadataManager30InitializeFrameworkInputClientEjb+0x48c>
   2752c: 37 ff ff 90  	adrp	x23, 0xb000 <_ZN18ChiMetadataManager30InitializeFrameworkInputClientEjb+0x3d4>
   27548: 21 ff ff d0  	adrp	x1, 0xd000 <_ZN18ChiMetadataManager30InitializeFrameworkInputClientEjb+0x3f8>
   2754c: 02 ff ff f0  	adrp	x2, 0xa000 <_ZN18ChiMetadataManager30InitializeFrameworkInputClientEjb+0x3f0>
   27550: 25 ff ff d0  	adrp	x5, 0xd000 <_ZN18ChiMetadataManager30InitializeFrameworkInputClientEjb+0x400>
   27574: 37 ff ff 90  	adrp	x23, 0xb000 <_ZN18ChiMetadataManager30InitializeFrameworkInputClientEjb+0x41c>
   27590: 21 ff ff 90  	adrp	x1, 0xb000 <_ZN18ChiMetadataManager30InitializeFrameworkInputClientEjb+0x438>
   27598: 20 ff ff f0  	adrp	x0, 0xe000 <_ZN18ChiMetadataManager30InitializeFrameworkInputClientEjb+0x44c>
   2759c: 23 ff ff d0  	adrp	x3, 0xd000 <_ZN18ChiMetadataManager30InitializeFrameworkInputClientEjb+0x44c>
   275a0: 25 ff ff d0  	adrp	x5, 0xd000 <_ZN18ChiMetadataManager30InitializeFrameworkInputClientEjb+0x450>
   275bc: e1 12 00 94  	bl	0x2c140 <_ZN6ChiLog9LogSystemEPKcS1_S1_S1_iS1_z@plt>
   275c4: 93 13 00 94  	bl	0x2c410 <_ZNSt3__15mutex6unlockEv@plt>
   275d4: 61 04 00 54  	b.ne	0x27660 <_ZN18ChiMetadataManager30InitializeFrameworkInputClientEjb+0x578>
   27614: a0 ec ff b4  	cbz	x0, 0x273a8 <_ZN18ChiMetadataManager30InitializeFrameworkInputClientEjb+0x2c0>
   27658: 0f f6 1f 37  	tbnz	w15, #3, 0x27518 <_ZN18ChiMetadataManager30InitializeFrameworkInputClientEjb+0x430>
   2765c: d9 ff ff 17  	b	0x275c0 <_ZN18ChiMetadataManager30InitializeFrameworkInputClientEjb+0x4d8>
0000000000027668 <_ZN18ChiMetadataManager14RegisterClientEiPjjjj16ChiMetadataUsage>:
   27694: 21 01 00 34  	cbz	w1, 0x276b8 <_ZN18ChiMetadataManager14RegisterClientEiPjjjj16ChiMetadataUsage+0x50>
   276a8: ae 14 00 94  	bl	0x2c960 <_ZN18ChiMetadataManager23RegisterExclusiveClientEPjjj16ChiMetadataUsage@plt>
   276b0: 33 01 00 35  	cbnz	w19, 0x276d4 <_ZN18ChiMetadataManager14RegisterClientEiPjjjj16ChiMetadataUsage+0x6c>
   276b4: 7c 00 00 14  	b	0x278a4 <_ZN18ChiMetadataManager14RegisterClientEiPjjjj16ChiMetadataUsage+0x23c>
   276c8: aa 14 00 94  	bl	0x2c970 <_ZN18ChiMetadataManager20RegisterSharedClientEPjjj16ChiMetadataUsage@plt>
   276d0: b3 0e 00 34  	cbz	w19, 0x278a4 <_ZN18ChiMetadataManager14RegisterClientEiPjjjj16ChiMetadataUsage+0x23c>
   276e4: 08 06 00 34  	cbz	w8, 0x277a4 <_ZN18ChiMetadataManager14RegisterClientEiPjjjj16ChiMetadataUsage+0x13c>
   276e8: 2a 00 00 d0  	adrp	x10, 0x2d000 <_ZN18ChiMetadataManager14RegisterClientEiPjjjj16ChiMetadataUsage+0x98>
   276f4: 8a 0d 18 36  	tbz	w10, #3, 0x278a4 <_ZN18ChiMetadataManager14RegisterClientEiPjjjj16ChiMetadataUsage+0x23c>
   276f8: 2b 00 00 d0  	adrp	x11, 0x2d000 <_ZN18ChiMetadataManager14RegisterClientEiPjjjj16ChiMetadataUsage+0xa8>
   276fc: 37 ff ff 90  	adrp	x23, 0xb000 <_ZN18ChiMetadataManager14RegisterClientEiPjjjj16ChiMetadataUsage+0x24>
   27710: 41 02 00 54  	b.ne	0x27758 <_ZN18ChiMetadataManager14RegisterClientEiPjjjj16ChiMetadataUsage+0xf0>
   27728: 21 ff ff d0  	adrp	x1, 0xd000 <_ZN18ChiMetadataManager14RegisterClientEiPjjjj16ChiMetadataUsage+0x58>
   2772c: 22 ff ff d0  	adrp	x2, 0xd000 <_ZN18ChiMetadataManager14RegisterClientEiPjjjj16ChiMetadataUsage+0x5c>
   27730: 05 ff ff d0  	adrp	x5, 0x9000 <_ZN18ChiMetadataManager14RegisterClientEiPjjjj16ChiMetadataUsage+0x50>
   2776c: 21 ff ff 90  	adrp	x1, 0xb000 <_ZN18ChiMetadataManager14RegisterClientEiPjjjj16ChiMetadataUsage+0x94>
   27774: 20 ff ff f0  	adrp	x0, 0xe000 <_ZN18ChiMetadataManager14RegisterClientEiPjjjj16ChiMetadataUsage+0xa8>
   27778: 03 ff ff d0  	adrp	x3, 0x9000 <_ZN18ChiMetadataManager14RegisterClientEiPjjjj16ChiMetadataUsage+0x98>
   2777c: 05 ff ff d0  	adrp	x5, 0x9000 <_ZN18ChiMetadataManager14RegisterClientEiPjjjj16ChiMetadataUsage+0x9c>
   2779c: 69 12 00 94  	bl	0x2c140 <_ZN6ChiLog9LogSystemEPKcS1_S1_S1_iS1_z@plt>
   277a0: 41 00 00 14  	b	0x278a4 <_ZN18ChiMetadataManager14RegisterClientEiPjjjj16ChiMetadataUsage+0x23c>
   277c0: b7 00 00 b4  	cbz	x23, 0x277d4 <_ZN18ChiMetadataManager14RegisterClientEiPjjjj16ChiMetadataUsage+0x16c>
   277c4: 80 00 00 b4  	cbz	x0, 0x277d4 <_ZN18ChiMetadataManager14RegisterClientEiPjjjj16ChiMetadataUsage+0x16c>
   277d4: 28 00 00 d0  	adrp	x8, 0x2d000 <_ZN18ChiMetadataManager14RegisterClientEiPjjjj16ChiMetadataUsage+0x184>
   277e0: 29 06 18 36  	tbz	w9, #3, 0x278a4 <_ZN18ChiMetadataManager14RegisterClientEiPjjjj16ChiMetadataUsage+0x23c>
   277e4: 29 00 00 d0  	adrp	x9, 0x2d000 <_ZN18ChiMetadataManager14RegisterClientEiPjjjj16ChiMetadataUsage+0x194>
   277f4: c1 02 00 54  	b.ne	0x2784c <_ZN18ChiMetadataManager14RegisterClientEiPjjjj16ChiMetadataUsage+0x1e4>
   277f8: 37 ff ff 90  	adrp	x23, 0xb000 <_ZN18ChiMetadataManager14RegisterClientEiPjjjj16ChiMetadataUsage+0x120>
   27814: 21 ff ff d0  	adrp	x1, 0xd000 <_ZN18ChiMetadataManager14RegisterClientEiPjjjj16ChiMetadataUsage+0x144>
   27818: 02 ff ff f0  	adrp	x2, 0xa000 <_ZN18ChiMetadataManager14RegisterClientEiPjjjj16ChiMetadataUsage+0x13c>
   2781c: 05 ff ff d0  	adrp	x5, 0x9000 <_ZN18ChiMetadataManager14RegisterClientEiPjjjj16ChiMetadataUsage+0x13c>
   2784c: 38 ff ff 90  	adrp	x24, 0xb000 <_ZN18ChiMetadataManager14RegisterClientEiPjjjj16ChiMetadataUsage+0x174>
   27868: 21 ff ff 90  	adrp	x1, 0xb000 <_ZN18ChiMetadataManager14RegisterClientEiPjjjj16ChiMetadataUsage+0x190>
   27870: 20 ff ff f0  	adrp	x0, 0xe000 <_ZN18ChiMetadataManager14RegisterClientEiPjjjj16ChiMetadataUsage+0x1a4>
   27874: 03 ff ff d0  	adrp	x3, 0x9000 <_ZN18ChiMetadataManager14RegisterClientEiPjjjj16ChiMetadataUsage+0x194>
   27878: 05 ff ff f0  	adrp	x5, 0xa000 <_ZN18ChiMetadataManager14RegisterClientEiPjjjj16ChiMetadataUsage+0x19c>
   278a0: 28 12 00 94  	bl	0x2c140 <_ZN6ChiLog9LogSystemEPKcS1_S1_S1_iS1_z@plt>
00000000000278c8 <_ZN18ChiMetadataManager23RegisterExclusiveClientEPjjj16ChiMetadataUsage>:
   27904: bb 12 00 94  	bl	0x2c3f0 <_ZNSt3__15mutex4lockEv@plt>
   27974: 0a 0a 00 34  	cbz	w10, 0x27ab4 <_ZN18ChiMetadataManager23RegisterExclusiveClientEPjjj16ChiMetadataUsage+0x1ec>
   2797c: 4a 0a 00 34  	cbz	w10, 0x27ac4 <_ZN18ChiMetadataManager23RegisterExclusiveClientEPjjj16ChiMetadataUsage+0x1fc>
   27988: 68 0a 00 34  	cbz	w8, 0x27ad4 <_ZN18ChiMetadataManager23RegisterExclusiveClientEPjjj16ChiMetadataUsage+0x20c>
   27990: 88 0a 00 34  	cbz	w8, 0x27ae0 <_ZN18ChiMetadataManager23RegisterExclusiveClientEPjjj16ChiMetadataUsage+0x218>
   27998: c8 0a 00 34  	cbz	w8, 0x27af0 <_ZN18ChiMetadataManager23RegisterExclusiveClientEPjjj16ChiMetadataUsage+0x228>
   279a0: 0a 0b 00 34  	cbz	w10, 0x27b00 <_ZN18ChiMetadataManager23RegisterExclusiveClientEPjjj16ChiMetadataUsage+0x238>
   279a8: 48 0b 00 34  	cbz	w8, 0x27b10 <_ZN18ChiMetadataManager23RegisterExclusiveClientEPjjj16ChiMetadataUsage+0x248>
   279b0: 8a 0b 00 34  	cbz	w10, 0x27b20 <_ZN18ChiMetadataManager23RegisterExclusiveClientEPjjj16ChiMetadataUsage+0x258>
   279b8: c8 0b 00 34  	cbz	w8, 0x27b30 <_ZN18ChiMetadataManager23RegisterExclusiveClientEPjjj16ChiMetadataUsage+0x268>
   279c0: 0a 0c 00 34  	cbz	w10, 0x27b40 <_ZN18ChiMetadataManager23RegisterExclusiveClientEPjjj16ChiMetadataUsage+0x278>
   279c8: 48 0c 00 34  	cbz	w8, 0x27b50 <_ZN18ChiMetadataManager23RegisterExclusiveClientEPjjj16ChiMetadataUsage+0x288>
   279d4: 68 0c 00 34  	cbz	w8, 0x27b60 <_ZN18ChiMetadataManager23RegisterExclusiveClientEPjjj16ChiMetadataUsage+0x298>
   279e0: 6c 0c 00 34  	cbz	w12, 0x27b6c <_ZN18ChiMetadataManager23RegisterExclusiveClientEPjjj16ChiMetadataUsage+0x2a4>
   279e8: ac 0c 00 34  	cbz	w12, 0x27b7c <_ZN18ChiMetadataManager23RegisterExclusiveClientEPjjj16ChiMetadataUsage+0x2b4>
   279f0: ea 0c 00 34  	cbz	w10, 0x27b8c <_ZN18ChiMetadataManager23RegisterExclusiveClientEPjjj16ChiMetadataUsage+0x2c4>
   279f8: 28 0d 00 34  	cbz	w8, 0x27b9c <_ZN18ChiMetadataManager23RegisterExclusiveClientEPjjj16ChiMetadataUsage+0x2d4>
   27a00: 6c 0d 00 34  	cbz	w12, 0x27bac <_ZN18ChiMetadataManager23RegisterExclusiveClientEPjjj16ChiMetadataUsage+0x2e4>
   27a08: aa 0d 00 34  	cbz	w10, 0x27bbc <_ZN18ChiMetadataManager23RegisterExclusiveClientEPjjj16ChiMetadataUsage+0x2f4>
   27a10: e8 0d 00 34  	cbz	w8, 0x27bcc <_ZN18ChiMetadataManager23RegisterExclusiveClientEPjjj16ChiMetadataUsage+0x304>
   27a18: 2c 0e 00 34  	cbz	w12, 0x27bdc <_ZN18ChiMetadataManager23RegisterExclusiveClientEPjjj16ChiMetadataUsage+0x314>
   27a20: 6a 0e 00 34  	cbz	w10, 0x27bec <_ZN18ChiMetadataManager23RegisterExclusiveClientEPjjj16ChiMetadataUsage+0x324>
   27a28: a8 0e 00 34  	cbz	w8, 0x27bfc <_ZN18ChiMetadataManager23RegisterExclusiveClientEPjjj16ChiMetadataUsage+0x334>
   27a30: ec 0e 00 34  	cbz	w12, 0x27c0c <_ZN18ChiMetadataManager23RegisterExclusiveClientEPjjj16ChiMetadataUsage+0x344>
   27aa0: 61 f6 ff 54  	b.ne	0x2796c <_ZN18ChiMetadataManager23RegisterExclusiveClientEPjjj16ChiMetadataUsage+0xa4>
   27ab0: 8a 00 00 14  	b	0x27cd8 <_ZN18ChiMetadataManager23RegisterExclusiveClientEPjjj16ChiMetadataUsage+0x410>
   27ac0: 55 00 00 14  	b	0x27c14 <_ZN18ChiMetadataManager23RegisterExclusiveClientEPjjj16ChiMetadataUsage+0x34c>
   27ad0: 50 00 00 14  	b	0x27c10 <_ZN18ChiMetadataManager23RegisterExclusiveClientEPjjj16ChiMetadataUsage+0x348>
   27adc: 4d 00 00 14  	b	0x27c10 <_ZN18ChiMetadataManager23RegisterExclusiveClientEPjjj16ChiMetadataUsage+0x348>
   27aec: 49 00 00 14  	b	0x27c10 <_ZN18ChiMetadataManager23RegisterExclusiveClientEPjjj16ChiMetadataUsage+0x348>
   27afc: 45 00 00 14  	b	0x27c10 <_ZN18ChiMetadataManager23RegisterExclusiveClientEPjjj16ChiMetadataUsage+0x348>
   27b0c: 41 00 00 14  	b	0x27c10 <_ZN18ChiMetadataManager23RegisterExclusiveClientEPjjj16ChiMetadataUsage+0x348>
   27b1c: 3d 00 00 14  	b	0x27c10 <_ZN18ChiMetadataManager23RegisterExclusiveClientEPjjj16ChiMetadataUsage+0x348>
   27b2c: 39 00 00 14  	b	0x27c10 <_ZN18ChiMetadataManager23RegisterExclusiveClientEPjjj16ChiMetadataUsage+0x348>
   27b3c: 35 00 00 14  	b	0x27c10 <_ZN18ChiMetadataManager23RegisterExclusiveClientEPjjj16ChiMetadataUsage+0x348>
   27b4c: 31 00 00 14  	b	0x27c10 <_ZN18ChiMetadataManager23RegisterExclusiveClientEPjjj16ChiMetadataUsage+0x348>
   27b5c: 2d 00 00 14  	b	0x27c10 <_ZN18ChiMetadataManager23RegisterExclusiveClientEPjjj16ChiMetadataUsage+0x348>
   27b68: 2a 00 00 14  	b	0x27c10 <_ZN18ChiMetadataManager23RegisterExclusiveClientEPjjj16ChiMetadataUsage+0x348>
   27b78: 26 00 00 14  	b	0x27c10 <_ZN18ChiMetadataManager23RegisterExclusiveClientEPjjj16ChiMetadataUsage+0x348>
   27b88: 22 00 00 14  	b	0x27c10 <_ZN18ChiMetadataManager23RegisterExclusiveClientEPjjj16ChiMetadataUsage+0x348>
   27b98: 1e 00 00 14  	b	0x27c10 <_ZN18ChiMetadataManager23RegisterExclusiveClientEPjjj16ChiMetadataUsage+0x348>
   27ba8: 1a 00 00 14  	b	0x27c10 <_ZN18ChiMetadataManager23RegisterExclusiveClientEPjjj16ChiMetadataUsage+0x348>
   27bb8: 16 00 00 14  	b	0x27c10 <_ZN18ChiMetadataManager23RegisterExclusiveClientEPjjj16ChiMetadataUsage+0x348>
   27bc8: 12 00 00 14  	b	0x27c10 <_ZN18ChiMetadataManager23RegisterExclusiveClientEPjjj16ChiMetadataUsage+0x348>
   27bd8: 0e 00 00 14  	b	0x27c10 <_ZN18ChiMetadataManager23RegisterExclusiveClientEPjjj16ChiMetadataUsage+0x348>
   27be8: 0a 00 00 14  	b	0x27c10 <_ZN18ChiMetadataManager23RegisterExclusiveClientEPjjj16ChiMetadataUsage+0x348>
   27bf8: 06 00 00 14  	b	0x27c10 <_ZN18ChiMetadataManager23RegisterExclusiveClientEPjjj16ChiMetadataUsage+0x348>
   27c08: 02 00 00 14  	b	0x27c10 <_ZN18ChiMetadataManager23RegisterExclusiveClientEPjjj16ChiMetadataUsage+0x348>
   27c40: 83 03 00 54  	b.lo	0x27cb0 <_ZN18ChiMetadataManager23RegisterExclusiveClientEPjjj16ChiMetadataUsage+0x3e8>
   27c58: c9 02 00 54  	b.ls	0x27cb0 <_ZN18ChiMetadataManager23RegisterExclusiveClientEPjjj16ChiMetadataUsage+0x3e8>
   27c84: ab 00 00 54  	b.lt	0x27c98 <_ZN18ChiMetadataManager23RegisterExclusiveClientEPjjj16ChiMetadataUsage+0x3d0>
   27ca4: 7b 00 00 b4  	cbz	x27, 0x27cb0 <_ZN18ChiMetadataManager23RegisterExclusiveClientEPjjj16ChiMetadataUsage+0x3e8>
   27cd0: 20 13 00 94  	bl	0x2c950 <_ZN18ChiMetadataManager10MetaClient15AllocateBuffersEPjjjjj@plt>
   27cd4: e0 05 00 34  	cbz	w0, 0x27d90 <_ZN18ChiMetadataManager23RegisterExclusiveClientEPjjj16ChiMetadataUsage+0x4c8>
   27cd8: 2b 00 00 d0  	adrp	x11, 0x2d000 <_ZN18ChiMetadataManager23RegisterExclusiveClientEPjjj16ChiMetadataUsage+0x428>
   27ce4: 29 05 00 36  	tbz	w9, #0, 0x27d88 <_ZN18ChiMetadataManager23RegisterExclusiveClientEPjjj16ChiMetadataUsage+0x4c0>
   27ce8: 2c 00 00 d0  	adrp	x12, 0x2d000 <_ZN18ChiMetadataManager23RegisterExclusiveClientEPjjj16ChiMetadataUsage+0x438>
   27cec: 38 ff ff 90  	adrp	x24, 0xb000 <_ZN18ChiMetadataManager23RegisterExclusiveClientEPjjj16ChiMetadataUsage+0x3b4>
   27d00: 21 02 00 54  	b.ne	0x27d44 <_ZN18ChiMetadataManager23RegisterExclusiveClientEPjjj16ChiMetadataUsage+0x47c>
   27d18: 21 ff ff d0  	adrp	x1, 0xd000 <_ZN18ChiMetadataManager23RegisterExclusiveClientEPjjj16ChiMetadataUsage+0x3e8>
   27d1c: 02 ff ff f0  	adrp	x2, 0xa000 <_ZN18ChiMetadataManager23RegisterExclusiveClientEPjjj16ChiMetadataUsage+0x3e0>
   27d20: 05 ff ff f0  	adrp	x5, 0xa000 <_ZN18ChiMetadataManager23RegisterExclusiveClientEPjjj16ChiMetadataUsage+0x3e4>
   27d58: 21 ff ff d0  	adrp	x1, 0xd000 <_ZN18ChiMetadataManager23RegisterExclusiveClientEPjjj16ChiMetadataUsage+0x428>
   27d60: 00 ff ff d0  	adrp	x0, 0x9000 <_ZN18ChiMetadataManager23RegisterExclusiveClientEPjjj16ChiMetadataUsage+0x420>
   27d64: 03 ff ff f0  	adrp	x3, 0xa000 <_ZN18ChiMetadataManager23RegisterExclusiveClientEPjjj16ChiMetadataUsage+0x428>
   27d68: 25 ff ff b0  	adrp	x5, 0xc000 <_ZN18ChiMetadataManager23RegisterExclusiveClientEPjjj16ChiMetadataUsage+0x434>
   27d84: ef 10 00 94  	bl	0x2c140 <_ZN6ChiLog9LogSystemEPKcS1_S1_S1_iS1_z@plt>
   27d8c: 38 00 00 14  	b	0x27e6c <_ZN18ChiMetadataManager23RegisterExclusiveClientEPjjj16ChiMetadataUsage+0x5a4>
   27d90: 2d 00 00 d0  	adrp	x13, 0x2d000 <_ZN18ChiMetadataManager23RegisterExclusiveClientEPjjj16ChiMetadataUsage+0x4e0>
   27da0: 6b 06 18 36  	tbz	w11, #3, 0x27e6c <_ZN18ChiMetadataManager23RegisterExclusiveClientEPjjj16ChiMetadataUsage+0x5a4>
   27da4: 2e 00 00 d0  	adrp	x14, 0x2d000 <_ZN18ChiMetadataManager23RegisterExclusiveClientEPjjj16ChiMetadataUsage+0x4f4>
   27db4: e1 02 00 54  	b.ne	0x27e10 <_ZN18ChiMetadataManager23RegisterExclusiveClientEPjjj16ChiMetadataUsage+0x548>
   27db8: 3b ff ff 90  	adrp	x27, 0xb000 <_ZN18ChiMetadataManager23RegisterExclusiveClientEPjjj16ChiMetadataUsage+0x480>
   27dd4: 21 ff ff d0  	adrp	x1, 0xd000 <_ZN18ChiMetadataManager23RegisterExclusiveClientEPjjj16ChiMetadataUsage+0x4a4>
   27dd8: 22 ff ff 90  	adrp	x2, 0xb000 <_ZN18ChiMetadataManager23RegisterExclusiveClientEPjjj16ChiMetadataUsage+0x4a0>
   27ddc: 05 ff ff f0  	adrp	x5, 0xa000 <_ZN18ChiMetadataManager23RegisterExclusiveClientEPjjj16ChiMetadataUsage+0x4a0>
   27e10: 33 ff ff 90  	adrp	x19, 0xb000 <_ZN18ChiMetadataManager23RegisterExclusiveClientEPjjj16ChiMetadataUsage+0x4d8>
   27e2c: 21 ff ff 90  	adrp	x1, 0xb000 <_ZN18ChiMetadataManager23RegisterExclusiveClientEPjjj16ChiMetadataUsage+0x4f4>
   27e34: 20 ff ff f0  	adrp	x0, 0xe000 <_ZN18ChiMetadataManager23RegisterExclusiveClientEPjjj16ChiMetadataUsage+0x508>
   27e38: 03 ff ff f0  	adrp	x3, 0xa000 <_ZN18ChiMetadataManager23RegisterExclusiveClientEPjjj16ChiMetadataUsage+0x4fc>
   27e3c: 25 ff ff f0  	adrp	x5, 0xe000 <_ZN18ChiMetadataManager23RegisterExclusiveClientEPjjj16ChiMetadataUsage+0x510>
   27e68: b6 10 00 94  	bl	0x2c140 <_ZN6ChiLog9LogSystemEPKcS1_S1_S1_iS1_z@plt>
   27e70: 68 11 00 94  	bl	0x2c410 <_ZNSt3__15mutex6unlockEv@plt>
0000000000027e98 <_ZN18ChiMetadataManager20RegisterSharedClientEPjjj16ChiMetadataUsage>:
   27ef4: 3f 11 00 94  	bl	0x2c3f0 <_ZNSt3__15mutex4lockEv@plt>
   27f4c: 6c 00 00 34  	cbz	w12, 0x27f58 <_ZN18ChiMetadataManager20RegisterSharedClientEPjjj16ChiMetadataUsage+0xc0>
   27f54: 62 07 00 35  	cbnz	w2, 0x28040 <_ZN18ChiMetadataManager20RegisterSharedClientEPjjj16ChiMetadataUsage+0x1a8>
   27f5c: 63 00 00 34  	cbz	w3, 0x27f68 <_ZN18ChiMetadataManager20RegisterSharedClientEPjjj16ChiMetadataUsage+0xd0>
   27f64: ac 10 00 35  	cbnz	w12, 0x28178 <_ZN18ChiMetadataManager20RegisterSharedClientEPjjj16ChiMetadataUsage+0x2e0>
   27f70: 63 00 00 34  	cbz	w3, 0x27f7c <_ZN18ChiMetadataManager20RegisterSharedClientEPjjj16ChiMetadataUsage+0xe4>
   27f78: a0 1a 00 35  	cbnz	w0, 0x282cc <_ZN18ChiMetadataManager20RegisterSharedClientEPjjj16ChiMetadataUsage+0x434>
   27f80: 65 00 00 34  	cbz	w5, 0x27f8c <_ZN18ChiMetadataManager20RegisterSharedClientEPjjj16ChiMetadataUsage+0xf4>
   27f88: a1 1a 00 35  	cbnz	w1, 0x282dc <_ZN18ChiMetadataManager20RegisterSharedClientEPjjj16ChiMetadataUsage+0x444>
   27f90: 64 00 00 34  	cbz	w4, 0x27f9c <_ZN18ChiMetadataManager20RegisterSharedClientEPjjj16ChiMetadataUsage+0x104>
   27f98: a2 1a 00 35  	cbnz	w2, 0x282ec <_ZN18ChiMetadataManager20RegisterSharedClientEPjjj16ChiMetadataUsage+0x454>
   27fa0: 63 00 00 34  	cbz	w3, 0x27fac <_ZN18ChiMetadataManager20RegisterSharedClientEPjjj16ChiMetadataUsage+0x114>
   27fa8: ac 1a 00 35  	cbnz	w12, 0x282fc <_ZN18ChiMetadataManager20RegisterSharedClientEPjjj16ChiMetadataUsage+0x464>
   27fb8: 80 00 00 34  	cbz	w0, 0x27fc8 <_ZN18ChiMetadataManager20RegisterSharedClientEPjjj16ChiMetadataUsage+0x130>
   27fc4: 65 1a 00 35  	cbnz	w5, 0x28310 <_ZN18ChiMetadataManager20RegisterSharedClientEPjjj16ChiMetadataUsage+0x478>
   27fcc: 61 00 00 34  	cbz	w1, 0x27fd8 <_ZN18ChiMetadataManager20RegisterSharedClientEPjjj16ChiMetadataUsage+0x140>
   27fd4: 64 1a 00 35  	cbnz	w4, 0x28320 <_ZN18ChiMetadataManager20RegisterSharedClientEPjjj16ChiMetadataUsage+0x488>
   27fdc: 62 00 00 34  	cbz	w2, 0x27fe8 <_ZN18ChiMetadataManager20RegisterSharedClientEPjjj16ChiMetadataUsage+0x150>
   27fe4: 63 1a 00 35  	cbnz	w3, 0x28330 <_ZN18ChiMetadataManager20RegisterSharedClientEPjjj16ChiMetadataUsage+0x498>
   27fec: 6c 00 00 34  	cbz	w12, 0x27ff8 <_ZN18ChiMetadataManager20RegisterSharedClientEPjjj16ChiMetadataUsage+0x160>
   27ff4: 60 1a 00 35  	cbnz	w0, 0x28340 <_ZN18ChiMetadataManager20RegisterSharedClientEPjjj16ChiMetadataUsage+0x4a8>
   27ffc: 65 00 00 34  	cbz	w5, 0x28008 <_ZN18ChiMetadataManager20RegisterSharedClientEPjjj16ChiMetadataUsage+0x170>
   28004: 61 1a 00 35  	cbnz	w1, 0x28350 <_ZN18ChiMetadataManager20RegisterSharedClientEPjjj16ChiMetadataUsage+0x4b8>
   2800c: 64 00 00 34  	cbz	w4, 0x28018 <_ZN18ChiMetadataManager20RegisterSharedClientEPjjj16ChiMetadataUsage+0x180>
   28014: 62 1a 00 35  	cbnz	w2, 0x28360 <_ZN18ChiMetadataManager20RegisterSharedClientEPjjj16ChiMetadataUsage+0x4c8>
   28020: 63 00 00 34  	cbz	w3, 0x2802c <_ZN18ChiMetadataManager20RegisterSharedClientEPjjj16ChiMetadataUsage+0x194>
   28028: 4c 1a 00 35  	cbnz	w12, 0x28370 <_ZN18ChiMetadataManager20RegisterSharedClientEPjjj16ChiMetadataUsage+0x4d8>
   28038: 61 f8 ff 54  	b.ne	0x27f44 <_ZN18ChiMetadataManager20RegisterSharedClientEPjjj16ChiMetadataUsage+0xac>
   2803c: 52 00 00 14  	b	0x28184 <_ZN18ChiMetadataManager20RegisterSharedClientEPjjj16ChiMetadataUsage+0x2ec>
   28048: e0 09 00 54  	b.eq	0x28184 <_ZN18ChiMetadataManager20RegisterSharedClientEPjjj16ChiMetadataUsage+0x2ec>
   28078: 6d 18 00 34  	cbz	w13, 0x28384 <_ZN18ChiMetadataManager20RegisterSharedClientEPjjj16ChiMetadataUsage+0x4ec>
   28080: 6e 18 00 34  	cbz	w14, 0x2838c <_ZN18ChiMetadataManager20RegisterSharedClientEPjjj16ChiMetadataUsage+0x4f4>
   28088: 65 18 00 34  	cbz	w5, 0x28394 <_ZN18ChiMetadataManager20RegisterSharedClientEPjjj16ChiMetadataUsage+0x4fc>
   28090: 61 18 00 34  	cbz	w1, 0x2839c <_ZN18ChiMetadataManager20RegisterSharedClientEPjjj16ChiMetadataUsage+0x504>
   28098: c4 18 00 34  	cbz	w4, 0x283b0 <_ZN18ChiMetadataManager20RegisterSharedClientEPjjj16ChiMetadataUsage+0x518>
   280a0: 33 19 00 34  	cbz	w19, 0x283c4 <_ZN18ChiMetadataManager20RegisterSharedClientEPjjj16ChiMetadataUsage+0x52c>
   280a8: 68 19 00 34  	cbz	w8, 0x283d4 <_ZN18ChiMetadataManager20RegisterSharedClientEPjjj16ChiMetadataUsage+0x53c>
   280b0: e2 19 00 34  	cbz	w2, 0x283ec <_ZN18ChiMetadataManager20RegisterSharedClientEPjjj16ChiMetadataUsage+0x554>
   280b8: 6a 1a 00 34  	cbz	w10, 0x28404 <_ZN18ChiMetadataManager20RegisterSharedClientEPjjj16ChiMetadataUsage+0x56c>
   280c0: ee 1a 00 34  	cbz	w14, 0x2841c <_ZN18ChiMetadataManager20RegisterSharedClientEPjjj16ChiMetadataUsage+0x584>
   280c8: 6f 1b 00 34  	cbz	w15, 0x28434 <_ZN18ChiMetadataManager20RegisterSharedClientEPjjj16ChiMetadataUsage+0x59c>
   280d0: f0 1b 00 34  	cbz	w16, 0x2844c <_ZN18ChiMetadataManager20RegisterSharedClientEPjjj16ChiMetadataUsage+0x5b4>
   280d8: 71 1c 00 34  	cbz	w17, 0x28464 <_ZN18ChiMetadataManager20RegisterSharedClientEPjjj16ChiMetadataUsage+0x5cc>
   280e0: e7 1c 00 34  	cbz	w7, 0x2847c <_ZN18ChiMetadataManager20RegisterSharedClientEPjjj16ChiMetadataUsage+0x5e4>
   280e8: 46 1d 00 34  	cbz	w6, 0x28490 <_ZN18ChiMetadataManager20RegisterSharedClientEPjjj16ChiMetadataUsage+0x5f8>
   280f0: b4 1d 00 34  	cbz	w20, 0x284a4 <_ZN18ChiMetadataManager20RegisterSharedClientEPjjj16ChiMetadataUsage+0x60c>
   280f8: ed 1d 00 34  	cbz	w13, 0x284b4 <_ZN18ChiMetadataManager20RegisterSharedClientEPjjj16ChiMetadataUsage+0x61c>
   28100: 65 1e 00 34  	cbz	w5, 0x284cc <_ZN18ChiMetadataManager20RegisterSharedClientEPjjj16ChiMetadataUsage+0x634>
   28108: e1 1e 00 34  	cbz	w1, 0x284e4 <_ZN18ChiMetadataManager20RegisterSharedClientEPjjj16ChiMetadataUsage+0x64c>
   28110: 64 1f 00 34  	cbz	w4, 0x284fc <_ZN18ChiMetadataManager20RegisterSharedClientEPjjj16ChiMetadataUsage+0x664>
   28118: f3 1f 00 34  	cbz	w19, 0x28514 <_ZN18ChiMetadataManager20RegisterSharedClientEPjjj16ChiMetadataUsage+0x67c>
   28120: 68 20 00 34  	cbz	w8, 0x2852c <_ZN18ChiMetadataManager20RegisterSharedClientEPjjj16ChiMetadataUsage+0x694>
   28128: e2 20 00 34  	cbz	w2, 0x28544 <_ZN18ChiMetadataManager20RegisterSharedClientEPjjj16ChiMetadataUsage+0x6ac>
   28130: 6a 21 00 34  	cbz	w10, 0x2855c <_ZN18ChiMetadataManager20RegisterSharedClientEPjjj16ChiMetadataUsage+0x6c4>
   28138: ee 21 00 34  	cbz	w14, 0x28574 <_ZN18ChiMetadataManager20RegisterSharedClientEPjjj16ChiMetadataUsage+0x6dc>
   28140: 6f 22 00 34  	cbz	w15, 0x2858c <_ZN18ChiMetadataManager20RegisterSharedClientEPjjj16ChiMetadataUsage+0x6f4>
   28148: d0 28 00 34  	cbz	w16, 0x28660 <_ZN18ChiMetadataManager20RegisterSharedClientEPjjj16ChiMetadataUsage+0x7c8>
   28150: d1 28 00 34  	cbz	w17, 0x28668 <_ZN18ChiMetadataManager20RegisterSharedClientEPjjj16ChiMetadataUsage+0x7d0>
   28158: c7 28 00 34  	cbz	w7, 0x28670 <_ZN18ChiMetadataManager20RegisterSharedClientEPjjj16ChiMetadataUsage+0x7d8>
   28160: c6 28 00 34  	cbz	w6, 0x28678 <_ZN18ChiMetadataManager20RegisterSharedClientEPjjj16ChiMetadataUsage+0x7e0>
   28170: 01 f8 ff 54  	b.ne	0x28070 <_ZN18ChiMetadataManager20RegisterSharedClientEPjjj16ChiMetadataUsage+0x1d8>
   28174: 13 02 00 14  	b	0x289c0 <_ZN18ChiMetadataManager20RegisterSharedClientEPjjj16ChiMetadataUsage+0xb28>
   28180: 61 f6 ff 54  	b.ne	0x2804c <_ZN18ChiMetadataManager20RegisterSharedClientEPjjj16ChiMetadataUsage+0x1b4>
   281f0: a0 0d 00 34  	cbz	w0, 0x283a4 <_ZN18ChiMetadataManager20RegisterSharedClientEPjjj16ChiMetadataUsage+0x50c>
   281f8: 14 0e 00 34  	cbz	w20, 0x283b8 <_ZN18ChiMetadataManager20RegisterSharedClientEPjjj16ChiMetadataUsage+0x520>
   28204: 43 0e 00 34  	cbz	w3, 0x283cc <_ZN18ChiMetadataManager20RegisterSharedClientEPjjj16ChiMetadataUsage+0x534>
   2820c: 80 0e 00 34  	cbz	w0, 0x283dc <_ZN18ChiMetadataManager20RegisterSharedClientEPjjj16ChiMetadataUsage+0x544>
   28214: 14 0f 00 34  	cbz	w20, 0x283f4 <_ZN18ChiMetadataManager20RegisterSharedClientEPjjj16ChiMetadataUsage+0x55c>
   2821c: 83 0f 00 34  	cbz	w3, 0x2840c <_ZN18ChiMetadataManager20RegisterSharedClientEPjjj16ChiMetadataUsage+0x574>
   28224: 00 10 00 34  	cbz	w0, 0x28424 <_ZN18ChiMetadataManager20RegisterSharedClientEPjjj16ChiMetadataUsage+0x58c>
   2822c: 8d 10 00 34  	cbz	w13, 0x2843c <_ZN18ChiMetadataManager20RegisterSharedClientEPjjj16ChiMetadataUsage+0x5a4>
   28234: 14 11 00 34  	cbz	w20, 0x28454 <_ZN18ChiMetadataManager20RegisterSharedClientEPjjj16ChiMetadataUsage+0x5bc>
   28244: 40 11 00 34  	cbz	w0, 0x2846c <_ZN18ChiMetadataManager20RegisterSharedClientEPjjj16ChiMetadataUsage+0x5d4>
   28250: a3 11 00 34  	cbz	w3, 0x28484 <_ZN18ChiMetadataManager20RegisterSharedClientEPjjj16ChiMetadataUsage+0x5ec>
   2825c: e0 11 00 34  	cbz	w0, 0x28498 <_ZN18ChiMetadataManager20RegisterSharedClientEPjjj16ChiMetadataUsage+0x600>
   28264: 54 12 00 34  	cbz	w20, 0x284ac <_ZN18ChiMetadataManager20RegisterSharedClientEPjjj16ChiMetadataUsage+0x614>
   2826c: 83 12 00 34  	cbz	w3, 0x284bc <_ZN18ChiMetadataManager20RegisterSharedClientEPjjj16ChiMetadataUsage+0x624>
   28274: 00 13 00 34  	cbz	w0, 0x284d4 <_ZN18ChiMetadataManager20RegisterSharedClientEPjjj16ChiMetadataUsage+0x63c>
   2827c: 94 13 00 34  	cbz	w20, 0x284ec <_ZN18ChiMetadataManager20RegisterSharedClientEPjjj16ChiMetadataUsage+0x654>
   28284: 03 14 00 34  	cbz	w3, 0x28504 <_ZN18ChiMetadataManager20RegisterSharedClientEPjjj16ChiMetadataUsage+0x66c>
   2828c: 8d 14 00 34  	cbz	w13, 0x2851c <_ZN18ChiMetadataManager20RegisterSharedClientEPjjj16ChiMetadataUsage+0x684>
   28294: 00 15 00 34  	cbz	w0, 0x28534 <_ZN18ChiMetadataManager20RegisterSharedClientEPjjj16ChiMetadataUsage+0x69c>
   2829c: 94 15 00 34  	cbz	w20, 0x2854c <_ZN18ChiMetadataManager20RegisterSharedClientEPjjj16ChiMetadataUsage+0x6b4>
   282a4: 03 16 00 34  	cbz	w3, 0x28564 <_ZN18ChiMetadataManager20RegisterSharedClientEPjjj16ChiMetadataUsage+0x6cc>
   282ac: 8d 16 00 34  	cbz	w13, 0x2857c <_ZN18ChiMetadataManager20RegisterSharedClientEPjjj16ChiMetadataUsage+0x6e4>
   282b4: 00 17 00 34  	cbz	w0, 0x28594 <_ZN18ChiMetadataManager20RegisterSharedClientEPjjj16ChiMetadataUsage+0x6fc>
   282c4: 21 f9 ff 54  	b.ne	0x281e8 <_ZN18ChiMetadataManager20RegisterSharedClientEPjjj16ChiMetadataUsage+0x350>
   282c8: be 01 00 14  	b	0x289c0 <_ZN18ChiMetadataManager20RegisterSharedClientEPjjj16ChiMetadataUsage+0xb28>
   282d4: c1 eb ff 54  	b.ne	0x2804c <_ZN18ChiMetadataManager20RegisterSharedClientEPjjj16ChiMetadataUsage+0x1b4>
   282d8: ab ff ff 17  	b	0x28184 <_ZN18ChiMetadataManager20RegisterSharedClientEPjjj16ChiMetadataUsage+0x2ec>
   282e4: 41 eb ff 54  	b.ne	0x2804c <_ZN18ChiMetadataManager20RegisterSharedClientEPjjj16ChiMetadataUsage+0x1b4>
   282e8: a7 ff ff 17  	b	0x28184 <_ZN18ChiMetadataManager20RegisterSharedClientEPjjj16ChiMetadataUsage+0x2ec>
   282f4: c1 ea ff 54  	b.ne	0x2804c <_ZN18ChiMetadataManager20RegisterSharedClientEPjjj16ChiMetadataUsage+0x1b4>
   282f8: a3 ff ff 17  	b	0x28184 <_ZN18ChiMetadataManager20RegisterSharedClientEPjjj16ChiMetadataUsage+0x2ec>
   28308: 21 ea ff 54  	b.ne	0x2804c <_ZN18ChiMetadataManager20RegisterSharedClientEPjjj16ChiMetadataUsage+0x1b4>
   2830c: 9e ff ff 17  	b	0x28184 <_ZN18ChiMetadataManager20RegisterSharedClientEPjjj16ChiMetadataUsage+0x2ec>
   28318: a1 e9 ff 54  	b.ne	0x2804c <_ZN18ChiMetadataManager20RegisterSharedClientEPjjj16ChiMetadataUsage+0x1b4>
   2831c: 9a ff ff 17  	b	0x28184 <_ZN18ChiMetadataManager20RegisterSharedClientEPjjj16ChiMetadataUsage+0x2ec>
   28328: 21 e9 ff 54  	b.ne	0x2804c <_ZN18ChiMetadataManager20RegisterSharedClientEPjjj16ChiMetadataUsage+0x1b4>
   2832c: 96 ff ff 17  	b	0x28184 <_ZN18ChiMetadataManager20RegisterSharedClientEPjjj16ChiMetadataUsage+0x2ec>
   28338: a1 e8 ff 54  	b.ne	0x2804c <_ZN18ChiMetadataManager20RegisterSharedClientEPjjj16ChiMetadataUsage+0x1b4>
   2833c: 92 ff ff 17  	b	0x28184 <_ZN18ChiMetadataManager20RegisterSharedClientEPjjj16ChiMetadataUsage+0x2ec>
   28348: 21 e8 ff 54  	b.ne	0x2804c <_ZN18ChiMetadataManager20RegisterSharedClientEPjjj16ChiMetadataUsage+0x1b4>
   2834c: 8e ff ff 17  	b	0x28184 <_ZN18ChiMetadataManager20RegisterSharedClientEPjjj16ChiMetadataUsage+0x2ec>
   28358: a1 e7 ff 54  	b.ne	0x2804c <_ZN18ChiMetadataManager20RegisterSharedClientEPjjj16ChiMetadataUsage+0x1b4>
   2835c: 8a ff ff 17  	b	0x28184 <_ZN18ChiMetadataManager20RegisterSharedClientEPjjj16ChiMetadataUsage+0x2ec>
   28368: 21 e7 ff 54  	b.ne	0x2804c <_ZN18ChiMetadataManager20RegisterSharedClientEPjjj16ChiMetadataUsage+0x1b4>
   2836c: 86 ff ff 17  	b	0x28184 <_ZN18ChiMetadataManager20RegisterSharedClientEPjjj16ChiMetadataUsage+0x2ec>
   2837c: 81 e6 ff 54  	b.ne	0x2804c <_ZN18ChiMetadataManager20RegisterSharedClientEPjjj16ChiMetadataUsage+0x1b4>
   28380: 81 ff ff 17  	b	0x28184 <_ZN18ChiMetadataManager20RegisterSharedClientEPjjj16ChiMetadataUsage+0x2ec>
   28388: bd 00 00 14  	b	0x2867c <_ZN18ChiMetadataManager20RegisterSharedClientEPjjj16ChiMetadataUsage+0x7e4>
   28390: bb 00 00 14  	b	0x2867c <_ZN18ChiMetadataManager20RegisterSharedClientEPjjj16ChiMetadataUsage+0x7e4>
   28398: b9 00 00 14  	b	0x2867c <_ZN18ChiMetadataManager20RegisterSharedClientEPjjj16ChiMetadataUsage+0x7e4>
   283a0: b7 00 00 14  	b	0x2867c <_ZN18ChiMetadataManager20RegisterSharedClientEPjjj16ChiMetadataUsage+0x7e4>
   283ac: 7d 00 00 14  	b	0x285a0 <_ZN18ChiMetadataManager20RegisterSharedClientEPjjj16ChiMetadataUsage+0x708>
   283b4: b2 00 00 14  	b	0x2867c <_ZN18ChiMetadataManager20RegisterSharedClientEPjjj16ChiMetadataUsage+0x7e4>
   283c0: 78 00 00 14  	b	0x285a0 <_ZN18ChiMetadataManager20RegisterSharedClientEPjjj16ChiMetadataUsage+0x708>
   283c8: ad 00 00 14  	b	0x2867c <_ZN18ChiMetadataManager20RegisterSharedClientEPjjj16ChiMetadataUsage+0x7e4>
   283d0: 74 00 00 14  	b	0x285a0 <_ZN18ChiMetadataManager20RegisterSharedClientEPjjj16ChiMetadataUsage+0x708>
   283d8: a9 00 00 14  	b	0x2867c <_ZN18ChiMetadataManager20RegisterSharedClientEPjjj16ChiMetadataUsage+0x7e4>
   283e8: 6e 00 00 14  	b	0x285a0 <_ZN18ChiMetadataManager20RegisterSharedClientEPjjj16ChiMetadataUsage+0x708>
   283f0: a3 00 00 14  	b	0x2867c <_ZN18ChiMetadataManager20RegisterSharedClientEPjjj16ChiMetadataUsage+0x7e4>
   28400: 68 00 00 14  	b	0x285a0 <_ZN18ChiMetadataManager20RegisterSharedClientEPjjj16ChiMetadataUsage+0x708>
   28408: 9d 00 00 14  	b	0x2867c <_ZN18ChiMetadataManager20RegisterSharedClientEPjjj16ChiMetadataUsage+0x7e4>
   28418: 62 00 00 14  	b	0x285a0 <_ZN18ChiMetadataManager20RegisterSharedClientEPjjj16ChiMetadataUsage+0x708>
   28420: 97 00 00 14  	b	0x2867c <_ZN18ChiMetadataManager20RegisterSharedClientEPjjj16ChiMetadataUsage+0x7e4>
   28430: 5c 00 00 14  	b	0x285a0 <_ZN18ChiMetadataManager20RegisterSharedClientEPjjj16ChiMetadataUsage+0x708>
   28438: 91 00 00 14  	b	0x2867c <_ZN18ChiMetadataManager20RegisterSharedClientEPjjj16ChiMetadataUsage+0x7e4>
   28448: 56 00 00 14  	b	0x285a0 <_ZN18ChiMetadataManager20RegisterSharedClientEPjjj16ChiMetadataUsage+0x708>
   28450: 8b 00 00 14  	b	0x2867c <_ZN18ChiMetadataManager20RegisterSharedClientEPjjj16ChiMetadataUsage+0x7e4>
   28460: 50 00 00 14  	b	0x285a0 <_ZN18ChiMetadataManager20RegisterSharedClientEPjjj16ChiMetadataUsage+0x708>
   28468: 85 00 00 14  	b	0x2867c <_ZN18ChiMetadataManager20RegisterSharedClientEPjjj16ChiMetadataUsage+0x7e4>
   28478: 4a 00 00 14  	b	0x285a0 <_ZN18ChiMetadataManager20RegisterSharedClientEPjjj16ChiMetadataUsage+0x708>
   28480: 7f 00 00 14  	b	0x2867c <_ZN18ChiMetadataManager20RegisterSharedClientEPjjj16ChiMetadataUsage+0x7e4>
   2848c: 45 00 00 14  	b	0x285a0 <_ZN18ChiMetadataManager20RegisterSharedClientEPjjj16ChiMetadataUsage+0x708>
   28494: 7a 00 00 14  	b	0x2867c <_ZN18ChiMetadataManager20RegisterSharedClientEPjjj16ChiMetadataUsage+0x7e4>
   284a0: 40 00 00 14  	b	0x285a0 <_ZN18ChiMetadataManager20RegisterSharedClientEPjjj16ChiMetadataUsage+0x708>
   284a8: 75 00 00 14  	b	0x2867c <_ZN18ChiMetadataManager20RegisterSharedClientEPjjj16ChiMetadataUsage+0x7e4>
   284b0: 3c 00 00 14  	b	0x285a0 <_ZN18ChiMetadataManager20RegisterSharedClientEPjjj16ChiMetadataUsage+0x708>
   284b8: 71 00 00 14  	b	0x2867c <_ZN18ChiMetadataManager20RegisterSharedClientEPjjj16ChiMetadataUsage+0x7e4>
   284c8: 36 00 00 14  	b	0x285a0 <_ZN18ChiMetadataManager20RegisterSharedClientEPjjj16ChiMetadataUsage+0x708>
   284d0: 6b 00 00 14  	b	0x2867c <_ZN18ChiMetadataManager20RegisterSharedClientEPjjj16ChiMetadataUsage+0x7e4>
   284e0: 30 00 00 14  	b	0x285a0 <_ZN18ChiMetadataManager20RegisterSharedClientEPjjj16ChiMetadataUsage+0x708>
   284e8: 65 00 00 14  	b	0x2867c <_ZN18ChiMetadataManager20RegisterSharedClientEPjjj16ChiMetadataUsage+0x7e4>
   284f8: 2a 00 00 14  	b	0x285a0 <_ZN18ChiMetadataManager20RegisterSharedClientEPjjj16ChiMetadataUsage+0x708>
   28500: 5f 00 00 14  	b	0x2867c <_ZN18ChiMetadataManager20RegisterSharedClientEPjjj16ChiMetadataUsage+0x7e4>
   28510: 24 00 00 14  	b	0x285a0 <_ZN18ChiMetadataManager20RegisterSharedClientEPjjj16ChiMetadataUsage+0x708>
   28518: 59 00 00 14  	b	0x2867c <_ZN18ChiMetadataManager20RegisterSharedClientEPjjj16ChiMetadataUsage+0x7e4>
   28528: 1e 00 00 14  	b	0x285a0 <_ZN18ChiMetadataManager20RegisterSharedClientEPjjj16ChiMetadataUsage+0x708>
   28530: 53 00 00 14  	b	0x2867c <_ZN18ChiMetadataManager20RegisterSharedClientEPjjj16ChiMetadataUsage+0x7e4>
   28540: 18 00 00 14  	b	0x285a0 <_ZN18ChiMetadataManager20RegisterSharedClientEPjjj16ChiMetadataUsage+0x708>
   28548: 4d 00 00 14  	b	0x2867c <_ZN18ChiMetadataManager20RegisterSharedClientEPjjj16ChiMetadataUsage+0x7e4>
   28558: 12 00 00 14  	b	0x285a0 <_ZN18ChiMetadataManager20RegisterSharedClientEPjjj16ChiMetadataUsage+0x708>
   28560: 47 00 00 14  	b	0x2867c <_ZN18ChiMetadataManager20RegisterSharedClientEPjjj16ChiMetadataUsage+0x7e4>
   28570: 0c 00 00 14  	b	0x285a0 <_ZN18ChiMetadataManager20RegisterSharedClientEPjjj16ChiMetadataUsage+0x708>
   28578: 41 00 00 14  	b	0x2867c <_ZN18ChiMetadataManager20RegisterSharedClientEPjjj16ChiMetadataUsage+0x7e4>
   28588: 06 00 00 14  	b	0x285a0 <_ZN18ChiMetadataManager20RegisterSharedClientEPjjj16ChiMetadataUsage+0x708>
   28590: 3b 00 00 14  	b	0x2867c <_ZN18ChiMetadataManager20RegisterSharedClientEPjjj16ChiMetadataUsage+0x7e4>
   285a4: 60 05 00 54  	b.eq	0x28650 <_ZN18ChiMetadataManager20RegisterSharedClientEPjjj16ChiMetadataUsage+0x7b8>
   285e4: a8 03 00 54  	b.hi	0x28658 <_ZN18ChiMetadataManager20RegisterSharedClientEPjjj16ChiMetadataUsage+0x7c0>
   28614: cb 00 00 54  	b.lt	0x2862c <_ZN18ChiMetadataManager20RegisterSharedClientEPjjj16ChiMetadataUsage+0x794>
   28638: 60 00 00 b4  	cbz	x0, 0x28644 <_ZN18ChiMetadataManager20RegisterSharedClientEPjjj16ChiMetadataUsage+0x7ac>
   2864c: 10 00 00 14  	b	0x2868c <_ZN18ChiMetadataManager20RegisterSharedClientEPjjj16ChiMetadataUsage+0x7f4>
   28654: db 00 00 14  	b	0x289c0 <_ZN18ChiMetadataManager20RegisterSharedClientEPjjj16ChiMetadataUsage+0xb28>
   2865c: 0c 00 00 14  	b	0x2868c <_ZN18ChiMetadataManager20RegisterSharedClientEPjjj16ChiMetadataUsage+0x7f4>
   28664: 06 00 00 14  	b	0x2867c <_ZN18ChiMetadataManager20RegisterSharedClientEPjjj16ChiMetadataUsage+0x7e4>
   2866c: 04 00 00 14  	b	0x2867c <_ZN18ChiMetadataManager20RegisterSharedClientEPjjj16ChiMetadataUsage+0x7e4>
   28674: 02 00 00 14  	b	0x2867c <_ZN18ChiMetadataManager20RegisterSharedClientEPjjj16ChiMetadataUsage+0x7e4>
   28680: 00 1a 00 54  	b.eq	0x289c0 <_ZN18ChiMetadataManager20RegisterSharedClientEPjjj16ChiMetadataUsage+0xb28>
   28690: 88 19 00 54  	b.hi	0x289c0 <_ZN18ChiMetadataManager20RegisterSharedClientEPjjj16ChiMetadataUsage+0xb28>
   28698: 48 19 00 54  	b.hi	0x289c0 <_ZN18ChiMetadataManager20RegisterSharedClientEPjjj16ChiMetadataUsage+0xb28>
   286ac: 78 16 00 34  	cbz	w24, 0x28978 <_ZN18ChiMetadataManager20RegisterSharedClientEPjjj16ChiMetadataUsage+0xae0>
   286c0: 10 00 00 14  	b	0x28700 <_ZN18ChiMetadataManager20RegisterSharedClientEPjjj16ChiMetadataUsage+0x868>
   286d4: cb 03 00 b4  	cbz	x11, 0x2874c <_ZN18ChiMetadataManager20RegisterSharedClientEPjjj16ChiMetadataUsage+0x8b4>
   286fc: e0 13 00 54  	b.eq	0x28978 <_ZN18ChiMetadataManager20RegisterSharedClientEPjjj16ChiMetadataUsage+0xae0>
   28708: fc 01 00 b4  	cbz	x28, 0x28744 <_ZN18ChiMetadataManager20RegisterSharedClientEPjjj16ChiMetadataUsage+0x8ac>
   28720: 49 03 00 54  	b.ls	0x28788 <_ZN18ChiMetadataManager20RegisterSharedClientEPjjj16ChiMetadataUsage+0x8f0>
   2873c: 18 03 00 b5  	cbnz	x24, 0x2879c <_ZN18ChiMetadataManager20RegisterSharedClientEPjjj16ChiMetadataUsage+0x904>
   28740: 34 00 00 14  	b	0x28810 <_ZN18ChiMetadataManager20RegisterSharedClientEPjjj16ChiMetadataUsage+0x978>
   28748: 32 00 00 14  	b	0x28810 <_ZN18ChiMetadataManager20RegisterSharedClientEPjjj16ChiMetadataUsage+0x978>
   28760: 2d fc ff b4  	cbz	x13, 0x286e4 <_ZN18ChiMetadataManager20RegisterSharedClientEPjjj16ChiMetadataUsage+0x84c>
   28770: e0 0e 00 54  	b.eq	0x2894c <_ZN18ChiMetadataManager20RegisterSharedClientEPjjj16ChiMetadataUsage+0xab4>
   28778: c3 0e 00 54  	b.lo	0x28950 <_ZN18ChiMetadataManager20RegisterSharedClientEPjjj16ChiMetadataUsage+0xab8>
   28784: 73 00 00 14  	b	0x28950 <_ZN18ChiMetadataManager20RegisterSharedClientEPjjj16ChiMetadataUsage+0xab8>
   28798: d8 03 00 b4  	cbz	x24, 0x28810 <_ZN18ChiMetadataManager20RegisterSharedClientEPjjj16ChiMetadataUsage+0x978>
   287a0: 48 02 00 54  	b.hi	0x287e8 <_ZN18ChiMetadataManager20RegisterSharedClientEPjjj16ChiMetadataUsage+0x950>
   287ac: 38 03 00 b4  	cbz	x24, 0x28810 <_ZN18ChiMetadataManager20RegisterSharedClientEPjjj16ChiMetadataUsage+0x978>
   287c0: 81 02 00 54  	b.ne	0x28810 <_ZN18ChiMetadataManager20RegisterSharedClientEPjjj16ChiMetadataUsage+0x978>
   287cc: e1 fe ff 54  	b.ne	0x287a8 <_ZN18ChiMetadataManager20RegisterSharedClientEPjjj16ChiMetadataUsage+0x910>
   287d0: c8 ff ff 17  	b	0x286f0 <_ZN18ChiMetadataManager20RegisterSharedClientEPjjj16ChiMetadataUsage+0x858>
   287d8: c1 01 00 54  	b.ne	0x28810 <_ZN18ChiMetadataManager20RegisterSharedClientEPjjj16ChiMetadataUsage+0x978>
   287e4: 60 f8 ff 54  	b.eq	0x286f0 <_ZN18ChiMetadataManager20RegisterSharedClientEPjjj16ChiMetadataUsage+0x858>
   287ec: 38 01 00 b4  	cbz	x24, 0x28810 <_ZN18ChiMetadataManager20RegisterSharedClientEPjjj16ChiMetadataUsage+0x978>
   287f8: 20 ff ff 54  	b.eq	0x287dc <_ZN18ChiMetadataManager20RegisterSharedClientEPjjj16ChiMetadataUsage+0x944>
   28800: a3 fe ff 54  	b.lo	0x287d4 <_ZN18ChiMetadataManager20RegisterSharedClientEPjjj16ChiMetadataUsage+0x93c>
   2880c: f2 ff ff 17  	b	0x287d4 <_ZN18ChiMetadataManager20RegisterSharedClientEPjjj16ChiMetadataUsage+0x93c>
   2883c: bc 00 00 b4  	cbz	x28, 0x28850 <_ZN18ChiMetadataManager20RegisterSharedClientEPjjj16ChiMetadataUsage+0x9b8>
   2884c: 05 f4 ff 54  	b.pl	0x286cc <_ZN18ChiMetadataManager20RegisterSharedClientEPjjj16ChiMetadataUsage+0x834>
   28880: 61 00 00 54  	b.ne	0x2888c <_ZN18ChiMetadataManager20RegisterSharedClientEPjjj16ChiMetadataUsage+0x9f4>
   28888: 06 00 00 14  	b	0x288a0 <_ZN18ChiMetadataManager20RegisterSharedClientEPjjj16ChiMetadataUsage+0xa08>
   28890: 80 00 00 54  	b.eq	0x288a0 <_ZN18ChiMetadataManager20RegisterSharedClientEPjjj16ChiMetadataUsage+0xa08>
   28898: 1e 10 00 94  	bl	0x2c910 <_ZNSt3__112__next_primeEm@plt>
   288a8: a9 00 00 54  	b.ls	0x288bc <_ZN18ChiMetadataManager20RegisterSharedClientEPjjj16ChiMetadataUsage+0xa24>
   288b4: 43 0d 00 94  	bl	0x2bdc0 <_ZN18ChiMetadataManager15PrintAllBuffersEj+0x2f0>
   288b8: 1a 00 00 14  	b	0x28920 <_ZN18ChiMetadataManager20RegisterSharedClientEPjjj16ChiMetadataUsage+0xa88>
   288bc: 22 03 00 54  	b.hs	0x28920 <_ZN18ChiMetadataManager20RegisterSharedClientEPjjj16ChiMetadataUsage+0xa88>
   288d8: 23 04 00 54  	b.lo	0x2895c <_ZN18ChiMetadataManager20RegisterSharedClientEPjjj16ChiMetadataUsage+0xac4>
   288f0: 68 03 00 54  	b.hi	0x2895c <_ZN18ChiMetadataManager20RegisterSharedClientEPjjj16ChiMetadataUsage+0xac4>
   2891c: a3 02 00 54  	b.lo	0x28970 <_ZN18ChiMetadataManager20RegisterSharedClientEPjjj16ChiMetadataUsage+0xad8>
   2892c: c0 ec ff 54  	b.eq	0x286c4 <_ZN18ChiMetadataManager20RegisterSharedClientEPjjj16ChiMetadataUsage+0x82c>
   28934: 69 00 00 54  	b.ls	0x28940 <_ZN18ChiMetadataManager20RegisterSharedClientEPjjj16ChiMetadataUsage+0xaa8>
   2893c: 64 ff ff 17  	b	0x286cc <_ZN18ChiMetadataManager20RegisterSharedClientEPjjj16ChiMetadataUsage+0x834>
   28948: 61 ff ff 17  	b	0x286cc <_ZN18ChiMetadataManager20RegisterSharedClientEPjjj16ChiMetadataUsage+0x834>
   28958: 63 ff ff 17  	b	0x286e4 <_ZN18ChiMetadataManager20RegisterSharedClientEPjjj16ChiMetadataUsage+0x84c>
   2895c: ed 0f 00 94  	bl	0x2c910 <_ZNSt3__112__next_primeEm@plt>
   2896c: a2 fd ff 54  	b.hs	0x28920 <_ZN18ChiMetadataManager20RegisterSharedClientEPjjj16ChiMetadataUsage+0xa88>
   28974: d0 ff ff 17  	b	0x288b4 <_ZN18ChiMetadataManager20RegisterSharedClientEPjjj16ChiMetadataUsage+0xa1c>
   28980: b4 00 00 94  	bl	0x28c50 <_ZN18ChiMetadataManager23RetrievePartialTagCountEj+0x10>
   289b4: e7 0f 00 94  	bl	0x2c950 <_ZN18ChiMetadataManager10MetaClient15AllocateBuffersEPjjjjj@plt>
   289b8: c0 08 00 34  	cbz	w0, 0x28ad0 <_ZN18ChiMetadataManager20RegisterSharedClientEPjjj16ChiMetadataUsage+0xc38>
   289c0: 3a 00 00 b0  	adrp	x26, 0x2d000 <_ZN18ChiMetadataManager20RegisterSharedClientEPjjj16ChiMetadataUsage+0xb3c>
   289d4: 68 05 00 36  	tbz	w8, #0, 0x28a80 <_ZN18ChiMetadataManager20RegisterSharedClientEPjjj16ChiMetadataUsage+0xbe8>
   289d8: 36 00 00 b0  	adrp	x22, 0x2d000 <_ZN18ChiMetadataManager20RegisterSharedClientEPjjj16ChiMetadataUsage+0xb54>
   289e8: 61 02 00 54  	b.ne	0x28a34 <_ZN18ChiMetadataManager20RegisterSharedClientEPjjj16ChiMetadataUsage+0xb9c>
   289ec: 15 ff ff f0  	adrp	x21, 0xb000 <_ZN18ChiMetadataManager20RegisterSharedClientEPjjj16ChiMetadataUsage+0xae0>
   28a08: 21 ff ff b0  	adrp	x1, 0xd000 <_ZN18ChiMetadataManager20RegisterSharedClientEPjjj16ChiMetadataUsage+0xb04>
   28a0c: 02 ff ff d0  	adrp	x2, 0xa000 <_ZN18ChiMetadataManager20RegisterSharedClientEPjjj16ChiMetadataUsage+0xafc>
   28a10: 25 ff ff b0  	adrp	x5, 0xd000 <_ZN18ChiMetadataManager20RegisterSharedClientEPjjj16ChiMetadataUsage+0xb0c>
   28a34: 1b ff ff f0  	adrp	x27, 0xb000 <_ZN18ChiMetadataManager20RegisterSharedClientEPjjj16ChiMetadataUsage+0xb28>
   28a50: 21 ff ff b0  	adrp	x1, 0xd000 <_ZN18ChiMetadataManager20RegisterSharedClientEPjjj16ChiMetadataUsage+0xb4c>
   28a58: 00 ff ff b0  	adrp	x0, 0x9000 <_ZN18ChiMetadataManager20RegisterSharedClientEPjjj16ChiMetadataUsage+0xb44>
   28a5c: 23 ff ff b0  	adrp	x3, 0xd000 <_ZN18ChiMetadataManager20RegisterSharedClientEPjjj16ChiMetadataUsage+0xb58>
   28a60: 25 ff ff 90  	adrp	x5, 0xc000 <_ZN18ChiMetadataManager20RegisterSharedClientEPjjj16ChiMetadataUsage+0xb58>
   28a7c: b1 0d 00 94  	bl	0x2c140 <_ZN6ChiLog9LogSystemEPKcS1_S1_S1_iS1_z@plt>
   28a88: 62 0e 00 94  	bl	0x2c410 <_ZNSt3__15mutex6unlockEv@plt>
   28a90: 60 00 00 b4  	cbz	x0, 0x28a9c <_ZN18ChiMetadataManager20RegisterSharedClientEPjjj16ChiMetadataUsage+0xc04>
   28aa8: 21 09 00 54  	b.ne	0x28bcc <_ZN18ChiMetadataManager20RegisterSharedClientEPjjj16ChiMetadataUsage+0xd34>
   28ae0: 39 00 00 b0  	adrp	x25, 0x2d000 <_ZN18ChiMetadataManager20RegisterSharedClientEPjjj16ChiMetadataUsage+0xc5c>
   28af0: 40 06 00 54  	b.eq	0x28bb8 <_ZN18ChiMetadataManager20RegisterSharedClientEPjjj16ChiMetadataUsage+0xd20>
   28b00: 28 fc 1f 36  	tbz	w8, #3, 0x28a84 <_ZN18ChiMetadataManager20RegisterSharedClientEPjjj16ChiMetadataUsage+0xbec>
   28b04: 2c 00 00 b0  	adrp	x12, 0x2d000 <_ZN18ChiMetadataManager20RegisterSharedClientEPjjj16ChiMetadataUsage+0xc80>
   28b08: 15 ff ff f0  	adrp	x21, 0xb000 <_ZN18ChiMetadataManager20RegisterSharedClientEPjjj16ChiMetadataUsage+0xbfc>
   28b1c: 61 02 00 54  	b.ne	0x28b68 <_ZN18ChiMetadataManager20RegisterSharedClientEPjjj16ChiMetadataUsage+0xcd0>
   28b34: 21 ff ff b0  	adrp	x1, 0xd000 <_ZN18ChiMetadataManager20RegisterSharedClientEPjjj16ChiMetadataUsage+0xc30>
   28b38: 02 ff ff d0  	adrp	x2, 0xa000 <_ZN18ChiMetadataManager20RegisterSharedClientEPjjj16ChiMetadataUsage+0xc28>
   28b3c: 25 ff ff b0  	adrp	x5, 0xd000 <_ZN18ChiMetadataManager20RegisterSharedClientEPjjj16ChiMetadataUsage+0xc38>
   28b7c: 01 ff ff f0  	adrp	x1, 0xb000 <_ZN18ChiMetadataManager20RegisterSharedClientEPjjj16ChiMetadataUsage+0xc70>
   28b84: 20 ff ff d0  	adrp	x0, 0xe000 <_ZN18ChiMetadataManager20RegisterSharedClientEPjjj16ChiMetadataUsage+0xc84>
   28b88: 23 ff ff b0  	adrp	x3, 0xd000 <_ZN18ChiMetadataManager20RegisterSharedClientEPjjj16ChiMetadataUsage+0xc84>
   28b8c: 05 ff ff d0  	adrp	x5, 0xa000 <_ZN18ChiMetadataManager20RegisterSharedClientEPjjj16ChiMetadataUsage+0xc7c>
   28bb0: 64 0d 00 94  	bl	0x2c140 <_ZN6ChiLog9LogSystemEPKcS1_S1_S1_iS1_z@plt>
   28bb4: b4 ff ff 17  	b	0x28a84 <_ZN18ChiMetadataManager20RegisterSharedClientEPjjj16ChiMetadataUsage+0xbec>
   28bc4: e8 f5 07 36  	tbz	w8, #0, 0x28a80 <_ZN18ChiMetadataManager20RegisterSharedClientEPjjj16ChiMetadataUsage+0xbe8>
   28bc8: 84 ff ff 17  	b	0x289d8 <_ZN18ChiMetadataManager20RegisterSharedClientEPjjj16ChiMetadataUsage+0xb40>
0000000000028bd0 <_ZN18ChiMetadataManager12IsFreeClientERKNS_10MetaClientE>:
0000000000028be0 <_ZN18ChiMetadataManager16IsRealtimeClientERKNS_10MetaClientE>:
   28be4: a8 00 00 34  	cbz	w8, 0x28bf8 <_ZN18ChiMetadataManager16IsRealtimeClientERKNS_10MetaClientE+0x18>
0000000000028c00 <_ZN18ChiMetadataManager15IsOfflineClientERKNS_10MetaClientE>:
   28c04: a8 00 00 34  	cbz	w8, 0x28c18 <_ZN18ChiMetadataManager15IsOfflineClientERKNS_10MetaClientE+0x18>
0000000000028c20 <_ZN18ChiMetadataManager15IsFreeSubClientERKNS_10MetaClient9SubClientE>:
0000000000028c30 <_ZN18ChiMetadataManager19RetrievePartialTagsEj>:
0000000000028c40 <_ZN18ChiMetadataManager23RetrievePartialTagCountEj>:
   28c68: a1 02 00 b4  	cbz	x1, 0x28cbc <_ZN18ChiMetadataManager23RetrievePartialTagCountEj+0x7c>
   28c7c: cc ff ff b5  	cbnz	x12, 0x28c74 <_ZN18ChiMetadataManager23RetrievePartialTagCountEj+0x34>
   28c90: 22 02 00 54  	b.hs	0x28cd4 <_ZN18ChiMetadataManager23RetrievePartialTagCountEj+0x94>
   28ca4: 02 06 00 54  	b.hs	0x28d64 <_ZN18ChiMetadataManager23RetrievePartialTagCountEj+0x124>
   28cb4: e1 06 00 54  	b.ne	0x28d90 <_ZN18ChiMetadataManager23RetrievePartialTagCountEj+0x150>
   28cb8: 3b 00 00 14  	b	0x28da4 <_ZN18ChiMetadataManager23RetrievePartialTagCountEj+0x164>
   28ccc: 21 06 00 54  	b.ne	0x28d90 <_ZN18ChiMetadataManager23RetrievePartialTagCountEj+0x150>
   28cd0: 35 00 00 14  	b	0x28da4 <_ZN18ChiMetadataManager23RetrievePartialTagCountEj+0x164>
   28cd4: c0 00 00 b4  	cbz	x0, 0x28cec <_ZN18ChiMetadataManager23RetrievePartialTagCountEj+0xac>
   28cf4: 22 08 00 54  	b.hs	0x28df8 <_ZN18ChiMetadataManager23RetrievePartialTagCountEj+0x1b8>
   28d18: 10 07 00 b5  	cbnz	x16, 0x28df8 <_ZN18ChiMetadataManager23RetrievePartialTagCountEj+0x1b8>
   28d50: 74 ff ff b5  	cbnz	x20, 0x28d3c <_ZN18ChiMetadataManager23RetrievePartialTagCountEj+0xfc>
   28d68: eb 03 00 54  	b.lt	0x28de4 <_ZN18ChiMetadataManager23RetrievePartialTagCountEj+0x1a4>
   28d80: ac ff ff 54  	b.gt	0x28d74 <_ZN18ChiMetadataManager23RetrievePartialTagCountEj+0x134>
   28d8c: c0 00 00 54  	b.eq	0x28da4 <_ZN18ChiMetadataManager23RetrievePartialTagCountEj+0x164>
   28da0: 81 ff ff 54  	b.ne	0x28d90 <_ZN18ChiMetadataManager23RetrievePartialTagCountEj+0x150>
   28da4: 69 01 00 34  	cbz	w9, 0x28dd0 <_ZN18ChiMetadataManager23RetrievePartialTagCountEj+0x190>
   28da8: 68 fd ff b4  	cbz	x8, 0x28d54 <_ZN18ChiMetadataManager23RetrievePartialTagCountEj+0x114>
   28dc8: 68 ff ff b5  	cbnz	x8, 0x28db4 <_ZN18ChiMetadataManager23RetrievePartialTagCountEj+0x174>
   28dcc: e2 ff ff 17  	b	0x28d54 <_ZN18ChiMetadataManager23RetrievePartialTagCountEj+0x114>
   28df0: 01 fd ff 54  	b.ne	0x28d90 <_ZN18ChiMetadataManager23RetrievePartialTagCountEj+0x150>
   28df4: ec ff ff 17  	b	0x28da4 <_ZN18ChiMetadataManager23RetrievePartialTagCountEj+0x164>
   28dfc: a1 0e 00 94  	bl	0x2c880 <_ZNKSt3__120__vector_base_commonILb1EE20__throw_length_errorEv@plt>
0000000000028e00 <_ZN18ChiMetadataManager16UnregisterClientEj>:
   28e28: 72 0d 00 94  	bl	0x2c3f0 <_ZNSt3__15mutex4lockEv@plt>
   28e34: a8 01 00 54  	b.hi	0x28e68 <_ZN18ChiMetadataManager16UnregisterClientEj+0x68>
   28e44: 28 01 00 54  	b.hi	0x28e68 <_ZN18ChiMetadataManager16UnregisterClientEj+0x68>
   28e64: 2e 00 00 14  	b	0x28f1c <_ZN18ChiMetadataManager16UnregisterClientEj+0x11c>
   28e68: 29 00 00 b0  	adrp	x9, 0x2d000 <_ZN18ChiMetadataManager16UnregisterClientEj+0x7c>
   28e74: 28 05 00 36  	tbz	w8, #0, 0x28f18 <_ZN18ChiMetadataManager16UnregisterClientEj+0x118>
   28e78: 2a 00 00 b0  	adrp	x10, 0x2d000 <_ZN18ChiMetadataManager16UnregisterClientEj+0x8c>
   28e7c: 15 ff ff f0  	adrp	x21, 0xb000 <_ZN18ChiMetadataManager16UnregisterClientEj+0x8>
   28e90: 21 02 00 54  	b.ne	0x28ed4 <_ZN18ChiMetadataManager16UnregisterClientEj+0xd4>
   28ea8: 21 ff ff b0  	adrp	x1, 0xd000 <_ZN18ChiMetadataManager16UnregisterClientEj+0x3c>
   28eac: 02 ff ff d0  	adrp	x2, 0xa000 <_ZN18ChiMetadataManager16UnregisterClientEj+0x34>
   28eb0: 25 ff ff 90  	adrp	x5, 0xc000 <_ZN18ChiMetadataManager16UnregisterClientEj+0x40>
   28ee8: 21 ff ff b0  	adrp	x1, 0xd000 <_ZN18ChiMetadataManager16UnregisterClientEj+0x7c>
   28ef0: 00 ff ff b0  	adrp	x0, 0x9000 <_ZN18ChiMetadataManager16UnregisterClientEj+0x74>
   28ef4: 23 ff ff 90  	adrp	x3, 0xc000 <_ZN18ChiMetadataManager16UnregisterClientEj+0x84>
   28ef8: 25 ff ff b0  	adrp	x5, 0xd000 <_ZN18ChiMetadataManager16UnregisterClientEj+0x8c>
   28f14: 8b 0c 00 94  	bl	0x2c140 <_ZN6ChiLog9LogSystemEPKcS1_S1_S1_iS1_z@plt>
   28f20: 3c 0d 00 94  	bl	0x2c410 <_ZNSt3__15mutex6unlockEv@plt>
0000000000028f38 <_ZN18ChiMetadataManager5FlushEv>:
   28f6c: 21 0d 00 94  	bl	0x2c3f0 <_ZNSt3__15mutex4lockEv@plt>
   28f84: 06 00 00 14  	b	0x28f9c <_ZN18ChiMetadataManager5FlushEv+0x64>
   28f8c: 21 0d 00 94  	bl	0x2c410 <_ZNSt3__15mutex6unlockEv@plt>
   28f98: 60 0d 00 54  	b.eq	0x29144 <_ZN18ChiMetadataManager5FlushEv+0x20c>
   28fa4: 08 03 00 34  	cbz	w8, 0x29004 <_ZN18ChiMetadataManager5FlushEv+0xcc>
   28fb0: 10 0d 00 94  	bl	0x2c3f0 <_ZNSt3__15mutex4lockEv@plt>
   28fbc: 00 02 00 54  	b.eq	0x28ffc <_ZN18ChiMetadataManager5FlushEv+0xc4>
   28ff8: 83 fe ff 54  	b.lo	0x28fc8 <_ZN18ChiMetadataManager5FlushEv+0x90>
   29000: 04 0d 00 94  	bl	0x2c410 <_ZNSt3__15mutex6unlockEv@plt>
   29008: 49 03 00 34  	cbz	w9, 0x29070 <_ZN18ChiMetadataManager5FlushEv+0x138>
   29014: f7 0c 00 94  	bl	0x2c3f0 <_ZNSt3__15mutex4lockEv@plt>
   29024: 20 02 00 54  	b.eq	0x29068 <_ZN18ChiMetadataManager5FlushEv+0x130>
   29064: 63 fe ff 54  	b.lo	0x29030 <_ZN18ChiMetadataManager5FlushEv+0xf8>
   2906c: e9 0c 00 94  	bl	0x2c410 <_ZNSt3__15mutex6unlockEv@plt>
   29074: 4a 03 00 34  	cbz	w10, 0x290dc <_ZN18ChiMetadataManager5FlushEv+0x1a4>
   29080: dc 0c 00 94  	bl	0x2c3f0 <_ZNSt3__15mutex4lockEv@plt>
   29090: 20 02 00 54  	b.eq	0x290d4 <_ZN18ChiMetadataManager5FlushEv+0x19c>
   290d0: 63 fe ff 54  	b.lo	0x2909c <_ZN18ChiMetadataManager5FlushEv+0x164>
   290d8: ce 0c 00 94  	bl	0x2c410 <_ZNSt3__15mutex6unlockEv@plt>
   290e0: 8b f5 ff 34  	cbz	w11, 0x28f90 <_ZN18ChiMetadataManager5FlushEv+0x58>
   290ec: c1 0c 00 94  	bl	0x2c3f0 <_ZNSt3__15mutex4lockEv@plt>
   290fc: 60 f4 ff 54  	b.eq	0x28f88 <_ZN18ChiMetadataManager5FlushEv+0x50>
   2913c: 63 fe ff 54  	b.lo	0x29108 <_ZN18ChiMetadataManager5FlushEv+0x1d0>
   29140: 92 ff ff 17  	b	0x28f88 <_ZN18ChiMetadataManager5FlushEv+0x50>
   29148: b2 0c 00 94  	bl	0x2c410 <_ZNSt3__15mutex6unlockEv@plt>
0000000000029170 <_ZN18ChiMetadataManager13SetPipelineIdEjj>:
   2919c: 95 0c 00 94  	bl	0x2c3f0 <_ZNSt3__15mutex4lockEv@plt>
   291a8: c8 01 00 54  	b.hi	0x291e0 <_ZN18ChiMetadataManager13SetPipelineIdEjj+0x70>
   291b8: 48 01 00 54  	b.hi	0x291e0 <_ZN18ChiMetadataManager13SetPipelineIdEjj+0x70>
   291d0: eb 05 00 34  	cbz	w11, 0x2928c <_ZN18ChiMetadataManager13SetPipelineIdEjj+0x11c>
   291dc: 5b 00 00 14  	b	0x29348 <_ZN18ChiMetadataManager13SetPipelineIdEjj+0x1d8>
   291e0: 2b 00 00 90  	adrp	x11, 0x2d000 <_ZN18ChiMetadataManager13SetPipelineIdEjj+0x80>
   291ec: cc 0a 08 36  	tbz	w12, #1, 0x29344 <_ZN18ChiMetadataManager13SetPipelineIdEjj+0x1d4>
   291f0: 2c 00 00 90  	adrp	x12, 0x2d000 <_ZN18ChiMetadataManager13SetPipelineIdEjj+0x90>
   291f4: 15 ff ff d0  	adrp	x21, 0xb000 <_ZN18ChiMetadataManager13SetPipelineIdEjj+0xc>
   29208: 21 02 00 54  	b.ne	0x2924c <_ZN18ChiMetadataManager13SetPipelineIdEjj+0xdc>
   29220: 21 ff ff 90  	adrp	x1, 0xd000 <_ZN18ChiMetadataManager13SetPipelineIdEjj+0x40>
   29224: 02 ff ff f0  	adrp	x2, 0xc000 <_ZN18ChiMetadataManager13SetPipelineIdEjj+0x40>
   29228: 05 ff ff f0  	adrp	x5, 0xc000 <_ZN18ChiMetadataManager13SetPipelineIdEjj+0x44>
   29260: 01 ff ff b0  	adrp	x1, 0xa000 <_ZN18ChiMetadataManager13SetPipelineIdEjj+0x74>
   29268: 00 ff ff f0  	adrp	x0, 0xc000 <_ZN18ChiMetadataManager13SetPipelineIdEjj+0x84>
   2926c: 03 ff ff f0  	adrp	x3, 0xc000 <_ZN18ChiMetadataManager13SetPipelineIdEjj+0x88>
   29270: 25 ff ff 90  	adrp	x5, 0xd000 <_ZN18ChiMetadataManager13SetPipelineIdEjj+0x90>
   29288: 2d 00 00 14  	b	0x2933c <_ZN18ChiMetadataManager13SetPipelineIdEjj+0x1cc>
   2928c: 29 00 00 90  	adrp	x9, 0x2d000 <_ZN18ChiMetadataManager13SetPipelineIdEjj+0x12c>
   29298: 68 05 00 36  	tbz	w8, #0, 0x29344 <_ZN18ChiMetadataManager13SetPipelineIdEjj+0x1d4>
   2929c: 2a 00 00 90  	adrp	x10, 0x2d000 <_ZN18ChiMetadataManager13SetPipelineIdEjj+0x13c>
   292ac: 61 02 00 54  	b.ne	0x292f8 <_ZN18ChiMetadataManager13SetPipelineIdEjj+0x188>
   292b0: 15 ff ff d0  	adrp	x21, 0xb000 <_ZN18ChiMetadataManager13SetPipelineIdEjj+0xc8>
   292cc: 21 ff ff 90  	adrp	x1, 0xd000 <_ZN18ChiMetadataManager13SetPipelineIdEjj+0xec>
   292d0: 02 ff ff d0  	adrp	x2, 0xb000 <_ZN18ChiMetadataManager13SetPipelineIdEjj+0xe8>
   292d4: 05 ff ff f0  	adrp	x5, 0xc000 <_ZN18ChiMetadataManager13SetPipelineIdEjj+0xf0>
   292f8: 16 ff ff d0  	adrp	x22, 0xb000 <_ZN18ChiMetadataManager13SetPipelineIdEjj+0x110>
   29314: 21 ff ff 90  	adrp	x1, 0xd000 <_ZN18ChiMetadataManager13SetPipelineIdEjj+0x134>
   2931c: 00 ff ff 90  	adrp	x0, 0x9000 <_ZN18ChiMetadataManager13SetPipelineIdEjj+0x12c>
   29320: 03 ff ff f0  	adrp	x3, 0xc000 <_ZN18ChiMetadataManager13SetPipelineIdEjj+0x13c>
   29324: 25 ff ff 90  	adrp	x5, 0xd000 <_ZN18ChiMetadataManager13SetPipelineIdEjj+0x144>
   29340: 80 0b 00 94  	bl	0x2c140 <_ZN6ChiLog9LogSystemEPKcS1_S1_S1_iS1_z@plt>
   2934c: 31 0c 00 94  	bl	0x2c410 <_ZNSt3__15mutex6unlockEv@plt>
0000000000029368 <_ZN18ChiMetadataManager13GetFreeHolderEjjjRNSt3__16chrono10time_pointINS1_12steady_clockENS1_8durationIxNS0_5ratioILl1ELl1000000000EEEEEEE>:
   293bc: e9 02 00 34  	cbz	w9, 0x29418 <_ZN18ChiMetadataManager13GetFreeHolderEjjjRNSt3__16chrono10time_pointINS1_12steady_clockENS1_8durationIxNS0_5ratioILl1ELl1000000000EEEEEEE+0xb0>
   293c8: 8a 02 00 34  	cbz	w10, 0x29418 <_ZN18ChiMetadataManager13GetFreeHolderEjjjRNSt3__16chrono10time_pointINS1_12steady_clockENS1_8durationIxNS0_5ratioILl1ELl1000000000EEEEEEE+0xb0>
   293dc: 05 0c 00 94  	bl	0x2c3f0 <_ZNSt3__15mutex4lockEv@plt>
   293ec: 60 0a 00 54  	b.eq	0x29538 <_ZN18ChiMetadataManager13GetFreeHolderEjjjRNSt3__16chrono10time_pointINS1_12steady_clockENS1_8durationIxNS0_5ratioILl1ELl1000000000EEEEEEE+0x1d0>
   29404: 2b 07 00 35  	cbnz	w11, 0x294e8 <_ZN18ChiMetadataManager13GetFreeHolderEjjjRNSt3__16chrono10time_pointINS1_12steady_clockENS1_8durationIxNS0_5ratioILl1ELl1000000000EEEEEEE+0x180>
   29410: 68 ff ff 54  	b.hi	0x293fc <_ZN18ChiMetadataManager13GetFreeHolderEjjjRNSt3__16chrono10time_pointINS1_12steady_clockENS1_8durationIxNS0_5ratioILl1ELl1000000000EEEEEEE+0x94>
   29414: 38 00 00 14  	b	0x294f4 <_ZN18ChiMetadataManager13GetFreeHolderEjjjRNSt3__16chrono10time_pointINS1_12steady_clockENS1_8durationIxNS0_5ratioILl1ELl1000000000EEEEEEE+0x18c>
   29418: 37 00 00 90  	adrp	x23, 0x2d000 <_ZN18ChiMetadataManager13GetFreeHolderEjjjRNSt3__16chrono10time_pointINS1_12steady_clockENS1_8durationIxNS0_5ratioILl1ELl1000000000EEEEEEE+0xc0>
   29424: f9 05 00 36  	tbz	w25, #0, 0x294e0 <_ZN18ChiMetadataManager13GetFreeHolderEjjjRNSt3__16chrono10time_pointINS1_12steady_clockENS1_8durationIxNS0_5ratioILl1ELl1000000000EEEEEEE+0x178>
   29428: 28 00 00 90  	adrp	x8, 0x2d000 <_ZN18ChiMetadataManager13GetFreeHolderEjjjRNSt3__16chrono10time_pointINS1_12steady_clockENS1_8durationIxNS0_5ratioILl1ELl1000000000EEEEEEE+0xd0>
   29438: a1 02 00 54  	b.ne	0x2948c <_ZN18ChiMetadataManager13GetFreeHolderEjjjRNSt3__16chrono10time_pointINS1_12steady_clockENS1_8durationIxNS0_5ratioILl1ELl1000000000EEEEEEE+0x124>
   2943c: 1b ff ff d0  	adrp	x27, 0xb000 <_ZN18ChiMetadataManager13GetFreeHolderEjjjRNSt3__16chrono10time_pointINS1_12steady_clockENS1_8durationIxNS0_5ratioILl1ELl1000000000EEEEEEE+0x5c>
   29458: 21 ff ff 90  	adrp	x1, 0xd000 <_ZN18ChiMetadataManager13GetFreeHolderEjjjRNSt3__16chrono10time_pointINS1_12steady_clockENS1_8durationIxNS0_5ratioILl1ELl1000000000EEEEEEE+0x80>
   2945c: 02 ff ff d0  	adrp	x2, 0xb000 <_ZN18ChiMetadataManager13GetFreeHolderEjjjRNSt3__16chrono10time_pointINS1_12steady_clockENS1_8durationIxNS0_5ratioILl1ELl1000000000EEEEEEE+0x7c>
   29460: 25 ff ff 90  	adrp	x5, 0xd000 <_ZN18ChiMetadataManager13GetFreeHolderEjjjRNSt3__16chrono10time_pointINS1_12steady_clockENS1_8durationIxNS0_5ratioILl1ELl1000000000EEEEEEE+0x88>
   2948c: 1a ff ff d0  	adrp	x26, 0xb000 <_ZN18ChiMetadataManager13GetFreeHolderEjjjRNSt3__16chrono10time_pointINS1_12steady_clockENS1_8durationIxNS0_5ratioILl1ELl1000000000EEEEEEE+0xac>
   294a8: 21 ff ff 90  	adrp	x1, 0xd000 <_ZN18ChiMetadataManager13GetFreeHolderEjjjRNSt3__16chrono10time_pointINS1_12steady_clockENS1_8durationIxNS0_5ratioILl1ELl1000000000EEEEEEE+0xd0>
   294b0: 00 ff ff 90  	adrp	x0, 0x9000 <_ZN18ChiMetadataManager13GetFreeHolderEjjjRNSt3__16chrono10time_pointINS1_12steady_clockENS1_8durationIxNS0_5ratioILl1ELl1000000000EEEEEEE+0xc8>
   294b4: 23 ff ff 90  	adrp	x3, 0xd000 <_ZN18ChiMetadataManager13GetFreeHolderEjjjRNSt3__16chrono10time_pointINS1_12steady_clockENS1_8durationIxNS0_5ratioILl1ELl1000000000EEEEEEE+0xdc>
   294b8: 05 ff ff 90  	adrp	x5, 0x9000 <_ZN18ChiMetadataManager13GetFreeHolderEjjjRNSt3__16chrono10time_pointINS1_12steady_clockENS1_8durationIxNS0_5ratioILl1ELl1000000000EEEEEEE+0xd0>
   294dc: 19 0b 00 94  	bl	0x2c140 <_ZN6ChiLog9LogSystemEPKcS1_S1_S1_iS1_z@plt>
   294e4: a0 01 00 14  	b	0x29b64 <_ZN18ChiMetadataManager13GetFreeHolderEjjjRNSt3__16chrono10time_pointINS1_12steady_clockENS1_8durationIxNS0_5ratioILl1ELl1000000000EEEEEEE+0x7fc>
   294f0: 99 28 00 b5  	cbnz	x25, 0x29a00 <_ZN18ChiMetadataManager13GetFreeHolderEjjjRNSt3__16chrono10time_pointINS1_12steady_clockENS1_8durationIxNS0_5ratioILl1ELl1000000000EEEEEEE+0x698>
   2951c: cc 14 00 34  	cbz	w12, 0x297b4 <_ZN18ChiMetadataManager13GetFreeHolderEjjjRNSt3__16chrono10time_pointINS1_12steady_clockENS1_8durationIxNS0_5ratioILl1ELl1000000000EEEEEEE+0x44c>
   29530: 63 fe ff 54  	b.lo	0x294fc <_ZN18ChiMetadataManager13GetFreeHolderEjjjRNSt3__16chrono10time_pointINS1_12steady_clockENS1_8durationIxNS0_5ratioILl1ELl1000000000EEEEEEE+0x194>
   29554: e9 08 00 54  	b.ls	0x29670 <_ZN18ChiMetadataManager13GetFreeHolderEjjjRNSt3__16chrono10time_pointINS1_12steady_clockENS1_8durationIxNS0_5ratioILl1ELl1000000000EEEEEEE+0x308>
   29568: ba fd ff 97  	bl	0x28c50 <_ZN18ChiMetadataManager23RetrievePartialTagCountEj+0x10>
   2956c: 2e 00 00 90  	adrp	x14, 0x2d000 <_ZN18ChiMetadataManager13GetFreeHolderEjjjRNSt3__16chrono10time_pointINS1_12steady_clockENS1_8durationIxNS0_5ratioILl1ELl1000000000EEEEEEE+0x214>
   29584: 10 06 28 36  	tbz	w16, #5, 0x29644 <_ZN18ChiMetadataManager13GetFreeHolderEjjjRNSt3__16chrono10time_pointINS1_12steady_clockENS1_8durationIxNS0_5ratioILl1ELl1000000000EEEEEEE+0x2dc>
   29588: 2f 00 00 90  	adrp	x15, 0x2d000 <_ZN18ChiMetadataManager13GetFreeHolderEjjjRNSt3__16chrono10time_pointINS1_12steady_clockENS1_8durationIxNS0_5ratioILl1ELl1000000000EEEEEEE+0x230>
   2959c: 81 02 00 54  	b.ne	0x295ec <_ZN18ChiMetadataManager13GetFreeHolderEjjjRNSt3__16chrono10time_pointINS1_12steady_clockENS1_8durationIxNS0_5ratioILl1ELl1000000000EEEEEEE+0x284>
   295a0: 1b ff ff d0  	adrp	x27, 0xb000 <_ZN18ChiMetadataManager13GetFreeHolderEjjjRNSt3__16chrono10time_pointINS1_12steady_clockENS1_8durationIxNS0_5ratioILl1ELl1000000000EEEEEEE+0x1c0>
   295bc: 21 ff ff 90  	adrp	x1, 0xd000 <_ZN18ChiMetadataManager13GetFreeHolderEjjjRNSt3__16chrono10time_pointINS1_12steady_clockENS1_8durationIxNS0_5ratioILl1ELl1000000000EEEEEEE+0x1e4>
   295c0: 02 ff ff b0  	adrp	x2, 0xa000 <_ZN18ChiMetadataManager13GetFreeHolderEjjjRNSt3__16chrono10time_pointINS1_12steady_clockENS1_8durationIxNS0_5ratioILl1ELl1000000000EEEEEEE+0x1dc>
   295c4: 25 ff ff 90  	adrp	x5, 0xd000 <_ZN18ChiMetadataManager13GetFreeHolderEjjjRNSt3__16chrono10time_pointINS1_12steady_clockENS1_8durationIxNS0_5ratioILl1ELl1000000000EEEEEEE+0x1ec>
   295ec: 1b ff ff d0  	adrp	x27, 0xb000 <_ZN18ChiMetadataManager13GetFreeHolderEjjjRNSt3__16chrono10time_pointINS1_12steady_clockENS1_8durationIxNS0_5ratioILl1ELl1000000000EEEEEEE+0x20c>
   29608: 01 ff ff f0  	adrp	x1, 0xc000 <_ZN18ChiMetadataManager13GetFreeHolderEjjjRNSt3__16chrono10time_pointINS1_12steady_clockENS1_8durationIxNS0_5ratioILl1ELl1000000000EEEEEEE+0x22c>
   29610: 20 ff ff 90  	adrp	x0, 0xd000 <_ZN18ChiMetadataManager13GetFreeHolderEjjjRNSt3__16chrono10time_pointINS1_12steady_clockENS1_8durationIxNS0_5ratioILl1ELl1000000000EEEEEEE+0x238>
   29614: 23 ff ff 90  	adrp	x3, 0xd000 <_ZN18ChiMetadataManager13GetFreeHolderEjjjRNSt3__16chrono10time_pointINS1_12steady_clockENS1_8durationIxNS0_5ratioILl1ELl1000000000EEEEEEE+0x23c>
   29618: 25 ff ff 90  	adrp	x5, 0xd000 <_ZN18ChiMetadataManager13GetFreeHolderEjjjRNSt3__16chrono10time_pointINS1_12steady_clockENS1_8durationIxNS0_5ratioILl1ELl1000000000EEEEEEE+0x240>
   29638: c2 0a 00 94  	bl	0x2c140 <_ZN6ChiLog9LogSystemEPKcS1_S1_S1_iS1_z@plt>
   29668: ba 0c 00 94  	bl	0x2c950 <_ZN18ChiMetadataManager10MetaClient15AllocateBuffersEPjjjjj@plt>
   2966c: 60 0b 00 34  	cbz	w0, 0x297d8 <_ZN18ChiMetadataManager13GetFreeHolderEjjjRNSt3__16chrono10time_pointINS1_12steady_clockENS1_8durationIxNS0_5ratioILl1ELl1000000000EEEEEEE+0x470>
   29674: 91 00 00 34  	cbz	w17, 0x29684 <_ZN18ChiMetadataManager13GetFreeHolderEjjjRNSt3__16chrono10time_pointINS1_12steady_clockENS1_8durationIxNS0_5ratioILl1ELl1000000000EEEEEEE+0x31c>
   29680: 21 07 00 54  	b.ne	0x29764 <_ZN18ChiMetadataManager13GetFreeHolderEjjjRNSt3__16chrono10time_pointINS1_12steady_clockENS1_8durationIxNS0_5ratioILl1ELl1000000000EEEEEEE+0x3fc>
   29684: 38 00 00 90  	adrp	x24, 0x2d000 <_ZN18ChiMetadataManager13GetFreeHolderEjjjRNSt3__16chrono10time_pointINS1_12steady_clockENS1_8durationIxNS0_5ratioILl1ELl1000000000EEEEEEE+0x32c>
   29690: 60 00 00 37  	tbnz	w0, #0, 0x2969c <_ZN18ChiMetadataManager13GetFreeHolderEjjjRNSt3__16chrono10time_pointINS1_12steady_clockENS1_8durationIxNS0_5ratioILl1ELl1000000000EEEEEEE+0x334>
   29698: 2d 01 00 14  	b	0x29b4c <_ZN18ChiMetadataManager13GetFreeHolderEjjjRNSt3__16chrono10time_pointINS1_12steady_clockENS1_8durationIxNS0_5ratioILl1ELl1000000000EEEEEEE+0x7e4>
   2969c: 39 00 00 90  	adrp	x25, 0x2d000 <_ZN18ChiMetadataManager13GetFreeHolderEjjjRNSt3__16chrono10time_pointINS1_12steady_clockENS1_8durationIxNS0_5ratioILl1ELl1000000000EEEEEEE+0x344>
   296ac: e1 02 00 54  	b.ne	0x29708 <_ZN18ChiMetadataManager13GetFreeHolderEjjjRNSt3__16chrono10time_pointINS1_12steady_clockENS1_8durationIxNS0_5ratioILl1ELl1000000000EEEEEEE+0x3a0>
   296b4: 1b ff ff d0  	adrp	x27, 0xb000 <_ZN18ChiMetadataManager13GetFreeHolderEjjjRNSt3__16chrono10time_pointINS1_12steady_clockENS1_8durationIxNS0_5ratioILl1ELl1000000000EEEEEEE+0x2d4>
   296d0: 21 ff ff 90  	adrp	x1, 0xd000 <_ZN18ChiMetadataManager13GetFreeHolderEjjjRNSt3__16chrono10time_pointINS1_12steady_clockENS1_8durationIxNS0_5ratioILl1ELl1000000000EEEEEEE+0x2f8>
   296d4: 02 ff ff d0  	adrp	x2, 0xb000 <_ZN18ChiMetadataManager13GetFreeHolderEjjjRNSt3__16chrono10time_pointINS1_12steady_clockENS1_8durationIxNS0_5ratioILl1ELl1000000000EEEEEEE+0x2f4>
   296d8: 25 ff ff 90  	adrp	x5, 0xd000 <_ZN18ChiMetadataManager13GetFreeHolderEjjjRNSt3__16chrono10time_pointINS1_12steady_clockENS1_8durationIxNS0_5ratioILl1ELl1000000000EEEEEEE+0x300>
   29708: 1a ff ff d0  	adrp	x26, 0xb000 <_ZN18ChiMetadataManager13GetFreeHolderEjjjRNSt3__16chrono10time_pointINS1_12steady_clockENS1_8durationIxNS0_5ratioILl1ELl1000000000EEEEEEE+0x328>
   29724: 21 ff ff 90  	adrp	x1, 0xd000 <_ZN18ChiMetadataManager13GetFreeHolderEjjjRNSt3__16chrono10time_pointINS1_12steady_clockENS1_8durationIxNS0_5ratioILl1ELl1000000000EEEEEEE+0x34c>
   2972c: 00 ff ff 90  	adrp	x0, 0x9000 <_ZN18ChiMetadataManager13GetFreeHolderEjjjRNSt3__16chrono10time_pointINS1_12steady_clockENS1_8durationIxNS0_5ratioILl1ELl1000000000EEEEEEE+0x344>
   29730: 23 ff ff 90  	adrp	x3, 0xd000 <_ZN18ChiMetadataManager13GetFreeHolderEjjjRNSt3__16chrono10time_pointINS1_12steady_clockENS1_8durationIxNS0_5ratioILl1ELl1000000000EEEEEEE+0x358>
