


	bl	0x7fb0 <_ZN4SCVE13ObjectTracker14deleteInstanceEPS0_@plt>
	bl	0x7fc0 <_ZN4SCVE7Context14deleteInstanceEPS0_@plt>
	bl	0x7fd0 <_ZN4SCVE7Context11newInstanceENS_13OperationModeE@plt>
	bl	0x7fe0 <_ZN4SCVE13ObjectTracker11newInstanceEPNS_7ContextENS_15_ImageDimensionENS_11ColorFormatEPFviPNS_19ObjectTrackerResultEjPvS7_EPFvijS7_S7_ENS_23ObjectTracker_PrecisionES7_@plt>
	bl	0x7fc0 <_ZN4SCVE7Context14deleteInstanceEPS0_@plt>
	bl	0x8070 <_ZNSt3__15mutex4lockEv@plt>
	bl	0x8080 <_ZN4CamX13OfflineLoggerC1E17OfflineLoggerType@plt>
	bl	0x8080 <_ZN4CamX13OfflineLoggerC1E17OfflineLoggerType@plt>
	bl	0x8090 <_ZNSt3__15mutex6unlockEv@plt>
	bl	0x8090 <_ZNSt3__15mutex6unlockEv@plt>
	bl	0x80c0 <_ZNKSt3__120__vector_base_commonILb1EE20__throw_length_errorEv@plt>
	bl	0x80d0 <_ZN4CamX13OfflineLogger14GetLogInfoMaskEv@plt>
	bl	0x8100 <_ZN4CamX13OfflineLogger21IsEnableOfflineloggerEv@plt>
	bl	0x8150 <_ZN4CamX13OfflineLogger6AddLogEPKcj@plt>







	adrp	x16, 0x9000 <_ZN4SCVE13ObjectTracker14deleteInstanceEPS0_@plt+0x8>

	adrp	x16, 0x9000 <_ZN4SCVE7Context14deleteInstanceEPS0_@plt+0x8>

	adrp	x16, 0x9000 <_ZN4SCVE7Context11newInstanceENS_13OperationModeE@plt+0x8>

	adrp	x16, 0x9000 <_ZN4SCVE13ObjectTracker11newInstanceEPNS_7ContextENS_15_ImageDimensionENS_11ColorFormatEPFviPNS_19ObjectTrackerResultEjPvS7_EPFvijS7_S7_ENS_23ObjectTracker_PrecisionES7_@plt+0x8>

	adrp	x16, 0x9000 <_ZNSt3__15mutex4lockEv@plt+0x4>

	adrp	x16, 0x9000 <_ZN4CamX13OfflineLoggerC1E17OfflineLoggerType@plt+0x4>

	adrp	x16, 0x9000 <_ZNSt3__15mutex6unlockEv@plt+0x4>

	adrp	x16, 0x9000 <_ZNKSt3__120__vector_base_commonILb1EE20__throw_length_errorEv@plt+0x4>

	adrp	x16, 0x9000 <_ZN4CamX13OfflineLogger14GetLogInfoMaskEv@plt+0x4>

	adrp	x16, 0x9000 <_ZN4CamX13OfflineLogger21IsEnableOfflineloggerEv@plt+0x4>

	adrp	x16, 0x9000 <_ZN4CamX13OfflineLogger6AddLogEPKcj@plt+0x4>



