	ldr	x4, 0x23284 <_ZN9Semaphore7DestroyEv+0x5ec>
0x2685c <_ZN9Semaphore7DestroyEv+0x3bc4>
0x2688c <_ZN9Semaphore7DestroyEv+0x3bf4>
0x268bc <_ZN9Semaphore7DestroyEv+0x3c24>
0x268e4 <_ZN9Semaphore7DestroyEv+0x3c4c>
0x26984 <_ZN9Semaphore7DestroyEv+0x3cec>
0x269b4 <_ZN9Semaphore7DestroyEv+0x3d1c>
0x269e4 <_ZN9Semaphore7DestroyEv+0x3d4c>
0x26afc <_ZN9Semaphore7DestroyEv+0x3e64>
0x26b24 <_ZN9Semaphore7DestroyEv+0x3e8c>
0x26bdc <_ZN9Semaphore7DestroyEv+0x3f44>
0x26ca4 <_ZN9Semaphore7DestroyEv+0x400c>
0x26f1c <_ZN9Semaphore7DestroyEv+0x4284>
0x2733c <_ZN9Semaphore7DestroyEv+0x46a4>
0x27384 <_ZN9Semaphore7DestroyEv+0x46ec>
0x2747c <_ZN9Semaphore7DestroyEv+0x47e4>
0x2775c <_ZN9Semaphore7DestroyEv+0x4ac4>
0x2778c <_ZN9Semaphore7DestroyEv+0x4af4>
0x27864 <_ZN9Semaphore7DestroyEv+0x4bcc>
0x27904 <_ZN9Semaphore7DestroyEv+0x4c6c>
0x279c4 <_ZN9Semaphore7DestroyEv+0x4d2c>
0x27a94 <_ZN9Semaphore7DestroyEv+0x4dfc>
0x27b0c <_ZN9Semaphore7DestroyEv+0x4e74>
0x27b34 <_ZN9Semaphore7DestroyEv+0x4e9c>
0x27b84 <_ZN9Semaphore7DestroyEv+0x4eec>
0x27c1c <_ZN9Semaphore7DestroyEv+0x4f84>
0x27c8c <_ZN9Semaphore7DestroyEv+0x4ff4>
0x27d54 <_ZN9Semaphore7DestroyEv+0x50bc>
0x27e54 <_ZN9Semaphore7DestroyEv+0x51bc>
0x27ec4 <_ZN9Semaphore7DestroyEv+0x522c>
0x27f74 <_ZN9Semaphore7DestroyEv+0x52dc>
0x27fe4 <_ZN9Semaphore7DestroyEv+0x534c>
0x28014 <_ZN9Semaphore7DestroyEv+0x537c>
0x28224 <_ZN9Semaphore7DestroyEv+0x558c>
0x28284 <_ZN9Semaphore7DestroyEv+0x55ec>
0x282b4 <_ZN9Semaphore7DestroyEv+0x561c>
0x282fc <_ZN9Semaphore7DestroyEv+0x5664>
0x283a4 <_ZN9Semaphore7DestroyEv+0x570c>
0x283d4 <_ZN9Semaphore7DestroyEv+0x573c>
0x28404 <_ZN9Semaphore7DestroyEv+0x576c>
0x28454 <_ZN9Semaphore7DestroyEv+0x57bc>
0x284a4 <_ZN9Semaphore7DestroyEv+0x580c>
0x284d4 <_ZN9Semaphore7DestroyEv+0x583c>
0x284fc <_ZN9Semaphore7DestroyEv+0x5864>
0x2852c <_ZN9Semaphore7DestroyEv+0x5894>
0x28654 <_ZN9Semaphore7DestroyEv+0x59bc>
0x286ac <_ZN9Semaphore7DestroyEv+0x5a14>
0x286dc <_ZN9Semaphore7DestroyEv+0x5a44>
0x28704 <_ZN9Semaphore7DestroyEv+0x5a6c>
0x28734 <_ZN9Semaphore7DestroyEv+0x5a9c>
0x28764 <_ZN9Semaphore7DestroyEv+0x5acc>
0x287b4 <_ZN9Semaphore7DestroyEv+0x5b1c>
0x28804 <_ZN9Semaphore7DestroyEv+0x5b6c>
0x28834 <_ZN9Semaphore7DestroyEv+0x5b9c>
0x2888c <_ZN9Semaphore7DestroyEv+0x5bf4>
<_ZN7android8hardware11hidl_stringC1EPKc@plt>
<_ZN7android8hardware11hidl_stringC1EPKc@plt>
<_ZN7android8hardware11hidl_stringC1EPKc@plt>
<_ZN7android8hardware11hidl_stringC1EPKc@plt>
<_ZN7android8hardware11hidl_stringC1EPKc@plt>
<_ZN7android8hardware11hidl_stringC1EPKc@plt>
<_ZN7android8hardware11hidl_stringC1EPKc@plt>
<_ZN7android8hardware11hidl_stringC1EPKc@plt>
<_ZN7android8hardware11hidl_stringC1EPKc@plt>
<_ZN7android8hardware11hidl_stringC1EPKc@plt>
<_ZN7android8hardware11hidl_stringC1EPKc@plt>
<_ZN7android8hardware11hidl_stringC1EPKc@plt>
<_ZN7android8hardware11hidl_stringC1EPKc@plt>
<_ZN7android8hardware11hidl_stringC1EPKc@plt>
<_ZN7android8hardware11hidl_stringC1EPKc@plt>
<_ZN7android8hardware11hidl_stringC1EPKc@plt>
<_ZN7android8hardware11hidl_stringC1EPKc@plt>
<_ZN7android8hardware11hidl_stringC1EPKc@plt>
<_ZN7android8hardware11hidl_stringC1EPKc@plt>
<_ZN7android8hardware11hidl_stringC1EPKc@plt>
<_ZN7android8hardware11hidl_stringC1EPKc@plt>
<_ZN7android8hardware11hidl_stringC1ERKNSt3__112basic_stringIcNS2_11char_traitsIcEENS2_9allocatorIcEEEE@plt>
<_ZN7android8hardware11hidl_stringC1ERKNSt3__112basic_stringIcNS2_11char_traitsIcEENS2_9allocatorIcEEEE@plt>
<_ZN7android8hardware11hidl_stringC1ERKNSt3__112basic_stringIcNS2_11char_traitsIcEENS2_9allocatorIcEEEE@plt>
<_ZN7android8hardware11hidl_stringC1ERKNSt3__112basic_stringIcNS2_11char_traitsIcEENS2_9allocatorIcEEEE@plt>
<_ZN7android8hardware11hidl_stringC1ERKNSt3__112basic_stringIcNS2_11char_traitsIcEENS2_9allocatorIcEEEE@plt>
<_ZN7android8hardware11hidl_stringC1ERKNSt3__112basic_stringIcNS2_11char_traitsIcEENS2_9allocatorIcEEEE@plt>
<_ZN7android8hardware11hidl_stringC1ERKNSt3__112basic_stringIcNS2_11char_traitsIcEENS2_9allocatorIcEEEE@plt>
<_ZN7android8hardware11hidl_stringC1ERKNSt3__112basic_stringIcNS2_11char_traitsIcEENS2_9allocatorIcEEEE@plt>
<_ZN7android8hardware11hidl_stringC1ERKNSt3__112basic_stringIcNS2_11char_traitsIcEENS2_9allocatorIcEEEE@plt>
<_ZN7android8hardware11hidl_stringC1ERKNSt3__112basic_stringIcNS2_11char_traitsIcEENS2_9allocatorIcEEEE@plt>
<_ZN7android8hardware11hidl_stringC1ERKNSt3__112basic_stringIcNS2_11char_traitsIcEENS2_9allocatorIcEEEE@plt>
<_ZN7android8hardware11hidl_stringC1ERKNSt3__112basic_stringIcNS2_11char_traitsIcEENS2_9allocatorIcEEEE@plt>
<_ZN7android8hardware11hidl_stringC1ERKNSt3__112basic_stringIcNS2_11char_traitsIcEENS2_9allocatorIcEEEE@plt>
<_ZN7android8hardware11hidl_stringC1ERKNSt3__112basic_stringIcNS2_11char_traitsIcEENS2_9allocatorIcEEEE@plt>
<_ZN7android8hardware11hidl_stringC1ERKNSt3__112basic_stringIcNS2_11char_traitsIcEENS2_9allocatorIcEEEE@plt>
<_ZN7android8hardware11hidl_stringC1ERKNSt3__112basic_stringIcNS2_11char_traitsIcEENS2_9allocatorIcEEEE@plt>
<_ZN7android8hardware11hidl_stringC1ERKNSt3__112basic_stringIcNS2_11char_traitsIcEENS2_9allocatorIcEEEE@plt>
<_ZN7android8hardware11hidl_stringC1ERKNSt3__112basic_stringIcNS2_11char_traitsIcEENS2_9allocatorIcEEEE@plt>
<_ZN7android8hardware11hidl_stringC1ERKNSt3__112basic_stringIcNS2_11char_traitsIcEENS2_9allocatorIcEEEE@plt>
<_ZN7android8hardware11hidl_stringC1ERKNSt3__112basic_stringIcNS2_11char_traitsIcEENS2_9allocatorIcEEEE@plt>
<_ZN7android8hardware11hidl_stringC1ERKNSt3__112basic_stringIcNS2_11char_traitsIcEENS2_9allocatorIcEEEE@plt>
<_ZN7android8hardware11hidl_stringC1ERKNSt3__112basic_stringIcNS2_11char_traitsIcEENS2_9allocatorIcEEEE@plt>
<_ZN7android8hardware11hidl_stringC1ERKNSt3__112basic_stringIcNS2_11char_traitsIcEENS2_9allocatorIcEEEE@plt>
<_ZN7android8hardware11hidl_stringC1ERKNSt3__112basic_stringIcNS2_11char_traitsIcEENS2_9allocatorIcEEEE@plt>
<_ZN7android8hardware11hidl_stringC1ERKNSt3__112basic_stringIcNS2_11char_traitsIcEENS2_9allocatorIcEEEE@plt>
<_ZN7android8hardware11hidl_stringC1ERKNSt3__112basic_stringIcNS2_11char_traitsIcEENS2_9allocatorIcEEEE@plt>
<_ZNSt3__112basic_stringIcNS_11char_traitsIcEENS_9allocatorIcEEEC1ERKS5_@plt>
<_ZNSt3__112basic_stringIcNS_11char_traitsIcEENS_9allocatorIcEEEC1ERKS5_@plt>
<_ZNSt3__112basic_stringIcNS_11char_traitsIcEENS_9allocatorIcEEEC1ERKS5_@plt>
<_ZNSt3__112basic_stringIcNS_11char_traitsIcEENS_9allocatorIcEEEC1ERKS5_@plt>
<_ZN7android8hardware11hidl_stringC1EPKc@plt>
<_ZN7android8hardware11hidl_stringC1EPKc@plt>
<_ZN7android8hardware11hidl_stringC1EPKc@plt>
<_ZN7android8hardware11hidl_stringC1EPKc@plt>
<_ZN7android8hardware11hidl_stringC1EPKc@plt>
<_ZN7android8hardware11hidl_stringC1EPKc@plt>
<_ZN7android8hardware11hidl_stringC1EPKc@plt>
<_ZN7android8hardware11hidl_stringC1EPKc@plt>
<_ZN7android8hardware11hidl_stringC1EPKc@plt>
<_ZN7android8hardware11hidl_stringC1EPKc@plt>
<_ZN7android8hardware11hidl_stringC1EPKc@plt>
<_ZN7android8hardware11hidl_stringC1EPKc@plt>
<_ZN7android8hardware11hidl_stringC1EPKc@plt>
<_ZN7android8hardware11hidl_stringC1EPKc@plt>
<_ZN7android8hardware11hidl_stringC1EPKc@plt>
<_ZN7android8hardware11hidl_stringC1EPKc@plt>
<_ZN7android8hardware11hidl_stringC1EPKc@plt>
<_ZN7android8hardware11hidl_stringC1EPKc@plt>
<_ZN7android8hardware11hidl_stringC1EPKc@plt>
<_ZN7android8hardware11hidl_stringC1EPKc@plt>
<_ZN7android8hardware11hidl_stringC1EPKc@plt>
<_ZN7android8hardware11hidl_stringC1ERKNSt3__112basic_stringIcNS2_11char_traitsIcEENS2_9allocatorIcEEEE@plt>
<_ZN7android8hardware11hidl_stringC1ERKNSt3__112basic_stringIcNS2_11char_traitsIcEENS2_9allocatorIcEEEE@plt>
<_ZN7android8hardware11hidl_stringC1ERKNSt3__112basic_stringIcNS2_11char_traitsIcEENS2_9allocatorIcEEEE@plt>
<_ZN7android8hardware11hidl_stringC1ERKNSt3__112basic_stringIcNS2_11char_traitsIcEENS2_9allocatorIcEEEE@plt>
<_ZN7android8hardware11hidl_stringC1ERKNSt3__112basic_stringIcNS2_11char_traitsIcEENS2_9allocatorIcEEEE@plt>
<_ZN7android8hardware11hidl_stringC1ERKNSt3__112basic_stringIcNS2_11char_traitsIcEENS2_9allocatorIcEEEE@plt>
<_ZN7android8hardware11hidl_stringC1ERKNSt3__112basic_stringIcNS2_11char_traitsIcEENS2_9allocatorIcEEEE@plt>
<_ZN7android8hardware11hidl_stringC1ERKNSt3__112basic_stringIcNS2_11char_traitsIcEENS2_9allocatorIcEEEE@plt>
<_ZN7android8hardware11hidl_stringC1ERKNSt3__112basic_stringIcNS2_11char_traitsIcEENS2_9allocatorIcEEEE@plt>
<_ZN7android8hardware11hidl_stringC1ERKNSt3__112basic_stringIcNS2_11char_traitsIcEENS2_9allocatorIcEEEE@plt>
<_ZN7android8hardware11hidl_stringC1ERKNSt3__112basic_stringIcNS2_11char_traitsIcEENS2_9allocatorIcEEEE@plt>
<_ZN7android8hardware11hidl_stringC1ERKNSt3__112basic_stringIcNS2_11char_traitsIcEENS2_9allocatorIcEEEE@plt>
<_ZN7android8hardware11hidl_stringC1ERKNSt3__112basic_stringIcNS2_11char_traitsIcEENS2_9allocatorIcEEEE@plt>
<_ZN7android8hardware11hidl_stringC1ERKNSt3__112basic_stringIcNS2_11char_traitsIcEENS2_9allocatorIcEEEE@plt>
<_ZN7android8hardware11hidl_stringC1ERKNSt3__112basic_stringIcNS2_11char_traitsIcEENS2_9allocatorIcEEEE@plt>
<_ZN7android8hardware11hidl_stringC1ERKNSt3__112basic_stringIcNS2_11char_traitsIcEENS2_9allocatorIcEEEE@plt>
<_ZN7android8hardware11hidl_stringC1ERKNSt3__112basic_stringIcNS2_11char_traitsIcEENS2_9allocatorIcEEEE@plt>
<_ZN7android8hardware11hidl_stringC1ERKNSt3__112basic_stringIcNS2_11char_traitsIcEENS2_9allocatorIcEEEE@plt>
<_ZN7android8hardware11hidl_stringC1ERKNSt3__112basic_stringIcNS2_11char_traitsIcEENS2_9allocatorIcEEEE@plt>
<_ZN7android8hardware11hidl_stringC1ERKNSt3__112basic_stringIcNS2_11char_traitsIcEENS2_9allocatorIcEEEE@plt>
<_ZN7android8hardware11hidl_stringC1ERKNSt3__112basic_stringIcNS2_11char_traitsIcEENS2_9allocatorIcEEEE@plt>
<_ZN7android8hardware11hidl_stringC1ERKNSt3__112basic_stringIcNS2_11char_traitsIcEENS2_9allocatorIcEEEE@plt>
<_ZN7android8hardware11hidl_stringC1ERKNSt3__112basic_stringIcNS2_11char_traitsIcEENS2_9allocatorIcEEEE@plt>
<_ZN7android8hardware11hidl_stringC1ERKNSt3__112basic_stringIcNS2_11char_traitsIcEENS2_9allocatorIcEEEE@plt>
<_ZN7android8hardware11hidl_stringC1ERKNSt3__112basic_stringIcNS2_11char_traitsIcEENS2_9allocatorIcEEEE@plt>
<_ZN7android8hardware11hidl_stringC1ERKNSt3__112basic_stringIcNS2_11char_traitsIcEENS2_9allocatorIcEEEE@plt>
<_ZNSt3__112basic_stringIcNS_11char_traitsIcEENS_9allocatorIcEEEC1ERKS5_@plt>
<_ZNSt3__112basic_stringIcNS_11char_traitsIcEENS_9allocatorIcEEEC1ERKS5_@plt>
<_ZNSt3__112basic_stringIcNS_11char_traitsIcEENS_9allocatorIcEEEC1ERKS5_@plt>
<_ZNSt3__112basic_stringIcNS_11char_traitsIcEENS_9allocatorIcEEEC1ERKS5_@plt>
<_ZN7android8hardware11hidl_stringC1EPKc@plt>
<_ZN7android8hardware11hidl_stringC1EPKc@plt>
<_ZN7android8hardware11hidl_stringC1EPKc@plt>
<_ZN7android8hardware11hidl_stringC1EPKc@plt>
<_ZN7android8hardware11hidl_stringC1EPKc@plt>
<_ZN7android8hardware11hidl_stringC1EPKc@plt>
<_ZN7android8hardware11hidl_stringC1EPKc@plt>
<_ZN7android8hardware11hidl_stringC1EPKc@plt>
<_ZN7android8hardware11hidl_stringC1EPKc@plt>
<_ZN7android8hardware11hidl_stringC1EPKc@plt>
<_ZN7android8hardware11hidl_stringC1EPKc@plt>
<_ZN7android8hardware11hidl_stringC1EPKc@plt>
<_ZN7android8hardware11hidl_stringC1EPKc@plt>
<_ZN7android8hardware11hidl_stringC1EPKc@plt>
<_ZN7android8hardware11hidl_stringC1EPKc@plt>
<_ZN7android8hardware11hidl_stringC1EPKc@plt>
<_ZN7android8hardware11hidl_stringC1EPKc@plt>
<_ZN7android8hardware11hidl_stringC1EPKc@plt>
<_ZN7android8hardware11hidl_stringC1EPKc@plt>
<_ZN7android8hardware11hidl_stringC1EPKc@plt>
<_ZN7android8hardware11hidl_stringC1EPKc@plt>
<_ZN7android8hardware11hidl_stringC1ERKNSt3__112basic_stringIcNS2_11char_traitsIcEENS2_9allocatorIcEEEE@plt>
<_ZN7android8hardware11hidl_stringC1ERKNSt3__112basic_stringIcNS2_11char_traitsIcEENS2_9allocatorIcEEEE@plt>
<_ZN7android8hardware11hidl_stringC1ERKNSt3__112basic_stringIcNS2_11char_traitsIcEENS2_9allocatorIcEEEE@plt>
<_ZN7android8hardware11hidl_stringC1ERKNSt3__112basic_stringIcNS2_11char_traitsIcEENS2_9allocatorIcEEEE@plt>
<_ZN7android8hardware11hidl_stringC1ERKNSt3__112basic_stringIcNS2_11char_traitsIcEENS2_9allocatorIcEEEE@plt>
<_ZN7android8hardware11hidl_stringC1ERKNSt3__112basic_stringIcNS2_11char_traitsIcEENS2_9allocatorIcEEEE@plt>
<_ZN7android8hardware11hidl_stringC1ERKNSt3__112basic_stringIcNS2_11char_traitsIcEENS2_9allocatorIcEEEE@plt>
<_ZN7android8hardware11hidl_stringC1ERKNSt3__112basic_stringIcNS2_11char_traitsIcEENS2_9allocatorIcEEEE@plt>
<_ZN7android8hardware11hidl_stringC1ERKNSt3__112basic_stringIcNS2_11char_traitsIcEENS2_9allocatorIcEEEE@plt>
<_ZN7android8hardware11hidl_stringC1ERKNSt3__112basic_stringIcNS2_11char_traitsIcEENS2_9allocatorIcEEEE@plt>
<_ZN7android8hardware11hidl_stringC1ERKNSt3__112basic_stringIcNS2_11char_traitsIcEENS2_9allocatorIcEEEE@plt>
<_ZN7android8hardware11hidl_stringC1ERKNSt3__112basic_stringIcNS2_11char_traitsIcEENS2_9allocatorIcEEEE@plt>
<_ZN7android8hardware11hidl_stringC1ERKNSt3__112basic_stringIcNS2_11char_traitsIcEENS2_9allocatorIcEEEE@plt>
<_ZN7android8hardware11hidl_stringC1ERKNSt3__112basic_stringIcNS2_11char_traitsIcEENS2_9allocatorIcEEEE@plt>
<_ZN7android8hardware11hidl_stringC1ERKNSt3__112basic_stringIcNS2_11char_traitsIcEENS2_9allocatorIcEEEE@plt>
<_ZN7android8hardware11hidl_stringC1ERKNSt3__112basic_stringIcNS2_11char_traitsIcEENS2_9allocatorIcEEEE@plt>
<_ZN7android8hardware11hidl_stringC1ERKNSt3__112basic_stringIcNS2_11char_traitsIcEENS2_9allocatorIcEEEE@plt>
<_ZN7android8hardware11hidl_stringC1ERKNSt3__112basic_stringIcNS2_11char_traitsIcEENS2_9allocatorIcEEEE@plt>
<_ZN7android8hardware11hidl_stringC1ERKNSt3__112basic_stringIcNS2_11char_traitsIcEENS2_9allocatorIcEEEE@plt>
<_ZN7android8hardware11hidl_stringC1ERKNSt3__112basic_stringIcNS2_11char_traitsIcEENS2_9allocatorIcEEEE@plt>
<_ZN7android8hardware11hidl_stringC1ERKNSt3__112basic_stringIcNS2_11char_traitsIcEENS2_9allocatorIcEEEE@plt>
<_ZN7android8hardware11hidl_stringC1ERKNSt3__112basic_stringIcNS2_11char_traitsIcEENS2_9allocatorIcEEEE@plt>
<_ZN7android8hardware11hidl_stringC1ERKNSt3__112basic_stringIcNS2_11char_traitsIcEENS2_9allocatorIcEEEE@plt>
<_ZN7android8hardware11hidl_stringC1ERKNSt3__112basic_stringIcNS2_11char_traitsIcEENS2_9allocatorIcEEEE@plt>
<_ZN7android8hardware11hidl_stringC1ERKNSt3__112basic_stringIcNS2_11char_traitsIcEENS2_9allocatorIcEEEE@plt>
<_ZN7android8hardware11hidl_stringC1ERKNSt3__112basic_stringIcNS2_11char_traitsIcEENS2_9allocatorIcEEEE@plt>
<_ZNSt3__112basic_stringIcNS_11char_traitsIcEENS_9allocatorIcEEEC1ERKS5_@plt>
<_ZNSt3__112basic_stringIcNS_11char_traitsIcEENS_9allocatorIcEEEC1ERKS5_@plt>
<_ZNSt3__112basic_stringIcNS_11char_traitsIcEENS_9allocatorIcEEEC1ERKS5_@plt>
<_ZNSt3__112basic_stringIcNS_11char_traitsIcEENS_9allocatorIcEEEC1ERKS5_@plt>
<_ZN7android8hardware11hidl_stringD1Ev@plt>
<_ZN15ChiFeature2Base10InitializeEP26ChiFeature2CreateInputInfo@plt>
<_ZN6ChiLog9LogSystemEPKcS1_S1_S1_iS1_z@plt>
<_ZN6ChiLog9LogSystemEPKcS1_S1_S1_iS1_z@plt>

0x1b390 <_ZN28ChiFeature2Statsregeneration7DestroyEv+0x38>
0x35000 <_ZNK28ChiFeature2Statsregeneration16OnPrepareRequestEP24ChiFeature2RequestObject+0xc>
<_ZN28ChiFeature2Statsregeneration7DestroyEv+0x3c>
<_ZN28ChiFeature2Statsregeneration7DestroyEv+0x28>


0x1b41c <_ZNK28ChiFeature2Statsregeneration16OnPrepareRequestEP24ChiFeature2RequestObject+0x54>
0x35000 <_ZNK28ChiFeature2Statsregeneration16OnPrepareRequestEP24ChiFeature2RequestObject+0x94>
<_ZNK28ChiFeature2Statsregeneration16OnPrepareRequestEP24ChiFeature2RequestObject+0x978>
<_ZNK15ChiFeature2Base21GetFeaturePrivContextEP24ChiFeature2RequestObject@plt>
0x1b440 <_ZNK28ChiFeature2Statsregeneration16OnPrepareRequestEP24ChiFeature2RequestObject+0x78>
0x35000 <_ZNK28ChiFeature2Statsregeneration16OnPrepareRequestEP24ChiFeature2RequestObject+0xe4>
<_ZNK28ChiFeature2Statsregeneration16OnPrepareRequestEP24ChiFeature2RequestObject+0x990>
0x1b41c <_ZNK28ChiFeature2Statsregeneration16OnPrepareRequestEP24ChiFeature2RequestObject+0x54>
0x1b900 <_ZNK28ChiFeature2Statsregeneration16OnPrepareRequestEP24ChiFeature2RequestObject+0x538>
0x1b9bc <_ZNK28ChiFeature2Statsregeneration16OnPrepareRequestEP24ChiFeature2RequestObject+0x5f4>
0x1bb1c <_ZNK28ChiFeature2Statsregeneration16OnPrepareRequestEP24ChiFeature2RequestObject+0x754>
0x35000 <_ZNK28ChiFeature2Statsregeneration16OnPrepareRequestEP24ChiFeature2RequestObject+0x158>
0x37000 <_ZNK28ChiFeature2Statsregeneration16OnPrepareRequestEP24ChiFeature2RequestObject+0x178>
<_ZNK28ChiFeature2Statsregeneration16OnPrepareRequestEP24ChiFeature2RequestObject+0x128>
<_ZNK28ChiFeature2Statsregeneration16OnPrepareRequestEP24ChiFeature2RequestObject+0x5e8>
<_ZNK28ChiFeature2Statsregeneration16OnPrepareRequestEP24ChiFeature2RequestObject+0x150>
<_ZNK28ChiFeature2Statsregeneration16OnPrepareRequestEP24ChiFeature2RequestObject+0x500>
<_ZNK15ChiFeature2Base26IsPortEnabledInFinalOutputEPK24ChiFeature2RequestObject21ChiFeature2Identifierh@plt>
<_ZNK28ChiFeature2Statsregeneration16OnPrepareRequestEP24ChiFeature2RequestObject+0x220>
0x37000 <_ZNK28ChiFeature2Statsregeneration16OnPrepareRequestEP24ChiFeature2RequestObject+0x210>
0x35000 <_ZNK28ChiFeature2Statsregeneration16OnPrepareRequestEP24ChiFeature2RequestObject+0x270>
#3, 0x1b5f0 <_ZNK28ChiFeature2Statsregeneration16OnPrepareRequestEP24ChiFeature2RequestObject+0x228>
<_ZNK28ChiFeature2Statsregeneration16OnPrepareRequestEP24ChiFeature2RequestObject+0x320>
0x35000 <_ZNK28ChiFeature2Statsregeneration16OnPrepareRequestEP24ChiFeature2RequestObject+0x290>
<_ZNK28ChiFeature2Statsregeneration16OnPrepareRequestEP24ChiFeature2RequestObject+0x2a8>
0xe000 <_ZNK28ChiFeature2Statsregeneration16OnPrepareRequestEP24ChiFeature2RequestObject+0x20c>
0x37000 <_ZNK28ChiFeature2Statsregeneration16OnPrepareRequestEP24ChiFeature2RequestObject+0x2c8>
0xf000 <_ZNK28ChiFeature2Statsregeneration16OnPrepareRequestEP24ChiFeature2RequestObject+0x230>
0xa000 <_ZNK28ChiFeature2Statsregeneration16OnPrepareRequestEP24ChiFeature2RequestObject+0x220>
0xd000 <_ZNK28ChiFeature2Statsregeneration16OnPrepareRequestEP24ChiFeature2RequestObject+0x230>
0xe000 <_ZNK28ChiFeature2Statsregeneration16OnPrepareRequestEP24ChiFeature2RequestObject+0x274>
0x37000 <_ZNK28ChiFeature2Statsregeneration16OnPrepareRequestEP24ChiFeature2RequestObject+0x330>
0xf000 <_ZNK28ChiFeature2Statsregeneration16OnPrepareRequestEP24ChiFeature2RequestObject+0x29c>
0xd000 <_ZNK28ChiFeature2Statsregeneration16OnPrepareRequestEP24ChiFeature2RequestObject+0x298>
0xa000 <_ZNK28ChiFeature2Statsregeneration16OnPrepareRequestEP24ChiFeature2RequestObject+0x290>
0xd000 <_ZNK28ChiFeature2Statsregeneration16OnPrepareRequestEP24ChiFeature2RequestObject+0x2c4>
<_ZN6ChiLog9LogSystemEPKcS1_S1_S1_iS1_z@plt>
<_ZNK28ChiFeature2Statsregeneration16OnPrepareRequestEP24ChiFeature2RequestObject+0x118>
0x35000 <_ZNK28ChiFeature2Statsregeneration16OnPrepareRequestEP24ChiFeature2RequestObject+0x39c>
<_ZNK28ChiFeature2Statsregeneration16OnPrepareRequestEP24ChiFeature2RequestObject+0x51c>
<_ZNK15ChiFeature2Base26IsPortEnabledInFinalOutputEPK24ChiFeature2RequestObject21ChiFeature2Identifierh@plt>
<_ZNK28ChiFeature2Statsregeneration16OnPrepareRequestEP24ChiFeature2RequestObject+0x13c>
0x37000 <_ZNK28ChiFeature2Statsregeneration16OnPrepareRequestEP24ChiFeature2RequestObject+0x3f4>
0x35000 <_ZNK28ChiFeature2Statsregeneration16OnPrepareRequestEP24ChiFeature2RequestObject+0x408>
#3, 0x1b500 <_ZNK28ChiFeature2Statsregeneration16OnPrepareRequestEP24ChiFeature2RequestObject+0x138>
0x35000 <_ZNK28ChiFeature2Statsregeneration16OnPrepareRequestEP24ChiFeature2RequestObject+0x46c>
<_ZNK28ChiFeature2Statsregeneration16OnPrepareRequestEP24ChiFeature2RequestObject+0x484>
0xe000 <_ZNK28ChiFeature2Statsregeneration16OnPrepareRequestEP24ChiFeature2RequestObject+0x3e8>
0x37000 <_ZNK28ChiFeature2Statsregeneration16OnPrepareRequestEP24ChiFeature2RequestObject+0x4a4>
0xf000 <_ZNK28ChiFeature2Statsregeneration16OnPrepareRequestEP24ChiFeature2RequestObject+0x40c>
0xa000 <_ZNK28ChiFeature2Statsregeneration16OnPrepareRequestEP24ChiFeature2RequestObject+0x3fc>
0xd000 <_ZNK28ChiFeature2Statsregeneration16OnPrepareRequestEP24ChiFeature2RequestObject+0x40c>
0xe000 <_ZNK28ChiFeature2Statsregeneration16OnPrepareRequestEP24ChiFeature2RequestObject+0x450>
0x37000 <_ZNK28ChiFeature2Statsregeneration16OnPrepareRequestEP24ChiFeature2RequestObject+0x50c>
0xf000 <_ZNK28ChiFeature2Statsregeneration16OnPrepareRequestEP24ChiFeature2RequestObject+0x478>
0xd000 <_ZNK28ChiFeature2Statsregeneration16OnPrepareRequestEP24ChiFeature2RequestObject+0x474>
0xd000 <_ZNK28ChiFeature2Statsregeneration16OnPrepareRequestEP24ChiFeature2RequestObject+0x478>
0xa000 <_ZNK28ChiFeature2Statsregeneration16OnPrepareRequestEP24ChiFeature2RequestObject+0x474>
<_ZN6ChiLog9LogSystemEPKcS1_S1_S1_iS1_z@plt>
<_ZNK28ChiFeature2Statsregeneration16OnPrepareRequestEP24ChiFeature2RequestObject+0x144>
0x37000 <_ZNK28ChiFeature2Statsregeneration16OnPrepareRequestEP24ChiFeature2RequestObject+0x584>
<_ZNK28ChiFeature2Statsregeneration16OnPrepareRequestEP24ChiFeature2RequestObject+0x160>
0x37000 <_ZNK28ChiFeature2Statsregeneration16OnPrepareRequestEP24ChiFeature2RequestObject+0x5a0>
<_ZNK28ChiFeature2Statsregeneration16OnPrepareRequestEP24ChiFeature2RequestObject+0x348>
0x35000 <_ZNK28ChiFeature2Statsregeneration16OnPrepareRequestEP24ChiFeature2RequestObject+0x5a0>
#0, 0x1bb14 <_ZNK28ChiFeature2Statsregeneration16OnPrepareRequestEP24ChiFeature2RequestObject+0x74c>
0x35000 <_ZNK28ChiFeature2Statsregeneration16OnPrepareRequestEP24ChiFeature2RequestObject+0x5b0>
<_ZNK28ChiFeature2Statsregeneration16OnPrepareRequestEP24ChiFeature2RequestObject+0x5a0>
0xe000 <_ZNK28ChiFeature2Statsregeneration16OnPrepareRequestEP24ChiFeature2RequestObject+0x528>
0xf000 <_ZNK28ChiFeature2Statsregeneration16OnPrepareRequestEP24ChiFeature2RequestObject+0x548>
0xc000 <_ZNK28ChiFeature2Statsregeneration16OnPrepareRequestEP24ChiFeature2RequestObject+0x540>
0xd000 <_ZNK28ChiFeature2Statsregeneration16OnPrepareRequestEP24ChiFeature2RequestObject+0x548>
0xe000 <_ZNK28ChiFeature2Statsregeneration16OnPrepareRequestEP24ChiFeature2RequestObject+0x56c>
0xf000 <_ZNK28ChiFeature2Statsregeneration16OnPrepareRequestEP24ChiFeature2RequestObject+0x58c>
0xb000 <_ZNK28ChiFeature2Statsregeneration16OnPrepareRequestEP24ChiFeature2RequestObject+0x584>
0xd000 <_ZNK28ChiFeature2Statsregeneration16OnPrepareRequestEP24ChiFeature2RequestObject+0x590>
0xf000 <_ZNK28ChiFeature2Statsregeneration16OnPrepareRequestEP24ChiFeature2RequestObject+0x59c>
<_ZNK28ChiFeature2Statsregeneration16OnPrepareRequestEP24ChiFeature2RequestObject+0x748>
<_ZNK28ChiFeature2Statsregeneration16OnPrepareRequestEP24ChiFeature2RequestObject+0x760>
0x35000 <_ZNK28ChiFeature2Statsregeneration16OnPrepareRequestEP24ChiFeature2RequestObject+0x65c>
#0, 0x1ba70 <_ZNK28ChiFeature2Statsregeneration16OnPrepareRequestEP24ChiFeature2RequestObject+0x6a8>
0x35000 <_ZNK28ChiFeature2Statsregeneration16OnPrepareRequestEP24ChiFeature2RequestObject+0x66c>
<_ZNK28ChiFeature2Statsregeneration16OnPrepareRequestEP24ChiFeature2RequestObject+0x65c>
0xe000 <_ZNK28ChiFeature2Statsregeneration16OnPrepareRequestEP24ChiFeature2RequestObject+0x5e4>
0xf000 <_ZNK28ChiFeature2Statsregeneration16OnPrepareRequestEP24ChiFeature2RequestObject+0x604>
0xe000 <_ZNK28ChiFeature2Statsregeneration16OnPrepareRequestEP24ChiFeature2RequestObject+0x604>
0xd000 <_ZNK28ChiFeature2Statsregeneration16OnPrepareRequestEP24ChiFeature2RequestObject+0x604>
0xe000 <_ZNK28ChiFeature2Statsregeneration16OnPrepareRequestEP24ChiFeature2RequestObject+0x628>
0xf000 <_ZNK28ChiFeature2Statsregeneration16OnPrepareRequestEP24ChiFeature2RequestObject+0x648>
0xb000 <_ZNK28ChiFeature2Statsregeneration16OnPrepareRequestEP24ChiFeature2RequestObject+0x640>
0xd000 <_ZNK28ChiFeature2Statsregeneration16OnPrepareRequestEP24ChiFeature2RequestObject+0x64c>
0xf000 <_ZNK28ChiFeature2Statsregeneration16OnPrepareRequestEP24ChiFeature2RequestObject+0x658>
<_ZN6ChiLog9LogSystemEPKcS1_S1_S1_iS1_z@plt>
#0, 0x1bb14 <_ZNK28ChiFeature2Statsregeneration16OnPrepareRequestEP24ChiFeature2RequestObject+0x74c>
0x35000 <_ZNK28ChiFeature2Statsregeneration16OnPrepareRequestEP24ChiFeature2RequestObject+0x714>
<_ZNK28ChiFeature2Statsregeneration16OnPrepareRequestEP24ChiFeature2RequestObject+0x704>
0xe000 <_ZNK28ChiFeature2Statsregeneration16OnPrepareRequestEP24ChiFeature2RequestObject+0x68c>
0xf000 <_ZNK28ChiFeature2Statsregeneration16OnPrepareRequestEP24ChiFeature2RequestObject+0x6ac>
0xf000 <_ZNK28ChiFeature2Statsregeneration16OnPrepareRequestEP24ChiFeature2RequestObject+0x6b0>
0xd000 <_ZNK28ChiFeature2Statsregeneration16OnPrepareRequestEP24ChiFeature2RequestObject+0x6ac>
0xe000 <_ZNK28ChiFeature2Statsregeneration16OnPrepareRequestEP24ChiFeature2RequestObject+0x6d0>
0xf000 <_ZNK28ChiFeature2Statsregeneration16OnPrepareRequestEP24ChiFeature2RequestObject+0x6f0>
0xb000 <_ZNK28ChiFeature2Statsregeneration16OnPrepareRequestEP24ChiFeature2RequestObject+0x6e8>
0xd000 <_ZNK28ChiFeature2Statsregeneration16OnPrepareRequestEP24ChiFeature2RequestObject+0x6f4>
0xf000 <_ZNK28ChiFeature2Statsregeneration16OnPrepareRequestEP24ChiFeature2RequestObject+0x700>
<_ZN6ChiLog9LogSystemEPKcS1_S1_S1_iS1_z@plt>
<_ZNK28ChiFeature2Statsregeneration16OnPrepareRequestEP24ChiFeature2RequestObject+0x58>
0x35000 <_ZNK28ChiFeature2Statsregeneration16OnPrepareRequestEP24ChiFeature2RequestObject+0x7c8>
#3, 0x1bbec <_ZNK28ChiFeature2Statsregeneration16OnPrepareRequestEP24ChiFeature2RequestObject+0x824>
0x35000 <_ZNK28ChiFeature2Statsregeneration16OnPrepareRequestEP24ChiFeature2RequestObject+0x7e0>
<_ZNK28ChiFeature2Statsregeneration16OnPrepareRequestEP24ChiFeature2RequestObject+0x7d4>
0xe000 <_ZNK28ChiFeature2Statsregeneration16OnPrepareRequestEP24ChiFeature2RequestObject+0x758>
0xf000 <_ZNK28ChiFeature2Statsregeneration16OnPrepareRequestEP24ChiFeature2RequestObject+0x778>
0xb000 <_ZNK28ChiFeature2Statsregeneration16OnPrepareRequestEP24ChiFeature2RequestObject+0x76c>
0xd000 <_ZNK28ChiFeature2Statsregeneration16OnPrepareRequestEP24ChiFeature2RequestObject+0x778>
0xe000 <_ZNK28ChiFeature2Statsregeneration16OnPrepareRequestEP24ChiFeature2RequestObject+0x7a0>
0xd000 <_ZNK28ChiFeature2Statsregeneration16OnPrepareRequestEP24ChiFeature2RequestObject+0x7b8>
0xf000 <_ZNK28ChiFeature2Statsregeneration16OnPrepareRequestEP24ChiFeature2RequestObject+0x7c8>
0xd000 <_ZNK28ChiFeature2Statsregeneration16OnPrepareRequestEP24ChiFeature2RequestObject+0x7c4>
0xe000 <_ZNK28ChiFeature2Statsregeneration16OnPrepareRequestEP24ChiFeature2RequestObject+0x7cc>
<_ZN6ChiLog9LogSystemEPKcS1_S1_S1_iS1_z@plt>
<_ZNK28ChiFeature2Statsregeneration16OnPrepareRequestEP24ChiFeature2RequestObject+0x94c>
0x1bc38 <_ZNK28ChiFeature2Statsregeneration16OnPrepareRequestEP24ChiFeature2RequestObject+0x870>
<_ZNK28ChiFeature2Statsregeneration16OnPrepareRequestEP24ChiFeature2RequestObject+0x874>
<_ZNK28ChiFeature2Statsregeneration16OnPrepareRequestEP24ChiFeature2RequestObject+0x920>
<_ZNK28ChiFeature2Statsregeneration16OnPrepareRequestEP24ChiFeature2RequestObject+0x890>
<_ZNK28ChiFeature2Statsregeneration16OnPrepareRequestEP24ChiFeature2RequestObject+0x928>
<_ZNK28ChiFeature2Statsregeneration16OnPrepareRequestEP24ChiFeature2RequestObject+0x8f4>
<_ZNK28ChiFeature2Statsregeneration16OnPrepareRequestEP24ChiFeature2RequestObject+0x928>
0x1bcac <_ZNK28ChiFeature2Statsregeneration16OnPrepareRequestEP24ChiFeature2RequestObject+0x8e4>
0x1bd90 <_ZNK28ChiFeature2Statsregeneration16OnPrepareRequestEP24ChiFeature2RequestObject+0x9c8>
<_ZNK28ChiFeature2Statsregeneration16OnPrepareRequestEP24ChiFeature2RequestObject+0x8e4>
0x1bd14 <_ZNK28ChiFeature2Statsregeneration16OnPrepareRequestEP24ChiFeature2RequestObject+0x94c>
0x1bd90 <_ZNK28ChiFeature2Statsregeneration16OnPrepareRequestEP24ChiFeature2RequestObject+0x9c8>
0x35000 <_ZNK28ChiFeature2Statsregeneration16OnPrepareRequestEP24ChiFeature2RequestObject+0x9b8>
<_ZNK28ChiFeature2Statsregeneration16OnPrepareRequestEP24ChiFeature2RequestObject+0x9b0>
<_ZNK15ChiFeature2Base21SetFeaturePrivContextEP24ChiFeature2RequestObjectPv@plt>
<_ZNK28ChiFeature2Statsregeneration16OnPrepareRequestEP24ChiFeature2RequestObject+0x54>
<_ZNK28ChiFeature2Statsregeneration16OnPrepareRequestEP24ChiFeature2RequestObject+0x44>
0x1b460 <_ZNK28ChiFeature2Statsregeneration16OnPrepareRequestEP24ChiFeature2RequestObject+0x98>
<_ZNK28ChiFeature2Statsregeneration16OnPrepareRequestEP24ChiFeature2RequestObject+0x54>
<_ZNK28ChiFeature2Statsregeneration16OnPrepareRequestEP24ChiFeature2RequestObject+0x964>

0x10000 <_ZNK28ChiFeature2Statsregeneration16OnPrepareRequestEP24ChiFeature2RequestObject+0x9c8>
0x10000 <_ZNK28ChiFeature2Statsregeneration23OnExecuteProcessRequestEP24ChiFeature2RequestObject+0x4>
0x35000 <_ZNK28ChiFeature2Statsregeneration23OnExecuteProcessRequestEP24ChiFeature2RequestObject+0xa4>
0x10000 <_ZNK28ChiFeature2Statsregeneration23OnExecuteProcessRequestEP24ChiFeature2RequestObject+0x20>
0x10000 <_ZNK28ChiFeature2Statsregeneration23OnExecuteProcessRequestEP24ChiFeature2RequestObject+0x4c>
0x10000 <_ZNK28ChiFeature2Statsregeneration23OnExecuteProcessRequestEP24ChiFeature2RequestObject+0x74>
<_ZNK28ChiFeature2Statsregeneration23OnExecuteProcessRequestEP24ChiFeature2RequestObject+0xff8>
<_ZNK15ChiFeature2Base21GetFeaturePrivContextEP24ChiFeature2RequestObject@plt>
0x1c378 <_ZNK28ChiFeature2Statsregeneration23OnExecuteProcessRequestEP24ChiFeature2RequestObject+0x5e0>
<_ZNK28ChiFeature2Statsregeneration23OnExecuteProcessRequestEP24ChiFeature2RequestObject+0x1010>
<_ZNK15ChiFeature2Base19GetCurrentStageInfoEP24ChiFeature2RequestObjectP20ChiFeature2StageInfo@plt>
0x1cd60 <_ZNK28ChiFeature2Statsregeneration23OnExecuteProcessRequestEP24ChiFeature2RequestObject+0xfc8>
<_ZNK28ChiFeature2Statsregeneration23OnExecuteProcessRequestEP24ChiFeature2RequestObject+0x698>
0x1c564 <_ZNK28ChiFeature2Statsregeneration23OnExecuteProcessRequestEP24ChiFeature2RequestObject+0x7cc>
<_ZNK28ChiFeature2Statsregeneration23OnExecuteProcessRequestEP24ChiFeature2RequestObject+0x718>
0x1cd5c <_ZNK28ChiFeature2Statsregeneration23OnExecuteProcessRequestEP24ChiFeature2RequestObject+0xfc4>
<_ZNK28ChiFeature2Statsregeneration23OnExecuteProcessRequestEP24ChiFeature2RequestObject+0x1058>
<_ZN28ChiFeature2StatsregenerationD2Ev+0x8>
0x1c19c <_ZNK28ChiFeature2Statsregeneration23OnExecuteProcessRequestEP24ChiFeature2RequestObject+0x404>
0x35000 <_ZNK28ChiFeature2Statsregeneration23OnExecuteProcessRequestEP24ChiFeature2RequestObject+0x1b8>
#3, 0x1bf98 <_ZNK28ChiFeature2Statsregeneration23OnExecuteProcessRequestEP24ChiFeature2RequestObject+0x200>
0x35000 <_ZNK28ChiFeature2Statsregeneration23OnExecuteProcessRequestEP24ChiFeature2RequestObject+0x1c8>
<_ZNK28ChiFeature2Statsregeneration23OnExecuteProcessRequestEP24ChiFeature2RequestObject+0x1b8>
0xe000 <_ZNK28ChiFeature2Statsregeneration23OnExecuteProcessRequestEP24ChiFeature2RequestObject+0x140>
0xf000 <_ZNK28ChiFeature2Statsregeneration23OnExecuteProcessRequestEP24ChiFeature2RequestObject+0x160>
0xd000 <_ZNK28ChiFeature2Statsregeneration23OnExecuteProcessRequestEP24ChiFeature2RequestObject+0x15c>
0xf000 <_ZNK28ChiFeature2Statsregeneration23OnExecuteProcessRequestEP24ChiFeature2RequestObject+0x168>
0xe000 <_ZNK28ChiFeature2Statsregeneration23OnExecuteProcessRequestEP24ChiFeature2RequestObject+0x184>
0xd000 <_ZNK28ChiFeature2Statsregeneration23OnExecuteProcessRequestEP24ChiFeature2RequestObject+0x19c>
0xf000 <_ZNK28ChiFeature2Statsregeneration23OnExecuteProcessRequestEP24ChiFeature2RequestObject+0x1ac>
0xf000 <_ZNK28ChiFeature2Statsregeneration23OnExecuteProcessRequestEP24ChiFeature2RequestObject+0x1b0>
0xe000 <_ZNK28ChiFeature2Statsregeneration23OnExecuteProcessRequestEP24ChiFeature2RequestObject+0x1b0>
<_ZN6ChiLog9LogSystemEPKcS1_S1_S1_iS1_z@plt>
<_ZNK28ChiFeature2Statsregeneration23OnExecuteProcessRequestEP24ChiFeature2RequestObject+0x10d0>
<_ZNK28ChiFeature2Statsregeneration31OnPopulateConfigurationSettingsEP24ChiFeature2RequestObjectPK21ChiFeature2IdentifierP11ChiMetadata+0xa18>
0x1bfdc <_ZNK28ChiFeature2Statsregeneration23OnExecuteProcessRequestEP24ChiFeature2RequestObject+0x244>
<_ZNK28ChiFeature2Statsregeneration23OnExecuteProcessRequestEP24ChiFeature2RequestObject+0x11a8>
<_ZNK28ChiFeature2Statsregeneration31OnPopulateConfigurationSettingsEP24ChiFeature2RequestObjectPK21ChiFeature2IdentifierP11ChiMetadata+0x8a8>
<_ZNK28ChiFeature2Statsregeneration23OnExecuteProcessRequestEP24ChiFeature2RequestObject+0x10e8>
<_ZNK15ChiFeature2Base25PopulatePortConfigurationEP24ChiFeature2RequestObjectPK21ChiFeature2PortIdListS4_@plt>
<_ZN22CHITargetBufferManager22GetTargetBufferManagerEPv@plt>
0x1c148 <_ZNK28ChiFeature2Statsregeneration23OnExecuteProcessRequestEP24ChiFeature2RequestObject+0x3b0>
<_ZN22CHITargetBufferManager9GetTargetEPvm@plt>
0x1c148 <_ZNK28ChiFeature2Statsregeneration23OnExecuteProcessRequestEP24ChiFeature2RequestObject+0x3b0>
0xe000 <_ZNK28ChiFeature2Statsregeneration23OnExecuteProcessRequestEP24ChiFeature2RequestObject+0x274>
0xb000 <_ZNK28ChiFeature2Statsregeneration23OnExecuteProcessRequestEP24ChiFeature2RequestObject+0x26c>
0x1c148 <_ZNK28ChiFeature2Statsregeneration23OnExecuteProcessRequestEP24ChiFeature2RequestObject+0x3b0>
#5, 0x1c148 <_ZNK28ChiFeature2Statsregeneration23OnExecuteProcessRequestEP24ChiFeature2RequestObject+0x3b0>
0x35000 <_ZNK28ChiFeature2Statsregeneration23OnExecuteProcessRequestEP24ChiFeature2RequestObject+0x33c>
<_ZNK28ChiFeature2Statsregeneration23OnExecuteProcessRequestEP24ChiFeature2RequestObject+0x34c>
0xe000 <_ZNK28ChiFeature2Statsregeneration23OnExecuteProcessRequestEP24ChiFeature2RequestObject+0x2b4>
0xf000 <_ZNK28ChiFeature2Statsregeneration23OnExecuteProcessRequestEP24ChiFeature2RequestObject+0x2d8>
0xa000 <_ZNK28ChiFeature2Statsregeneration23OnExecuteProcessRequestEP24ChiFeature2RequestObject+0x2cc>
0xf000 <_ZNK28ChiFeature2Statsregeneration23OnExecuteProcessRequestEP24ChiFeature2RequestObject+0x2e8>
0xe000 <_ZNK28ChiFeature2Statsregeneration23OnExecuteProcessRequestEP24ChiFeature2RequestObject+0x314>
0xd000 <_ZNK28ChiFeature2Statsregeneration23OnExecuteProcessRequestEP24ChiFeature2RequestObject+0x330>
0xf000 <_ZNK28ChiFeature2Statsregeneration23OnExecuteProcessRequestEP24ChiFeature2RequestObject+0x348>
0xf000 <_ZNK28ChiFeature2Statsregeneration23OnExecuteProcessRequestEP24ChiFeature2RequestObject+0x350>
0xd000 <_ZNK28ChiFeature2Statsregeneration23OnExecuteProcessRequestEP24ChiFeature2RequestObject+0x350>
<_ZN6ChiLog9LogSystemEPKcS1_S1_S1_iS1_z@plt>
0x1c19c <_ZNK28ChiFeature2Statsregeneration23OnExecuteProcessRequestEP24ChiFeature2RequestObject+0x404>
0x1c19c <_ZNK28ChiFeature2Statsregeneration23OnExecuteProcessRequestEP24ChiFeature2RequestObject+0x404>
<_ZN24ChiFeature2RequestObject13SetBufferInfoE31ChiFeature2RequestObjectOpsTypePK21ChiFeature2IdentifierPvmihh@plt>
<_ZN24ChiFeature2RequestObject13SetBufferInfoE31ChiFeature2RequestObjectOpsTypePK21ChiFeature2IdentifierPvmihh@plt>
0x39000 <_ZNK28ChiFeature2Statsregeneration23OnExecuteProcessRequestEP24ChiFeature2RequestObject+0x478>
<_ZNK28ChiFeature2Statsregeneration31OnPopulateConfigurationSettingsEP24ChiFeature2RequestObjectPK21ChiFeature2IdentifierP11ChiMetadata+0x570>
0x1cd60 <_ZNK28ChiFeature2Statsregeneration23OnExecuteProcessRequestEP24ChiFeature2RequestObject+0xfc8>
<_ZNK28ChiFeature2Statsregeneration23OnExecuteProcessRequestEP24ChiFeature2RequestObject+0x1160>
<_ZNK15ChiFeature2Base22SubmitRequestToSessionEP24ChiFeature2RequestObject@plt>
0x1cd60 <_ZNK28ChiFeature2Statsregeneration23OnExecuteProcessRequestEP24ChiFeature2RequestObject+0xfc8>
<_ZNK28ChiFeature2Statsregeneration23OnExecuteProcessRequestEP24ChiFeature2RequestObject+0x11d8>
<_ZNK28ChiFeature2Statsregeneration23OnExecuteProcessRequestEP24ChiFeature2RequestObject+0xfc4>
<_ZNK28ChiFeature2Statsregeneration23OnExecuteProcessRequestEP24ChiFeature2RequestObject+0x11f0>
<_ZN28ChiFeature2StatsregenerationD2Ev+0x8>
0x1c2c8 <_ZNK28ChiFeature2Statsregeneration23OnExecuteProcessRequestEP24ChiFeature2RequestObject+0x530>
<_ZNK28ChiFeature2Statsregeneration23OnExecuteProcessRequestEP24ChiFeature2RequestObject+0x1208>
<_ZNK15ChiFeature2Base40GetNumDependencyListsFromStageDescriptorEPK26ChiFeature2StageDescriptorhh@plt>
<_ZNK28ChiFeature2Statsregeneration23OnExecuteProcessRequestEP24ChiFeature2RequestObject+0x1220>
<_ZNK15ChiFeature2Base35SetNextStageInfoFromStageDescriptorEP24ChiFeature2RequestObjectPK26ChiFeature2StageDescriptorhh@plt>
<_ZNK28ChiFeature2Statsregeneration23OnExecuteProcessRequestEP24ChiFeature2RequestObject+0x1238>
<_ZNK15ChiFeature2Base36GetDependencyListFromStageDescriptorEPK26ChiFeature2StageDescriptorhhh@plt>
0x1c2c8 <_ZNK28ChiFeature2Statsregeneration23OnExecuteProcessRequestEP24ChiFeature2RequestObject+0x530>
<_ZNK28ChiFeature2Statsregeneration23OnExecuteProcessRequestEP24ChiFeature2RequestObject+0x1250>
<_ZNK15ChiFeature2Base23PopulateDependencyPortsEP24ChiFeature2RequestObjecthPK26ChiFeature2InputDependency@plt>
0x35000 <_ZNK28ChiFeature2Statsregeneration23OnExecuteProcessRequestEP24ChiFeature2RequestObject+0x594>
#3, 0x1cd5c <_ZNK28ChiFeature2Statsregeneration23OnExecuteProcessRequestEP24ChiFeature2RequestObject+0xfc4>
0x35000 <_ZNK28ChiFeature2Statsregeneration23OnExecuteProcessRequestEP24ChiFeature2RequestObject+0x5a4>
<_ZNK28ChiFeature2Statsregeneration23OnExecuteProcessRequestEP24ChiFeature2RequestObject+0x598>
0xe000 <_ZNK28ChiFeature2Statsregeneration23OnExecuteProcessRequestEP24ChiFeature2RequestObject+0x51c>
0xf000 <_ZNK28ChiFeature2Statsregeneration23OnExecuteProcessRequestEP24ChiFeature2RequestObject+0x53c>
0xe000 <_ZNK28ChiFeature2Statsregeneration23OnExecuteProcessRequestEP24ChiFeature2RequestObject+0x53c>
0xf000 <_ZNK28ChiFeature2Statsregeneration23OnExecuteProcessRequestEP24ChiFeature2RequestObject+0x544>
0xe000 <_ZNK28ChiFeature2Statsregeneration23OnExecuteProcessRequestEP24ChiFeature2RequestObject+0x560>
0xd000 <_ZNK28ChiFeature2Statsregeneration23OnExecuteProcessRequestEP24ChiFeature2RequestObject+0x578>
0xf000 <_ZNK28ChiFeature2Statsregeneration23OnExecuteProcessRequestEP24ChiFeature2RequestObject+0x588>
0xf000 <_ZNK28ChiFeature2Statsregeneration23OnExecuteProcessRequestEP24ChiFeature2RequestObject+0x58c>
0xb000 <_ZNK28ChiFeature2Statsregeneration23OnExecuteProcessRequestEP24ChiFeature2RequestObject+0x580>
<_ZNK28ChiFeature2Statsregeneration23OnExecuteProcessRequestEP24ChiFeature2RequestObject+0x7c4>
0x35000 <_ZNK28ChiFeature2Statsregeneration23OnExecuteProcessRequestEP24ChiFeature2RequestObject+0x644>
#0, 0x1c428 <_ZNK28ChiFeature2Statsregeneration23OnExecuteProcessRequestEP24ChiFeature2RequestObject+0x690>
0x35000 <_ZNK28ChiFeature2Statsregeneration23OnExecuteProcessRequestEP24ChiFeature2RequestObject+0x654>
<_ZNK28ChiFeature2Statsregeneration23OnExecuteProcessRequestEP24ChiFeature2RequestObject+0x648>
0xe000 <_ZNK28ChiFeature2Statsregeneration23OnExecuteProcessRequestEP24ChiFeature2RequestObject+0x5cc>
0xf000 <_ZNK28ChiFeature2Statsregeneration23OnExecuteProcessRequestEP24ChiFeature2RequestObject+0x5ec>
0xb000 <_ZNK28ChiFeature2Statsregeneration23OnExecuteProcessRequestEP24ChiFeature2RequestObject+0x5e0>
0xf000 <_ZNK28ChiFeature2Statsregeneration23OnExecuteProcessRequestEP24ChiFeature2RequestObject+0x5f4>
0xe000 <_ZNK28ChiFeature2Statsregeneration23OnExecuteProcessRequestEP24ChiFeature2RequestObject+0x610>
0xf000 <_ZNK28ChiFeature2Statsregeneration23OnExecuteProcessRequestEP24ChiFeature2RequestObject+0x630>
0xb000 <_ZNK28ChiFeature2Statsregeneration23OnExecuteProcessRequestEP24ChiFeature2RequestObject+0x628>
0xf000 <_ZNK28ChiFeature2Statsregeneration23OnExecuteProcessRequestEP24ChiFeature2RequestObject+0x63c>
0xd000 <_ZNK28ChiFeature2Statsregeneration23OnExecuteProcessRequestEP24ChiFeature2RequestObject+0x638>
<_ZN6ChiLog9LogSystemEPKcS1_S1_S1_iS1_z@plt>
<_ZNK28ChiFeature2Statsregeneration23OnExecuteProcessRequestEP24ChiFeature2RequestObject+0xfc8>
<_ZNK28ChiFeature2Statsregeneration23OnExecuteProcessRequestEP24ChiFeature2RequestObject+0x8e8>
<_ZNK28ChiFeature2Statsregeneration23OnExecuteProcessRequestEP24ChiFeature2RequestObject+0x718>
<_ZNK28ChiFeature2Statsregeneration23OnExecuteProcessRequestEP24ChiFeature2RequestObject+0x1028>
<_ZNK15ChiFeature2Base13SetConfigInfoEP24ChiFeature2RequestObjectj@plt>
<_ZNK28ChiFeature2Statsregeneration23OnExecuteProcessRequestEP24ChiFeature2RequestObject+0x1040>
<_ZN28ChiFeature2StatsregenerationD2Ev+0x8>
0x1cd60 <_ZNK28ChiFeature2Statsregeneration23OnExecuteProcessRequestEP24ChiFeature2RequestObject+0xfc8>
0x1c764 <_ZNK28ChiFeature2Statsregeneration23OnExecuteProcessRequestEP24ChiFeature2RequestObject+0x9cc>
<_ZNK28ChiFeature2Statsregeneration23OnExecuteProcessRequestEP24ChiFeature2RequestObject+0xfac>
<_ZNK15ChiFeature2Base35SetNextStageInfoFromStageDescriptorEP24ChiFeature2RequestObjectPK26ChiFeature2StageDescriptorhh@plt>
<_ZNK28ChiFeature2Statsregeneration23OnExecuteProcessRequestEP24ChiFeature2RequestObject+0xfc4>
0x35000 <_ZNK28ChiFeature2Statsregeneration23OnExecuteProcessRequestEP24ChiFeature2RequestObject+0x77c>
#0, 0x1cd5c <_ZNK28ChiFeature2Statsregeneration23OnExecuteProcessRequestEP24ChiFeature2RequestObject+0xfc4>
0x35000 <_ZNK28ChiFeature2Statsregeneration23OnExecuteProcessRequestEP24ChiFeature2RequestObject+0x78c>
<_ZNK28ChiFeature2Statsregeneration23OnExecuteProcessRequestEP24ChiFeature2RequestObject+0x780>
0xe000 <_ZNK28ChiFeature2Statsregeneration23OnExecuteProcessRequestEP24ChiFeature2RequestObject+0x704>
0xf000 <_ZNK28ChiFeature2Statsregeneration23OnExecuteProcessRequestEP24ChiFeature2RequestObject+0x724>
0xf000 <_ZNK28ChiFeature2Statsregeneration23OnExecuteProcessRequestEP24ChiFeature2RequestObject+0x728>
0xf000 <_ZNK28ChiFeature2Statsregeneration23OnExecuteProcessRequestEP24ChiFeature2RequestObject+0x72c>
0xe000 <_ZNK28ChiFeature2Statsregeneration23OnExecuteProcessRequestEP24ChiFeature2RequestObject+0x748>
0xf000 <_ZNK28ChiFeature2Statsregeneration23OnExecuteProcessRequestEP24ChiFeature2RequestObject+0x768>
0xb000 <_ZNK28ChiFeature2Statsregeneration23OnExecuteProcessRequestEP24ChiFeature2RequestObject+0x760>
0xf000 <_ZNK28ChiFeature2Statsregeneration23OnExecuteProcessRequestEP24ChiFeature2RequestObject+0x774>
0xa000 <_ZNK28ChiFeature2Statsregeneration23OnExecuteProcessRequestEP24ChiFeature2RequestObject+0x764>
<_ZN6ChiLog9LogSystemEPKcS1_S1_S1_iS1_z@plt>
<_ZNK28ChiFeature2Statsregeneration23OnExecuteProcessRequestEP24ChiFeature2RequestObject+0xfc4>
0x1cd5c <_ZNK28ChiFeature2Statsregeneration23OnExecuteProcessRequestEP24ChiFeature2RequestObject+0xfc4>
<_ZNK28ChiFeature2Statsregeneration23OnExecuteProcessRequestEP24ChiFeature2RequestObject+0x1070>
<_ZNK15ChiFeature2Base26IsPortEnabledInFinalOutputEPK24ChiFeature2RequestObject21ChiFeature2Identifierh@plt>
0x37000 <_ZNK28ChiFeature2Statsregeneration23OnExecuteProcessRequestEP24ChiFeature2RequestObject+0x868>
<_ZNK28ChiFeature2Statsregeneration23OnExecuteProcessRequestEP24ChiFeature2RequestObject+0xa0c>
<_ZNK28ChiFeature2Statsregeneration23OnExecuteProcessRequestEP24ChiFeature2RequestObject+0x1130>
<_ZNK28ChiFeature2Statsregeneration24GetLongExposureRequestIdEP24ChiFeature2RequestObject@plt>
0x35000 <_ZNK28ChiFeature2Statsregeneration23OnExecuteProcessRequestEP24ChiFeature2RequestObject+0x884>
<_ZNK28ChiFeature2Statsregeneration23OnExecuteProcessRequestEP24ChiFeature2RequestObject+0xb9c>
#1, 0x1c674 <_ZNK28ChiFeature2Statsregeneration23OnExecuteProcessRequestEP24ChiFeature2RequestObject+0x8dc>
0x35000 <_ZNK28ChiFeature2Statsregeneration23OnExecuteProcessRequestEP24ChiFeature2RequestObject+0x8a0>
<_ZNK28ChiFeature2Statsregeneration23OnExecuteProcessRequestEP24ChiFeature2RequestObject+0x894>
0xe000 <_ZNK28ChiFeature2Statsregeneration23OnExecuteProcessRequestEP24ChiFeature2RequestObject+0x818>
0xf000 <_ZNK28ChiFeature2Statsregeneration23OnExecuteProcessRequestEP24ChiFeature2RequestObject+0x838>
0xd000 <_ZNK28ChiFeature2Statsregeneration23OnExecuteProcessRequestEP24ChiFeature2RequestObject+0x834>
0xf000 <_ZNK28ChiFeature2Statsregeneration23OnExecuteProcessRequestEP24ChiFeature2RequestObject+0x840>
0xe000 <_ZNK28ChiFeature2Statsregeneration23OnExecuteProcessRequestEP24ChiFeature2RequestObject+0x85c>
0xb000 <_ZNK28ChiFeature2Statsregeneration23OnExecuteProcessRequestEP24ChiFeature2RequestObject+0x86c>
0xe000 <_ZNK28ChiFeature2Statsregeneration23OnExecuteProcessRequestEP24ChiFeature2RequestObject+0x880>
0xf000 <_ZNK28ChiFeature2Statsregeneration23OnExecuteProcessRequestEP24ChiFeature2RequestObject+0x888>
0xc000 <_ZNK28ChiFeature2Statsregeneration23OnExecuteProcessRequestEP24ChiFeature2RequestObject+0x880>
<_ZN6ChiLog9LogSystemEPKcS1_S1_S1_iS1_z@plt>
<_ZNK28ChiFeature2Statsregeneration23OnExecuteProcessRequestEP24ChiFeature2RequestObject+0xb94>
0x1cd5c <_ZNK28ChiFeature2Statsregeneration23OnExecuteProcessRequestEP24ChiFeature2RequestObject+0xfc4>
0x35000 <_ZNK28ChiFeature2Statsregeneration23OnExecuteProcessRequestEP24ChiFeature2RequestObject+0x950>
#3, 0x1c72c <_ZNK28ChiFeature2Statsregeneration23OnExecuteProcessRequestEP24ChiFeature2RequestObject+0x994>
0x35000 <_ZNK28ChiFeature2Statsregeneration23OnExecuteProcessRequestEP24ChiFeature2RequestObject+0x960>
0xe000 <_ZNK28ChiFeature2Statsregeneration23OnExecuteProcessRequestEP24ChiFeature2RequestObject+0x8c8>
<_ZNK28ChiFeature2Statsregeneration23OnExecuteProcessRequestEP24ChiFeature2RequestObject+0x954>
0xf000 <_ZNK28ChiFeature2Statsregeneration23OnExecuteProcessRequestEP24ChiFeature2RequestObject+0x8f8>
0xb000 <_ZNK28ChiFeature2Statsregeneration23OnExecuteProcessRequestEP24ChiFeature2RequestObject+0x8ec>
0xf000 <_ZNK28ChiFeature2Statsregeneration23OnExecuteProcessRequestEP24ChiFeature2RequestObject+0x900>
0xd000 <_ZNK28ChiFeature2Statsregeneration23OnExecuteProcessRequestEP24ChiFeature2RequestObject+0x92c>
0xf000 <_ZNK28ChiFeature2Statsregeneration23OnExecuteProcessRequestEP24ChiFeature2RequestObject+0x93c>
0xf000 <_ZNK28ChiFeature2Statsregeneration23OnExecuteProcessRequestEP24ChiFeature2RequestObject+0x940>
0xe000 <_ZNK28ChiFeature2Statsregeneration23OnExecuteProcessRequestEP24ChiFeature2RequestObject+0x940>
<_ZN6ChiLog9LogSystemEPKcS1_S1_S1_iS1_z@plt>
<_ZNK28ChiFeature2Statsregeneration23OnExecuteProcessRequestEP24ChiFeature2RequestObject+0x1088>
<_ZNK28ChiFeature2Statsregeneration20MergeAWBFrameControlEP24ChiFeature2RequestObject@plt>
<_ZNK28ChiFeature2Statsregeneration23OnExecuteProcessRequestEP24ChiFeature2RequestObject+0x10a0>
<_ZNK15ChiFeature2Base18SendExternalResultEP24ChiFeature2RequestObject@plt>
<_ZNK28ChiFeature2Statsregeneration23OnExecuteProcessRequestEP24ChiFeature2RequestObject+0xfc4>
<_ZNK28ChiFeature2Statsregeneration23OnExecuteProcessRequestEP24ChiFeature2RequestObject+0x1100>
<_ZNK15ChiFeature2Base35SetNextStageInfoFromStageDescriptorEP24ChiFeature2RequestObjectPK26ChiFeature2StageDescriptorhh@plt>
<_ZNK28ChiFeature2Statsregeneration23OnExecuteProcessRequestEP24ChiFeature2RequestObject+0x1118>
<_ZNK15ChiFeature2Base23HandleDependencyMappingEP24ChiFeature2RequestObject@plt>
<_ZNK28ChiFeature2Statsregeneration23OnExecuteProcessRequestEP24ChiFeature2RequestObject+0xfc4>
0x35000 <_ZNK28ChiFeature2Statsregeneration23OnExecuteProcessRequestEP24ChiFeature2RequestObject+0xa70>
#3, 0x1c858 <_ZNK28ChiFeature2Statsregeneration23OnExecuteProcessRequestEP24ChiFeature2RequestObject+0xac0>
0x35000 <_ZNK28ChiFeature2Statsregeneration23OnExecuteProcessRequestEP24ChiFeature2RequestObject+0xa84>
<_ZNK28ChiFeature2Statsregeneration23OnExecuteProcessRequestEP24ChiFeature2RequestObject+0xa78>
0xe000 <_ZNK28ChiFeature2Statsregeneration23OnExecuteProcessRequestEP24ChiFeature2RequestObject+0x9fc>
0xf000 <_ZNK28ChiFeature2Statsregeneration23OnExecuteProcessRequestEP24ChiFeature2RequestObject+0xa1c>
0xa000 <_ZNK28ChiFeature2Statsregeneration23OnExecuteProcessRequestEP24ChiFeature2RequestObject+0xa0c>
0xf000 <_ZNK28ChiFeature2Statsregeneration23OnExecuteProcessRequestEP24ChiFeature2RequestObject+0xa24>
0xe000 <_ZNK28ChiFeature2Statsregeneration23OnExecuteProcessRequestEP24ChiFeature2RequestObject+0xa40>
0xd000 <_ZNK28ChiFeature2Statsregeneration23OnExecuteProcessRequestEP24ChiFeature2RequestObject+0xa58>
0xf000 <_ZNK28ChiFeature2Statsregeneration23OnExecuteProcessRequestEP24ChiFeature2RequestObject+0xa68>
0xf000 <_ZNK28ChiFeature2Statsregeneration23OnExecuteProcessRequestEP24ChiFeature2RequestObject+0xa6c>
0xf000 <_ZNK28ChiFeature2Statsregeneration23OnExecuteProcessRequestEP24ChiFeature2RequestObject+0xa70>
<_ZN6ChiLog9LogSystemEPKcS1_S1_S1_iS1_z@plt>
<_ZNK28ChiFeature2Statsregeneration23OnExecuteProcessRequestEP24ChiFeature2RequestObject+0x1148>
<_ZNK28ChiFeature2Statsregeneration24GetLongExposureRequestIdEP24ChiFeature2RequestObject@plt>
<_ZNK28ChiFeature2Statsregeneration23OnExecuteProcessRequestEP24ChiFeature2RequestObject+0xbac>
#3, 0x1c924 <_ZNK28ChiFeature2Statsregeneration23OnExecuteProcessRequestEP24ChiFeature2RequestObject+0xb8c>
0x35000 <_ZNK28ChiFeature2Statsregeneration23OnExecuteProcessRequestEP24ChiFeature2RequestObject+0xb50>
<_ZNK28ChiFeature2Statsregeneration23OnExecuteProcessRequestEP24ChiFeature2RequestObject+0xb44>
0xe000 <_ZNK28ChiFeature2Statsregeneration23OnExecuteProcessRequestEP24ChiFeature2RequestObject+0xac8>
0xf000 <_ZNK28ChiFeature2Statsregeneration23OnExecuteProcessRequestEP24ChiFeature2RequestObject+0xae8>
0xe000 <_ZNK28ChiFeature2Statsregeneration23OnExecuteProcessRequestEP24ChiFeature2RequestObject+0xae8>
0xf000 <_ZNK28ChiFeature2Statsregeneration23OnExecuteProcessRequestEP24ChiFeature2RequestObject+0xaf0>
0xe000 <_ZNK28ChiFeature2Statsregeneration23OnExecuteProcessRequestEP24ChiFeature2RequestObject+0xb0c>
0xd000 <_ZNK28ChiFeature2Statsregeneration23OnExecuteProcessRequestEP24ChiFeature2RequestObject+0xb24>
0xf000 <_ZNK28ChiFeature2Statsregeneration23OnExecuteProcessRequestEP24ChiFeature2RequestObject+0xb34>
0xf000 <_ZNK28ChiFeature2Statsregeneration23OnExecuteProcessRequestEP24ChiFeature2RequestObject+0xb38>
0xc000 <_ZNK28ChiFeature2Statsregeneration23OnExecuteProcessRequestEP24ChiFeature2RequestObject+0xb30>
<_ZN6ChiLog9LogSystemEPKcS1_S1_S1_iS1_z@plt>
<_ZNK28ChiFeature2Statsregeneration23OnExecuteProcessRequestEP24ChiFeature2RequestObject+0xd1c>
#3, 0x1c9f8 <_ZNK28ChiFeature2Statsregeneration23OnExecuteProcessRequestEP24ChiFeature2RequestObject+0xc60>
<_ZNK28ChiFeature2Statsregeneration23OnExecuteProcessRequestEP24ChiFeature2RequestObject+0xd1c>
#3, 0x1caac <_ZNK28ChiFeature2Statsregeneration23OnExecuteProcessRequestEP24ChiFeature2RequestObject+0xd14>
0x35000 <_ZNK28ChiFeature2Statsregeneration23OnExecuteProcessRequestEP24ChiFeature2RequestObject+0xc14>
<_ZNK28ChiFeature2Statsregeneration23OnExecuteProcessRequestEP24ChiFeature2RequestObject+0xc0c>
0xe000 <_ZNK28ChiFeature2Statsregeneration23OnExecuteProcessRequestEP24ChiFeature2RequestObject+0xb8c>
0xf000 <_ZNK28ChiFeature2Statsregeneration23OnExecuteProcessRequestEP24ChiFeature2RequestObject+0xbb0>
0xf000 <_ZNK28ChiFeature2Statsregeneration23OnExecuteProcessRequestEP24ChiFeature2RequestObject+0xbb4>
0xf000 <_ZNK28ChiFeature2Statsregeneration23OnExecuteProcessRequestEP24ChiFeature2RequestObject+0xbb8>
0xe000 <_ZNK28ChiFeature2Statsregeneration23OnExecuteProcessRequestEP24ChiFeature2RequestObject+0xbd4>
0xf000 <_ZNK28ChiFeature2Statsregeneration23OnExecuteProcessRequestEP24ChiFeature2RequestObject+0xbfc>
0xd000 <_ZNK28ChiFeature2Statsregeneration23OnExecuteProcessRequestEP24ChiFeature2RequestObject+0xbf8>
0xf000 <_ZNK28ChiFeature2Statsregeneration23OnExecuteProcessRequestEP24ChiFeature2RequestObject+0xc04>
0xe000 <_ZNK28ChiFeature2Statsregeneration23OnExecuteProcessRequestEP24ChiFeature2RequestObject+0xc04>
<_ZN6ChiLog9LogSystemEPKcS1_S1_S1_iS1_z@plt>
<_ZNK28ChiFeature2Statsregeneration23OnExecuteProcessRequestEP24ChiFeature2RequestObject+0xd18>
0x35000 <_ZNK28ChiFeature2Statsregeneration23OnExecuteProcessRequestEP24ChiFeature2RequestObject+0xcc4>
<_ZNK28ChiFeature2Statsregeneration23OnExecuteProcessRequestEP24ChiFeature2RequestObject+0xcbc>
0xe000 <_ZNK28ChiFeature2Statsregeneration23OnExecuteProcessRequestEP24ChiFeature2RequestObject+0xc3c>
0xf000 <_ZNK28ChiFeature2Statsregeneration23OnExecuteProcessRequestEP24ChiFeature2RequestObject+0xc60>
0xe000 <_ZNK28ChiFeature2Statsregeneration23OnExecuteProcessRequestEP24ChiFeature2RequestObject+0xc60>
0xf000 <_ZNK28ChiFeature2Statsregeneration23OnExecuteProcessRequestEP24ChiFeature2RequestObject+0xc68>
0xe000 <_ZNK28ChiFeature2Statsregeneration23OnExecuteProcessRequestEP24ChiFeature2RequestObject+0xc84>
0xf000 <_ZNK28ChiFeature2Statsregeneration23OnExecuteProcessRequestEP24ChiFeature2RequestObject+0xcac>
0xd000 <_ZNK28ChiFeature2Statsregeneration23OnExecuteProcessRequestEP24ChiFeature2RequestObject+0xca8>
0xf000 <_ZNK28ChiFeature2Statsregeneration23OnExecuteProcessRequestEP24ChiFeature2RequestObject+0xcb4>
0xb000 <_ZNK28ChiFeature2Statsregeneration23OnExecuteProcessRequestEP24ChiFeature2RequestObject+0xca8>
<_ZN6ChiLog9LogSystemEPKcS1_S1_S1_iS1_z@plt>
<_ZNK28ChiFeature2Statsregeneration23OnExecuteProcessRequestEP24ChiFeature2RequestObject+0xd1c>
0x39000 <_ZNK28ChiFeature2Statsregeneration23OnExecuteProcessRequestEP24ChiFeature2RequestObject+0xd90>
<_ZNK24ChiFeature2RequestObject13GetBufferInfoE31ChiFeature2RequestObjectOpsTypePK21ChiFeature2IdentifierPPvPmhh@plt>
0x39000 <_ZNK28ChiFeature2Statsregeneration23OnExecuteProcessRequestEP24ChiFeature2RequestObject+0xdb4>
<_ZNK24ChiFeature2RequestObject13GetBufferInfoE31ChiFeature2RequestObjectOpsTypePK21ChiFeature2IdentifierPPvPmhh@plt>
<_ZNK28ChiFeature2Statsregeneration31OnPopulateConfigurationSettingsEP24ChiFeature2RequestObjectPK21ChiFeature2IdentifierP11ChiMetadata+0x570>
0x1cbf0 <_ZNK28ChiFeature2Statsregeneration23OnExecuteProcessRequestEP24ChiFeature2RequestObject+0xe58>
<_ZNK28ChiFeature2Statsregeneration23OnExecuteProcessRequestEP24ChiFeature2RequestObject+0x1178>
<_ZN18ChiMetadataManager21GetMetadataFromHandleEPv@plt>
0x35000 <_ZNK28ChiFeature2Statsregeneration23OnExecuteProcessRequestEP24ChiFeature2RequestObject+0xdf8>
#5, 0x1cbf0 <_ZNK28ChiFeature2Statsregeneration23OnExecuteProcessRequestEP24ChiFeature2RequestObject+0xe58>
0x35000 <_ZNK28ChiFeature2Statsregeneration23OnExecuteProcessRequestEP24ChiFeature2RequestObject+0xe08>
<_ZNK28ChiFeature2Statsregeneration23OnExecuteProcessRequestEP24ChiFeature2RequestObject+0xe08>
0xe000 <_ZNK28ChiFeature2Statsregeneration23OnExecuteProcessRequestEP24ChiFeature2RequestObject+0xd84>
0xf000 <_ZNK28ChiFeature2Statsregeneration23OnExecuteProcessRequestEP24ChiFeature2RequestObject+0xda8>
0xa000 <_ZNK28ChiFeature2Statsregeneration23OnExecuteProcessRequestEP24ChiFeature2RequestObject+0xd98>
0xf000 <_ZNK28ChiFeature2Statsregeneration23OnExecuteProcessRequestEP24ChiFeature2RequestObject+0xdb0>
0xe000 <_ZNK28ChiFeature2Statsregeneration23OnExecuteProcessRequestEP24ChiFeature2RequestObject+0xdd0>
0xf000 <_ZNK28ChiFeature2Statsregeneration23OnExecuteProcessRequestEP24ChiFeature2RequestObject+0xdf8>
0xd000 <_ZNK28ChiFeature2Statsregeneration23OnExecuteProcessRequestEP24ChiFeature2RequestObject+0xdf4>
0xf000 <_ZNK28ChiFeature2Statsregeneration23OnExecuteProcessRequestEP24ChiFeature2RequestObject+0xe00>
0xd000 <_ZNK28ChiFeature2Statsregeneration23OnExecuteProcessRequestEP24ChiFeature2RequestObject+0xdfc>
<_ZN6ChiLog9LogSystemEPKcS1_S1_S1_iS1_z@plt>
<_ZNK28ChiFeature2Statsregeneration23OnExecuteProcessRequestEP24ChiFeature2RequestObject+0x10b8>
<_ZNK15ChiFeature2Base19BypassInputToOutputEP24ChiFeature2RequestObject@plt>
0x1cd60 <_ZNK28ChiFeature2Statsregeneration23OnExecuteProcessRequestEP24ChiFeature2RequestObject+0xfc8>
<_ZNK28ChiFeature2Statsregeneration23OnExecuteProcessRequestEP24ChiFeature2RequestObject+0x1190>
<_ZNK28ChiFeature2Statsregeneration23OnExecuteProcessRequestEP24ChiFeature2RequestObject+0xfc4>
<_ZNK28ChiFeature2Statsregeneration23OnExecuteProcessRequestEP24ChiFeature2RequestObject+0x11c0>
<_ZN28ChiFeature2StatsregenerationD2Ev+0x8>
0x1cd60 <_ZNK28ChiFeature2Statsregeneration23OnExecuteProcessRequestEP24ChiFeature2RequestObject+0xfc8>
0x35000 <_ZNK28ChiFeature2Statsregeneration23OnExecuteProcessRequestEP24ChiFeature2RequestObject+0xf4c>
#3, 0x1cd34 <_ZNK28ChiFeature2Statsregeneration23OnExecuteProcessRequestEP24ChiFeature2RequestObject+0xf9c>
0x35000 <_ZNK28ChiFeature2Statsregeneration23OnExecuteProcessRequestEP24ChiFeature2RequestObject+0xf60>
<_ZNK28ChiFeature2Statsregeneration23OnExecuteProcessRequestEP24ChiFeature2RequestObject+0xf54>
0xe000 <_ZNK28ChiFeature2Statsregeneration23OnExecuteProcessRequestEP24ChiFeature2RequestObject+0xed8>
0xf000 <_ZNK28ChiFeature2Statsregeneration23OnExecuteProcessRequestEP24ChiFeature2RequestObject+0xef8>
0xf000 <_ZNK28ChiFeature2Statsregeneration23OnExecuteProcessRequestEP24ChiFeature2RequestObject+0xefc>
0xf000 <_ZNK28ChiFeature2Statsregeneration23OnExecuteProcessRequestEP24ChiFeature2RequestObject+0xf00>
0xe000 <_ZNK28ChiFeature2Statsregeneration23OnExecuteProcessRequestEP24ChiFeature2RequestObject+0xf1c>
0xd000 <_ZNK28ChiFeature2Statsregeneration23OnExecuteProcessRequestEP24ChiFeature2RequestObject+0xf34>
0xf000 <_ZNK28ChiFeature2Statsregeneration23OnExecuteProcessRequestEP24ChiFeature2RequestObject+0xf44>
0xf000 <_ZNK28ChiFeature2Statsregeneration23OnExecuteProcessRequestEP24ChiFeature2RequestObject+0xf48>
0xc000 <_ZNK28ChiFeature2Statsregeneration23OnExecuteProcessRequestEP24ChiFeature2RequestObject+0xf40>
<_ZN6ChiLog9LogSystemEPKcS1_S1_S1_iS1_z@plt>
<_ZNK28ChiFeature2Statsregeneration23OnExecuteProcessRequestEP24ChiFeature2RequestObject+0x6fc>
<_ZNK28ChiFeature2Statsregeneration23OnExecuteProcessRequestEP24ChiFeature2RequestObject+0x6fc>
<_ZNK28ChiFeature2Statsregeneration23OnExecuteProcessRequestEP24ChiFeature2RequestObject+0x1268>
<_ZNK28ChiFeature2Statsregeneration23OnExecuteProcessRequestEP24ChiFeature2RequestObject+0xd4>
<_ZNK28ChiFeature2Statsregeneration23OnExecuteProcessRequestEP24ChiFeature2RequestObject+0xf8>
<_ZNK28ChiFeature2Statsregeneration23OnExecuteProcessRequestEP24ChiFeature2RequestObject+0x6b8>
<_ZNK28ChiFeature2Statsregeneration23OnExecuteProcessRequestEP24ChiFeature2RequestObject+0x6d4>
<_ZNK28ChiFeature2Statsregeneration23OnExecuteProcessRequestEP24ChiFeature2RequestObject+0x140>
<_ZNK28ChiFeature2Statsregeneration23OnExecuteProcessRequestEP24ChiFeature2RequestObject+0x7e0>
<_ZNK28ChiFeature2Statsregeneration23OnExecuteProcessRequestEP24ChiFeature2RequestObject+0x9a4>
<_ZNK28ChiFeature2Statsregeneration23OnExecuteProcessRequestEP24ChiFeature2RequestObject+0x9bc>
<_ZNK28ChiFeature2Statsregeneration23OnExecuteProcessRequestEP24ChiFeature2RequestObject+0xe8c>
<_ZNK28ChiFeature2Statsregeneration23OnExecuteProcessRequestEP24ChiFeature2RequestObject+0x210>
<_ZNK28ChiFeature2Statsregeneration23OnExecuteProcessRequestEP24ChiFeature2RequestObject+0x254>
<_ZNK28ChiFeature2Statsregeneration23OnExecuteProcessRequestEP24ChiFeature2RequestObject+0x9d8>
<_ZNK28ChiFeature2Statsregeneration23OnExecuteProcessRequestEP24ChiFeature2RequestObject+0x9fc>
<_ZNK28ChiFeature2Statsregeneration23OnExecuteProcessRequestEP24ChiFeature2RequestObject+0x818>
<_ZNK28ChiFeature2Statsregeneration23OnExecuteProcessRequestEP24ChiFeature2RequestObject+0xad0>
<_ZNK28ChiFeature2Statsregeneration23OnExecuteProcessRequestEP24ChiFeature2RequestObject+0x430>
<_ZNK28ChiFeature2Statsregeneration23OnExecuteProcessRequestEP24ChiFeature2RequestObject+0xd88>
<_ZNK28ChiFeature2Statsregeneration23OnExecuteProcessRequestEP24ChiFeature2RequestObject+0xeb0>
<_ZNK28ChiFeature2Statsregeneration23OnExecuteProcessRequestEP24ChiFeature2RequestObject+0x234>
<_ZNK28ChiFeature2Statsregeneration23OnExecuteProcessRequestEP24ChiFeature2RequestObject+0xed8>
<_ZNK28ChiFeature2Statsregeneration23OnExecuteProcessRequestEP24ChiFeature2RequestObject+0x454>
<_ZNK28ChiFeature2Statsregeneration23OnExecuteProcessRequestEP24ChiFeature2RequestObject+0x47c>
<_ZNK28ChiFeature2Statsregeneration23OnExecuteProcessRequestEP24ChiFeature2RequestObject+0x4a0>
<_ZNK28ChiFeature2Statsregeneration23OnExecuteProcessRequestEP24ChiFeature2RequestObject+0x4c4>
<_ZNK28ChiFeature2Statsregeneration23OnExecuteProcessRequestEP24ChiFeature2RequestObject+0x4ec>
<_ZNK28ChiFeature2Statsregeneration23OnExecuteProcessRequestEP24ChiFeature2RequestObject+0x51c>

0x1d150 <_ZNK28ChiFeature2Statsregeneration21OnReleaseDependenciesEPK21ChiFeature2IdentifierhhP20ChiFeature2StageInfoP24ChiFeature2RequestObject+0x148>
0x35000 <_ZNK28ChiFeature2Statsregeneration21OnReleaseDependenciesEPK21ChiFeature2IdentifierhhP20ChiFeature2StageInfoP24ChiFeature2RequestObject+0x7c>
#3, 0x1d150 <_ZNK28ChiFeature2Statsregeneration21OnReleaseDependenciesEPK21ChiFeature2IdentifierhhP20ChiFeature2StageInfoP24ChiFeature2RequestObject+0x148>
0x35000 <_ZNK28ChiFeature2Statsregeneration21OnReleaseDependenciesEPK21ChiFeature2IdentifierhhP20ChiFeature2StageInfoP24ChiFeature2RequestObject+0x8c>
0xe000 <_ZNK28ChiFeature2Statsregeneration23OnExecuteProcessRequestEP24ChiFeature2RequestObject+0x1264>
<_ZNK28ChiFeature2Statsregeneration21OnReleaseDependenciesEPK21ChiFeature2IdentifierhhP20ChiFeature2StageInfoP24ChiFeature2RequestObject+0xd0>
0xf000 <_ZNK28ChiFeature2Statsregeneration21OnReleaseDependenciesEPK21ChiFeature2IdentifierhhP20ChiFeature2StageInfoP24ChiFeature2RequestObject+0x40>
0xa000 <_ZNK28ChiFeature2Statsregeneration21OnReleaseDependenciesEPK21ChiFeature2IdentifierhhP20ChiFeature2StageInfoP24ChiFeature2RequestObject+0x34>
0xb000 <_ZNK28ChiFeature2Statsregeneration21OnReleaseDependenciesEPK21ChiFeature2IdentifierhhP20ChiFeature2StageInfoP24ChiFeature2RequestObject+0x40>
0xd000 <_ZNK28ChiFeature2Statsregeneration21OnReleaseDependenciesEPK21ChiFeature2IdentifierhhP20ChiFeature2StageInfoP24ChiFeature2RequestObject+0xb4>
0xb000 <_ZNK28ChiFeature2Statsregeneration21OnReleaseDependenciesEPK21ChiFeature2IdentifierhhP20ChiFeature2StageInfoP24ChiFeature2RequestObject+0xb4>
0xd000 <_ZNK28ChiFeature2Statsregeneration21OnReleaseDependenciesEPK21ChiFeature2IdentifierhhP20ChiFeature2StageInfoP24ChiFeature2RequestObject+0xc4>
0xf000 <_ZNK28ChiFeature2Statsregeneration21OnReleaseDependenciesEPK21ChiFeature2IdentifierhhP20ChiFeature2StageInfoP24ChiFeature2RequestObject+0xd4>
<_ZN6ChiLog9LogSystemEPKcS1_S1_S1_iS1_z@plt>

0x1d370 <_ZNK28ChiFeature2Statsregeneration16DoCleanupRequestEP24ChiFeature2RequestObject+0x200>
0x35000 <_ZNK28ChiFeature2Statsregeneration16DoCleanupRequestEP24ChiFeature2RequestObject+0x98>
<_ZNK28ChiFeature2Statsregeneration16DoCleanupRequestEP24ChiFeature2RequestObject+0x438>
<_ZNK15ChiFeature2Base21GetFeaturePrivContextEP24ChiFeature2RequestObject@plt>
0x1d46c <_ZNK28ChiFeature2Statsregeneration16DoCleanupRequestEP24ChiFeature2RequestObject+0x2fc>
0x1d474 <_ZNK28ChiFeature2Statsregeneration16DoCleanupRequestEP24ChiFeature2RequestObject+0x304>
0x1d428 <_ZNK28ChiFeature2Statsregeneration16DoCleanupRequestEP24ChiFeature2RequestObject+0x2b8>
0x35000 <_ZNK28ChiFeature2Statsregeneration16DoCleanupRequestEP24ChiFeature2RequestObject+0x11c>
0xe000 <_ZNK28ChiFeature2Statsregeneration16DoCleanupRequestEP24ChiFeature2RequestObject+0x84>
0xb000 <_ZNK28ChiFeature2Statsregeneration16DoCleanupRequestEP24ChiFeature2RequestObject+0x7c>
#3, 0x1d354 <_ZNK28ChiFeature2Statsregeneration16DoCleanupRequestEP24ChiFeature2RequestObject+0x1e4>
0x35000 <_ZNK28ChiFeature2Statsregeneration16DoCleanupRequestEP24ChiFeature2RequestObject+0x178>
<_ZNK28ChiFeature2Statsregeneration16DoCleanupRequestEP24ChiFeature2RequestObject+0x184>
0xf000 <_ZNK28ChiFeature2Statsregeneration16DoCleanupRequestEP24ChiFeature2RequestObject+0x10c>
0xe000 <_ZNK28ChiFeature2Statsregeneration16DoCleanupRequestEP24ChiFeature2RequestObject+0x10c>
0xf000 <_ZNK28ChiFeature2Statsregeneration16DoCleanupRequestEP24ChiFeature2RequestObject+0x168>
0xd000 <_ZNK28ChiFeature2Statsregeneration16DoCleanupRequestEP24ChiFeature2RequestObject+0x164>
0xc000 <_ZNK28ChiFeature2Statsregeneration16DoCleanupRequestEP24ChiFeature2RequestObject+0x164>
<_ZN6ChiLog9LogSystemEPKcS1_S1_S1_iS1_z@plt>
<_ZNK28ChiFeature2Statsregeneration16DoCleanupRequestEP24ChiFeature2RequestObject+0x2b8>
<_ZNK28ChiFeature2Statsregeneration16DoCleanupRequestEP24ChiFeature2RequestObject+0xe8>
0x35000 <_ZNK28ChiFeature2Statsregeneration16DoCleanupRequestEP24ChiFeature2RequestObject+0x260>
#0, 0x1d420 <_ZNK28ChiFeature2Statsregeneration16DoCleanupRequestEP24ChiFeature2RequestObject+0x2b0>
0x35000 <_ZNK28ChiFeature2Statsregeneration16DoCleanupRequestEP24ChiFeature2RequestObject+0x270>
<_ZNK28ChiFeature2Statsregeneration16DoCleanupRequestEP24ChiFeature2RequestObject+0x268>
0xe000 <_ZNK28ChiFeature2Statsregeneration16DoCleanupRequestEP24ChiFeature2RequestObject+0x1e8>
0xf000 <_ZNK28ChiFeature2Statsregeneration16DoCleanupRequestEP24ChiFeature2RequestObject+0x208>
0xf000 <_ZNK28ChiFeature2Statsregeneration16DoCleanupRequestEP24ChiFeature2RequestObject+0x20c>
0xb000 <_ZNK28ChiFeature2Statsregeneration16DoCleanupRequestEP24ChiFeature2RequestObject+0x200>
0xe000 <_ZNK28ChiFeature2Statsregeneration16DoCleanupRequestEP24ChiFeature2RequestObject+0x22c>
0xf000 <_ZNK28ChiFeature2Statsregeneration16DoCleanupRequestEP24ChiFeature2RequestObject+0x24c>
0xb000 <_ZNK28ChiFeature2Statsregeneration16DoCleanupRequestEP24ChiFeature2RequestObject+0x244>
0xb000 <_ZNK28ChiFeature2Statsregeneration16DoCleanupRequestEP24ChiFeature2RequestObject+0x248>
0xd000 <_ZNK28ChiFeature2Statsregeneration16DoCleanupRequestEP24ChiFeature2RequestObject+0x254>
<_ZN6ChiLog9LogSystemEPKcS1_S1_S1_iS1_z@plt>
<_ZNK28ChiFeature2Statsregeneration16DoCleanupRequestEP24ChiFeature2RequestObject+0x404>
0x35000 <_ZNK28ChiFeature2Statsregeneration16DoCleanupRequestEP24ChiFeature2RequestObject+0x31c>
<_ZNK28ChiFeature2Statsregeneration16DoCleanupRequestEP24ChiFeature2RequestObject+0x468>
<_ZNK15ChiFeature2Base21ProcessFeatureMessageEP28ChiFeature2MessageDescriptor@plt>
0x1d538 <_ZNK28ChiFeature2Statsregeneration16DoCleanupRequestEP24ChiFeature2RequestObject+0x3c8>
<_ZNK28ChiFeature2Statsregeneration16DoCleanupRequestEP24ChiFeature2RequestObject+0x3cc>
<_ZNK28ChiFeature2Statsregeneration16DoCleanupRequestEP24ChiFeature2RequestObject+0x404>
0x35000 <_ZNK28ChiFeature2Statsregeneration16DoCleanupRequestEP24ChiFeature2RequestObject+0x364>
#3, 0x1d528 <_ZNK28ChiFeature2Statsregeneration16DoCleanupRequestEP24ChiFeature2RequestObject+0x3b8>
0x35000 <_ZNK28ChiFeature2Statsregeneration16DoCleanupRequestEP24ChiFeature2RequestObject+0x378>
<_ZNK28ChiFeature2Statsregeneration16DoCleanupRequestEP24ChiFeature2RequestObject+0x370>
0xe000 <_ZNK28ChiFeature2Statsregeneration16DoCleanupRequestEP24ChiFeature2RequestObject+0x2f0>
0xf000 <_ZNK28ChiFeature2Statsregeneration16DoCleanupRequestEP24ChiFeature2RequestObject+0x310>
0xa000 <_ZNK28ChiFeature2Statsregeneration16DoCleanupRequestEP24ChiFeature2RequestObject+0x300>
0xb000 <_ZNK28ChiFeature2Statsregeneration16DoCleanupRequestEP24ChiFeature2RequestObject+0x308>
0xe000 <_ZNK28ChiFeature2Statsregeneration16DoCleanupRequestEP24ChiFeature2RequestObject+0x334>
0xd000 <_ZNK28ChiFeature2Statsregeneration16DoCleanupRequestEP24ChiFeature2RequestObject+0x34c>
0xf000 <_ZNK28ChiFeature2Statsregeneration16DoCleanupRequestEP24ChiFeature2RequestObject+0x35c>
0xb000 <_ZNK28ChiFeature2Statsregeneration16DoCleanupRequestEP24ChiFeature2RequestObject+0x350>
0xd000 <_ZNK28ChiFeature2Statsregeneration16DoCleanupRequestEP24ChiFeature2RequestObject+0x35c>
<_ZN6ChiLog9LogSystemEPKcS1_S1_S1_iS1_z@plt>
0x1d548 <_ZNK28ChiFeature2Statsregeneration16DoCleanupRequestEP24ChiFeature2RequestObject+0x3d8>
<_ZNK28ChiFeature2Statsregeneration16DoCleanupRequestEP24ChiFeature2RequestObject+0x3dc>
0x1d54c <_ZNK28ChiFeature2Statsregeneration16DoCleanupRequestEP24ChiFeature2RequestObject+0x3dc>
<_ZNK28ChiFeature2Statsregeneration16DoCleanupRequestEP24ChiFeature2RequestObject+0x450>
<_ZNK15ChiFeature2Base21SetFeaturePrivContextEP24ChiFeature2RequestObjectPv@plt>
<_ZNK28ChiFeature2Statsregeneration16DoCleanupRequestEP24ChiFeature2RequestObject+0x480>
<_ZNK28ChiFeature2Statsregeneration16DoCleanupRequestEP24ChiFeature2RequestObject+0x50>
<_ZNK28ChiFeature2Statsregeneration16DoCleanupRequestEP24ChiFeature2RequestObject+0x3f4>
<_ZNK28ChiFeature2Statsregeneration16DoCleanupRequestEP24ChiFeature2RequestObject+0x2d8>



<_ZN15ChiFeature2BaseD2Ev@plt>

0x1d73c <_ZNK28ChiFeature2Statsregeneration22OnFinalizePipelineDataERKNSt3__16vectorI31ChiFeatureFinalizedBufferOptionNS0_9allocatorIS2_EEEERKN15ChiFeature2Base22ChiFeaturePipelineDataE+0x10c>
<_ZNK28ChiFeature2Statsregeneration22OnFinalizePipelineDataERKNSt3__16vectorI31ChiFeatureFinalizedBufferOptionNS0_9allocatorIS2_EEEERKN15ChiFeature2Base22ChiFeaturePipelineDataE+0x124>
<_ZNK28ChiFeature2Statsregeneration22OnFinalizePipelineDataERKNSt3__16vectorI31ChiFeatureFinalizedBufferOptionNS0_9allocatorIS2_EEEERKN15ChiFeature2Base22ChiFeaturePipelineDataE+0x40>
<_ZNK28ChiFeature2Statsregeneration22OnFinalizePipelineDataERKNSt3__16vectorI31ChiFeatureFinalizedBufferOptionNS0_9allocatorIS2_EEEERKN15ChiFeature2Base22ChiFeaturePipelineDataE+0x144>
<_ZNK28ChiFeature2Statsregeneration22OnFinalizePipelineDataERKNSt3__16vectorI31ChiFeatureFinalizedBufferOptionNS0_9allocatorIS2_EEEERKN15ChiFeature2Base22ChiFeaturePipelineDataE+0x124>
<_ZNK28ChiFeature2Statsregeneration22OnFinalizePipelineDataERKNSt3__16vectorI31ChiFeatureFinalizedBufferOptionNS0_9allocatorIS2_EEEERKN15ChiFeature2Base22ChiFeaturePipelineDataE+0x34>
0x1d7dc <_ZNK28ChiFeature2Statsregeneration22OnFinalizePipelineDataERKNSt3__16vectorI31ChiFeatureFinalizedBufferOptionNS0_9allocatorIS2_EEEERKN15ChiFeature2Base22ChiFeaturePipelineDataE+0x1ac>
0x35000 <_ZNK28ChiFeature2Statsregeneration22OnFinalizePipelineDataERKNSt3__16vectorI31ChiFeatureFinalizedBufferOptionNS0_9allocatorIS2_EEEERKN15ChiFeature2Base22ChiFeaturePipelineDataE+0xb4>
#0, 0x1d734 <_ZNK28ChiFeature2Statsregeneration22OnFinalizePipelineDataERKNSt3__16vectorI31ChiFeatureFinalizedBufferOptionNS0_9allocatorIS2_EEEERKN15ChiFeature2Base22ChiFeaturePipelineDataE+0x104>
0x35000 <_ZNK28ChiFeature2Statsregeneration22OnFinalizePipelineDataERKNSt3__16vectorI31ChiFeatureFinalizedBufferOptionNS0_9allocatorIS2_EEEERKN15ChiFeature2Base22ChiFeaturePipelineDataE+0xc4>
0xe000 <_ZNK28ChiFeature2Statsregeneration22OnFinalizePipelineDataERKNSt3__16vectorI31ChiFeatureFinalizedBufferOptionNS0_9allocatorIS2_EEEERKN15ChiFeature2Base22ChiFeaturePipelineDataE+0x2c>
<_ZNK28ChiFeature2Statsregeneration22OnFinalizePipelineDataERKNSt3__16vectorI31ChiFeatureFinalizedBufferOptionNS0_9allocatorIS2_EEEERKN15ChiFeature2Base22ChiFeaturePipelineDataE+0xc0>
0xf000 <_ZNK28ChiFeature2Statsregeneration22OnFinalizePipelineDataERKNSt3__16vectorI31ChiFeatureFinalizedBufferOptionNS0_9allocatorIS2_EEEERKN15ChiFeature2Base22ChiFeaturePipelineDataE+0x60>
0xe000 <_ZNK28ChiFeature2Statsregeneration22OnFinalizePipelineDataERKNSt3__16vectorI31ChiFeatureFinalizedBufferOptionNS0_9allocatorIS2_EEEERKN15ChiFeature2Base22ChiFeaturePipelineDataE+0x60>
0xe000 <_ZNK28ChiFeature2Statsregeneration22OnFinalizePipelineDataERKNSt3__16vectorI31ChiFeatureFinalizedBufferOptionNS0_9allocatorIS2_EEEERKN15ChiFeature2Base22ChiFeaturePipelineDataE+0x64>
0xb000 <_ZNK28ChiFeature2Statsregeneration22OnFinalizePipelineDataERKNSt3__16vectorI31ChiFeatureFinalizedBufferOptionNS0_9allocatorIS2_EEEERKN15ChiFeature2Base22ChiFeaturePipelineDataE+0x94>
0xf000 <_ZNK28ChiFeature2Statsregeneration22OnFinalizePipelineDataERKNSt3__16vectorI31ChiFeatureFinalizedBufferOptionNS0_9allocatorIS2_EEEERKN15ChiFeature2Base22ChiFeaturePipelineDataE+0xa8>
0xe000 <_ZNK28ChiFeature2Statsregeneration22OnFinalizePipelineDataERKNSt3__16vectorI31ChiFeatureFinalizedBufferOptionNS0_9allocatorIS2_EEEERKN15ChiFeature2Base22ChiFeaturePipelineDataE+0xa8>
0xc000 <_ZNK28ChiFeature2Statsregeneration22OnFinalizePipelineDataERKNSt3__16vectorI31ChiFeatureFinalizedBufferOptionNS0_9allocatorIS2_EEEERKN15ChiFeature2Base22ChiFeaturePipelineDataE+0xa4>
<_ZN6ChiLog9LogSystemEPKcS1_S1_S1_iS1_z@plt>
<_ZNK28ChiFeature2Statsregeneration22OnFinalizePipelineDataERKNSt3__16vectorI31ChiFeatureFinalizedBufferOptionNS0_9allocatorIS2_EEEERKN15ChiFeature2Base22ChiFeaturePipelineDataE+0x128>
0x35000 <_ZNK28ChiFeature2Statsregeneration22OnFinalizePipelineDataERKNSt3__16vectorI31ChiFeatureFinalizedBufferOptionNS0_9allocatorIS2_EEEERKN15ChiFeature2Base22ChiFeaturePipelineDataE+0x170>
<_ZNK28ChiFeature2Statsregeneration22OnFinalizePipelineDataERKNSt3__16vectorI31ChiFeatureFinalizedBufferOptionNS0_9allocatorIS2_EEEERKN15ChiFeature2Base22ChiFeaturePipelineDataE+0x260>
<_ZNK28ChiFeature2Statsregeneration22OnFinalizePipelineDataERKNSt3__16vectorI31ChiFeatureFinalizedBufferOptionNS0_9allocatorIS2_EEEERKN15ChiFeature2Base22ChiFeaturePipelineDataE+0x128>
<_ZNK28ChiFeature2Statsregeneration22OnFinalizePipelineDataERKNSt3__16vectorI31ChiFeatureFinalizedBufferOptionNS0_9allocatorIS2_EEEERKN15ChiFeature2Base22ChiFeaturePipelineDataE+0x134>
0x1d7dc <_ZNK28ChiFeature2Statsregeneration22OnFinalizePipelineDataERKNSt3__16vectorI31ChiFeatureFinalizedBufferOptionNS0_9allocatorIS2_EEEERKN15ChiFeature2Base22ChiFeaturePipelineDataE+0x1ac>
<_ZNK28ChiFeature2Statsregeneration22OnFinalizePipelineDataERKNSt3__16vectorI31ChiFeatureFinalizedBufferOptionNS0_9allocatorIS2_EEEERKN15ChiFeature2Base22ChiFeaturePipelineDataE+0x174>
<_ZNK28ChiFeature2Statsregeneration22OnFinalizePipelineDataERKNSt3__16vectorI31ChiFeatureFinalizedBufferOptionNS0_9allocatorIS2_EEEERKN15ChiFeature2Base22ChiFeaturePipelineDataE+0x54>
<_ZNK28ChiFeature2Statsregeneration22OnFinalizePipelineDataERKNSt3__16vectorI31ChiFeatureFinalizedBufferOptionNS0_9allocatorIS2_EEEERKN15ChiFeature2Base22ChiFeaturePipelineDataE+0x164>
0x1d794 <_ZNK28ChiFeature2Statsregeneration22OnFinalizePipelineDataERKNSt3__16vectorI31ChiFeatureFinalizedBufferOptionNS0_9allocatorIS2_EEEERKN15ChiFeature2Base22ChiFeaturePipelineDataE+0x164>
<_ZNK28ChiFeature2Statsregeneration22OnFinalizePipelineDataERKNSt3__16vectorI31ChiFeatureFinalizedBufferOptionNS0_9allocatorIS2_EEEERKN15ChiFeature2Base22ChiFeaturePipelineDataE+0x164>
<_ZNK28ChiFeature2Statsregeneration22OnFinalizePipelineDataERKNSt3__16vectorI31ChiFeatureFinalizedBufferOptionNS0_9allocatorIS2_EEEERKN15ChiFeature2Base22ChiFeaturePipelineDataE+0x54>
<_ZNK28ChiFeature2Statsregeneration22OnFinalizePipelineDataERKNSt3__16vectorI31ChiFeatureFinalizedBufferOptionNS0_9allocatorIS2_EEEERKN15ChiFeature2Base22ChiFeaturePipelineDataE+0x134>
0x35000 <_ZNK28ChiFeature2Statsregeneration22OnFinalizePipelineDataERKNSt3__16vectorI31ChiFeatureFinalizedBufferOptionNS0_9allocatorIS2_EEEERKN15ChiFeature2Base22ChiFeaturePipelineDataE+0x20c>
#0, 0x1d734 <_ZNK28ChiFeature2Statsregeneration22OnFinalizePipelineDataERKNSt3__16vectorI31ChiFeatureFinalizedBufferOptionNS0_9allocatorIS2_EEEERKN15ChiFeature2Base22ChiFeaturePipelineDataE+0x104>
0x35000 <_ZNK28ChiFeature2Statsregeneration22OnFinalizePipelineDataERKNSt3__16vectorI31ChiFeatureFinalizedBufferOptionNS0_9allocatorIS2_EEEERKN15ChiFeature2Base22ChiFeaturePipelineDataE+0x21c>
<_ZNK28ChiFeature2Statsregeneration22OnFinalizePipelineDataERKNSt3__16vectorI31ChiFeatureFinalizedBufferOptionNS0_9allocatorIS2_EEEERKN15ChiFeature2Base22ChiFeaturePipelineDataE+0x214>
0xe000 <_ZNK28ChiFeature2Statsregeneration22OnFinalizePipelineDataERKNSt3__16vectorI31ChiFeatureFinalizedBufferOptionNS0_9allocatorIS2_EEEERKN15ChiFeature2Base22ChiFeaturePipelineDataE+0x194>
0xf000 <_ZNK28ChiFeature2Statsregeneration22OnFinalizePipelineDataERKNSt3__16vectorI31ChiFeatureFinalizedBufferOptionNS0_9allocatorIS2_EEEERKN15ChiFeature2Base22ChiFeaturePipelineDataE+0x1b4>
0xc000 <_ZNK28ChiFeature2Statsregeneration22OnFinalizePipelineDataERKNSt3__16vectorI31ChiFeatureFinalizedBufferOptionNS0_9allocatorIS2_EEEERKN15ChiFeature2Base22ChiFeaturePipelineDataE+0x1ac>
0xe000 <_ZNK28ChiFeature2Statsregeneration22OnFinalizePipelineDataERKNSt3__16vectorI31ChiFeatureFinalizedBufferOptionNS0_9allocatorIS2_EEEERKN15ChiFeature2Base22ChiFeaturePipelineDataE+0x1b8>
0xe000 <_ZNK28ChiFeature2Statsregeneration22OnFinalizePipelineDataERKNSt3__16vectorI31ChiFeatureFinalizedBufferOptionNS0_9allocatorIS2_EEEERKN15ChiFeature2Base22ChiFeaturePipelineDataE+0x1d8>
0xf000 <_ZNK28ChiFeature2Statsregeneration22OnFinalizePipelineDataERKNSt3__16vectorI31ChiFeatureFinalizedBufferOptionNS0_9allocatorIS2_EEEERKN15ChiFeature2Base22ChiFeaturePipelineDataE+0x1f8>
0xb000 <_ZNK28ChiFeature2Statsregeneration22OnFinalizePipelineDataERKNSt3__16vectorI31ChiFeatureFinalizedBufferOptionNS0_9allocatorIS2_EEEERKN15ChiFeature2Base22ChiFeaturePipelineDataE+0x1f0>
0xe000 <_ZNK28ChiFeature2Statsregeneration22OnFinalizePipelineDataERKNSt3__16vectorI31ChiFeatureFinalizedBufferOptionNS0_9allocatorIS2_EEEERKN15ChiFeature2Base22ChiFeaturePipelineDataE+0x200>
0xf000 <_ZNK28ChiFeature2Statsregeneration22OnFinalizePipelineDataERKNSt3__16vectorI31ChiFeatureFinalizedBufferOptionNS0_9allocatorIS2_EEEERKN15ChiFeature2Base22ChiFeaturePipelineDataE+0x208>
<_ZN6ChiLog9LogSystemEPKcS1_S1_S1_iS1_z@plt>
<_ZNK28ChiFeature2Statsregeneration22OnFinalizePipelineDataERKNSt3__16vectorI31ChiFeatureFinalizedBufferOptionNS0_9allocatorIS2_EEEERKN15ChiFeature2Base22ChiFeaturePipelineDataE+0x104>
<_ZNK28ChiFeature2Statsregeneration22OnFinalizePipelineDataERKNSt3__16vectorI31ChiFeatureFinalizedBufferOptionNS0_9allocatorIS2_EEEERKN15ChiFeature2Base22ChiFeaturePipelineDataE+0x128>

0x35000 <_ZN28ChiFeature2Statsregeneration18OnInitializeStreamEPK23ChiTargetPortDescriptorPK25ChiFeature2PortDescriptorPN15ChiFeature2Base20ChiFeatureStreamDataE+0x88>
<_ZN28ChiFeature2Statsregeneration18OnInitializeStreamEPK23ChiTargetPortDescriptorPK25ChiFeature2PortDescriptorPN15ChiFeature2Base20ChiFeatureStreamDataE+0x504>
<_ZN28ChiFeature2Statsregeneration18OnInitializeStreamEPK23ChiTargetPortDescriptorPK25ChiFeature2PortDescriptorPN15ChiFeature2Base20ChiFeatureStreamDataE+0x530>
0x1d948 <_ZN28ChiFeature2Statsregeneration18OnInitializeStreamEPK23ChiTargetPortDescriptorPK25ChiFeature2PortDescriptorPN15ChiFeature2Base20ChiFeatureStreamDataE+0x98>
<_ZN28ChiFeature2Statsregeneration18OnInitializeStreamEPK23ChiTargetPortDescriptorPK25ChiFeature2PortDescriptorPN15ChiFeature2Base20ChiFeatureStreamDataE+0x98>
0x1d948 <_ZN28ChiFeature2Statsregeneration18OnInitializeStreamEPK23ChiTargetPortDescriptorPK25ChiFeature2PortDescriptorPN15ChiFeature2Base20ChiFeatureStreamDataE+0x98>
<_ZN28ChiFeature2Statsregeneration18OnInitializeStreamEPK23ChiTargetPortDescriptorPK25ChiFeature2PortDescriptorPN15ChiFeature2Base20ChiFeatureStreamDataE+0x98>
0x1d948 <_ZN28ChiFeature2Statsregeneration18OnInitializeStreamEPK23ChiTargetPortDescriptorPK25ChiFeature2PortDescriptorPN15ChiFeature2Base20ChiFeatureStreamDataE+0x98>
0x1dd8c <_ZN28ChiFeature2Statsregeneration18OnInitializeStreamEPK23ChiTargetPortDescriptorPK25ChiFeature2PortDescriptorPN15ChiFeature2Base20ChiFeatureStreamDataE+0x4dc>
0x1d978 <_ZN28ChiFeature2Statsregeneration18OnInitializeStreamEPK23ChiTargetPortDescriptorPK25ChiFeature2PortDescriptorPN15ChiFeature2Base20ChiFeatureStreamDataE+0xc8>
<_ZN28ChiFeature2Statsregeneration18OnInitializeStreamEPK23ChiTargetPortDescriptorPK25ChiFeature2PortDescriptorPN15ChiFeature2Base20ChiFeatureStreamDataE+0x558>
0x1d954 <_ZN28ChiFeature2Statsregeneration18OnInitializeStreamEPK23ChiTargetPortDescriptorPK25ChiFeature2PortDescriptorPN15ChiFeature2Base20ChiFeatureStreamDataE+0xa4>
<_ZN28ChiFeature2Statsregeneration18OnInitializeStreamEPK23ChiTargetPortDescriptorPK25ChiFeature2PortDescriptorPN15ChiFeature2Base20ChiFeatureStreamDataE+0x170>
0xe000 <_ZN28ChiFeature2Statsregeneration18OnInitializeStreamEPK23ChiTargetPortDescriptorPK25ChiFeature2PortDescriptorPN15ChiFeature2Base20ChiFeatureStreamDataE+0xb8>
0xf000 <_ZN28ChiFeature2Statsregeneration18OnInitializeStreamEPK23ChiTargetPortDescriptorPK25ChiFeature2PortDescriptorPN15ChiFeature2Base20ChiFeatureStreamDataE+0xd8>
0xb000 <_ZN28ChiFeature2Statsregeneration18OnInitializeStreamEPK23ChiTargetPortDescriptorPK25ChiFeature2PortDescriptorPN15ChiFeature2Base20ChiFeatureStreamDataE+0xd0>
0xd000 <_ZN28ChiFeature2Statsregeneration18OnInitializeStreamEPK23ChiTargetPortDescriptorPK25ChiFeature2PortDescriptorPN15ChiFeature2Base20ChiFeatureStreamDataE+0xdc>
0xc000 <_ZN28ChiFeature2Statsregeneration18OnInitializeStreamEPK23ChiTargetPortDescriptorPK25ChiFeature2PortDescriptorPN15ChiFeature2Base20ChiFeatureStreamDataE+0xdc>
<_ZN6ChiLog9LogSystemEPKcS1_S1_S1_iS1_z@plt>
0x35000 <_ZN28ChiFeature2Statsregeneration18OnInitializeStreamEPK23ChiTargetPortDescriptorPK25ChiFeature2PortDescriptorPN15ChiFeature2Base20ChiFeatureStreamDataE+0x1b0>
<_ZN28ChiFeature2Statsregeneration18OnInitializeStreamEPK23ChiTargetPortDescriptorPK25ChiFeature2PortDescriptorPN15ChiFeature2Base20ChiFeatureStreamDataE+0xa4>
0x1da4c <_ZN28ChiFeature2Statsregeneration18OnInitializeStreamEPK23ChiTargetPortDescriptorPK25ChiFeature2PortDescriptorPN15ChiFeature2Base20ChiFeatureStreamDataE+0x19c>
<_ZN28ChiFeature2Statsregeneration18OnInitializeStreamEPK23ChiTargetPortDescriptorPK25ChiFeature2PortDescriptorPN15ChiFeature2Base20ChiFeatureStreamDataE+0x15c>
<_ZN28ChiFeature2Statsregeneration18OnInitializeStreamEPK23ChiTargetPortDescriptorPK25ChiFeature2PortDescriptorPN15ChiFeature2Base20ChiFeatureStreamDataE+0x15c>
<_ZN28ChiFeature2Statsregeneration18OnInitializeStreamEPK23ChiTargetPortDescriptorPK25ChiFeature2PortDescriptorPN15ChiFeature2Base20ChiFeatureStreamDataE+0x1ac>
<_ZN28ChiFeature2Statsregeneration18OnInitializeStreamEPK23ChiTargetPortDescriptorPK25ChiFeature2PortDescriptorPN15ChiFeature2Base20ChiFeatureStreamDataE+0x15c>
<_ZN28ChiFeature2Statsregeneration18OnInitializeStreamEPK23ChiTargetPortDescriptorPK25ChiFeature2PortDescriptorPN15ChiFeature2Base20ChiFeatureStreamDataE+0x464>
<_ZN28ChiFeature2Statsregeneration18OnInitializeStreamEPK23ChiTargetPortDescriptorPK25ChiFeature2PortDescriptorPN15ChiFeature2Base20ChiFeatureStreamDataE+0x48c>
<_ZN28ChiFeature2Statsregeneration18OnInitializeStreamEPK23ChiTargetPortDescriptorPK25ChiFeature2PortDescriptorPN15ChiFeature2Base20ChiFeatureStreamDataE+0x4b8>
<_ZN28ChiFeature2Statsregeneration18OnInitializeStreamEPK23ChiTargetPortDescriptorPK25ChiFeature2PortDescriptorPN15ChiFeature2Base20ChiFeatureStreamDataE+0x3c0>
0x1dc70 <_ZN28ChiFeature2Statsregeneration18OnInitializeStreamEPK23ChiTargetPortDescriptorPK25ChiFeature2PortDescriptorPN15ChiFeature2Base20ChiFeatureStreamDataE+0x3c0>
<_ZN28ChiFeature2Statsregeneration18OnInitializeStreamEPK23ChiTargetPortDescriptorPK25ChiFeature2PortDescriptorPN15ChiFeature2Base20ChiFeatureStreamDataE+0x3c0>
0x1dc70 <_ZN28ChiFeature2Statsregeneration18OnInitializeStreamEPK23ChiTargetPortDescriptorPK25ChiFeature2PortDescriptorPN15ChiFeature2Base20ChiFeatureStreamDataE+0x3c0>
<_ZN28ChiFeature2Statsregeneration18OnInitializeStreamEPK23ChiTargetPortDescriptorPK25ChiFeature2PortDescriptorPN15ChiFeature2Base20ChiFeatureStreamDataE+0x248>
<_ZN28ChiFeature2Statsregeneration18OnInitializeStreamEPK23ChiTargetPortDescriptorPK25ChiFeature2PortDescriptorPN15ChiFeature2Base20ChiFeatureStreamDataE+0x274>
<_ZN28ChiFeature2Statsregeneration18OnInitializeStreamEPK23ChiTargetPortDescriptorPK25ChiFeature2PortDescriptorPN15ChiFeature2Base20ChiFeatureStreamDataE+0x3c0>
<_ZN28ChiFeature2Statsregeneration18OnInitializeStreamEPK23ChiTargetPortDescriptorPK25ChiFeature2PortDescriptorPN15ChiFeature2Base20ChiFeatureStreamDataE+0x3c0>
0x1dc70 <_ZN28ChiFeature2Statsregeneration18OnInitializeStreamEPK23ChiTargetPortDescriptorPK25ChiFeature2PortDescriptorPN15ChiFeature2Base20ChiFeatureStreamDataE+0x3c0>
<_ZN28ChiFeature2Statsregeneration18OnInitializeStreamEPK23ChiTargetPortDescriptorPK25ChiFeature2PortDescriptorPN15ChiFeature2Base20ChiFeatureStreamDataE+0x440>
0x1da0c <_ZN28ChiFeature2Statsregeneration18OnInitializeStreamEPK23ChiTargetPortDescriptorPK25ChiFeature2PortDescriptorPN15ChiFeature2Base20ChiFeatureStreamDataE+0x15c>
<_ZN28ChiFeature2Statsregeneration18OnInitializeStreamEPK23ChiTargetPortDescriptorPK25ChiFeature2PortDescriptorPN15ChiFeature2Base20ChiFeatureStreamDataE+0x15c>
<_ZN28ChiFeature2Statsregeneration18OnInitializeStreamEPK23ChiTargetPortDescriptorPK25ChiFeature2PortDescriptorPN15ChiFeature2Base20ChiFeatureStreamDataE+0x15c>
0x35000 <_ZN28ChiFeature2Statsregeneration18OnInitializeStreamEPK23ChiTargetPortDescriptorPK25ChiFeature2PortDescriptorPN15ChiFeature2Base20ChiFeatureStreamDataE+0x324>
#3, 0x1da0c <_ZN28ChiFeature2Statsregeneration18OnInitializeStreamEPK23ChiTargetPortDescriptorPK25ChiFeature2PortDescriptorPN15ChiFeature2Base20ChiFeatureStreamDataE+0x15c>
0x35000 <_ZN28ChiFeature2Statsregeneration18OnInitializeStreamEPK23ChiTargetPortDescriptorPK25ChiFeature2PortDescriptorPN15ChiFeature2Base20ChiFeatureStreamDataE+0x354>
<_ZN28ChiFeature2Statsregeneration18OnInitializeStreamEPK23ChiTargetPortDescriptorPK25ChiFeature2PortDescriptorPN15ChiFeature2Base20ChiFeatureStreamDataE+0x364>
0xe000 <_ZN28ChiFeature2Statsregeneration18OnInitializeStreamEPK23ChiTargetPortDescriptorPK25ChiFeature2PortDescriptorPN15ChiFeature2Base20ChiFeatureStreamDataE+0x2d0>
0xf000 <_ZN28ChiFeature2Statsregeneration18OnInitializeStreamEPK23ChiTargetPortDescriptorPK25ChiFeature2PortDescriptorPN15ChiFeature2Base20ChiFeatureStreamDataE+0x2f8>
0xa000 <_ZN28ChiFeature2Statsregeneration18OnInitializeStreamEPK23ChiTargetPortDescriptorPK25ChiFeature2PortDescriptorPN15ChiFeature2Base20ChiFeatureStreamDataE+0x2e8>
0xd000 <_ZN28ChiFeature2Statsregeneration18OnInitializeStreamEPK23ChiTargetPortDescriptorPK25ChiFeature2PortDescriptorPN15ChiFeature2Base20ChiFeatureStreamDataE+0x2f8>
0xe000 <_ZN28ChiFeature2Statsregeneration18OnInitializeStreamEPK23ChiTargetPortDescriptorPK25ChiFeature2PortDescriptorPN15ChiFeature2Base20ChiFeatureStreamDataE+0x328>
0xf000 <_ZN28ChiFeature2Statsregeneration18OnInitializeStreamEPK23ChiTargetPortDescriptorPK25ChiFeature2PortDescriptorPN15ChiFeature2Base20ChiFeatureStreamDataE+0x354>
0xd000 <_ZN28ChiFeature2Statsregeneration18OnInitializeStreamEPK23ChiTargetPortDescriptorPK25ChiFeature2PortDescriptorPN15ChiFeature2Base20ChiFeatureStreamDataE+0x350>
0xd000 <_ZN28ChiFeature2Statsregeneration18OnInitializeStreamEPK23ChiTargetPortDescriptorPK25ChiFeature2PortDescriptorPN15ChiFeature2Base20ChiFeatureStreamDataE+0x354>
0xb000 <_ZN28ChiFeature2Statsregeneration18OnInitializeStreamEPK23ChiTargetPortDescriptorPK25ChiFeature2PortDescriptorPN15ChiFeature2Base20ChiFeatureStreamDataE+0x350>
<_ZN28ChiFeature2Statsregeneration18OnInitializeStreamEPK23ChiTargetPortDescriptorPK25ChiFeature2PortDescriptorPN15ChiFeature2Base20ChiFeatureStreamDataE+0x14c>
0x35000 <_ZN28ChiFeature2Statsregeneration18OnInitializeStreamEPK23ChiTargetPortDescriptorPK25ChiFeature2PortDescriptorPN15ChiFeature2Base20ChiFeatureStreamDataE+0x420>
#0, 0x1da0c <_ZN28ChiFeature2Statsregeneration18OnInitializeStreamEPK23ChiTargetPortDescriptorPK25ChiFeature2PortDescriptorPN15ChiFeature2Base20ChiFeatureStreamDataE+0x15c>
0x35000 <_ZN28ChiFeature2Statsregeneration18OnInitializeStreamEPK23ChiTargetPortDescriptorPK25ChiFeature2PortDescriptorPN15ChiFeature2Base20ChiFeatureStreamDataE+0x430>
<_ZN28ChiFeature2Statsregeneration18OnInitializeStreamEPK23ChiTargetPortDescriptorPK25ChiFeature2PortDescriptorPN15ChiFeature2Base20ChiFeatureStreamDataE+0xf4>
0xe000 <_ZN28ChiFeature2Statsregeneration18OnInitializeStreamEPK23ChiTargetPortDescriptorPK25ChiFeature2PortDescriptorPN15ChiFeature2Base20ChiFeatureStreamDataE+0x3a8>
0xf000 <_ZN28ChiFeature2Statsregeneration18OnInitializeStreamEPK23ChiTargetPortDescriptorPK25ChiFeature2PortDescriptorPN15ChiFeature2Base20ChiFeatureStreamDataE+0x3c8>
0xc000 <_ZN28ChiFeature2Statsregeneration18OnInitializeStreamEPK23ChiTargetPortDescriptorPK25ChiFeature2PortDescriptorPN15ChiFeature2Base20ChiFeatureStreamDataE+0x3c0>
0xd000 <_ZN28ChiFeature2Statsregeneration18OnInitializeStreamEPK23ChiTargetPortDescriptorPK25ChiFeature2PortDescriptorPN15ChiFeature2Base20ChiFeatureStreamDataE+0x3c8>
<_ZN28ChiFeature2Statsregeneration18OnInitializeStreamEPK23ChiTargetPortDescriptorPK25ChiFeature2PortDescriptorPN15ChiFeature2Base20ChiFeatureStreamDataE+0xf4>
<_ZN28ChiFeature2Statsregeneration18OnInitializeStreamEPK23ChiTargetPortDescriptorPK25ChiFeature2PortDescriptorPN15ChiFeature2Base20ChiFeatureStreamDataE+0x2c0>
<_ZN28ChiFeature2Statsregeneration18OnInitializeStreamEPK23ChiTargetPortDescriptorPK25ChiFeature2PortDescriptorPN15ChiFeature2Base20ChiFeatureStreamDataE+0x15c>
<_ZN28ChiFeature2Statsregeneration18OnInitializeStreamEPK23ChiTargetPortDescriptorPK25ChiFeature2PortDescriptorPN15ChiFeature2Base20ChiFeatureStreamDataE+0x2c0>
0x35000 <_ZN28ChiFeature2Statsregeneration18OnInitializeStreamEPK23ChiTargetPortDescriptorPK25ChiFeature2PortDescriptorPN15ChiFeature2Base20ChiFeatureStreamDataE+0x4dc>
<_ZN28ChiFeature2Statsregeneration18OnInitializeStreamEPK23ChiTargetPortDescriptorPK25ChiFeature2PortDescriptorPN15ChiFeature2Base20ChiFeatureStreamDataE+0x1c8>
0x35000 <_ZN28ChiFeature2Statsregeneration18OnInitializeStreamEPK23ChiTargetPortDescriptorPK25ChiFeature2PortDescriptorPN15ChiFeature2Base20ChiFeatureStreamDataE+0x504>
<_ZN28ChiFeature2Statsregeneration18OnInitializeStreamEPK23ChiTargetPortDescriptorPK25ChiFeature2PortDescriptorPN15ChiFeature2Base20ChiFeatureStreamDataE+0x1dc>
0x35000 <_ZN28ChiFeature2Statsregeneration18OnInitializeStreamEPK23ChiTargetPortDescriptorPK25ChiFeature2PortDescriptorPN15ChiFeature2Base20ChiFeatureStreamDataE+0x530>
<_ZN28ChiFeature2Statsregeneration18OnInitializeStreamEPK23ChiTargetPortDescriptorPK25ChiFeature2PortDescriptorPN15ChiFeature2Base20ChiFeatureStreamDataE+0x1dc>
<_ZN28ChiFeature2Statsregeneration18OnInitializeStreamEPK23ChiTargetPortDescriptorPK25ChiFeature2PortDescriptorPN15ChiFeature2Base20ChiFeatureStreamDataE+0x57c>
<_ZN15ChiFeature2Base18OnInitializeStreamEPK23ChiTargetPortDescriptorPK25ChiFeature2PortDescriptorPNS_20ChiFeatureStreamDataE@plt>
<_ZN28ChiFeature2Statsregeneration18OnInitializeStreamEPK23ChiTargetPortDescriptorPK25ChiFeature2PortDescriptorPN15ChiFeature2Base20ChiFeatureStreamDataE+0xa4>
0x35000 <_ZN28ChiFeature2Statsregeneration18OnInitializeStreamEPK23ChiTargetPortDescriptorPK25ChiFeature2PortDescriptorPN15ChiFeature2Base20ChiFeatureStreamDataE+0x57c>
<_ZN28ChiFeature2Statsregeneration18OnInitializeStreamEPK23ChiTargetPortDescriptorPK25ChiFeature2PortDescriptorPN15ChiFeature2Base20ChiFeatureStreamDataE+0x54>
0x35000 <_ZNK28ChiFeature2Statsregeneration23OnPopulateConfigurationEP24ChiFeature2RequestObject+0x10>
0x1d908 <_ZN28ChiFeature2Statsregeneration18OnInitializeStreamEPK23ChiTargetPortDescriptorPK25ChiFeature2PortDescriptorPN15ChiFeature2Base20ChiFeatureStreamDataE+0x58>
<_ZN28ChiFeature2Statsregeneration18OnInitializeStreamEPK23ChiTargetPortDescriptorPK25ChiFeature2PortDescriptorPN15ChiFeature2Base20ChiFeatureStreamDataE+0x98>
0x35000 <_ZNK28ChiFeature2Statsregeneration23OnPopulateConfigurationEP24ChiFeature2RequestObject+0x38>
<_ZN28ChiFeature2Statsregeneration18OnInitializeStreamEPK23ChiTargetPortDescriptorPK25ChiFeature2PortDescriptorPN15ChiFeature2Base20ChiFeatureStreamDataE+0xd8>
<_ZN28ChiFeature2Statsregeneration18OnInitializeStreamEPK23ChiTargetPortDescriptorPK25ChiFeature2PortDescriptorPN15ChiFeature2Base20ChiFeatureStreamDataE+0x4ec>

<_ZNK24ChiFeature2RequestObject19GetCurrentStageInfoEP20ChiFeature2StageInfoh@plt>
<_ZNK24ChiFeature2RequestObject24GetExternalRequestOutputEPhPPK28ChiFeature2RequestOutputInfoh@plt>
<_ZNK28ChiFeature2Statsregeneration23OnPopulateConfigurationEP24ChiFeature2RequestObject+0x244>
0x35000 <_ZNK28ChiFeature2Statsregeneration23OnPopulateConfigurationEP24ChiFeature2RequestObject+0xd8>
<_ZNK28ChiFeature2Statsregeneration23OnPopulateConfigurationEP24ChiFeature2RequestObject+0x318>
<_ZNK28ChiFeature2Statsregeneration31OnPopulateConfigurationSettingsEP24ChiFeature2RequestObjectPK21ChiFeature2IdentifierP11ChiMetadata+0x8a8>
0x1e090 <_ZNK28ChiFeature2Statsregeneration23OnPopulateConfigurationEP24ChiFeature2RequestObject+0x248>
<_ZNK28ChiFeature2Statsregeneration23OnPopulateConfigurationEP24ChiFeature2RequestObject+0x338>
<_ZNK28ChiFeature2Statsregeneration31OnPopulateConfigurationSettingsEP24ChiFeature2RequestObjectPK21ChiFeature2IdentifierP11ChiMetadata+0xa18>
0x1e090 <_ZNK28ChiFeature2Statsregeneration23OnPopulateConfigurationEP24ChiFeature2RequestObject+0x248>
0x1e0d8 <_ZNK28ChiFeature2Statsregeneration23OnPopulateConfigurationEP24ChiFeature2RequestObject+0x290>
<_ZNK28ChiFeature2Statsregeneration23OnPopulateConfigurationEP24ChiFeature2RequestObject+0x130>
<_ZNK28ChiFeature2Statsregeneration23OnPopulateConfigurationEP24ChiFeature2RequestObject+0x27c>
<_ZNK28ChiFeature2Statsregeneration23OnPopulateConfigurationEP24ChiFeature2RequestObject+0x11c>
<_ZNK28ChiFeature2Statsregeneration23OnPopulateConfigurationEP24ChiFeature2RequestObject+0x100>
<_ZNK28ChiFeature2Statsregeneration23OnPopulateConfigurationEP24ChiFeature2RequestObject+0x370>
<_ZNK28ChiFeature2Statsregeneration23OnPopulateConfigurationEP24ChiFeature2RequestObject+0x374>
<_ZNK28ChiFeature2Statsregeneration23OnPopulateConfigurationEP24ChiFeature2RequestObject+0x1ac>
0x1e084 <_ZNK28ChiFeature2Statsregeneration23OnPopulateConfigurationEP24ChiFeature2RequestObject+0x23c>
<_ZNK28ChiFeature2Statsregeneration23OnPopulateConfigurationEP24ChiFeature2RequestObject+0x204>
<_ZNK28ChiFeature2Statsregeneration23OnPopulateConfigurationEP24ChiFeature2RequestObject+0x36c>
0x1df64 <_ZNK28ChiFeature2Statsregeneration23OnPopulateConfigurationEP24ChiFeature2RequestObject+0x11c>
0x1e1b4 <_ZNK28ChiFeature2Statsregeneration23OnPopulateConfigurationEP24ChiFeature2RequestObject+0x36c>
<_ZNK28ChiFeature2Statsregeneration23OnPopulateConfigurationEP24ChiFeature2RequestObject+0x11c>
<_ZNK28ChiFeature2Statsregeneration23OnPopulateConfigurationEP24ChiFeature2RequestObject+0x1c0>
<_ZNK28ChiFeature2Statsregeneration23OnPopulateConfigurationEP24ChiFeature2RequestObject+0x368>
0x35000 <_ZNK28ChiFeature2Statsregeneration23OnPopulateConfigurationEP24ChiFeature2RequestObject+0x2dc>
<_ZNK28ChiFeature2Statsregeneration23OnPopulateConfigurationEP24ChiFeature2RequestObject+0x298>
<_ZNK28ChiFeature2Statsregeneration23OnPopulateConfigurationEP24ChiFeature2RequestObject+0x350>
<_ZNK15ChiFeature2Base25PopulatePortConfigurationEP24ChiFeature2RequestObjectPK21ChiFeature2PortIdListS4_@plt>
0x1e090 <_ZNK28ChiFeature2Statsregeneration23OnPopulateConfigurationEP24ChiFeature2RequestObject+0x248>
0x1e1b4 <_ZNK28ChiFeature2Statsregeneration23OnPopulateConfigurationEP24ChiFeature2RequestObject+0x36c>
<_ZNK28ChiFeature2Statsregeneration23OnPopulateConfigurationEP24ChiFeature2RequestObject+0x248>
<_ZNK28ChiFeature2Statsregeneration23OnPopulateConfigurationEP24ChiFeature2RequestObject+0x94>
<_ZNK28ChiFeature2Statsregeneration23OnPopulateConfigurationEP24ChiFeature2RequestObject+0xb8>
<_ZNK28ChiFeature2Statsregeneration23OnPopulateConfigurationEP24ChiFeature2RequestObject+0x2c4>
<_ZNKSt3__120__vector_base_commonILb1EE20__throw_length_errorEv@plt>

<_ZNK24ChiFeature2RequestObject23GetUsecaseRequestObjectEv@plt>
0x35000 <_ZNK28ChiFeature2Statsregeneration31OnPopulateConfigurationSettingsEP24ChiFeature2RequestObjectPK21ChiFeature2IdentifierP11ChiMetadata+0xd0>
<_ZNK28ChiFeature2Statsregeneration31OnPopulateConfigurationSettingsEP24ChiFeature2RequestObjectPK21ChiFeature2IdentifierP11ChiMetadata+0x3ac>
<_ZNK15ChiFeature2Base21GetFeaturePrivContextEP24ChiFeature2RequestObject@plt>
<_ZNK28ChiFeature2Statsregeneration31OnPopulateConfigurationSettingsEP24ChiFeature2RequestObjectPK21ChiFeature2IdentifierP11ChiMetadata+0x3c4>
<_ZNK15ChiFeature2Base19GetCurrentStageInfoEP24ChiFeature2RequestObjectP20ChiFeature2StageInfo@plt>
0x1e3e4 <_ZNK28ChiFeature2Statsregeneration31OnPopulateConfigurationSettingsEP24ChiFeature2RequestObjectPK21ChiFeature2IdentifierP11ChiMetadata+0x21c>
<_ZNK28ChiFeature2Statsregeneration31OnPopulateConfigurationSettingsEP24ChiFeature2RequestObjectPK21ChiFeature2IdentifierP11ChiMetadata+0x2cc>
<_ZNK28ChiFeature2Statsregeneration31OnPopulateConfigurationSettingsEP24ChiFeature2RequestObjectPK21ChiFeature2IdentifierP11ChiMetadata+0x3f4>
<_ZNK15ChiFeature2Base31OnPopulateConfigurationSettingsEP24ChiFeature2RequestObjectPK21ChiFeature2IdentifierP11ChiMetadata@plt>
<_ZNK28ChiFeature2Statsregeneration31OnPopulateConfigurationSettingsEP24ChiFeature2RequestObjectPK21ChiFeature2IdentifierP11ChiMetadata+0x570>
0x1e494 <_ZNK28ChiFeature2Statsregeneration31OnPopulateConfigurationSettingsEP24ChiFeature2RequestObjectPK21ChiFeature2IdentifierP11ChiMetadata+0x2cc>
<_ZNK28ChiFeature2Statsregeneration31OnPopulateConfigurationSettingsEP24ChiFeature2RequestObjectPK21ChiFeature2IdentifierP11ChiMetadata+0x40c>
<_ZN18ChiMetadataManager21GetMetadataFromHandleEPv@plt>
0x1e494 <_ZNK28ChiFeature2Statsregeneration31OnPopulateConfigurationSettingsEP24ChiFeature2RequestObjectPK21ChiFeature2IdentifierP11ChiMetadata+0x2cc>
0x35000 <_ZNK28ChiFeature2Statsregeneration31OnPopulateConfigurationSettingsEP24ChiFeature2RequestObjectPK21ChiFeature2IdentifierP11ChiMetadata+0x18c>
#5, 0x1e3b4 <_ZNK28ChiFeature2Statsregeneration31OnPopulateConfigurationSettingsEP24ChiFeature2RequestObjectPK21ChiFeature2IdentifierP11ChiMetadata+0x1ec>
0x35000 <_ZNK28ChiFeature2Statsregeneration31OnPopulateConfigurationSettingsEP24ChiFeature2RequestObjectPK21ChiFeature2IdentifierP11ChiMetadata+0x1a0>
0xe000 <_ZNK28ChiFeature2Statsregeneration31OnPopulateConfigurationSettingsEP24ChiFeature2RequestObjectPK21ChiFeature2IdentifierP11ChiMetadata+0x108>
<_ZNK28ChiFeature2Statsregeneration31OnPopulateConfigurationSettingsEP24ChiFeature2RequestObjectPK21ChiFeature2IdentifierP11ChiMetadata+0x1a4>
0xf000 <_ZNK28ChiFeature2Statsregeneration31OnPopulateConfigurationSettingsEP24ChiFeature2RequestObjectPK21ChiFeature2IdentifierP11ChiMetadata+0x13c>
0xc000 <_ZNK28ChiFeature2Statsregeneration31OnPopulateConfigurationSettingsEP24ChiFeature2RequestObjectPK21ChiFeature2IdentifierP11ChiMetadata+0x134>
0xe000 <_ZNK28ChiFeature2Statsregeneration31OnPopulateConfigurationSettingsEP24ChiFeature2RequestObjectPK21ChiFeature2IdentifierP11ChiMetadata+0x140>
0xf000 <_ZNK28ChiFeature2Statsregeneration31OnPopulateConfigurationSettingsEP24ChiFeature2RequestObjectPK21ChiFeature2IdentifierP11ChiMetadata+0x184>
0xd000 <_ZNK28ChiFeature2Statsregeneration31OnPopulateConfigurationSettingsEP24ChiFeature2RequestObjectPK21ChiFeature2IdentifierP11ChiMetadata+0x180>
0xe000 <_ZNK28ChiFeature2Statsregeneration31OnPopulateConfigurationSettingsEP24ChiFeature2RequestObjectPK21ChiFeature2IdentifierP11ChiMetadata+0x188>
0xe000 <_ZNK28ChiFeature2Statsregeneration31OnPopulateConfigurationSettingsEP24ChiFeature2RequestObjectPK21ChiFeature2IdentifierP11ChiMetadata+0x18c>
<_ZN6ChiLog9LogSystemEPKcS1_S1_S1_iS1_z@plt>
<_ZNK28ChiFeature2Statsregeneration31OnPopulateConfigurationSettingsEP24ChiFeature2RequestObjectPK21ChiFeature2IdentifierP11ChiMetadata+0x2cc>
0x35000 <_ZNK28ChiFeature2Statsregeneration31OnPopulateConfigurationSettingsEP24ChiFeature2RequestObjectPK21ChiFeature2IdentifierP11ChiMetadata+0x278>
#0, 0x1e494 <_ZNK28ChiFeature2Statsregeneration31OnPopulateConfigurationSettingsEP24ChiFeature2RequestObjectPK21ChiFeature2IdentifierP11ChiMetadata+0x2cc>
0x35000 <_ZNK28ChiFeature2Statsregeneration31OnPopulateConfigurationSettingsEP24ChiFeature2RequestObjectPK21ChiFeature2IdentifierP11ChiMetadata+0x288>
<_ZNK28ChiFeature2Statsregeneration31OnPopulateConfigurationSettingsEP24ChiFeature2RequestObjectPK21ChiFeature2IdentifierP11ChiMetadata+0x284>
0xe000 <_ZNK28ChiFeature2Statsregeneration31OnPopulateConfigurationSettingsEP24ChiFeature2RequestObjectPK21ChiFeature2IdentifierP11ChiMetadata+0x200>
0xf000 <_ZNK28ChiFeature2Statsregeneration31OnPopulateConfigurationSettingsEP24ChiFeature2RequestObjectPK21ChiFeature2IdentifierP11ChiMetadata+0x220>
0xe000 <_ZNK28ChiFeature2Statsregeneration31OnPopulateConfigurationSettingsEP24ChiFeature2RequestObjectPK21ChiFeature2IdentifierP11ChiMetadata+0x220>
0xe000 <_ZNK28ChiFeature2Statsregeneration31OnPopulateConfigurationSettingsEP24ChiFeature2RequestObjectPK21ChiFeature2IdentifierP11ChiMetadata+0x224>
0xe000 <_ZNK28ChiFeature2Statsregeneration31OnPopulateConfigurationSettingsEP24ChiFeature2RequestObjectPK21ChiFeature2IdentifierP11ChiMetadata+0x244>
0xf000 <_ZNK28ChiFeature2Statsregeneration31OnPopulateConfigurationSettingsEP24ChiFeature2RequestObjectPK21ChiFeature2IdentifierP11ChiMetadata+0x264>
0xb000 <_ZNK28ChiFeature2Statsregeneration31OnPopulateConfigurationSettingsEP24ChiFeature2RequestObjectPK21ChiFeature2IdentifierP11ChiMetadata+0x25c>
0xe000 <_ZNK28ChiFeature2Statsregeneration31OnPopulateConfigurationSettingsEP24ChiFeature2RequestObjectPK21ChiFeature2IdentifierP11ChiMetadata+0x26c>
0xb000 <_ZNK28ChiFeature2Statsregeneration31OnPopulateConfigurationSettingsEP24ChiFeature2RequestObjectPK21ChiFeature2IdentifierP11ChiMetadata+0x264>
<_ZN6ChiLog9LogSystemEPKcS1_S1_S1_iS1_z@plt>
<_ZNK28ChiFeature2Statsregeneration31OnPopulateConfigurationSettingsEP24ChiFeature2RequestObjectPK21ChiFeature2IdentifierP11ChiMetadata+0x3dc>
<_ZNK15ChiFeature2Base18GetSensorModeIndexEPK21ChiFeature2IdentifierP11ChiMetadata@plt>
0x1e540 <_ZNK28ChiFeature2Statsregeneration31OnPopulateConfigurationSettingsEP24ChiFeature2RequestObjectPK21ChiFeature2IdentifierP11ChiMetadata+0x378>
#4, 0x1e4d8 <_ZNK28ChiFeature2Statsregeneration31OnPopulateConfigurationSettingsEP24ChiFeature2RequestObjectPK21ChiFeature2IdentifierP11ChiMetadata+0x310>
#12, 0x1e520 <_ZNK28ChiFeature2Statsregeneration31OnPopulateConfigurationSettingsEP24ChiFeature2RequestObjectPK21ChiFeature2IdentifierP11ChiMetadata+0x358>
<_ZNK28ChiFeature2Statsregeneration31OnPopulateConfigurationSettingsEP24ChiFeature2RequestObjectPK21ChiFeature2IdentifierP11ChiMetadata+0x31c>
0xe000 <_ZNK28ChiFeature2Statsregeneration31OnPopulateConfigurationSettingsEP24ChiFeature2RequestObjectPK21ChiFeature2IdentifierP11ChiMetadata+0x2f8>
0xc000 <_ZNK28ChiFeature2Statsregeneration31OnPopulateConfigurationSettingsEP24ChiFeature2RequestObjectPK21ChiFeature2IdentifierP11ChiMetadata+0x2f4>
<_ZN8ChxUtils18FillTuningModeDataEP11ChiMetadata25ChiModeUsecaseSubModeTypejPjS3_S3_S3_@plt>
<_ZNK28ChiFeature2Statsregeneration31OnPopulateConfigurationSettingsEP24ChiFeature2RequestObjectPK21ChiFeature2IdentifierP11ChiMetadata+0x42c>
<_ZNK28ChiFeature2Statsregeneration31OnPopulateConfigurationSettingsEP24ChiFeature2RequestObjectPK21ChiFeature2IdentifierP11ChiMetadata+0x90>
<_ZNK28ChiFeature2Statsregeneration31OnPopulateConfigurationSettingsEP24ChiFeature2RequestObjectPK21ChiFeature2IdentifierP11ChiMetadata+0xac>
<_ZNK28ChiFeature2Statsregeneration31OnPopulateConfigurationSettingsEP24ChiFeature2RequestObjectPK21ChiFeature2IdentifierP11ChiMetadata+0x2dc>
<_ZNK28ChiFeature2Statsregeneration31OnPopulateConfigurationSettingsEP24ChiFeature2RequestObjectPK21ChiFeature2IdentifierP11ChiMetadata+0xe0>
<_ZNK28ChiFeature2Statsregeneration31OnPopulateConfigurationSettingsEP24ChiFeature2RequestObjectPK21ChiFeature2IdentifierP11ChiMetadata+0x124>
<_ZNK28ChiFeature2Statsregeneration31OnPopulateConfigurationSettingsEP24ChiFeature2RequestObjectPK21ChiFeature2IdentifierP11ChiMetadata+0x464>
<_ZNK28ChiFeature2Statsregeneration31OnPopulateConfigurationSettingsEP24ChiFeature2RequestObjectPK21ChiFeature2IdentifierP11ChiMetadata+0x534>
0x35000 <_ZNK28ChiFeature2Statsregeneration31OnPopulateConfigurationSettingsEP24ChiFeature2RequestObjectPK21ChiFeature2IdentifierP11ChiMetadata+0x4c4>
<_ZNK28ChiFeature2Statsregeneration31OnPopulateConfigurationSettingsEP24ChiFeature2RequestObjectPK21ChiFeature2IdentifierP11ChiMetadata+0x4a8>
<_ZNK28ChiFeature2Statsregeneration31OnPopulateConfigurationSettingsEP24ChiFeature2RequestObjectPK21ChiFeature2IdentifierP11ChiMetadata+0x4e8>
0x1e6e8 <_ZNK28ChiFeature2Statsregeneration31OnPopulateConfigurationSettingsEP24ChiFeature2RequestObjectPK21ChiFeature2IdentifierP11ChiMetadata+0x520>
<_ZNK28ChiFeature2Statsregeneration31OnPopulateConfigurationSettingsEP24ChiFeature2RequestObjectPK21ChiFeature2IdentifierP11ChiMetadata+0x544>
<_ZNK28ChiFeature2Statsregeneration31OnPopulateConfigurationSettingsEP24ChiFeature2RequestObjectPK21ChiFeature2IdentifierP11ChiMetadata+0x524>
0x35000 <_ZNK28ChiFeature2Statsregeneration31OnPopulateConfigurationSettingsEP24ChiFeature2RequestObjectPK21ChiFeature2IdentifierP11ChiMetadata+0x52c>
<_ZNK28ChiFeature2Statsregeneration31OnPopulateConfigurationSettingsEP24ChiFeature2RequestObjectPK21ChiFeature2IdentifierP11ChiMetadata+0x484>
0x35000 <_ZNK28ChiFeature2Statsregeneration31OnPopulateConfigurationSettingsEP24ChiFeature2RequestObjectPK21ChiFeature2IdentifierP11ChiMetadata+0x564>
0x1e654 <_ZNK28ChiFeature2Statsregeneration31OnPopulateConfigurationSettingsEP24ChiFeature2RequestObjectPK21ChiFeature2IdentifierP11ChiMetadata+0x48c>
<_ZNK28ChiFeature2Statsregeneration31OnPopulateConfigurationSettingsEP24ChiFeature2RequestObjectPK21ChiFeature2IdentifierP11ChiMetadata+0x49c>
0x1e784 <_ZNK28ChiFeature2Statsregeneration31OnPopulateConfigurationSettingsEP24ChiFeature2RequestObjectPK21ChiFeature2IdentifierP11ChiMetadata+0x5bc>
<_ZN22CHITargetBufferManager22GetTargetBufferManagerEPv@plt>
0x1e79c <_ZNK28ChiFeature2Statsregeneration31OnPopulateConfigurationSettingsEP24ChiFeature2RequestObjectPK21ChiFeature2IdentifierP11ChiMetadata+0x5d4>
<_ZN22CHITargetBufferManager9GetTargetEPvm@plt>
0x1e8f8 <_ZNK28ChiFeature2Statsregeneration31OnPopulateConfigurationSettingsEP24ChiFeature2RequestObjectPK21ChiFeature2IdentifierP11ChiMetadata+0x730>
0x1e9c4 <_ZNK28ChiFeature2Statsregeneration31OnPopulateConfigurationSettingsEP24ChiFeature2RequestObjectPK21ChiFeature2IdentifierP11ChiMetadata+0x7fc>
<_ZNK28ChiFeature2Statsregeneration31OnPopulateConfigurationSettingsEP24ChiFeature2RequestObjectPK21ChiFeature2IdentifierP11ChiMetadata+0x7ec>
0x35000 <_ZNK28ChiFeature2Statsregeneration31OnPopulateConfigurationSettingsEP24ChiFeature2RequestObjectPK21ChiFeature2IdentifierP11ChiMetadata+0x618>
#0, 0x1e850 <_ZNK28ChiFeature2Statsregeneration31OnPopulateConfigurationSettingsEP24ChiFeature2RequestObjectPK21ChiFeature2IdentifierP11ChiMetadata+0x688>
<_ZNK28ChiFeature2Statsregeneration31OnPopulateConfigurationSettingsEP24ChiFeature2RequestObjectPK21ChiFeature2IdentifierP11ChiMetadata+0x7ec>
0x35000 <_ZNK28ChiFeature2Statsregeneration31OnPopulateConfigurationSettingsEP24ChiFeature2RequestObjectPK21ChiFeature2IdentifierP11ChiMetadata+0x630>
#0, 0x1e9b0 <_ZNK28ChiFeature2Statsregeneration31OnPopulateConfigurationSettingsEP24ChiFeature2RequestObjectPK21ChiFeature2IdentifierP11ChiMetadata+0x7e8>
0x35000 <_ZNK28ChiFeature2Statsregeneration31OnPopulateConfigurationSettingsEP24ChiFeature2RequestObjectPK21ChiFeature2IdentifierP11ChiMetadata+0x640>
<_ZNK28ChiFeature2Statsregeneration31OnPopulateConfigurationSettingsEP24ChiFeature2RequestObjectPK21ChiFeature2IdentifierP11ChiMetadata+0x640>
0xb000 <_ZNK28ChiFeature2Statsregeneration31OnPopulateConfigurationSettingsEP24ChiFeature2RequestObjectPK21ChiFeature2IdentifierP11ChiMetadata+0x5ac>
0xf000 <_ZNK28ChiFeature2Statsregeneration31OnPopulateConfigurationSettingsEP24ChiFeature2RequestObjectPK21ChiFeature2IdentifierP11ChiMetadata+0x5d8>
0xf000 <_ZNK28ChiFeature2Statsregeneration31OnPopulateConfigurationSettingsEP24ChiFeature2RequestObjectPK21ChiFeature2IdentifierP11ChiMetadata+0x5dc>
0xe000 <_ZNK28ChiFeature2Statsregeneration31OnPopulateConfigurationSettingsEP24ChiFeature2RequestObjectPK21ChiFeature2IdentifierP11ChiMetadata+0x5dc>
0xb000 <_ZNK28ChiFeature2Statsregeneration31OnPopulateConfigurationSettingsEP24ChiFeature2RequestObjectPK21ChiFeature2IdentifierP11ChiMetadata+0x5f4>
0xf000 <_ZNK28ChiFeature2Statsregeneration31OnPopulateConfigurationSettingsEP24ChiFeature2RequestObjectPK21ChiFeature2IdentifierP11ChiMetadata+0x620>
0xb000 <_ZNK28ChiFeature2Statsregeneration31OnPopulateConfigurationSettingsEP24ChiFeature2RequestObjectPK21ChiFeature2IdentifierP11ChiMetadata+0x618>
0xe000 <_ZNK28ChiFeature2Statsregeneration31OnPopulateConfigurationSettingsEP24ChiFeature2RequestObjectPK21ChiFeature2IdentifierP11ChiMetadata+0x628>
0xc000 <_ZNK28ChiFeature2Statsregeneration31OnPopulateConfigurationSettingsEP24ChiFeature2RequestObjectPK21ChiFeature2IdentifierP11ChiMetadata+0x624>
<_ZNK28ChiFeature2Statsregeneration31OnPopulateConfigurationSettingsEP24ChiFeature2RequestObjectPK21ChiFeature2IdentifierP11ChiMetadata+0x7e0>
0x35000 <_ZNK28ChiFeature2Statsregeneration31OnPopulateConfigurationSettingsEP24ChiFeature2RequestObjectPK21ChiFeature2IdentifierP11ChiMetadata+0x6e4>
<_ZNK28ChiFeature2Statsregeneration31OnPopulateConfigurationSettingsEP24ChiFeature2RequestObjectPK21ChiFeature2IdentifierP11ChiMetadata+0x6e0>
0xb000 <_ZNK28ChiFeature2Statsregeneration31OnPopulateConfigurationSettingsEP24ChiFeature2RequestObjectPK21ChiFeature2IdentifierP11ChiMetadata+0x650>
0xf000 <_ZNK28ChiFeature2Statsregeneration31OnPopulateConfigurationSettingsEP24ChiFeature2RequestObjectPK21ChiFeature2IdentifierP11ChiMetadata+0x67c>
0xe000 <_ZNK28ChiFeature2Statsregeneration31OnPopulateConfigurationSettingsEP24ChiFeature2RequestObjectPK21ChiFeature2IdentifierP11ChiMetadata+0x67c>
0xe000 <_ZNK28ChiFeature2Statsregeneration31OnPopulateConfigurationSettingsEP24ChiFeature2RequestObjectPK21ChiFeature2IdentifierP11ChiMetadata+0x680>
0xb000 <_ZNK28ChiFeature2Statsregeneration31OnPopulateConfigurationSettingsEP24ChiFeature2RequestObjectPK21ChiFeature2IdentifierP11ChiMetadata+0x694>
0xf000 <_ZNK28ChiFeature2Statsregeneration31OnPopulateConfigurationSettingsEP24ChiFeature2RequestObjectPK21ChiFeature2IdentifierP11ChiMetadata+0x6c0>
0xb000 <_ZNK28ChiFeature2Statsregeneration31OnPopulateConfigurationSettingsEP24ChiFeature2RequestObjectPK21ChiFeature2IdentifierP11ChiMetadata+0x6b8>
0xe000 <_ZNK28ChiFeature2Statsregeneration31OnPopulateConfigurationSettingsEP24ChiFeature2RequestObjectPK21ChiFeature2IdentifierP11ChiMetadata+0x6c8>
0xc000 <_ZNK28ChiFeature2Statsregeneration31OnPopulateConfigurationSettingsEP24ChiFeature2RequestObjectPK21ChiFeature2IdentifierP11ChiMetadata+0x6c4>
<_ZN6ChiLog9LogSystemEPKcS1_S1_S1_iS1_z@plt>
<_ZNK28ChiFeature2Statsregeneration31OnPopulateConfigurationSettingsEP24ChiFeature2RequestObjectPK21ChiFeature2IdentifierP11ChiMetadata+0x7ec>
0x35000 <_ZNK28ChiFeature2Statsregeneration31OnPopulateConfigurationSettingsEP24ChiFeature2RequestObjectPK21ChiFeature2IdentifierP11ChiMetadata+0x78c>
#0, 0x1e9b0 <_ZNK28ChiFeature2Statsregeneration31OnPopulateConfigurationSettingsEP24ChiFeature2RequestObjectPK21ChiFeature2IdentifierP11ChiMetadata+0x7e8>
0x35000 <_ZNK28ChiFeature2Statsregeneration31OnPopulateConfigurationSettingsEP24ChiFeature2RequestObjectPK21ChiFeature2IdentifierP11ChiMetadata+0x79c>
<_ZNK28ChiFeature2Statsregeneration31OnPopulateConfigurationSettingsEP24ChiFeature2RequestObjectPK21ChiFeature2IdentifierP11ChiMetadata+0x79c>
0xb000 <_ZNK28ChiFeature2Statsregeneration31OnPopulateConfigurationSettingsEP24ChiFeature2RequestObjectPK21ChiFeature2IdentifierP11ChiMetadata+0x708>
0xf000 <_ZNK28ChiFeature2Statsregeneration31OnPopulateConfigurationSettingsEP24ChiFeature2RequestObjectPK21ChiFeature2IdentifierP11ChiMetadata+0x734>
0xe000 <_ZNK28ChiFeature2Statsregeneration31OnPopulateConfigurationSettingsEP24ChiFeature2RequestObjectPK21ChiFeature2IdentifierP11ChiMetadata+0x734>
0xe000 <_ZNK28ChiFeature2Statsregeneration31OnPopulateConfigurationSettingsEP24ChiFeature2RequestObjectPK21ChiFeature2IdentifierP11ChiMetadata+0x738>
0xb000 <_ZNK28ChiFeature2Statsregeneration31OnPopulateConfigurationSettingsEP24ChiFeature2RequestObjectPK21ChiFeature2IdentifierP11ChiMetadata+0x750>
0xf000 <_ZNK28ChiFeature2Statsregeneration31OnPopulateConfigurationSettingsEP24ChiFeature2RequestObjectPK21ChiFeature2IdentifierP11ChiMetadata+0x77c>
0xb000 <_ZNK28ChiFeature2Statsregeneration31OnPopulateConfigurationSettingsEP24ChiFeature2RequestObjectPK21ChiFeature2IdentifierP11ChiMetadata+0x774>
0xe000 <_ZNK28ChiFeature2Statsregeneration31OnPopulateConfigurationSettingsEP24ChiFeature2RequestObjectPK21ChiFeature2IdentifierP11ChiMetadata+0x784>
0xc000 <_ZNK28ChiFeature2Statsregeneration31OnPopulateConfigurationSettingsEP24ChiFeature2RequestObjectPK21ChiFeature2IdentifierP11ChiMetadata+0x780>
<_ZN6ChiLog9LogSystemEPKcS1_S1_S1_iS1_z@plt>
0x35000 <_ZNK28ChiFeature2Statsregeneration31OnPopulateConfigurationSettingsEP24ChiFeature2RequestObjectPK21ChiFeature2IdentifierP11ChiMetadata+0x858>
#0, 0x1e9b0 <_ZNK28ChiFeature2Statsregeneration31OnPopulateConfigurationSettingsEP24ChiFeature2RequestObjectPK21ChiFeature2IdentifierP11ChiMetadata+0x7e8>
0x35000 <_ZNK28ChiFeature2Statsregeneration31OnPopulateConfigurationSettingsEP24ChiFeature2RequestObjectPK21ChiFeature2IdentifierP11ChiMetadata+0x868>
0xb000 <_ZNK28ChiFeature2Statsregeneration31OnPopulateConfigurationSettingsEP24ChiFeature2RequestObjectPK21ChiFeature2IdentifierP11ChiMetadata+0x7c4>
<_ZNK28ChiFeature2Statsregeneration31OnPopulateConfigurationSettingsEP24ChiFeature2RequestObjectPK21ChiFeature2IdentifierP11ChiMetadata+0x864>
0xf000 <_ZNK28ChiFeature2Statsregeneration31OnPopulateConfigurationSettingsEP24ChiFeature2RequestObjectPK21ChiFeature2IdentifierP11ChiMetadata+0x800>
0xd000 <_ZNK28ChiFeature2Statsregeneration31OnPopulateConfigurationSettingsEP24ChiFeature2RequestObjectPK21ChiFeature2IdentifierP11ChiMetadata+0x7fc>
0xe000 <_ZNK28ChiFeature2Statsregeneration31OnPopulateConfigurationSettingsEP24ChiFeature2RequestObjectPK21ChiFeature2IdentifierP11ChiMetadata+0x804>
0xf000 <_ZNK28ChiFeature2Statsregeneration31OnPopulateConfigurationSettingsEP24ChiFeature2RequestObjectPK21ChiFeature2IdentifierP11ChiMetadata+0x83c>
0xb000 <_ZNK28ChiFeature2Statsregeneration31OnPopulateConfigurationSettingsEP24ChiFeature2RequestObjectPK21ChiFeature2IdentifierP11ChiMetadata+0x834>
0xe000 <_ZNK28ChiFeature2Statsregeneration31OnPopulateConfigurationSettingsEP24ChiFeature2RequestObjectPK21ChiFeature2IdentifierP11ChiMetadata+0x844>
0xb000 <_ZNK28ChiFeature2Statsregeneration31OnPopulateConfigurationSettingsEP24ChiFeature2RequestObjectPK21ChiFeature2IdentifierP11ChiMetadata+0x83c>
<_ZN6ChiLog9LogSystemEPKcS1_S1_S1_iS1_z@plt>
<_ZNK28ChiFeature2Statsregeneration31OnPopulateConfigurationSettingsEP24ChiFeature2RequestObjectPK21ChiFeature2IdentifierP11ChiMetadata+0x7e8>
0x35000 <_ZNK28ChiFeature2Statsregeneration31OnPopulateConfigurationSettingsEP24ChiFeature2RequestObjectPK21ChiFeature2IdentifierP11ChiMetadata+0x91c>
<_ZNK28ChiFeature2Statsregeneration31OnPopulateConfigurationSettingsEP24ChiFeature2RequestObjectPK21ChiFeature2IdentifierP11ChiMetadata+0x9f8>
<_ZNK28ChiFeature2Statsregeneration31OnPopulateConfigurationSettingsEP24ChiFeature2RequestObjectPK21ChiFeature2IdentifierP11ChiMetadata+0x92c>
0x1ebb0 <_ZNK28ChiFeature2Statsregeneration31OnPopulateConfigurationSettingsEP24ChiFeature2RequestObjectPK21ChiFeature2IdentifierP11ChiMetadata+0x9e8>
0x1ebb0 <_ZNK28ChiFeature2Statsregeneration31OnPopulateConfigurationSettingsEP24ChiFeature2RequestObjectPK21ChiFeature2IdentifierP11ChiMetadata+0x9e8>
<_ZNK28ChiFeature2Statsregeneration31OnPopulateConfigurationSettingsEP24ChiFeature2RequestObjectPK21ChiFeature2IdentifierP11ChiMetadata+0x9e8>
0x35000 <_ZNK28ChiFeature2Statsregeneration31OnPopulateConfigurationSettingsEP24ChiFeature2RequestObjectPK21ChiFeature2IdentifierP11ChiMetadata+0x988>
#0, 0x1ebac <_ZNK28ChiFeature2Statsregeneration31OnPopulateConfigurationSettingsEP24ChiFeature2RequestObjectPK21ChiFeature2IdentifierP11ChiMetadata+0x9e4>
0x35000 <_ZNK28ChiFeature2Statsregeneration31OnPopulateConfigurationSettingsEP24ChiFeature2RequestObjectPK21ChiFeature2IdentifierP11ChiMetadata+0x998>
0xd000 <_ZNK28ChiFeature2Statsregeneration31OnPopulateConfigurationSettingsEP24ChiFeature2RequestObjectPK21ChiFeature2IdentifierP11ChiMetadata+0x8fc>
<_ZNK28ChiFeature2Statsregeneration31OnPopulateConfigurationSettingsEP24ChiFeature2RequestObjectPK21ChiFeature2IdentifierP11ChiMetadata+0x99c>
0xf000 <_ZNK28ChiFeature2Statsregeneration31OnPopulateConfigurationSettingsEP24ChiFeature2RequestObjectPK21ChiFeature2IdentifierP11ChiMetadata+0x930>
0xd000 <_ZNK28ChiFeature2Statsregeneration31OnPopulateConfigurationSettingsEP24ChiFeature2RequestObjectPK21ChiFeature2IdentifierP11ChiMetadata+0x92c>
0xe000 <_ZNK28ChiFeature2Statsregeneration31OnPopulateConfigurationSettingsEP24ChiFeature2RequestObjectPK21ChiFeature2IdentifierP11ChiMetadata+0x934>
0xf000 <_ZNK28ChiFeature2Statsregeneration31OnPopulateConfigurationSettingsEP24ChiFeature2RequestObjectPK21ChiFeature2IdentifierP11ChiMetadata+0x974>
0xb000 <_ZNK28ChiFeature2Statsregeneration31OnPopulateConfigurationSettingsEP24ChiFeature2RequestObjectPK21ChiFeature2IdentifierP11ChiMetadata+0x96c>
0xe000 <_ZNK28ChiFeature2Statsregeneration31OnPopulateConfigurationSettingsEP24ChiFeature2RequestObjectPK21ChiFeature2IdentifierP11ChiMetadata+0x97c>
0xd000 <_ZNK28ChiFeature2Statsregeneration31OnPopulateConfigurationSettingsEP24ChiFeature2RequestObjectPK21ChiFeature2IdentifierP11ChiMetadata+0x97c>
<_ZN6ChiLog9LogSystemEPKcS1_S1_S1_iS1_z@plt>
<_ZNK28ChiFeature2Statsregeneration31OnPopulateConfigurationSettingsEP24ChiFeature2RequestObjectPK21ChiFeature2IdentifierP11ChiMetadata+0x8d8>
0x35000 <_ZNK28ChiFeature2Statsregeneration31OnPopulateConfigurationSettingsEP24ChiFeature2RequestObjectPK21ChiFeature2IdentifierP11ChiMetadata+0xa8c>
<_ZNK28ChiFeature2Statsregeneration31OnPopulateConfigurationSettingsEP24ChiFeature2RequestObjectPK21ChiFeature2IdentifierP11ChiMetadata+0xb68>
<_ZNK28ChiFeature2Statsregeneration31OnPopulateConfigurationSettingsEP24ChiFeature2RequestObjectPK21ChiFeature2IdentifierP11ChiMetadata+0xa9c>
0x1ed20 <_ZNK28ChiFeature2Statsregeneration31OnPopulateConfigurationSettingsEP24ChiFeature2RequestObjectPK21ChiFeature2IdentifierP11ChiMetadata+0xb58>
0x1ed20 <_ZNK28ChiFeature2Statsregeneration31OnPopulateConfigurationSettingsEP24ChiFeature2RequestObjectPK21ChiFeature2IdentifierP11ChiMetadata+0xb58>
<_ZNK28ChiFeature2Statsregeneration31OnPopulateConfigurationSettingsEP24ChiFeature2RequestObjectPK21ChiFeature2IdentifierP11ChiMetadata+0xb58>
0x35000 <_ZNK28ChiFeature2Statsregeneration31OnPopulateConfigurationSettingsEP24ChiFeature2RequestObjectPK21ChiFeature2IdentifierP11ChiMetadata+0xaf8>
#0, 0x1ed1c <_ZNK28ChiFeature2Statsregeneration31OnPopulateConfigurationSettingsEP24ChiFeature2RequestObjectPK21ChiFeature2IdentifierP11ChiMetadata+0xb54>
0x35000 <_ZNK28ChiFeature2Statsregeneration31OnPopulateConfigurationSettingsEP24ChiFeature2RequestObjectPK21ChiFeature2IdentifierP11ChiMetadata+0xb08>
0xd000 <_ZNK28ChiFeature2Statsregeneration31OnPopulateConfigurationSettingsEP24ChiFeature2RequestObjectPK21ChiFeature2IdentifierP11ChiMetadata+0xa6c>
<_ZNK28ChiFeature2Statsregeneration31OnPopulateConfigurationSettingsEP24ChiFeature2RequestObjectPK21ChiFeature2IdentifierP11ChiMetadata+0xb0c>
0xf000 <_ZNK28ChiFeature2Statsregeneration31OnPopulateConfigurationSettingsEP24ChiFeature2RequestObjectPK21ChiFeature2IdentifierP11ChiMetadata+0xaa0>
0xd000 <_ZNK28ChiFeature2Statsregeneration31OnPopulateConfigurationSettingsEP24ChiFeature2RequestObjectPK21ChiFeature2IdentifierP11ChiMetadata+0xa9c>
0xc000 <_ZNK28ChiFeature2Statsregeneration31OnPopulateConfigurationSettingsEP24ChiFeature2RequestObjectPK21ChiFeature2IdentifierP11ChiMetadata+0xa9c>
0xf000 <_ZNK28ChiFeature2Statsregeneration31OnPopulateConfigurationSettingsEP24ChiFeature2RequestObjectPK21ChiFeature2IdentifierP11ChiMetadata+0xae4>
0xb000 <_ZNK28ChiFeature2Statsregeneration31OnPopulateConfigurationSettingsEP24ChiFeature2RequestObjectPK21ChiFeature2IdentifierP11ChiMetadata+0xadc>
0xc000 <_ZNK28ChiFeature2Statsregeneration31OnPopulateConfigurationSettingsEP24ChiFeature2RequestObjectPK21ChiFeature2IdentifierP11ChiMetadata+0xae4>
0xd000 <_ZNK28ChiFeature2Statsregeneration31OnPopulateConfigurationSettingsEP24ChiFeature2RequestObjectPK21ChiFeature2IdentifierP11ChiMetadata+0xaec>
<_ZN6ChiLog9LogSystemEPKcS1_S1_S1_iS1_z@plt>
<_ZNK28ChiFeature2Statsregeneration31OnPopulateConfigurationSettingsEP24ChiFeature2RequestObjectPK21ChiFeature2IdentifierP11ChiMetadata+0xa48>

<_ZN15ChiFeature2BaseD2Ev@plt>
0x35000 <_ZN28ChiFeature2StatsregenerationD2Ev+0x7c>
<_ZN28ChiFeature2StatsregenerationD2Ev+0x124>
<_ZN28ChiFeature2StatsregenerationD2Ev+0x58>
<_ZN28ChiFeature2StatsregenerationD2Ev+0x114>
0x35000 <_ZN28ChiFeature2StatsregenerationD2Ev+0xb4>
#0, 0x1ee60 <_ZN28ChiFeature2StatsregenerationD2Ev+0x110>
0x35000 <_ZN28ChiFeature2StatsregenerationD2Ev+0xc4>
0xd000 <_ZN28ChiFeature2StatsregenerationD2Ev+0x28>
<_ZN28ChiFeature2StatsregenerationD2Ev+0xc8>
0xf000 <_ZN28ChiFeature2StatsregenerationD2Ev+0x5c>
0xd000 <_ZN28ChiFeature2StatsregenerationD2Ev+0x58>
0xc000 <_ZN28ChiFeature2StatsregenerationD2Ev+0x58>
0xf000 <_ZN28ChiFeature2StatsregenerationD2Ev+0xa0>
0xb000 <_ZN28ChiFeature2StatsregenerationD2Ev+0x98>
0xc000 <_ZN28ChiFeature2StatsregenerationD2Ev+0xa0>
0xd000 <_ZN28ChiFeature2StatsregenerationD2Ev+0xa8>
<_ZN6ChiLog9LogSystemEPKcS1_S1_S1_iS1_z@plt>
<_ZN28ChiFeature2StatsregenerationD2Ev+0x38>

0x10000 <_ZN28ChiFeature2StatsregenerationD2Ev+0x124>
0x1f020 <_ZNK28ChiFeature2Statsregeneration24GetLongExposureRequestIdEP24ChiFeature2RequestObject+0x190>
0x39000 <_ZNK28ChiFeature2Statsregeneration24GetLongExposureRequestIdEP24ChiFeature2RequestObject+0xb0>
<_ZNK28ChiFeature2Statsregeneration24GetLongExposureRequestIdEP24ChiFeature2RequestObject+0x6c>
<_ZNK28ChiFeature2Statsregeneration24GetLongExposureRequestIdEP24ChiFeature2RequestObject+0x190>
<_ZNK24ChiFeature2RequestObject13GetBufferInfoE31ChiFeature2RequestObjectOpsTypePK21ChiFeature2IdentifierPPvPmhh@plt>
<_ZN22CHITargetBufferManager22GetTargetBufferManagerEPv@plt>
0x1eeec <_ZNK28ChiFeature2Statsregeneration24GetLongExposureRequestIdEP24ChiFeature2RequestObject+0x5c>
<_ZN22CHITargetBufferManager9GetTargetEPvm@plt>
0x1eeec <_ZNK28ChiFeature2Statsregeneration24GetLongExposureRequestIdEP24ChiFeature2RequestObject+0x5c>
<_ZN8ChxUtils17GetVendorTagValueEP11ChiMetadata9VendorTagPPv@plt>
0x1eeec <_ZNK28ChiFeature2Statsregeneration24GetLongExposureRequestIdEP24ChiFeature2RequestObject+0x5c>
<_ZNK28ChiFeature2Statsregeneration24GetLongExposureRequestIdEP24ChiFeature2RequestObject+0x5c>
0x35000 <_ZNK28ChiFeature2Statsregeneration24GetLongExposureRequestIdEP24ChiFeature2RequestObject+0x128>
#5, 0x1f024 <_ZNK28ChiFeature2Statsregeneration24GetLongExposureRequestIdEP24ChiFeature2RequestObject+0x194>
0x35000 <_ZNK28ChiFeature2Statsregeneration24GetLongExposureRequestIdEP24ChiFeature2RequestObject+0x138>
0xe000 <_ZNK28ChiFeature2Statsregeneration24GetLongExposureRequestIdEP24ChiFeature2RequestObject+0xa0>
<_ZNK28ChiFeature2Statsregeneration24GetLongExposureRequestIdEP24ChiFeature2RequestObject+0x140>
0xf000 <_ZNK28ChiFeature2Statsregeneration24GetLongExposureRequestIdEP24ChiFeature2RequestObject+0xd4>
0xb000 <_ZNK28ChiFeature2Statsregeneration24GetLongExposureRequestIdEP24ChiFeature2RequestObject+0xc8>
0xb000 <_ZNK28ChiFeature2Statsregeneration24GetLongExposureRequestIdEP24ChiFeature2RequestObject+0xcc>
0xf000 <_ZNK28ChiFeature2Statsregeneration24GetLongExposureRequestIdEP24ChiFeature2RequestObject+0x120>
0xd000 <_ZNK28ChiFeature2Statsregeneration24GetLongExposureRequestIdEP24ChiFeature2RequestObject+0x11c>
0xb000 <_ZNK28ChiFeature2Statsregeneration24GetLongExposureRequestIdEP24ChiFeature2RequestObject+0x118>
0xa000 <_ZNK28ChiFeature2Statsregeneration24GetLongExposureRequestIdEP24ChiFeature2RequestObject+0x118>
<_ZN6ChiLog9LogSystemEPKcS1_S1_S1_iS1_z@plt>
<_ZNK28ChiFeature2Statsregeneration24GetLongExposureRequestIdEP24ChiFeature2RequestObject+0x194>
<_ZNK28ChiFeature2Statsregeneration24GetLongExposureRequestIdEP24ChiFeature2RequestObject+0x1c0>

0x10000 <_ZNK28ChiFeature2Statsregeneration24GetLongExposureRequestIdEP24ChiFeature2RequestObject+0x1ac>
<_ZNK24ChiFeature2RequestObject13GetBufferInfoE31ChiFeature2RequestObjectOpsTypePK21ChiFeature2IdentifierPPvPmhh@plt>
<_ZN22CHITargetBufferManager22GetTargetBufferManagerEPv@plt>
0x1f2f8 <_ZNK28ChiFeature2Statsregeneration20MergeAWBFrameControlEP24ChiFeature2RequestObject+0x2a0>
<_ZN22CHITargetBufferManager9GetTargetEPvm@plt>
0x1f44c <_ZNK28ChiFeature2Statsregeneration20MergeAWBFrameControlEP24ChiFeature2RequestObject+0x3f4>
<_ZN8ChxUtils17GetVendorTagValueEP11ChiMetadata9VendorTagPPv@plt>
0x35000 <_ZNK28ChiFeature2Statsregeneration20MergeAWBFrameControlEP24ChiFeature2RequestObject+0x108>
0x1f1c0 <_ZNK28ChiFeature2Statsregeneration20MergeAWBFrameControlEP24ChiFeature2RequestObject+0x168>
#5, 0x1f1c0 <_ZNK28ChiFeature2Statsregeneration20MergeAWBFrameControlEP24ChiFeature2RequestObject+0x168>
0x35000 <_ZNK28ChiFeature2Statsregeneration20MergeAWBFrameControlEP24ChiFeature2RequestObject+0x120>
0xe000 <_ZNK28ChiFeature2Statsregeneration20MergeAWBFrameControlEP24ChiFeature2RequestObject+0x88>
<_ZNK28ChiFeature2Statsregeneration20MergeAWBFrameControlEP24ChiFeature2RequestObject+0x124>
0xf000 <_ZNK28ChiFeature2Statsregeneration20MergeAWBFrameControlEP24ChiFeature2RequestObject+0xbc>
0xc000 <_ZNK28ChiFeature2Statsregeneration20MergeAWBFrameControlEP24ChiFeature2RequestObject+0xb4>
0xc000 <_ZNK28ChiFeature2Statsregeneration20MergeAWBFrameControlEP24ChiFeature2RequestObject+0xb8>
0xf000 <_ZNK28ChiFeature2Statsregeneration20MergeAWBFrameControlEP24ChiFeature2RequestObject+0x100>
0xd000 <_ZNK28ChiFeature2Statsregeneration20MergeAWBFrameControlEP24ChiFeature2RequestObject+0xfc>
0xc000 <_ZNK28ChiFeature2Statsregeneration20MergeAWBFrameControlEP24ChiFeature2RequestObject+0xfc>
0xb000 <_ZNK28ChiFeature2Statsregeneration20MergeAWBFrameControlEP24ChiFeature2RequestObject+0xfc>
<_ZN6ChiLog9LogSystemEPKcS1_S1_S1_iS1_z@plt>
0xe000 <_ZNK28ChiFeature2Statsregeneration20MergeAWBFrameControlEP24ChiFeature2RequestObject+0x148>
0xb000 <_ZNK28ChiFeature2Statsregeneration20MergeAWBFrameControlEP24ChiFeature2RequestObject+0x140>
0x1f3a8 <_ZNK28ChiFeature2Statsregeneration20MergeAWBFrameControlEP24ChiFeature2RequestObject+0x350>
#5, 0x1f450 <_ZNK28ChiFeature2Statsregeneration20MergeAWBFrameControlEP24ChiFeature2RequestObject+0x3f8>
0x35000 <_ZNK28ChiFeature2Statsregeneration20MergeAWBFrameControlEP24ChiFeature2RequestObject+0x214>
<_ZNK28ChiFeature2Statsregeneration20MergeAWBFrameControlEP24ChiFeature2RequestObject+0x234>
0xe000 <_ZNK28ChiFeature2Statsregeneration20MergeAWBFrameControlEP24ChiFeature2RequestObject+0x18c>
0xf000 <_ZNK28ChiFeature2Statsregeneration20MergeAWBFrameControlEP24ChiFeature2RequestObject+0x1b0>
0xf000 <_ZNK28ChiFeature2Statsregeneration20MergeAWBFrameControlEP24ChiFeature2RequestObject+0x1b4>
0xc000 <_ZNK28ChiFeature2Statsregeneration20MergeAWBFrameControlEP24ChiFeature2RequestObject+0x1ac>
0xe000 <_ZNK28ChiFeature2Statsregeneration20MergeAWBFrameControlEP24ChiFeature2RequestObject+0x1f0>
0xf000 <_ZNK28ChiFeature2Statsregeneration20MergeAWBFrameControlEP24ChiFeature2RequestObject+0x218>
0xd000 <_ZNK28ChiFeature2Statsregeneration20MergeAWBFrameControlEP24ChiFeature2RequestObject+0x214>
0xc000 <_ZNK28ChiFeature2Statsregeneration20MergeAWBFrameControlEP24ChiFeature2RequestObject+0x214>
0xc000 <_ZNK28ChiFeature2Statsregeneration20MergeAWBFrameControlEP24ChiFeature2RequestObject+0x218>
<_ZN6ChiLog9LogSystemEPKcS1_S1_S1_iS1_z@plt>
<_ZNK28ChiFeature2Statsregeneration20MergeAWBFrameControlEP24ChiFeature2RequestObject+0x3f8>
0x35000 <_ZNK28ChiFeature2Statsregeneration20MergeAWBFrameControlEP24ChiFeature2RequestObject+0x2f8>
#0, 0x1f44c <_ZNK28ChiFeature2Statsregeneration20MergeAWBFrameControlEP24ChiFeature2RequestObject+0x3f4>
0x35000 <_ZNK28ChiFeature2Statsregeneration20MergeAWBFrameControlEP24ChiFeature2RequestObject+0x308>
<_ZNK28ChiFeature2Statsregeneration20MergeAWBFrameControlEP24ChiFeature2RequestObject+0x308>
0xe000 <_ZNK28ChiFeature2Statsregeneration20MergeAWBFrameControlEP24ChiFeature2RequestObject+0x280>
0xf000 <_ZNK28ChiFeature2Statsregeneration20MergeAWBFrameControlEP24ChiFeature2RequestObject+0x2a0>
0xa000 <_ZNK28ChiFeature2Statsregeneration20MergeAWBFrameControlEP24ChiFeature2RequestObject+0x290>
0xc000 <_ZNK28ChiFeature2Statsregeneration20MergeAWBFrameControlEP24ChiFeature2RequestObject+0x29c>
0xe000 <_ZNK28ChiFeature2Statsregeneration20MergeAWBFrameControlEP24ChiFeature2RequestObject+0x2c4>
0xf000 <_ZNK28ChiFeature2Statsregeneration20MergeAWBFrameControlEP24ChiFeature2RequestObject+0x2e4>
0xb000 <_ZNK28ChiFeature2Statsregeneration20MergeAWBFrameControlEP24ChiFeature2RequestObject+0x2dc>
0xc000 <_ZNK28ChiFeature2Statsregeneration20MergeAWBFrameControlEP24ChiFeature2RequestObject+0x2e4>
0xd000 <_ZNK28ChiFeature2Statsregeneration20MergeAWBFrameControlEP24ChiFeature2RequestObject+0x2ec>
<_ZNK28ChiFeature2Statsregeneration20MergeAWBFrameControlEP24ChiFeature2RequestObject+0x3f0>
#0, 0x1f44c <_ZNK28ChiFeature2Statsregeneration20MergeAWBFrameControlEP24ChiFeature2RequestObject+0x3f4>
0x35000 <_ZNK28ChiFeature2Statsregeneration20MergeAWBFrameControlEP24ChiFeature2RequestObject+0x3ac>
<_ZNK28ChiFeature2Statsregeneration20MergeAWBFrameControlEP24ChiFeature2RequestObject+0x3ac>
0xe000 <_ZNK28ChiFeature2Statsregeneration20MergeAWBFrameControlEP24ChiFeature2RequestObject+0x324>
0xf000 <_ZNK28ChiFeature2Statsregeneration20MergeAWBFrameControlEP24ChiFeature2RequestObject+0x344>
0xd000 <_ZNK28ChiFeature2Statsregeneration20MergeAWBFrameControlEP24ChiFeature2RequestObject+0x340>
0xc000 <_ZNK28ChiFeature2Statsregeneration20MergeAWBFrameControlEP24ChiFeature2RequestObject+0x340>
0xe000 <_ZNK28ChiFeature2Statsregeneration20MergeAWBFrameControlEP24ChiFeature2RequestObject+0x368>
0xf000 <_ZNK28ChiFeature2Statsregeneration20MergeAWBFrameControlEP24ChiFeature2RequestObject+0x388>
0xb000 <_ZNK28ChiFeature2Statsregeneration20MergeAWBFrameControlEP24ChiFeature2RequestObject+0x380>
0xc000 <_ZNK28ChiFeature2Statsregeneration20MergeAWBFrameControlEP24ChiFeature2RequestObject+0x388>
0xe000 <_ZNK28ChiFeature2Statsregeneration20MergeAWBFrameControlEP24ChiFeature2RequestObject+0x394>
<_ZN6ChiLog9LogSystemEPKcS1_S1_S1_iS1_z@plt>
0x35000 <_ZNK28ChiFeature2Statsregeneration20MergeAWBFrameControlEP24ChiFeature2RequestObject+0x454>
<_ZNK28ChiFeature2Statsregeneration20MergeAWBFrameControlEP24ChiFeature2RequestObject+0xa00>
<_ZNK28ChiFeature2Statsregeneration31OnPopulateConfigurationSettingsEP24ChiFeature2RequestObjectPK21ChiFeature2IdentifierP11ChiMetadata+0xa18>
0x1f4c0 <_ZNK28ChiFeature2Statsregeneration20MergeAWBFrameControlEP24ChiFeature2RequestObject+0x468>
<_ZNK28ChiFeature2Statsregeneration20MergeAWBFrameControlEP24ChiFeature2RequestObject+0xa18>
0x1f488 <_ZNK28ChiFeature2Statsregeneration20MergeAWBFrameControlEP24ChiFeature2RequestObject+0x430>
0x35000 <_ZNK28ChiFeature2Statsregeneration20MergeAWBFrameControlEP24ChiFeature2RequestObject+0x4c8>
<_ZNK28ChiFeature2Statsregeneration20MergeAWBFrameControlEP24ChiFeature2RequestObject+0x49c>
<_ZNK28ChiFeature2Statsregeneration20MergeAWBFrameControlEP24ChiFeature2RequestObject+0x430>
<_ZNK28ChiFeature2Statsregeneration20MergeAWBFrameControlEP24ChiFeature2RequestObject+0x9f8>
<_ZNK28ChiFeature2Statsregeneration20MergeAWBFrameControlEP24ChiFeature2RequestObject+0x510>
0xe000 <_ZNK28ChiFeature2Statsregeneration20MergeAWBFrameControlEP24ChiFeature2RequestObject+0x46c>
0xf000 <_ZNK28ChiFeature2Statsregeneration20MergeAWBFrameControlEP24ChiFeature2RequestObject+0x48c>
0xb000 <_ZNK28ChiFeature2Statsregeneration20MergeAWBFrameControlEP24ChiFeature2RequestObject+0x484>
0xc000 <_ZNK28ChiFeature2Statsregeneration20MergeAWBFrameControlEP24ChiFeature2RequestObject+0x48c>
0xc000 <_ZNK28ChiFeature2Statsregeneration20MergeAWBFrameControlEP24ChiFeature2RequestObject+0x490>
<_ZN6ChiLog9LogSystemEPKcS1_S1_S1_iS1_z@plt>
<_ZNK28ChiFeature2Statsregeneration20MergeAWBFrameControlEP24ChiFeature2RequestObject+0x48c>
<_ZNK28ChiFeature2Statsregeneration20MergeAWBFrameControlEP24ChiFeature2RequestObject+0x4fc>
<_ZNK24ChiFeature2RequestObject26GetFinalBufferMetadataInfoE21ChiFeature2IdentifierPP29ChiFeature2BufferMetadataInfoh@plt>
0x1f554 <_ZNK28ChiFeature2Statsregeneration20MergeAWBFrameControlEP24ChiFeature2RequestObject+0x4fc>
0x1f554 <_ZNK28ChiFeature2Statsregeneration20MergeAWBFrameControlEP24ChiFeature2RequestObject+0x4fc>
<_ZN22CHITargetBufferManager22GetTargetBufferManagerEPv@plt>
<_ZNK28ChiFeature2Statsregeneration20MergeAWBFrameControlEP24ChiFeature2RequestObject+0x9a8>
0x35000 <_ZNK28ChiFeature2Statsregeneration20MergeAWBFrameControlEP24ChiFeature2RequestObject+0x5e0>
<_ZNK28ChiFeature2Statsregeneration20MergeAWBFrameControlEP24ChiFeature2RequestObject+0x9c4>
<_ZNK28ChiFeature2Statsregeneration20MergeAWBFrameControlEP24ChiFeature2RequestObject+0x9e0>
<_ZNK28ChiFeature2Statsregeneration20MergeAWBFrameControlEP24ChiFeature2RequestObject+0x890>
0x1f8e8 <_ZNK28ChiFeature2Statsregeneration20MergeAWBFrameControlEP24ChiFeature2RequestObject+0x890>
<_ZNK28ChiFeature2Statsregeneration20MergeAWBFrameControlEP24ChiFeature2RequestObject+0x890>
0x1f8e8 <_ZNK28ChiFeature2Statsregeneration20MergeAWBFrameControlEP24ChiFeature2RequestObject+0x890>
<_ZNK28ChiFeature2Statsregeneration20MergeAWBFrameControlEP24ChiFeature2RequestObject+0x890>
0x1f8e8 <_ZNK28ChiFeature2Statsregeneration20MergeAWBFrameControlEP24ChiFeature2RequestObject+0x890>
0x1f8e8 <_ZNK28ChiFeature2Statsregeneration20MergeAWBFrameControlEP24ChiFeature2RequestObject+0x890>
<_ZN22CHITargetBufferManager9GetTargetEPvm@plt>
0x1f554 <_ZNK28ChiFeature2Statsregeneration20MergeAWBFrameControlEP24ChiFeature2RequestObject+0x4fc>
<_ZN8ChxUtils17GetVendorTagValueEP11ChiMetadata9VendorTagPPv@plt>
0x1f760 <_ZNK28ChiFeature2Statsregeneration20MergeAWBFrameControlEP24ChiFeature2RequestObject+0x708>
0x35000 <_ZNK28ChiFeature2Statsregeneration20MergeAWBFrameControlEP24ChiFeature2RequestObject+0x6a0>
#5, 0x1f760 <_ZNK28ChiFeature2Statsregeneration20MergeAWBFrameControlEP24ChiFeature2RequestObject+0x708>
0x35000 <_ZNK28ChiFeature2Statsregeneration20MergeAWBFrameControlEP24ChiFeature2RequestObject+0x6b0>
<_ZNK28ChiFeature2Statsregeneration20MergeAWBFrameControlEP24ChiFeature2RequestObject+0x6b8>
0xe000 <_ZNK28ChiFeature2Statsregeneration20MergeAWBFrameControlEP24ChiFeature2RequestObject+0x62c>
0xf000 <_ZNK28ChiFeature2Statsregeneration20MergeAWBFrameControlEP24ChiFeature2RequestObject+0x650>
0xc000 <_ZNK28ChiFeature2Statsregeneration20MergeAWBFrameControlEP24ChiFeature2RequestObject+0x648>
0xc000 <_ZNK28ChiFeature2Statsregeneration20MergeAWBFrameControlEP24ChiFeature2RequestObject+0x64c>
0xe000 <_ZNK28ChiFeature2Statsregeneration20MergeAWBFrameControlEP24ChiFeature2RequestObject+0x674>
0xf000 <_ZNK28ChiFeature2Statsregeneration20MergeAWBFrameControlEP24ChiFeature2RequestObject+0x69c>
0xd000 <_ZNK28ChiFeature2Statsregeneration20MergeAWBFrameControlEP24ChiFeature2RequestObject+0x698>
0xc000 <_ZNK28ChiFeature2Statsregeneration20MergeAWBFrameControlEP24ChiFeature2RequestObject+0x698>
0xb000 <_ZNK28ChiFeature2Statsregeneration20MergeAWBFrameControlEP24ChiFeature2RequestObject+0x698>
<_ZN6ChiLog9LogSystemEPKcS1_S1_S1_iS1_z@plt>
0xe000 <_ZNK28ChiFeature2Statsregeneration20MergeAWBFrameControlEP24ChiFeature2RequestObject+0x6e0>
0xb000 <_ZNK28ChiFeature2Statsregeneration20MergeAWBFrameControlEP24ChiFeature2RequestObject+0x6d8>
0x35000 <_ZNK28ChiFeature2Statsregeneration20MergeAWBFrameControlEP24ChiFeature2RequestObject+0x7e4>
0x1f958 <_ZNK28ChiFeature2Statsregeneration20MergeAWBFrameControlEP24ChiFeature2RequestObject+0x900>
#5, 0x1f554 <_ZNK28ChiFeature2Statsregeneration20MergeAWBFrameControlEP24ChiFeature2RequestObject+0x4fc>
0x35000 <_ZNK28ChiFeature2Statsregeneration20MergeAWBFrameControlEP24ChiFeature2RequestObject+0x7fc>
<_ZNK28ChiFeature2Statsregeneration20MergeAWBFrameControlEP24ChiFeature2RequestObject+0x820>
0xe000 <_ZNK28ChiFeature2Statsregeneration20MergeAWBFrameControlEP24ChiFeature2RequestObject+0x774>
0xf000 <_ZNK28ChiFeature2Statsregeneration20MergeAWBFrameControlEP24ChiFeature2RequestObject+0x798>
0xd000 <_ZNK28ChiFeature2Statsregeneration20MergeAWBFrameControlEP24ChiFeature2RequestObject+0x798>
0xc000 <_ZNK28ChiFeature2Statsregeneration20MergeAWBFrameControlEP24ChiFeature2RequestObject+0x79c>
0xe000 <_ZNK28ChiFeature2Statsregeneration20MergeAWBFrameControlEP24ChiFeature2RequestObject+0x7dc>
0xd000 <_ZNK28ChiFeature2Statsregeneration20MergeAWBFrameControlEP24ChiFeature2RequestObject+0x7f8>
0xf000 <_ZNK28ChiFeature2Statsregeneration20MergeAWBFrameControlEP24ChiFeature2RequestObject+0x810>
0xc000 <_ZNK28ChiFeature2Statsregeneration20MergeAWBFrameControlEP24ChiFeature2RequestObject+0x80c>
0xb000 <_ZNK28ChiFeature2Statsregeneration20MergeAWBFrameControlEP24ChiFeature2RequestObject+0x810>
<_ZN6ChiLog9LogSystemEPKcS1_S1_S1_iS1_z@plt>
<_ZNK28ChiFeature2Statsregeneration20MergeAWBFrameControlEP24ChiFeature2RequestObject+0x4fc>
0x35000 <_ZNK28ChiFeature2Statsregeneration20MergeAWBFrameControlEP24ChiFeature2RequestObject+0x8e8>
#0, 0x1f554 <_ZNK28ChiFeature2Statsregeneration20MergeAWBFrameControlEP24ChiFeature2RequestObject+0x4fc>
0x35000 <_ZNK28ChiFeature2Statsregeneration20MergeAWBFrameControlEP24ChiFeature2RequestObject+0x8f8>
<_ZNK28ChiFeature2Statsregeneration20MergeAWBFrameControlEP24ChiFeature2RequestObject+0x4b0>
0xe000 <_ZNK28ChiFeature2Statsregeneration20MergeAWBFrameControlEP24ChiFeature2RequestObject+0x870>
0xf000 <_ZNK28ChiFeature2Statsregeneration20MergeAWBFrameControlEP24ChiFeature2RequestObject+0x890>
0xb000 <_ZNK28ChiFeature2Statsregeneration20MergeAWBFrameControlEP24ChiFeature2RequestObject+0x884>
0xc000 <_ZNK28ChiFeature2Statsregeneration20MergeAWBFrameControlEP24ChiFeature2RequestObject+0x88c>
<_ZNK28ChiFeature2Statsregeneration20MergeAWBFrameControlEP24ChiFeature2RequestObject+0x4b0>
#0, 0x1f554 <_ZNK28ChiFeature2Statsregeneration20MergeAWBFrameControlEP24ChiFeature2RequestObject+0x4fc>
0x35000 <_ZNK28ChiFeature2Statsregeneration20MergeAWBFrameControlEP24ChiFeature2RequestObject+0x95c>
<_ZNK28ChiFeature2Statsregeneration20MergeAWBFrameControlEP24ChiFeature2RequestObject+0x95c>
0xe000 <_ZNK28ChiFeature2Statsregeneration20MergeAWBFrameControlEP24ChiFeature2RequestObject+0x8d4>
0xf000 <_ZNK28ChiFeature2Statsregeneration20MergeAWBFrameControlEP24ChiFeature2RequestObject+0x8f4>
0xd000 <_ZNK28ChiFeature2Statsregeneration20MergeAWBFrameControlEP24ChiFeature2RequestObject+0x8f0>
0xc000 <_ZNK28ChiFeature2Statsregeneration20MergeAWBFrameControlEP24ChiFeature2RequestObject+0x8f0>
0xe000 <_ZNK28ChiFeature2Statsregeneration20MergeAWBFrameControlEP24ChiFeature2RequestObject+0x918>
0xf000 <_ZNK28ChiFeature2Statsregeneration20MergeAWBFrameControlEP24ChiFeature2RequestObject+0x938>
0xb000 <_ZNK28ChiFeature2Statsregeneration20MergeAWBFrameControlEP24ChiFeature2RequestObject+0x930>
0xc000 <_ZNK28ChiFeature2Statsregeneration20MergeAWBFrameControlEP24ChiFeature2RequestObject+0x938>
0xe000 <_ZNK28ChiFeature2Statsregeneration20MergeAWBFrameControlEP24ChiFeature2RequestObject+0x944>
<_ZN6ChiLog9LogSystemEPKcS1_S1_S1_iS1_z@plt>
<_ZNK28ChiFeature2Statsregeneration20MergeAWBFrameControlEP24ChiFeature2RequestObject+0x4fc>
<_ZNK28ChiFeature2Statsregeneration20MergeAWBFrameControlEP24ChiFeature2RequestObject+0x588>
<_ZNK28ChiFeature2Statsregeneration20MergeAWBFrameControlEP24ChiFeature2RequestObject+0x59c>
<_ZNK28ChiFeature2Statsregeneration20MergeAWBFrameControlEP24ChiFeature2RequestObject+0x5a8>
<_ZNK28ChiFeature2Statsregeneration20MergeAWBFrameControlEP24ChiFeature2RequestObject+0x490>
<_ZNK28ChiFeature2Statsregeneration20MergeAWBFrameControlEP24ChiFeature2RequestObject+0x418>
<_ZN28ChiFeature2Statsregeneration6CreateEP26ChiFeature2CreateInputInfo@plt>
0x1faa0 <_ZNK28ChiFeature2Statsregeneration20MergeAWBFrameControlEP24ChiFeature2RequestObject+0xa48>
0x37000 <_ZNK28ChiFeature2Statsregeneration20MergeAWBFrameControlEP24ChiFeature2RequestObject+0xa8c>
0x1fbc8 <_ZNK28ChiFeature2Statsregeneration20MergeAWBFrameControlEP24ChiFeature2RequestObject+0xb70>
0x1fbc8 <_ZNK28ChiFeature2Statsregeneration20MergeAWBFrameControlEP24ChiFeature2RequestObject+0xb70>
0x1fc98 <_ZNK28ChiFeature2Statsregeneration20MergeAWBFrameControlEP24ChiFeature2RequestObject+0xc40>
0x35000 <_ZNK28ChiFeature2Statsregeneration20MergeAWBFrameControlEP24ChiFeature2RequestObject+0xb2c>
#0, 0x1fd54 <_ZNK28ChiFeature2Statsregeneration20MergeAWBFrameControlEP24ChiFeature2RequestObject+0xcfc>
0x1fd54 <_ZNK28ChiFeature2Statsregeneration20MergeAWBFrameControlEP24ChiFeature2RequestObject+0xcfc>
<_ZN15ExtensionModule11GetInstanceEv@plt>
<_ZN15ExtensionModule28GetPhysicalCameraSensorModesEjPjPP17ChiSensorModeInfo@plt>
0x1ff88 <_ZNK28ChiFeature2Statsregeneration20MergeAWBFrameControlEP24ChiFeature2RequestObject+0xf30>
0x1ff88 <_ZNK28ChiFeature2Statsregeneration20MergeAWBFrameControlEP24ChiFeature2RequestObject+0xf30>
<_ZNK28ChiFeature2Statsregeneration20MergeAWBFrameControlEP24ChiFeature2RequestObject+0xb50>
<_ZNK28ChiFeature2Statsregeneration20MergeAWBFrameControlEP24ChiFeature2RequestObject+0xf30>
<_ZNK28ChiFeature2Statsregeneration20MergeAWBFrameControlEP24ChiFeature2RequestObject+0xb28>
<_ZNK28ChiFeature2Statsregeneration20MergeAWBFrameControlEP24ChiFeature2RequestObject+0xb28>
<_ZNK28ChiFeature2Statsregeneration20MergeAWBFrameControlEP24ChiFeature2RequestObject+0xb40>
0x35000 <_ZNK28ChiFeature2Statsregeneration20MergeAWBFrameControlEP24ChiFeature2RequestObject+0xbc8>
#0, 0x1fbe0 <_ZNK28ChiFeature2Statsregeneration20MergeAWBFrameControlEP24ChiFeature2RequestObject+0xb88>
<_ZNK28ChiFeature2Statsregeneration20MergeAWBFrameControlEP24ChiFeature2RequestObject+0x14c4>
0x35000 <_ZNK28ChiFeature2Statsregeneration20MergeAWBFrameControlEP24ChiFeature2RequestObject+0xbe0>
<_ZNK28ChiFeature2Statsregeneration20MergeAWBFrameControlEP24ChiFeature2RequestObject+0xbe8>
0xe000 <_ZNK28ChiFeature2Statsregeneration20MergeAWBFrameControlEP24ChiFeature2RequestObject+0xb58>
0xf000 <_ZNK28ChiFeature2Statsregeneration20MergeAWBFrameControlEP24ChiFeature2RequestObject+0xb78>
0xe000 <_ZNK28ChiFeature2Statsregeneration20MergeAWBFrameControlEP24ChiFeature2RequestObject+0xb78>
0xd000 <_ZNK28ChiFeature2Statsregeneration20MergeAWBFrameControlEP24ChiFeature2RequestObject+0xb78>
0xe000 <_ZNK28ChiFeature2Statsregeneration20MergeAWBFrameControlEP24ChiFeature2RequestObject+0xba4>
0xf000 <_ZNK28ChiFeature2Statsregeneration20MergeAWBFrameControlEP24ChiFeature2RequestObject+0xbc4>
0xb000 <_ZNK28ChiFeature2Statsregeneration20MergeAWBFrameControlEP24ChiFeature2RequestObject+0xbbc>
0xd000 <_ZNK28ChiFeature2Statsregeneration20MergeAWBFrameControlEP24ChiFeature2RequestObject+0xbc8>
0xc000 <_ZNK28ChiFeature2Statsregeneration20MergeAWBFrameControlEP24ChiFeature2RequestObject+0xbc8>
<_ZN6ChiLog9LogSystemEPKcS1_S1_S1_iS1_z@plt>
<_ZNK28ChiFeature2Statsregeneration20MergeAWBFrameControlEP24ChiFeature2RequestObject+0x14c4>
0x35000 <_ZNK28ChiFeature2Statsregeneration20MergeAWBFrameControlEP24ChiFeature2RequestObject+0xc98>
#0, 0x20048 <_ZNK28ChiFeature2Statsregeneration20MergeAWBFrameControlEP24ChiFeature2RequestObject+0xff0>
0x35000 <_ZNK28ChiFeature2Statsregeneration20MergeAWBFrameControlEP24ChiFeature2RequestObject+0xca8>
<_ZNK28ChiFeature2Statsregeneration20MergeAWBFrameControlEP24ChiFeature2RequestObject+0xcb0>
0xb000 <_ZNK28ChiFeature2Statsregeneration20MergeAWBFrameControlEP24ChiFeature2RequestObject+0xc18>
0xf000 <_ZNK28ChiFeature2Statsregeneration20MergeAWBFrameControlEP24ChiFeature2RequestObject+0xc44>
0xc000 <_ZNK28ChiFeature2Statsregeneration20MergeAWBFrameControlEP24ChiFeature2RequestObject+0xc3c>
0xc000 <_ZNK28ChiFeature2Statsregeneration20MergeAWBFrameControlEP24ChiFeature2RequestObject+0xc40>
0xb000 <_ZNK28ChiFeature2Statsregeneration20MergeAWBFrameControlEP24ChiFeature2RequestObject+0xc60>
0xf000 <_ZNK28ChiFeature2Statsregeneration20MergeAWBFrameControlEP24ChiFeature2RequestObject+0xc8c>
0xb000 <_ZNK28ChiFeature2Statsregeneration20MergeAWBFrameControlEP24ChiFeature2RequestObject+0xc84>
0xc000 <_ZNK28ChiFeature2Statsregeneration20MergeAWBFrameControlEP24ChiFeature2RequestObject+0xc8c>
0xe000 <_ZNK28ChiFeature2Statsregeneration20MergeAWBFrameControlEP24ChiFeature2RequestObject+0xc98>
<_ZN6ChiLog9LogSystemEPKcS1_S1_S1_iS1_z@plt>
<_ZNK28ChiFeature2Statsregeneration20MergeAWBFrameControlEP24ChiFeature2RequestObject+0xff0>
0x1ff58 <_ZNK28ChiFeature2Statsregeneration20MergeAWBFrameControlEP24ChiFeature2RequestObject+0xf00>
0x10000 <_ZNK28ChiFeature2Statsregeneration20MergeAWBFrameControlEP24ChiFeature2RequestObject+0xcc8>
0xb000 <_ZNK28ChiFeature2Statsregeneration20MergeAWBFrameControlEP24ChiFeature2RequestObject+0xcbc>
0xc000 <_ZNK28ChiFeature2Statsregeneration20MergeAWBFrameControlEP24ChiFeature2RequestObject+0xcc4>
<_ZNK28ChiFeature2Statsregeneration20MergeAWBFrameControlEP24ChiFeature2RequestObject+0xd4c>
<_ZNK28ChiFeature2Statsregeneration20MergeAWBFrameControlEP24ChiFeature2RequestObject+0xf08>
0x1feb8 <_ZNK28ChiFeature2Statsregeneration20MergeAWBFrameControlEP24ChiFeature2RequestObject+0xe60>
0x1feb8 <_ZNK28ChiFeature2Statsregeneration20MergeAWBFrameControlEP24ChiFeature2RequestObject+0xe60>
0x1feb8 <_ZNK28ChiFeature2Statsregeneration20MergeAWBFrameControlEP24ChiFeature2RequestObject+0xe60>
#3, 0x1fe98 <_ZNK28ChiFeature2Statsregeneration20MergeAWBFrameControlEP24ChiFeature2RequestObject+0xe40>
0x35000 <_ZNK28ChiFeature2Statsregeneration20MergeAWBFrameControlEP24ChiFeature2RequestObject+0xdd4>
<_ZNK28ChiFeature2Statsregeneration20MergeAWBFrameControlEP24ChiFeature2RequestObject+0xde4>
0xf000 <_ZNK28ChiFeature2Statsregeneration20MergeAWBFrameControlEP24ChiFeature2RequestObject+0xd70>
0xd000 <_ZNK28ChiFeature2Statsregeneration20MergeAWBFrameControlEP24ChiFeature2RequestObject+0xd6c>
0xd000 <_ZNK28ChiFeature2Statsregeneration20MergeAWBFrameControlEP24ChiFeature2RequestObject+0xdb8>
0xf000 <_ZNK28ChiFeature2Statsregeneration20MergeAWBFrameControlEP24ChiFeature2RequestObject+0xdc8>
0xe000 <_ZNK28ChiFeature2Statsregeneration20MergeAWBFrameControlEP24ChiFeature2RequestObject+0xdc8>
<_ZN6ChiLog9LogSystemEPKcS1_S1_S1_iS1_z@plt>
0x35000 <_ZNK28ChiFeature2Statsregeneration20MergeAWBFrameControlEP24ChiFeature2RequestObject+0xe90>
<_ZNK28ChiFeature2Statsregeneration20MergeAWBFrameControlEP24ChiFeature2RequestObject+0xd38>
<_ZNK28ChiFeature2Statsregeneration20MergeAWBFrameControlEP24ChiFeature2RequestObject+0xd38>
<_ZNK28ChiFeature2Statsregeneration20MergeAWBFrameControlEP24ChiFeature2RequestObject+0xf0c>
#0, 0x1ff90 <_ZNK28ChiFeature2Statsregeneration20MergeAWBFrameControlEP24ChiFeature2RequestObject+0xf38>
0x35000 <_ZNK28ChiFeature2Statsregeneration20MergeAWBFrameControlEP24ChiFeature2RequestObject+0xec4>
<_ZNK28ChiFeature2Statsregeneration20MergeAWBFrameControlEP24ChiFeature2RequestObject+0xebc>
0xf000 <_ZNK28ChiFeature2Statsregeneration20MergeAWBFrameControlEP24ChiFeature2RequestObject+0xe54>
0xf000 <_ZNK28ChiFeature2Statsregeneration20MergeAWBFrameControlEP24ChiFeature2RequestObject+0xe58>
0xc000 <_ZNK28ChiFeature2Statsregeneration20MergeAWBFrameControlEP24ChiFeature2RequestObject+0xe50>
0xf000 <_ZNK28ChiFeature2Statsregeneration20MergeAWBFrameControlEP24ChiFeature2RequestObject+0xe90>
0xb000 <_ZNK28ChiFeature2Statsregeneration20MergeAWBFrameControlEP24ChiFeature2RequestObject+0xe88>
0xc000 <_ZNK28ChiFeature2Statsregeneration20MergeAWBFrameControlEP24ChiFeature2RequestObject+0xe90>
0xb000 <_ZNK28ChiFeature2Statsregeneration20MergeAWBFrameControlEP24ChiFeature2RequestObject+0xe90>
<_ZN6ChiLog9LogSystemEPKcS1_S1_S1_iS1_z@plt>
<_ZNK28ChiFeature2Statsregeneration20MergeAWBFrameControlEP24ChiFeature2RequestObject+0xf30>
<_ZNK28ChiFeature2Statsregeneration20MergeAWBFrameControlEP24ChiFeature2RequestObject+0xf10>
<_ZN15UsecaseSelector18getSensorDimensionEjPK28camera3_stream_configurationPjS3_S3_jjPK17LogicalCameraInfo@plt>
0x35000 <_ZNK28ChiFeature2Statsregeneration20MergeAWBFrameControlEP24ChiFeature2RequestObject+0xf88>
#3, 0x20048 <_ZNK28ChiFeature2Statsregeneration20MergeAWBFrameControlEP24ChiFeature2RequestObject+0xff0>
0x35000 <_ZNK28ChiFeature2Statsregeneration20MergeAWBFrameControlEP24ChiFeature2RequestObject+0xf98>
0xb000 <_ZNK28ChiFeature2Statsregeneration20MergeAWBFrameControlEP24ChiFeature2RequestObject+0xef4>
<_ZNK28ChiFeature2Statsregeneration20MergeAWBFrameControlEP24ChiFeature2RequestObject+0xfa4>
0xf000 <_ZNK28ChiFeature2Statsregeneration20MergeAWBFrameControlEP24ChiFeature2RequestObject+0xf34>
0xb000 <_ZNK28ChiFeature2Statsregeneration20MergeAWBFrameControlEP24ChiFeature2RequestObject+0xf2c>
0xc000 <_ZNK28ChiFeature2Statsregeneration20MergeAWBFrameControlEP24ChiFeature2RequestObject+0xf34>
0xf000 <_ZNK28ChiFeature2Statsregeneration20MergeAWBFrameControlEP24ChiFeature2RequestObject+0xf80>
0xd000 <_ZNK28ChiFeature2Statsregeneration20MergeAWBFrameControlEP24ChiFeature2RequestObject+0xf7c>
0xc000 <_ZNK28ChiFeature2Statsregeneration20MergeAWBFrameControlEP24ChiFeature2RequestObject+0xf7c>
0xf000 <_ZNK28ChiFeature2Statsregeneration20MergeAWBFrameControlEP24ChiFeature2RequestObject+0xf8c>
<_ZN6ChiLog9LogSystemEPKcS1_S1_S1_iS1_z@plt>
0x37000 <_ZNK28ChiFeature2Statsregeneration20MergeAWBFrameControlEP24ChiFeature2RequestObject+0x1058>
0x20084 <_ZNK28ChiFeature2Statsregeneration20MergeAWBFrameControlEP24ChiFeature2RequestObject+0x102c>
<_ZNK28ChiFeature2Statsregeneration20MergeAWBFrameControlEP24ChiFeature2RequestObject+0x1030>
<_ZNK28ChiFeature2Statsregeneration20MergeAWBFrameControlEP24ChiFeature2RequestObject+0x1508>
0x200bc <_ZNK28ChiFeature2Statsregeneration20MergeAWBFrameControlEP24ChiFeature2RequestObject+0x1064>
<_ZNK28ChiFeature2Statsregeneration20MergeAWBFrameControlEP24ChiFeature2RequestObject+0x1508>
<_ZNK28ChiFeature2Statsregeneration20MergeAWBFrameControlEP24ChiFeature2RequestObject+0x1118>
0x35000 <_ZNK28ChiFeature2Statsregeneration20MergeAWBFrameControlEP24ChiFeature2RequestObject+0x10b8>
#0, 0x2016c <_ZNK28ChiFeature2Statsregeneration20MergeAWBFrameControlEP24ChiFeature2RequestObject+0x1114>
0x35000 <_ZNK28ChiFeature2Statsregeneration20MergeAWBFrameControlEP24ChiFeature2RequestObject+0x10c8>
<_ZNK28ChiFeature2Statsregeneration20MergeAWBFrameControlEP24ChiFeature2RequestObject+0x10cc>
0xe000 <_ZNK28ChiFeature2Statsregeneration20MergeAWBFrameControlEP24ChiFeature2RequestObject+0x1040>
0xf000 <_ZNK28ChiFeature2Statsregeneration20MergeAWBFrameControlEP24ChiFeature2RequestObject+0x1060>
0xb000 <_ZNK28ChiFeature2Statsregeneration20MergeAWBFrameControlEP24ChiFeature2RequestObject+0x1054>
0xd000 <_ZNK28ChiFeature2Statsregeneration20MergeAWBFrameControlEP24ChiFeature2RequestObject+0x1060>
0xe000 <_ZNK28ChiFeature2Statsregeneration20MergeAWBFrameControlEP24ChiFeature2RequestObject+0x1084>
0xf000 <_ZNK28ChiFeature2Statsregeneration20MergeAWBFrameControlEP24ChiFeature2RequestObject+0x10a4>
0xb000 <_ZNK28ChiFeature2Statsregeneration20MergeAWBFrameControlEP24ChiFeature2RequestObject+0x109c>
0xd000 <_ZNK28ChiFeature2Statsregeneration20MergeAWBFrameControlEP24ChiFeature2RequestObject+0x10a8>
0xd000 <_ZNK28ChiFeature2Statsregeneration20MergeAWBFrameControlEP24ChiFeature2RequestObject+0x10ac>
<_ZN6ChiLog9LogSystemEPKcS1_S1_S1_iS1_z@plt>
0x35000 <_ZNK28ChiFeature2Statsregeneration20MergeAWBFrameControlEP24ChiFeature2RequestObject+0x116c>
0x201cc <_ZNK28ChiFeature2Statsregeneration20MergeAWBFrameControlEP24ChiFeature2RequestObject+0x1174>
<_ZNK28ChiFeature2Statsregeneration20MergeAWBFrameControlEP24ChiFeature2RequestObject+0x1178>
<_ZNK28ChiFeature2Statsregeneration20MergeAWBFrameControlEP24ChiFeature2RequestObject+0x1508>
0x201fc <_ZNK28ChiFeature2Statsregeneration20MergeAWBFrameControlEP24ChiFeature2RequestObject+0x11a4>
<_ZNK28ChiFeature2Statsregeneration20MergeAWBFrameControlEP24ChiFeature2RequestObject+0x1508>
<_ZNK28ChiFeature2Statsregeneration20MergeAWBFrameControlEP24ChiFeature2RequestObject+0x1274>
0x35000 <_ZNK28ChiFeature2Statsregeneration20MergeAWBFrameControlEP24ChiFeature2RequestObject+0x11fc>
#0, 0x20218 <_ZNK28ChiFeature2Statsregeneration20MergeAWBFrameControlEP24ChiFeature2RequestObject+0x11c0>
<_ZNK28ChiFeature2Statsregeneration20MergeAWBFrameControlEP24ChiFeature2RequestObject+0x1270>
0x35000 <_ZNK28ChiFeature2Statsregeneration20MergeAWBFrameControlEP24ChiFeature2RequestObject+0x1214>
<_ZNK28ChiFeature2Statsregeneration20MergeAWBFrameControlEP24ChiFeature2RequestObject+0x1220>
0xe000 <_ZNK28ChiFeature2Statsregeneration20MergeAWBFrameControlEP24ChiFeature2RequestObject+0x1190>
0xf000 <_ZNK28ChiFeature2Statsregeneration20MergeAWBFrameControlEP24ChiFeature2RequestObject+0x11b0>
0xf000 <_ZNK28ChiFeature2Statsregeneration20MergeAWBFrameControlEP24ChiFeature2RequestObject+0x11b4>
0xd000 <_ZNK28ChiFeature2Statsregeneration20MergeAWBFrameControlEP24ChiFeature2RequestObject+0x11b0>
0xe000 <_ZNK28ChiFeature2Statsregeneration20MergeAWBFrameControlEP24ChiFeature2RequestObject+0x11d8>
0xf000 <_ZNK28ChiFeature2Statsregeneration20MergeAWBFrameControlEP24ChiFeature2RequestObject+0x11f8>
0xb000 <_ZNK28ChiFeature2Statsregeneration20MergeAWBFrameControlEP24ChiFeature2RequestObject+0x11f0>
0xd000 <_ZNK28ChiFeature2Statsregeneration20MergeAWBFrameControlEP24ChiFeature2RequestObject+0x11fc>
0xe000 <_ZNK28ChiFeature2Statsregeneration20MergeAWBFrameControlEP24ChiFeature2RequestObject+0x1204>
<_ZN6ChiLog9LogSystemEPKcS1_S1_S1_iS1_z@plt>
0x20300 <_ZNK28ChiFeature2Statsregeneration20MergeAWBFrameControlEP24ChiFeature2RequestObject+0x12a8>
<_ZNK28ChiFeature2Statsregeneration20MergeAWBFrameControlEP24ChiFeature2RequestObject+0x12ac>
<_ZNK28ChiFeature2Statsregeneration20MergeAWBFrameControlEP24ChiFeature2RequestObject+0x1508>
0x20334 <_ZNK28ChiFeature2Statsregeneration20MergeAWBFrameControlEP24ChiFeature2RequestObject+0x12dc>
<_ZNK28ChiFeature2Statsregeneration20MergeAWBFrameControlEP24ChiFeature2RequestObject+0x1508>
<_ZNK28ChiFeature2Statsregeneration20MergeAWBFrameControlEP24ChiFeature2RequestObject+0x1390>
0x35000 <_ZNK28ChiFeature2Statsregeneration20MergeAWBFrameControlEP24ChiFeature2RequestObject+0x1330>
#0, 0x203e4 <_ZNK28ChiFeature2Statsregeneration20MergeAWBFrameControlEP24ChiFeature2RequestObject+0x138c>
0x35000 <_ZNK28ChiFeature2Statsregeneration20MergeAWBFrameControlEP24ChiFeature2RequestObject+0x1340>
<_ZNK28ChiFeature2Statsregeneration20MergeAWBFrameControlEP24ChiFeature2RequestObject+0x1344>
0xe000 <_ZNK28ChiFeature2Statsregeneration20MergeAWBFrameControlEP24ChiFeature2RequestObject+0x12b8>
0xf000 <_ZNK28ChiFeature2Statsregeneration20MergeAWBFrameControlEP24ChiFeature2RequestObject+0x12d8>
0xa000 <_ZNK28ChiFeature2Statsregeneration20MergeAWBFrameControlEP24ChiFeature2RequestObject+0x12c8>
0xd000 <_ZNK28ChiFeature2Statsregeneration20MergeAWBFrameControlEP24ChiFeature2RequestObject+0x12d8>
0xe000 <_ZNK28ChiFeature2Statsregeneration20MergeAWBFrameControlEP24ChiFeature2RequestObject+0x12fc>
0xf000 <_ZNK28ChiFeature2Statsregeneration20MergeAWBFrameControlEP24ChiFeature2RequestObject+0x131c>
0xb000 <_ZNK28ChiFeature2Statsregeneration20MergeAWBFrameControlEP24ChiFeature2RequestObject+0x1314>
0xd000 <_ZNK28ChiFeature2Statsregeneration20MergeAWBFrameControlEP24ChiFeature2RequestObject+0x1320>
0xd000 <_ZNK28ChiFeature2Statsregeneration20MergeAWBFrameControlEP24ChiFeature2RequestObject+0x1324>
<_ZN6ChiLog9LogSystemEPKcS1_S1_S1_iS1_z@plt>
0x20420 <_ZNK28ChiFeature2Statsregeneration20MergeAWBFrameControlEP24ChiFeature2RequestObject+0x13c8>
<_ZNK28ChiFeature2Statsregeneration20MergeAWBFrameControlEP24ChiFeature2RequestObject+0x13cc>
<_ZNK28ChiFeature2Statsregeneration20MergeAWBFrameControlEP24ChiFeature2RequestObject+0x1508>
0x20448 <_ZNK28ChiFeature2Statsregeneration20MergeAWBFrameControlEP24ChiFeature2RequestObject+0x13f0>
<_ZNK28ChiFeature2Statsregeneration20MergeAWBFrameControlEP24ChiFeature2RequestObject+0x1508>
<_ZNK28ChiFeature2Statsregeneration20MergeAWBFrameControlEP24ChiFeature2RequestObject+0x149c>
0x35000 <_ZNK28ChiFeature2Statsregeneration20MergeAWBFrameControlEP24ChiFeature2RequestObject+0x1444>
#0, 0x204f0 <_ZNK28ChiFeature2Statsregeneration20MergeAWBFrameControlEP24ChiFeature2RequestObject+0x1498>
0x35000 <_ZNK28ChiFeature2Statsregeneration20MergeAWBFrameControlEP24ChiFeature2RequestObject+0x1454>
0xe000 <_ZNK28ChiFeature2Statsregeneration20MergeAWBFrameControlEP24ChiFeature2RequestObject+0x13bc>
<_ZNK28ChiFeature2Statsregeneration20MergeAWBFrameControlEP24ChiFeature2RequestObject+0x1458>
0xf000 <_ZNK28ChiFeature2Statsregeneration20MergeAWBFrameControlEP24ChiFeature2RequestObject+0x13ec>
0xf000 <_ZNK28ChiFeature2Statsregeneration20MergeAWBFrameControlEP24ChiFeature2RequestObject+0x13f0>
0xd000 <_ZNK28ChiFeature2Statsregeneration20MergeAWBFrameControlEP24ChiFeature2RequestObject+0x13ec>
0xf000 <_ZNK28ChiFeature2Statsregeneration20MergeAWBFrameControlEP24ChiFeature2RequestObject+0x1428>
0xb000 <_ZNK28ChiFeature2Statsregeneration20MergeAWBFrameControlEP24ChiFeature2RequestObject+0x1420>
0xd000 <_ZNK28ChiFeature2Statsregeneration20MergeAWBFrameControlEP24ChiFeature2RequestObject+0x142c>
0xe000 <_ZNK28ChiFeature2Statsregeneration20MergeAWBFrameControlEP24ChiFeature2RequestObject+0x1434>
<_ZN6ChiLog9LogSystemEPKcS1_S1_S1_iS1_z@plt>
<_ZNK28ChiFeature2Statsregeneration20MergeAWBFrameControlEP24ChiFeature2RequestObject+0x1500>
<_ZNK28ChiFeature2Statsregeneration20MergeAWBFrameControlEP24ChiFeature2RequestObject+0x1560>
<_ZNK28ChiFeature2Statsregeneration20MergeAWBFrameControlEP24ChiFeature2RequestObject+0x1620>
0x2067c <_ZNK28ChiFeature2Statsregeneration20MergeAWBFrameControlEP24ChiFeature2RequestObject+0x1624>
<_ZNK28ChiFeature2Statsregeneration20MergeAWBFrameControlEP24ChiFeature2RequestObject+0x15a8>
0x20604 <_ZNK28ChiFeature2Statsregeneration20MergeAWBFrameControlEP24ChiFeature2RequestObject+0x15ac>
<_ZNK28ChiFeature2Statsregeneration20MergeAWBFrameControlEP24ChiFeature2RequestObject+0x15bc>
<_ZNK28ChiFeature2Statsregeneration20MergeAWBFrameControlEP24ChiFeature2RequestObject+0x15e8>
<_ZNK28ChiFeature2Statsregeneration20MergeAWBFrameControlEP24ChiFeature2RequestObject+0x161c>
0x205a0 <_ZNK28ChiFeature2Statsregeneration20MergeAWBFrameControlEP24ChiFeature2RequestObject+0x1548>
0x20674 <_ZNK28ChiFeature2Statsregeneration20MergeAWBFrameControlEP24ChiFeature2RequestObject+0x161c>
<_ZNKSt3__120__vector_base_commonILb1EE20__throw_length_errorEv@plt>
0x206c8 <_ZNK28ChiFeature2Statsregeneration20MergeAWBFrameControlEP24ChiFeature2RequestObject+0x1670>
0xd000 <_ZNK28ChiFeature2Statsregeneration20MergeAWBFrameControlEP24ChiFeature2RequestObject+0x15ec>
0x33000 <_ZNK28ChiFeature2Statsregeneration20MergeAWBFrameControlEP24ChiFeature2RequestObject+0x1688>
0x33000 <_ZNK28ChiFeature2Statsregeneration20MergeAWBFrameControlEP24ChiFeature2RequestObject+0x168c>
0x33000 <_ZNK28ChiFeature2Statsregeneration20MergeAWBFrameControlEP24ChiFeature2RequestObject+0x1690>
0x33000 <_ZNK28ChiFeature2Statsregeneration20MergeAWBFrameControlEP24ChiFeature2RequestObject+0x169c>

0x224ec <_ZN5Mutex10InitializeEv+0x3c>
<_ZN5Mutex10InitializeEv+0x74>
0x2251c <_ZN5Mutex10InitializeEv+0x6c>
0x2251c <_ZN5Mutex10InitializeEv+0x6c>
<_ZN5Mutex10InitializeEv+0x9c>

<_ZN5Mutex7DestroyEv+0x24>




0x22628 <_ZN5Mutex15GetNativeHandleEv+0x68>
0x22620 <_ZN5Mutex15GetNativeHandleEv+0x60>
<_ZN5Mutex15GetNativeHandleEv+0x68>

0x22664 <_ZN9Condition10InitializeEv+0x2c>

<_ZN9Condition7DestroyEv+0x24>


<_ZN9Condition9TimedWaitEP15pthread_mutex_tj+0xf4>
<_ZN9Condition9TimedWaitEP15pthread_mutex_tj+0xf4>
<_ZN9Condition9TimedWaitEP15pthread_mutex_tj+0xf8>


0x2280c <_ZN9Condition9BroadcastEv+0x3c>


<_ZNSt3__15mutex4lockEv@plt>
<_ZN9Semaphore16NotifyAllThreadsEv+0xf0>
<_ZN9Semaphore16NotifyAllThreadsEv+0xd8>
0x35000 <_ZN9Semaphore16NotifyAllThreadsEv+0x7c>
#1, 0x22900 <_ZN9Semaphore16NotifyAllThreadsEv+0xd8>
0x35000 <_ZN9Semaphore16NotifyAllThreadsEv+0x8c>
0xd000 <_ZN9Semaphore10InitializeEi>
<_ZN9Semaphore16NotifyAllThreadsEv+0x98>
0xf000 <_ZN9Semaphore16NotifyAllThreadsEv+0x24>
0xd000 <_ZN9Semaphore16NotifyAllThreadsEv+0x20>
0xa000 <_ZN9Semaphore16NotifyAllThreadsEv+0x18>
0xb000 <_ZN9Semaphore16NotifyAllThreadsEv+0x50>
0xe000 <_ZN9Semaphore16NotifyAllThreadsEv+0x64>
0xa000 <_ZN9Semaphore16NotifyAllThreadsEv+0x58>
0xb000 <_ZN9Semaphore16NotifyAllThreadsEv+0x60>
<_ZN6ChiLog9LogSystemEPKcS1_S1_S1_iS1_z@plt>
<_ZNSt3__118condition_variable10notify_allEv@plt>
<_ZNSt3__15mutex6unlockEv@plt>

<_ZNSt3__15mutex4lockEv@plt>
0x35000 <_ZN9Semaphore5ResetEv+0x60>
#3, 0x229e4 <_ZN9Semaphore5ResetEv+0xc4>
0x35000 <_ZN9Semaphore5ResetEv+0x78>
0xd000 <_ZN9Semaphore16NotifyAllThreadsEv+0xd4>
<_ZN9Semaphore5ResetEv+0x84>
0xf000 <_ZN9Semaphore5ResetEv+0x10>
0xc000 <_ZN9Semaphore5ResetEv+0x8>
0xe000 <_ZN9Semaphore5ResetEv+0x14>
0xd000 <_ZN9Semaphore5ResetEv+0x44>
0xf000 <_ZN9Semaphore5ResetEv+0x54>
0xe000 <_ZN9Semaphore5ResetEv+0x54>
0xb000 <_ZN9Semaphore5ResetEv+0x4c>
<_ZN6ChiLog9LogSystemEPKcS1_S1_S1_iS1_z@plt>
<_ZNSt3__118condition_variable10notify_allEv@plt>
<_ZNSt3__15mutex6unlockEv@plt>

<_ZNSt3__15mutex4lockEv@plt>
0x22a54 <_ZN9Semaphore16WaitForSemaphoreEv+0x54>
<_ZN9Semaphore16WaitForSemaphoreEv+0x250>
0x10000 <_ZN9Semaphore16WaitForSemaphoreEv+0xc>
0x10000 <_ZN9Semaphore16WaitForSemaphoreEv+0x10>
0x35000 <_ZN9Semaphore16WaitForSemaphoreEv+0xac>
0xd000 <_ZN9Semaphore16WaitForSemaphoreEv+0x14>
0xb000 <_ZN9Semaphore16WaitForSemaphoreEv+0x18>
<_ZN9Semaphore16WaitForSemaphoreEv+0xe8>
0xd000 <_ZN9Semaphore16WaitForSemaphoreEv+0x64>
0xf000 <_ZN9Semaphore16WaitForSemaphoreEv+0x74>
0xd000 <_ZN9Semaphore16WaitForSemaphoreEv+0x70>
<_ZN6ChiLog9LogSystemEPKcS1_S1_S1_iS1_z@plt>
0x22c38 <_ZN9Semaphore16WaitForSemaphoreEv+0x238>
<_ZNSt3__16chrono12steady_clock3nowEv@plt>
<_ZNSt3__16chrono12system_clock3nowEv@plt>
<_ZN9Semaphore16WaitForSemaphoreEv+0x130>
<_ZN9Semaphore16WaitForSemaphoreEv+0x28c>
<_ZN9Semaphore16WaitForSemaphoreEv+0x134>
<_ZN9Semaphore16WaitForSemaphoreEv+0x290>
<_ZNSt3__118condition_variable15__do_timed_waitERNS_11unique_lockINS_5mutexEEENS_6chrono10time_pointINS5_12system_clockENS5_8durationIxNS_5ratioILl1ELl1000000000EEEEEEE@plt>
<_ZNSt3__16chrono12steady_clock3nowEv@plt>
<_ZN9Semaphore16WaitForSemaphoreEv+0x288>
<_ZN9Semaphore16WaitForSemaphoreEv+0x1ac>
#3, 0x22ae0 <_ZN9Semaphore16WaitForSemaphoreEv+0xe0>
0x35000 <_ZN9Semaphore16WaitForSemaphoreEv+0x1a8>
<_ZN9Semaphore16WaitForSemaphoreEv+0xa4>
0xf000 <_ZN9Semaphore16WaitForSemaphoreEv+0x138>
0xe000 <_ZN9Semaphore16WaitForSemaphoreEv+0x138>
<_ZN9Semaphore16WaitForSemaphoreEv+0xa4>
#0, 0x22ae0 <_ZN9Semaphore16WaitForSemaphoreEv+0xe0>
0x35000 <_ZN9Semaphore16WaitForSemaphoreEv+0x1fc>
<_ZN9Semaphore16WaitForSemaphoreEv+0x1fc>
0xf000 <_ZN9Semaphore16WaitForSemaphoreEv+0x18c>
0xe000 <_ZN9Semaphore16WaitForSemaphoreEv+0x18c>
0xf000 <_ZN9Semaphore16WaitForSemaphoreEv+0x1c4>
0xb000 <_ZN9Semaphore16WaitForSemaphoreEv+0x1bc>
0xf000 <_ZN9Semaphore16WaitForSemaphoreEv+0x1d0>
<_ZN9Semaphore16WaitForSemaphoreEv+0xdc>
0x22c58 <_ZN9Semaphore16WaitForSemaphoreEv+0x258>
<_ZNSt3__15mutex6unlockEv@plt>
<_ZN9Semaphore16WaitForSemaphoreEv+0x294>

0x22ccc <_ZN9Semaphore7DestroyEv+0x34>
<_ZNSt3__118condition_variableD1Ev@plt>
<_ZNSt3__15mutexD1Ev@plt>
0x22cf4 <_ZN9Semaphore7DestroyEv+0x5c>
<_ZN9Semaphore7DestroyEv+0x64>
<_ZN9Semaphore7DestroyEv+0x68>
<_ZN9Semaphore7DestroyEv+0xc8>
0x22d4c <_ZN9Semaphore7DestroyEv+0xb4>
<_ZN9Semaphore7DestroyEv+0xd0>
<_ZN9Semaphore7DestroyEv+0xd4>
<_ZN9Semaphore7DestroyEv+0x14c>
0x22da0 <_ZN9Semaphore7DestroyEv+0x108>
<_ZN9Semaphore7DestroyEv+0x15c>
<_ZN9Semaphore7DestroyEv+0x160>
0x22dc8 <_ZN9Semaphore7DestroyEv+0x130>
<_ZN9Semaphore7DestroyEv+0x15c>
<_ZN9Semaphore7DestroyEv+0x160>
0x10000 <_ZN9Semaphore7DestroyEv+0x12c>
<_ZN9Semaphore7DestroyEv+0x25c>
0x22f88 <_ZN9Semaphore7DestroyEv+0x2f0>
0x22f88 <_ZN9Semaphore7DestroyEv+0x2f0>
0x22fec <_ZN9Semaphore7DestroyEv+0x354>
0x23074 <_ZN9Semaphore7DestroyEv+0x3dc>
0x23090 <_ZN9Semaphore7DestroyEv+0x3f8>
0x230a8 <_ZN9Semaphore7DestroyEv+0x410>
0x230c0 <_ZN9Semaphore7DestroyEv+0x428>
0x35000 <_ZN9Semaphore7DestroyEv+0x494>
#6, 0x23198 <_ZN9Semaphore7DestroyEv+0x500>
0x35000 <_ZN9Semaphore7DestroyEv+0x4a8>
0xd000 <_ZN9Semaphore7DestroyEv+0x40c>
<_ZN9Semaphore7DestroyEv+0x4bc>
0xf000 <_ZN9Semaphore7DestroyEv+0x440>
0xe000 <_ZN9Semaphore7DestroyEv+0x440>
0xb000 <_ZN9Semaphore7DestroyEv+0x438>
0xb000 <_ZN9Semaphore7DestroyEv+0x470>
0xe000 <_ZN9Semaphore7DestroyEv+0x484>
0xb000 <_ZN9Semaphore7DestroyEv+0x47c>
0xc000 <_ZN9Semaphore7DestroyEv+0x484>
<_ZN6ChiLog9LogSystemEPKcS1_S1_S1_iS1_z@plt>
0x231b0 <_ZN9Semaphore7DestroyEv+0x518>
0x232a4 <_ZN9Semaphore7DestroyEv+0x60c>
0x35000 <_ZN9Semaphore7DestroyEv+0x58c>
#1, 0x232a4 <_ZN9Semaphore7DestroyEv+0x60c>
0x35000 <_ZN9Semaphore7DestroyEv+0x59c>
0xd000 <_ZN9Semaphore7DestroyEv+0x500>
<_ZN9Semaphore7DestroyEv+0x5bc>
0xf000 <_ZN9Semaphore7DestroyEv+0x53c>
0xd000 <_ZN9Semaphore7DestroyEv+0x538>
0xd000 <_ZN9Semaphore7DestroyEv+0x53c>
0xe000 <_ZN9Semaphore7DestroyEv+0x588>
0xb000 <_ZN9Semaphore7DestroyEv+0x580>
0xd000 <_ZN9Semaphore7DestroyEv+0x58c>
0xd000 <_ZN9Semaphore7DestroyEv+0x590>
<_ZN6ChiLog9LogSystemEPKcS1_S1_S1_iS1_z@plt>
<_ZN15ExtensionModule11GetInstanceEv@plt>
<_ZN9Semaphore7DestroyEv+0x6a0>
<_ZN9Semaphore7DestroyEv+0x6a4>
0x23448 <_ZN9Semaphore7DestroyEv+0x7b0>
<_ZN9Semaphore7DestroyEv+0x7b0>
0x35000 <_ZN9Semaphore7DestroyEv+0x740>
#6, 0x23440 <_ZN9Semaphore7DestroyEv+0x7a8>
0x35000 <_ZN9Semaphore7DestroyEv+0x750>
0xd000 <_ZN9Semaphore7DestroyEv+0x6b4>
<_ZN9Semaphore7DestroyEv+0x764>
0xf000 <_ZN9Semaphore7DestroyEv+0x6e8>
0xf000 <_ZN9Semaphore7DestroyEv+0x6ec>
0xf000 <_ZN9Semaphore7DestroyEv+0x6f0>
0xb000 <_ZN9Semaphore7DestroyEv+0x718>
0xe000 <_ZN9Semaphore7DestroyEv+0x72c>
0xf000 <_ZN9Semaphore7DestroyEv+0x734>
0xf000 <_ZN9Semaphore7DestroyEv+0x738>
<_ZN6ChiLog9LogSystemEPKcS1_S1_S1_iS1_z@plt>
<_ZN9Semaphore7DestroyEv+0x7b4>
<_ZN9Semaphore7DestroyEv+0x7d8>
<_ZN15ExtensionModule11GetInstanceEv@plt>
<_ZN9Semaphore7DestroyEv+0x86c>
0x234e0 <_ZN9Semaphore7DestroyEv+0x848>
<_ZN9Semaphore7DestroyEv+0x870>
<_ZN15ExtensionModule11GetInstanceEv@plt>
<_ZN9Semaphore7DestroyEv+0x940>
0x23590 <_ZN9Semaphore7DestroyEv+0x8f8>
<_ZN9Semaphore7DestroyEv+0x918>
<_ZN9Semaphore7DestroyEv+0x944>
0x23730 <_ZN9Semaphore7DestroyEv+0xa98>
0x23730 <_ZN9Semaphore7DestroyEv+0xa98>
0x35000 <_ZN9Semaphore7DestroyEv+0x9d8>
<_ZN9Semaphore7DestroyEv+0xa94>
0x236a0 <_ZN9Semaphore7DestroyEv+0xa08>
0x23730 <_ZN9Semaphore7DestroyEv+0xa98>
<_ZN9Semaphore7DestroyEv+0x9a4>
<_ZN9Semaphore7DestroyEv+0xac8>
0x236fc <_ZN9Semaphore7DestroyEv+0xa64>
<_ZN9Semaphore7DestroyEv+0xacc>
<_ZN9Semaphore7DestroyEv+0xad0>
0x23710 <_ZN9Semaphore7DestroyEv+0xa78>
<_ZN9Semaphore7DestroyEv+0xa78>
<_ZN9Semaphore7DestroyEv+0xa78>
<_ZN9Semaphore7DestroyEv+0x9f0>
0x23688 <_ZN9Semaphore7DestroyEv+0x9f0>
<_ZN9Semaphore7DestroyEv+0x9e0>
<_ZN9Semaphore7DestroyEv+0x9f0>
<_ZN9Semaphore7DestroyEv+0xad4>
0x23778 <_ZN9Semaphore7DestroyEv+0xae0>
0x35000 <_ZN9Semaphore7DestroyEv+0xb78>
#6, 0x2388c <_ZN9Semaphore7DestroyEv+0xbf4>
0x35000 <_ZN9Semaphore7DestroyEv+0xb8c>
0xd000 <_ZN9Semaphore7DestroyEv+0xaf0>
<_ZN9Semaphore7DestroyEv+0xba8>
0xf000 <_ZN9Semaphore7DestroyEv+0xb24>
0xe000 <_ZN9Semaphore7DestroyEv+0xb24>
0xb000 <_ZN9Semaphore7DestroyEv+0xb1c>
0xb000 <_ZN9Semaphore7DestroyEv+0xb5c>
0xe000 <_ZN9Semaphore7DestroyEv+0xb70>
0xb000 <_ZN9Semaphore7DestroyEv+0xb68>
0xd000 <_ZN9Semaphore7DestroyEv+0xb74>
<_ZN6ChiLog9LogSystemEPKcS1_S1_S1_iS1_z@plt>
0x23940 <_ZN9Semaphore7DestroyEv+0xca8>
<_ZN9Semaphore7DestroyEv+0xcc0>
<_ZN9Semaphore7DestroyEv+0xcc0>
0x23930 <_ZN9Semaphore7DestroyEv+0xc98>
0x23930 <_ZN9Semaphore7DestroyEv+0xc98>
<_ZN9Semaphore7DestroyEv+0xcac>
<_ZN15ExtensionModule11GetInstanceEv@plt>
0x239d8 <_ZN9Semaphore7DestroyEv+0xd40>
<_ZN9Semaphore7DestroyEv+0xd4c>
0x35000 <_ZN9Semaphore7DestroyEv+0xd94>
#6, 0x23a94 <_ZN9Semaphore7DestroyEv+0xdfc>
0x35000 <_ZN9Semaphore7DestroyEv+0xda4>
0xd000 <_ZN9Semaphore7DestroyEv+0xd08>
<_ZN9Semaphore7DestroyEv+0xdb8>
0xf000 <_ZN9Semaphore7DestroyEv+0xd3c>
0xf000 <_ZN9Semaphore7DestroyEv+0xd40>
0xd000 <_ZN9Semaphore7DestroyEv+0xd3c>
0xb000 <_ZN9Semaphore7DestroyEv+0xd6c>
0xe000 <_ZN9Semaphore7DestroyEv+0xd80>
0xd000 <_ZN9Semaphore7DestroyEv+0xd80>
0xb000 <_ZN9Semaphore7DestroyEv+0xd7c>
<_ZN6ChiLog9LogSystemEPKcS1_S1_S1_iS1_z@plt>
<_ZN9Semaphore7DestroyEv+0xe24>
<_ZN15ExtensionModule11GetInstanceEv@plt>
0x23b08 <_ZN9Semaphore7DestroyEv+0xe70>
<_ZN9Semaphore7DestroyEv+0xe78>
<_ZN9Semaphore7DestroyEv+0xe98>
<_ZN9Semaphore7DestroyEv+0xeb8>
<_ZN15ExtensionModule11GetInstanceEv@plt>
<_ZN9Semaphore7DestroyEv+0xfa8>
<_ZN15ExtensionModule11GetInstanceEv@plt>
<_ZN9Semaphore7DestroyEv+0xf38>
0x23bd0 <_ZN9Semaphore7DestroyEv+0xf38>
0x23c24 <_ZN9Semaphore7DestroyEv+0xf8c>
<_ZN9Semaphore7DestroyEv+0xf64>
<_ZN9Semaphore7DestroyEv+0xf7c>
<_ZN15ExtensionModule11GetInstanceEv@plt>
<_ZN15ExtensionModule18GetBufferAllocatorEP9ChiStreamPPv@plt>
<_ZN9Semaphore7DestroyEv+0xf40>
0x23da0 <_ZN9Semaphore7DestroyEv+0x1108>
<_ZN9Semaphore7DestroyEv+0xfe4>
0x23da0 <_ZN9Semaphore7DestroyEv+0x1108>
<_ZN9Semaphore7DestroyEv+0xfdc>
<_ZN9Semaphore7DestroyEv+0xffc>
<_ZN9Semaphore7DestroyEv+0xfdc>
<_ZN9Semaphore7DestroyEv+0x1024>
0x23cd8 <_ZN9Semaphore7DestroyEv+0x1040>
<_ZN9Semaphore7DestroyEv+0x1014>
<_ZN9Semaphore7DestroyEv+0x1040>
0x23cb8 <_ZN9Semaphore7DestroyEv+0x1020>
0x23d70 <_ZN9Semaphore7DestroyEv+0x10d8>
0x23da0 <_ZN9Semaphore7DestroyEv+0x1108>
0x23d34 <_ZN9Semaphore7DestroyEv+0x109c>
0x23d24 <_ZN9Semaphore7DestroyEv+0x108c>
<_ZN9Semaphore7DestroyEv+0x1138>
<_ZN9Semaphore7DestroyEv+0x110c>
<_ZN9Semaphore7DestroyEv+0x10b8>
0x23dbc <_ZN9Semaphore7DestroyEv+0x1124>
<_ZN9Semaphore7DestroyEv+0x1098>
<_ZN9Semaphore7DestroyEv+0x10c8>
0x23d30 <_ZN9Semaphore7DestroyEv+0x1098>
0x23d24 <_ZN9Semaphore7DestroyEv+0x108c>
<_ZN9Semaphore7DestroyEv+0x1064>
<_ZN9Semaphore7DestroyEv+0x1138>
0x23ce8 <_ZN9Semaphore7DestroyEv+0x1050>
0x23d24 <_ZN9Semaphore7DestroyEv+0x108c>
<_ZN9Semaphore7DestroyEv+0x1064>
0x23df8 <_ZN9Semaphore7DestroyEv+0x1160>
<_ZN9Semaphore7DestroyEv+0x1338>
<_ZN9Semaphore7DestroyEv+0x119c>
<_ZN9Semaphore7DestroyEv+0x1338>
0x23fd0 <_ZN9Semaphore7DestroyEv+0x1338>
<_ZN9Semaphore7DestroyEv+0x11c8>
0x23e88 <_ZN9Semaphore7DestroyEv+0x11f0>
0x23e14 <_ZN9Semaphore7DestroyEv+0x117c>
<_ZN9Semaphore7DestroyEv+0x11f0>
0x23e9c <_ZN9Semaphore7DestroyEv+0x1204>
0x23e9c <_ZN9Semaphore7DestroyEv+0x1204>
<_ZN9Semaphore7DestroyEv+0x1190>
<_ZN9Semaphore7DestroyEv+0x1244>
<_ZN9Semaphore7DestroyEv+0x12e8>
<_ZN9Semaphore7DestroyEv+0x1274>
0x23ec0 <_ZN9Semaphore7DestroyEv+0x1228>
<_ZN9Semaphore7DestroyEv+0x127c>
<_ZN9Semaphore7DestroyEv+0x1280>
0x23ef0 <_ZN9Semaphore7DestroyEv+0x1258>
<_ZN9Semaphore7DestroyEv+0x12dc>
<_ZN9Semaphore7DestroyEv+0x12e0>
<_ZN9Semaphore7DestroyEv+0x1288>
0x23f44 <_ZN9Semaphore7DestroyEv+0x12ac>
<_ZN9Semaphore7DestroyEv+0x12cc>
<_ZN9Semaphore7DestroyEv+0x12d0>
<_ZN9Semaphore7DestroyEv+0x1338>
0x23fa4 <_ZN9Semaphore7DestroyEv+0x130c>
<_ZN9Semaphore7DestroyEv+0x132c>
<_ZN9Semaphore7DestroyEv+0x1330>
<_ZN9Semaphore7DestroyEv+0x1350>
<_ZN9Semaphore7DestroyEv+0x140c>
<_ZN9Semaphore7DestroyEv+0x139c>
<_ZN15ExtensionModule11GetInstanceEv@plt>
<_ZN9Semaphore7DestroyEv+0xfa8>
0x2417c <_ZN9Semaphore7DestroyEv+0x14e4>
<_ZN9Semaphore7DestroyEv+0x13e0>
<_ZN9Semaphore7DestroyEv+0x13e0>
<_ZN9Semaphore7DestroyEv+0x13e0>
<_ZN9Semaphore7DestroyEv+0x141c>
<_ZN9Semaphore7DestroyEv+0x141c>
<_ZN9Semaphore7DestroyEv+0x141c>
<_ZN9Semaphore7DestroyEv+0x141c>
0x35000 <_ZN9Semaphore7DestroyEv+0x1450>
#0, 0x240c4 <_ZN9Semaphore7DestroyEv+0x142c>
0x35000 <_ZN9Semaphore7DestroyEv+0x1470>
0xd000 <_ZN9Semaphore7DestroyEv+0x13d4>
<_ZN9Semaphore7DestroyEv+0x148c>
0xf000 <_ZN9Semaphore7DestroyEv+0x140c>
0xe000 <_ZN9Semaphore7DestroyEv+0x140c>
0xd000 <_ZN9Semaphore7DestroyEv+0x140c>
0xb000 <_ZN9Semaphore7DestroyEv+0x144c>
0xf000 <_ZN9Semaphore7DestroyEv+0x1460>
0xd000 <_ZN9Semaphore7DestroyEv+0x1460>
0xc000 <_ZN9Semaphore7DestroyEv+0x1460>
<_ZN6ChiLog9LogSystemEPKcS1_S1_S1_iS1_z@plt>
0x35000 <_ZN9Semaphore7DestroyEv+0x1528>
#0, 0x240b4 <_ZN9Semaphore7DestroyEv+0x141c>
0x35000 <_ZN9Semaphore7DestroyEv+0x1538>
<_ZN9Semaphore7DestroyEv+0x1550>
0xd000 <_ZN9Semaphore7DestroyEv+0x14ac>
0xf000 <_ZN9Semaphore7DestroyEv+0x14d4>
0xd000 <_ZN9Semaphore7DestroyEv+0x14d0>
0xd000 <_ZN9Semaphore7DestroyEv+0x14d4>
0xd000 <_ZN9Semaphore7DestroyEv+0x14f4>
0xb000 <_ZN9Semaphore7DestroyEv+0x1518>
0xf000 <_ZN9Semaphore7DestroyEv+0x152c>
0xd000 <_ZN9Semaphore7DestroyEv+0x152c>
0xb000 <_ZN9Semaphore7DestroyEv+0x1528>
<_ZN6ChiLog9LogSystemEPKcS1_S1_S1_iS1_z@plt>
0x242d4 <_ZN9Semaphore7DestroyEv+0x163c>
<_ZN9Semaphore7DestroyEv+0x1608>
<_ZN9Semaphore7DestroyEv+0x1640>
<_ZN9Semaphore7DestroyEv+0x1640>
<_ZN9Semaphore7DestroyEv+0x1610>
<_ZN9Semaphore7DestroyEv+0x1654>
0x242d4 <_ZN9Semaphore7DestroyEv+0x163c>
<_ZN9Semaphore7DestroyEv+0x1728>
<_ZN9Semaphore7DestroyEv+0x163c>
0x24498 <_ZN9Semaphore7DestroyEv+0x1800>
<_ZN9Semaphore7DestroyEv+0x1794>
<_ZN9Semaphore7DestroyEv+0x17ec>
<_ZN15UsecaseSelector13IsVideoStreamEPK14camera3_stream@plt>
0x24414 <_ZN9Semaphore7DestroyEv+0x177c>
<_ZN15UsecaseSelector19IsYUVSnapshotStreamEPK14camera3_stream@plt>
0x2446c <_ZN9Semaphore7DestroyEv+0x17d4>
<_ZN15UsecaseSelector20IsJPEGSnapshotStreamEPK14camera3_stream@plt>
0x2446c <_ZN9Semaphore7DestroyEv+0x17d4>
<_ZN15UsecaseSelector20IsHeicSnapshotStreamEPK14camera3_stream@plt>
0x24474 <_ZN9Semaphore7DestroyEv+0x17dc>
<_ZN9Semaphore7DestroyEv+0x1780>
<_ZN15UsecaseSelector15IsPreviewStreamEPK14camera3_stream@plt>
<_ZN9Semaphore7DestroyEv+0x1780>
<_ZN9Semaphore7DestroyEv+0x1808>
<_ZN9Semaphore7DestroyEv+0x1820>
<_ZN9Semaphore7DestroyEv+0x1818>
0x244b8 <_ZN9Semaphore7DestroyEv+0x1820>
0x24544 <_ZN9Semaphore7DestroyEv+0x18ac>
<_ZN9Semaphore7DestroyEv+0x18ac>
0x24584 <_ZN9Semaphore7DestroyEv+0x18ec>
<_ZN9Semaphore7DestroyEv+0x1900>
<_ZN9Semaphore7DestroyEv+0x1904>
0x10000 <_ZN9Semaphore7DestroyEv+0x1878>
<_ZN9Semaphore7DestroyEv+0x18b8>
<_ZN15ExtensionModule11GetInstanceEv@plt>
<_ZN9Semaphore7DestroyEv+0x1a70>
0x246e0 <_ZN9Semaphore7DestroyEv+0x1a48>
0x35000 <_ZN9Semaphore7DestroyEv+0x19dc>
#6, 0x246e0 <_ZN9Semaphore7DestroyEv+0x1a48>
0x35000 <_ZN9Semaphore7DestroyEv+0x19ec>
0xd000 <_ZN9Semaphore7DestroyEv+0x1950>
<_ZN9Semaphore7DestroyEv+0x1a04>
0xf000 <_ZN9Semaphore7DestroyEv+0x1984>
0xf000 <_ZN9Semaphore7DestroyEv+0x1988>
0xc000 <_ZN9Semaphore7DestroyEv+0x1980>
0xb000 <_ZN9Semaphore7DestroyEv+0x19b4>
0xe000 <_ZN9Semaphore7DestroyEv+0x19c8>
0xc000 <_ZN9Semaphore7DestroyEv+0x19c4>
0xb000 <_ZN9Semaphore7DestroyEv+0x19c4>
<_ZN6ChiLog9LogSystemEPKcS1_S1_S1_iS1_z@plt>
<_ZN9Semaphore7DestroyEv+0x1a74>
0x24788 <_ZN9Semaphore7DestroyEv+0x1af0>
<_ZN9Semaphore7DestroyEv+0x1b04>
<_ZN9Semaphore7DestroyEv+0x1b08>
0x10000 <_ZN9Semaphore7DestroyEv+0x1a80>
<_ZN9Semaphore7DestroyEv+0x1ac0>
0x248b8 <_ZN9Semaphore7DestroyEv+0x1c20>
0x35000 <_ZN9Semaphore7DestroyEv+0x1b78>
#0, 0x248b4 <_ZN9Semaphore7DestroyEv+0x1c1c>
0x35000 <_ZN9Semaphore7DestroyEv+0x1b88>
0xd000 <_ZN9Semaphore7DestroyEv+0x1aec>
<_ZN9Semaphore7DestroyEv+0x1bbc>
0xf000 <_ZN9Semaphore7DestroyEv+0x1b30>
0xd000 <_ZN9Semaphore7DestroyEv+0x1b2c>
0xc000 <_ZN9Semaphore7DestroyEv+0x1b2c>
0xb000 <_ZN9Semaphore7DestroyEv+0x1b80>
0xf000 <_ZN9Semaphore7DestroyEv+0x1b94>
0xc000 <_ZN9Semaphore7DestroyEv+0x1b8c>
0xd000 <_ZN9Semaphore7DestroyEv+0x1b94>
<_ZN6ChiLog9LogSystemEPKcS1_S1_S1_iS1_z@plt>
<_ZN9Semaphore7DestroyEv+0x1c5c>
0xe000 <_ZN9Semaphore7DestroyEv+0x1c28>
0xf000 <_ZN9Semaphore7DestroyEv+0x1c48>
<_ZN9Semaphore7DestroyEv+0x1d0c>
0x35000 <_ZN9Semaphore7DestroyEv+0x1d00>
<_ZN9Semaphore7DestroyEv+0x1d14>
<_ZN9Semaphore7DestroyEv+0x1d40>
0xa000 <_ZN9Semaphore7DestroyEv+0x1cf8>
<_ZN9Semaphore7DestroyEv+0x1dcc>
0x35000 <_ZN9Semaphore7DestroyEv+0x1dc4>
<_ZN9Semaphore7DestroyEv+0x1dd8>
<_ZN9Semaphore7DestroyEv+0x1e88>
<_ZN9Semaphore7DestroyEv+0x1e88>
0x35000 <_ZN9Semaphore7DestroyEv+0x1e1c>
#0, 0x24b18 <_ZN9Semaphore7DestroyEv+0x1e80>
0x35000 <_ZN9Semaphore7DestroyEv+0x1e2c>
0xd000 <_ZN9Semaphore7DestroyEv+0x1d90>
<_ZN9Semaphore7DestroyEv+0x1e40>
0xf000 <_ZN9Semaphore7DestroyEv+0x1dc4>
0xe000 <_ZN9Semaphore7DestroyEv+0x1dc4>
0xf000 <_ZN9Semaphore7DestroyEv+0x1dcc>
0xf000 <_ZN9Semaphore7DestroyEv+0x1e00>
0xb000 <_ZN9Semaphore7DestroyEv+0x1df8>
0xf000 <_ZN9Semaphore7DestroyEv+0x1e0c>
0xe000 <_ZN9Semaphore7DestroyEv+0x1e0c>
<_ZN6ChiLog9LogSystemEPKcS1_S1_S1_iS1_z@plt>
<_ZN9Semaphore7DestroyEv+0x1eb4>
0xc000 <_ZN9Semaphore7DestroyEv+0x1e70>
<_ZN9Semaphore7DestroyEv+0x1fdc>
0x35000 <_ZN9Semaphore7DestroyEv+0x1f34>
0x24c80 <_ZN9Semaphore7DestroyEv+0x1fe8>
0x35000 <_ZN9Semaphore7DestroyEv+0x1f6c>
#0, 0x24c68 <_ZN9Semaphore7DestroyEv+0x1fd0>
0x35000 <_ZN9Semaphore7DestroyEv+0x1f7c>
0xd000 <_ZN9Semaphore7DestroyEv+0x1ee0>
<_ZN9Semaphore7DestroyEv+0x1f90>
0xf000 <_ZN9Semaphore7DestroyEv+0x1f14>
0xe000 <_ZN9Semaphore7DestroyEv+0x1f14>
0xc000 <_ZN9Semaphore7DestroyEv+0x1f10>
0xf000 <_ZN9Semaphore7DestroyEv+0x1f50>
0xb000 <_ZN9Semaphore7DestroyEv+0x1f48>
0xc000 <_ZN9Semaphore7DestroyEv+0x1f50>
0xe000 <_ZN9Semaphore7DestroyEv+0x1f5c>
<_ZN6ChiLog9LogSystemEPKcS1_S1_S1_iS1_z@plt>
<_ZN9Semaphore7DestroyEv+0x1ff4>
<_ZN9Semaphore7DestroyEv+0x1ff4>
<_ZN9Semaphore7DestroyEv+0x2020>
0x24d34 <_ZN9Semaphore7DestroyEv+0x209c>
<_ZN9Semaphore7DestroyEv+0x21b8>
0x35000 <_ZN9Semaphore7DestroyEv+0x20e0>
#5, 0x24e1c <_ZN9Semaphore7DestroyEv+0x2184>
0x35000 <_ZN9Semaphore7DestroyEv+0x20f0>
0xd000 <_ZN9Semaphore7DestroyEv+0x2054>
<_ZN9Semaphore7DestroyEv+0x2124>
0xf000 <_ZN9Semaphore7DestroyEv+0x208c>
0xd000 <_ZN9Semaphore7DestroyEv+0x2088>
0xf000 <_ZN9Semaphore7DestroyEv+0x2094>
0xf000 <_ZN9Semaphore7DestroyEv+0x20ec>
0xd000 <_ZN9Semaphore7DestroyEv+0x20e8>
0xf000 <_ZN9Semaphore7DestroyEv+0x20f4>
0xf000 <_ZN9Semaphore7DestroyEv+0x20f8>
<_ZN6ChiLog9LogSystemEPKcS1_S1_S1_iS1_z@plt>
<_ZN9Semaphore7DestroyEv+0x21dc>
<_ZN9Semaphore7DestroyEv+0x2378>
<_ZN9Semaphore7DestroyEv+0x2378>
<_ZN9Semaphore7DestroyEv+0x2378>
0x35000 <_ZN9Semaphore7DestroyEv+0x2258>
0x35000 <_ZN9Semaphore7DestroyEv+0x225c>
0xd000 <_ZN9Semaphore7DestroyEv+0x21c0>
#6, 0x24f5c <_ZN9Semaphore7DestroyEv+0x22c4>
<_ZN9Semaphore7DestroyEv+0x2280>
0xf000 <_ZN9Semaphore7DestroyEv+0x2200>
0xf000 <_ZN9Semaphore7DestroyEv+0x2204>
0xd000 <_ZN9Semaphore7DestroyEv+0x2200>
0xb000 <_ZN9Semaphore7DestroyEv+0x2230>
0xe000 <_ZN9Semaphore7DestroyEv+0x2244>
0xd000 <_ZN9Semaphore7DestroyEv+0x2244>
0xa000 <_ZN9Semaphore7DestroyEv+0x223c>
<_ZN6ChiLog9LogSystemEPKcS1_S1_S1_iS1_z@plt>
<_ZN8ChxUtils15NativeFenceWaitEij@plt>
#6, 0x25004 <_ZN9Semaphore7DestroyEv+0x236c>
<_ZN9Semaphore7DestroyEv+0x2328>
0xf000 <_ZN9Semaphore7DestroyEv+0x22a8>
0xf000 <_ZN9Semaphore7DestroyEv+0x22ac>
0xd000 <_ZN9Semaphore7DestroyEv+0x22a8>
0xb000 <_ZN9Semaphore7DestroyEv+0x22d8>
0xe000 <_ZN9Semaphore7DestroyEv+0x22ec>
0xd000 <_ZN9Semaphore7DestroyEv+0x22ec>
0xd000 <_ZN9Semaphore7DestroyEv+0x22f0>
<_ZN6ChiLog9LogSystemEPKcS1_S1_S1_iS1_z@plt>
<_ZN9Semaphore7DestroyEv+0x237c>
<_ZN9Semaphore7DestroyEv+0x2510>
0x35000 <_ZN9Semaphore7DestroyEv+0x23ec>
0x35000 <_ZN9Semaphore7DestroyEv+0x23f0>
0xd000 <_ZN9Semaphore7DestroyEv+0x2354>
#6, 0x250f4 <_ZN9Semaphore7DestroyEv+0x245c>
<_ZN9Semaphore7DestroyEv+0x2418>
0xf000 <_ZN9Semaphore7DestroyEv+0x2394>
0xf000 <_ZN9Semaphore7DestroyEv+0x2398>
0xd000 <_ZN9Semaphore7DestroyEv+0x2394>
0xb000 <_ZN9Semaphore7DestroyEv+0x23c4>
0xe000 <_ZN9Semaphore7DestroyEv+0x23d8>
0xd000 <_ZN9Semaphore7DestroyEv+0x23d8>
0xa000 <_ZN9Semaphore7DestroyEv+0x23d0>
<_ZN6ChiLog9LogSystemEPKcS1_S1_S1_iS1_z@plt>
<_ZN8ChxUtils15NativeFenceWaitEij@plt>
#6, 0x2519c <_ZN9Semaphore7DestroyEv+0x2504>
<_ZN9Semaphore7DestroyEv+0x24c0>
0xf000 <_ZN9Semaphore7DestroyEv+0x243c>
0xf000 <_ZN9Semaphore7DestroyEv+0x2440>
0xd000 <_ZN9Semaphore7DestroyEv+0x243c>
0xb000 <_ZN9Semaphore7DestroyEv+0x246c>
0xe000 <_ZN9Semaphore7DestroyEv+0x2480>
0xd000 <_ZN9Semaphore7DestroyEv+0x2480>
0xd000 <_ZN9Semaphore7DestroyEv+0x2484>
<_ZN6ChiLog9LogSystemEPKcS1_S1_S1_iS1_z@plt>
<_ZN9Semaphore7DestroyEv+0x2514>
0x25340 <_ZN9Semaphore7DestroyEv+0x26a8>
<_ZN15ExtensionModule11GetInstanceEv@plt>
0x2522c <_ZN9Semaphore7DestroyEv+0x2594>
0x2522c <_ZN9Semaphore7DestroyEv+0x2594>
0x35000 <_ZN9Semaphore7DestroyEv+0x25d4>
#3, 0x252e8 <_ZN9Semaphore7DestroyEv+0x2650>
0x35000 <_ZN9Semaphore7DestroyEv+0x25ec>
0xd000 <_ZN9Semaphore7DestroyEv+0x2550>
<_ZN9Semaphore7DestroyEv+0x2608>
0xf000 <_ZN9Semaphore7DestroyEv+0x2584>
0xc000 <_ZN9Semaphore7DestroyEv+0x257c>
0xf000 <_ZN9Semaphore7DestroyEv+0x258c>
0xd000 <_ZN9Semaphore7DestroyEv+0x25bc>
0xf000 <_ZN9Semaphore7DestroyEv+0x25cc>
0xf000 <_ZN9Semaphore7DestroyEv+0x25d0>
0xc000 <_ZN9Semaphore7DestroyEv+0x25c8>
<_ZN6ChiLog9LogSystemEPKcS1_S1_S1_iS1_z@plt>
<_ZN15ExtensionModule11GetInstanceEv@plt>
0x25320 <_ZN9Semaphore7DestroyEv+0x2688>
<_ZN9Semaphore7DestroyEv+0x26a8>
<_ZN9Semaphore7DestroyEv+0x26cc>
0x253b4 <_ZN9Semaphore7DestroyEv+0x271c>
<_ZN9Semaphore7DestroyEv+0x27e4>
0x35000 <_ZN9Semaphore7DestroyEv+0x2768>
#3, 0x25478 <_ZN9Semaphore7DestroyEv+0x27e0>
0x35000 <_ZN9Semaphore7DestroyEv+0x2780>
0xd000 <_ZN9Semaphore7DestroyEv+0x26e4>
<_ZN9Semaphore7DestroyEv+0x279c>
0xf000 <_ZN9Semaphore7DestroyEv+0x271c>
0xd000 <_ZN9Semaphore7DestroyEv+0x2718>
0xb000 <_ZN9Semaphore7DestroyEv+0x2714>
0xd000 <_ZN9Semaphore7DestroyEv+0x2750>
0xf000 <_ZN9Semaphore7DestroyEv+0x2764>
0xb000 <_ZN9Semaphore7DestroyEv+0x2758>
0xd000 <_ZN9Semaphore7DestroyEv+0x2764>
<_ZN6ChiLog9LogSystemEPKcS1_S1_S1_iS1_z@plt>
<_ZN9Semaphore7DestroyEv+0x2808>
0x254ec <_ZN9Semaphore7DestroyEv+0x2854>
<_ZN9Semaphore7DestroyEv+0x285c>
0x35000 <_ZN9Semaphore7DestroyEv+0x289c>
#6, 0x255a4 <_ZN9Semaphore7DestroyEv+0x290c>
0x35000 <_ZN9Semaphore7DestroyEv+0x28ac>
0xd000 <_ZN9Semaphore7DestroyEv+0x2810>
<_ZN9Semaphore7DestroyEv+0x28c8>
0xf000 <_ZN9Semaphore7DestroyEv+0x2844>
0xe000 <_ZN9Semaphore7DestroyEv+0x2844>
0xd000 <_ZN9Semaphore7DestroyEv+0x2844>
0xb000 <_ZN9Semaphore7DestroyEv+0x2874>
0xe000 <_ZN9Semaphore7DestroyEv+0x2888>
0xd000 <_ZN9Semaphore7DestroyEv+0x2888>
0xe000 <_ZN9Semaphore7DestroyEv+0x2890>
<_ZN6ChiLog9LogSystemEPKcS1_S1_S1_iS1_z@plt>
<_ZN9Semaphore7DestroyEv+0x2934>
0x25618 <_ZN9Semaphore7DestroyEv+0x2980>
0x25620 <_ZN9Semaphore7DestroyEv+0x2988>
<_ZN9Semaphore7DestroyEv+0x2990>
0x35000 <_ZN9Semaphore7DestroyEv+0x29d0>
#3, 0x256e0 <_ZN9Semaphore7DestroyEv+0x2a48>
0x35000 <_ZN9Semaphore7DestroyEv+0x29e0>
0xd000 <_ZN9Semaphore7DestroyEv+0x2944>
<_ZN9Semaphore7DestroyEv+0x2a00>
0xf000 <_ZN9Semaphore7DestroyEv+0x2978>
0xe000 <_ZN9Semaphore7DestroyEv+0x2978>
0xf000 <_ZN9Semaphore7DestroyEv+0x2980>
0xd000 <_ZN9Semaphore7DestroyEv+0x29b4>
0xf000 <_ZN9Semaphore7DestroyEv+0x29c4>
0xf000 <_ZN9Semaphore7DestroyEv+0x29c8>
0xc000 <_ZN9Semaphore7DestroyEv+0x29c0>
<_ZN6ChiLog9LogSystemEPKcS1_S1_S1_iS1_z@plt>
<_ZN9Semaphore7DestroyEv+0x2a70>
0x259d0 <_ZN9Semaphore7DestroyEv+0x2d38>
0x10000 <_ZN9Semaphore7DestroyEv+0x2a50>
<_ZN8ChxUtils14GetUsecaseModeEP23camera3_capture_request@plt>
<_ZN8ChxUtils15AndroidMetadata15GetFeature1ModeEPvPj@plt>
0x25814 <_ZN9Semaphore7DestroyEv+0x2b7c>
<_ZN9Semaphore7DestroyEv+0x2b7c>
0x259fc <_ZN9Semaphore7DestroyEv+0x2d64>
<_ZN9Semaphore7DestroyEv+0x2d74>
0x10000 <_ZN9Semaphore7DestroyEv+0x2b38>
0x2585c <_ZN9Semaphore7DestroyEv+0x2bc4>
<_ZN9Semaphore7DestroyEv+0x2bd0>
<_ZN9Semaphore7DestroyEv+0x2d74>
0x10000 <_ZN9Semaphore7DestroyEv+0x2b88>
<_ZN15ExtensionModule11GetInstanceEv@plt>
0x258c0 <_ZN9Semaphore7DestroyEv+0x2c28>
<_ZN9Semaphore7DestroyEv+0x2c48>
0x35000 <_ZN9Semaphore7DestroyEv+0x2c88>
#5, 0x259d0 <_ZN9Semaphore7DestroyEv+0x2d38>
0x35000 <_ZN9Semaphore7DestroyEv+0x2c98>
0xd000 <_ZN9Semaphore7DestroyEv+0x2bfc>
<_ZN9Semaphore7DestroyEv+0x2cd4>
0xf000 <_ZN9Semaphore7DestroyEv+0x2c38>
0xc000 <_ZN9Semaphore7DestroyEv+0x2c34>
0xc000 <_ZN9Semaphore7DestroyEv+0x2c3c>
0xf000 <_ZN9Semaphore7DestroyEv+0x2ca0>
0xd000 <_ZN9Semaphore7DestroyEv+0x2ca0>
0xc000 <_ZN9Semaphore7DestroyEv+0x2ca0>
0xc000 <_ZN9Semaphore7DestroyEv+0x2ca4>
<_ZN6ChiLog9LogSystemEPKcS1_S1_S1_iS1_z@plt>
<_ZN9Semaphore7DestroyEv+0x2d78>
<_ZN9Semaphore7DestroyEv+0x2b80>
0x25a8c <_ZN9Semaphore7DestroyEv+0x2df4>
<_ZN9Semaphore7DestroyEv+0x2e24>
<_ZN9Semaphore7DestroyEv+0x2e0c>
<_ZN9Semaphore7DestroyEv+0x2e28>
0x35000 <_ZN9Semaphore7DestroyEv+0x2e68>
#6, 0x25bec <_ZN9Semaphore7DestroyEv+0x2f54>
0x35000 <_ZN9Semaphore7DestroyEv+0x2e78>
0xd000 <_ZN9Semaphore7DestroyEv+0x2de0>
<_ZN9Semaphore7DestroyEv+0x2ed8>
0x25b38 <_ZN9Semaphore7DestroyEv+0x2ea0>
0xf000 <_ZN9Semaphore7DestroyEv+0x2e48>
0xd000 <_ZN9Semaphore7DestroyEv+0x2e44>
0xd000 <_ZN9Semaphore7DestroyEv+0x2e48>
0x25bb0 <_ZN9Semaphore7DestroyEv+0x2f18>
0xe000 <_ZN9Semaphore7DestroyEv+0x2ebc>
0xb000 <_ZN9Semaphore7DestroyEv+0x2eb4>
0xd000 <_ZN9Semaphore7DestroyEv+0x2ec0>
0xa000 <_ZN9Semaphore7DestroyEv+0x2eb8>
<_ZN6ChiLog9LogSystemEPKcS1_S1_S1_iS1_z@plt>
<_ZN9Semaphore7DestroyEv+0x2f8c>
0x25c6c <_ZN9Semaphore7DestroyEv+0x2fd4>
<_ZN9Semaphore7DestroyEv+0x2ff8>
0x25d04 <_ZN9Semaphore7DestroyEv+0x306c>
<_ZN9Semaphore7DestroyEv+0x3070>
0x35000 <_ZN9Semaphore7DestroyEv+0x30b0>
#6, 0x25db8 <_ZN9Semaphore7DestroyEv+0x3120>
0x35000 <_ZN9Semaphore7DestroyEv+0x30c0>
0xd000 <_ZN9Semaphore7DestroyEv+0x3024>
<_ZN9Semaphore7DestroyEv+0x30dc>
0xf000 <_ZN9Semaphore7DestroyEv+0x3058>
0xe000 <_ZN9Semaphore7DestroyEv+0x3058>
0xd000 <_ZN9Semaphore7DestroyEv+0x3058>
0xb000 <_ZN9Semaphore7DestroyEv+0x3088>
0xe000 <_ZN9Semaphore7DestroyEv+0x309c>
0xd000 <_ZN9Semaphore7DestroyEv+0x309c>
0xe000 <_ZN9Semaphore7DestroyEv+0x30a4>
<_ZN6ChiLog9LogSystemEPKcS1_S1_S1_iS1_z@plt>
<_ZN9Semaphore7DestroyEv+0x3148>
0x25e54 <_ZN9Semaphore7DestroyEv+0x31bc>
<_ZN9Semaphore7DestroyEv+0x31c0>
0x35000 <_ZN9Semaphore7DestroyEv+0x3200>
#3, 0x25f08 <_ZN9Semaphore7DestroyEv+0x3270>
0x35000 <_ZN9Semaphore7DestroyEv+0x3210>
0xd000 <_ZN9Semaphore7DestroyEv+0x3174>
<_ZN9Semaphore7DestroyEv+0x322c>
0xf000 <_ZN9Semaphore7DestroyEv+0x31a8>
0xe000 <_ZN9Semaphore7DestroyEv+0x31a8>
0xf000 <_ZN9Semaphore7DestroyEv+0x31b0>
0xd000 <_ZN9Semaphore7DestroyEv+0x31e0>
0xf000 <_ZN9Semaphore7DestroyEv+0x31f0>
0xf000 <_ZN9Semaphore7DestroyEv+0x31f4>
0xd000 <_ZN9Semaphore7DestroyEv+0x31f0>
<_ZN6ChiLog9LogSystemEPKcS1_S1_S1_iS1_z@plt>
<_ZN9Semaphore7DestroyEv+0x329c>
0x25fa4 <_ZN9Semaphore7DestroyEv+0x330c>
<_ZN9Semaphore7DestroyEv+0x3310>
0x35000 <_ZN9Semaphore7DestroyEv+0x3350>
#3, 0x26058 <_ZN9Semaphore7DestroyEv+0x33c0>
0x35000 <_ZN9Semaphore7DestroyEv+0x3360>
0xd000 <_ZN9Semaphore7DestroyEv+0x32c4>
<_ZN9Semaphore7DestroyEv+0x337c>
0xf000 <_ZN9Semaphore7DestroyEv+0x32f8>
0xb000 <_ZN9Semaphore7DestroyEv+0x32ec>
0xd000 <_ZN9Semaphore7DestroyEv+0x32f8>
0xd000 <_ZN9Semaphore7DestroyEv+0x332c>
0xf000 <_ZN9Semaphore7DestroyEv+0x333c>
0xd000 <_ZN9Semaphore7DestroyEv+0x3338>
0xe000 <_ZN9Semaphore7DestroyEv+0x3340>
<_ZN6ChiLog9LogSystemEPKcS1_S1_S1_iS1_z@plt>
<_ZN9Semaphore7DestroyEv+0x33ec>
<_ZN15ExtensionModule11GetInstanceEv@plt>
<_ZN9Semaphore7DestroyEv+0x3478>
0x261d8 <_ZN9Semaphore7DestroyEv+0x3540>
<_ZN9Semaphore7DestroyEv+0x3540>
0x261d8 <_ZN9Semaphore7DestroyEv+0x3540>
<_ZN9Semaphore7DestroyEv+0x3544>
<_ZN9Semaphore7DestroyEv+0x3588>
<_ZN9Semaphore7DestroyEv+0x358c>
0x10000 <_ZN9Semaphore7DestroyEv+0x3504>
0x2629c <_ZN9Semaphore7DestroyEv+0x3604>
<_ZN9Semaphore7DestroyEv+0x3608>
<_ZN9Semaphore7DestroyEv+0x3648>
<_ZN9Semaphore7DestroyEv+0x364c>
0x10000 <_ZN9Semaphore7DestroyEv+0x35cc>
<_ZN15ExtensionModule11GetInstanceEv@plt>
0x26364 <_ZN9Semaphore7DestroyEv+0x36cc>
<_ZN9Semaphore7DestroyEv+0x36d0>
0x35000 <_ZN9Semaphore7DestroyEv+0x370c>
#6, 0x26418 <_ZN9Semaphore7DestroyEv+0x3780>
0x35000 <_ZN9Semaphore7DestroyEv+0x371c>
0xd000 <_ZN9Semaphore7DestroyEv+0x3680>
<_ZN9Semaphore7DestroyEv+0x373c>
0xf000 <_ZN9Semaphore7DestroyEv+0x36b4>
0xf000 <_ZN9Semaphore7DestroyEv+0x36b8>
0xd000 <_ZN9Semaphore7DestroyEv+0x36b4>
0xb000 <_ZN9Semaphore7DestroyEv+0x36e4>
0xe000 <_ZN9Semaphore7DestroyEv+0x36f8>
0xd000 <_ZN9Semaphore7DestroyEv+0x36f8>
0xb000 <_ZN9Semaphore7DestroyEv+0x36f4>
<_ZN6ChiLog9LogSystemEPKcS1_S1_S1_iS1_z@plt>
<_ZN9Semaphore7DestroyEv+0x37ac>
0x26594 <_ZN9Semaphore7DestroyEv+0x38fc>
<_ZN8ChxUtils17GetVendorTagValueEP11ChiMetadata9VendorTagPPv@plt>
0x264a4 <_ZN9Semaphore7DestroyEv+0x380c>
0x35000 <_ZN9Semaphore7DestroyEv+0x3848>
#6, 0x26558 <_ZN9Semaphore7DestroyEv+0x38c0>
0x35000 <_ZN9Semaphore7DestroyEv+0x385c>
0xd000 <_ZN9Semaphore7DestroyEv+0x37c0>
<_ZN9Semaphore7DestroyEv+0x387c>
0xf000 <_ZN9Semaphore7DestroyEv+0x37f4>
0xf000 <_ZN9Semaphore7DestroyEv+0x37f8>
0xf000 <_ZN9Semaphore7DestroyEv+0x37fc>
0xb000 <_ZN9Semaphore7DestroyEv+0x3824>
0xe000 <_ZN9Semaphore7DestroyEv+0x3838>
0xf000 <_ZN9Semaphore7DestroyEv+0x3840>
0xc000 <_ZN9Semaphore7DestroyEv+0x3838>
<_ZN6ChiLog9LogSystemEPKcS1_S1_S1_iS1_z@plt>
<_ZN15ExtensionModule11GetInstanceEv@plt>
<_ZN9Semaphore7DestroyEv+0x3920>
0x26820 <_ZN9Semaphore7DestroyEv+0x3b88>
0x10000 <_ZN9Semaphore7DestroyEv+0x38fc>
<_ZN8ChxUtils15GetFeature1ModeEP11ChiMetadataPj@plt>
<_ZN8ChxUtils12GetSceneModeEP11ChiMetadataPj@plt>
0x266c8 <_ZN9Semaphore7DestroyEv+0x3a30>
<_ZN9Semaphore7DestroyEv+0x3a34>
<_ZN9Semaphore7DestroyEv+0x3bb4>
0x10000 <_ZN9Semaphore7DestroyEv+0x39e8>
<_ZN15ExtensionModule11GetInstanceEv@plt>
0x35000 <_ZN9Semaphore7DestroyEv+0x3acc>
#5, 0x26820 <_ZN9Semaphore7DestroyEv+0x3b88>
0x35000 <_ZN9Semaphore7DestroyEv+0x3adc>
0xd000 <_ZN9Semaphore7DestroyEv+0x3a40>
<_ZN9Semaphore7DestroyEv+0x3b20>
0xf000 <_ZN9Semaphore7DestroyEv+0x3a7c>
0xc000 <_ZN9Semaphore7DestroyEv+0x3a78>
0xc000 <_ZN9Semaphore7DestroyEv+0x3a80>
0xf000 <_ZN9Semaphore7DestroyEv+0x3ae8>
0xd000 <_ZN9Semaphore7DestroyEv+0x3ae8>
0xc000 <_ZN9Semaphore7DestroyEv+0x3aec>
0xc000 <_ZN9Semaphore7DestroyEv+0x3af0>
<_ZN6ChiLog9LogSystemEPKcS1_S1_S1_iS1_z@plt>
<_ZN9Semaphore7DestroyEv+0x3bb0>
<_ZN15ExtensionModule11GetInstanceEv@plt>
<_ZN15ExtensionModule11GetInstanceEv@plt>
<_ZN9Semaphore7DestroyEv+0x3c2c>
<_ZN9Semaphore7DestroyEv+0x3c2c>
0x10000 <_ZN9Semaphore7DestroyEv+0x3bac>
<_ZN9Semaphore7DestroyEv+0x3c30>
<_ZN9Semaphore7DestroyEv+0x3c74>
<_ZN9Semaphore7DestroyEv+0x3d4c>
0x10000 <_ZN9Semaphore7DestroyEv+0x3bf8>
<_ZN9Semaphore7DestroyEv+0x3d4c>
<_ZN9Semaphore7DestroyEv+0x3d4c>
<_ZN9Semaphore7DestroyEv+0x3cd0>
<_ZN9Semaphore7DestroyEv+0x3dc8>
<_ZN9Semaphore7DestroyEv+0x3dc8>
<_ZN9Semaphore7DestroyEv+0x3dc8>
<_ZN9Semaphore7DestroyEv+0x3cdc>
<_ZN9Semaphore7DestroyEv+0x3d48>
<_ZN9Semaphore7DestroyEv+0x3cc8>
<_ZN9Semaphore7DestroyEv+0x3dc8>
<_ZN9Semaphore7DestroyEv+0x3dc8>
<_ZN9Semaphore7DestroyEv+0x3dc8>
<_ZN9Semaphore7DestroyEv+0x3dc8>
<_ZN9Semaphore7DestroyEv+0x3dc8>
<_ZN9Semaphore7DestroyEv+0x3dc8>
<_ZN9Semaphore7DestroyEv+0x3c30>
<_ZN9Semaphore7DestroyEv+0x3c30>
<_ZN9Semaphore7DestroyEv+0x3c30>
<_ZN9Semaphore7DestroyEv+0x3d4c>
<_ZN9Semaphore7DestroyEv+0x3d4c>
<_ZN9Semaphore7DestroyEv+0x3d4c>
<_ZN9Semaphore7DestroyEv+0x3d4c>
<_ZN9Semaphore7DestroyEv+0x3d4c>
<_ZN9Semaphore7DestroyEv+0x3d4c>
<_ZN8ChxUtils13DebugDataSizeE13DebugDataType@plt>
0x26ab8 <_ZN9Semaphore7DestroyEv+0x3e20>
0x26ac0 <_ZN9Semaphore7DestroyEv+0x3e28>
0x26ac8 <_ZN9Semaphore7DestroyEv+0x3e30>
<_ZN9Semaphore7DestroyEv+0x3ee0>
<_ZN9Semaphore7DestroyEv+0x3ee0>
<_ZN9Semaphore7DestroyEv+0x3ee0>
0x35000 <_ZN9Semaphore7DestroyEv+0x3e6c>
#1, 0x26b74 <_ZN9Semaphore7DestroyEv+0x3edc>
0x35000 <_ZN9Semaphore7DestroyEv+0x3e80>
0xd000 <_ZN9Semaphore7DestroyEv+0x3de4>
<_ZN9Semaphore7DestroyEv+0x3e9c>
0xf000 <_ZN9Semaphore7DestroyEv+0x3e18>
0xe000 <_ZN9Semaphore7DestroyEv+0x3e18>
0xf000 <_ZN9Semaphore7DestroyEv+0x3e20>
0xb000 <_ZN9Semaphore7DestroyEv+0x3e44>
0xe000 <_ZN9Semaphore7DestroyEv+0x3e58>
0xf000 <_ZN9Semaphore7DestroyEv+0x3e60>
0xb000 <_ZN9Semaphore7DestroyEv+0x3e54>
<_ZN6ChiLog9LogSystemEPKcS1_S1_S1_iS1_z@plt>
<_ZN15ExtensionModule11GetInstanceEv@plt>
<_ZN15ExtensionModule11GetInstanceEv@plt>
<_ZN9Semaphore7DestroyEv+0x3f24>
<_ZN9Semaphore7DestroyEv+0x3f3c>
<_ZN9Semaphore7DestroyEv+0x3f80>
<_ZN9Semaphore7DestroyEv+0x3f90>
0x26cbc <_ZN9Semaphore7DestroyEv+0x4024>
0x26d80 <_ZN9Semaphore7DestroyEv+0x40e8>
<_ZN9Semaphore7DestroyEv+0x40f4>
<_ZN9Semaphore7DestroyEv+0x41f8>
0x35000 <_ZN9Semaphore7DestroyEv+0x4060>
#1, 0x26e90 <_ZN9Semaphore7DestroyEv+0x41f8>
0x35000 <_ZN9Semaphore7DestroyEv+0x4070>
<_ZN9Semaphore7DestroyEv+0x408c>
0xd000 <_ZN9Semaphore7DestroyEv+0x3fe4>
0xf000 <_ZN9Semaphore7DestroyEv+0x4008>
0xa000 <_ZN9Semaphore7DestroyEv+0x3ff8>
0xd000 <_ZN9Semaphore7DestroyEv+0x4008>
0xd000 <_ZN9Semaphore7DestroyEv+0x4028>
0xb000 <_ZN9Semaphore7DestroyEv+0x403c>
0xe000 <_ZN9Semaphore7DestroyEv+0x4050>
0xd000 <_ZN9Semaphore7DestroyEv+0x4050>
0xf000 <_ZN9Semaphore7DestroyEv+0x405c>
<_ZN6ChiLog9LogSystemEPKcS1_S1_S1_iS1_z@plt>
<_ZN9Semaphore7DestroyEv+0x4208>
<_ZN9Semaphore7DestroyEv+0x41f8>
0x35000 <_ZN9Semaphore7DestroyEv+0x4164>
#3, 0x26e90 <_ZN9Semaphore7DestroyEv+0x41f8>
0x35000 <_ZN9Semaphore7DestroyEv+0x4174>
0xd000 <_ZN9Semaphore7DestroyEv+0x40d8>
<_ZN9Semaphore7DestroyEv+0x41a4>
0xf000 <_ZN9Semaphore7DestroyEv+0x4114>
0xf000 <_ZN9Semaphore7DestroyEv+0x4118>
0xd000 <_ZN9Semaphore7DestroyEv+0x4114>
0xf000 <_ZN9Semaphore7DestroyEv+0x4168>
0xd000 <_ZN9Semaphore7DestroyEv+0x4164>
0xd000 <_ZN9Semaphore7DestroyEv+0x4168>
0xb000 <_ZN9Semaphore7DestroyEv+0x4164>
<_ZN6ChiLog9LogSystemEPKcS1_S1_S1_iS1_z@plt>
<_ZN9Semaphore7DestroyEv+0x40e4>
0x26f54 <_ZN9Semaphore7DestroyEv+0x42bc>
<_ZN15ExtensionModule11GetInstanceEv@plt>
<_ZN9Semaphore7DestroyEv+0x42e8>
<_ZN9Semaphore7DestroyEv+0x42d0>
<_ZN9Semaphore7DestroyEv+0x42e4>
<_ZN9Semaphore7DestroyEv+0x42e4>
<_ZN9Semaphore7DestroyEv+0x431c>
<_ZN9Semaphore7DestroyEv+0x437c>
<_ZN9Semaphore7DestroyEv+0x4370>
0x26fa4 <_ZN9Semaphore7DestroyEv+0x430c>
0x26ffc <_ZN9Semaphore7DestroyEv+0x4364>
<_ZN9Semaphore7DestroyEv+0x4348>
<_ZN9Semaphore7DestroyEv+0x430c>
0x27150 <_ZN9Semaphore7DestroyEv+0x44b8>
0x10000 <_ZN9Semaphore7DestroyEv+0x434c>
<_ZN8ChxUtils15GetFeature1ModeEP11ChiMetadataPj@plt>
0x10000 <_ZN9Semaphore7DestroyEv+0x4394>
<_ZN8ChxUtils12GetSceneModeEP11ChiMetadataPj@plt>
0x27100 <_ZN9Semaphore7DestroyEv+0x4468>
<_ZN9Semaphore7DestroyEv+0x44e0>
0x10000 <_ZN9Semaphore7DestroyEv+0x440c>
<_ZN15ExtensionModule11GetInstanceEv@plt>
<_ZN9Semaphore7DestroyEv+0x44dc>
0x271b8 <_ZN9Semaphore7DestroyEv+0x4520>
0x271b8 <_ZN9Semaphore7DestroyEv+0x4520>
0x271b8 <_ZN9Semaphore7DestroyEv+0x4520>
0x2727c <_ZN9Semaphore7DestroyEv+0x45e4>
0x272dc <_ZN9Semaphore7DestroyEv+0x4644>
0x27334 <_ZN9Semaphore7DestroyEv+0x469c>
0x2738c <_ZN9Semaphore7DestroyEv+0x46f4>
0x273ec <_ZN9Semaphore7DestroyEv+0x4754>
0x27448 <_ZN9Semaphore7DestroyEv+0x47b0>
0x274a4 <_ZN9Semaphore7DestroyEv+0x480c>
0x27500 <_ZN9Semaphore7DestroyEv+0x4868>
0x27558 <_ZN9Semaphore7DestroyEv+0x48c0>
0x275b8 <_ZN9Semaphore7DestroyEv+0x4920>
<_ZN8ChxUtils17GetVendorTagValueEP11ChiMetadata9VendorTagPPv@plt>
0x27604 <_ZN9Semaphore7DestroyEv+0x496c>
<_ZN15ExtensionModule11GetInstanceEv@plt>
0xc000 <_ZN9Semaphore7DestroyEv+0x4938>
0xe000 <_ZN9Semaphore7DestroyEv+0x4944>
0x27694 <_ZN9Semaphore7DestroyEv+0x49fc>
0xc000 <_ZN9Semaphore7DestroyEv+0x4970>
0xe000 <_ZN9Semaphore7DestroyEv+0x497c>
0xf000 <_ZN9Semaphore7DestroyEv+0x49b4>
0xd000 <_ZN9Semaphore7DestroyEv+0x49b0>
0x27704 <_ZN9Semaphore7DestroyEv+0x4a6c>
0xf000 <_ZN9Semaphore7DestroyEv+0x49ec>
0xd000 <_ZN9Semaphore7DestroyEv+0x49e8>
0xf000 <_ZN9Semaphore7DestroyEv+0x4a24>
0xf000 <_ZN9Semaphore7DestroyEv+0x4a28>
0x27774 <_ZN9Semaphore7DestroyEv+0x4adc>
0xf000 <_ZN9Semaphore7DestroyEv+0x4a5c>
0xf000 <_ZN9Semaphore7DestroyEv+0x4a60>
0xb000 <_ZN9Semaphore7DestroyEv+0x4a84>
0xb000 <_ZN9Semaphore7DestroyEv+0x4a88>
0x277e4 <_ZN9Semaphore7DestroyEv+0x4b4c>
0xb000 <_ZN9Semaphore7DestroyEv+0x4abc>
0xb000 <_ZN9Semaphore7DestroyEv+0x4ac0>
0xb000 <_ZN9Semaphore7DestroyEv+0x4af4>
0xe000 <_ZN9Semaphore7DestroyEv+0x4b04>
0x27854 <_ZN9Semaphore7DestroyEv+0x4bbc>
0xb000 <_ZN9Semaphore7DestroyEv+0x4b2c>
0xe000 <_ZN9Semaphore7DestroyEv+0x4b3c>
<_ZN9Semaphore7DestroyEv+0x4bf0>
0xe000 <_ZN9Semaphore7DestroyEv+0x4be0>
0xd000 <_ZN9Semaphore7DestroyEv+0x4be0>
0x279f4 <_ZN9Semaphore7DestroyEv+0x4d5c>
0x35000 <_ZN9Semaphore7DestroyEv+0x4ca0>
#6, 0x279b0 <_ZN9Semaphore7DestroyEv+0x4d18>
0x35000 <_ZN9Semaphore7DestroyEv+0x4cb0>
<_ZN9Semaphore7DestroyEv+0x4cd0>
0xd000 <_ZN9Semaphore7DestroyEv+0x4c24>
0xf000 <_ZN9Semaphore7DestroyEv+0x4c48>
0xd000 <_ZN9Semaphore7DestroyEv+0x4c44>
0xe000 <_ZN9Semaphore7DestroyEv+0x4c4c>
0xd000 <_ZN9Semaphore7DestroyEv+0x4c68>
0xb000 <_ZN9Semaphore7DestroyEv+0x4c7c>
0xe000 <_ZN9Semaphore7DestroyEv+0x4c90>
0xe000 <_ZN9Semaphore7DestroyEv+0x4c94>
0xd000 <_ZN9Semaphore7DestroyEv+0x4c94>
<_ZN6ChiLog9LogSystemEPKcS1_S1_S1_iS1_z@plt>
0xe000 <_ZN9Semaphore7DestroyEv+0x4cd8>
0xd000 <_ZN9Semaphore7DestroyEv+0x4cd8>
0xe000 <_ZN9Semaphore7DestroyEv+0x4d10>
0xb000 <_ZN9Semaphore7DestroyEv+0x4d08>
0x27b28 <_ZN9Semaphore7DestroyEv+0x4e90>
0x35000 <_ZN9Semaphore7DestroyEv+0x4dd0>
#6, 0x27ae0 <_ZN9Semaphore7DestroyEv+0x4e48>
0x35000 <_ZN9Semaphore7DestroyEv+0x4de0>
<_ZN9Semaphore7DestroyEv+0x4e00>
0xd000 <_ZN9Semaphore7DestroyEv+0x4d54>
0xf000 <_ZN9Semaphore7DestroyEv+0x4d78>
0xd000 <_ZN9Semaphore7DestroyEv+0x4d74>
0xe000 <_ZN9Semaphore7DestroyEv+0x4d7c>
0xd000 <_ZN9Semaphore7DestroyEv+0x4d98>
0xb000 <_ZN9Semaphore7DestroyEv+0x4dac>
0xe000 <_ZN9Semaphore7DestroyEv+0x4dc0>
0xe000 <_ZN9Semaphore7DestroyEv+0x4dc4>
0xd000 <_ZN9Semaphore7DestroyEv+0x4dc4>
<_ZN6ChiLog9LogSystemEPKcS1_S1_S1_iS1_z@plt>
0xe000 <_ZN9Semaphore7DestroyEv+0x4e0c>
0xb000 <_ZN9Semaphore7DestroyEv+0x4e04>
0xf000 <_ZN9Semaphore7DestroyEv+0x4e48>
0xf000 <_ZN9Semaphore7DestroyEv+0x4e4c>
0x27c0c <_ZN9Semaphore7DestroyEv+0x4f74>
0x35000 <_ZN9Semaphore7DestroyEv+0x4f04>
#6, 0x27c0c <_ZN9Semaphore7DestroyEv+0x4f74>
0x35000 <_ZN9Semaphore7DestroyEv+0x4f14>
0xd000 <_ZN9Semaphore7DestroyEv+0x4e78>
<_ZN9Semaphore7DestroyEv+0x4f34>
0xf000 <_ZN9Semaphore7DestroyEv+0x4eac>
0xa000 <_ZN9Semaphore7DestroyEv+0x4e9c>
0xe000 <_ZN9Semaphore7DestroyEv+0x4eb0>
0xb000 <_ZN9Semaphore7DestroyEv+0x4ed8>
0xe000 <_ZN9Semaphore7DestroyEv+0x4eec>
0xe000 <_ZN9Semaphore7DestroyEv+0x4ef0>
0xd000 <_ZN9Semaphore7DestroyEv+0x4ef0>
<_ZN6ChiLog9LogSystemEPKcS1_S1_S1_iS1_z@plt>
<_ZN9Semaphore7DestroyEv+0x4f9c>
0x27c9c <_ZN9Semaphore7DestroyEv+0x5004>
0x27cc8 <_ZN9Semaphore7DestroyEv+0x5030>
<_ZN9Semaphore7DestroyEv+0x50ec>
0x35000 <_ZN9Semaphore7DestroyEv+0x5068>
#5, 0x27ca0 <_ZN9Semaphore7DestroyEv+0x5008>
0x35000 <_ZN9Semaphore7DestroyEv+0x5080>
0xd000 <_ZN9Semaphore7DestroyEv+0x4fe4>
<_ZN9Semaphore7DestroyEv+0x50a4>
0xf000 <_ZN9Semaphore7DestroyEv+0x5018>
0xd000 <_ZN9Semaphore7DestroyEv+0x5014>
0xd000 <_ZN9Semaphore7DestroyEv+0x5018>
0xd000 <_ZN9Semaphore7DestroyEv+0x5050>
0xf000 <_ZN9Semaphore7DestroyEv+0x5060>
0xd000 <_ZN9Semaphore7DestroyEv+0x505c>
0xd000 <_ZN9Semaphore7DestroyEv+0x5060>
<_ZN6ChiLog9LogSystemEPKcS1_S1_S1_iS1_z@plt>
<_ZN9Semaphore7DestroyEv+0x5008>
0x27e2c <_ZN9Semaphore7DestroyEv+0x5194>
<_ZN9Semaphore7DestroyEv+0x5140>
<_ZN9Semaphore7DestroyEv+0x5198>
0x27dc8 <_ZN9Semaphore7DestroyEv+0x5130>
0x27e0c <_ZN9Semaphore7DestroyEv+0x5174>
0x27e0c <_ZN9Semaphore7DestroyEv+0x5174>
<_ZN9Semaphore7DestroyEv+0x5130>
<_ZN9Semaphore7DestroyEv+0x518c>
#0, 0x27dc4 <_ZN9Semaphore7DestroyEv+0x512c>
<_ZN9Semaphore7DestroyEv+0x51a0>
0x28010 <_ZN9Semaphore7DestroyEv+0x5378>
<_ZN9Semaphore7DestroyEv+0x55f0>
<_ZN9Semaphore7DestroyEv+0x5270>
<_ZN9Semaphore7DestroyEv+0x55f0>
0x35000 <_ZN9Semaphore7DestroyEv+0x52a8>
#5, 0x27fec <_ZN9Semaphore7DestroyEv+0x5354>
0x35000 <_ZN9Semaphore7DestroyEv+0x52b8>
<_ZN9Semaphore7DestroyEv+0x52f0>
0xd000 <_ZN9Semaphore7DestroyEv+0x522c>
<_ZN9Semaphore7DestroyEv+0x55f0>
0xf000 <_ZN9Semaphore7DestroyEv+0x5260>
0xd000 <_ZN9Semaphore7DestroyEv+0x525c>
0xb000 <_ZN9Semaphore7DestroyEv+0x5258>
0xd000 <_ZN9Semaphore7DestroyEv+0x5288>
<_ZN9Semaphore7DestroyEv+0x55f0>
0xd000 <_ZN9Semaphore7DestroyEv+0x52b4>
0xf000 <_ZN9Semaphore7DestroyEv+0x52c4>
0xb000 <_ZN9Semaphore7DestroyEv+0x52b8>
0xa000 <_ZN9Semaphore7DestroyEv+0x52b8>
<_ZN6ChiLog9LogSystemEPKcS1_S1_S1_iS1_z@plt>
<_ZN9Semaphore7DestroyEv+0x55f0>
<_ZN9Semaphore7DestroyEv+0x5390>
<_ZN9Semaphore7DestroyEv+0x55d4>
0x35000 <_ZN9Semaphore7DestroyEv+0x53ac>
#0, 0x280f8 <_ZN9Semaphore7DestroyEv+0x5460>
<_ZN9Semaphore7DestroyEv+0x55d4>
<_ZN9Semaphore7DestroyEv+0x55f0>
<_ZN9Semaphore7DestroyEv+0x5510>
#1, 0x28264 <_ZN9Semaphore7DestroyEv+0x55cc>
0x35000 <_ZN9Semaphore7DestroyEv+0x53e4>
<_ZN9Semaphore7DestroyEv+0x5414>
0xd000 <_ZN9Semaphore7DestroyEv+0x5358>
0xf000 <_ZN9Semaphore7DestroyEv+0x5380>
0xa000 <_ZN9Semaphore7DestroyEv+0x5370>
0xb000 <_ZN9Semaphore7DestroyEv+0x5378>
0xd000 <_ZN9Semaphore7DestroyEv+0x53a8>
0xb000 <_ZN9Semaphore7DestroyEv+0x53bc>
0xe000 <_ZN9Semaphore7DestroyEv+0x53d4>
0xb000 <_ZN9Semaphore7DestroyEv+0x53cc>
0xb000 <_ZN9Semaphore7DestroyEv+0x53d0>
<_ZN9Semaphore7DestroyEv+0x55c0>
0x35000 <_ZN9Semaphore7DestroyEv+0x5494>
<_ZN9Semaphore7DestroyEv+0x54bc>
0xd000 <_ZN9Semaphore7DestroyEv+0x5408>
0xf000 <_ZN9Semaphore7DestroyEv+0x5430>
0xe000 <_ZN9Semaphore7DestroyEv+0x5430>
0xb000 <_ZN9Semaphore7DestroyEv+0x5428>
0xd000 <_ZN9Semaphore7DestroyEv+0x5450>
0xb000 <_ZN9Semaphore7DestroyEv+0x546c>
0xf000 <_ZN9Semaphore7DestroyEv+0x5480>
0xb000 <_ZN9Semaphore7DestroyEv+0x5474>
0xf000 <_ZN9Semaphore7DestroyEv+0x5488>
<_ZN6ChiLog9LogSystemEPKcS1_S1_S1_iS1_z@plt>
<_ZN9Semaphore7DestroyEv+0x55d4>
#3, 0x28264 <_ZN9Semaphore7DestroyEv+0x55cc>
0x35000 <_ZN9Semaphore7DestroyEv+0x5548>
<_ZN9Semaphore7DestroyEv+0x5578>
0xd000 <_ZN9Semaphore7DestroyEv+0x54bc>
0xf000 <_ZN9Semaphore7DestroyEv+0x54e4>
0xe000 <_ZN9Semaphore7DestroyEv+0x54e4>
0xb000 <_ZN9Semaphore7DestroyEv+0x54dc>
0xd000 <_ZN9Semaphore7DestroyEv+0x550c>
0xd000 <_ZN9Semaphore7DestroyEv+0x552c>
0xf000 <_ZN9Semaphore7DestroyEv+0x553c>
0xb000 <_ZN9Semaphore7DestroyEv+0x5530>
0xc000 <_ZN9Semaphore7DestroyEv+0x5538>
<_ZN6ChiLog9LogSystemEPKcS1_S1_S1_iS1_z@plt>
0x28300 <_ZN9Semaphore7DestroyEv+0x5668>
0x28300 <_ZN9Semaphore7DestroyEv+0x5668>
0xa000 <_ZN9Semaphore7DestroyEv+0x55d4>
<_ZN9Semaphore7DestroyEv+0x5690>
<_ZN9Semaphore7DestroyEv+0x57ac>
0x283ec <_ZN9Semaphore7DestroyEv+0x5754>
0x2840c <_ZN9Semaphore7DestroyEv+0x5774>
0x28414 <_ZN9Semaphore7DestroyEv+0x577c>
<_ZN9Semaphore7DestroyEv+0x5794>
0x283b0 <_ZN9Semaphore7DestroyEv+0x5718>
<_ZN9Semaphore7DestroyEv+0x5798>
0x28470 <_ZN9Semaphore7DestroyEv+0x57d8>
<_ZN9Semaphore7DestroyEv+0x57e8>
0x28480 <_ZN9Semaphore7DestroyEv+0x57e8>
<_ZN9Semaphore7DestroyEv+0x57e8>
<_ZN9Semaphore7DestroyEv+0x57b4>
0x35000 <_ZN9Semaphore7DestroyEv+0x581c>
#5, 0x28548 <_ZN9Semaphore7DestroyEv+0x58b0>
0x35000 <_ZN9Semaphore7DestroyEv+0x582c>
0xd000 <_ZN9Semaphore7DestroyEv+0x5790>
<_ZN9Semaphore7DestroyEv+0x5860>
0xf000 <_ZN9Semaphore7DestroyEv+0x57c8>
0xb000 <_ZN9Semaphore7DestroyEv+0x57c0>
0xf000 <_ZN9Semaphore7DestroyEv+0x57d4>
0xd000 <_ZN9Semaphore7DestroyEv+0x5808>
0xf000 <_ZN9Semaphore7DestroyEv+0x5820>
0xf000 <_ZN9Semaphore7DestroyEv+0x5824>
0xc000 <_ZN9Semaphore7DestroyEv+0x581c>
<_ZN6ChiLog9LogSystemEPKcS1_S1_S1_iS1_z@plt>
<_ZN9Semaphore7DestroyEv+0x58dc>
0xb000 <_ZN9Semaphore7DestroyEv+0x58b4>
0xc000 <_ZN9Semaphore7DestroyEv+0x58bc>
0x28608 <_ZN9Semaphore7DestroyEv+0x5970>
<_ZN9Semaphore7DestroyEv+0x5a2c>
<_ZN9Semaphore7DestroyEv+0x5a40>
0x35000 <_ZN9Semaphore7DestroyEv+0x59a4>
#0, 0x286b0 <_ZN9Semaphore7DestroyEv+0x5a18>
0x35000 <_ZN9Semaphore7DestroyEv+0x59b4>
0xd000 <_ZN9Semaphore7DestroyEv+0x5918>
<_ZN9Semaphore7DestroyEv+0x59d8>
0xf000 <_ZN9Semaphore7DestroyEv+0x594c>
0xc000 <_ZN9Semaphore7DestroyEv+0x5944>
0xc000 <_ZN9Semaphore7DestroyEv+0x5948>
0xf000 <_ZN9Semaphore7DestroyEv+0x5988>
0xb000 <_ZN9Semaphore7DestroyEv+0x5980>
0xc000 <_ZN9Semaphore7DestroyEv+0x5988>
0xd000 <_ZN9Semaphore7DestroyEv+0x5990>
<_ZN6ChiLog9LogSystemEPKcS1_S1_S1_iS1_z@plt>
<_ZN9Semaphore7DestroyEv+0x5a40>
<_ZN15ExtensionModule11GetInstanceEv@plt>
<_ZN9Semaphore7DestroyEv+0x5af4>
0x2877c <_ZN9Semaphore7DestroyEv+0x5ae4>
<_ZN15UsecaseSelector20IsJPEGSnapshotStreamEPK14camera3_stream@plt>
0x28784 <_ZN9Semaphore7DestroyEv+0x5aec>
<_ZN15UsecaseSelector20IsHeicSnapshotStreamEPK14camera3_stream@plt>
0x28784 <_ZN9Semaphore7DestroyEv+0x5aec>
<_ZN15UsecaseSelector20IsYUVOutResThresholdEP9ChiStream@plt>
0x28784 <_ZN9Semaphore7DestroyEv+0x5aec>
<_ZN9Semaphore7DestroyEv+0x5aa4>
<_ZN9Semaphore7DestroyEv+0x5b08>
<_ZN9Semaphore7DestroyEv+0x5b08>
<_ZN9Semaphore7DestroyEv+0x5a94>
0x28834 <_ZN9Semaphore7DestroyEv+0x5b9c>
<_ZN9Semaphore7DestroyEv+0x5b68>
<_ZN9Semaphore7DestroyEv+0x5ba4>
<_ZN9Semaphore7DestroyEv+0x5b9c>
0x287e0 <_ZN9Semaphore7DestroyEv+0x5b48>
0x287e0 <_ZN9Semaphore7DestroyEv+0x5b48>
0x287e0 <_ZN9Semaphore7DestroyEv+0x5b48>
<_ZN9Semaphore7DestroyEv+0x5b54>
<_ZN9Semaphore7DestroyEv+0x5b48>
<_ZN9Semaphore7DestroyEv+0x5ba8>
0x28990 <_ZN9Semaphore7DestroyEv+0x5cf8>
<_ZN11ChiMetadata21InitializeMetadataOpsEP14ChiMetadataOps@plt>
0x288c8 <_ZN9Semaphore7DestroyEv+0x5c30>
<_ZN9Semaphore7DestroyEv+0x5cd0>
0x28950 <_ZN9Semaphore7DestroyEv+0x5cb8>
#0, 0x28950 <_ZN9Semaphore7DestroyEv+0x5cb8>
<_ZN15ExtensionModule11GetInstanceEv@plt>
<_ZN15ExtensionModule23GetAvailableRequestKeysEjPjjS0_@plt>
<_ZN11ChiMetadata10InitializeEPKjji@plt>
0x28974 <_ZN9Semaphore7DestroyEv+0x5cdc>
0x28990 <_ZN9Semaphore7DestroyEv+0x5cf8>
0x289c4 <_ZN9Semaphore7DestroyEv+0x5d2c>
<_ZN9Semaphore7DestroyEv+0x5d28>
<_ZN15ExtensionModule11GetInstanceEv@plt>
<_ZN15ExtensionModule14GetMetadataOpsEP14ChiMetadataOps@plt>
0x28b24 <_ZN9Semaphore7DestroyEv+0x5e8c>
0x28be4 <_ZN9Semaphore7DestroyEv+0x5f4c>
0x28ca4 <_ZN9Semaphore7DestroyEv+0x600c>
0x28d64 <_ZN9Semaphore7DestroyEv+0x60cc>
0x28e24 <_ZN9Semaphore7DestroyEv+0x618c>
0x28ee4 <_ZN9Semaphore7DestroyEv+0x624c>
0x28fa4 <_ZN9Semaphore7DestroyEv+0x630c>
0x29064 <_ZN9Semaphore7DestroyEv+0x63cc>
0x29124 <_ZN9Semaphore7DestroyEv+0x648c>
0x291e4 <_ZN9Semaphore7DestroyEv+0x654c>
0x292a4 <_ZN9Semaphore7DestroyEv+0x660c>
0x29364 <_ZN9Semaphore7DestroyEv+0x66cc>
0x29424 <_ZN9Semaphore7DestroyEv+0x678c>
0x294e4 <_ZN9Semaphore7DestroyEv+0x684c>
0x295a4 <_ZN9Semaphore7DestroyEv+0x690c>
0x29664 <_ZN9Semaphore7DestroyEv+0x69cc>
0x29724 <_ZN9Semaphore7DestroyEv+0x6a8c>
0x297e4 <_ZN9Semaphore7DestroyEv+0x6b4c>
0x298a4 <_ZN9Semaphore7DestroyEv+0x6c0c>
0x29964 <_ZN9Semaphore7DestroyEv+0x6ccc>
0x29a24 <_ZN9Semaphore7DestroyEv+0x6d8c>
0x29ae4 <_ZN9Semaphore7DestroyEv+0x6e4c>
0x29ba4 <_ZN9Semaphore7DestroyEv+0x6f0c>
0x29c64 <_ZN9Semaphore7DestroyEv+0x6fcc>
0x29d24 <_ZN9Semaphore7DestroyEv+0x708c>
0x29de4 <_ZN9Semaphore7DestroyEv+0x714c>
0x29ea4 <_ZN9Semaphore7DestroyEv+0x720c>
0x29f64 <_ZN9Semaphore7DestroyEv+0x72cc>
0x2a024 <_ZN9Semaphore7DestroyEv+0x738c>
0x2a0e4 <_ZN9Semaphore7DestroyEv+0x744c>
0x2a1a4 <_ZN9Semaphore7DestroyEv+0x750c>
0x2a264 <_ZN9Semaphore7DestroyEv+0x75cc>
0x2a324 <_ZN9Semaphore7DestroyEv+0x768c>
0x2a3e4 <_ZN9Semaphore7DestroyEv+0x774c>
0x2a4a4 <_ZN9Semaphore7DestroyEv+0x780c>
0x2a564 <_ZN9Semaphore7DestroyEv+0x78cc>
0x2a624 <_ZN9Semaphore7DestroyEv+0x798c>
0x2a6e4 <_ZN9Semaphore7DestroyEv+0x7a4c>
0x2a7a4 <_ZN9Semaphore7DestroyEv+0x7b0c>
<_ZN9Semaphore7DestroyEv+0x7bc8>
0x35000 <_ZN9Semaphore7DestroyEv+0x5ec0>
#6, 0x2a85c <_ZN9Semaphore7DestroyEv+0x7bc4>
0x35000 <_ZN9Semaphore7DestroyEv+0x5ed0>
<_ZN9Semaphore7DestroyEv+0x5efc>
0xb000 <_ZN9Semaphore7DestroyEv+0x5e3c>
0xf000 <_ZN9Semaphore7DestroyEv+0x5e68>
0xb000 <_ZN9Semaphore7DestroyEv+0x5e5c>
0xf000 <_ZN9Semaphore7DestroyEv+0x5e70>
0xd000 <_ZN9Semaphore7DestroyEv+0x5e6c>
0xb000 <_ZN9Semaphore7DestroyEv+0x5e88>
0xb000 <_ZN9Semaphore7DestroyEv+0x5ea4>
0xe000 <_ZN9Semaphore7DestroyEv+0x5eb8>
0xf000 <_ZN9Semaphore7DestroyEv+0x5ec0>
0xb000 <_ZN9Semaphore7DestroyEv+0x5eb4>
0xd000 <_ZN9Semaphore7DestroyEv+0x5ec0>
<_ZN9Semaphore7DestroyEv+0x7bc0>
0x35000 <_ZN9Semaphore7DestroyEv+0x5f80>
#6, 0x2a85c <_ZN9Semaphore7DestroyEv+0x7bc4>
0x35000 <_ZN9Semaphore7DestroyEv+0x5f90>
<_ZN9Semaphore7DestroyEv+0x5fbc>
0xb000 <_ZN9Semaphore7DestroyEv+0x5efc>
0xf000 <_ZN9Semaphore7DestroyEv+0x5f28>
0xb000 <_ZN9Semaphore7DestroyEv+0x5f1c>
0xf000 <_ZN9Semaphore7DestroyEv+0x5f30>
0xe000 <_ZN9Semaphore7DestroyEv+0x5f30>
0xb000 <_ZN9Semaphore7DestroyEv+0x5f48>
0xb000 <_ZN9Semaphore7DestroyEv+0x5f64>
0xe000 <_ZN9Semaphore7DestroyEv+0x5f78>
0xf000 <_ZN9Semaphore7DestroyEv+0x5f80>
0xb000 <_ZN9Semaphore7DestroyEv+0x5f74>
0xe000 <_ZN9Semaphore7DestroyEv+0x5f84>
<_ZN9Semaphore7DestroyEv+0x7bc0>
0x35000 <_ZN9Semaphore7DestroyEv+0x6040>
#6, 0x2a85c <_ZN9Semaphore7DestroyEv+0x7bc4>
0x35000 <_ZN9Semaphore7DestroyEv+0x6050>
<_ZN9Semaphore7DestroyEv+0x607c>
0xb000 <_ZN9Semaphore7DestroyEv+0x5fbc>
0xf000 <_ZN9Semaphore7DestroyEv+0x5fe8>
0xb000 <_ZN9Semaphore7DestroyEv+0x5fdc>
0xf000 <_ZN9Semaphore7DestroyEv+0x5ff0>
0xd000 <_ZN9Semaphore7DestroyEv+0x5fec>
0xb000 <_ZN9Semaphore7DestroyEv+0x6008>
0xb000 <_ZN9Semaphore7DestroyEv+0x6024>
0xe000 <_ZN9Semaphore7DestroyEv+0x6038>
0xf000 <_ZN9Semaphore7DestroyEv+0x6040>
0xb000 <_ZN9Semaphore7DestroyEv+0x6034>
0xd000 <_ZN9Semaphore7DestroyEv+0x6040>
<_ZN9Semaphore7DestroyEv+0x7bc0>
0x35000 <_ZN9Semaphore7DestroyEv+0x6100>
#6, 0x2a85c <_ZN9Semaphore7DestroyEv+0x7bc4>
0x35000 <_ZN9Semaphore7DestroyEv+0x6110>
<_ZN9Semaphore7DestroyEv+0x613c>
0xb000 <_ZN9Semaphore7DestroyEv+0x607c>
0xf000 <_ZN9Semaphore7DestroyEv+0x60a8>
0xb000 <_ZN9Semaphore7DestroyEv+0x609c>
0xf000 <_ZN9Semaphore7DestroyEv+0x60b0>
0xc000 <_ZN9Semaphore7DestroyEv+0x60a8>
0xb000 <_ZN9Semaphore7DestroyEv+0x60c8>
0xb000 <_ZN9Semaphore7DestroyEv+0x60e4>
0xe000 <_ZN9Semaphore7DestroyEv+0x60f8>
0xf000 <_ZN9Semaphore7DestroyEv+0x6100>
0xb000 <_ZN9Semaphore7DestroyEv+0x60f4>
0xc000 <_ZN9Semaphore7DestroyEv+0x60fc>
<_ZN9Semaphore7DestroyEv+0x7bc0>
0x35000 <_ZN9Semaphore7DestroyEv+0x61c0>
#6, 0x2a85c <_ZN9Semaphore7DestroyEv+0x7bc4>
0x35000 <_ZN9Semaphore7DestroyEv+0x61d0>
<_ZN9Semaphore7DestroyEv+0x61fc>
0xb000 <_ZN9Semaphore7DestroyEv+0x613c>
0xf000 <_ZN9Semaphore7DestroyEv+0x6168>
0xb000 <_ZN9Semaphore7DestroyEv+0x615c>
0xf000 <_ZN9Semaphore7DestroyEv+0x6170>
0xc000 <_ZN9Semaphore7DestroyEv+0x6168>
0xb000 <_ZN9Semaphore7DestroyEv+0x6188>
0xb000 <_ZN9Semaphore7DestroyEv+0x61a4>
0xe000 <_ZN9Semaphore7DestroyEv+0x61b8>
0xf000 <_ZN9Semaphore7DestroyEv+0x61c0>
0xb000 <_ZN9Semaphore7DestroyEv+0x61b4>
0xc000 <_ZN9Semaphore7DestroyEv+0x61bc>
<_ZN9Semaphore7DestroyEv+0x7bc0>
0x35000 <_ZN9Semaphore7DestroyEv+0x6280>
#6, 0x2a85c <_ZN9Semaphore7DestroyEv+0x7bc4>
0x35000 <_ZN9Semaphore7DestroyEv+0x6290>
<_ZN9Semaphore7DestroyEv+0x62bc>
0xb000 <_ZN9Semaphore7DestroyEv+0x61fc>
0xf000 <_ZN9Semaphore7DestroyEv+0x6228>
0xb000 <_ZN9Semaphore7DestroyEv+0x621c>
0xf000 <_ZN9Semaphore7DestroyEv+0x6230>
0xf000 <_ZN9Semaphore7DestroyEv+0x6234>
0xb000 <_ZN9Semaphore7DestroyEv+0x6248>
0xb000 <_ZN9Semaphore7DestroyEv+0x6264>
0xe000 <_ZN9Semaphore7DestroyEv+0x6278>
0xf000 <_ZN9Semaphore7DestroyEv+0x6280>
0xb000 <_ZN9Semaphore7DestroyEv+0x6274>
0xf000 <_ZN9Semaphore7DestroyEv+0x6288>
<_ZN9Semaphore7DestroyEv+0x7bc0>
0x35000 <_ZN9Semaphore7DestroyEv+0x6340>
#6, 0x2a85c <_ZN9Semaphore7DestroyEv+0x7bc4>
0x35000 <_ZN9Semaphore7DestroyEv+0x6350>
<_ZN9Semaphore7DestroyEv+0x637c>
0xb000 <_ZN9Semaphore7DestroyEv+0x62bc>
0xf000 <_ZN9Semaphore7DestroyEv+0x62e8>
0xb000 <_ZN9Semaphore7DestroyEv+0x62dc>
0xf000 <_ZN9Semaphore7DestroyEv+0x62f0>
0xe000 <_ZN9Semaphore7DestroyEv+0x62f0>
0xb000 <_ZN9Semaphore7DestroyEv+0x6304>
0xb000 <_ZN9Semaphore7DestroyEv+0x6320>
0xe000 <_ZN9Semaphore7DestroyEv+0x6334>
0xf000 <_ZN9Semaphore7DestroyEv+0x633c>
0xb000 <_ZN9Semaphore7DestroyEv+0x6330>
0xe000 <_ZN9Semaphore7DestroyEv+0x6340>
<_ZN9Semaphore7DestroyEv+0x7bc0>
0x35000 <_ZN9Semaphore7DestroyEv+0x63fc>
#6, 0x2a85c <_ZN9Semaphore7DestroyEv+0x7bc4>
0x35000 <_ZN9Semaphore7DestroyEv+0x640c>
<_ZN9Semaphore7DestroyEv+0x643c>
0xb000 <_ZN9Semaphore7DestroyEv+0x6378>
0xf000 <_ZN9Semaphore7DestroyEv+0x63a4>
0xb000 <_ZN9Semaphore7DestroyEv+0x6398>
0xf000 <_ZN9Semaphore7DestroyEv+0x63ac>
0xa000 <_ZN9Semaphore7DestroyEv+0x639c>
0xb000 <_ZN9Semaphore7DestroyEv+0x63c4>
0xb000 <_ZN9Semaphore7DestroyEv+0x63e0>
0xe000 <_ZN9Semaphore7DestroyEv+0x63f4>
0xf000 <_ZN9Semaphore7DestroyEv+0x63fc>
0xb000 <_ZN9Semaphore7DestroyEv+0x63f0>
0xa000 <_ZN9Semaphore7DestroyEv+0x63f0>
<_ZN9Semaphore7DestroyEv+0x7bc0>
0x35000 <_ZN9Semaphore7DestroyEv+0x64bc>
#6, 0x2a85c <_ZN9Semaphore7DestroyEv+0x7bc4>
0x35000 <_ZN9Semaphore7DestroyEv+0x64cc>
<_ZN9Semaphore7DestroyEv+0x64fc>
0xb000 <_ZN9Semaphore7DestroyEv+0x6438>
0xf000 <_ZN9Semaphore7DestroyEv+0x6464>
0xb000 <_ZN9Semaphore7DestroyEv+0x6458>
0xf000 <_ZN9Semaphore7DestroyEv+0x646c>
0xd000 <_ZN9Semaphore7DestroyEv+0x6468>
0xb000 <_ZN9Semaphore7DestroyEv+0x6484>
0xb000 <_ZN9Semaphore7DestroyEv+0x64a0>
0xe000 <_ZN9Semaphore7DestroyEv+0x64b4>
0xf000 <_ZN9Semaphore7DestroyEv+0x64bc>
0xb000 <_ZN9Semaphore7DestroyEv+0x64b0>
0xd000 <_ZN9Semaphore7DestroyEv+0x64bc>
<_ZN9Semaphore7DestroyEv+0x7bc0>
0x35000 <_ZN9Semaphore7DestroyEv+0x657c>
#6, 0x2a85c <_ZN9Semaphore7DestroyEv+0x7bc4>
0x35000 <_ZN9Semaphore7DestroyEv+0x658c>
<_ZN9Semaphore7DestroyEv+0x65bc>
0xb000 <_ZN9Semaphore7DestroyEv+0x64f8>
0xf000 <_ZN9Semaphore7DestroyEv+0x6524>
0xb000 <_ZN9Semaphore7DestroyEv+0x6518>
0xf000 <_ZN9Semaphore7DestroyEv+0x652c>
0xd000 <_ZN9Semaphore7DestroyEv+0x6528>
0xb000 <_ZN9Semaphore7DestroyEv+0x6544>
0xb000 <_ZN9Semaphore7DestroyEv+0x6560>
0xe000 <_ZN9Semaphore7DestroyEv+0x6574>
0xf000 <_ZN9Semaphore7DestroyEv+0x657c>
0xb000 <_ZN9Semaphore7DestroyEv+0x6570>
0xd000 <_ZN9Semaphore7DestroyEv+0x657c>
<_ZN9Semaphore7DestroyEv+0x7bc0>
0x35000 <_ZN9Semaphore7DestroyEv+0x663c>
#6, 0x2a85c <_ZN9Semaphore7DestroyEv+0x7bc4>
0x35000 <_ZN9Semaphore7DestroyEv+0x664c>
<_ZN9Semaphore7DestroyEv+0x667c>
0xb000 <_ZN9Semaphore7DestroyEv+0x65b8>
0xf000 <_ZN9Semaphore7DestroyEv+0x65e4>
0xb000 <_ZN9Semaphore7DestroyEv+0x65d8>
0xf000 <_ZN9Semaphore7DestroyEv+0x65ec>
0xf000 <_ZN9Semaphore7DestroyEv+0x65f0>
0xb000 <_ZN9Semaphore7DestroyEv+0x6604>
0xb000 <_ZN9Semaphore7DestroyEv+0x6620>
0xe000 <_ZN9Semaphore7DestroyEv+0x6634>
0xf000 <_ZN9Semaphore7DestroyEv+0x663c>
0xb000 <_ZN9Semaphore7DestroyEv+0x6630>
0xf000 <_ZN9Semaphore7DestroyEv+0x6644>
<_ZN9Semaphore7DestroyEv+0x7bc0>
0x35000 <_ZN9Semaphore7DestroyEv+0x66fc>
#6, 0x2a85c <_ZN9Semaphore7DestroyEv+0x7bc4>
0x35000 <_ZN9Semaphore7DestroyEv+0x670c>
<_ZN9Semaphore7DestroyEv+0x673c>
0xb000 <_ZN9Semaphore7DestroyEv+0x6678>
0xf000 <_ZN9Semaphore7DestroyEv+0x66a4>
0xb000 <_ZN9Semaphore7DestroyEv+0x6698>
0xf000 <_ZN9Semaphore7DestroyEv+0x66ac>
0xe000 <_ZN9Semaphore7DestroyEv+0x66ac>
0xb000 <_ZN9Semaphore7DestroyEv+0x66c4>
0xb000 <_ZN9Semaphore7DestroyEv+0x66e0>
0xe000 <_ZN9Semaphore7DestroyEv+0x66f4>
0xf000 <_ZN9Semaphore7DestroyEv+0x66fc>
0xb000 <_ZN9Semaphore7DestroyEv+0x66f0>
0xe000 <_ZN9Semaphore7DestroyEv+0x6700>
<_ZN9Semaphore7DestroyEv+0x7bc0>
0x35000 <_ZN9Semaphore7DestroyEv+0x67bc>
#6, 0x2a85c <_ZN9Semaphore7DestroyEv+0x7bc4>
0x35000 <_ZN9Semaphore7DestroyEv+0x67cc>
<_ZN9Semaphore7DestroyEv+0x67fc>
0xb000 <_ZN9Semaphore7DestroyEv+0x6738>
0xf000 <_ZN9Semaphore7DestroyEv+0x6764>
0xb000 <_ZN9Semaphore7DestroyEv+0x6758>
0xf000 <_ZN9Semaphore7DestroyEv+0x676c>
0xc000 <_ZN9Semaphore7DestroyEv+0x6764>
0xb000 <_ZN9Semaphore7DestroyEv+0x6784>
0xb000 <_ZN9Semaphore7DestroyEv+0x67a0>
0xe000 <_ZN9Semaphore7DestroyEv+0x67b4>
0xf000 <_ZN9Semaphore7DestroyEv+0x67bc>
0xb000 <_ZN9Semaphore7DestroyEv+0x67b0>
0xc000 <_ZN9Semaphore7DestroyEv+0x67b8>
<_ZN9Semaphore7DestroyEv+0x7bc0>
0x35000 <_ZN9Semaphore7DestroyEv+0x687c>
#6, 0x2a85c <_ZN9Semaphore7DestroyEv+0x7bc4>
0x35000 <_ZN9Semaphore7DestroyEv+0x688c>
<_ZN9Semaphore7DestroyEv+0x68bc>
0xb000 <_ZN9Semaphore7DestroyEv+0x67f8>
0xf000 <_ZN9Semaphore7DestroyEv+0x6824>
0xb000 <_ZN9Semaphore7DestroyEv+0x6818>
0xf000 <_ZN9Semaphore7DestroyEv+0x682c>
0xc000 <_ZN9Semaphore7DestroyEv+0x6824>
0xb000 <_ZN9Semaphore7DestroyEv+0x6844>
0xb000 <_ZN9Semaphore7DestroyEv+0x6860>
0xe000 <_ZN9Semaphore7DestroyEv+0x6874>
0xf000 <_ZN9Semaphore7DestroyEv+0x687c>
0xb000 <_ZN9Semaphore7DestroyEv+0x6870>
0xc000 <_ZN9Semaphore7DestroyEv+0x6878>
<_ZN9Semaphore7DestroyEv+0x7bc0>
0x35000 <_ZN9Semaphore7DestroyEv+0x693c>
#6, 0x2a85c <_ZN9Semaphore7DestroyEv+0x7bc4>
0x35000 <_ZN9Semaphore7DestroyEv+0x694c>
<_ZN9Semaphore7DestroyEv+0x697c>
0xb000 <_ZN9Semaphore7DestroyEv+0x68b8>
0xf000 <_ZN9Semaphore7DestroyEv+0x68e4>
0xb000 <_ZN9Semaphore7DestroyEv+0x68d8>
0xf000 <_ZN9Semaphore7DestroyEv+0x68ec>
0xf000 <_ZN9Semaphore7DestroyEv+0x68f0>
0xb000 <_ZN9Semaphore7DestroyEv+0x6904>
0xb000 <_ZN9Semaphore7DestroyEv+0x6920>
0xe000 <_ZN9Semaphore7DestroyEv+0x6934>
0xf000 <_ZN9Semaphore7DestroyEv+0x693c>
0xb000 <_ZN9Semaphore7DestroyEv+0x6930>
0xf000 <_ZN9Semaphore7DestroyEv+0x6944>
<_ZN9Semaphore7DestroyEv+0x7bc0>
0x35000 <_ZN9Semaphore7DestroyEv+0x69fc>
#6, 0x2a85c <_ZN9Semaphore7DestroyEv+0x7bc4>
0x35000 <_ZN9Semaphore7DestroyEv+0x6a0c>
<_ZN9Semaphore7DestroyEv+0x6a3c>
0xb000 <_ZN9Semaphore7DestroyEv+0x6978>
0xf000 <_ZN9Semaphore7DestroyEv+0x69a4>
0xb000 <_ZN9Semaphore7DestroyEv+0x6998>
0xf000 <_ZN9Semaphore7DestroyEv+0x69ac>
0xf000 <_ZN9Semaphore7DestroyEv+0x69b0>
0xb000 <_ZN9Semaphore7DestroyEv+0x69c4>
0xb000 <_ZN9Semaphore7DestroyEv+0x69e0>
0xe000 <_ZN9Semaphore7DestroyEv+0x69f4>
0xf000 <_ZN9Semaphore7DestroyEv+0x69fc>
0xb000 <_ZN9Semaphore7DestroyEv+0x69f0>
0xf000 <_ZN9Semaphore7DestroyEv+0x6a04>
<_ZN9Semaphore7DestroyEv+0x7bc0>
0x35000 <_ZN9Semaphore7DestroyEv+0x6abc>
#6, 0x2a85c <_ZN9Semaphore7DestroyEv+0x7bc4>
0x35000 <_ZN9Semaphore7DestroyEv+0x6acc>
<_ZN9Semaphore7DestroyEv+0x6afc>
0xb000 <_ZN9Semaphore7DestroyEv+0x6a38>
0xf000 <_ZN9Semaphore7DestroyEv+0x6a64>
0xb000 <_ZN9Semaphore7DestroyEv+0x6a58>
0xf000 <_ZN9Semaphore7DestroyEv+0x6a6c>
0xa000 <_ZN9Semaphore7DestroyEv+0x6a5c>
0xb000 <_ZN9Semaphore7DestroyEv+0x6a84>
0xb000 <_ZN9Semaphore7DestroyEv+0x6aa0>
0xe000 <_ZN9Semaphore7DestroyEv+0x6ab4>
0xf000 <_ZN9Semaphore7DestroyEv+0x6abc>
0xb000 <_ZN9Semaphore7DestroyEv+0x6ab0>
0xa000 <_ZN9Semaphore7DestroyEv+0x6ab0>
<_ZN9Semaphore7DestroyEv+0x7bc0>
0x35000 <_ZN9Semaphore7DestroyEv+0x6b7c>
#6, 0x2a85c <_ZN9Semaphore7DestroyEv+0x7bc4>
0x35000 <_ZN9Semaphore7DestroyEv+0x6b8c>
<_ZN9Semaphore7DestroyEv+0x6bbc>
0xb000 <_ZN9Semaphore7DestroyEv+0x6af8>
0xf000 <_ZN9Semaphore7DestroyEv+0x6b24>
0xb000 <_ZN9Semaphore7DestroyEv+0x6b18>
0xf000 <_ZN9Semaphore7DestroyEv+0x6b2c>
0xf000 <_ZN9Semaphore7DestroyEv+0x6b30>
0xb000 <_ZN9Semaphore7DestroyEv+0x6b44>
0xb000 <_ZN9Semaphore7DestroyEv+0x6b60>
0xe000 <_ZN9Semaphore7DestroyEv+0x6b74>
0xf000 <_ZN9Semaphore7DestroyEv+0x6b7c>
0xb000 <_ZN9Semaphore7DestroyEv+0x6b70>
0xf000 <_ZN9Semaphore7DestroyEv+0x6b84>
<_ZN9Semaphore7DestroyEv+0x7bc0>
0x35000 <_ZN9Semaphore7DestroyEv+0x6c3c>
#6, 0x2a85c <_ZN9Semaphore7DestroyEv+0x7bc4>
0x35000 <_ZN9Semaphore7DestroyEv+0x6c4c>
<_ZN9Semaphore7DestroyEv+0x6c7c>
0xb000 <_ZN9Semaphore7DestroyEv+0x6bb8>
0xf000 <_ZN9Semaphore7DestroyEv+0x6be4>
0xb000 <_ZN9Semaphore7DestroyEv+0x6bd8>
0xf000 <_ZN9Semaphore7DestroyEv+0x6bec>
0xd000 <_ZN9Semaphore7DestroyEv+0x6be8>
0xb000 <_ZN9Semaphore7DestroyEv+0x6c04>
0xb000 <_ZN9Semaphore7DestroyEv+0x6c20>
0xe000 <_ZN9Semaphore7DestroyEv+0x6c34>
0xf000 <_ZN9Semaphore7DestroyEv+0x6c3c>
0xb000 <_ZN9Semaphore7DestroyEv+0x6c30>
0xd000 <_ZN9Semaphore7DestroyEv+0x6c3c>
<_ZN9Semaphore7DestroyEv+0x7bc0>
0x35000 <_ZN9Semaphore7DestroyEv+0x6cfc>
#6, 0x2a85c <_ZN9Semaphore7DestroyEv+0x7bc4>
0x35000 <_ZN9Semaphore7DestroyEv+0x6d0c>
<_ZN9Semaphore7DestroyEv+0x6d3c>
0xb000 <_ZN9Semaphore7DestroyEv+0x6c78>
0xf000 <_ZN9Semaphore7DestroyEv+0x6ca4>
0xb000 <_ZN9Semaphore7DestroyEv+0x6c98>
0xf000 <_ZN9Semaphore7DestroyEv+0x6cac>
0xd000 <_ZN9Semaphore7DestroyEv+0x6ca8>
0xb000 <_ZN9Semaphore7DestroyEv+0x6cc4>
0xb000 <_ZN9Semaphore7DestroyEv+0x6ce0>
0xe000 <_ZN9Semaphore7DestroyEv+0x6cf4>
0xf000 <_ZN9Semaphore7DestroyEv+0x6cfc>
0xb000 <_ZN9Semaphore7DestroyEv+0x6cf0>
0xd000 <_ZN9Semaphore7DestroyEv+0x6cfc>
<_ZN9Semaphore7DestroyEv+0x7bc0>
0x35000 <_ZN9Semaphore7DestroyEv+0x6dbc>
#6, 0x2a85c <_ZN9Semaphore7DestroyEv+0x7bc4>
0x35000 <_ZN9Semaphore7DestroyEv+0x6dcc>
<_ZN9Semaphore7DestroyEv+0x6dfc>
0xb000 <_ZN9Semaphore7DestroyEv+0x6d38>
0xf000 <_ZN9Semaphore7DestroyEv+0x6d64>
0xb000 <_ZN9Semaphore7DestroyEv+0x6d58>
0xf000 <_ZN9Semaphore7DestroyEv+0x6d6c>
0xf000 <_ZN9Semaphore7DestroyEv+0x6d70>
0xb000 <_ZN9Semaphore7DestroyEv+0x6d84>
0xb000 <_ZN9Semaphore7DestroyEv+0x6da0>
0xe000 <_ZN9Semaphore7DestroyEv+0x6db4>
0xf000 <_ZN9Semaphore7DestroyEv+0x6dbc>
0xb000 <_ZN9Semaphore7DestroyEv+0x6db0>
0xf000 <_ZN9Semaphore7DestroyEv+0x6dc4>
<_ZN9Semaphore7DestroyEv+0x7bc0>
0x35000 <_ZN9Semaphore7DestroyEv+0x6e7c>
#6, 0x2a85c <_ZN9Semaphore7DestroyEv+0x7bc4>
0x35000 <_ZN9Semaphore7DestroyEv+0x6e8c>
<_ZN9Semaphore7DestroyEv+0x6ebc>
0xb000 <_ZN9Semaphore7DestroyEv+0x6df8>
0xf000 <_ZN9Semaphore7DestroyEv+0x6e24>
0xb000 <_ZN9Semaphore7DestroyEv+0x6e18>
0xf000 <_ZN9Semaphore7DestroyEv+0x6e2c>
0xf000 <_ZN9Semaphore7DestroyEv+0x6e30>
0xb000 <_ZN9Semaphore7DestroyEv+0x6e44>
0xb000 <_ZN9Semaphore7DestroyEv+0x6e60>
0xe000 <_ZN9Semaphore7DestroyEv+0x6e74>
0xf000 <_ZN9Semaphore7DestroyEv+0x6e7c>
0xb000 <_ZN9Semaphore7DestroyEv+0x6e70>
0xf000 <_ZN9Semaphore7DestroyEv+0x6e84>
<_ZN9Semaphore7DestroyEv+0x7bc0>
0x35000 <_ZN9Semaphore7DestroyEv+0x6f3c>
#6, 0x2a85c <_ZN9Semaphore7DestroyEv+0x7bc4>
0x35000 <_ZN9Semaphore7DestroyEv+0x6f4c>
<_ZN9Semaphore7DestroyEv+0x6f7c>
0xb000 <_ZN9Semaphore7DestroyEv+0x6eb8>
0xf000 <_ZN9Semaphore7DestroyEv+0x6ee4>
0xb000 <_ZN9Semaphore7DestroyEv+0x6ed8>
0xf000 <_ZN9Semaphore7DestroyEv+0x6eec>
0xd000 <_ZN9Semaphore7DestroyEv+0x6ee8>
0xb000 <_ZN9Semaphore7DestroyEv+0x6f04>
0xb000 <_ZN9Semaphore7DestroyEv+0x6f20>
0xe000 <_ZN9Semaphore7DestroyEv+0x6f34>
0xf000 <_ZN9Semaphore7DestroyEv+0x6f3c>
0xb000 <_ZN9Semaphore7DestroyEv+0x6f30>
0xd000 <_ZN9Semaphore7DestroyEv+0x6f3c>
<_ZN9Semaphore7DestroyEv+0x7bc0>
0x35000 <_ZN9Semaphore7DestroyEv+0x6ffc>
#6, 0x2a85c <_ZN9Semaphore7DestroyEv+0x7bc4>
0x35000 <_ZN9Semaphore7DestroyEv+0x700c>
<_ZN9Semaphore7DestroyEv+0x703c>
0xb000 <_ZN9Semaphore7DestroyEv+0x6f78>
0xf000 <_ZN9Semaphore7DestroyEv+0x6fa4>
0xb000 <_ZN9Semaphore7DestroyEv+0x6f98>
0xf000 <_ZN9Semaphore7DestroyEv+0x6fac>
0xc000 <_ZN9Semaphore7DestroyEv+0x6fa4>
0xb000 <_ZN9Semaphore7DestroyEv+0x6fc4>
0xb000 <_ZN9Semaphore7DestroyEv+0x6fe0>
0xe000 <_ZN9Semaphore7DestroyEv+0x6ff4>
0xf000 <_ZN9Semaphore7DestroyEv+0x6ffc>
0xb000 <_ZN9Semaphore7DestroyEv+0x6ff0>
0xc000 <_ZN9Semaphore7DestroyEv+0x6ff8>
<_ZN9Semaphore7DestroyEv+0x7bc0>
0x35000 <_ZN9Semaphore7DestroyEv+0x70bc>
#6, 0x2a85c <_ZN9Semaphore7DestroyEv+0x7bc4>
0x35000 <_ZN9Semaphore7DestroyEv+0x70cc>
<_ZN9Semaphore7DestroyEv+0x70fc>
0xb000 <_ZN9Semaphore7DestroyEv+0x7038>
0xf000 <_ZN9Semaphore7DestroyEv+0x7064>
0xb000 <_ZN9Semaphore7DestroyEv+0x7058>
0xf000 <_ZN9Semaphore7DestroyEv+0x706c>
0xa000 <_ZN9Semaphore7DestroyEv+0x705c>
0xb000 <_ZN9Semaphore7DestroyEv+0x7084>
0xb000 <_ZN9Semaphore7DestroyEv+0x70a0>
0xe000 <_ZN9Semaphore7DestroyEv+0x70b4>
0xf000 <_ZN9Semaphore7DestroyEv+0x70bc>
0xb000 <_ZN9Semaphore7DestroyEv+0x70b0>
0xa000 <_ZN9Semaphore7DestroyEv+0x70b0>
<_ZN9Semaphore7DestroyEv+0x7bc0>
0x35000 <_ZN9Semaphore7DestroyEv+0x717c>
#6, 0x2a85c <_ZN9Semaphore7DestroyEv+0x7bc4>
0x35000 <_ZN9Semaphore7DestroyEv+0x718c>
<_ZN9Semaphore7DestroyEv+0x71bc>
0xb000 <_ZN9Semaphore7DestroyEv+0x70f8>
0xf000 <_ZN9Semaphore7DestroyEv+0x7124>
0xb000 <_ZN9Semaphore7DestroyEv+0x7118>
0xf000 <_ZN9Semaphore7DestroyEv+0x712c>
0xd000 <_ZN9Semaphore7DestroyEv+0x7128>
0xb000 <_ZN9Semaphore7DestroyEv+0x7144>
0xb000 <_ZN9Semaphore7DestroyEv+0x7160>
0xe000 <_ZN9Semaphore7DestroyEv+0x7174>
0xf000 <_ZN9Semaphore7DestroyEv+0x717c>
0xb000 <_ZN9Semaphore7DestroyEv+0x7170>
0xd000 <_ZN9Semaphore7DestroyEv+0x717c>
<_ZN9Semaphore7DestroyEv+0x7bc0>
0x35000 <_ZN9Semaphore7DestroyEv+0x723c>
#6, 0x2a85c <_ZN9Semaphore7DestroyEv+0x7bc4>
0x35000 <_ZN9Semaphore7DestroyEv+0x724c>
<_ZN9Semaphore7DestroyEv+0x727c>
0xb000 <_ZN9Semaphore7DestroyEv+0x71b8>
0xf000 <_ZN9Semaphore7DestroyEv+0x71e4>
0xb000 <_ZN9Semaphore7DestroyEv+0x71d8>
0xf000 <_ZN9Semaphore7DestroyEv+0x71ec>
0xa000 <_ZN9Semaphore7DestroyEv+0x71dc>
0xb000 <_ZN9Semaphore7DestroyEv+0x7204>
0xb000 <_ZN9Semaphore7DestroyEv+0x7220>
0xe000 <_ZN9Semaphore7DestroyEv+0x7234>
0xf000 <_ZN9Semaphore7DestroyEv+0x723c>
0xb000 <_ZN9Semaphore7DestroyEv+0x7230>
0xa000 <_ZN9Semaphore7DestroyEv+0x7230>
<_ZN9Semaphore7DestroyEv+0x7bc0>
0x35000 <_ZN9Semaphore7DestroyEv+0x72fc>
#6, 0x2a85c <_ZN9Semaphore7DestroyEv+0x7bc4>
0x35000 <_ZN9Semaphore7DestroyEv+0x730c>
<_ZN9Semaphore7DestroyEv+0x733c>
0xb000 <_ZN9Semaphore7DestroyEv+0x7278>
0xf000 <_ZN9Semaphore7DestroyEv+0x72a4>
0xb000 <_ZN9Semaphore7DestroyEv+0x7298>
0xf000 <_ZN9Semaphore7DestroyEv+0x72ac>
0xa000 <_ZN9Semaphore7DestroyEv+0x729c>
0xb000 <_ZN9Semaphore7DestroyEv+0x72c4>
0xb000 <_ZN9Semaphore7DestroyEv+0x72e0>
0xe000 <_ZN9Semaphore7DestroyEv+0x72f4>
0xf000 <_ZN9Semaphore7DestroyEv+0x72fc>
0xb000 <_ZN9Semaphore7DestroyEv+0x72ec>
0xa000 <_ZN9Semaphore7DestroyEv+0x72ec>
<_ZN9Semaphore7DestroyEv+0x7bc0>
0x35000 <_ZN9Semaphore7DestroyEv+0x73b8>
#6, 0x2a85c <_ZN9Semaphore7DestroyEv+0x7bc4>
0x35000 <_ZN9Semaphore7DestroyEv+0x73c8>
<_ZN9Semaphore7DestroyEv+0x73fc>
0xb000 <_ZN9Semaphore7DestroyEv+0x7334>
0xf000 <_ZN9Semaphore7DestroyEv+0x7360>
0xb000 <_ZN9Semaphore7DestroyEv+0x7354>
0xf000 <_ZN9Semaphore7DestroyEv+0x7368>
0xb000 <_ZN9Semaphore7DestroyEv+0x735c>
0xb000 <_ZN9Semaphore7DestroyEv+0x7380>
0xb000 <_ZN9Semaphore7DestroyEv+0x739c>
0xe000 <_ZN9Semaphore7DestroyEv+0x73b0>
0xf000 <_ZN9Semaphore7DestroyEv+0x73b8>
0xb000 <_ZN9Semaphore7DestroyEv+0x73ac>
0xb000 <_ZN9Semaphore7DestroyEv+0x73b0>
<_ZN9Semaphore7DestroyEv+0x7bc0>
0x35000 <_ZN9Semaphore7DestroyEv+0x7478>
#6, 0x2a85c <_ZN9Semaphore7DestroyEv+0x7bc4>
0x35000 <_ZN9Semaphore7DestroyEv+0x7488>
<_ZN9Semaphore7DestroyEv+0x74bc>
0xb000 <_ZN9Semaphore7DestroyEv+0x73f4>
0xf000 <_ZN9Semaphore7DestroyEv+0x7420>
0xb000 <_ZN9Semaphore7DestroyEv+0x7414>
0xf000 <_ZN9Semaphore7DestroyEv+0x7428>
0xb000 <_ZN9Semaphore7DestroyEv+0x741c>
0xb000 <_ZN9Semaphore7DestroyEv+0x7440>
0xb000 <_ZN9Semaphore7DestroyEv+0x745c>
0xe000 <_ZN9Semaphore7DestroyEv+0x7470>
0xf000 <_ZN9Semaphore7DestroyEv+0x7478>
0xb000 <_ZN9Semaphore7DestroyEv+0x746c>
0xb000 <_ZN9Semaphore7DestroyEv+0x7470>
<_ZN9Semaphore7DestroyEv+0x7bc0>
0x35000 <_ZN9Semaphore7DestroyEv+0x7538>
#6, 0x2a85c <_ZN9Semaphore7DestroyEv+0x7bc4>
0x35000 <_ZN9Semaphore7DestroyEv+0x7548>
<_ZN9Semaphore7DestroyEv+0x757c>
0xb000 <_ZN9Semaphore7DestroyEv+0x74b4>
0xf000 <_ZN9Semaphore7DestroyEv+0x74e0>
0xb000 <_ZN9Semaphore7DestroyEv+0x74d4>
0xf000 <_ZN9Semaphore7DestroyEv+0x74e8>
0xf000 <_ZN9Semaphore7DestroyEv+0x74ec>
0xb000 <_ZN9Semaphore7DestroyEv+0x7500>
0xb000 <_ZN9Semaphore7DestroyEv+0x751c>
0xe000 <_ZN9Semaphore7DestroyEv+0x7530>
0xf000 <_ZN9Semaphore7DestroyEv+0x7538>
0xb000 <_ZN9Semaphore7DestroyEv+0x752c>
0xf000 <_ZN9Semaphore7DestroyEv+0x7540>
<_ZN9Semaphore7DestroyEv+0x7bc0>
0x35000 <_ZN9Semaphore7DestroyEv+0x75f8>
#6, 0x2a85c <_ZN9Semaphore7DestroyEv+0x7bc4>
0x35000 <_ZN9Semaphore7DestroyEv+0x7608>
<_ZN9Semaphore7DestroyEv+0x763c>
0xb000 <_ZN9Semaphore7DestroyEv+0x7574>
0xf000 <_ZN9Semaphore7DestroyEv+0x75a0>
0xb000 <_ZN9Semaphore7DestroyEv+0x7594>
0xf000 <_ZN9Semaphore7DestroyEv+0x75a8>
0xb000 <_ZN9Semaphore7DestroyEv+0x759c>
0xb000 <_ZN9Semaphore7DestroyEv+0x75c0>
0xb000 <_ZN9Semaphore7DestroyEv+0x75dc>
0xe000 <_ZN9Semaphore7DestroyEv+0x75f0>
0xf000 <_ZN9Semaphore7DestroyEv+0x75f8>
0xb000 <_ZN9Semaphore7DestroyEv+0x75ec>
0xb000 <_ZN9Semaphore7DestroyEv+0x75f0>
<_ZN9Semaphore7DestroyEv+0x7bc0>
0x35000 <_ZN9Semaphore7DestroyEv+0x76b8>
#6, 0x2a85c <_ZN9Semaphore7DestroyEv+0x7bc4>
0x35000 <_ZN9Semaphore7DestroyEv+0x76c8>
<_ZN9Semaphore7DestroyEv+0x76fc>
0xb000 <_ZN9Semaphore7DestroyEv+0x7634>
0xf000 <_ZN9Semaphore7DestroyEv+0x7660>
0xb000 <_ZN9Semaphore7DestroyEv+0x7654>
0xf000 <_ZN9Semaphore7DestroyEv+0x7668>
0xa000 <_ZN9Semaphore7DestroyEv+0x7658>
0xb000 <_ZN9Semaphore7DestroyEv+0x7680>
0xb000 <_ZN9Semaphore7DestroyEv+0x769c>
0xe000 <_ZN9Semaphore7DestroyEv+0x76b0>
0xf000 <_ZN9Semaphore7DestroyEv+0x76b8>
0xb000 <_ZN9Semaphore7DestroyEv+0x76ac>
0xa000 <_ZN9Semaphore7DestroyEv+0x76ac>
<_ZN9Semaphore7DestroyEv+0x7bc0>
0x35000 <_ZN9Semaphore7DestroyEv+0x7778>
#6, 0x2a85c <_ZN9Semaphore7DestroyEv+0x7bc4>
0x35000 <_ZN9Semaphore7DestroyEv+0x7788>
<_ZN9Semaphore7DestroyEv+0x77bc>
0xb000 <_ZN9Semaphore7DestroyEv+0x76f4>
0xf000 <_ZN9Semaphore7DestroyEv+0x7720>
0xb000 <_ZN9Semaphore7DestroyEv+0x7714>
0xf000 <_ZN9Semaphore7DestroyEv+0x7728>
0xb000 <_ZN9Semaphore7DestroyEv+0x771c>
0xb000 <_ZN9Semaphore7DestroyEv+0x7740>
0xb000 <_ZN9Semaphore7DestroyEv+0x775c>
0xe000 <_ZN9Semaphore7DestroyEv+0x7770>
0xf000 <_ZN9Semaphore7DestroyEv+0x7778>
0xb000 <_ZN9Semaphore7DestroyEv+0x776c>
0xb000 <_ZN9Semaphore7DestroyEv+0x7770>
<_ZN9Semaphore7DestroyEv+0x7bc0>
0x35000 <_ZN9Semaphore7DestroyEv+0x7838>
#6, 0x2a85c <_ZN9Semaphore7DestroyEv+0x7bc4>
0x35000 <_ZN9Semaphore7DestroyEv+0x7848>
<_ZN9Semaphore7DestroyEv+0x787c>
0xb000 <_ZN9Semaphore7DestroyEv+0x77b4>
0xf000 <_ZN9Semaphore7DestroyEv+0x77e0>
0xb000 <_ZN9Semaphore7DestroyEv+0x77d4>
0xf000 <_ZN9Semaphore7DestroyEv+0x77e8>
0xe000 <_ZN9Semaphore7DestroyEv+0x77e8>
0xb000 <_ZN9Semaphore7DestroyEv+0x7800>
0xb000 <_ZN9Semaphore7DestroyEv+0x781c>
0xe000 <_ZN9Semaphore7DestroyEv+0x7830>
0xf000 <_ZN9Semaphore7DestroyEv+0x7838>
0xb000 <_ZN9Semaphore7DestroyEv+0x782c>
0xe000 <_ZN9Semaphore7DestroyEv+0x783c>
<_ZN9Semaphore7DestroyEv+0x7bc0>
0x35000 <_ZN9Semaphore7DestroyEv+0x78f8>
#6, 0x2a85c <_ZN9Semaphore7DestroyEv+0x7bc4>
0x35000 <_ZN9Semaphore7DestroyEv+0x7908>
<_ZN9Semaphore7DestroyEv+0x793c>
0xb000 <_ZN9Semaphore7DestroyEv+0x7874>
0xf000 <_ZN9Semaphore7DestroyEv+0x78a0>
0xb000 <_ZN9Semaphore7DestroyEv+0x7894>
0xf000 <_ZN9Semaphore7DestroyEv+0x78a8>
0xe000 <_ZN9Semaphore7DestroyEv+0x78a8>
0xb000 <_ZN9Semaphore7DestroyEv+0x78c0>
0xb000 <_ZN9Semaphore7DestroyEv+0x78dc>
0xe000 <_ZN9Semaphore7DestroyEv+0x78f0>
0xf000 <_ZN9Semaphore7DestroyEv+0x78f8>
0xb000 <_ZN9Semaphore7DestroyEv+0x78ec>
0xe000 <_ZN9Semaphore7DestroyEv+0x78fc>
<_ZN9Semaphore7DestroyEv+0x7bc0>
0x35000 <_ZN9Semaphore7DestroyEv+0x79b8>
#6, 0x2a85c <_ZN9Semaphore7DestroyEv+0x7bc4>
0x35000 <_ZN9Semaphore7DestroyEv+0x79c8>
<_ZN9Semaphore7DestroyEv+0x79fc>
0xb000 <_ZN9Semaphore7DestroyEv+0x7934>
0xf000 <_ZN9Semaphore7DestroyEv+0x7960>
0xb000 <_ZN9Semaphore7DestroyEv+0x7954>
0xf000 <_ZN9Semaphore7DestroyEv+0x7968>
0xc000 <_ZN9Semaphore7DestroyEv+0x7960>
0xb000 <_ZN9Semaphore7DestroyEv+0x7980>
0xb000 <_ZN9Semaphore7DestroyEv+0x799c>
0xe000 <_ZN9Semaphore7DestroyEv+0x79b0>
0xf000 <_ZN9Semaphore7DestroyEv+0x79b8>
0xb000 <_ZN9Semaphore7DestroyEv+0x79ac>
0xc000 <_ZN9Semaphore7DestroyEv+0x79b4>
<_ZN9Semaphore7DestroyEv+0x7bc0>
0x35000 <_ZN9Semaphore7DestroyEv+0x7a78>
#6, 0x2a85c <_ZN9Semaphore7DestroyEv+0x7bc4>
0x35000 <_ZN9Semaphore7DestroyEv+0x7a88>
<_ZN9Semaphore7DestroyEv+0x7abc>
0xb000 <_ZN9Semaphore7DestroyEv+0x79f4>
0xf000 <_ZN9Semaphore7DestroyEv+0x7a20>
0xb000 <_ZN9Semaphore7DestroyEv+0x7a14>
0xf000 <_ZN9Semaphore7DestroyEv+0x7a28>
0xd000 <_ZN9Semaphore7DestroyEv+0x7a24>
0xb000 <_ZN9Semaphore7DestroyEv+0x7a40>
0xb000 <_ZN9Semaphore7DestroyEv+0x7a5c>
0xe000 <_ZN9Semaphore7DestroyEv+0x7a70>
0xf000 <_ZN9Semaphore7DestroyEv+0x7a78>
0xb000 <_ZN9Semaphore7DestroyEv+0x7a6c>
0xd000 <_ZN9Semaphore7DestroyEv+0x7a78>
<_ZN9Semaphore7DestroyEv+0x7bc0>
0x35000 <_ZN9Semaphore7DestroyEv+0x7b38>
#6, 0x2a85c <_ZN9Semaphore7DestroyEv+0x7bc4>
0x35000 <_ZN9Semaphore7DestroyEv+0x7b48>
0xb000 <_ZN9Semaphore7DestroyEv+0x7aa4>
<_ZN9Semaphore7DestroyEv+0x7b7c>
0xf000 <_ZN9Semaphore7DestroyEv+0x7ae0>
0xb000 <_ZN9Semaphore7DestroyEv+0x7ad4>
0xf000 <_ZN9Semaphore7DestroyEv+0x7ae8>
0xa000 <_ZN9Semaphore7DestroyEv+0x7ad8>
0xb000 <_ZN9Semaphore7DestroyEv+0x7b14>
0xe000 <_ZN9Semaphore7DestroyEv+0x7b28>
0xf000 <_ZN9Semaphore7DestroyEv+0x7b30>
0xb000 <_ZN9Semaphore7DestroyEv+0x7b24>
0xa000 <_ZN9Semaphore7DestroyEv+0x7b24>
<_ZN6ChiLog9LogSystemEPKcS1_S1_S1_iS1_z@plt>

<_ZN11ChiMetadata10InitializeEPKjji+0x54>
0x2a920 <_ZN11ChiMetadata10InitializeEPKjji+0xb0>
<_ZN11ChiMetadata10InitializeEPKjji+0xec>
<_ZN15ExtensionModule11GetInstanceEv@plt>
<_ZN11ChiMetadata10InitializeEPKjji+0xa4>
<_ZN11ChiMetadata10InitializeEPKjji+0x16c>
<_ZN11ChiMetadata10InitializeEPKjji+0x88>
<_ZN11ChiMetadata10InitializeEPKjji+0xa4>
0x2a920 <_ZN11ChiMetadata10InitializeEPKjji+0xb0>
<_ZN11ChiMetadata10InitializeEPKjji+0xec>
0x2a95c <_ZN11ChiMetadata10InitializeEPKjji+0xec>
0x2a95c <_ZN11ChiMetadata10InitializeEPKjji+0xec>
<_ZN11ChiMetadata10InitializeEPKjji+0x118>
<_ZN11ChiMetadata10InitializeEPKjji+0x168>
0xc000 <_ZN11ChiMetadata10InitializeEPKjji+0x118>
0x2aac8 <_ZN11ChiMetadata10InitializeEPKjji+0x258>
<_ZN11ChiMetadata10InitializeEPKjji+0x474>
<_ZN11ChiMetadata10InitializeEPKjji+0x318>
<_ZN11ChiMetadata10InitializeEPKjji+0x4a0>
<_ZN11ChiMetadata10InitializeEPKjji+0x238>
<_ZN11ChiMetadata10InitializeEPKjji+0x4a4>
#63, 0x2ad18 <_ZN11ChiMetadata10InitializeEPKjji+0x4a8>
<_ZN11ChiMetadata10InitializeEPKjji+0x328>
0x2ab9c <_ZN11ChiMetadata10InitializeEPKjji+0x32c>
<_ZN11ChiMetadata10InitializeEPKjji+0x33c>
<_ZN11ChiMetadata10InitializeEPKjji+0x4a0>
0x2aaa8 <_ZN11ChiMetadata10InitializeEPKjji+0x238>
<_ZN11ChiMetadata10InitializeEPKjji+0x380>
0x35000 <_ZN11ChiMetadata10InitializeEPKjji+0x284>
#0, 0x2ab80 <_ZN11ChiMetadata10InitializeEPKjji+0x310>
0x35000 <_ZN11ChiMetadata10InitializeEPKjji+0x294>
<_ZN11ChiMetadata10InitializeEPKjji+0x2c4>
0xb000 <_ZN11ChiMetadata10InitializeEPKjji+0x200>
0xf000 <_ZN11ChiMetadata10InitializeEPKjji+0x22c>
0xd000 <_ZN11ChiMetadata10InitializeEPKjji+0x228>
0xc000 <_ZN11ChiMetadata10InitializeEPKjji+0x228>
0xb000 <_ZN11ChiMetadata10InitializeEPKjji+0x248>
0xf000 <_ZN11ChiMetadata10InitializeEPKjji+0x274>
0xb000 <_ZN11ChiMetadata10InitializeEPKjji+0x26c>
0xc000 <_ZN11ChiMetadata10InitializeEPKjji+0x274>
0xc000 <_ZN11ChiMetadata10InitializeEPKjji+0x278>
<_ZN6ChiLog9LogSystemEPKcS1_S1_S1_iS1_z@plt>
<_ZN11ChiMetadata10InitializeEPKjji+0x480>
<_ZN11ChiMetadata10InitializeEPKjji+0x380>
<_ZN11ChiMetadata10InitializeEPKjji+0x380>
<_ZN11ChiMetadata10InitializeEPKjji+0x36c>
0x2abf0 <_ZN11ChiMetadata10InitializeEPKjji+0x380>
0x35000 <_ZN11ChiMetadata10InitializeEPKjji+0x3ac>
<_ZN11ChiMetadata10InitializeEPKjji+0x3c4>
<_ZN11ChiMetadata10InitializeEPKjji+0x478>
0x35000 <_ZN11ChiMetadata10InitializeEPKjji+0x3f0>
#0, 0x2ace4 <_ZN11ChiMetadata10InitializeEPKjji+0x474>
0x35000 <_ZN11ChiMetadata10InitializeEPKjji+0x400>
0xb000 <_ZN11ChiMetadata10InitializeEPKjji+0x35c>
<_ZN11ChiMetadata10InitializeEPKjji+0x430>
0xf000 <_ZN11ChiMetadata10InitializeEPKjji+0x398>
0xd000 <_ZN11ChiMetadata10InitializeEPKjji+0x394>
0xc000 <_ZN11ChiMetadata10InitializeEPKjji+0x394>
0xf000 <_ZN11ChiMetadata10InitializeEPKjji+0x3d8>
0xb000 <_ZN11ChiMetadata10InitializeEPKjji+0x3d0>
0xc000 <_ZN11ChiMetadata10InitializeEPKjji+0x3d8>
0xc000 <_ZN11ChiMetadata10InitializeEPKjji+0x3dc>
<_ZN6ChiLog9LogSystemEPKcS1_S1_S1_iS1_z@plt>
<_ZNKSt3__120__vector_base_commonILb1EE20__throw_length_errorEv@plt>
0x35000 <_ZN11ChiMetadata10InitializeEPKjji+0x51c>

<_ZN11ChiMetadata19ParseAndSetMetadataERNSt3__16vectorIhNS0_9allocatorIhEEEE+0xe8>
0x35000 <_ZN11ChiMetadata19ParseAndSetMetadataERNSt3__16vectorIhNS0_9allocatorIhEEEE+0x64>
#0, 0x2aeb0 <_ZN11ChiMetadata19ParseAndSetMetadataERNSt3__16vectorIhNS0_9allocatorIhEEEE+0xe0>
0x35000 <_ZN11ChiMetadata19ParseAndSetMetadataERNSt3__16vectorIhNS0_9allocatorIhEEEE+0x74>
0xb000 <_ZN11ChiMetadata10InitializeEPKjji+0x530>
<_ZN11ChiMetadata19ParseAndSetMetadataERNSt3__16vectorIhNS0_9allocatorIhEEEE+0xa0>
0xf000 <_ZN11ChiMetadata19ParseAndSetMetadataERNSt3__16vectorIhNS0_9allocatorIhEEEE+0xc>
0xd000 <_ZN11ChiMetadata19ParseAndSetMetadataERNSt3__16vectorIhNS0_9allocatorIhEEEE+0x8>
0xa000 <_ZN11ChiMetadata19ParseAndSetMetadataERNSt3__16vectorIhNS0_9allocatorIhEEEE>
0xf000 <_ZN11ChiMetadata19ParseAndSetMetadataERNSt3__16vectorIhNS0_9allocatorIhEEEE+0x48>
0xb000 <_ZN11ChiMetadata19ParseAndSetMetadataERNSt3__16vectorIhNS0_9allocatorIhEEEE+0x40>
0xa000 <_ZN11ChiMetadata19ParseAndSetMetadataERNSt3__16vectorIhNS0_9allocatorIhEEEE+0x40>
0xb000 <_ZN11ChiMetadata19ParseAndSetMetadataERNSt3__16vectorIhNS0_9allocatorIhEEEE+0x48>
<_ZN6ChiLog9LogSystemEPKcS1_S1_S1_iS1_z@plt>
<_ZN11ChiMetadata19ParseAndSetMetadataERNSt3__16vectorIhNS0_9allocatorIhEEEE+0x434>
0x2b0bc <_ZN11ChiMetadata19ParseAndSetMetadataERNSt3__16vectorIhNS0_9allocatorIhEEEE+0x2ec>
<_ZN11ChiMetadata19ParseAndSetMetadataERNSt3__16vectorIhNS0_9allocatorIhEEEE+0x348>
<_ZN11ChiMetadata19ParseAndSetMetadataERNSt3__16vectorIhNS0_9allocatorIhEEEE+0x454>
<_ZN11ChiMetadata19ParseAndSetMetadataERNSt3__16vectorIhNS0_9allocatorIhEEEE+0x454>
<_ZN11ChiMetadata19ParseAndSetMetadataERNSt3__16vectorIhNS0_9allocatorIhEEEE+0x454>
<_ZN11ChiMetadata19ParseAndSetMetadataERNSt3__16vectorIhNS0_9allocatorIhEEEE+0x20c>
<_ZN11ChiMetadata19ParseAndSetMetadataERNSt3__16vectorIhNS0_9allocatorIhEEEE+0x454>
<_ZN11ChiMetadata19ParseAndSetMetadataERNSt3__16vectorIhNS0_9allocatorIhEEEE+0x454>
<_ZN11ChiMetadata19ParseAndSetMetadataERNSt3__16vectorIhNS0_9allocatorIhEEEE+0x454>
<_ZN11ChiMetadata19ParseAndSetMetadataERNSt3__16vectorIhNS0_9allocatorIhEEEE+0x454>
0x2b0ec <_ZN11ChiMetadata19ParseAndSetMetadataERNSt3__16vectorIhNS0_9allocatorIhEEEE+0x31c>
<_ZN11ChiMetadata19ParseAndSetMetadataERNSt3__16vectorIhNS0_9allocatorIhEEEE+0x454>
<_ZN11ChiMetadata19ParseAndSetMetadataERNSt3__16vectorIhNS0_9allocatorIhEEEE+0x330>
<_ZN11ChiMetadata19ParseAndSetMetadataERNSt3__16vectorIhNS0_9allocatorIhEEEE+0x27c>
<_ZN11ChiMetadata19ParseAndSetMetadataERNSt3__16vectorIhNS0_9allocatorIhEEEE+0x454>
<_ZN11ChiMetadata19ParseAndSetMetadataERNSt3__16vectorIhNS0_9allocatorIhEEEE+0x1b8>
<_ZN11ChiMetadata19ParseAndSetMetadataERNSt3__16vectorIhNS0_9allocatorIhEEEE+0x2c0>
0x2b0f8 <_ZN11ChiMetadata19ParseAndSetMetadataERNSt3__16vectorIhNS0_9allocatorIhEEEE+0x328>
<_ZN11ChiMetadata19ParseAndSetMetadataERNSt3__16vectorIhNS0_9allocatorIhEEEE+0x454>
<_ZN11ChiMetadata19ParseAndSetMetadataERNSt3__16vectorIhNS0_9allocatorIhEEEE+0x340>
<_ZN11ChiMetadata19ParseAndSetMetadataERNSt3__16vectorIhNS0_9allocatorIhEEEE+0x454>
<_ZN11ChiMetadata19ParseAndSetMetadataERNSt3__16vectorIhNS0_9allocatorIhEEEE+0x454>
<_ZN11ChiMetadata19ParseAndSetMetadataERNSt3__16vectorIhNS0_9allocatorIhEEEE+0x2d8>
<_ZN11ChiMetadata19ParseAndSetMetadataERNSt3__16vectorIhNS0_9allocatorIhEEEE+0x454>
<_ZN11ChiMetadata19ParseAndSetMetadataERNSt3__16vectorIhNS0_9allocatorIhEEEE+0x454>
<_ZN11ChiMetadata19ParseAndSetMetadataERNSt3__16vectorIhNS0_9allocatorIhEEEE+0x454>
<_ZN11ChiMetadata19ParseAndSetMetadataERNSt3__16vectorIhNS0_9allocatorIhEEEE+0x124>
<_ZN11ChiMetadata19ParseAndSetMetadataERNSt3__16vectorIhNS0_9allocatorIhEEEE+0x348>
<_ZN11ChiMetadata19ParseAndSetMetadataERNSt3__16vectorIhNS0_9allocatorIhEEEE+0x348>
<_ZN11ChiMetadata19ParseAndSetMetadataERNSt3__16vectorIhNS0_9allocatorIhEEEE+0x348>
<_ZN11ChiMetadata19ParseAndSetMetadataERNSt3__16vectorIhNS0_9allocatorIhEEEE+0x348>
<_ZN11ChiMetadata19ParseAndSetMetadataERNSt3__16vectorIhNS0_9allocatorIhEEEE+0x348>
<_ZN11ChiMetadata19ParseAndSetMetadataERNSt3__16vectorIhNS0_9allocatorIhEEEE+0x348>
0x35000 <_ZN11ChiMetadata19ParseAndSetMetadataERNSt3__16vectorIhNS0_9allocatorIhEEEE+0x370>
#3, 0x2b200 <_ZN11ChiMetadata19ParseAndSetMetadataERNSt3__16vectorIhNS0_9allocatorIhEEEE+0x430>
0x35000 <_ZN11ChiMetadata19ParseAndSetMetadataERNSt3__16vectorIhNS0_9allocatorIhEEEE+0x380>
<_ZN11ChiMetadata19ParseAndSetMetadataERNSt3__16vectorIhNS0_9allocatorIhEEEE+0x3d0>
0xb000 <_ZN11ChiMetadata19ParseAndSetMetadataERNSt3__16vectorIhNS0_9allocatorIhEEEE+0x2f0>
0xf000 <_ZN11ChiMetadata19ParseAndSetMetadataERNSt3__16vectorIhNS0_9allocatorIhEEEE+0x320>
0xf000 <_ZN11ChiMetadata19ParseAndSetMetadataERNSt3__16vectorIhNS0_9allocatorIhEEEE+0x324>
0xa000 <_ZN11ChiMetadata19ParseAndSetMetadataERNSt3__16vectorIhNS0_9allocatorIhEEEE+0x314>
0xb000 <_ZN11ChiMetadata19ParseAndSetMetadataERNSt3__16vectorIhNS0_9allocatorIhEEEE+0x350>
0xd000 <_ZN11ChiMetadata19ParseAndSetMetadataERNSt3__16vectorIhNS0_9allocatorIhEEEE+0x378>
0xf000 <_ZN11ChiMetadata19ParseAndSetMetadataERNSt3__16vectorIhNS0_9allocatorIhEEEE+0x388>
0xa000 <_ZN11ChiMetadata19ParseAndSetMetadataERNSt3__16vectorIhNS0_9allocatorIhEEEE+0x378>
0xe000 <_ZN11ChiMetadata19ParseAndSetMetadataERNSt3__16vectorIhNS0_9allocatorIhEEEE+0x38c>
<_ZN6ChiLog9LogSystemEPKcS1_S1_S1_iS1_z@plt>

0x2b580 <_ZN11ChiMetadata6SetTagEjPKvjj+0x358>
<_ZN11ChiMetadata16ReadDataFromFileEPKcRNSt3__16vectorIhNS2_9allocatorIhEEEE@plt>
0x2b580 <_ZN11ChiMetadata6SetTagEjPKvjj+0x358>
0x2b3a0 <_ZN11ChiMetadata6SetTagEjPKvjj+0x178>
<_ZN11ChiMetadata21InitializeMetadataOpsEP14ChiMetadataOps@plt>
0x2b454 <_ZN11ChiMetadata6SetTagEjPKvjj+0x22c>
0x35000 <_ZN11ChiMetadata6SetTagEjPKvjj+0xf8>
#0, 0x2b578 <_ZN11ChiMetadata6SetTagEjPKvjj+0x350>
0x35000 <_ZN11ChiMetadata6SetTagEjPKvjj+0x108>
0xb000 <_ZN11ChiMetadata6SetTagEjPKvjj+0x64>
<_ZN11ChiMetadata6SetTagEjPKvjj+0x138>
0xf000 <_ZN11ChiMetadata6SetTagEjPKvjj+0xa0>
0xf000 <_ZN11ChiMetadata6SetTagEjPKvjj+0xa4>
0xf000 <_ZN11ChiMetadata6SetTagEjPKvjj+0xa8>
0xf000 <_ZN11ChiMetadata6SetTagEjPKvjj+0xdc>
0xb000 <_ZN11ChiMetadata6SetTagEjPKvjj+0xd4>
0xf000 <_ZN11ChiMetadata6SetTagEjPKvjj+0xe8>
0xf000 <_ZN11ChiMetadata6SetTagEjPKvjj+0xec>
<_ZN11ChiMetadata6SetTagEjPKvjj+0x34c>
0x35000 <_ZN11ChiMetadata6SetTagEjPKvjj+0x1a0>
#0, 0x2b584 <_ZN11ChiMetadata6SetTagEjPKvjj+0x35c>
0x35000 <_ZN11ChiMetadata6SetTagEjPKvjj+0x1b0>
<_ZN11ChiMetadata6SetTagEjPKvjj+0x1e0>
0xb000 <_ZN11ChiMetadata6SetTagEjPKvjj+0x11c>
0xf000 <_ZN11ChiMetadata6SetTagEjPKvjj+0x148>
0xf000 <_ZN11ChiMetadata6SetTagEjPKvjj+0x14c>
0xf000 <_ZN11ChiMetadata6SetTagEjPKvjj+0x150>
0xb000 <_ZN11ChiMetadata6SetTagEjPKvjj+0x160>
0xf000 <_ZN11ChiMetadata6SetTagEjPKvjj+0x18c>
0xb000 <_ZN11ChiMetadata6SetTagEjPKvjj+0x184>
0xf000 <_ZN11ChiMetadata6SetTagEjPKvjj+0x198>
0xd000 <_ZN11ChiMetadata6SetTagEjPKvjj+0x194>
<_ZN6ChiLog9LogSystemEPKcS1_S1_S1_iS1_z@plt>
<_ZN11ChiMetadata6SetTagEjPKvjj+0x35c>
0x2b5bc <_ZN11ChiMetadata6SetTagEjPKvjj+0x394>
0x35000 <_ZN11ChiMetadata6SetTagEjPKvjj+0x2c8>
#0, 0x2b578 <_ZN11ChiMetadata6SetTagEjPKvjj+0x350>
0x35000 <_ZN11ChiMetadata6SetTagEjPKvjj+0x2d8>
<_ZN11ChiMetadata6SetTagEjPKvjj+0x308>
0xb000 <_ZN11ChiMetadata6SetTagEjPKvjj+0x244>
0xf000 <_ZN11ChiMetadata6SetTagEjPKvjj+0x270>
0xa000 <_ZN11ChiMetadata6SetTagEjPKvjj+0x260>
0xf000 <_ZN11ChiMetadata6SetTagEjPKvjj+0x278>
0xb000 <_ZN11ChiMetadata6SetTagEjPKvjj+0x288>
0xf000 <_ZN11ChiMetadata6SetTagEjPKvjj+0x2b4>
0xb000 <_ZN11ChiMetadata6SetTagEjPKvjj+0x2ac>
0xf000 <_ZN11ChiMetadata6SetTagEjPKvjj+0x2c0>
0xe000 <_ZN11ChiMetadata6SetTagEjPKvjj+0x2c0>
<_ZN6ChiLog9LogSystemEPKcS1_S1_S1_iS1_z@plt>
0x2b594 <_ZN11ChiMetadata6SetTagEjPKvjj+0x36c>
<_ZN11ChiMetadata6SetTagEjPKvjj+0x3a8>
<_ZN11ChiMetadata19ParseAndSetMetadataERNSt3__16vectorIhNS0_9allocatorIhEEEE@plt>
0x2b578 <_ZN11ChiMetadata6SetTagEjPKvjj+0x350>
<_ZN11ChiMetadata6SetTagEjPKvjj+0x35c>

<_ZN11ChiMetadata7DestroyEb+0x114>
0x35000 <_ZN11ChiMetadata7DestroyEb+0x48>
#0, 0x2b6d8 <_ZN11ChiMetadata7DestroyEb+0x100>
0x35000 <_ZN11ChiMetadata7DestroyEb+0x58>
0xb000 <_ZN11ChiMetadata6SetTagEjPKvjj+0x364>
<_ZN11ChiMetadata7DestroyEb+0xa4>
0xf000 <_ZN11ChiMetadata6SetTagEjPKvjj+0x3a8>
0xa000 <_ZN11ChiMetadata6SetTagEjPKvjj+0x398>
0xd000 <_ZN11ChiMetadata6SetTagEjPKvjj+0x3a8>
0xb000 <_ZN11ChiMetadata7DestroyEb+0x44>
0xf000 <_ZN11ChiMetadata7DestroyEb+0x58>
0xd000 <_ZN11ChiMetadata7DestroyEb+0x54>
0xd000 <_ZN11ChiMetadata7DestroyEb+0x58>
<_ZN6ChiLog9LogSystemEPKcS1_S1_S1_iS1_z@plt>
0x2b5f8 <_ZN11ChiMetadata7DestroyEb+0x20>
<_ZN11ChiMetadata15DestroyInternalEb@plt>

0x2b820 <_ZN11ChiMetadata15DestroyInternalEb+0x110>
0x35000 <_ZN11ChiMetadata15DestroyInternalEb+0x74>
#0, 0x2b828 <_ZN11ChiMetadata15DestroyInternalEb+0x118>
0x35000 <_ZN11ChiMetadata15DestroyInternalEb+0x84>
0xb000 <_ZN11ChiMetadata7DestroyEb+0x118>
<_ZN11ChiMetadata15DestroyInternalEb+0xc0>
0xf000 <_ZN11ChiMetadata15DestroyInternalEb+0x20>
0xb000 <_ZN11ChiMetadata15DestroyInternalEb+0x14>
0xd000 <_ZN11ChiMetadata15DestroyInternalEb+0x20>
0xb000 <_ZN11ChiMetadata15DestroyInternalEb+0x5c>
0xf000 <_ZN11ChiMetadata15DestroyInternalEb+0x70>
0xd000 <_ZN11ChiMetadata15DestroyInternalEb+0x6c>
0xb000 <_ZN11ChiMetadata15DestroyInternalEb+0x68>
<_ZN6ChiLog9LogSystemEPKcS1_S1_S1_iS1_z@plt>
<_ZN11ChiMetadata15DestroyInternalEb+0x118>

<_ZN11ChiMetadata6GetTagEjj+0x90>


<_ZN11ChiMetadata6GetTagEPKcS1_j+0x98>

0x2ba58 <_ZNK11ChiMetadata7FindTagEjP21camera_metadata_entry+0x80>
<_ZNK11ChiMetadata7FindTagEjP21camera_metadata_entry+0xa8>




<_ZN11ChiMetadata5CountEv+0x78>

0x33000 <_ZN11ChiMetadata5ResetEv+0x30>
<_ZN11ChiMetadata5ResetEv+0x30>
<_ZN11ChiMetadata5ResetEv+0x20>

<_ZNSt3__16chrono12steady_clock3nowEv@plt>
<_ZN11ChiMetadata5MergeERS_b+0x60>
<_ZN11ChiMetadata5MergeERS_b+0x70>

0x2bdb0 <_ZN11ChiMetadata24MergeMultiCameraMetadataEjPPS_Pjj+0x90>
<_ZN11ChiMetadata24MergeMultiCameraMetadataEjPPS_Pjj+0x10c>
0x2bd78 <_ZN11ChiMetadata24MergeMultiCameraMetadataEjPPS_Pjj+0x58>
<_ZN11ChiMetadata24MergeMultiCameraMetadataEjPPS_Pjj+0x74>
<_ZN11ChiMetadata24MergeMultiCameraMetadataEjPPS_Pjj+0x98>
0x2be0c <_ZN11ChiMetadata24MergeMultiCameraMetadataEjPPS_Pjj+0xec>
0x2be30 <_ZN11ChiMetadata24MergeMultiCameraMetadataEjPPS_Pjj+0x110>


<_ZN11ChiMetadata5CloneEv+0x78>

0x2c19c <_ZN11ChiMetadata32TranslateToCameraPartialMetadataEP15camera_metadataPjj+0x284>
0x35000 <_ZN11ChiMetadata32TranslateToCameraPartialMetadataEP15camera_metadataPjj+0x68>
0xb000 <_ZN11ChiMetadata5CloneEv+0x4c>
<_ZN11ChiMetadata32TranslateToCameraPartialMetadataEP15camera_metadataPjj+0xc4>
0xd000 <_ZN11ChiMetadata32TranslateToCameraPartialMetadataEP15camera_metadataPjj+0x14>
0xf000 <_ZN11ChiMetadata32TranslateToCameraPartialMetadataEP15camera_metadataPjj+0x24>
0xc000 <_ZN11ChiMetadata32TranslateToCameraPartialMetadataEP15camera_metadataPjj+0x1c>
0xc000 <_ZN11ChiMetadata32TranslateToCameraPartialMetadataEP15camera_metadataPjj+0x20>
<_ZN6ChiLog9LogSystemEPKcS1_S1_S1_iS1_z@plt>
<_ZN11ChiMetadata32TranslateToCameraPartialMetadataEP15camera_metadataPjj+0x284>
0x2c03c <_ZN11ChiMetadata32TranslateToCameraPartialMetadataEP15camera_metadataPjj+0x124>
0x2c03c <_ZN11ChiMetadata32TranslateToCameraPartialMetadataEP15camera_metadataPjj+0x124>
0x2c098 <_ZN11ChiMetadata32TranslateToCameraPartialMetadataEP15camera_metadataPjj+0x180>
0x2bfd0 <_ZN11ChiMetadata32TranslateToCameraPartialMetadataEP15camera_metadataPjj+0xb8>
<_ZN11ChiMetadata32TranslateToCameraPartialMetadataEP15camera_metadataPjj+0x1a4>
#5, 0x2bfd0 <_ZN11ChiMetadata32TranslateToCameraPartialMetadataEP15camera_metadataPjj+0xb8>
0x35000 <_ZN11ChiMetadata32TranslateToCameraPartialMetadataEP15camera_metadataPjj+0x150>
<_ZN11ChiMetadata32TranslateToCameraPartialMetadataEP15camera_metadataPjj+0x78>
0xf000 <_ZN11ChiMetadata32TranslateToCameraPartialMetadataEP15camera_metadataPjj+0xe0>
0xf000 <_ZN11ChiMetadata32TranslateToCameraPartialMetadataEP15camera_metadataPjj+0xe4>
0xc000 <_ZN11ChiMetadata32TranslateToCameraPartialMetadataEP15camera_metadataPjj+0xdc>
<_ZN11ChiMetadata32TranslateToCameraPartialMetadataEP15camera_metadataPjj+0x78>
0x2bfd0 <_ZN11ChiMetadata32TranslateToCameraPartialMetadataEP15camera_metadataPjj+0xb8>
#0, 0x2c19c <_ZN11ChiMetadata32TranslateToCameraPartialMetadataEP15camera_metadataPjj+0x284>
0x35000 <_ZN11ChiMetadata32TranslateToCameraPartialMetadataEP15camera_metadataPjj+0x1d0>
<_ZN11ChiMetadata32TranslateToCameraPartialMetadataEP15camera_metadataPjj+0x220>
0xf000 <_ZN11ChiMetadata32TranslateToCameraPartialMetadataEP15camera_metadataPjj+0x174>
0xc000 <_ZN11ChiMetadata32TranslateToCameraPartialMetadataEP15camera_metadataPjj+0x16c>
0xc000 <_ZN11ChiMetadata32TranslateToCameraPartialMetadataEP15camera_metadataPjj+0x170>
0xb000 <_ZN11ChiMetadata32TranslateToCameraPartialMetadataEP15camera_metadataPjj+0x1c8>
0xf000 <_ZN11ChiMetadata32TranslateToCameraPartialMetadataEP15camera_metadataPjj+0x1dc>
0xc000 <_ZN11ChiMetadata32TranslateToCameraPartialMetadataEP15camera_metadataPjj+0x1d4>
0xb000 <_ZN11ChiMetadata32TranslateToCameraPartialMetadataEP15camera_metadataPjj+0x1d4>
<_ZN6ChiLog9LogSystemEPKcS1_S1_S1_iS1_z@plt>
<_ZN11ChiMetadata32TranslateToCameraPartialMetadataEP15camera_metadataPjj+0x2bc>



0x33000 <_ZN11ChiMetadata12PrintDetailsEv+0x2c>
<_ZN11ChiMetadata12PrintDetailsEv+0x30>
<_ZN11ChiMetadata12PrintDetailsEv+0x20>

0x33000 <_ZN11ChiMetadata10InvalidateEv+0x2c>
<_ZN11ChiMetadata10InvalidateEv+0x30>
<_ZN11ChiMetadata10InvalidateEv+0x20>

0x33000 <_ZN11ChiMetadata21IsMultiCameraMetadataEv+0x2c>
<_ZN11ChiMetadata21IsMultiCameraMetadataEv+0x30>
<_ZN11ChiMetadata21IsMultiCameraMetadataEv+0x20>

<_ZN11ChiMetadata14ReferenceCountEv+0x7c>

0x2c73c <_ZN11ChiMetadata12AddReferenceEPKc+0x2fc>
0x2c73c <_ZN11ChiMetadata12AddReferenceEPKc+0x2fc>
0x2c59c <_ZN11ChiMetadata12AddReferenceEPKc+0x15c>
0x2c5a4 <_ZN11ChiMetadata12AddReferenceEPKc+0x164>
0x2c5ac <_ZN11ChiMetadata12AddReferenceEPKc+0x16c>
0x2c5b4 <_ZN11ChiMetadata12AddReferenceEPKc+0x174>
0x2c5bc <_ZN11ChiMetadata12AddReferenceEPKc+0x17c>
0x2c5c4 <_ZN11ChiMetadata12AddReferenceEPKc+0x184>
0x2c5cc <_ZN11ChiMetadata12AddReferenceEPKc+0x18c>
0x2c5d4 <_ZN11ChiMetadata12AddReferenceEPKc+0x194>
0x2c5dc <_ZN11ChiMetadata12AddReferenceEPKc+0x19c>
0x2c5e4 <_ZN11ChiMetadata12AddReferenceEPKc+0x1a4>
0x2c5ec <_ZN11ChiMetadata12AddReferenceEPKc+0x1ac>
0x2c5f4 <_ZN11ChiMetadata12AddReferenceEPKc+0x1b4>
0x2c5fc <_ZN11ChiMetadata12AddReferenceEPKc+0x1bc>
0x2c604 <_ZN11ChiMetadata12AddReferenceEPKc+0x1c4>
0x2c60c <_ZN11ChiMetadata12AddReferenceEPKc+0x1cc>
0x2c614 <_ZN11ChiMetadata12AddReferenceEPKc+0x1d4>
0x2c61c <_ZN11ChiMetadata12AddReferenceEPKc+0x1dc>
0x2c624 <_ZN11ChiMetadata12AddReferenceEPKc+0x1e4>
0x2c62c <_ZN11ChiMetadata12AddReferenceEPKc+0x1ec>
0x2c634 <_ZN11ChiMetadata12AddReferenceEPKc+0x1f4>
0x2c63c <_ZN11ChiMetadata12AddReferenceEPKc+0x1fc>
0x2c644 <_ZN11ChiMetadata12AddReferenceEPKc+0x204>
0x2c64c <_ZN11ChiMetadata12AddReferenceEPKc+0x20c>
0x2c654 <_ZN11ChiMetadata12AddReferenceEPKc+0x214>
0x2c65c <_ZN11ChiMetadata12AddReferenceEPKc+0x21c>
0x2c664 <_ZN11ChiMetadata12AddReferenceEPKc+0x224>
0x2c66c <_ZN11ChiMetadata12AddReferenceEPKc+0x22c>
0x2c674 <_ZN11ChiMetadata12AddReferenceEPKc+0x234>
0x2c67c <_ZN11ChiMetadata12AddReferenceEPKc+0x23c>
0x2c684 <_ZN11ChiMetadata12AddReferenceEPKc+0x244>
<_ZN11ChiMetadata12AddReferenceEPKc+0x240>
<_ZN11ChiMetadata12AddReferenceEPKc+0x240>
<_ZN11ChiMetadata12AddReferenceEPKc+0x240>
<_ZN11ChiMetadata12AddReferenceEPKc+0x240>
<_ZN11ChiMetadata12AddReferenceEPKc+0x240>
<_ZN11ChiMetadata12AddReferenceEPKc+0x240>
<_ZN11ChiMetadata12AddReferenceEPKc+0x240>
<_ZN11ChiMetadata12AddReferenceEPKc+0x240>
<_ZN11ChiMetadata12AddReferenceEPKc+0x240>
<_ZN11ChiMetadata12AddReferenceEPKc+0x240>
<_ZN11ChiMetadata12AddReferenceEPKc+0x240>
<_ZN11ChiMetadata12AddReferenceEPKc+0x240>
<_ZN11ChiMetadata12AddReferenceEPKc+0x240>
<_ZN11ChiMetadata12AddReferenceEPKc+0x240>
<_ZN11ChiMetadata12AddReferenceEPKc+0x240>
<_ZN11ChiMetadata12AddReferenceEPKc+0x240>
<_ZN11ChiMetadata12AddReferenceEPKc+0x240>
<_ZN11ChiMetadata12AddReferenceEPKc+0x240>
<_ZN11ChiMetadata12AddReferenceEPKc+0x240>
<_ZN11ChiMetadata12AddReferenceEPKc+0x240>
<_ZN11ChiMetadata12AddReferenceEPKc+0x240>
<_ZN11ChiMetadata12AddReferenceEPKc+0x240>
<_ZN11ChiMetadata12AddReferenceEPKc+0x240>
<_ZN11ChiMetadata12AddReferenceEPKc+0x240>
<_ZN11ChiMetadata12AddReferenceEPKc+0x240>
<_ZN11ChiMetadata12AddReferenceEPKc+0x240>
<_ZN11ChiMetadata12AddReferenceEPKc+0x240>
<_ZN11ChiMetadata12AddReferenceEPKc+0x240>
<_ZN11ChiMetadata12AddReferenceEPKc+0x240>
0x35000 <_ZN11ChiMetadata12AddReferenceEPKc+0x268>
#5, 0x2c73c <_ZN11ChiMetadata12AddReferenceEPKc+0x2fc>
0x35000 <_ZN11ChiMetadata12AddReferenceEPKc+0x278>
0xb000 <_ZN11ChiMetadata12AddReferenceEPKc+0x1d4>
<_ZN11ChiMetadata12AddReferenceEPKc+0x2b4>
0xf000 <_ZN11ChiMetadata12AddReferenceEPKc+0x214>
0xa000 <_ZN11ChiMetadata12AddReferenceEPKc+0x204>
0xf000 <_ZN11ChiMetadata12AddReferenceEPKc+0x21c>
0xf000 <_ZN11ChiMetadata12AddReferenceEPKc+0x25c>
0xd000 <_ZN11ChiMetadata12AddReferenceEPKc+0x258>
0xf000 <_ZN11ChiMetadata12AddReferenceEPKc+0x264>
0xa000 <_ZN11ChiMetadata12AddReferenceEPKc+0x254>
<_ZN6ChiLog9LogSystemEPKcS1_S1_S1_iS1_z@plt>
<_ZN11ChiMetadata12AddReferenceEPKc+0x310>
<_ZNSt3__16chrono12steady_clock3nowEv@plt>
<_ZN11ChiMetadata12AddReferenceEPKc+0x338>

0x2caf4 <_ZN11ChiMetadata16ReleaseReferenceEPKc+0x374>
0x2caf4 <_ZN11ChiMetadata16ReleaseReferenceEPKc+0x374>
<_ZN11ChiMetadata16ReleaseReferenceEPKc+0x1d4>
<_ZN11ChiMetadata16ReleaseReferenceEPKc+0x1dc>
<_ZN11ChiMetadata16ReleaseReferenceEPKc+0x1e4>
<_ZN11ChiMetadata16ReleaseReferenceEPKc+0x1ec>
<_ZN11ChiMetadata16ReleaseReferenceEPKc+0x1f4>
<_ZN11ChiMetadata16ReleaseReferenceEPKc+0x1fc>
<_ZN11ChiMetadata16ReleaseReferenceEPKc+0x204>
<_ZN11ChiMetadata16ReleaseReferenceEPKc+0x20c>
<_ZN11ChiMetadata16ReleaseReferenceEPKc+0x214>
<_ZN11ChiMetadata16ReleaseReferenceEPKc+0x21c>
<_ZN11ChiMetadata16ReleaseReferenceEPKc+0x224>
<_ZN11ChiMetadata16ReleaseReferenceEPKc+0x22c>
<_ZN11ChiMetadata16ReleaseReferenceEPKc+0x234>
<_ZN11ChiMetadata16ReleaseReferenceEPKc+0x23c>
<_ZN11ChiMetadata16ReleaseReferenceEPKc+0x244>
<_ZN11ChiMetadata16ReleaseReferenceEPKc+0x24c>
<_ZN11ChiMetadata16ReleaseReferenceEPKc+0x254>
<_ZN11ChiMetadata16ReleaseReferenceEPKc+0x25c>
<_ZN11ChiMetadata16ReleaseReferenceEPKc+0x264>
<_ZN11ChiMetadata16ReleaseReferenceEPKc+0x26c>
<_ZN11ChiMetadata16ReleaseReferenceEPKc+0x274>
<_ZN11ChiMetadata16ReleaseReferenceEPKc+0x27c>
<_ZN11ChiMetadata16ReleaseReferenceEPKc+0x284>
<_ZN11ChiMetadata16ReleaseReferenceEPKc+0x28c>
<_ZN11ChiMetadata16ReleaseReferenceEPKc+0x294>
<_ZN11ChiMetadata16ReleaseReferenceEPKc+0x29c>
<_ZN11ChiMetadata16ReleaseReferenceEPKc+0x2a4>
<_ZN11ChiMetadata16ReleaseReferenceEPKc+0x2ac>
<_ZN11ChiMetadata16ReleaseReferenceEPKc+0x2b4>
<_ZN11ChiMetadata16ReleaseReferenceEPKc+0x2bc>
<_ZN11ChiMetadata16ReleaseReferenceEPKc+0x2b8>
<_ZN11ChiMetadata16ReleaseReferenceEPKc+0x2b8>
<_ZN11ChiMetadata16ReleaseReferenceEPKc+0x2b8>
<_ZN11ChiMetadata16ReleaseReferenceEPKc+0x2b8>
<_ZN11ChiMetadata16ReleaseReferenceEPKc+0x2b8>
<_ZN11ChiMetadata16ReleaseReferenceEPKc+0x2b8>
<_ZN11ChiMetadata16ReleaseReferenceEPKc+0x2b8>
<_ZN11ChiMetadata16ReleaseReferenceEPKc+0x2b8>
<_ZN11ChiMetadata16ReleaseReferenceEPKc+0x2b8>
<_ZN11ChiMetadata16ReleaseReferenceEPKc+0x2b8>
<_ZN11ChiMetadata16ReleaseReferenceEPKc+0x2b8>
<_ZN11ChiMetadata16ReleaseReferenceEPKc+0x2b8>
<_ZN11ChiMetadata16ReleaseReferenceEPKc+0x2b8>
<_ZN11ChiMetadata16ReleaseReferenceEPKc+0x2b8>
<_ZN11ChiMetadata16ReleaseReferenceEPKc+0x2b8>
<_ZN11ChiMetadata16ReleaseReferenceEPKc+0x2b8>
<_ZN11ChiMetadata16ReleaseReferenceEPKc+0x2b8>
<_ZN11ChiMetadata16ReleaseReferenceEPKc+0x2b8>
<_ZN11ChiMetadata16ReleaseReferenceEPKc+0x2b8>
<_ZN11ChiMetadata16ReleaseReferenceEPKc+0x2b8>
<_ZN11ChiMetadata16ReleaseReferenceEPKc+0x2b8>
<_ZN11ChiMetadata16ReleaseReferenceEPKc+0x2b8>
<_ZN11ChiMetadata16ReleaseReferenceEPKc+0x2b8>
<_ZN11ChiMetadata16ReleaseReferenceEPKc+0x2b8>
<_ZN11ChiMetadata16ReleaseReferenceEPKc+0x2b8>
<_ZN11ChiMetadata16ReleaseReferenceEPKc+0x2b8>
<_ZN11ChiMetadata16ReleaseReferenceEPKc+0x2b8>
<_ZN11ChiMetadata16ReleaseReferenceEPKc+0x2b8>
<_ZN11ChiMetadata16ReleaseReferenceEPKc+0x2b8>
0x35000 <_ZN11ChiMetadata16ReleaseReferenceEPKc+0x2e0>
#5, 0x2caf4 <_ZN11ChiMetadata16ReleaseReferenceEPKc+0x374>
0x35000 <_ZN11ChiMetadata16ReleaseReferenceEPKc+0x2f0>
0xb000 <_ZN11ChiMetadata16ReleaseReferenceEPKc+0x24c>
<_ZN11ChiMetadata16ReleaseReferenceEPKc+0x32c>
0xf000 <_ZN11ChiMetadata16ReleaseReferenceEPKc+0x28c>
0xe000 <_ZN11ChiMetadata16ReleaseReferenceEPKc+0x28c>
0xb000 <_ZN11ChiMetadata16ReleaseReferenceEPKc+0x284>
0xf000 <_ZN11ChiMetadata16ReleaseReferenceEPKc+0x2d4>
0xd000 <_ZN11ChiMetadata16ReleaseReferenceEPKc+0x2d0>
0xb000 <_ZN11ChiMetadata16ReleaseReferenceEPKc+0x2cc>
0xd000 <_ZN11ChiMetadata16ReleaseReferenceEPKc+0x2d8>
<_ZN6ChiLog9LogSystemEPKcS1_S1_S1_iS1_z@plt>
<_ZN11ChiMetadata16ReleaseReferenceEPKc+0x39c>



0x33000 <_ZN11ChiMetadata8IteratorD2Ev+0x2c>
<_ZN11ChiMetadata8IteratorD2Ev+0x34>
<_ZN11ChiMetadata8IteratorD2Ev+0x24>

0x33000 <_ZN11ChiMetadata8Iterator5BeginEv+0x2c>
<_ZN11ChiMetadata8Iterator5BeginEv+0x40>
<_ZN11ChiMetadata8Iterator5BeginEv+0x24>

0x33000 <_ZN11ChiMetadata8Iterator4NextEv+0x2c>
<_ZN11ChiMetadata8Iterator4NextEv+0x40>
<_ZN11ChiMetadata8Iterator4NextEv+0x24>

0x2cdb0 <_ZN11ChiMetadata8Iterator3GetER16ChiMetadataEntry+0xb8>
0x2cdb0 <_ZN11ChiMetadata8Iterator3GetER16ChiMetadataEntry+0xb8>
<_ZN11ChiMetadata8Iterator3GetER16ChiMetadataEntry+0xb8>

<_ZN18ChiMetadataManager10MetaClientC2Ev+0x10>
<_ZN18ChiMetadataManager10MetaClientC2Ev+0xd0>
<_ZN18ChiMetadataManager10MetaClientC2Ev+0x17c>
0x2cf54 <_ZN18ChiMetadataManager10MetaClientC2Ev+0x194>
<_ZN18ChiMetadataManager10MetaClientC2Ev+0x148>
<_ZN18ChiMetadataManager10MetaClientC2Ev+0x190>
0x2cf3c <_ZN18ChiMetadataManager10MetaClientC2Ev+0x17c>
0x2cf50 <_ZN18ChiMetadataManager10MetaClientC2Ev+0x190>


<_ZN18ChiMetadataManager10MetaClient14ReleaseBuffersEv@plt>
0x2cf94 <_ZN18ChiMetadataManager10MetaClientD2Ev+0x2c>
0x2cf84 <_ZN18ChiMetadataManager10MetaClientD2Ev+0x1c>
0x2cfb0 <_ZN18ChiMetadataManager10MetaClientD2Ev+0x48>
0x2cff0 <_ZN18ChiMetadataManager10MetaClientD2Ev+0x88>
<_ZNSt3__15mutexD1Ev@plt>
0x2cfe4 <_ZN18ChiMetadataManager10MetaClientD2Ev+0x7c>
0x2cff0 <_ZN18ChiMetadataManager10MetaClientD2Ev+0x88>

0x35000 <_ZN18ChiMetadataManager10MetaClient14ReleaseBuffersEv+0x40>
0xb000 <_ZN18ChiMetadataManager10MetaClientD2Ev+0x2c>
#3, 0x2d104 <_ZN18ChiMetadataManager10MetaClient14ReleaseBuffersEv+0x10c>
0x35000 <_ZN18ChiMetadataManager10MetaClient14ReleaseBuffersEv+0x5c>
<_ZN18ChiMetadataManager10MetaClient14ReleaseBuffersEv+0xac>
0xf000 <_ZN18ChiMetadataManager10MetaClientD2Ev+0x80>
0xb000 <_ZN18ChiMetadataManager10MetaClientD2Ev+0x78>
0xa000 <_ZN18ChiMetadataManager10MetaClientD2Ev+0x7c>
0xd000 <_ZN18ChiMetadataManager10MetaClient14ReleaseBuffersEv+0x44>
0xf000 <_ZN18ChiMetadataManager10MetaClient14ReleaseBuffersEv+0x5c>
0xa000 <_ZN18ChiMetadataManager10MetaClient14ReleaseBuffersEv+0x4c>
0xf000 <_ZN18ChiMetadataManager10MetaClient14ReleaseBuffersEv+0x64>
<_ZN6ChiLog9LogSystemEPKcS1_S1_S1_iS1_z@plt>
<_ZN18ChiMetadataManager10MetaClient14ReleaseBuffersEv+0x144>
<_ZN18ChiMetadataManager10MetaClient14ReleaseBuffersEv+0x248>
<_ZN18ChiMetadataManager10MetaClient14ReleaseBuffersEv+0x224>
0x2d120 <_ZN18ChiMetadataManager10MetaClient14ReleaseBuffersEv+0x128>
<_ZN11ChiMetadata15DestroyInternalEb@plt>
0x2d210 <_ZN18ChiMetadataManager10MetaClient14ReleaseBuffersEv+0x218>
0x35000 <_ZN18ChiMetadataManager10MetaClient14ReleaseBuffersEv+0x188>
#0, 0x2d124 <_ZN18ChiMetadataManager10MetaClient14ReleaseBuffersEv+0x12c>
0x35000 <_ZN18ChiMetadataManager10MetaClient14ReleaseBuffersEv+0x19c>
<_ZN18ChiMetadataManager10MetaClient14ReleaseBuffersEv+0x1d0>
0xf000 <_ZN18ChiMetadataManager10MetaClient14ReleaseBuffersEv+0x12c>
0xc000 <_ZN18ChiMetadataManager10MetaClient14ReleaseBuffersEv+0x124>
0xa000 <_ZN18ChiMetadataManager10MetaClient14ReleaseBuffersEv+0x120>
0xf000 <_ZN18ChiMetadataManager10MetaClient14ReleaseBuffersEv+0x16c>
0xb000 <_ZN18ChiMetadataManager10MetaClient14ReleaseBuffersEv+0x164>
0xa000 <_ZN18ChiMetadataManager10MetaClient14ReleaseBuffersEv+0x164>
0xe000 <_ZN18ChiMetadataManager10MetaClient14ReleaseBuffersEv+0x178>
<_ZN6ChiLog9LogSystemEPKcS1_S1_S1_iS1_z@plt>
<_ZN18ChiMetadataManager10MetaClient14ReleaseBuffersEv+0x12c>
<_ZN18ChiMetadataManager10MetaClient14ReleaseBuffersEv+0x12c>

<_ZN18ChiMetadataManager10MetaClient12TrackBuffersERNSt3__16chrono10time_pointINS2_12steady_clockENS2_8durationIxNS1_5ratioILl1ELl1000000000EEEEEEEj+0x2dc>
<_ZN18ChiMetadataManager10MetaClient12TrackBuffersERNSt3__16chrono10time_pointINS2_12steady_clockENS2_8durationIxNS1_5ratioILl1ELl1000000000EEEEEEEj+0x15c>
0xb000 <_ZN18ChiMetadataManager10MetaClient14ReleaseBuffersEv+0x230>
0xf000 <_ZN18ChiMetadataManager10MetaClient12TrackBuffersERNSt3__16chrono10time_pointINS2_12steady_clockENS2_8durationIxNS1_5ratioILl1ELl1000000000EEEEEEEj+0x60>
0xd000 <_ZN18ChiMetadataManager10MetaClient12TrackBuffersERNSt3__16chrono10time_pointINS2_12steady_clockENS2_8durationIxNS1_5ratioILl1ELl1000000000EEEEEEEj+0x60>
0xa000 <_ZN18ChiMetadataManager10MetaClient12TrackBuffersERNSt3__16chrono10time_pointINS2_12steady_clockENS2_8durationIxNS1_5ratioILl1ELl1000000000EEEEEEEj+0x5c>
0xf000 <_ZN18ChiMetadataManager10MetaClient12TrackBuffersERNSt3__16chrono10time_pointINS2_12steady_clockENS2_8durationIxNS1_5ratioILl1ELl1000000000EEEEEEEj+0x74>
<_ZN6ChiLog9LogSystemEPKcS1_S1_S1_iS1_z@plt>
0x33000 <_ZN18ChiMetadataManager10MetaClient12TrackBuffersERNSt3__16chrono10time_pointINS2_12steady_clockENS2_8durationIxNS1_5ratioILl1ELl1000000000EEEEEEEj+0x140>
<_ZN18ChiMetadataManager10MetaClient12TrackBuffersERNSt3__16chrono10time_pointINS2_12steady_clockENS2_8durationIxNS1_5ratioILl1ELl1000000000EEEEEEEj+0x2c0>
<_ZN18ChiMetadataManager10MetaClient12TrackBuffersERNSt3__16chrono10time_pointINS2_12steady_clockENS2_8durationIxNS1_5ratioILl1ELl1000000000EEEEEEEj+0x314>
<_ZN18ChiMetadataManager10MetaClient12TrackBuffersERNSt3__16chrono10time_pointINS2_12steady_clockENS2_8durationIxNS1_5ratioILl1ELl1000000000EEEEEEEj+0x2dc>
<_ZN18ChiMetadataManager10MetaClient12TrackBuffersERNSt3__16chrono10time_pointINS2_12steady_clockENS2_8durationIxNS1_5ratioILl1ELl1000000000EEEEEEEj+0x310>
0x2d390 <_ZN18ChiMetadataManager10MetaClient12TrackBuffersERNSt3__16chrono10time_pointINS2_12steady_clockENS2_8durationIxNS1_5ratioILl1ELl1000000000EEEEEEEj+0x148>
<_ZN18ChiMetadataManager10MetaClient12TrackBuffersERNSt3__16chrono10time_pointINS2_12steady_clockENS2_8durationIxNS1_5ratioILl1ELl1000000000EEEEEEEj+0x148>
0x35000 <_ZN18ChiMetadataManager10MetaClient12TrackBuffersERNSt3__16chrono10time_pointINS2_12steady_clockENS2_8durationIxNS1_5ratioILl1ELl1000000000EEEEEEEj+0x208>
#5, 0x2d36c <_ZN18ChiMetadataManager10MetaClient12TrackBuffersERNSt3__16chrono10time_pointINS2_12steady_clockENS2_8durationIxNS1_5ratioILl1ELl1000000000EEEEEEEj+0x124>
0x35000 <_ZN18ChiMetadataManager10MetaClient12TrackBuffersERNSt3__16chrono10time_pointINS2_12steady_clockENS2_8durationIxNS1_5ratioILl1ELl1000000000EEEEEEEj+0x218>
<_ZN18ChiMetadataManager10MetaClient12TrackBuffersERNSt3__16chrono10time_pointINS2_12steady_clockENS2_8durationIxNS1_5ratioILl1ELl1000000000EEEEEEEj+0x68>
0xb000 <_ZN18ChiMetadataManager10MetaClient12TrackBuffersERNSt3__16chrono10time_pointINS2_12steady_clockENS2_8durationIxNS1_5ratioILl1ELl1000000000EEEEEEEj+0x184>
0xf000 <_ZN18ChiMetadataManager10MetaClient12TrackBuffersERNSt3__16chrono10time_pointINS2_12steady_clockENS2_8durationIxNS1_5ratioILl1ELl1000000000EEEEEEEj+0x1fc>
0xe000 <_ZN18ChiMetadataManager10MetaClient12TrackBuffersERNSt3__16chrono10time_pointINS2_12steady_clockENS2_8durationIxNS1_5ratioILl1ELl1000000000EEEEEEEj+0x1fc>
0xa000 <_ZN18ChiMetadataManager10MetaClient12TrackBuffersERNSt3__16chrono10time_pointINS2_12steady_clockENS2_8durationIxNS1_5ratioILl1ELl1000000000EEEEEEEj+0x1f0>
<_ZN18ChiMetadataManager10MetaClient12TrackBuffersERNSt3__16chrono10time_pointINS2_12steady_clockENS2_8durationIxNS1_5ratioILl1ELl1000000000EEEEEEEj+0x68>
<_ZN18ChiMetadataManager10MetaClient12TrackBuffersERNSt3__16chrono10time_pointINS2_12steady_clockENS2_8durationIxNS1_5ratioILl1ELl1000000000EEEEEEEj+0x13c>
<_ZN18ChiMetadataManager10MetaClient12TrackBuffersERNSt3__16chrono10time_pointINS2_12steady_clockENS2_8durationIxNS1_5ratioILl1ELl1000000000EEEEEEEj+0x318>


0x35000 <_ZN18ChiMetadataManager10MetaClient15AllocateBuffersEPjjjjj+0x40>
0x2d734 <_ZN18ChiMetadataManager10MetaClient15AllocateBuffersEPjjjjj+0x1bc>
<_ZN18ChiMetadataManager10MetaClient15AllocateBuffersEPjjjjj+0x1cc>
<_ZN18ChiMetadataManager10MetaClient15AllocateBuffersEPjjjjj+0xac>
<_ZN18ChiMetadataManager10MetaClient15AllocateBuffersEPjjjjj+0x2ac>
<_ZN11ChiMetadata6CreateEPKjjbP18ChiMetadataManagerj@plt>
0x2d81c <_ZN18ChiMetadataManager10MetaClient15AllocateBuffersEPjjjjj+0x2a4>
<_ZN18ChiMetadataManager10MetaClient15AllocateBuffersEPjjjjj+0x78>
<_ZN18ChiMetadataManager10MetaClient15AllocateBuffersEPjjjjj+0x474>
0x2d9f0 <_ZN18ChiMetadataManager10MetaClient15AllocateBuffersEPjjjjj+0x478>
<_ZN18ChiMetadataManager10MetaClient15AllocateBuffersEPjjjjj+0x180>
<_ZN18ChiMetadataManager10MetaClient15AllocateBuffersEPjjjjj+0x470>
0x2d618 <_ZN18ChiMetadataManager10MetaClient15AllocateBuffersEPjjjjj+0xa0>
0x2d9e8 <_ZN18ChiMetadataManager10MetaClient15AllocateBuffersEPjjjjj+0x470>
<_ZN18ChiMetadataManager10MetaClient15AllocateBuffersEPjjjjj+0xa0>
#0, 0x2d754 <_ZN18ChiMetadataManager10MetaClient15AllocateBuffersEPjjjjj+0x1dc>
<_ZN18ChiMetadataManager10MetaClient15AllocateBuffersEPjjjjj+0x370>
#3, 0x2d83c <_ZN18ChiMetadataManager10MetaClient15AllocateBuffersEPjjjjj+0x2c4>
<_ZN18ChiMetadataManager10MetaClient15AllocateBuffersEPjjjjj+0x370>
0x35000 <_ZN18ChiMetadataManager10MetaClient15AllocateBuffersEPjjjjj+0x1fc>
<_ZN18ChiMetadataManager10MetaClient15AllocateBuffersEPjjjjj+0x244>
0xb000 <_ZN18ChiMetadataManager10MetaClient15AllocateBuffersEPjjjjj+0x16c>
0xf000 <_ZN18ChiMetadataManager10MetaClient15AllocateBuffersEPjjjjj+0x198>
0xd000 <_ZN18ChiMetadataManager10MetaClient15AllocateBuffersEPjjjjj+0x194>
0xb000 <_ZN18ChiMetadataManager10MetaClient15AllocateBuffersEPjjjjj+0x190>
0xb000 <_ZN18ChiMetadataManager10MetaClient15AllocateBuffersEPjjjjj+0x1bc>
0xf000 <_ZN18ChiMetadataManager10MetaClient15AllocateBuffersEPjjjjj+0x1e8>
0xb000 <_ZN18ChiMetadataManager10MetaClient15AllocateBuffersEPjjjjj+0x1e0>
0xb000 <_ZN18ChiMetadataManager10MetaClient15AllocateBuffersEPjjjjj+0x1e4>
0xe000 <_ZN18ChiMetadataManager10MetaClient15AllocateBuffersEPjjjjj+0x1f4>
<_ZN6ChiLog9LogSystemEPKcS1_S1_S1_iS1_z@plt>
<_ZN18ChiMetadataManager10MetaClient15AllocateBuffersEPjjjjj+0x370>
<_ZN18ChiMetadataManager10MetaClient15AllocateBuffersEPjjjjj+0x2b0>
0x35000 <_ZN18ChiMetadataManager10MetaClient15AllocateBuffersEPjjjjj+0x2d0>
#3, 0x2d8e8 <_ZN18ChiMetadataManager10MetaClient15AllocateBuffersEPjjjjj+0x370>
0x35000 <_ZN18ChiMetadataManager10MetaClient15AllocateBuffersEPjjjjj+0x2e4>
0xb000 <_ZN18ChiMetadataManager10MetaClient15AllocateBuffersEPjjjjj+0x240>
<_ZN18ChiMetadataManager10MetaClient15AllocateBuffersEPjjjjj+0x328>
0xf000 <_ZN18ChiMetadataManager10MetaClient15AllocateBuffersEPjjjjj+0x280>
0xa000 <_ZN18ChiMetadataManager10MetaClient15AllocateBuffersEPjjjjj+0x270>
0xb000 <_ZN18ChiMetadataManager10MetaClient15AllocateBuffersEPjjjjj+0x278>
0xd000 <_ZN18ChiMetadataManager10MetaClient15AllocateBuffersEPjjjjj+0x2bc>
0xf000 <_ZN18ChiMetadataManager10MetaClient15AllocateBuffersEPjjjjj+0x2cc>
0xb000 <_ZN18ChiMetadataManager10MetaClient15AllocateBuffersEPjjjjj+0x2c0>
0xc000 <_ZN18ChiMetadataManager10MetaClient15AllocateBuffersEPjjjjj+0x2c8>
<_ZN6ChiLog9LogSystemEPKcS1_S1_S1_iS1_z@plt>
#3, 0x2d9b0 <_ZN18ChiMetadataManager10MetaClient15AllocateBuffersEPjjjjj+0x438>
0x35000 <_ZN18ChiMetadataManager10MetaClient15AllocateBuffersEPjjjjj+0x398>
<_ZN18ChiMetadataManager10MetaClient15AllocateBuffersEPjjjjj+0x3e0>
0xb000 <_ZN18ChiMetadataManager10MetaClient15AllocateBuffersEPjjjjj+0x304>
0xf000 <_ZN18ChiMetadataManager10MetaClient15AllocateBuffersEPjjjjj+0x334>
0xb000 <_ZN18ChiMetadataManager10MetaClient15AllocateBuffersEPjjjjj+0x32c>
0xc000 <_ZN18ChiMetadataManager10MetaClient15AllocateBuffersEPjjjjj+0x340>
0xb000 <_ZN18ChiMetadataManager10MetaClient15AllocateBuffersEPjjjjj+0x358>
0xe000 <_ZN18ChiMetadataManager10MetaClient15AllocateBuffersEPjjjjj+0x384>
0xd000 <_ZN18ChiMetadataManager10MetaClient15AllocateBuffersEPjjjjj+0x398>
0xf000 <_ZN18ChiMetadataManager10MetaClient15AllocateBuffersEPjjjjj+0x3a8>
0xb000 <_ZN18ChiMetadataManager10MetaClient15AllocateBuffersEPjjjjj+0x39c>
<_ZN6ChiLog9LogSystemEPKcS1_S1_S1_iS1_z@plt>
<_ZN18ChiMetadataManager10MetaClient15AllocateBuffersEPjjjjj+0x480>
<_ZNKSt3__120__vector_base_commonILb1EE20__throw_length_errorEv@plt>



0x2db64 <_ZN18ChiMetadataManager21AndroidMetadataHolderD2Ev+0x13c>
0x35000 <_ZN18ChiMetadataManager21AndroidMetadataHolderD2Ev+0x44>
#3, 0x2db58 <_ZN18ChiMetadataManager21AndroidMetadataHolderD2Ev+0x130>
0x35000 <_ZN18ChiMetadataManager21AndroidMetadataHolderD2Ev+0x54>
0xb000 <_ZN18ChiMetadataManager10MetaClient15AllocateBuffersEPjjjjj+0x460>
<_ZN18ChiMetadataManager21AndroidMetadataHolderD2Ev+0xbc>
0xf000 <_ZN18ChiMetadataManager21AndroidMetadataHolderD2Ev+0xc>
0xd000 <_ZN18ChiMetadataManager21AndroidMetadataHolderD2Ev+0x8>
0xc000 <_ZN18ChiMetadataManager21AndroidMetadataHolderD2Ev+0x8>
0xf000 <_ZN18ChiMetadataManager21AndroidMetadataHolderD2Ev+0x7c>
0xd000 <_ZN18ChiMetadataManager21AndroidMetadataHolderD2Ev+0x78>
0xc000 <_ZN18ChiMetadataManager21AndroidMetadataHolderD2Ev+0x78>
0xb000 <_ZN18ChiMetadataManager21AndroidMetadataHolderD2Ev+0x78>
<_ZN6ChiLog9LogSystemEPKcS1_S1_S1_iS1_z@plt>
0x2db60 <_ZN18ChiMetadataManager21AndroidMetadataHolderD2Ev+0x138>
<_ZN18ChiMetadataManagerC2Ejjj@plt>
0x2dbf4 <_ZN18ChiMetadataManager21AndroidMetadataHolderD2Ev+0x1cc>
<_ZN11ChiMetadata21InitializeMetadataOpsEP14ChiMetadataOps@plt>
0x2dbe0 <_ZN18ChiMetadataManager21AndroidMetadataHolderD2Ev+0x1b8>
<_ZN18ChiMetadataManager10InitializeEv@plt>
0x2dbf4 <_ZN18ChiMetadataManager21AndroidMetadataHolderD2Ev+0x1cc>
<_ZN18ChiMetadataManagerD2Ev@plt>

0x2e4dc <_ZN18ChiMetadataManager10InitializeEv+0x8d4>
0x2e4dc <_ZN18ChiMetadataManager10InitializeEv+0x8d4>
<_ZN18ChiMetadataManager10InitializeEv+0x12c>
<_ZN18ChiMetadataManager10InitializeEv+0x134>
<_ZN18ChiMetadataManager10InitializeEv+0xcc>
0x2dd90 <_ZN18ChiMetadataManager10InitializeEv+0x188>
<_ZN18ChiMetadataManager10InitializeEv+0x138>
<_ZN18ChiMetadataManager10InitializeEv+0x16c>
<_ZN18ChiMetadataManager10InitializeEv+0x16c>
<_ZN18ChiMetadataManager10InitializeEv+0x188>
<_ZN18ChiMetadataManager10InitializeEv+0x178>
<_ZN18ChiMetadataManager10InitializeEv+0x200>
<_ZN18ChiMetadataManager10InitializeEv+0x9e0>
<_ZN18ChiMetadataManager10InitializeEv+0x4c0>
0x2de4c <_ZN18ChiMetadataManager10InitializeEv+0x244>
<_ZN18ChiMetadataManager10InitializeEv+0x24c>
<_ZN18ChiMetadataManager10InitializeEv+0x260>
<_ZN18ChiMetadataManager10InitializeEv+0x2dc>
<_ZN18ChiMetadataManager10InitializeEv+0x260>
0x2dee4 <_ZN18ChiMetadataManager10InitializeEv+0x2dc>
<_ZN18ChiMetadataManager10InitializeEv+0x2b4>
0x2dee4 <_ZN18ChiMetadataManager10InitializeEv+0x2dc>
<_ZN18ChiMetadataManager10InitializeEv+0x2dc>
<_ZN18ChiMetadataManager10InitializeEv+0x274>
<_ZN18ChiMetadataManager10InitializeEv+0x1e0>
<_ZN18ChiMetadataManager10InitializeEv+0x2dc>
<_ZN18ChiMetadataManager10InitializeEv+0x1e0>
0x2dee4 <_ZN18ChiMetadataManager10InitializeEv+0x2dc>
<_ZN18ChiMetadataManager10InitializeEv+0x2a8>
<_ZN18ChiMetadataManager10InitializeEv+0x2a0>
<_ZN18ChiMetadataManager10InitializeEv+0x2a0>
<_ZN18ChiMetadataManager10InitializeEv+0x9e0>
0x2df30 <_ZN18ChiMetadataManager10InitializeEv+0x328>
<_ZN18ChiMetadataManager10InitializeEv+0x444>
<_ZN18ChiMetadataManager10InitializeEv+0x9e4>
<_ZN18ChiMetadataManager10InitializeEv+0x36c>
<_ZN18ChiMetadataManager10InitializeEv+0x384>
<_ZN18ChiMetadataManager10InitializeEv+0x384>
<_ZNSt3__112__next_primeEm@plt>
<_ZN18ChiMetadataManager10InitializeEv+0x39c>
<_ZN18ChiMetadataManager25AllocateFrameworkMetadataEjjbjj+0x1c8>
<_ZN18ChiMetadataManager10InitializeEv+0x410>
<_ZN18ChiMetadataManager10InitializeEv+0x410>
<_ZN18ChiMetadataManager10InitializeEv+0x3f4>
<_ZN18ChiMetadataManager10InitializeEv+0x3f4>
<_ZN18ChiMetadataManager10InitializeEv+0x3f8>
<_ZN18ChiMetadataManager10InitializeEv+0x3f8>
<_ZNSt3__112__next_primeEm@plt>
<_ZN18ChiMetadataManager10InitializeEv+0x410>
<_ZN18ChiMetadataManager10InitializeEv+0x394>
<_ZN18ChiMetadataManager10InitializeEv+0x9e8>
<_ZN18ChiMetadataManager10InitializeEv+0x434>
<_ZN18ChiMetadataManager10InitializeEv+0x43c>
<_ZN18ChiMetadataManager10InitializeEv+0x444>
<_ZN18ChiMetadataManager10InitializeEv+0x444>
0x2e068 <_ZN18ChiMetadataManager10InitializeEv+0x460>
<_ZN18ChiMetadataManager10InitializeEv+0x4ac>
0x2e0b4 <_ZN18ChiMetadataManager10InitializeEv+0x4ac>
<_ZN18ChiMetadataManager10InitializeEv+0x494>
<_ZN18ChiMetadataManager10InitializeEv+0x4a4>
<_ZN18ChiMetadataManager10InitializeEv+0x4a4>
<_ZN18ChiMetadataManager10InitializeEv+0x9e0>
<_ZN18ChiMetadataManager10InitializeEv+0x1e0>
0x2e4b8 <_ZN18ChiMetadataManager10InitializeEv+0x8b0>
<_ZN18ChiMetadataManager10InitializeEv+0x590>
<_ZN18ChiMetadataManager10InitializeEv+0x56c>
<_ZN18ChiMetadataManager10InitializeEv+0x514>
<_ZN18ChiMetadataManager10InitializeEv+0x564>
<_ZN18ChiMetadataManager21AndroidMetadataHolderD2Ev@plt>
<_ZN18ChiMetadataManager10InitializeEv+0x54c>
0x2e180 <_ZN18ChiMetadataManager10InitializeEv+0x578>
<_ZN18ChiMetadataManager10InitializeEv+0x590>
0x2e198 <_ZN18ChiMetadataManager10InitializeEv+0x590>
0x2e5ec <_ZN18ChiMetadataManager10InitializeEv+0x9e4>
<_ZN18ChiMetadataManager10InitializeEv+0x76c>
<_ZN18ChiMetadataManager10InitializeEv+0x7b0>
<_ZN18ChiMetadataManager10InitializeEv+0x7e0>
<_ZN18ChiMetadataManager10InitializeEv+0x620>
0x2e400 <_ZN18ChiMetadataManager10InitializeEv+0x7f8>
<_ZN18ChiMetadataManager10InitializeEv+0x73c>
<_ZN18ChiMetadataManager10InitializeEv+0x7f8>
<_ZN18ChiMetadataManager10InitializeEv+0x750>
<_ZN18ChiMetadataManager10InitializeEv+0x7f8>
<_ZN18ChiMetadataManager10InitializeEv+0x88c>
<_ZN18ChiMetadataManager10InitializeEv+0x7a8>
<_ZN18ChiMetadataManager21AndroidMetadataHolderD2Ev@plt>
<_ZN18ChiMetadataManager10InitializeEv+0x790>
<_ZN18ChiMetadataManager10InitializeEv+0x88c>
<_ZN18ChiMetadataManager10InitializeEv+0x7bc>
<_ZN18ChiMetadataManager10InitializeEv+0x88c>
<_ZN18ChiMetadataManager10InitializeEv+0x7e4>
<_ZN18ChiMetadataManager10InitializeEv+0x830>
<_ZN18ChiMetadataManager10InitializeEv+0x810>
<_ZN18ChiMetadataManager10InitializeEv+0x838>
<_ZN18ChiMetadataManager10InitializeEv+0x86c>
<_ZN18ChiMetadataManager21AndroidMetadataHolderD2Ev@plt>
<_ZN18ChiMetadataManager10InitializeEv+0x854>
0x2e494 <_ZN18ChiMetadataManager10InitializeEv+0x88c>
0x2e5ec <_ZN18ChiMetadataManager10InitializeEv+0x9e4>
<_ZN18ChiMetadataManager25AllocateFrameworkMetadataEjjbjj@plt>
0x2e5bc <_ZN18ChiMetadataManager10InitializeEv+0x9b4>
0x2e4dc <_ZN18ChiMetadataManager10InitializeEv+0x8d4>
0x2e5ec <_ZN18ChiMetadataManager10InitializeEv+0x9e4>
0x2e588 <_ZN18ChiMetadataManager10InitializeEv+0x980>
0x35000 <_ZN18ChiMetadataManager10InitializeEv+0x8f4>
#3, 0x2e588 <_ZN18ChiMetadataManager10InitializeEv+0x980>
0x35000 <_ZN18ChiMetadataManager10InitializeEv+0x904>
0xb000 <_ZN18ChiMetadataManager10InitializeEv+0x860>
<_ZN18ChiMetadataManager10InitializeEv+0x940>
0xf000 <_ZN18ChiMetadataManager10InitializeEv+0x89c>
0xb000 <_ZN18ChiMetadataManager10InitializeEv+0x890>
0xe000 <_ZN18ChiMetadataManager10InitializeEv+0x8a0>
0xd000 <_ZN18ChiMetadataManager10InitializeEv+0x8d0>
0xf000 <_ZN18ChiMetadataManager10InitializeEv+0x8e0>
0xe000 <_ZN18ChiMetadataManager10InitializeEv+0x8e0>
0xb000 <_ZN18ChiMetadataManager10InitializeEv+0x8d8>
<_ZN6ChiLog9LogSystemEPKcS1_S1_S1_iS1_z@plt>
<_ZN18ChiMetadataManager10InitializeEv+0x9ec>
<_ZN18ChiMetadataManager25AllocateFrameworkMetadataEjjbjj@plt>
0x2e4c0 <_ZN18ChiMetadataManager10InitializeEv+0x8b8>
<_ZN18ChiMetadataManager10InitializeEv+0x8d4>

0x2e638 <_ZN18ChiMetadataManagerD2Ev+0x40>
<_ZN11ChiMetadata15DestroyInternalEb@plt>
0x2e648 <_ZN18ChiMetadataManagerD2Ev+0x50>
<_ZdaPv@plt>
0x2e6a0 <_ZN18ChiMetadataManagerD2Ev+0xa8>
<_ZN18ChiMetadataManagerD2Ev+0x88>
<_ZN18ChiMetadataManager21AndroidMetadataHolderD2Ev@plt>
<_ZN18ChiMetadataManagerD2Ev+0x68>
<_ZN18ChiMetadataManagerD2Ev+0x8c>
0x2e934 <_ZN18ChiMetadataManagerD2Ev+0x33c>
<_ZNSt3__15mutexD1Ev@plt>
<_ZNSt3__15mutexD1Ev@plt>
0x2e6d8 <_ZN18ChiMetadataManagerD2Ev+0xe0>
0x2e6c8 <_ZN18ChiMetadataManagerD2Ev+0xd0>
0x2e6f4 <_ZN18ChiMetadataManagerD2Ev+0xfc>
0x2e934 <_ZN18ChiMetadataManagerD2Ev+0x33c>
<_ZN18ChiMetadataManager10MetaClientD2Ev@plt>
<_ZN18ChiMetadataManager10MetaClientD2Ev@plt>
<_ZN18ChiMetadataManager10MetaClientD2Ev@plt>
<_ZN18ChiMetadataManager10MetaClientD2Ev@plt>
<_ZN18ChiMetadataManager10MetaClientD2Ev@plt>
<_ZN18ChiMetadataManager10MetaClientD2Ev@plt>
<_ZN18ChiMetadataManager10MetaClientD2Ev@plt>
<_ZN18ChiMetadataManager10MetaClientD2Ev@plt>
<_ZN18ChiMetadataManager10MetaClientD2Ev@plt>
<_ZN18ChiMetadataManager10MetaClientD2Ev@plt>
<_ZN18ChiMetadataManager10MetaClientD2Ev@plt>
<_ZN18ChiMetadataManager10MetaClientD2Ev@plt>
<_ZN18ChiMetadataManager10MetaClientD2Ev@plt>
<_ZN18ChiMetadataManager10MetaClientD2Ev@plt>
<_ZN18ChiMetadataManager10MetaClientD2Ev@plt>
<_ZN18ChiMetadataManager10MetaClientD2Ev@plt>
<_ZN18ChiMetadataManager10MetaClientD2Ev@plt>
<_ZN18ChiMetadataManager10MetaClientD2Ev@plt>
<_ZN18ChiMetadataManager10MetaClientD2Ev@plt>
<_ZN18ChiMetadataManager10MetaClientD2Ev@plt>
<_ZN18ChiMetadataManager10MetaClientD2Ev@plt>
<_ZN18ChiMetadataManager10MetaClientD2Ev@plt>
<_ZN18ChiMetadataManager10MetaClientD2Ev@plt>
<_ZN18ChiMetadataManager10MetaClientD2Ev@plt>
<_ZN18ChiMetadataManager10MetaClientD2Ev@plt>
<_ZN18ChiMetadataManager10MetaClientD2Ev@plt>
<_ZN18ChiMetadataManager10MetaClientD2Ev@plt>
<_ZN18ChiMetadataManager10MetaClientD2Ev@plt>
<_ZN18ChiMetadataManager10MetaClientD2Ev@plt>
<_ZN18ChiMetadataManager10MetaClientD2Ev@plt>
<_ZN18ChiMetadataManager10MetaClientD2Ev@plt>
<_ZN18ChiMetadataManager10MetaClientD2Ev@plt>
<_ZN18ChiMetadataManagerD2Ev+0x13c>

<_ZN18ChiMetadataManager25AllocateFrameworkMetadataEjjbjj+0x19c>
0x35000 <_ZN18ChiMetadataManager25AllocateFrameworkMetadataEjjbjj+0x44>
<_ZN18ChiMetadataManager25AllocateFrameworkMetadataEjjbjj+0xe4>
0xb000 <_ZN18ChiMetadataManagerD2Ev+0x310>
0xf000 <_ZN18ChiMetadataManager25AllocateFrameworkMetadataEjjbjj+0x18>
0xd000 <_ZN18ChiMetadataManager25AllocateFrameworkMetadataEjjbjj+0x14>
0xa000 <_ZN18ChiMetadataManager25AllocateFrameworkMetadataEjjbjj+0xc>
0xb000 <_ZN18ChiMetadataManager25AllocateFrameworkMetadataEjjbjj+0x14>
<_ZN6ChiLog9LogSystemEPKcS1_S1_S1_iS1_z@plt>
<_ZN18ChiMetadataManager25AllocateFrameworkMetadataEjjbjj+0x19c>
0x2eadc <_ZN18ChiMetadataManager25AllocateFrameworkMetadataEjjbjj+0x1a4>
#3, 0x2ea0c <_ZN18ChiMetadataManager25AllocateFrameworkMetadataEjjbjj+0xd4>
0x35000 <_ZN18ChiMetadataManager25AllocateFrameworkMetadataEjjbjj+0x130>
<_ZN18ChiMetadataManager25AllocateFrameworkMetadataEjjbjj+0x5c>
0xb000 <_ZN18ChiMetadataManager25AllocateFrameworkMetadataEjjbjj+0xa0>
0xf000 <_ZN18ChiMetadataManager25AllocateFrameworkMetadataEjjbjj+0xe4>
0xc000 <_ZN18ChiMetadataManager25AllocateFrameworkMetadataEjjbjj+0xdc>
0xa000 <_ZN18ChiMetadataManager25AllocateFrameworkMetadataEjjbjj+0xd8>
<_ZN18ChiMetadataManager25AllocateFrameworkMetadataEjjbjj+0x5c>
<_ZN18ChiMetadataManager25AllocateFrameworkMetadataEjjbjj+0x1a8>
0x2eb34 <_ZN18ChiMetadataManager25AllocateFrameworkMetadataEjjbjj+0x1fc>
0x2eda8 <_ZN18ChiMetadataManager25AllocateFrameworkMetadataEjjbjj+0x470>
<_ZN18ChiMetadataManager25AllocateFrameworkMetadataEjjbjj+0x200>
0x2eb54 <_ZN18ChiMetadataManager25AllocateFrameworkMetadataEjjbjj+0x21c>
0x2edac <_ZN18ChiMetadataManager25AllocateFrameworkMetadataEjjbjj+0x474>
0x2ed0c <_ZN18ChiMetadataManager25AllocateFrameworkMetadataEjjbjj+0x3d4>
<_ZN18ChiMetadataManager25AllocateFrameworkMetadataEjjbjj+0x248>
<_ZN18ChiMetadataManager25AllocateFrameworkMetadataEjjbjj+0x3e0>
<_ZN18ChiMetadataManager25AllocateFrameworkMetadataEjjbjj+0x3e0>
<_ZN18ChiMetadataManager25AllocateFrameworkMetadataEjjbjj+0x250>
0x2ed0c <_ZN18ChiMetadataManager25AllocateFrameworkMetadataEjjbjj+0x3d4>
<_ZN18ChiMetadataManager25AllocateFrameworkMetadataEjjbjj+0x29c>
<_ZN18ChiMetadataManager25AllocateFrameworkMetadataEjjbjj+0x2ac>
<_ZN18ChiMetadataManager25AllocateFrameworkMetadataEjjbjj+0x2ac>
0x2ed0c <_ZN18ChiMetadataManager25AllocateFrameworkMetadataEjjbjj+0x3d4>
<_ZN18ChiMetadataManager25AllocateFrameworkMetadataEjjbjj+0x354>
<_ZN18ChiMetadataManager25AllocateFrameworkMetadataEjjbjj+0x2d4>
0x2ed0c <_ZN18ChiMetadataManager25AllocateFrameworkMetadataEjjbjj+0x3d4>
<_ZN18ChiMetadataManager25AllocateFrameworkMetadataEjjbjj+0x2c8>
0x2ec70 <_ZN18ChiMetadataManager25AllocateFrameworkMetadataEjjbjj+0x338>
0x2ec48 <_ZN18ChiMetadataManager25AllocateFrameworkMetadataEjjbjj+0x310>
<_ZN18ChiMetadataManager25AllocateFrameworkMetadataEjjbjj+0x2f4>
<_ZN18ChiMetadataManager25AllocateFrameworkMetadataEjjbjj+0x2cc>
<_ZN18ChiMetadataManager25AllocateFrameworkMetadataEjjbjj+0x2cc>
0x2ed0c <_ZN18ChiMetadataManager25AllocateFrameworkMetadataEjjbjj+0x3d4>
<_ZN18ChiMetadataManager25AllocateFrameworkMetadataEjjbjj+0x368>
<_ZN18ChiMetadataManager25AllocateFrameworkMetadataEjjbjj+0x348>
0x2ecfc <_ZN18ChiMetadataManager25AllocateFrameworkMetadataEjjbjj+0x3c4>
0x2ecd4 <_ZN18ChiMetadataManager25AllocateFrameworkMetadataEjjbjj+0x39c>
<_ZN18ChiMetadataManager25AllocateFrameworkMetadataEjjbjj+0x380>
<_ZN18ChiMetadataManager25AllocateFrameworkMetadataEjjbjj+0x34c>
<_ZN18ChiMetadataManager25AllocateFrameworkMetadataEjjbjj+0x34c>
<_ZN18ChiMetadataManager25AllocateFrameworkMetadataEjjbjj+0x3f4>
0x2eba0 <_ZN18ChiMetadataManager25AllocateFrameworkMetadataEjjbjj+0x268>
<_ZN18ChiMetadataManager25AllocateFrameworkMetadataEjjbjj+0x438>
<_ZN18ChiMetadataManager25AllocateFrameworkMetadataEjjbjj+0x268>
#2, 0x2ed88 <_ZN18ChiMetadataManager25AllocateFrameworkMetadataEjjbjj+0x450>
<_ZN18ChiMetadataManager25AllocateFrameworkMetadataEjjbjj+0x268>
#1, 0x2eda0 <_ZN18ChiMetadataManager25AllocateFrameworkMetadataEjjbjj+0x468>
<_ZN18ChiMetadataManager25AllocateFrameworkMetadataEjjbjj+0x268>
<_ZN18ChiMetadataManager25AllocateFrameworkMetadataEjjbjj+0x268>

<_ZN18ChiMetadataManagerC2Ejjj+0x7c>
<_ZN18ChiMetadataManager10MetaClientC2Ev+0xd0>
<_ZN18ChiMetadataManagerC2Ejjj+0x64>

0x2f058 <_ZN18ChiMetadataManager7DestroyEv+0x28>
<_ZN18ChiMetadataManagerD2Ev@plt>

<_ZNSt3__15mutex4lockEv@plt>
0x35000 <_ZN18ChiMetadataManager30InitializeFrameworkInputClientEjb+0x64>
0x2f188 <_ZN18ChiMetadataManager30InitializeFrameworkInputClientEjb+0x128>
0x2f188 <_ZN18ChiMetadataManager30InitializeFrameworkInputClientEjb+0x128>
#3, 0x2f180 <_ZN18ChiMetadataManager30InitializeFrameworkInputClientEjb+0x120>
0x35000 <_ZN18ChiMetadataManager30InitializeFrameworkInputClientEjb+0x90>
<_ZN18ChiMetadataManager30InitializeFrameworkInputClientEjb+0xd4>
0xb000 <_ZN18ChiMetadataManager7DestroyEv+0x2c>
0xf000 <_ZN18ChiMetadataManager30InitializeFrameworkInputClientEjb+0x28>
0xf000 <_ZN18ChiMetadataManager30InitializeFrameworkInputClientEjb+0x2c>
0xe000 <_ZN18ChiMetadataManager30InitializeFrameworkInputClientEjb+0x2c>
0xb000 <_ZN18ChiMetadataManager30InitializeFrameworkInputClientEjb+0x44>
0xd000 <_ZN18ChiMetadataManager30InitializeFrameworkInputClientEjb+0x68>
0xf000 <_ZN18ChiMetadataManager30InitializeFrameworkInputClientEjb+0x78>
0xe000 <_ZN18ChiMetadataManager30InitializeFrameworkInputClientEjb+0x78>
0xf000 <_ZN18ChiMetadataManager30InitializeFrameworkInputClientEjb+0x80>
<_ZN6ChiLog9LogSystemEPKcS1_S1_S1_iS1_z@plt>
<_ZN18ChiMetadataManager30InitializeFrameworkInputClientEjb+0x430>
<_ZN15ExtensionModule11GetInstanceEv@plt>
<_ZN15ExtensionModule23GetAvailableRequestKeysEjPjjS0_@plt>
0x2f2a4 <_ZN18ChiMetadataManager30InitializeFrameworkInputClientEjb+0x244>
#0, 0x2f2cc <_ZN18ChiMetadataManager30InitializeFrameworkInputClientEjb+0x26c>
0x35000 <_ZN18ChiMetadataManager30InitializeFrameworkInputClientEjb+0x1bc>
0xb000 <_ZN18ChiMetadataManager30InitializeFrameworkInputClientEjb+0x118>
<_ZN18ChiMetadataManager30InitializeFrameworkInputClientEjb+0x204>
0xf000 <_ZN18ChiMetadataManager30InitializeFrameworkInputClientEjb+0x158>
0xf000 <_ZN18ChiMetadataManager30InitializeFrameworkInputClientEjb+0x15c>
0xe000 <_ZN18ChiMetadataManager30InitializeFrameworkInputClientEjb+0x15c>
0xf000 <_ZN18ChiMetadataManager30InitializeFrameworkInputClientEjb+0x198>
0xb000 <_ZN18ChiMetadataManager30InitializeFrameworkInputClientEjb+0x190>
0xe000 <_ZN18ChiMetadataManager30InitializeFrameworkInputClientEjb+0x1a0>
0xb000 <_ZN18ChiMetadataManager30InitializeFrameworkInputClientEjb+0x198>
<_ZN18ChiMetadataManager30InitializeFrameworkInputClientEjb+0x418>
<_ZN18ChiMetadataManager10MetaClient15AllocateBuffersEPjjjjj@plt>
0x2f2d8 <_ZN18ChiMetadataManager30InitializeFrameworkInputClientEjb+0x278>
#0, 0x2f3d4 <_ZN18ChiMetadataManager30InitializeFrameworkInputClientEjb+0x374>
0x2f488 <_ZN18ChiMetadataManager30InitializeFrameworkInputClientEjb+0x428>
<_ZN18ChiMetadataManager30InitializeFrameworkInputClientEjb+0x430>
0x2f57c <_ZN18ChiMetadataManager30InitializeFrameworkInputClientEjb+0x51c>
0x2f484 <_ZN18ChiMetadataManager30InitializeFrameworkInputClientEjb+0x424>
#0, 0x2f2cc <_ZN18ChiMetadataManager30InitializeFrameworkInputClientEjb+0x26c>
0x35000 <_ZN18ChiMetadataManager30InitializeFrameworkInputClientEjb+0x2e8>
<_ZN18ChiMetadataManager30InitializeFrameworkInputClientEjb+0x328>
0xb000 <_ZN18ChiMetadataManager30InitializeFrameworkInputClientEjb+0x254>
0xf000 <_ZN18ChiMetadataManager30InitializeFrameworkInputClientEjb+0x280>
0xb000 <_ZN18ChiMetadataManager30InitializeFrameworkInputClientEjb+0x274>
0xe000 <_ZN18ChiMetadataManager30InitializeFrameworkInputClientEjb+0x284>
0xb000 <_ZN18ChiMetadataManager30InitializeFrameworkInputClientEjb+0x298>
0xf000 <_ZN18ChiMetadataManager30InitializeFrameworkInputClientEjb+0x2c4>
0xb000 <_ZN18ChiMetadataManager30InitializeFrameworkInputClientEjb+0x2bc>
0xe000 <_ZN18ChiMetadataManager30InitializeFrameworkInputClientEjb+0x2cc>
0xf000 <_ZN18ChiMetadataManager30InitializeFrameworkInputClientEjb+0x2d4>
<_ZN6ChiLog9LogSystemEPKcS1_S1_S1_iS1_z@plt>
<_ZN18ChiMetadataManager30InitializeFrameworkInputClientEjb+0x26c>
0x35000 <_ZN18ChiMetadataManager30InitializeFrameworkInputClientEjb+0x38c>
<_ZN18ChiMetadataManager30InitializeFrameworkInputClientEjb+0x3d4>
0xb000 <_ZN18ChiMetadataManager30InitializeFrameworkInputClientEjb+0x2fc>
0xf000 <_ZN18ChiMetadataManager30InitializeFrameworkInputClientEjb+0x328>
0xc000 <_ZN18ChiMetadataManager30InitializeFrameworkInputClientEjb+0x320>
0xe000 <_ZN18ChiMetadataManager30InitializeFrameworkInputClientEjb+0x32c>
0xb000 <_ZN18ChiMetadataManager30InitializeFrameworkInputClientEjb+0x344>
0xf000 <_ZN18ChiMetadataManager30InitializeFrameworkInputClientEjb+0x370>
0xb000 <_ZN18ChiMetadataManager30InitializeFrameworkInputClientEjb+0x368>
0xe000 <_ZN18ChiMetadataManager30InitializeFrameworkInputClientEjb+0x378>
0xc000 <_ZN18ChiMetadataManager30InitializeFrameworkInputClientEjb+0x374>
<_ZN6ChiLog9LogSystemEPKcS1_S1_S1_iS1_z@plt>
0x2f490 <_ZN18ChiMetadataManager30InitializeFrameworkInputClientEjb+0x430>
#3, 0x2f540 <_ZN18ChiMetadataManager30InitializeFrameworkInputClientEjb+0x4e0>
0x35000 <_ZN18ChiMetadataManager30InitializeFrameworkInputClientEjb+0x450>
<_ZN18ChiMetadataManager30InitializeFrameworkInputClientEjb+0x494>
0xb000 <_ZN18ChiMetadataManager30InitializeFrameworkInputClientEjb+0x3bc>
0xf000 <_ZN18ChiMetadataManager30InitializeFrameworkInputClientEjb+0x3e8>
0xc000 <_ZN18ChiMetadataManager30InitializeFrameworkInputClientEjb+0x3e0>
0xe000 <_ZN18ChiMetadataManager30InitializeFrameworkInputClientEjb+0x3ec>
0xb000 <_ZN18ChiMetadataManager30InitializeFrameworkInputClientEjb+0x404>
0xd000 <_ZN18ChiMetadataManager30InitializeFrameworkInputClientEjb+0x428>
0xf000 <_ZN18ChiMetadataManager30InitializeFrameworkInputClientEjb+0x438>
0xe000 <_ZN18ChiMetadataManager30InitializeFrameworkInputClientEjb+0x438>
0xe000 <_ZN18ChiMetadataManager30InitializeFrameworkInputClientEjb+0x43c>
<_ZN6ChiLog9LogSystemEPKcS1_S1_S1_iS1_z@plt>
<_ZNSt3__15mutex6unlockEv@plt>
<_ZN18ChiMetadataManager30InitializeFrameworkInputClientEjb+0x574>
0x2f324 <_ZN18ChiMetadataManager30InitializeFrameworkInputClientEjb+0x2c4>
0x2f488 <_ZN18ChiMetadataManager30InitializeFrameworkInputClientEjb+0x428>
<_ZN18ChiMetadataManager30InitializeFrameworkInputClientEjb+0x430>

0x2f628 <_ZN18ChiMetadataManager14RegisterClientEiPjjjj16ChiMetadataUsage+0x50>
<_ZN18ChiMetadataManager23RegisterExclusiveClientEPjjj16ChiMetadataUsage@plt>
0x2f644 <_ZN18ChiMetadataManager14RegisterClientEiPjjjj16ChiMetadataUsage+0x6c>
<_ZN18ChiMetadataManager14RegisterClientEiPjjjj16ChiMetadataUsage+0x23c>
<_ZN18ChiMetadataManager20RegisterSharedClientEPjjj16ChiMetadataUsage@plt>
0x2f814 <_ZN18ChiMetadataManager14RegisterClientEiPjjjj16ChiMetadataUsage+0x23c>
0x2f714 <_ZN18ChiMetadataManager14RegisterClientEiPjjjj16ChiMetadataUsage+0x13c>
0x35000 <_ZN18ChiMetadataManager14RegisterClientEiPjjjj16ChiMetadataUsage+0x98>
#3, 0x2f814 <_ZN18ChiMetadataManager14RegisterClientEiPjjjj16ChiMetadataUsage+0x23c>
0x35000 <_ZN18ChiMetadataManager14RegisterClientEiPjjjj16ChiMetadataUsage+0xa8>
0xb000 <_ZN18ChiMetadataManager14RegisterClientEiPjjjj16ChiMetadataUsage+0x4>
<_ZN18ChiMetadataManager14RegisterClientEiPjjjj16ChiMetadataUsage+0xf0>
0xf000 <_ZN18ChiMetadataManager14RegisterClientEiPjjjj16ChiMetadataUsage+0x40>
0xf000 <_ZN18ChiMetadataManager14RegisterClientEiPjjjj16ChiMetadataUsage+0x44>
0xa000 <_ZN18ChiMetadataManager14RegisterClientEiPjjjj16ChiMetadataUsage+0x34>
0xd000 <_ZN18ChiMetadataManager14RegisterClientEiPjjjj16ChiMetadataUsage+0x7c>
0xf000 <_ZN18ChiMetadataManager14RegisterClientEiPjjjj16ChiMetadataUsage+0x8c>
0xa000 <_ZN18ChiMetadataManager14RegisterClientEiPjjjj16ChiMetadataUsage+0x7c>
0xa000 <_ZN18ChiMetadataManager14RegisterClientEiPjjjj16ChiMetadataUsage+0x80>
<_ZN6ChiLog9LogSystemEPKcS1_S1_S1_iS1_z@plt>
<_ZN18ChiMetadataManager14RegisterClientEiPjjjj16ChiMetadataUsage+0x23c>
0x2f744 <_ZN18ChiMetadataManager14RegisterClientEiPjjjj16ChiMetadataUsage+0x16c>
0x2f744 <_ZN18ChiMetadataManager14RegisterClientEiPjjjj16ChiMetadataUsage+0x16c>
0x35000 <_ZN18ChiMetadataManager14RegisterClientEiPjjjj16ChiMetadataUsage+0x184>
#3, 0x2f814 <_ZN18ChiMetadataManager14RegisterClientEiPjjjj16ChiMetadataUsage+0x23c>
0x35000 <_ZN18ChiMetadataManager14RegisterClientEiPjjjj16ChiMetadataUsage+0x194>
<_ZN18ChiMetadataManager14RegisterClientEiPjjjj16ChiMetadataUsage+0x1e4>
0xb000 <_ZN18ChiMetadataManager14RegisterClientEiPjjjj16ChiMetadataUsage+0x100>
0xf000 <_ZN18ChiMetadataManager14RegisterClientEiPjjjj16ChiMetadataUsage+0x12c>
0xb000 <_ZN18ChiMetadataManager14RegisterClientEiPjjjj16ChiMetadataUsage+0x120>
0xa000 <_ZN18ChiMetadataManager14RegisterClientEiPjjjj16ChiMetadataUsage+0x120>
0xb000 <_ZN18ChiMetadataManager14RegisterClientEiPjjjj16ChiMetadataUsage+0x154>
0xd000 <_ZN18ChiMetadataManager14RegisterClientEiPjjjj16ChiMetadataUsage+0x178>
0xf000 <_ZN18ChiMetadataManager14RegisterClientEiPjjjj16ChiMetadataUsage+0x188>
0xa000 <_ZN18ChiMetadataManager14RegisterClientEiPjjjj16ChiMetadataUsage+0x178>
0xc000 <_ZN18ChiMetadataManager14RegisterClientEiPjjjj16ChiMetadataUsage+0x184>
<_ZN6ChiLog9LogSystemEPKcS1_S1_S1_iS1_z@plt>

<_ZNSt3__15mutex4lockEv@plt>
0x2f9b8 <_ZN18ChiMetadataManager23RegisterExclusiveClientEPjjj16ChiMetadataUsage+0x180>
0x2f9c0 <_ZN18ChiMetadataManager23RegisterExclusiveClientEPjjj16ChiMetadataUsage+0x188>
0x2f9cc <_ZN18ChiMetadataManager23RegisterExclusiveClientEPjjj16ChiMetadataUsage+0x194>
0x2f9d8 <_ZN18ChiMetadataManager23RegisterExclusiveClientEPjjj16ChiMetadataUsage+0x1a0>
0x2f9e4 <_ZN18ChiMetadataManager23RegisterExclusiveClientEPjjj16ChiMetadataUsage+0x1ac>
0x2f9f0 <_ZN18ChiMetadataManager23RegisterExclusiveClientEPjjj16ChiMetadataUsage+0x1b8>
0x2f9fc <_ZN18ChiMetadataManager23RegisterExclusiveClientEPjjj16ChiMetadataUsage+0x1c4>
0x2fa08 <_ZN18ChiMetadataManager23RegisterExclusiveClientEPjjj16ChiMetadataUsage+0x1d0>
0x2fa14 <_ZN18ChiMetadataManager23RegisterExclusiveClientEPjjj16ChiMetadataUsage+0x1dc>
0x2fa20 <_ZN18ChiMetadataManager23RegisterExclusiveClientEPjjj16ChiMetadataUsage+0x1e8>
0x2fa2c <_ZN18ChiMetadataManager23RegisterExclusiveClientEPjjj16ChiMetadataUsage+0x1f4>
0x2fa38 <_ZN18ChiMetadataManager23RegisterExclusiveClientEPjjj16ChiMetadataUsage+0x200>
0x2fa44 <_ZN18ChiMetadataManager23RegisterExclusiveClientEPjjj16ChiMetadataUsage+0x20c>
0x2fa50 <_ZN18ChiMetadataManager23RegisterExclusiveClientEPjjj16ChiMetadataUsage+0x218>
0x2fa5c <_ZN18ChiMetadataManager23RegisterExclusiveClientEPjjj16ChiMetadataUsage+0x224>
0x2fa68 <_ZN18ChiMetadataManager23RegisterExclusiveClientEPjjj16ChiMetadataUsage+0x230>
0x2fa74 <_ZN18ChiMetadataManager23RegisterExclusiveClientEPjjj16ChiMetadataUsage+0x23c>
<_ZN18ChiMetadataManager23RegisterExclusiveClientEPjjj16ChiMetadataUsage+0x94>
<_ZN18ChiMetadataManager23RegisterExclusiveClientEPjjj16ChiMetadataUsage+0x2a0>
<_ZN18ChiMetadataManager23RegisterExclusiveClientEPjjj16ChiMetadataUsage+0x244>
<_ZN18ChiMetadataManager23RegisterExclusiveClientEPjjj16ChiMetadataUsage+0x244>
<_ZN18ChiMetadataManager23RegisterExclusiveClientEPjjj16ChiMetadataUsage+0x244>
<_ZN18ChiMetadataManager23RegisterExclusiveClientEPjjj16ChiMetadataUsage+0x244>
<_ZN18ChiMetadataManager23RegisterExclusiveClientEPjjj16ChiMetadataUsage+0x244>
<_ZN18ChiMetadataManager23RegisterExclusiveClientEPjjj16ChiMetadataUsage+0x244>
<_ZN18ChiMetadataManager23RegisterExclusiveClientEPjjj16ChiMetadataUsage+0x244>
<_ZN18ChiMetadataManager23RegisterExclusiveClientEPjjj16ChiMetadataUsage+0x244>
<_ZN18ChiMetadataManager23RegisterExclusiveClientEPjjj16ChiMetadataUsage+0x244>
<_ZN18ChiMetadataManager23RegisterExclusiveClientEPjjj16ChiMetadataUsage+0x244>
<_ZN18ChiMetadataManager23RegisterExclusiveClientEPjjj16ChiMetadataUsage+0x244>
<_ZN18ChiMetadataManager23RegisterExclusiveClientEPjjj16ChiMetadataUsage+0x244>
<_ZN18ChiMetadataManager23RegisterExclusiveClientEPjjj16ChiMetadataUsage+0x244>
<_ZN18ChiMetadataManager23RegisterExclusiveClientEPjjj16ChiMetadataUsage+0x244>
<_ZN18ChiMetadataManager23RegisterExclusiveClientEPjjj16ChiMetadataUsage+0x244>
<_ZN18ChiMetadataManager23RegisterExclusiveClientEPjjj16ChiMetadataUsage+0x244>
<_ZN18ChiMetadataManager23RegisterExclusiveClientEPjjj16ChiMetadataUsage+0x278>
<_ZN18ChiMetadataManager10MetaClientC2Ev+0xd0>
<_ZN18ChiMetadataManager10MetaClient15AllocateBuffersEPjjjjj@plt>
0x2fb90 <_ZN18ChiMetadataManager23RegisterExclusiveClientEPjjj16ChiMetadataUsage+0x358>
0x35000 <_ZN18ChiMetadataManager23RegisterExclusiveClientEPjjj16ChiMetadataUsage+0x2b8>
#0, 0x2fb88 <_ZN18ChiMetadataManager23RegisterExclusiveClientEPjjj16ChiMetadataUsage+0x350>
0x35000 <_ZN18ChiMetadataManager23RegisterExclusiveClientEPjjj16ChiMetadataUsage+0x2c8>
0xb000 <_ZN18ChiMetadataManager23RegisterExclusiveClientEPjjj16ChiMetadataUsage+0x224>
<_ZN18ChiMetadataManager23RegisterExclusiveClientEPjjj16ChiMetadataUsage+0x30c>
0xf000 <_ZN18ChiMetadataManager23RegisterExclusiveClientEPjjj16ChiMetadataUsage+0x260>
0xb000 <_ZN18ChiMetadataManager23RegisterExclusiveClientEPjjj16ChiMetadataUsage+0x254>
0xc000 <_ZN18ChiMetadataManager23RegisterExclusiveClientEPjjj16ChiMetadataUsage+0x25c>
0xf000 <_ZN18ChiMetadataManager23RegisterExclusiveClientEPjjj16ChiMetadataUsage+0x2a0>
0xb000 <_ZN18ChiMetadataManager23RegisterExclusiveClientEPjjj16ChiMetadataUsage+0x298>
0xc000 <_ZN18ChiMetadataManager23RegisterExclusiveClientEPjjj16ChiMetadataUsage+0x2a0>
0xd000 <_ZN18ChiMetadataManager23RegisterExclusiveClientEPjjj16ChiMetadataUsage+0x2a8>
<_ZN6ChiLog9LogSystemEPKcS1_S1_S1_iS1_z@plt>
<_ZN18ChiMetadataManager23RegisterExclusiveClientEPjjj16ChiMetadataUsage+0x434>
0x35000 <_ZN18ChiMetadataManager23RegisterExclusiveClientEPjjj16ChiMetadataUsage+0x374>
#3, 0x2fc6c <_ZN18ChiMetadataManager23RegisterExclusiveClientEPjjj16ChiMetadataUsage+0x434>
0x35000 <_ZN18ChiMetadataManager23RegisterExclusiveClientEPjjj16ChiMetadataUsage+0x38c>
<_ZN18ChiMetadataManager23RegisterExclusiveClientEPjjj16ChiMetadataUsage+0x3dc>
0xb000 <_ZN18ChiMetadataManager23RegisterExclusiveClientEPjjj16ChiMetadataUsage+0x2f8>
0xf000 <_ZN18ChiMetadataManager23RegisterExclusiveClientEPjjj16ChiMetadataUsage+0x324>
0xc000 <_ZN18ChiMetadataManager23RegisterExclusiveClientEPjjj16ChiMetadataUsage+0x31c>
0xc000 <_ZN18ChiMetadataManager23RegisterExclusiveClientEPjjj16ChiMetadataUsage+0x320>
0xb000 <_ZN18ChiMetadataManager23RegisterExclusiveClientEPjjj16ChiMetadataUsage+0x34c>
0xd000 <_ZN18ChiMetadataManager23RegisterExclusiveClientEPjjj16ChiMetadataUsage+0x370>
0xf000 <_ZN18ChiMetadataManager23RegisterExclusiveClientEPjjj16ChiMetadataUsage+0x380>
0xc000 <_ZN18ChiMetadataManager23RegisterExclusiveClientEPjjj16ChiMetadataUsage+0x378>
0xf000 <_ZN18ChiMetadataManager23RegisterExclusiveClientEPjjj16ChiMetadataUsage+0x388>
<_ZN6ChiLog9LogSystemEPKcS1_S1_S1_iS1_z@plt>
<_ZNSt3__15mutex6unlockEv@plt>

<_ZNSt3__15mutex4lockEv@plt>
0x2fd74 <_ZN18ChiMetadataManager20RegisterSharedClientEPjjj16ChiMetadataUsage+0xdc>
0x2ffa0 <_ZN18ChiMetadataManager20RegisterSharedClientEPjjj16ChiMetadataUsage+0x308>
0x2fd84 <_ZN18ChiMetadataManager20RegisterSharedClientEPjjj16ChiMetadataUsage+0xec>
0x2ffa8 <_ZN18ChiMetadataManager20RegisterSharedClientEPjjj16ChiMetadataUsage+0x310>
0x2fd98 <_ZN18ChiMetadataManager20RegisterSharedClientEPjjj16ChiMetadataUsage+0x100>
0x2ffb0 <_ZN18ChiMetadataManager20RegisterSharedClientEPjjj16ChiMetadataUsage+0x318>
0x2fdac <_ZN18ChiMetadataManager20RegisterSharedClientEPjjj16ChiMetadataUsage+0x114>
0x2ffb8 <_ZN18ChiMetadataManager20RegisterSharedClientEPjjj16ChiMetadataUsage+0x320>
0x2fdbc <_ZN18ChiMetadataManager20RegisterSharedClientEPjjj16ChiMetadataUsage+0x124>
0x2ffc4 <_ZN18ChiMetadataManager20RegisterSharedClientEPjjj16ChiMetadataUsage+0x32c>
0x2fdcc <_ZN18ChiMetadataManager20RegisterSharedClientEPjjj16ChiMetadataUsage+0x134>
0x2ffd0 <_ZN18ChiMetadataManager20RegisterSharedClientEPjjj16ChiMetadataUsage+0x338>
0x2fde8 <_ZN18ChiMetadataManager20RegisterSharedClientEPjjj16ChiMetadataUsage+0x150>
0x2ffdc <_ZN18ChiMetadataManager20RegisterSharedClientEPjjj16ChiMetadataUsage+0x344>
0x2fe00 <_ZN18ChiMetadataManager20RegisterSharedClientEPjjj16ChiMetadataUsage+0x168>
0x2ffe8 <_ZN18ChiMetadataManager20RegisterSharedClientEPjjj16ChiMetadataUsage+0x350>
0x2fe18 <_ZN18ChiMetadataManager20RegisterSharedClientEPjjj16ChiMetadataUsage+0x180>
0x2fff4 <_ZN18ChiMetadataManager20RegisterSharedClientEPjjj16ChiMetadataUsage+0x35c>
0x2fe28 <_ZN18ChiMetadataManager20RegisterSharedClientEPjjj16ChiMetadataUsage+0x190>
0x30000 <_ZN18ChiMetadataManager20RegisterSharedClientEPjjj16ChiMetadataUsage+0x368>
0x2fe38 <_ZN18ChiMetadataManager20RegisterSharedClientEPjjj16ChiMetadataUsage+0x1a0>
0x3000c <_ZN18ChiMetadataManager20RegisterSharedClientEPjjj16ChiMetadataUsage+0x374>
0x2fe48 <_ZN18ChiMetadataManager20RegisterSharedClientEPjjj16ChiMetadataUsage+0x1b0>
0x30018 <_ZN18ChiMetadataManager20RegisterSharedClientEPjjj16ChiMetadataUsage+0x380>
0x2fe58 <_ZN18ChiMetadataManager20RegisterSharedClientEPjjj16ChiMetadataUsage+0x1c0>
0x30024 <_ZN18ChiMetadataManager20RegisterSharedClientEPjjj16ChiMetadataUsage+0x38c>
0x2fe68 <_ZN18ChiMetadataManager20RegisterSharedClientEPjjj16ChiMetadataUsage+0x1d0>
0x30030 <_ZN18ChiMetadataManager20RegisterSharedClientEPjjj16ChiMetadataUsage+0x398>
0x2fe78 <_ZN18ChiMetadataManager20RegisterSharedClientEPjjj16ChiMetadataUsage+0x1e0>
0x3003c <_ZN18ChiMetadataManager20RegisterSharedClientEPjjj16ChiMetadataUsage+0x3a4>
0x2fe88 <_ZN18ChiMetadataManager20RegisterSharedClientEPjjj16ChiMetadataUsage+0x1f0>
0x30048 <_ZN18ChiMetadataManager20RegisterSharedClientEPjjj16ChiMetadataUsage+0x3b0>
0x2fe9c <_ZN18ChiMetadataManager20RegisterSharedClientEPjjj16ChiMetadataUsage+0x204>
0x30054 <_ZN18ChiMetadataManager20RegisterSharedClientEPjjj16ChiMetadataUsage+0x3bc>
<_ZN18ChiMetadataManager20RegisterSharedClientEPjjj16ChiMetadataUsage+0xc8>
0x307e4 <_ZN18ChiMetadataManager20RegisterSharedClientEPjjj16ChiMetadataUsage+0xb4c>
0x307ec <_ZN18ChiMetadataManager20RegisterSharedClientEPjjj16ChiMetadataUsage+0xb54>
0x307f4 <_ZN18ChiMetadataManager20RegisterSharedClientEPjjj16ChiMetadataUsage+0xb5c>
0x307fc <_ZN18ChiMetadataManager20RegisterSharedClientEPjjj16ChiMetadataUsage+0xb64>
0x30808 <_ZN18ChiMetadataManager20RegisterSharedClientEPjjj16ChiMetadataUsage+0xb70>
0x30814 <_ZN18ChiMetadataManager20RegisterSharedClientEPjjj16ChiMetadataUsage+0xb7c>
0x30820 <_ZN18ChiMetadataManager20RegisterSharedClientEPjjj16ChiMetadataUsage+0xb88>
0x3082c <_ZN18ChiMetadataManager20RegisterSharedClientEPjjj16ChiMetadataUsage+0xb94>
0x30838 <_ZN18ChiMetadataManager20RegisterSharedClientEPjjj16ChiMetadataUsage+0xba0>
0x30844 <_ZN18ChiMetadataManager20RegisterSharedClientEPjjj16ChiMetadataUsage+0xbac>
0x30850 <_ZN18ChiMetadataManager20RegisterSharedClientEPjjj16ChiMetadataUsage+0xbb8>
0x3085c <_ZN18ChiMetadataManager20RegisterSharedClientEPjjj16ChiMetadataUsage+0xbc4>
0x30868 <_ZN18ChiMetadataManager20RegisterSharedClientEPjjj16ChiMetadataUsage+0xbd0>
0x30874 <_ZN18ChiMetadataManager20RegisterSharedClientEPjjj16ChiMetadataUsage+0xbdc>
0x30880 <_ZN18ChiMetadataManager20RegisterSharedClientEPjjj16ChiMetadataUsage+0xbe8>
0x3088c <_ZN18ChiMetadataManager20RegisterSharedClientEPjjj16ChiMetadataUsage+0xbf4>
0x30898 <_ZN18ChiMetadataManager20RegisterSharedClientEPjjj16ChiMetadataUsage+0xc00>
<_ZN18ChiMetadataManager20RegisterSharedClientEPjjj16ChiMetadataUsage+0x250>
<_ZN18ChiMetadataManager20RegisterSharedClientEPjjj16ChiMetadataUsage+0x93c>
<_ZN18ChiMetadataManager20RegisterSharedClientEPjjj16ChiMetadataUsage+0x3c4>
<_ZN18ChiMetadataManager20RegisterSharedClientEPjjj16ChiMetadataUsage+0x3c4>
<_ZN18ChiMetadataManager20RegisterSharedClientEPjjj16ChiMetadataUsage+0x3c4>
<_ZN18ChiMetadataManager20RegisterSharedClientEPjjj16ChiMetadataUsage+0x3c4>
<_ZN18ChiMetadataManager20RegisterSharedClientEPjjj16ChiMetadataUsage+0x3c4>
<_ZN18ChiMetadataManager20RegisterSharedClientEPjjj16ChiMetadataUsage+0x3c4>
<_ZN18ChiMetadataManager20RegisterSharedClientEPjjj16ChiMetadataUsage+0x3c4>
<_ZN18ChiMetadataManager20RegisterSharedClientEPjjj16ChiMetadataUsage+0x3c4>
<_ZN18ChiMetadataManager20RegisterSharedClientEPjjj16ChiMetadataUsage+0x3c4>
<_ZN18ChiMetadataManager20RegisterSharedClientEPjjj16ChiMetadataUsage+0x3c4>
<_ZN18ChiMetadataManager20RegisterSharedClientEPjjj16ChiMetadataUsage+0x3c4>
<_ZN18ChiMetadataManager20RegisterSharedClientEPjjj16ChiMetadataUsage+0x3c4>
<_ZN18ChiMetadataManager20RegisterSharedClientEPjjj16ChiMetadataUsage+0x3c4>
<_ZN18ChiMetadataManager20RegisterSharedClientEPjjj16ChiMetadataUsage+0x3c4>
<_ZN18ChiMetadataManager20RegisterSharedClientEPjjj16ChiMetadataUsage+0x3c4>
<_ZN18ChiMetadataManager20RegisterSharedClientEPjjj16ChiMetadataUsage+0x3c4>
0x30198 <_ZN18ChiMetadataManager20RegisterSharedClientEPjjj16ChiMetadataUsage+0x500>
0x301a0 <_ZN18ChiMetadataManager20RegisterSharedClientEPjjj16ChiMetadataUsage+0x508>
0x301a8 <_ZN18ChiMetadataManager20RegisterSharedClientEPjjj16ChiMetadataUsage+0x510>
0x301b0 <_ZN18ChiMetadataManager20RegisterSharedClientEPjjj16ChiMetadataUsage+0x518>
0x301b8 <_ZN18ChiMetadataManager20RegisterSharedClientEPjjj16ChiMetadataUsage+0x520>
0x301c0 <_ZN18ChiMetadataManager20RegisterSharedClientEPjjj16ChiMetadataUsage+0x528>
0x301c8 <_ZN18ChiMetadataManager20RegisterSharedClientEPjjj16ChiMetadataUsage+0x530>
0x301d0 <_ZN18ChiMetadataManager20RegisterSharedClientEPjjj16ChiMetadataUsage+0x538>
0x301d8 <_ZN18ChiMetadataManager20RegisterSharedClientEPjjj16ChiMetadataUsage+0x540>
0x301e0 <_ZN18ChiMetadataManager20RegisterSharedClientEPjjj16ChiMetadataUsage+0x548>
0x301e8 <_ZN18ChiMetadataManager20RegisterSharedClientEPjjj16ChiMetadataUsage+0x550>
0x301f0 <_ZN18ChiMetadataManager20RegisterSharedClientEPjjj16ChiMetadataUsage+0x558>
0x301f8 <_ZN18ChiMetadataManager20RegisterSharedClientEPjjj16ChiMetadataUsage+0x560>
0x30200 <_ZN18ChiMetadataManager20RegisterSharedClientEPjjj16ChiMetadataUsage+0x568>
0x30208 <_ZN18ChiMetadataManager20RegisterSharedClientEPjjj16ChiMetadataUsage+0x570>
0x30210 <_ZN18ChiMetadataManager20RegisterSharedClientEPjjj16ChiMetadataUsage+0x578>
0x30218 <_ZN18ChiMetadataManager20RegisterSharedClientEPjjj16ChiMetadataUsage+0x580>
0x30220 <_ZN18ChiMetadataManager20RegisterSharedClientEPjjj16ChiMetadataUsage+0x588>
0x30228 <_ZN18ChiMetadataManager20RegisterSharedClientEPjjj16ChiMetadataUsage+0x590>
0x30230 <_ZN18ChiMetadataManager20RegisterSharedClientEPjjj16ChiMetadataUsage+0x598>
0x30238 <_ZN18ChiMetadataManager20RegisterSharedClientEPjjj16ChiMetadataUsage+0x5a0>
0x30240 <_ZN18ChiMetadataManager20RegisterSharedClientEPjjj16ChiMetadataUsage+0x5a8>
0x30248 <_ZN18ChiMetadataManager20RegisterSharedClientEPjjj16ChiMetadataUsage+0x5b0>
0x30250 <_ZN18ChiMetadataManager20RegisterSharedClientEPjjj16ChiMetadataUsage+0x5b8>
0x30258 <_ZN18ChiMetadataManager20RegisterSharedClientEPjjj16ChiMetadataUsage+0x5c0>
0x30260 <_ZN18ChiMetadataManager20RegisterSharedClientEPjjj16ChiMetadataUsage+0x5c8>
0x30268 <_ZN18ChiMetadataManager20RegisterSharedClientEPjjj16ChiMetadataUsage+0x5d0>
0x30270 <_ZN18ChiMetadataManager20RegisterSharedClientEPjjj16ChiMetadataUsage+0x5d8>
0x30278 <_ZN18ChiMetadataManager20RegisterSharedClientEPjjj16ChiMetadataUsage+0x5e0>
0x30280 <_ZN18ChiMetadataManager20RegisterSharedClientEPjjj16ChiMetadataUsage+0x5e8>
0x30288 <_ZN18ChiMetadataManager20RegisterSharedClientEPjjj16ChiMetadataUsage+0x5f0>
0x30290 <_ZN18ChiMetadataManager20RegisterSharedClientEPjjj16ChiMetadataUsage+0x5f8>
<_ZN18ChiMetadataManager20RegisterSharedClientEPjjj16ChiMetadataUsage+0x3e8>
<_ZN18ChiMetadataManager20RegisterSharedClientEPjjj16ChiMetadataUsage+0x93c>
<_ZN18ChiMetadataManager20RegisterSharedClientEPjjj16ChiMetadataUsage+0x5fc>
<_ZN18ChiMetadataManager20RegisterSharedClientEPjjj16ChiMetadataUsage+0x5fc>
<_ZN18ChiMetadataManager20RegisterSharedClientEPjjj16ChiMetadataUsage+0x5fc>
<_ZN18ChiMetadataManager20RegisterSharedClientEPjjj16ChiMetadataUsage+0x5fc>
<_ZN18ChiMetadataManager20RegisterSharedClientEPjjj16ChiMetadataUsage+0x5fc>
<_ZN18ChiMetadataManager20RegisterSharedClientEPjjj16ChiMetadataUsage+0x5fc>
<_ZN18ChiMetadataManager20RegisterSharedClientEPjjj16ChiMetadataUsage+0x5fc>
<_ZN18ChiMetadataManager20RegisterSharedClientEPjjj16ChiMetadataUsage+0x5fc>
<_ZN18ChiMetadataManager20RegisterSharedClientEPjjj16ChiMetadataUsage+0x5fc>
<_ZN18ChiMetadataManager20RegisterSharedClientEPjjj16ChiMetadataUsage+0x5fc>
<_ZN18ChiMetadataManager20RegisterSharedClientEPjjj16ChiMetadataUsage+0x5fc>
<_ZN18ChiMetadataManager20RegisterSharedClientEPjjj16ChiMetadataUsage+0x5fc>
<_ZN18ChiMetadataManager20RegisterSharedClientEPjjj16ChiMetadataUsage+0x5fc>
<_ZN18ChiMetadataManager20RegisterSharedClientEPjjj16ChiMetadataUsage+0x5fc>
<_ZN18ChiMetadataManager20RegisterSharedClientEPjjj16ChiMetadataUsage+0x5fc>
<_ZN18ChiMetadataManager20RegisterSharedClientEPjjj16ChiMetadataUsage+0x5fc>
<_ZN18ChiMetadataManager20RegisterSharedClientEPjjj16ChiMetadataUsage+0x5fc>
<_ZN18ChiMetadataManager20RegisterSharedClientEPjjj16ChiMetadataUsage+0x5fc>
<_ZN18ChiMetadataManager20RegisterSharedClientEPjjj16ChiMetadataUsage+0x5fc>
<_ZN18ChiMetadataManager20RegisterSharedClientEPjjj16ChiMetadataUsage+0x5fc>
<_ZN18ChiMetadataManager20RegisterSharedClientEPjjj16ChiMetadataUsage+0x5fc>
<_ZN18ChiMetadataManager20RegisterSharedClientEPjjj16ChiMetadataUsage+0x5fc>
<_ZN18ChiMetadataManager20RegisterSharedClientEPjjj16ChiMetadataUsage+0x5fc>
<_ZN18ChiMetadataManager20RegisterSharedClientEPjjj16ChiMetadataUsage+0x5fc>
<_ZN18ChiMetadataManager20RegisterSharedClientEPjjj16ChiMetadataUsage+0x5fc>
<_ZN18ChiMetadataManager20RegisterSharedClientEPjjj16ChiMetadataUsage+0x5fc>
<_ZN18ChiMetadataManager20RegisterSharedClientEPjjj16ChiMetadataUsage+0x5fc>
<_ZN18ChiMetadataManager20RegisterSharedClientEPjjj16ChiMetadataUsage+0x5fc>
<_ZN18ChiMetadataManager20RegisterSharedClientEPjjj16ChiMetadataUsage+0x5fc>
<_ZN18ChiMetadataManager20RegisterSharedClientEPjjj16ChiMetadataUsage+0x5fc>
<_ZN18ChiMetadataManager20RegisterSharedClientEPjjj16ChiMetadataUsage+0x5fc>
<_ZN18ChiMetadataManager20RegisterSharedClientEPjjj16ChiMetadataUsage+0x93c>
<_ZN18ChiMetadataManager20RegisterSharedClientEPjjj16ChiMetadataUsage+0x67c>
0x30354 <_ZN18ChiMetadataManager20RegisterSharedClientEPjjj16ChiMetadataUsage+0x6bc>
<_ZN18ChiMetadataManager20RegisterSharedClientEPjjj16ChiMetadataUsage+0xc44>
<_ZN18ChiMetadataManager20RegisterSharedClientEPjjj16ChiMetadataUsage+0xc44>
<_ZN18ChiMetadataManager20RegisterSharedClientEPjjj16ChiMetadataUsage+0x8f4>
0x3034c <_ZN18ChiMetadataManager20RegisterSharedClientEPjjj16ChiMetadataUsage+0x6b4>
<_ZN18ChiMetadataManager20RegisterSharedClientEPjjj16ChiMetadataUsage+0x6f0>
<_ZN18ChiMetadataManager20RegisterSharedClientEPjjj16ChiMetadataUsage+0x704>
<_ZN18ChiMetadataManager20RegisterSharedClientEPjjj16ChiMetadataUsage+0x780>
0x302f0 <_ZN18ChiMetadataManager20RegisterSharedClientEPjjj16ChiMetadataUsage+0x658>
<_ZN18ChiMetadataManager20RegisterSharedClientEPjjj16ChiMetadataUsage+0x88c>
<_ZN18ChiMetadataManager20RegisterSharedClientEPjjj16ChiMetadataUsage+0x89c>
<_ZN18ChiMetadataManager20RegisterSharedClientEPjjj16ChiMetadataUsage+0x704>
0x30418 <_ZN18ChiMetadataManager20RegisterSharedClientEPjjj16ChiMetadataUsage+0x780>
<_ZN18ChiMetadataManager20RegisterSharedClientEPjjj16ChiMetadataUsage+0x758>
0x30418 <_ZN18ChiMetadataManager20RegisterSharedClientEPjjj16ChiMetadataUsage+0x780>
<_ZN18ChiMetadataManager20RegisterSharedClientEPjjj16ChiMetadataUsage+0x780>
<_ZN18ChiMetadataManager20RegisterSharedClientEPjjj16ChiMetadataUsage+0x718>
<_ZN18ChiMetadataManager20RegisterSharedClientEPjjj16ChiMetadataUsage+0x668>
<_ZN18ChiMetadataManager20RegisterSharedClientEPjjj16ChiMetadataUsage+0x780>
<_ZN18ChiMetadataManager20RegisterSharedClientEPjjj16ChiMetadataUsage+0x668>
0x30418 <_ZN18ChiMetadataManager20RegisterSharedClientEPjjj16ChiMetadataUsage+0x780>
<_ZN18ChiMetadataManager20RegisterSharedClientEPjjj16ChiMetadataUsage+0x74c>
<_ZN18ChiMetadataManager20RegisterSharedClientEPjjj16ChiMetadataUsage+0x744>
<_ZN18ChiMetadataManager20RegisterSharedClientEPjjj16ChiMetadataUsage+0x744>
<_ZN18ChiMetadataManager20RegisterSharedClientEPjjj16ChiMetadataUsage+0xc44>
0x30458 <_ZN18ChiMetadataManager20RegisterSharedClientEPjjj16ChiMetadataUsage+0x7c0>
<_ZN18ChiMetadataManager20RegisterSharedClientEPjjj16ChiMetadataUsage+0x640>
<_ZN18ChiMetadataManager20RegisterSharedClientEPjjj16ChiMetadataUsage+0xc48>
<_ZN18ChiMetadataManager20RegisterSharedClientEPjjj16ChiMetadataUsage+0x804>
<_ZN18ChiMetadataManager20RegisterSharedClientEPjjj16ChiMetadataUsage+0x818>
<_ZN18ChiMetadataManager20RegisterSharedClientEPjjj16ChiMetadataUsage+0x818>
<_ZNSt3__112__next_primeEm@plt>
<_ZN18ChiMetadataManager20RegisterSharedClientEPjjj16ChiMetadataUsage+0x834>
<_ZN18ChiMetadataManager20RegisterSharedClientEPjjj16ChiMetadataUsage+0xe18>
<_ZN18ChiMetadataManager20RegisterSharedClientEPjjj16ChiMetadataUsage+0x8c4>
<_ZN18ChiMetadataManager20RegisterSharedClientEPjjj16ChiMetadataUsage+0x8c4>
<_ZN18ChiMetadataManager20RegisterSharedClientEPjjj16ChiMetadataUsage+0x8a8>
<_ZN18ChiMetadataManager20RegisterSharedClientEPjjj16ChiMetadataUsage+0x8a8>
<_ZN18ChiMetadataManager20RegisterSharedClientEPjjj16ChiMetadataUsage+0x8ac>
<_ZN18ChiMetadataManager20RegisterSharedClientEPjjj16ChiMetadataUsage+0x8ac>
<_ZN18ChiMetadataManager20RegisterSharedClientEPjjj16ChiMetadataUsage+0x89c>
<_ZN18ChiMetadataManager20RegisterSharedClientEPjjj16ChiMetadataUsage+0x658>
<_ZNSt3__112__next_primeEm@plt>
<_ZN18ChiMetadataManager20RegisterSharedClientEPjjj16ChiMetadataUsage+0x8c4>
<_ZN18ChiMetadataManager20RegisterSharedClientEPjjj16ChiMetadataUsage+0x82c>
<_ZN18ChiMetadataManager20RegisterSharedClientEPjjj16ChiMetadataUsage+0xc4c>
<_ZN18ChiMetadataManager20RegisterSharedClientEPjjj16ChiMetadataUsage+0x63c>
<_ZN18ChiMetadataManager20RegisterSharedClientEPjjj16ChiMetadataUsage+0x8e8>
<_ZN18ChiMetadataManager20RegisterSharedClientEPjjj16ChiMetadataUsage+0x640>
<_ZN18ChiMetadataManager20RegisterSharedClientEPjjj16ChiMetadataUsage+0x640>
<_ZN18ChiMetadataManager20RegisterSharedClientEPjjj16ChiMetadataUsage+0xc78>
<_ZN18ChiMetadataManager10MetaClient15AllocateBuffersEPjjjjj@plt>
0x306ec <_ZN18ChiMetadataManager20RegisterSharedClientEPjjj16ChiMetadataUsage+0xa54>
0x35000 <_ZN18ChiMetadataManager20RegisterSharedClientEPjjj16ChiMetadataUsage+0x950>
#0, 0x30688 <_ZN18ChiMetadataManager20RegisterSharedClientEPjjj16ChiMetadataUsage+0x9f0>
0x35000 <_ZN18ChiMetadataManager20RegisterSharedClientEPjjj16ChiMetadataUsage+0x964>
0xb000 <_ZN18ChiMetadataManager20RegisterSharedClientEPjjj16ChiMetadataUsage+0x8c0>
<_ZN18ChiMetadataManager20RegisterSharedClientEPjjj16ChiMetadataUsage+0x9ac>
0xf000 <_ZN18ChiMetadataManager20RegisterSharedClientEPjjj16ChiMetadataUsage+0x8fc>
0xb000 <_ZN18ChiMetadataManager20RegisterSharedClientEPjjj16ChiMetadataUsage+0x8f0>
0xf000 <_ZN18ChiMetadataManager20RegisterSharedClientEPjjj16ChiMetadataUsage+0x904>
0xf000 <_ZN18ChiMetadataManager20RegisterSharedClientEPjjj16ChiMetadataUsage+0x93c>
0xb000 <_ZN18ChiMetadataManager20RegisterSharedClientEPjjj16ChiMetadataUsage+0x934>
0xf000 <_ZN18ChiMetadataManager20RegisterSharedClientEPjjj16ChiMetadataUsage+0x948>
0xd000 <_ZN18ChiMetadataManager20RegisterSharedClientEPjjj16ChiMetadataUsage+0x944>
<_ZN6ChiLog9LogSystemEPKcS1_S1_S1_iS1_z@plt>
<_ZNSt3__15mutex6unlockEv@plt>
0x306b8 <_ZN18ChiMetadataManager20RegisterSharedClientEPjjj16ChiMetadataUsage+0xa20>
0x308e0 <_ZN18ChiMetadataManager20RegisterSharedClientEPjjj16ChiMetadataUsage+0xc48>
<_ZN18ChiMetadataManager20RegisterSharedClientEPjjj16ChiMetadataUsage+0xc50>
<_ZN18ChiMetadataManager20RegisterSharedClientEPjjj16ChiMetadataUsage+0xc54>
0x35000 <_ZN18ChiMetadataManager20RegisterSharedClientEPjjj16ChiMetadataUsage+0xa80>
<_ZN18ChiMetadataManager20RegisterSharedClientEPjjj16ChiMetadataUsage+0x94c>
#3, 0x3068c <_ZN18ChiMetadataManager20RegisterSharedClientEPjjj16ChiMetadataUsage+0x9f4>
0x35000 <_ZN18ChiMetadataManager20RegisterSharedClientEPjjj16ChiMetadataUsage+0xaa4>
<_ZN18ChiMetadataManager20RegisterSharedClientEPjjj16ChiMetadataUsage+0xaf4>
0xb000 <_ZN18ChiMetadataManager20RegisterSharedClientEPjjj16ChiMetadataUsage+0xa10>
0xf000 <_ZN18ChiMetadataManager20RegisterSharedClientEPjjj16ChiMetadataUsage+0xa3c>
0xb000 <_ZN18ChiMetadataManager20RegisterSharedClientEPjjj16ChiMetadataUsage+0xa30>
0xf000 <_ZN18ChiMetadataManager20RegisterSharedClientEPjjj16ChiMetadataUsage+0xa44>
0xb000 <_ZN18ChiMetadataManager20RegisterSharedClientEPjjj16ChiMetadataUsage+0xa60>
0xd000 <_ZN18ChiMetadataManager20RegisterSharedClientEPjjj16ChiMetadataUsage+0xa84>
0xf000 <_ZN18ChiMetadataManager20RegisterSharedClientEPjjj16ChiMetadataUsage+0xa94>
0xf000 <_ZN18ChiMetadataManager20RegisterSharedClientEPjjj16ChiMetadataUsage+0xa98>
0xb000 <_ZN18ChiMetadataManager20RegisterSharedClientEPjjj16ChiMetadataUsage+0xa8c>
<_ZN6ChiLog9LogSystemEPKcS1_S1_S1_iS1_z@plt>
<_ZN18ChiMetadataManager20RegisterSharedClientEPjjj16ChiMetadataUsage+0x9f4>
<_ZN18ChiMetadataManager20RegisterSharedClientEPjjj16ChiMetadataUsage+0xc08>
<_ZN18ChiMetadataManager20RegisterSharedClientEPjjj16ChiMetadataUsage+0xc08>
<_ZN18ChiMetadataManager20RegisterSharedClientEPjjj16ChiMetadataUsage+0xc08>
<_ZN18ChiMetadataManager20RegisterSharedClientEPjjj16ChiMetadataUsage+0xc08>
<_ZN18ChiMetadataManager20RegisterSharedClientEPjjj16ChiMetadataUsage+0xc08>
<_ZN18ChiMetadataManager20RegisterSharedClientEPjjj16ChiMetadataUsage+0xc08>
<_ZN18ChiMetadataManager20RegisterSharedClientEPjjj16ChiMetadataUsage+0xc08>
<_ZN18ChiMetadataManager20RegisterSharedClientEPjjj16ChiMetadataUsage+0xc08>
<_ZN18ChiMetadataManager20RegisterSharedClientEPjjj16ChiMetadataUsage+0xc08>
<_ZN18ChiMetadataManager20RegisterSharedClientEPjjj16ChiMetadataUsage+0xc08>
<_ZN18ChiMetadataManager20RegisterSharedClientEPjjj16ChiMetadataUsage+0xc08>
<_ZN18ChiMetadataManager20RegisterSharedClientEPjjj16ChiMetadataUsage+0xc08>
<_ZN18ChiMetadataManager20RegisterSharedClientEPjjj16ChiMetadataUsage+0xc08>
<_ZN18ChiMetadataManager20RegisterSharedClientEPjjj16ChiMetadataUsage+0xc08>
<_ZN18ChiMetadataManager20RegisterSharedClientEPjjj16ChiMetadataUsage+0xc08>
<_ZN18ChiMetadataManager20RegisterSharedClientEPjjj16ChiMetadataUsage+0xc08>
<_ZN18ChiMetadataManager10MetaClientC2Ev+0xd0>
<_ZN18ChiMetadataManager20RegisterSharedClientEPjjj16ChiMetadataUsage+0x604>
0x3094c <_ZN18ChiMetadataManager20RegisterSharedClientEPjjj16ChiMetadataUsage+0xcb4>
<_ZN18ChiMetadataManager20RegisterSharedClientEPjjj16ChiMetadataUsage+0xe00>
0x30934 <_ZN18ChiMetadataManager20RegisterSharedClientEPjjj16ChiMetadataUsage+0xc9c>
<_ZN18ChiMetadataManager20RegisterSharedClientEPjjj16ChiMetadataUsage+0xcb8>
<_ZN18ChiMetadataManager20RegisterSharedClientEPjjj16ChiMetadataUsage+0xd54>
0x30988 <_ZN18ChiMetadataManager20RegisterSharedClientEPjjj16ChiMetadataUsage+0xcf0>
0x30aa4 <_ZN18ChiMetadataManager20RegisterSharedClientEPjjj16ChiMetadataUsage+0xe0c>
0x30a9c <_ZN18ChiMetadataManager20RegisterSharedClientEPjjj16ChiMetadataUsage+0xe04>
0x30a88 <_ZN18ChiMetadataManager20RegisterSharedClientEPjjj16ChiMetadataUsage+0xdf0>
0x309d0 <_ZN18ChiMetadataManager20RegisterSharedClientEPjjj16ChiMetadataUsage+0xd38>
<_ZN18ChiMetadataManager20RegisterSharedClientEPjjj16ChiMetadataUsage+0xdf0>
<_ZN18ChiMetadataManager20RegisterSharedClientEPjjj16ChiMetadataUsage+0xd90>
<_ZN18ChiMetadataManager20RegisterSharedClientEPjjj16ChiMetadataUsage+0xd9c>
<_ZN18ChiMetadataManager20RegisterSharedClientEPjjj16ChiMetadataUsage+0xd78>
<_ZN18ChiMetadataManager20RegisterSharedClientEPjjj16ChiMetadataUsage+0xdb4>
<_ZN18ChiMetadataManager20RegisterSharedClientEPjjj16ChiMetadataUsage+0xdb4>
<_ZN18ChiMetadataManager20RegisterSharedClientEPjjj16ChiMetadataUsage+0xdb4>
<_ZN18ChiMetadataManager20RegisterSharedClientEPjjj16ChiMetadataUsage+0xda8>
0x30a84 <_ZN18ChiMetadataManager20RegisterSharedClientEPjjj16ChiMetadataUsage+0xdec>
<_ZN18ChiMetadataManager20RegisterSharedClientEPjjj16ChiMetadataUsage+0xe10>
0x30a88 <_ZN18ChiMetadataManager20RegisterSharedClientEPjjj16ChiMetadataUsage+0xdf0>
0x30a68 <_ZN18ChiMetadataManager20RegisterSharedClientEPjjj16ChiMetadataUsage+0xdd0>
<_ZN18ChiMetadataManager20RegisterSharedClientEPjjj16ChiMetadataUsage+0xdf0>
<_ZNKSt3__120__vector_base_commonILb1EE20__throw_length_errorEv@plt>
0x30ae4 <_ZN18ChiMetadataManager20RegisterSharedClientEPjjj16ChiMetadataUsage+0xe4c>
0x30d58 <_ZN18ChiMetadataManager20RegisterSharedClientEPjjj16ChiMetadataUsage+0x10c0>
<_ZN18ChiMetadataManager20RegisterSharedClientEPjjj16ChiMetadataUsage+0xe50>
0x30b04 <_ZN18ChiMetadataManager20RegisterSharedClientEPjjj16ChiMetadataUsage+0xe6c>
0x30d5c <_ZN18ChiMetadataManager20RegisterSharedClientEPjjj16ChiMetadataUsage+0x10c4>
0x30cbc <_ZN18ChiMetadataManager20RegisterSharedClientEPjjj16ChiMetadataUsage+0x1024>
<_ZN18ChiMetadataManager20RegisterSharedClientEPjjj16ChiMetadataUsage+0xe98>
<_ZN18ChiMetadataManager20RegisterSharedClientEPjjj16ChiMetadataUsage+0x1030>
<_ZN18ChiMetadataManager20RegisterSharedClientEPjjj16ChiMetadataUsage+0x1030>
<_ZN18ChiMetadataManager20RegisterSharedClientEPjjj16ChiMetadataUsage+0xea0>
0x30cbc <_ZN18ChiMetadataManager20RegisterSharedClientEPjjj16ChiMetadataUsage+0x1024>
<_ZN18ChiMetadataManager20RegisterSharedClientEPjjj16ChiMetadataUsage+0xeec>
<_ZN18ChiMetadataManager20RegisterSharedClientEPjjj16ChiMetadataUsage+0xefc>
<_ZN18ChiMetadataManager20RegisterSharedClientEPjjj16ChiMetadataUsage+0xefc>
0x30cbc <_ZN18ChiMetadataManager20RegisterSharedClientEPjjj16ChiMetadataUsage+0x1024>
<_ZN18ChiMetadataManager20RegisterSharedClientEPjjj16ChiMetadataUsage+0xfa4>
<_ZN18ChiMetadataManager20RegisterSharedClientEPjjj16ChiMetadataUsage+0xf24>
0x30cbc <_ZN18ChiMetadataManager20RegisterSharedClientEPjjj16ChiMetadataUsage+0x1024>
<_ZN18ChiMetadataManager20RegisterSharedClientEPjjj16ChiMetadataUsage+0xf18>
0x30c20 <_ZN18ChiMetadataManager20RegisterSharedClientEPjjj16ChiMetadataUsage+0xf88>
0x30bf8 <_ZN18ChiMetadataManager20RegisterSharedClientEPjjj16ChiMetadataUsage+0xf60>
<_ZN18ChiMetadataManager20RegisterSharedClientEPjjj16ChiMetadataUsage+0xf44>
<_ZN18ChiMetadataManager20RegisterSharedClientEPjjj16ChiMetadataUsage+0xf1c>
<_ZN18ChiMetadataManager20RegisterSharedClientEPjjj16ChiMetadataUsage+0xf1c>
0x30cbc <_ZN18ChiMetadataManager20RegisterSharedClientEPjjj16ChiMetadataUsage+0x1024>
<_ZN18ChiMetadataManager20RegisterSharedClientEPjjj16ChiMetadataUsage+0xfb8>
<_ZN18ChiMetadataManager20RegisterSharedClientEPjjj16ChiMetadataUsage+0xf98>
0x30cac <_ZN18ChiMetadataManager20RegisterSharedClientEPjjj16ChiMetadataUsage+0x1014>
0x30c84 <_ZN18ChiMetadataManager20RegisterSharedClientEPjjj16ChiMetadataUsage+0xfec>
<_ZN18ChiMetadataManager20RegisterSharedClientEPjjj16ChiMetadataUsage+0xfd0>
<_ZN18ChiMetadataManager20RegisterSharedClientEPjjj16ChiMetadataUsage+0xf9c>
<_ZN18ChiMetadataManager20RegisterSharedClientEPjjj16ChiMetadataUsage+0xf9c>
<_ZN18ChiMetadataManager20RegisterSharedClientEPjjj16ChiMetadataUsage+0x1044>
0x30b50 <_ZN18ChiMetadataManager20RegisterSharedClientEPjjj16ChiMetadataUsage+0xeb8>
<_ZN18ChiMetadataManager20RegisterSharedClientEPjjj16ChiMetadataUsage+0x1088>
<_ZN18ChiMetadataManager20RegisterSharedClientEPjjj16ChiMetadataUsage+0xeb8>
#2, 0x30d38 <_ZN18ChiMetadataManager20RegisterSharedClientEPjjj16ChiMetadataUsage+0x10a0>
<_ZN18ChiMetadataManager20RegisterSharedClientEPjjj16ChiMetadataUsage+0xeb8>
#1, 0x30d50 <_ZN18ChiMetadataManager20RegisterSharedClientEPjjj16ChiMetadataUsage+0x10b8>
<_ZN18ChiMetadataManager20RegisterSharedClientEPjjj16ChiMetadataUsage+0xeb8>
<_ZN18ChiMetadataManager20RegisterSharedClientEPjjj16ChiMetadataUsage+0xeb8>
0x30d78 <_ZN18ChiMetadataManager20RegisterSharedClientEPjjj16ChiMetadataUsage+0x10e0>
0x30d98 <_ZN18ChiMetadataManager20RegisterSharedClientEPjjj16ChiMetadataUsage+0x1100>



<_ZNSt3__15mutex4lockEv@plt>
0x30e24 <_ZN18ChiMetadataManager16UnregisterClientEj+0x64>
<_ZN18ChiMetadataManager16UnregisterClientEj+0x64>
<_ZN18ChiMetadataManager16UnregisterClientEj+0x118>
0x35000 <_ZN18ChiMetadataManager16UnregisterClientEj+0x78>
#0, 0x30ed4 <_ZN18ChiMetadataManager16UnregisterClientEj+0x114>
0x35000 <_ZN18ChiMetadataManager16UnregisterClientEj+0x88>
0xb000 <_ZN18ChiMetadataManager19RetrievePartialTagsEj+0x4>
<_ZN18ChiMetadataManager16UnregisterClientEj+0xd0>
0xf000 <_ZN18ChiMetadataManager16UnregisterClientEj+0x20>
0xb000 <_ZN18ChiMetadataManager16UnregisterClientEj+0x14>
0xd000 <_ZN18ChiMetadataManager16UnregisterClientEj+0x20>
0xf000 <_ZN18ChiMetadataManager16UnregisterClientEj+0x60>
0xb000 <_ZN18ChiMetadataManager16UnregisterClientEj+0x58>
0xd000 <_ZN18ChiMetadataManager16UnregisterClientEj+0x64>
0xe000 <_ZN18ChiMetadataManager16UnregisterClientEj+0x6c>
<_ZN6ChiLog9LogSystemEPKcS1_S1_S1_iS1_z@plt>
<_ZNSt3__15mutex6unlockEv@plt>

<_ZNSt3__15mutex4lockEv@plt>
<_ZN18ChiMetadataManager5FlushEv+0x80>
<_ZNSt3__15mutex6unlockEv@plt>
<_ZN18ChiMetadataManager5FlushEv+0x19c>
0x31010 <_ZN18ChiMetadataManager5FlushEv+0x118>
<_ZNSt3__15mutex4lockEv@plt>
<_ZN18ChiMetadataManager5FlushEv+0x104>
<_ZN18ChiMetadataManager5FlushEv+0xb0>
<_ZN18ChiMetadataManager5FlushEv+0x198>
<_ZNSt3__15mutex6unlockEv@plt>
0x30f6c <_ZN18ChiMetadataManager5FlushEv+0x74>
<_ZNSt3__15mutex4lockEv@plt>
<_ZN18ChiMetadataManager5FlushEv+0x60>
<_ZN18ChiMetadataManager5FlushEv+0x148>
<_ZNSt3__15mutex6unlockEv@plt>

<_ZNSt3__15mutex4lockEv@plt>
0x31138 <_ZN18ChiMetadataManager13SetPipelineIdEjj+0x78>
<_ZN18ChiMetadataManager13SetPipelineIdEjj+0x78>
0x311e4 <_ZN18ChiMetadataManager13SetPipelineIdEjj+0x124>
<_ZN18ChiMetadataManager13SetPipelineIdEjj+0x1e0>
0x35000 <_ZN18ChiMetadataManager13SetPipelineIdEjj+0x88>
#1, 0x3129c <_ZN18ChiMetadataManager13SetPipelineIdEjj+0x1dc>
0x35000 <_ZN18ChiMetadataManager13SetPipelineIdEjj+0x98>
0xb000 <_ZN18ChiMetadataManager5FlushEv+0x1bc>
<_ZN18ChiMetadataManager13SetPipelineIdEjj+0xe4>
0xf000 <_ZN18ChiMetadataManager13SetPipelineIdEjj+0x30>
0xd000 <_ZN18ChiMetadataManager13SetPipelineIdEjj+0x2c>
0xd000 <_ZN18ChiMetadataManager13SetPipelineIdEjj+0x30>
0xb000 <_ZN18ChiMetadataManager13SetPipelineIdEjj+0x60>
0xe000 <_ZN18ChiMetadataManager13SetPipelineIdEjj+0x74>
0xd000 <_ZN18ChiMetadataManager13SetPipelineIdEjj+0x74>
0xf000 <_ZN18ChiMetadataManager13SetPipelineIdEjj+0x80>
<_ZN18ChiMetadataManager13SetPipelineIdEjj+0x1d4>
0x35000 <_ZN18ChiMetadataManager13SetPipelineIdEjj+0x134>
#0, 0x3129c <_ZN18ChiMetadataManager13SetPipelineIdEjj+0x1dc>
0x35000 <_ZN18ChiMetadataManager13SetPipelineIdEjj+0x144>
<_ZN18ChiMetadataManager13SetPipelineIdEjj+0x190>
0xb000 <_ZN18ChiMetadataManager13SetPipelineIdEjj+0xb0>
0xf000 <_ZN18ChiMetadataManager13SetPipelineIdEjj+0xdc>
0xc000 <_ZN18ChiMetadataManager13SetPipelineIdEjj+0xd4>
0xd000 <_ZN18ChiMetadataManager13SetPipelineIdEjj+0xdc>
0xb000 <_ZN18ChiMetadataManager13SetPipelineIdEjj+0xf8>
0xf000 <_ZN18ChiMetadataManager13SetPipelineIdEjj+0x124>
0xb000 <_ZN18ChiMetadataManager13SetPipelineIdEjj+0x11c>
0xd000 <_ZN18ChiMetadataManager13SetPipelineIdEjj+0x128>
0xf000 <_ZN18ChiMetadataManager13SetPipelineIdEjj+0x134>
<_ZN6ChiLog9LogSystemEPKcS1_S1_S1_iS1_z@plt>
<_ZNSt3__15mutex6unlockEv@plt>

<_ZN18ChiMetadataManager13GetFreeHolderEjjjRNSt3__16chrono10time_pointINS1_12steady_clockENS1_8durationIxNS0_5ratioILl1ELl1000000000EEEEEEE+0xb28>
0x313b8 <_ZN18ChiMetadataManager13GetFreeHolderEjjjRNSt3__16chrono10time_pointINS1_12steady_clockENS1_8durationIxNS0_5ratioILl1ELl1000000000EEEEEEE+0xf8>
<_ZN18ChiMetadataManager13GetFreeHolderEjjjRNSt3__16chrono10time_pointINS1_12steady_clockENS1_8durationIxNS0_5ratioILl1ELl1000000000EEEEEEE+0xb28>
0x313b8 <_ZN18ChiMetadataManager13GetFreeHolderEjjjRNSt3__16chrono10time_pointINS1_12steady_clockENS1_8durationIxNS0_5ratioILl1ELl1000000000EEEEEEE+0xf8>
<_ZNSt3__15mutex4lockEv@plt>
<_ZN18ChiMetadataManager13GetFreeHolderEjjjRNSt3__16chrono10time_pointINS1_12steady_clockENS1_8durationIxNS0_5ratioILl1ELl1000000000EEEEEEE+0x1d4>
0x31488 <_ZN18ChiMetadataManager13GetFreeHolderEjjjRNSt3__16chrono10time_pointINS1_12steady_clockENS1_8durationIxNS0_5ratioILl1ELl1000000000EEEEEEE+0x1c8>
<_ZN18ChiMetadataManager13GetFreeHolderEjjjRNSt3__16chrono10time_pointINS1_12steady_clockENS1_8durationIxNS0_5ratioILl1ELl1000000000EEEEEEE+0xd0>
0x35000 <_ZN18ChiMetadataManager13GetFreeHolderEjjjRNSt3__16chrono10time_pointINS1_12steady_clockENS1_8durationIxNS0_5ratioILl1ELl1000000000EEEEEEE+0x108>
#0, 0x31480 <_ZN18ChiMetadataManager13GetFreeHolderEjjjRNSt3__16chrono10time_pointINS1_12steady_clockENS1_8durationIxNS0_5ratioILl1ELl1000000000EEEEEEE+0x1c0>
0x35000 <_ZN18ChiMetadataManager13GetFreeHolderEjjjRNSt3__16chrono10time_pointINS1_12steady_clockENS1_8durationIxNS0_5ratioILl1ELl1000000000EEEEEEE+0x118>
<_ZN18ChiMetadataManager13GetFreeHolderEjjjRNSt3__16chrono10time_pointINS1_12steady_clockENS1_8durationIxNS0_5ratioILl1ELl1000000000EEEEEEE+0x16c>
0xb000 <_ZN18ChiMetadataManager13GetFreeHolderEjjjRNSt3__16chrono10time_pointINS1_12steady_clockENS1_8durationIxNS0_5ratioILl1ELl1000000000EEEEEEE+0x84>
0xf000 <_ZN18ChiMetadataManager13GetFreeHolderEjjjRNSt3__16chrono10time_pointINS1_12steady_clockENS1_8durationIxNS0_5ratioILl1ELl1000000000EEEEEEE+0xb0>
0xc000 <_ZN18ChiMetadataManager13GetFreeHolderEjjjRNSt3__16chrono10time_pointINS1_12steady_clockENS1_8durationIxNS0_5ratioILl1ELl1000000000EEEEEEE+0xa8>
0xe000 <_ZN18ChiMetadataManager13GetFreeHolderEjjjRNSt3__16chrono10time_pointINS1_12steady_clockENS1_8durationIxNS0_5ratioILl1ELl1000000000EEEEEEE+0xb4>
0xb000 <_ZN18ChiMetadataManager13GetFreeHolderEjjjRNSt3__16chrono10time_pointINS1_12steady_clockENS1_8durationIxNS0_5ratioILl1ELl1000000000EEEEEEE+0xd4>
0xf000 <_ZN18ChiMetadataManager13GetFreeHolderEjjjRNSt3__16chrono10time_pointINS1_12steady_clockENS1_8durationIxNS0_5ratioILl1ELl1000000000EEEEEEE+0x100>
0xb000 <_ZN18ChiMetadataManager13GetFreeHolderEjjjRNSt3__16chrono10time_pointINS1_12steady_clockENS1_8durationIxNS0_5ratioILl1ELl1000000000EEEEEEE+0xf8>
0xe000 <_ZN18ChiMetadataManager13GetFreeHolderEjjjRNSt3__16chrono10time_pointINS1_12steady_clockENS1_8durationIxNS0_5ratioILl1ELl1000000000EEEEEEE+0x108>
0xa000 <_ZN18ChiMetadataManager13GetFreeHolderEjjjRNSt3__16chrono10time_pointINS1_12steady_clockENS1_8durationIxNS0_5ratioILl1ELl1000000000EEEEEEE+0xfc>
<_ZN6ChiLog9LogSystemEPKcS1_S1_S1_iS1_z@plt>
<_ZN18ChiMetadataManager13GetFreeHolderEjjjRNSt3__16chrono10time_pointINS1_12steady_clockENS1_8durationIxNS0_5ratioILl1ELl1000000000EEEEEEE+0xad8>
0x31bfc <_ZN18ChiMetadataManager13GetFreeHolderEjjjRNSt3__16chrono10time_pointINS1_12steady_clockENS1_8durationIxNS0_5ratioILl1ELl1000000000EEEEEEE+0x93c>
<_ZN18ChiMetadataManager13GetFreeHolderEjjjRNSt3__16chrono10time_pointINS1_12steady_clockENS1_8durationIxNS0_5ratioILl1ELl1000000000EEEEEEE+0x24c>
0x31690 <_ZN18ChiMetadataManager13GetFreeHolderEjjjRNSt3__16chrono10time_pointINS1_12steady_clockENS1_8durationIxNS0_5ratioILl1ELl1000000000EEEEEEE+0x3d0>
<_ZN18ChiMetadataManager13GetFreeHolderEjjjRNSt3__16chrono10time_pointINS1_12steady_clockENS1_8durationIxNS0_5ratioILl1ELl1000000000EEEEEEE+0xf4>
<_ZN18ChiMetadataManager13GetFreeHolderEjjjRNSt3__16chrono10time_pointINS1_12steady_clockENS1_8durationIxNS0_5ratioILl1ELl1000000000EEEEEEE+0x1f8>
<_ZN18ChiMetadataManager13GetFreeHolderEjjjRNSt3__16chrono10time_pointINS1_12steady_clockENS1_8durationIxNS0_5ratioILl1ELl1000000000EEEEEEE+0x39c>
<_ZN18ChiMetadataManager20RegisterSharedClientEPjjj16ChiMetadataUsage+0xc78>
0x35000 <_ZN18ChiMetadataManager13GetFreeHolderEjjjRNSt3__16chrono10time_pointINS1_12steady_clockENS1_8durationIxNS0_5ratioILl1ELl1000000000EEEEEEE+0x2a4>
#5, 0x3162c <_ZN18ChiMetadataManager13GetFreeHolderEjjjRNSt3__16chrono10time_pointINS1_12steady_clockENS1_8durationIxNS0_5ratioILl1ELl1000000000EEEEEEE+0x36c>
0x35000 <_ZN18ChiMetadataManager13GetFreeHolderEjjjRNSt3__16chrono10time_pointINS1_12steady_clockENS1_8durationIxNS0_5ratioILl1ELl1000000000EEEEEEE+0x2c4>
<_ZN18ChiMetadataManager13GetFreeHolderEjjjRNSt3__16chrono10time_pointINS1_12steady_clockENS1_8durationIxNS0_5ratioILl1ELl1000000000EEEEEEE+0x314>
0xb000 <_ZN18ChiMetadataManager13GetFreeHolderEjjjRNSt3__16chrono10time_pointINS1_12steady_clockENS1_8durationIxNS0_5ratioILl1ELl1000000000EEEEEEE+0x230>
0xf000 <_ZN18ChiMetadataManager13GetFreeHolderEjjjRNSt3__16chrono10time_pointINS1_12steady_clockENS1_8durationIxNS0_5ratioILl1ELl1000000000EEEEEEE+0x25c>
0xb000 <_ZN18ChiMetadataManager13GetFreeHolderEjjjRNSt3__16chrono10time_pointINS1_12steady_clockENS1_8durationIxNS0_5ratioILl1ELl1000000000EEEEEEE+0x250>
0xe000 <_ZN18ChiMetadataManager13GetFreeHolderEjjjRNSt3__16chrono10time_pointINS1_12steady_clockENS1_8durationIxNS0_5ratioILl1ELl1000000000EEEEEEE+0x260>
0xb000 <_ZN18ChiMetadataManager13GetFreeHolderEjjjRNSt3__16chrono10time_pointINS1_12steady_clockENS1_8durationIxNS0_5ratioILl1ELl1000000000EEEEEEE+0x27c>
0xd000 <_ZN18ChiMetadataManager13GetFreeHolderEjjjRNSt3__16chrono10time_pointINS1_12steady_clockENS1_8durationIxNS0_5ratioILl1ELl1000000000EEEEEEE+0x2a0>
0xf000 <_ZN18ChiMetadataManager13GetFreeHolderEjjjRNSt3__16chrono10time_pointINS1_12steady_clockENS1_8durationIxNS0_5ratioILl1ELl1000000000EEEEEEE+0x2b0>
0xe000 <_ZN18ChiMetadataManager13GetFreeHolderEjjjRNSt3__16chrono10time_pointINS1_12steady_clockENS1_8durationIxNS0_5ratioILl1ELl1000000000EEEEEEE+0x2b0>
0xe000 <_ZN18ChiMetadataManager13GetFreeHolderEjjjRNSt3__16chrono10time_pointINS1_12steady_clockENS1_8durationIxNS0_5ratioILl1ELl1000000000EEEEEEE+0x2b4>
<_ZN6ChiLog9LogSystemEPKcS1_S1_S1_iS1_z@plt>
<_ZN18ChiMetadataManager13GetFreeHolderEjjjRNSt3__16chrono10time_pointINS1_12steady_clockENS1_8durationIxNS0_5ratioILl1ELl1000000000EEEEEEE+0xf4>
<_ZN18ChiMetadataManager10MetaClient15AllocateBuffersEPjjjjj@plt>
0x31a88 <_ZN18ChiMetadataManager13GetFreeHolderEjjjRNSt3__16chrono10time_pointINS1_12steady_clockENS1_8durationIxNS0_5ratioILl1ELl1000000000EEEEEEE+0x7c8>
0x31674 <_ZN18ChiMetadataManager13GetFreeHolderEjjjRNSt3__16chrono10time_pointINS1_12steady_clockENS1_8durationIxNS0_5ratioILl1ELl1000000000EEEEEEE+0x3b4>
<_ZN18ChiMetadataManager13GetFreeHolderEjjjRNSt3__16chrono10time_pointINS1_12steady_clockENS1_8durationIxNS0_5ratioILl1ELl1000000000EEEEEEE+0x5b4>
0x35000 <_ZN18ChiMetadataManager13GetFreeHolderEjjjRNSt3__16chrono10time_pointINS1_12steady_clockENS1_8durationIxNS0_5ratioILl1ELl1000000000EEEEEEE+0x3c4>
#0, 0x317a8 <_ZN18ChiMetadataManager13GetFreeHolderEjjjRNSt3__16chrono10time_pointINS1_12steady_clockENS1_8durationIxNS0_5ratioILl1ELl1000000000EEEEEEE+0x4e8>
<_ZN18ChiMetadataManager13GetFreeHolderEjjjRNSt3__16chrono10time_pointINS1_12steady_clockENS1_8durationIxNS0_5ratioILl1ELl1000000000EEEEEEE+0xaac>
0x35000 <_ZN18ChiMetadataManager13GetFreeHolderEjjjRNSt3__16chrono10time_pointINS1_12steady_clockENS1_8durationIxNS0_5ratioILl1ELl1000000000EEEEEEE+0x3e0>
#5, 0x316c0 <_ZN18ChiMetadataManager13GetFreeHolderEjjjRNSt3__16chrono10time_pointINS1_12steady_clockENS1_8durationIxNS0_5ratioILl1ELl1000000000EEEEEEE+0x400>
0x31aa0 <_ZN18ChiMetadataManager13GetFreeHolderEjjjRNSt3__16chrono10time_pointINS1_12steady_clockENS1_8durationIxNS0_5ratioILl1ELl1000000000EEEEEEE+0x7e0>
<_ZN18ChiMetadataManager13GetFreeHolderEjjjRNSt3__16chrono10time_pointINS1_12steady_clockENS1_8durationIxNS0_5ratioILl1ELl1000000000EEEEEEE+0x93c>
0x35000 <_ZN18ChiMetadataManager13GetFreeHolderEjjjRNSt3__16chrono10time_pointINS1_12steady_clockENS1_8durationIxNS0_5ratioILl1ELl1000000000EEEEEEE+0x410>
<_ZN18ChiMetadataManager13GetFreeHolderEjjjRNSt3__16chrono10time_pointINS1_12steady_clockENS1_8durationIxNS0_5ratioILl1ELl1000000000EEEEEEE+0x484>
0xb000 <_ZN18ChiMetadataManager13GetFreeHolderEjjjRNSt3__16chrono10time_pointINS1_12steady_clockENS1_8durationIxNS0_5ratioILl1ELl1000000000EEEEEEE+0x388>
0xf000 <_ZN18ChiMetadataManager13GetFreeHolderEjjjRNSt3__16chrono10time_pointINS1_12steady_clockENS1_8durationIxNS0_5ratioILl1ELl1000000000EEEEEEE+0x3bc>
0xa000 <_ZN18ChiMetadataManager13GetFreeHolderEjjjRNSt3__16chrono10time_pointINS1_12steady_clockENS1_8durationIxNS0_5ratioILl1ELl1000000000EEEEEEE+0x3ac>
0xe000 <_ZN18ChiMetadataManager13GetFreeHolderEjjjRNSt3__16chrono10time_pointINS1_12steady_clockENS1_8durationIxNS0_5ratioILl1ELl1000000000EEEEEEE+0x3c0>
0xb000 <_ZN18ChiMetadataManager13GetFreeHolderEjjjRNSt3__16chrono10time_pointINS1_12steady_clockENS1_8durationIxNS0_5ratioILl1ELl1000000000EEEEEEE+0x3ec>
0xf000 <_ZN18ChiMetadataManager13GetFreeHolderEjjjRNSt3__16chrono10time_pointINS1_12steady_clockENS1_8durationIxNS0_5ratioILl1ELl1000000000EEEEEEE+0x424>
0xd000 <_ZN18ChiMetadataManager13GetFreeHolderEjjjRNSt3__16chrono10time_pointINS1_12steady_clockENS1_8durationIxNS0_5ratioILl1ELl1000000000EEEEEEE+0x420>
0xe000 <_ZN18ChiMetadataManager13GetFreeHolderEjjjRNSt3__16chrono10time_pointINS1_12steady_clockENS1_8durationIxNS0_5ratioILl1ELl1000000000EEEEEEE+0x428>
0xe000 <_ZN18ChiMetadataManager13GetFreeHolderEjjjRNSt3__16chrono10time_pointINS1_12steady_clockENS1_8durationIxNS0_5ratioILl1ELl1000000000EEEEEEE+0x42c>
<_ZN18ChiMetadataManager13GetFreeHolderEjjjRNSt3__16chrono10time_pointINS1_12steady_clockENS1_8durationIxNS0_5ratioILl1ELl1000000000EEEEEEE+0x930>
0x35000 <_ZN18ChiMetadataManager13GetFreeHolderEjjjRNSt3__16chrono10time_pointINS1_12steady_clockENS1_8durationIxNS0_5ratioILl1ELl1000000000EEEEEEE+0x4f8>
<_ZN18ChiMetadataManager13GetFreeHolderEjjjRNSt3__16chrono10time_pointINS1_12steady_clockENS1_8durationIxNS0_5ratioILl1ELl1000000000EEEEEEE+0x554>
0xb000 <_ZN18ChiMetadataManager13GetFreeHolderEjjjRNSt3__16chrono10time_pointINS1_12steady_clockENS1_8durationIxNS0_5ratioILl1ELl1000000000EEEEEEE+0x46c>
0xf000 <_ZN18ChiMetadataManager13GetFreeHolderEjjjRNSt3__16chrono10time_pointINS1_12steady_clockENS1_8durationIxNS0_5ratioILl1ELl1000000000EEEEEEE+0x498>
0xc000 <_ZN18ChiMetadataManager13GetFreeHolderEjjjRNSt3__16chrono10time_pointINS1_12steady_clockENS1_8durationIxNS0_5ratioILl1ELl1000000000EEEEEEE+0x490>
0xe000 <_ZN18ChiMetadataManager13GetFreeHolderEjjjRNSt3__16chrono10time_pointINS1_12steady_clockENS1_8durationIxNS0_5ratioILl1ELl1000000000EEEEEEE+0x49c>
0xb000 <_ZN18ChiMetadataManager13GetFreeHolderEjjjRNSt3__16chrono10time_pointINS1_12steady_clockENS1_8durationIxNS0_5ratioILl1ELl1000000000EEEEEEE+0x4bc>
0xf000 <_ZN18ChiMetadataManager13GetFreeHolderEjjjRNSt3__16chrono10time_pointINS1_12steady_clockENS1_8durationIxNS0_5ratioILl1ELl1000000000EEEEEEE+0x4e8>
0xb000 <_ZN18ChiMetadataManager13GetFreeHolderEjjjRNSt3__16chrono10time_pointINS1_12steady_clockENS1_8durationIxNS0_5ratioILl1ELl1000000000EEEEEEE+0x4e0>
0xe000 <_ZN18ChiMetadataManager13GetFreeHolderEjjjRNSt3__16chrono10time_pointINS1_12steady_clockENS1_8durationIxNS0_5ratioILl1ELl1000000000EEEEEEE+0x4f0>
0xa000 <_ZN18ChiMetadataManager13GetFreeHolderEjjjRNSt3__16chrono10time_pointINS1_12steady_clockENS1_8durationIxNS0_5ratioILl1ELl1000000000EEEEEEE+0x4e4>
<_ZN6ChiLog9LogSystemEPKcS1_S1_S1_iS1_z@plt>
<_ZN18ChiMetadataManager13GetFreeHolderEjjjRNSt3__16chrono10time_pointINS1_12steady_clockENS1_8durationIxNS0_5ratioILl1ELl1000000000EEEEEEE+0xaac>
<_ZN18ChiMetadataManager13GetFreeHolderEjjjRNSt3__16chrono10time_pointINS1_12steady_clockENS1_8durationIxNS0_5ratioILl1ELl1000000000EEEEEEE+0x7f4>
<_ZN18ChiMetadataManager13GetFreeHolderEjjjRNSt3__16chrono10time_pointINS1_12steady_clockENS1_8durationIxNS0_5ratioILl1ELl1000000000EEEEEEE+0x7f4>
<_ZN18ChiMetadataManager13GetFreeHolderEjjjRNSt3__16chrono10time_pointINS1_12steady_clockENS1_8durationIxNS0_5ratioILl1ELl1000000000EEEEEEE+0x7f0>
<_ZN18ChiMetadataManager13GetFreeHolderEjjjRNSt3__16chrono10time_pointINS1_12steady_clockENS1_8durationIxNS0_5ratioILl1ELl1000000000EEEEEEE+0x7f4>
<_ZN18ChiMetadataManager13GetFreeHolderEjjjRNSt3__16chrono10time_pointINS1_12steady_clockENS1_8durationIxNS0_5ratioILl1ELl1000000000EEEEEEE+0x7f4>
<_ZN18ChiMetadataManager13GetFreeHolderEjjjRNSt3__16chrono10time_pointINS1_12steady_clockENS1_8durationIxNS0_5ratioILl1ELl1000000000EEEEEEE+0x7f4>
<_ZN18ChiMetadataManager13GetFreeHolderEjjjRNSt3__16chrono10time_pointINS1_12steady_clockENS1_8durationIxNS0_5ratioILl1ELl1000000000EEEEEEE+0x7f4>
<_ZN18ChiMetadataManager13GetFreeHolderEjjjRNSt3__16chrono10time_pointINS1_12steady_clockENS1_8durationIxNS0_5ratioILl1ELl1000000000EEEEEEE+0x7f4>
<_ZN18ChiMetadataManager13GetFreeHolderEjjjRNSt3__16chrono10time_pointINS1_12steady_clockENS1_8durationIxNS0_5ratioILl1ELl1000000000EEEEEEE+0x7f4>
<_ZN18ChiMetadataManager13GetFreeHolderEjjjRNSt3__16chrono10time_pointINS1_12steady_clockENS1_8durationIxNS0_5ratioILl1ELl1000000000EEEEEEE+0x7f4>
<_ZN18ChiMetadataManager13GetFreeHolderEjjjRNSt3__16chrono10time_pointINS1_12steady_clockENS1_8durationIxNS0_5ratioILl1ELl1000000000EEEEEEE+0x7f4>
<_ZN18ChiMetadataManager13GetFreeHolderEjjjRNSt3__16chrono10time_pointINS1_12steady_clockENS1_8durationIxNS0_5ratioILl1ELl1000000000EEEEEEE+0x7f4>
<_ZN18ChiMetadataManager13GetFreeHolderEjjjRNSt3__16chrono10time_pointINS1_12steady_clockENS1_8durationIxNS0_5ratioILl1ELl1000000000EEEEEEE+0x7f4>
<_ZN18ChiMetadataManager13GetFreeHolderEjjjRNSt3__16chrono10time_pointINS1_12steady_clockENS1_8durationIxNS0_5ratioILl1ELl1000000000EEEEEEE+0x7f4>
<_ZN18ChiMetadataManager13GetFreeHolderEjjjRNSt3__16chrono10time_pointINS1_12steady_clockENS1_8durationIxNS0_5ratioILl1ELl1000000000EEEEEEE+0x7f4>
<_ZN18ChiMetadataManager13GetFreeHolderEjjjRNSt3__16chrono10time_pointINS1_12steady_clockENS1_8durationIxNS0_5ratioILl1ELl1000000000EEEEEEE+0x5d0>
<_ZN18ChiMetadataManager13GetFreeHolderEjjjRNSt3__16chrono10time_pointINS1_12steady_clockENS1_8durationIxNS0_5ratioILl1ELl1000000000EEEEEEE+0xf4>
0x31bfc <_ZN18ChiMetadataManager13GetFreeHolderEjjjRNSt3__16chrono10time_pointINS1_12steady_clockENS1_8durationIxNS0_5ratioILl1ELl1000000000EEEEEEE+0x93c>
<_ZN18ChiMetadataManager13GetFreeHolderEjjjRNSt3__16chrono10time_pointINS1_12steady_clockENS1_8durationIxNS0_5ratioILl1ELl1000000000EEEEEEE+0x39c>
<_ZN18ChiMetadataManager13GetFreeHolderEjjjRNSt3__16chrono10time_pointINS1_12steady_clockENS1_8durationIxNS0_5ratioILl1ELl1000000000EEEEEEE+0x258>
0x33000 <_ZN18ChiMetadataManager13GetFreeHolderEjjjRNSt3__16chrono10time_pointINS1_12steady_clockENS1_8durationIxNS0_5ratioILl1ELl1000000000EEEEEEE+0x834>
<_ZN18ChiMetadataManager13GetFreeHolderEjjjRNSt3__16chrono10time_pointINS1_12steady_clockENS1_8durationIxNS0_5ratioILl1ELl1000000000EEEEEEE+0xb0c>
0x35000 <_ZN18ChiMetadataManager13GetFreeHolderEjjjRNSt3__16chrono10time_pointINS1_12steady_clockENS1_8durationIxNS0_5ratioILl1ELl1000000000EEEEEEE+0x854>
#3, 0x31bfc <_ZN18ChiMetadataManager13GetFreeHolderEjjjRNSt3__16chrono10time_pointINS1_12steady_clockENS1_8durationIxNS0_5ratioILl1ELl1000000000EEEEEEE+0x93c>
0x35000 <_ZN18ChiMetadataManager13GetFreeHolderEjjjRNSt3__16chrono10time_pointINS1_12steady_clockENS1_8durationIxNS0_5ratioILl1ELl1000000000EEEEEEE+0x864>
<_ZN18ChiMetadataManager13GetFreeHolderEjjjRNSt3__16chrono10time_pointINS1_12steady_clockENS1_8durationIxNS0_5ratioILl1ELl1000000000EEEEEEE+0x8d0>
0xb000 <_ZN18ChiMetadataManager13GetFreeHolderEjjjRNSt3__16chrono10time_pointINS1_12steady_clockENS1_8durationIxNS0_5ratioILl1ELl1000000000EEEEEEE+0x7d0>
0xf000 <_ZN18ChiMetadataManager13GetFreeHolderEjjjRNSt3__16chrono10time_pointINS1_12steady_clockENS1_8durationIxNS0_5ratioILl1ELl1000000000EEEEEEE+0x804>
0xb000 <_ZN18ChiMetadataManager13GetFreeHolderEjjjRNSt3__16chrono10time_pointINS1_12steady_clockENS1_8durationIxNS0_5ratioILl1ELl1000000000EEEEEEE+0x7f8>
0xe000 <_ZN18ChiMetadataManager13GetFreeHolderEjjjRNSt3__16chrono10time_pointINS1_12steady_clockENS1_8durationIxNS0_5ratioILl1ELl1000000000EEEEEEE+0x808>
0xb000 <_ZN18ChiMetadataManager13GetFreeHolderEjjjRNSt3__16chrono10time_pointINS1_12steady_clockENS1_8durationIxNS0_5ratioILl1ELl1000000000EEEEEEE+0x838>
0xf000 <_ZN18ChiMetadataManager13GetFreeHolderEjjjRNSt3__16chrono10time_pointINS1_12steady_clockENS1_8durationIxNS0_5ratioILl1ELl1000000000EEEEEEE+0x870>
0xd000 <_ZN18ChiMetadataManager13GetFreeHolderEjjjRNSt3__16chrono10time_pointINS1_12steady_clockENS1_8durationIxNS0_5ratioILl1ELl1000000000EEEEEEE+0x86c>
0xe000 <_ZN18ChiMetadataManager13GetFreeHolderEjjjRNSt3__16chrono10time_pointINS1_12steady_clockENS1_8durationIxNS0_5ratioILl1ELl1000000000EEEEEEE+0x874>
0xe000 <_ZN18ChiMetadataManager13GetFreeHolderEjjjRNSt3__16chrono10time_pointINS1_12steady_clockENS1_8durationIxNS0_5ratioILl1ELl1000000000EEEEEEE+0x880>
<_ZN6ChiLog9LogSystemEPKcS1_S1_S1_iS1_z@plt>
<_ZN18ChiMetadataManager13GetFreeHolderEjjjRNSt3__16chrono10time_pointINS1_12steady_clockENS1_8durationIxNS0_5ratioILl1ELl1000000000EEEEEEE+0x9a8>
<_ZNSt3__16chrono12steady_clock3nowEv@plt>
0x35000 <_ZN18ChiMetadataManager13GetFreeHolderEjjjRNSt3__16chrono10time_pointINS1_12steady_clockENS1_8durationIxNS0_5ratioILl1ELl1000000000EEEEEEE+0x9c0>
#5, 0x31d6c <_ZN18ChiMetadataManager13GetFreeHolderEjjjRNSt3__16chrono10time_pointINS1_12steady_clockENS1_8durationIxNS0_5ratioILl1ELl1000000000EEEEEEE+0xaac>
0x35000 <_ZN18ChiMetadataManager13GetFreeHolderEjjjRNSt3__16chrono10time_pointINS1_12steady_clockENS1_8durationIxNS0_5ratioILl1ELl1000000000EEEEEEE+0x9e4>
0xb000 <_ZN18ChiMetadataManager13GetFreeHolderEjjjRNSt3__16chrono10time_pointINS1_12steady_clockENS1_8durationIxNS0_5ratioILl1ELl1000000000EEEEEEE+0x940>
<_ZN18ChiMetadataManager13GetFreeHolderEjjjRNSt3__16chrono10time_pointINS1_12steady_clockENS1_8durationIxNS0_5ratioILl1ELl1000000000EEEEEEE+0xa4c>
0xf000 <_ZN18ChiMetadataManager13GetFreeHolderEjjjRNSt3__16chrono10time_pointINS1_12steady_clockENS1_8durationIxNS0_5ratioILl1ELl1000000000EEEEEEE+0x984>
0xf000 <_ZN18ChiMetadataManager13GetFreeHolderEjjjRNSt3__16chrono10time_pointINS1_12steady_clockENS1_8durationIxNS0_5ratioILl1ELl1000000000EEEEEEE+0x988>
0xe000 <_ZN18ChiMetadataManager13GetFreeHolderEjjjRNSt3__16chrono10time_pointINS1_12steady_clockENS1_8durationIxNS0_5ratioILl1ELl1000000000EEEEEEE+0x988>
0xf000 <_ZN18ChiMetadataManager13GetFreeHolderEjjjRNSt3__16chrono10time_pointINS1_12steady_clockENS1_8durationIxNS0_5ratioILl1ELl1000000000EEEEEEE+0x9e4>
0xd000 <_ZN18ChiMetadataManager13GetFreeHolderEjjjRNSt3__16chrono10time_pointINS1_12steady_clockENS1_8durationIxNS0_5ratioILl1ELl1000000000EEEEEEE+0x9e0>
0xe000 <_ZN18ChiMetadataManager13GetFreeHolderEjjjRNSt3__16chrono10time_pointINS1_12steady_clockENS1_8durationIxNS0_5ratioILl1ELl1000000000EEEEEEE+0x9e8>
0xd000 <_ZN18ChiMetadataManager13GetFreeHolderEjjjRNSt3__16chrono10time_pointINS1_12steady_clockENS1_8durationIxNS0_5ratioILl1ELl1000000000EEEEEEE+0x9e8>
<_ZN6ChiLog9LogSystemEPKcS1_S1_S1_iS1_z@plt>
<_ZNSt3__15mutex6unlockEv@plt>
0x31d98 <_ZN18ChiMetadataManager13GetFreeHolderEjjjRNSt3__16chrono10time_pointINS1_12steady_clockENS1_8durationIxNS0_5ratioILl1ELl1000000000EEEEEEE+0xad8>
0x31df0 <_ZN18ChiMetadataManager13GetFreeHolderEjjjRNSt3__16chrono10time_pointINS1_12steady_clockENS1_8durationIxNS0_5ratioILl1ELl1000000000EEEEEEE+0xb30>
<_ZN18ChiMetadataManager13GetFreeHolderEjjjRNSt3__16chrono10time_pointINS1_12steady_clockENS1_8durationIxNS0_5ratioILl1ELl1000000000EEEEEEE+0xb2c>
<_ZN18ChiMetadataManager13GetFreeHolderEjjjRNSt3__16chrono10time_pointINS1_12steady_clockENS1_8durationIxNS0_5ratioILl1ELl1000000000EEEEEEE+0x83c>

<_ZNSt3__16chrono12steady_clock3nowEv@plt>
0x31e68 <_ZN18ChiMetadataManager3GetEjj+0x70>
<_ZN18ChiMetadataManager3GetEjj+0x70>
<_ZN18ChiMetadataManager13GetFreeHolderEjjjRNSt3__16chrono10time_pointINS1_12steady_clockENS1_8durationIxNS0_5ratioILl1ELl1000000000EEEEEEE@plt>
<_ZN18ChiMetadataManager3GetEjj+0x134>
0x35000 <_ZN18ChiMetadataManager3GetEjj+0x80>
#0, 0x31f28 <_ZN18ChiMetadataManager3GetEjj+0x130>
0x35000 <_ZN18ChiMetadataManager3GetEjj+0x90>
0xb000 <_ZN18ChiMetadataManager13GetFreeHolderEjjjRNSt3__16chrono10time_pointINS1_12steady_clockENS1_8durationIxNS0_5ratioILl1ELl1000000000EEEEEEE+0xb24>
<_ZN18ChiMetadataManager3GetEjj+0xe4>
0xf000 <_ZN18ChiMetadataManager3GetEjj+0x28>
0xa000 <_ZN18ChiMetadataManager3GetEjj+0x18>
0xc000 <_ZN18ChiMetadataManager3GetEjj+0x24>
0xf000 <_ZN18ChiMetadataManager3GetEjj+0x70>
0xb000 <_ZN18ChiMetadataManager3GetEjj+0x68>
0xc000 <_ZN18ChiMetadataManager3GetEjj+0x70>
0xc000 <_ZN18ChiMetadataManager3GetEjj+0x74>
<_ZN6ChiLog9LogSystemEPKcS1_S1_S1_iS1_z@plt>
<_ZN18ChiMetadataManager3GetEjj+0x15c>

0x31fc0 <_ZN18ChiMetadataManager24RestoreNonstickyMetadataEPK15camera_metadataP11ChiMetadata+0x68>
<_ZN18ChiMetadataManager24RestoreNonstickyMetadataEPK15camera_metadataP11ChiMetadata+0x6c>
0x32000 <_ZN18ChiMetadataManager24RestoreNonstickyMetadataEPK15camera_metadataP11ChiMetadata+0xa8>
0x32038 <_ZN18ChiMetadataManager24RestoreNonstickyMetadataEPK15camera_metadataP11ChiMetadata+0xe0>
<_ZN18ChiMetadataManager24RestoreNonstickyMetadataEPK15camera_metadataP11ChiMetadata+0xe4>
0x32088 <_ZN18ChiMetadataManager24RestoreNonstickyMetadataEPK15camera_metadataP11ChiMetadata+0x130>
<_ZN18ChiMetadataManager24RestoreNonstickyMetadataEPK15camera_metadataP11ChiMetadata+0x15c>
<_ZN18ChiMetadataManager24RestoreNonstickyMetadataEPK15camera_metadataP11ChiMetadata+0xfc>
<_ZN18ChiMetadataManager24RestoreNonstickyMetadataEPK15camera_metadataP11ChiMetadata+0x160>

<_ZNSt3__16chrono12steady_clock3nowEv@plt>
0x3234c <_ZN18ChiMetadataManager8GetInputEPK15camera_metadatajbb+0x28c>
0x32130 <_ZN18ChiMetadataManager8GetInputEPK15camera_metadatajbb+0x70>
<_ZN18ChiMetadataManager8GetInputEPK15camera_metadatajbb+0x208>
#0, 0x322c8 <_ZN18ChiMetadataManager8GetInputEPK15camera_metadatajbb+0x208>
<_ZN18ChiMetadataManager8GetInputEPK15camera_metadatajbb+0x208>
0x322c8 <_ZN18ChiMetadataManager8GetInputEPK15camera_metadatajbb+0x208>
<_ZN18ChiMetadataManager8GetInputEPK15camera_metadatajbb+0x118>
<_ZNSt3__16chrono12steady_clock3nowEv@plt>
0x35000 <_ZN18ChiMetadataManager8GetInputEPK15camera_metadatajbb+0x124>
#5, 0x32530 <_ZN18ChiMetadataManager8GetInputEPK15camera_metadatajbb+0x470>
0x35000 <_ZN18ChiMetadataManager8GetInputEPK15camera_metadatajbb+0x138>
<_ZN18ChiMetadataManager8GetInputEPK15camera_metadatajbb+0x1a0>
0xb000 <_ZN18ChiMetadataManager8GetInputEPK15camera_metadatajbb+0xa4>
0xf000 <_ZN18ChiMetadataManager8GetInputEPK15camera_metadatajbb+0xd8>
0xb000 <_ZN18ChiMetadataManager8GetInputEPK15camera_metadatajbb+0xd0>
0xa000 <_ZN18ChiMetadataManager8GetInputEPK15camera_metadatajbb+0xd0>
0xb000 <_ZN18ChiMetadataManager8GetInputEPK15camera_metadatajbb+0x104>
0xf000 <_ZN18ChiMetadataManager8GetInputEPK15camera_metadatajbb+0x140>
0xd000 <_ZN18ChiMetadataManager8GetInputEPK15camera_metadatajbb+0x13c>
0xa000 <_ZN18ChiMetadataManager8GetInputEPK15camera_metadatajbb+0x134>
0xb000 <_ZN18ChiMetadataManager8GetInputEPK15camera_metadatajbb+0x13c>
<_ZN6ChiLog9LogSystemEPKcS1_S1_S1_iS1_z@plt>
<_ZN18ChiMetadataManager8GetInputEPK15camera_metadatajbb+0x470>
<_ZN18ChiMetadataManager13GetFreeHolderEjjjRNSt3__16chrono10time_pointINS1_12steady_clockENS1_8durationIxNS0_5ratioILl1ELl1000000000EEEEEEE@plt>
0x3241c <_ZN18ChiMetadataManager8GetInputEPK15camera_metadatajbb+0x35c>
0x3241c <_ZN18ChiMetadataManager8GetInputEPK15camera_metadatajbb+0x35c>
#0, 0x32514 <_ZN18ChiMetadataManager8GetInputEPK15camera_metadatajbb+0x454>
0x32458 <_ZN18ChiMetadataManager8GetInputEPK15camera_metadatajbb+0x398>
<_ZN18ChiMetadataManager8GetInputEPK15camera_metadatajbb+0x38c>
0x35000 <_ZN18ChiMetadataManager8GetInputEPK15camera_metadatajbb+0x298>
#0, 0x3240c <_ZN18ChiMetadataManager8GetInputEPK15camera_metadatajbb+0x34c>
0x35000 <_ZN18ChiMetadataManager8GetInputEPK15camera_metadatajbb+0x2a8>
<_ZN18ChiMetadataManager8GetInputEPK15camera_metadatajbb+0x2fc>
0xb000 <_ZN18ChiMetadataManager8GetInputEPK15camera_metadatajbb+0x214>
0xf000 <_ZN18ChiMetadataManager8GetInputEPK15camera_metadatajbb+0x244>
0xa000 <_ZN18ChiMetadataManager8GetInputEPK15camera_metadatajbb+0x234>
0xa000 <_ZN18ChiMetadataManager8GetInputEPK15camera_metadatajbb+0x238>
0xb000 <_ZN18ChiMetadataManager8GetInputEPK15camera_metadatajbb+0x260>
0xb000 <_ZN18ChiMetadataManager8GetInputEPK15camera_metadatajbb+0x284>
0xf000 <_ZN18ChiMetadataManager8GetInputEPK15camera_metadatajbb+0x298>
0xa000 <_ZN18ChiMetadataManager8GetInputEPK15camera_metadatajbb+0x288>
0xe000 <_ZN18ChiMetadataManager8GetInputEPK15camera_metadatajbb+0x29c>
<_ZN6ChiLog9LogSystemEPKcS1_S1_S1_iS1_z@plt>
0x32548 <_ZN18ChiMetadataManager8GetInputEPK15camera_metadatajbb+0x488>
<_ZN18ChiMetadataManager8GetInputEPK15camera_metadatajbb+0x5b0>
0x32458 <_ZN18ChiMetadataManager8GetInputEPK15camera_metadatajbb+0x398>
#0, 0x32530 <_ZN18ChiMetadataManager8GetInputEPK15camera_metadatajbb+0x470>
0x32530 <_ZN18ChiMetadataManager8GetInputEPK15camera_metadatajbb+0x470>
0x35000 <_ZN18ChiMetadataManager8GetInputEPK15camera_metadatajbb+0x3a4>
#0, 0x32508 <_ZN18ChiMetadataManager8GetInputEPK15camera_metadatajbb+0x448>
0x35000 <_ZN18ChiMetadataManager8GetInputEPK15camera_metadatajbb+0x3b4>
0xb000 <_ZN18ChiMetadataManager8GetInputEPK15camera_metadatajbb+0x310>
<_ZN18ChiMetadataManager8GetInputEPK15camera_metadatajbb+0x404>
0xf000 <_ZN18ChiMetadataManager8GetInputEPK15camera_metadatajbb+0x34c>
0xf000 <_ZN18ChiMetadataManager8GetInputEPK15camera_metadatajbb+0x350>
0xa000 <_ZN18ChiMetadataManager8GetInputEPK15camera_metadatajbb+0x340>
0xf000 <_ZN18ChiMetadataManager8GetInputEPK15camera_metadatajbb+0x38c>
0xb000 <_ZN18ChiMetadataManager8GetInputEPK15camera_metadatajbb+0x384>
0xa000 <_ZN18ChiMetadataManager8GetInputEPK15camera_metadatajbb+0x384>
0xf000 <_ZN18ChiMetadataManager8GetInputEPK15camera_metadatajbb+0x39c>
<_ZN6ChiLog9LogSystemEPKcS1_S1_S1_iS1_z@plt>
0x32548 <_ZN18ChiMetadataManager8GetInputEPK15camera_metadatajbb+0x488>
<_ZN18ChiMetadataManager8GetInputEPK15camera_metadatajbb+0x5b0>
0x32458 <_ZN18ChiMetadataManager8GetInputEPK15camera_metadatajbb+0x398>
<_ZN18ChiMetadataManager24RestoreNonstickyMetadataEPK15camera_metadataP11ChiMetadata@plt>
0x32670 <_ZN18ChiMetadataManager8GetInputEPK15camera_metadatajbb+0x5b0>
<_ZN18ChiMetadataManager8GetInputEPK15camera_metadatajbb+0x5e8>
<_ZN18ChiMetadataManager8GetInputEPK15camera_metadatajbb+0x5b0>
<_ZN18ChiMetadataManager8GetInputEPK15camera_metadatajbb+0x4d0>
<_ZN18ChiMetadataManager8GetInputEPK15camera_metadatajbb+0x5a4>
0x325ac <_ZN18ChiMetadataManager8GetInputEPK15camera_metadatajbb+0x4ec>
<_ZN18ChiMetadataManager10MetaClient12TrackBuffersERNSt3__16chrono10time_pointINS2_12steady_clockENS2_8durationIxNS1_5ratioILl1ELl1000000000EEEEEEEj@plt>
0x325c4 <_ZN18ChiMetadataManager8GetInputEPK15camera_metadatajbb+0x504>
<_ZN18ChiMetadataManager10MetaClient12TrackBuffersERNSt3__16chrono10time_pointINS2_12steady_clockENS2_8durationIxNS1_5ratioILl1ELl1000000000EEEEEEEj@plt>
0x325dc <_ZN18ChiMetadataManager8GetInputEPK15camera_metadatajbb+0x51c>
<_ZN18ChiMetadataManager10MetaClient12TrackBuffersERNSt3__16chrono10time_pointINS2_12steady_clockENS2_8durationIxNS1_5ratioILl1ELl1000000000EEEEEEEj@plt>
0x325fc <_ZN18ChiMetadataManager8GetInputEPK15camera_metadatajbb+0x53c>
<_ZN18ChiMetadataManager10MetaClient12TrackBuffersERNSt3__16chrono10time_pointINS2_12steady_clockENS2_8durationIxNS1_5ratioILl1ELl1000000000EEEEEEEj@plt>
0x32618 <_ZN18ChiMetadataManager8GetInputEPK15camera_metadatajbb+0x558>
<_ZN18ChiMetadataManager10MetaClient12TrackBuffersERNSt3__16chrono10time_pointINS2_12steady_clockENS2_8durationIxNS1_5ratioILl1ELl1000000000EEEEEEEj@plt>
0x32630 <_ZN18ChiMetadataManager8GetInputEPK15camera_metadatajbb+0x570>
<_ZN18ChiMetadataManager10MetaClient12TrackBuffersERNSt3__16chrono10time_pointINS2_12steady_clockENS2_8durationIxNS1_5ratioILl1ELl1000000000EEEEEEEj@plt>
0x32648 <_ZN18ChiMetadataManager8GetInputEPK15camera_metadatajbb+0x588>
<_ZN18ChiMetadataManager10MetaClient12TrackBuffersERNSt3__16chrono10time_pointINS2_12steady_clockENS2_8durationIxNS1_5ratioILl1ELl1000000000EEEEEEEj@plt>
0x32580 <_ZN18ChiMetadataManager8GetInputEPK15camera_metadatajbb+0x4c0>
<_ZN18ChiMetadataManager10MetaClient12TrackBuffersERNSt3__16chrono10time_pointINS2_12steady_clockENS2_8durationIxNS1_5ratioILl1ELl1000000000EEEEEEEj@plt>
<_ZN18ChiMetadataManager8GetInputEPK15camera_metadatajbb+0x4c0>
<_ZN18ChiMetadataManager8GetInputEPK15camera_metadatajbb+0x5e4>

<_ZN18ChiMetadataManager12TrackBuffersERNSt3__16chrono10time_pointINS1_12steady_clockENS1_8durationIxNS0_5ratioILl1ELl1000000000EEEEEEE+0x16c>
<_ZN18ChiMetadataManager12TrackBuffersERNSt3__16chrono10time_pointINS1_12steady_clockENS1_8durationIxNS0_5ratioILl1ELl1000000000EEEEEEE+0x150>
<_ZN18ChiMetadataManager12TrackBuffersERNSt3__16chrono10time_pointINS1_12steady_clockENS1_8durationIxNS0_5ratioILl1ELl1000000000EEEEEEE+0x74>
<_ZN18ChiMetadataManager12TrackBuffersERNSt3__16chrono10time_pointINS1_12steady_clockENS1_8durationIxNS0_5ratioILl1ELl1000000000EEEEEEE+0x148>
0x32740 <_ZN18ChiMetadataManager12TrackBuffersERNSt3__16chrono10time_pointINS1_12steady_clockENS1_8durationIxNS0_5ratioILl1ELl1000000000EEEEEEE+0x90>
<_ZN18ChiMetadataManager10MetaClient12TrackBuffersERNSt3__16chrono10time_pointINS2_12steady_clockENS2_8durationIxNS1_5ratioILl1ELl1000000000EEEEEEEj@plt>
0x32758 <_ZN18ChiMetadataManager12TrackBuffersERNSt3__16chrono10time_pointINS1_12steady_clockENS1_8durationIxNS0_5ratioILl1ELl1000000000EEEEEEE+0xa8>
<_ZN18ChiMetadataManager10MetaClient12TrackBuffersERNSt3__16chrono10time_pointINS2_12steady_clockENS2_8durationIxNS1_5ratioILl1ELl1000000000EEEEEEEj@plt>
0x32770 <_ZN18ChiMetadataManager12TrackBuffersERNSt3__16chrono10time_pointINS1_12steady_clockENS1_8durationIxNS0_5ratioILl1ELl1000000000EEEEEEE+0xc0>
<_ZN18ChiMetadataManager10MetaClient12TrackBuffersERNSt3__16chrono10time_pointINS2_12steady_clockENS2_8durationIxNS1_5ratioILl1ELl1000000000EEEEEEEj@plt>
0x32790 <_ZN18ChiMetadataManager12TrackBuffersERNSt3__16chrono10time_pointINS1_12steady_clockENS1_8durationIxNS0_5ratioILl1ELl1000000000EEEEEEE+0xe0>
<_ZN18ChiMetadataManager10MetaClient12TrackBuffersERNSt3__16chrono10time_pointINS2_12steady_clockENS2_8durationIxNS1_5ratioILl1ELl1000000000EEEEEEEj@plt>
0x327ac <_ZN18ChiMetadataManager12TrackBuffersERNSt3__16chrono10time_pointINS1_12steady_clockENS1_8durationIxNS0_5ratioILl1ELl1000000000EEEEEEE+0xfc>
<_ZN18ChiMetadataManager10MetaClient12TrackBuffersERNSt3__16chrono10time_pointINS2_12steady_clockENS2_8durationIxNS1_5ratioILl1ELl1000000000EEEEEEEj@plt>
0x327c4 <_ZN18ChiMetadataManager12TrackBuffersERNSt3__16chrono10time_pointINS1_12steady_clockENS1_8durationIxNS0_5ratioILl1ELl1000000000EEEEEEE+0x114>
<_ZN18ChiMetadataManager10MetaClient12TrackBuffersERNSt3__16chrono10time_pointINS2_12steady_clockENS2_8durationIxNS1_5ratioILl1ELl1000000000EEEEEEEj@plt>
0x327dc <_ZN18ChiMetadataManager12TrackBuffersERNSt3__16chrono10time_pointINS1_12steady_clockENS1_8durationIxNS0_5ratioILl1ELl1000000000EEEEEEE+0x12c>
<_ZN18ChiMetadataManager10MetaClient12TrackBuffersERNSt3__16chrono10time_pointINS2_12steady_clockENS2_8durationIxNS1_5ratioILl1ELl1000000000EEEEEEEj@plt>
0x32714 <_ZN18ChiMetadataManager12TrackBuffersERNSt3__16chrono10time_pointINS1_12steady_clockENS1_8durationIxNS0_5ratioILl1ELl1000000000EEEEEEE+0x64>
<_ZN18ChiMetadataManager10MetaClient12TrackBuffersERNSt3__16chrono10time_pointINS2_12steady_clockENS2_8durationIxNS1_5ratioILl1ELl1000000000EEEEEEEj@plt>
<_ZN18ChiMetadataManager12TrackBuffersERNSt3__16chrono10time_pointINS1_12steady_clockENS1_8durationIxNS0_5ratioILl1ELl1000000000EEEEEEE+0x64>

0x32930 <_ZN18ChiMetadataManager21GetMetadataFromHandleEPv+0x110>
0x32930 <_ZN18ChiMetadataManager21GetMetadataFromHandleEPv+0x110>
0x35000 <_ZN18ChiMetadataManager21GetMetadataFromHandleEPv+0x6c>
#1, 0x32930 <_ZN18ChiMetadataManager21GetMetadataFromHandleEPv+0x110>
0x35000 <_ZN18ChiMetadataManager21GetMetadataFromHandleEPv+0x7c>
0xb000 <_ZN18ChiMetadataManager12TrackBuffersERNSt3__16chrono10time_pointINS1_12steady_clockENS1_8durationIxNS0_5ratioILl1ELl1000000000EEEEEEE+0x148>
<_ZN18ChiMetadataManager21GetMetadataFromHandleEPv+0xcc>
0xf000 <_ZN18ChiMetadataManager21GetMetadataFromHandleEPv+0x14>
0xd000 <_ZN18ChiMetadataManager21GetMetadataFromHandleEPv+0x10>
0xf000 <_ZN18ChiMetadataManager21GetMetadataFromHandleEPv+0x1c>
0xb000 <_ZN18ChiMetadataManager21GetMetadataFromHandleEPv+0x44>
0xe000 <_ZN18ChiMetadataManager21GetMetadataFromHandleEPv+0x58>
0xf000 <_ZN18ChiMetadataManager21GetMetadataFromHandleEPv+0x60>
0xf000 <_ZN18ChiMetadataManager21GetMetadataFromHandleEPv+0x64>
<_ZN6ChiLog9LogSystemEPKcS1_S1_S1_iS1_z@plt>
<_ZN18ChiMetadataManager21GetMetadataFromHandleEPv+0x138>

<_ZN18ChiMetadataManager13ReleaseHolderEjjP11ChiMetadata+0x2a8>
<_ZNSt3__15mutex4lockEv@plt>
<_ZN18ChiMetadataManager13ReleaseHolderEjjP11ChiMetadata+0xfc>
0xb000 <_ZN18ChiMetadataManager21GetMetadataFromHandleEPv+0x118>
0xf000 <_ZN18ChiMetadataManager13ReleaseHolderEjjP11ChiMetadata+0x10>
0xd000 <_ZN18ChiMetadataManager13ReleaseHolderEjjP11ChiMetadata+0xc>
0xa000 <_ZN18ChiMetadataManager13ReleaseHolderEjjP11ChiMetadata+0x4>
0xc000 <_ZN18ChiMetadataManager13ReleaseHolderEjjP11ChiMetadata+0x10>
<_ZN6ChiLog9LogSystemEPKcS1_S1_S1_iS1_z@plt>
<_ZN18ChiMetadataManager13ReleaseHolderEjjP11ChiMetadata+0x2a4>
<_ZN18ChiMetadataManager13ReleaseHolderEjjP11ChiMetadata+0x264>
<_ZN18ChiMetadataManager13ReleaseHolderEjjP11ChiMetadata+0xe8>
0x33000 <_ZN18ChiMetadataManager13ReleaseHolderEjjP11ChiMetadata+0x154>
<_ZN18ChiMetadataManager13ReleaseHolderEjjP11ChiMetadata+0x22c>
0x32af8 <_ZN18ChiMetadataManager13ReleaseHolderEjjP11ChiMetadata+0x198>
0x33000 <_ZN18ChiMetadataManager13ReleaseHolderEjjP11ChiMetadata+0x178>
<_ZN18ChiMetadataManager13ReleaseHolderEjjP11ChiMetadata+0x248>
0x35000 <_ZN18ChiMetadataManager13ReleaseHolderEjjP11ChiMetadata+0x1a4>
#5, 0x32a44 <_ZN18ChiMetadataManager13ReleaseHolderEjjP11ChiMetadata+0xe4>
0x35000 <_ZN18ChiMetadataManager13ReleaseHolderEjjP11ChiMetadata+0x1b4>
<_ZN18ChiMetadataManager13ReleaseHolderEjjP11ChiMetadata+0x74>
0xb000 <_ZN18ChiMetadataManager13ReleaseHolderEjjP11ChiMetadata+0x120>
0xf000 <_ZN18ChiMetadataManager13ReleaseHolderEjjP11ChiMetadata+0x154>
0xb000 <_ZN18ChiMetadataManager13ReleaseHolderEjjP11ChiMetadata+0x148>
0xa000 <_ZN18ChiMetadataManager13ReleaseHolderEjjP11ChiMetadata+0x148>
<_ZN18ChiMetadataManager13ReleaseHolderEjjP11ChiMetadata+0x74>
<_ZN18ChiMetadataManager13ReleaseHolderEjjP11ChiMetadata+0x164>
<_ZN18ChiMetadataManager13ReleaseHolderEjjP11ChiMetadata+0x184>
<_ZNSt3__15mutex6unlockEv@plt>
<_ZN18ChiMetadataManager13ReleaseHolderEjjP11ChiMetadata+0x2ac>

0x32c70 <_ZN18ChiMetadataManager7ReleaseEP11ChiMetadata+0x60>
0x32c4c <_ZN18ChiMetadataManager7ReleaseEP11ChiMetadata+0x3c>
<_ZN18ChiMetadataManager7ReleaseEP11ChiMetadata+0x3c>
<_ZN18ChiMetadataManager13ReleaseHolderEjjP11ChiMetadata@plt>
<_ZN18ChiMetadataManager7ReleaseEP11ChiMetadata+0x60>
0x33000 <_ZN18ChiMetadataManager7ReleaseEP11ChiMetadata+0x4c>
<_ZN18ChiMetadataManager7ReleaseEP11ChiMetadata+0x70>
<_ZN18ChiMetadataManager7ReleaseEP11ChiMetadata+0x58>

<_ZN18ChiMetadataManager21ReleaseHolderByHandleEjjPv+0x288>
<_ZNSt3__15mutex4lockEv@plt>
<_ZN18ChiMetadataManager21ReleaseHolderByHandleEjjPv+0x104>
0xb000 <_ZN18ChiMetadataManager7ReleaseEP11ChiMetadata+0x74>
0xf000 <_ZN18ChiMetadataManager21ReleaseHolderByHandleEjjPv+0x10>
0xd000 <_ZN18ChiMetadataManager21ReleaseHolderByHandleEjjPv+0xc>
0xd000 <_ZN18ChiMetadataManager21ReleaseHolderByHandleEjjPv+0x10>
0xc000 <_ZN18ChiMetadataManager21ReleaseHolderByHandleEjjPv+0x10>
<_ZN6ChiLog9LogSystemEPKcS1_S1_S1_iS1_z@plt>
<_ZN18ChiMetadataManager21ReleaseHolderByHandleEjjPv+0x284>
<_ZN18ChiMetadataManager21ReleaseHolderByHandleEjjPv+0x244>
<_ZN18ChiMetadataManager21ReleaseHolderByHandleEjjPv+0xf0>
0x33000 <_ZN18ChiMetadataManager21ReleaseHolderByHandleEjjPv+0x160>
<_ZN18ChiMetadataManager21ReleaseHolderByHandleEjjPv+0x228>
0x32e34 <_ZN18ChiMetadataManager21ReleaseHolderByHandleEjjPv+0x18c>
0x35000 <_ZN18ChiMetadataManager21ReleaseHolderByHandleEjjPv+0x198>
#5, 0x32d94 <_ZN18ChiMetadataManager21ReleaseHolderByHandleEjjPv+0xec>
0x35000 <_ZN18ChiMetadataManager21ReleaseHolderByHandleEjjPv+0x1a8>
<_ZN18ChiMetadataManager21ReleaseHolderByHandleEjjPv+0x78>
0xb000 <_ZN18ChiMetadataManager21ReleaseHolderByHandleEjjPv+0x118>
0xf000 <_ZN18ChiMetadataManager21ReleaseHolderByHandleEjjPv+0x148>
0xb000 <_ZN18ChiMetadataManager21ReleaseHolderByHandleEjjPv+0x13c>
0xd000 <_ZN18ChiMetadataManager21ReleaseHolderByHandleEjjPv+0x148>
<_ZN18ChiMetadataManager21ReleaseHolderByHandleEjjPv+0x78>
<_ZN18ChiMetadataManager21ReleaseHolderByHandleEjjPv+0x174>
<_ZNSt3__15mutex6unlockEv@plt>
<_ZN18ChiMetadataManager21ReleaseHolderByHandleEjjPv+0x28c>

<_ZNSt3__15mutex4lockEv@plt>
<_ZN18ChiMetadataManager33GetAndroidFrameworkOutputMetadataEb+0x84>
<_ZN18ChiMetadataManager33GetAndroidFrameworkOutputMetadataEb+0x570>
<_ZN18ChiMetadataManager33GetAndroidFrameworkOutputMetadataEb+0xb8>
<_ZN18ChiMetadataManager33GetAndroidFrameworkOutputMetadataEb+0x70>
0x32fa8 <_ZN18ChiMetadataManager33GetAndroidFrameworkOutputMetadataEb+0x70>
0x3316c <_ZN18ChiMetadataManager33GetAndroidFrameworkOutputMetadataEb+0x234>
<_ZN18ChiMetadataManager33GetAndroidFrameworkOutputMetadataEb+0x350>
<_ZN18ChiMetadataManager33GetAndroidFrameworkOutputMetadataEb+0x124>
0x3305c <_ZN18ChiMetadataManager33GetAndroidFrameworkOutputMetadataEb+0x124>
<_ZN18ChiMetadataManager33GetAndroidFrameworkOutputMetadataEb+0x1e4>
<_ZN18ChiMetadataManager33GetAndroidFrameworkOutputMetadataEb+0x32c>
0x35000 <_ZN18ChiMetadataManager33GetAndroidFrameworkOutputMetadataEb+0x12c>
#0, 0x33114 <_ZN18ChiMetadataManager33GetAndroidFrameworkOutputMetadataEb+0x1dc>
0x35000 <_ZN18ChiMetadataManager33GetAndroidFrameworkOutputMetadataEb+0x13c>
<_ZN18ChiMetadataManager33GetAndroidFrameworkOutputMetadataEb+0x190>
0xb000 <_ZN18ChiMetadataManager33GetAndroidFrameworkOutputMetadataEb+0xa8>
0xf000 <_ZN18ChiMetadataManager33GetAndroidFrameworkOutputMetadataEb+0xd4>
0xc000 <_ZN18ChiMetadataManager33GetAndroidFrameworkOutputMetadataEb+0xcc>
0x10000 <_ZN18ChiMetadataManager33GetAndroidFrameworkOutputMetadataEb+0xe0>
0xb000 <_ZN18ChiMetadataManager33GetAndroidFrameworkOutputMetadataEb+0xf0>
0xf000 <_ZN18ChiMetadataManager33GetAndroidFrameworkOutputMetadataEb+0x11c>
0xb000 <_ZN18ChiMetadataManager33GetAndroidFrameworkOutputMetadataEb+0x114>
0x10000 <_ZN18ChiMetadataManager33GetAndroidFrameworkOutputMetadataEb+0x12c>
0xf000 <_ZN18ChiMetadataManager33GetAndroidFrameworkOutputMetadataEb+0x12c>
<_ZN6ChiLog9LogSystemEPKcS1_S1_S1_iS1_z@plt>
<_ZN18ChiMetadataManager33GetAndroidFrameworkOutputMetadataEb+0x350>
<_ZN18ChiMetadataManager33GetAndroidFrameworkOutputMetadataEb+0x570>
0x334b0 <_ZN18ChiMetadataManager33GetAndroidFrameworkOutputMetadataEb+0x578>
<_ZN18ChiMetadataManager33GetAndroidFrameworkOutputMetadataEb+0x23c>
0x33178 <_ZN18ChiMetadataManager33GetAndroidFrameworkOutputMetadataEb+0x240>
<_ZN18ChiMetadataManager33GetAndroidFrameworkOutputMetadataEb+0x24c>
<_ZN18ChiMetadataManager33GetAndroidFrameworkOutputMetadataEb+0xbc>
<_ZN18ChiMetadataManager33GetAndroidFrameworkOutputMetadataEb+0x2ac>
<_ZN18ChiMetadataManager33GetAndroidFrameworkOutputMetadataEb+0x2b8>
<_ZN18ChiMetadataManager33GetAndroidFrameworkOutputMetadataEb+0x2b8>
#0, 0x331f0 <_ZN18ChiMetadataManager33GetAndroidFrameworkOutputMetadataEb+0x2b8>
<_ZN18ChiMetadataManager33GetAndroidFrameworkOutputMetadataEb+0x454>
<_ZN18ChiMetadataManager33GetAndroidFrameworkOutputMetadataEb+0x2d8>
<_ZN18ChiMetadataManager33GetAndroidFrameworkOutputMetadataEb+0x30c>
<_ZN18ChiMetadataManager33GetAndroidFrameworkOutputMetadataEb+0x2bc>
<_ZN18ChiMetadataManager33GetAndroidFrameworkOutputMetadataEb+0x30c>
<_ZN18ChiMetadataManager21AndroidMetadataHolderD2Ev@plt>
<_ZN18ChiMetadataManager33GetAndroidFrameworkOutputMetadataEb+0x2f4>
0x33264 <_ZN18ChiMetadataManager33GetAndroidFrameworkOutputMetadataEb+0x32c>
0x334b8 <_ZN18ChiMetadataManager33GetAndroidFrameworkOutputMetadataEb+0x580>
<_ZN18ChiMetadataManager21AndroidMetadataHolderD2Ev@plt>
0x35000 <_ZN18ChiMetadataManager33GetAndroidFrameworkOutputMetadataEb+0x358>
#5, 0x33350 <_ZN18ChiMetadataManager33GetAndroidFrameworkOutputMetadataEb+0x418>
0x35000 <_ZN18ChiMetadataManager33GetAndroidFrameworkOutputMetadataEb+0x368>
0xb000 <_ZN18ChiMetadataManager33GetAndroidFrameworkOutputMetadataEb+0x2c4>
<_ZN18ChiMetadataManager33GetAndroidFrameworkOutputMetadataEb+0x3c8>
0xf000 <_ZN18ChiMetadataManager33GetAndroidFrameworkOutputMetadataEb+0x300>
0xd000 <_ZN18ChiMetadataManager33GetAndroidFrameworkOutputMetadataEb+0x2fc>
0x10000 <_ZN18ChiMetadataManager33GetAndroidFrameworkOutputMetadataEb+0x30c>
0xd000 <_ZN18ChiMetadataManager33GetAndroidFrameworkOutputMetadataEb+0x344>
0xf000 <_ZN18ChiMetadataManager33GetAndroidFrameworkOutputMetadataEb+0x354>
0x10000 <_ZN18ChiMetadataManager33GetAndroidFrameworkOutputMetadataEb+0x35c>
0xb000 <_ZN18ChiMetadataManager33GetAndroidFrameworkOutputMetadataEb+0x34c>
<_ZN6ChiLog9LogSystemEPKcS1_S1_S1_iS1_z@plt>
<_ZNSt3__15mutex6unlockEv@plt>
<_ZN18ChiMetadataManager33GetAndroidFrameworkOutputMetadataEb+0x574>
<_ZN18ChiMetadataManager33GetAndroidFrameworkOutputMetadataEb+0x2a8>
<_ZN18ChiMetadataManager33GetAndroidFrameworkOutputMetadataEb+0x538>
<_ZN18ChiMetadataManager33GetAndroidFrameworkOutputMetadataEb+0x488>
0x33474 <_ZN18ChiMetadataManager33GetAndroidFrameworkOutputMetadataEb+0x53c>
<_ZN18ChiMetadataManager33GetAndroidFrameworkOutputMetadataEb+0x2d8>
<_ZN18ChiMetadataManager33GetAndroidFrameworkOutputMetadataEb+0x550>
<_ZN18ChiMetadataManager33GetAndroidFrameworkOutputMetadataEb+0x2d8>
<_ZNKSt3__120__vector_base_commonILb1EE20__throw_length_errorEv@plt>

<_ZNSt3__15mutex4lockEv@plt>
<_ZN18ChiMetadataManager37ReleaseAndroidFrameworkOutputMetadataEPK15camera_metadata+0x7c>
<_ZN18ChiMetadataManager37ReleaseAndroidFrameworkOutputMetadataEPK15camera_metadata+0x140>
<_ZN18ChiMetadataManager37ReleaseAndroidFrameworkOutputMetadataEPK15camera_metadata+0x50>
0x35000 <_ZN18ChiMetadataManager37ReleaseAndroidFrameworkOutputMetadataEPK15camera_metadata+0x84>
#0, 0x335f8 <_ZN18ChiMetadataManager37ReleaseAndroidFrameworkOutputMetadataEPK15camera_metadata+0x138>
0x35000 <_ZN18ChiMetadataManager37ReleaseAndroidFrameworkOutputMetadataEPK15camera_metadata+0x98>
<_ZN18ChiMetadataManager37ReleaseAndroidFrameworkOutputMetadataEPK15camera_metadata+0xec>
0xb000 <_ZN18ChiMetadataManager37ReleaseAndroidFrameworkOutputMetadataEPK15camera_metadata+0x4>
0xf000 <_ZN18ChiMetadataManager37ReleaseAndroidFrameworkOutputMetadataEPK15camera_metadata+0x30>
0xf000 <_ZN18ChiMetadataManager37ReleaseAndroidFrameworkOutputMetadataEPK15camera_metadata+0x34>
0xc000 <_ZN18ChiMetadataManager37ReleaseAndroidFrameworkOutputMetadataEPK15camera_metadata+0x2c>
0xb000 <_ZN18ChiMetadataManager37ReleaseAndroidFrameworkOutputMetadataEPK15camera_metadata+0x4c>
0xf000 <_ZN18ChiMetadataManager37ReleaseAndroidFrameworkOutputMetadataEPK15camera_metadata+0x78>
0xb000 <_ZN18ChiMetadataManager37ReleaseAndroidFrameworkOutputMetadataEPK15camera_metadata+0x70>
0xc000 <_ZN18ChiMetadataManager37ReleaseAndroidFrameworkOutputMetadataEPK15camera_metadata+0x78>
0xd000 <_ZN18ChiMetadataManager37ReleaseAndroidFrameworkOutputMetadataEPK15camera_metadata+0x80>
<_ZN6ChiLog9LogSystemEPKcS1_S1_S1_iS1_z@plt>
<_ZN18ChiMetadataManager37ReleaseAndroidFrameworkOutputMetadataEPK15camera_metadata+0x158>
<_ZN8ChxUtils15AndroidMetadata13ResetMetadataEP15camera_metadata@plt>
0x35000 <_ZN18ChiMetadataManager37ReleaseAndroidFrameworkOutputMetadataEPK15camera_metadata+0x160>
#5, 0x336c8 <_ZN18ChiMetadataManager37ReleaseAndroidFrameworkOutputMetadataEPK15camera_metadata+0x208>
0x35000 <_ZN18ChiMetadataManager37ReleaseAndroidFrameworkOutputMetadataEPK15camera_metadata+0x170>
0xb000 <_ZN18ChiMetadataManager37ReleaseAndroidFrameworkOutputMetadataEPK15camera_metadata+0xcc>
<_ZN18ChiMetadataManager37ReleaseAndroidFrameworkOutputMetadataEPK15camera_metadata+0x1c4>
0xf000 <_ZN18ChiMetadataManager37ReleaseAndroidFrameworkOutputMetadataEPK15camera_metadata+0x108>
0xb000 <_ZN18ChiMetadataManager37ReleaseAndroidFrameworkOutputMetadataEPK15camera_metadata+0xfc>
0xc000 <_ZN18ChiMetadataManager37ReleaseAndroidFrameworkOutputMetadataEPK15camera_metadata+0x104>
0xd000 <_ZN18ChiMetadataManager37ReleaseAndroidFrameworkOutputMetadataEPK15camera_metadata+0x140>
0xf000 <_ZN18ChiMetadataManager37ReleaseAndroidFrameworkOutputMetadataEPK15camera_metadata+0x150>
0xc000 <_ZN18ChiMetadataManager37ReleaseAndroidFrameworkOutputMetadataEPK15camera_metadata+0x148>
0xb000 <_ZN18ChiMetadataManager37ReleaseAndroidFrameworkOutputMetadataEPK15camera_metadata+0x148>
<_ZN6ChiLog9LogSystemEPKcS1_S1_S1_iS1_z@plt>
<_ZNSt3__15mutex6unlockEv@plt>

<_ZN18ChiMetadataManager15PrintAllBuffersEjj+0x580>
<_ZNSt3__15mutex4lockEv@plt>
<_ZN18ChiMetadataManager15PrintAllBuffersEjj+0xa0>
<_ZN18ChiMetadataManager15PrintAllBuffersEjj+0x57c>
<_ZN18ChiMetadataManager15PrintAllBuffersEjj+0x53c>
<_ZN18ChiMetadataManager15PrintAllBuffersEjj+0xe8>
<_ZN18ChiMetadataManager15PrintAllBuffersEjj+0x348>
0x33878 <_ZN18ChiMetadataManager15PrintAllBuffersEjj+0x190>
<_ZNSt3__112basic_stringIcNS_11char_traitsIcEENS_9allocatorIcEEE6__initEPKcm@plt>
<_ZNSt3__112basic_stringIcNS_11char_traitsIcEENS_9allocatorIcEEE6appendEPKcm@plt>
<_ZNSt3__112basic_stringIcNS_11char_traitsIcEENS_9allocatorIcEEE6appendEPKcm@plt>
#0, 0x339bc <_ZN18ChiMetadataManager15PrintAllBuffersEjj+0x2d4>
#0, 0x339cc <_ZN18ChiMetadataManager15PrintAllBuffersEjj+0x2e4>
#0, 0x33874 <_ZN18ChiMetadataManager15PrintAllBuffersEjj+0x18c>
0x33920 <_ZN18ChiMetadataManager15PrintAllBuffersEjj+0x238>
<_ZNSt3__112basic_stringIcNS_11char_traitsIcEENS_9allocatorIcEEE6__initEPKcm@plt>
<_ZNSt3__112basic_stringIcNS_11char_traitsIcEENS_9allocatorIcEEE6appendEPKcm@plt>
<_ZNSt3__112basic_stringIcNS_11char_traitsIcEENS_9allocatorIcEEE6appendEPKcm@plt>
#0, 0x339e0 <_ZN18ChiMetadataManager15PrintAllBuffersEjj+0x2f8>
#0, 0x339f0 <_ZN18ChiMetadataManager15PrintAllBuffersEjj+0x308>
#0, 0x3391c <_ZN18ChiMetadataManager15PrintAllBuffersEjj+0x234>
0x337c0 <_ZN18ChiMetadataManager15PrintAllBuffersEjj+0xd8>
<_ZNSt3__112basic_stringIcNS_11char_traitsIcEENS_9allocatorIcEEE6__initEPKcm@plt>
<_ZNSt3__112basic_stringIcNS_11char_traitsIcEENS_9allocatorIcEEE6appendEPKcm@plt>
<_ZNSt3__112basic_stringIcNS_11char_traitsIcEENS_9allocatorIcEEE6appendEPKcm@plt>
#0, 0x33a04 <_ZN18ChiMetadataManager15PrintAllBuffersEjj+0x31c>
#0, 0x33a14 <_ZN18ChiMetadataManager15PrintAllBuffersEjj+0x32c>
#0, 0x337bc <_ZN18ChiMetadataManager15PrintAllBuffersEjj+0xd4>
<_ZN18ChiMetadataManager15PrintAllBuffersEjj+0x33c>
#0, 0x33864 <_ZN18ChiMetadataManager15PrintAllBuffersEjj+0x17c>
#0, 0x3386c <_ZN18ChiMetadataManager15PrintAllBuffersEjj+0x184>
<_ZN18ChiMetadataManager15PrintAllBuffersEjj+0x18c>
#0, 0x3390c <_ZN18ChiMetadataManager15PrintAllBuffersEjj+0x224>
#0, 0x33914 <_ZN18ChiMetadataManager15PrintAllBuffersEjj+0x22c>
<_ZN18ChiMetadataManager15PrintAllBuffersEjj+0x234>
#0, 0x339b0 <_ZN18ChiMetadataManager15PrintAllBuffersEjj+0x2c8>
#0, 0x337bc <_ZN18ChiMetadataManager15PrintAllBuffersEjj+0xd4>
<_ZN18ChiMetadataManager15PrintAllBuffersEjj+0xd4>
0x33000 <_ZN18ChiMetadataManager15PrintAllBuffersEjj+0x34c>
<_ZN18ChiMetadataManager15PrintAllBuffersEjj+0x520>
0x35000 <_ZN18ChiMetadataManager15PrintAllBuffersEjj+0x36c>
#3, 0x33bf4 <_ZN18ChiMetadataManager15PrintAllBuffersEjj+0x50c>
0x35000 <_ZN18ChiMetadataManager15PrintAllBuffersEjj+0x37c>
<_ZN18ChiMetadataManager15PrintAllBuffersEjj+0x448>
0xb000 <_ZN18ChiMetadataManager15PrintAllBuffersEjj+0x2e8>
0xf000 <_ZN18ChiMetadataManager15PrintAllBuffersEjj+0x358>
0xf000 <_ZN18ChiMetadataManager15PrintAllBuffersEjj+0x360>
0xe000 <_ZN18ChiMetadataManager15PrintAllBuffersEjj+0x390>
0xb000 <_ZN18ChiMetadataManager15PrintAllBuffersEjj+0x3a8>
0xf000 <_ZN18ChiMetadataManager15PrintAllBuffersEjj+0x418>
0xe000 <_ZN18ChiMetadataManager15PrintAllBuffersEjj+0x41c>
0xe000 <_ZN18ChiMetadataManager15PrintAllBuffersEjj+0x444>
0xd000 <_ZN18ChiMetadataManager15PrintAllBuffersEjj+0x458>
<_ZN6ChiLog9LogSystemEPKcS1_S1_S1_iS1_z@plt>
#0, 0x33774 <_ZN18ChiMetadataManager15PrintAllBuffersEjj+0x8c>
<_ZN18ChiMetadataManager15PrintAllBuffersEjj+0x8c>
<_ZN18ChiMetadataManager15PrintAllBuffersEjj+0x35c>
<_ZNSt3__15mutex6unlockEv@plt>
<_ZN18ChiMetadataManager15PrintAllBuffersEjj+0x584>

0x33cac <_ZN18ChiMetadataManager15PrintAllBuffersEj+0x3c>
<_ZN18ChiMetadataManager15PrintAllBuffersEj+0x3c>
<_ZN18ChiMetadataManager15PrintAllBuffersEjj@plt>

<_ZNK28ChiFeature2Statsregeneration20MergeAWBFrameControlEP24ChiFeature2RequestObject+0xa20>
<_ZNK28ChiFeature2Statsregeneration20MergeAWBFrameControlEP24ChiFeature2RequestObject+0xa28>
<_ZNK28ChiFeature2Statsregeneration20MergeAWBFrameControlEP24ChiFeature2RequestObject+0xa58>
<_ZNK28ChiFeature2Statsregeneration20MergeAWBFrameControlEP24ChiFeature2RequestObject+0x1630>



<_ZN5Mutex15GetNativeHandleEv+0x10>

<_ZN9Condition9BroadcastEv+0x8>

<_ZN9Semaphore7DestroyEv+0xd8>

<_ZN9Semaphore7DestroyEv+0x70>

<_ZN9Semaphore7DestroyEv+0x168>

<_ZN9Semaphore7DestroyEv+0x170>

<_ZN9Semaphore7DestroyEv+0x190>

<_ZN9Semaphore7DestroyEv+0x38>

<_ZN9Semaphore7DestroyEv+0x88>

<_ZN9Semaphore7DestroyEv+0x1a0>

<_ZN9Semaphore7DestroyEv+0x1b0>

<_ZN9Semaphore7DestroyEv+0x1c0>

<_ZN9Semaphore7DestroyEv+0x260>

<_ZN9Semaphore7DestroyEv+0x290>

<_ZN9Semaphore7DestroyEv+0x2c0>

<_ZN9Semaphore7DestroyEv+0x2c8>

<_ZN9Semaphore7DestroyEv+0x300>


<_ZN9Semaphore7DestroyEv+0x328>

<_ZN9Semaphore7DestroyEv+0x370>

<_ZN9Semaphore7DestroyEv+0x3a0>

<_ZN9Semaphore7DestroyEv+0x3c0>

<_ZN9Semaphore7DestroyEv+0x3c8>

<_ZN9Semaphore7DestroyEv+0x3d0>

<_ZN9Semaphore7DestroyEv+0x3d8>

<_ZN9Semaphore7DestroyEv+0x3f0>

<_ZN9Semaphore7DestroyEv+0x3f8>

<_ZN9Semaphore7DestroyEv+0x410>

<_ZN9Semaphore7DestroyEv+0x428>

<_ZN9Semaphore7DestroyEv+0x440>

<_ZN9Semaphore7DestroyEv+0x510>

<_ZN9Semaphore7DestroyEv+0x520>

<_ZN9Semaphore7DestroyEv+0x620>

<_ZN9Semaphore7DestroyEv+0x6a8>

<_ZN9Semaphore7DestroyEv+0x7e0>

<_ZN9Semaphore7DestroyEv+0x878>

<_ZN9Semaphore7DestroyEv+0x948>
<_ZNK28ChiFeature2Statsregeneration20MergeAWBFrameControlEP24ChiFeature2RequestObject+0xa50>

<_ZN9Semaphore7DestroyEv+0x368>

<_ZN9Semaphore7DestroyEv+0xad8>

<_ZN9Semaphore7DestroyEv+0xae8>

<_ZN9Semaphore7DestroyEv+0xc20>

<_ZN9Semaphore7DestroyEv+0xc30>

<_ZN9Semaphore7DestroyEv+0xcc8>

<_ZN9Semaphore7DestroyEv+0xcf0>

<_ZN9Semaphore7DestroyEv+0xe28>

<_ZN9Semaphore7DestroyEv+0xea0>

<_ZN9Semaphore7DestroyEv+0xec0>

<_ZN9Semaphore7DestroyEv+0x1358>

<_ZN9Semaphore7DestroyEv+0x15b0>

<_ZN9Semaphore7DestroyEv+0x1750>

<_ZN9Semaphore7DestroyEv+0x1830>

<_ZN9Semaphore7DestroyEv+0x1840>

<_ZN9Semaphore7DestroyEv+0x1908>

<_ZN9Semaphore7DestroyEv+0x1a78>

<_ZN9Semaphore7DestroyEv+0x1b10>

<_ZN9Semaphore7DestroyEv+0x1c38>

<_ZN9Semaphore7DestroyEv+0x1c68>

<_ZN9Semaphore7DestroyEv+0x1d48>

<_ZN9Semaphore7DestroyEv+0x1eb8>

<_ZN9Semaphore7DestroyEv+0x2028>

<_ZN9Semaphore7DestroyEv+0x21e0>

<_ZN9Semaphore7DestroyEv+0x2390>

<_ZN9Semaphore7DestroyEv+0x2528>

<_ZN9Semaphore7DestroyEv+0x26d0>

<_ZN9Semaphore7DestroyEv+0x2810>

<_ZN9Semaphore7DestroyEv+0x2938>

<_ZN9Semaphore7DestroyEv+0x2a78>

<_ZN9Semaphore7DestroyEv+0x2d80>

<_ZN9Semaphore7DestroyEv+0x2f90>

<_ZN9Semaphore7DestroyEv+0x33f0>

<_ZN9Semaphore7DestroyEv+0x3480>

<_ZN9Semaphore7DestroyEv+0x3590>

<_ZN9Semaphore7DestroyEv+0x3650>

<_ZN9Semaphore7DestroyEv+0x37b0>

<_ZN9Semaphore7DestroyEv+0x3928>

<_ZN9Semaphore7DestroyEv+0x3bb8>

<_ZN9Semaphore7DestroyEv+0x3bd8>

<_ZN9Semaphore7DestroyEv+0x3dd0>

<_ZN9Semaphore7DestroyEv+0x3ef0>

<_ZN9Semaphore7DestroyEv+0x3f48>

<_ZN9Semaphore7DestroyEv+0x3f98>

<_ZN9Semaphore7DestroyEv+0x4220>

<_ZN9Semaphore7DestroyEv+0x42f0>

<_ZN9Semaphore7DestroyEv+0x4380>

<_ZN9Semaphore7DestroyEv+0x44e8>

<_ZN9Semaphore7DestroyEv+0x4530>

<_ZN9Semaphore7DestroyEv+0x4538>

<_ZN9Semaphore7DestroyEv+0x4bf8>

<_ZN9Semaphore7DestroyEv+0x50f0>

<_ZN9Semaphore7DestroyEv+0x51b8>

<_ZN9Semaphore7DestroyEv+0x55f8>

<_ZN9Semaphore7DestroyEv+0x5698>

<_ZN9Semaphore7DestroyEv+0x3000>

<_ZN9Semaphore7DestroyEv+0x3150>

<_ZN9Semaphore7DestroyEv+0x32a0>

<_ZN9Semaphore7DestroyEv+0x4fa0>

<_ZN9Semaphore7DestroyEv+0x58e0>

<_ZN9Semaphore7DestroyEv+0x5a48>

<_ZN9Semaphore7DestroyEv+0x5b18>

<_ZN9Semaphore7DestroyEv+0x5bc0>

<_ZN9Semaphore7DestroyEv+0x5d30>

<_ZN11ChiMetadata10InitializeEPKjji+0x170>

<_ZN11ChiMetadata10InitializeEPKjji+0x4b0>

<_ZN11ChiMetadata10InitializeEPKjji+0x4b8>

<_ZN11ChiMetadata10InitializeEPKjji+0x4d8>

<_ZN11ChiMetadata10InitializeEPKjji+0x4e0>

<_ZN11ChiMetadata10InitializeEPKjji+0x540>

<_ZN11ChiMetadata6SetTagEjPKvjj+0x78>

<_ZN11ChiMetadata8Iterator3GetER16ChiMetadataEntry+0x60>

<_ZN18ChiMetadataManager21AndroidMetadataHolderD2Ev+0x158>

<_ZN18ChiMetadataManager20RegisterSharedClientEPjjj16ChiMetadataUsage+0xc58>

<_ZN18ChiMetadataManager20RegisterSharedClientEPjjj16ChiMetadataUsage+0xc68>

<_ZN18ChiMetadataManager20RegisterSharedClientEPjjj16ChiMetadataUsage+0x10c8>

<_ZN18ChiMetadataManager20RegisterSharedClientEPjjj16ChiMetadataUsage+0x10e8>

0x35000 <_ZN7android8hardware11hidl_stringC1EPKc@plt+0x4>

0x35000 <_ZN7android8hardware11hidl_stringC1ERKNSt3__112basic_stringIcNS2_11char_traitsIcEENS2_9allocatorIcEEEE@plt+0x4>

0x35000 <_ZNSt3__112basic_stringIcNS_11char_traitsIcEENS_9allocatorIcEEEC1ERKS5_@plt+0x4>

0x35000 <_ZN7android8hardware11hidl_stringD1Ev@plt+0x4>

0x35000 <_ZN15ChiFeature2Base10InitializeEP26ChiFeature2CreateInputInfo@plt+0x4>

0x35000 <_ZN6ChiLog9LogSystemEPKcS1_S1_S1_iS1_z@plt+0x4>

0x35000 <_ZNK15ChiFeature2Base21GetFeaturePrivContextEP24ChiFeature2RequestObject@plt+0x4>

0x35000 <_ZNK15ChiFeature2Base26IsPortEnabledInFinalOutputEPK24ChiFeature2RequestObject21ChiFeature2Identifierh@plt+0x4>

0x35000 <_ZNK15ChiFeature2Base21SetFeaturePrivContextEP24ChiFeature2RequestObjectPv@plt+0x4>

0x35000 <_ZNK15ChiFeature2Base19GetCurrentStageInfoEP24ChiFeature2RequestObjectP20ChiFeature2StageInfo@plt+0x4>

0x35000 <_ZNK15ChiFeature2Base25PopulatePortConfigurationEP24ChiFeature2RequestObjectPK21ChiFeature2PortIdListS4_@plt+0x4>

0x35000 <_ZN22CHITargetBufferManager22GetTargetBufferManagerEPv@plt+0x4>

0x35000 <_ZN22CHITargetBufferManager9GetTargetEPvm@plt+0x4>

0x35000 <_ZN24ChiFeature2RequestObject13SetBufferInfoE31ChiFeature2RequestObjectOpsTypePK21ChiFeature2IdentifierPvmihh@plt+0x4>

0x35000 <_ZNK15ChiFeature2Base22SubmitRequestToSessionEP24ChiFeature2RequestObject@plt+0x4>

0x35000 <_ZNK15ChiFeature2Base40GetNumDependencyListsFromStageDescriptorEPK26ChiFeature2StageDescriptorhh@plt+0x4>

0x35000 <_ZNK15ChiFeature2Base35SetNextStageInfoFromStageDescriptorEP24ChiFeature2RequestObjectPK26ChiFeature2StageDescriptorhh@plt+0x4>

0x35000 <_ZNK15ChiFeature2Base36GetDependencyListFromStageDescriptorEPK26ChiFeature2StageDescriptorhhh@plt+0x4>

0x35000 <_ZNK15ChiFeature2Base23PopulateDependencyPortsEP24ChiFeature2RequestObjecthPK26ChiFeature2InputDependency@plt+0x4>

0x35000 <_ZNK15ChiFeature2Base13SetConfigInfoEP24ChiFeature2RequestObjectj@plt+0x4>

0x35000 <_ZNK28ChiFeature2Statsregeneration24GetLongExposureRequestIdEP24ChiFeature2RequestObject@plt+0x4>

0x35000 <_ZNK28ChiFeature2Statsregeneration20MergeAWBFrameControlEP24ChiFeature2RequestObject@plt+0x4>

0x35000 <_ZNK15ChiFeature2Base18SendExternalResultEP24ChiFeature2RequestObject@plt+0x4>

0x35000 <_ZNK15ChiFeature2Base23HandleDependencyMappingEP24ChiFeature2RequestObject@plt+0x4>

0x35000 <_ZNK24ChiFeature2RequestObject13GetBufferInfoE31ChiFeature2RequestObjectOpsTypePK21ChiFeature2IdentifierPPvPmhh@plt+0x4>

0x35000 <_ZN18ChiMetadataManager21GetMetadataFromHandleEPv@plt+0x4>

0x35000 <_ZNK15ChiFeature2Base19BypassInputToOutputEP24ChiFeature2RequestObject@plt+0x4>

0x35000 <_ZNK15ChiFeature2Base21ProcessFeatureMessageEP28ChiFeature2MessageDescriptor@plt+0x4>

0x35000 <_ZN15ChiFeature2BaseD2Ev@plt+0x4>

0x35000 <_ZN15ChiFeature2Base18OnInitializeStreamEPK23ChiTargetPortDescriptorPK25ChiFeature2PortDescriptorPNS_20ChiFeatureStreamDataE@plt+0x4>

0x35000 <_ZNK24ChiFeature2RequestObject19GetCurrentStageInfoEP20ChiFeature2StageInfoh@plt+0x4>

0x35000 <_ZNK24ChiFeature2RequestObject24GetExternalRequestOutputEPhPPK28ChiFeature2RequestOutputInfoh@plt+0x4>

0x35000 <_ZNKSt3__120__vector_base_commonILb1EE20__throw_length_errorEv@plt+0x4>

0x35000 <_ZNK24ChiFeature2RequestObject23GetUsecaseRequestObjectEv@plt+0x4>

0x35000 <_ZNK15ChiFeature2Base31OnPopulateConfigurationSettingsEP24ChiFeature2RequestObjectPK21ChiFeature2IdentifierP11ChiMetadata@plt+0x4>

0x35000 <_ZNK15ChiFeature2Base18GetSensorModeIndexEPK21ChiFeature2IdentifierP11ChiMetadata@plt+0x4>

0x35000 <_ZN8ChxUtils18FillTuningModeDataEP11ChiMetadata25ChiModeUsecaseSubModeTypejPjS3_S3_S3_@plt+0x4>

0x35000 <_ZN8ChxUtils17GetVendorTagValueEP11ChiMetadata9VendorTagPPv@plt+0x4>

0x35000 <_ZNK24ChiFeature2RequestObject26GetFinalBufferMetadataInfoE21ChiFeature2IdentifierPP29ChiFeature2BufferMetadataInfoh@plt+0x4>

0x35000 <_ZN28ChiFeature2Statsregeneration6CreateEP26ChiFeature2CreateInputInfo@plt+0x4>

0x35000 <_ZN15ExtensionModule11GetInstanceEv@plt+0x4>

0x35000 <_ZN15ExtensionModule28GetPhysicalCameraSensorModesEjPjPP17ChiSensorModeInfo@plt+0x4>

0x35000 <_ZN15UsecaseSelector18getSensorDimensionEjPK28camera3_stream_configurationPjS3_S3_jjPK17LogicalCameraInfo@plt+0x4>

0x35000 <_ZNSt3__15mutex4lockEv@plt+0x4>

0x35000 <_ZNSt3__118condition_variable10notify_allEv@plt+0x4>

0x35000 <_ZNSt3__15mutex6unlockEv@plt+0x4>

0x35000 <_ZNSt3__16chrono12steady_clock3nowEv@plt+0x4>

0x35000 <_ZNSt3__16chrono12system_clock3nowEv@plt+0x4>

0x35000 <_ZNSt3__118condition_variable15__do_timed_waitERNS_11unique_lockINS_5mutexEEENS_6chrono10time_pointINS5_12system_clockENS5_8durationIxNS_5ratioILl1ELl1000000000EEEEEEE@plt+0x4>

0x36000 <_ZNSt3__118condition_variableD1Ev@plt+0x8>

0x36000 <_ZNSt3__15mutexD1Ev@plt+0x8>

0x36000 <_ZN15ExtensionModule18GetBufferAllocatorEP9ChiStreamPPv@plt+0x8>

0x36000 <_ZN15UsecaseSelector13IsVideoStreamEPK14camera3_stream@plt+0x8>

0x36000 <_ZN15UsecaseSelector19IsYUVSnapshotStreamEPK14camera3_stream@plt+0x8>

0x36000 <_ZN15UsecaseSelector20IsJPEGSnapshotStreamEPK14camera3_stream@plt+0x8>

0x36000 <_ZN15UsecaseSelector20IsHeicSnapshotStreamEPK14camera3_stream@plt+0x8>

0x36000 <_ZN15UsecaseSelector15IsPreviewStreamEPK14camera3_stream@plt+0x8>

0x36000 <_ZN8ChxUtils15NativeFenceWaitEij@plt+0x8>

0x36000 <_ZN8ChxUtils14GetUsecaseModeEP23camera3_capture_request@plt+0x8>

0x36000 <_ZN8ChxUtils15AndroidMetadata15GetFeature1ModeEPvPj@plt+0x8>

0x36000 <_ZN8ChxUtils15GetFeature1ModeEP11ChiMetadataPj@plt+0x8>

0x36000 <_ZN8ChxUtils12GetSceneModeEP11ChiMetadataPj@plt+0x8>

0x36000 <_ZN8ChxUtils13DebugDataSizeE13DebugDataType@plt+0x8>

0x36000 <_ZN15UsecaseSelector20IsYUVOutResThresholdEP9ChiStream@plt+0x8>

0x36000 <_ZN11ChiMetadata21InitializeMetadataOpsEP14ChiMetadataOps@plt+0x8>

0x36000 <_ZN15ExtensionModule23GetAvailableRequestKeysEjPjjS0_@plt+0x8>

0x36000 <_ZN11ChiMetadata10InitializeEPKjji@plt+0x8>

0x36000 <_ZN15ExtensionModule14GetMetadataOpsEP14ChiMetadataOps@plt+0x8>

0x36000 <_ZN11ChiMetadata16ReadDataFromFileEPKcRNSt3__16vectorIhNS2_9allocatorIhEEEE@plt+0x8>

0x36000 <_ZN11ChiMetadata19ParseAndSetMetadataERNSt3__16vectorIhNS0_9allocatorIhEEEE@plt+0x8>

0x36000 <_ZN11ChiMetadata15DestroyInternalEb@plt+0x8>

0x36000 <_ZN18ChiMetadataManager10MetaClient14ReleaseBuffersEv@plt+0x8>

0x36000 <_ZN11ChiMetadata6CreateEPKjjbP18ChiMetadataManagerj@plt+0x8>

0x36000 <_ZN18ChiMetadataManagerC2Ejjj@plt+0x8>

0x36000 <_ZN18ChiMetadataManager10InitializeEv@plt+0x8>

0x36000 <_ZN18ChiMetadataManagerD2Ev@plt+0x8>

0x36000 <_ZNSt3__112__next_primeEm@plt+0x8>

0x36000 <_ZN18ChiMetadataManager21AndroidMetadataHolderD2Ev@plt+0x8>

0x36000 <_ZN18ChiMetadataManager25AllocateFrameworkMetadataEjjbjj@plt+0x8>

0x36000 <_ZdaPv@plt+0x8>

0x36000 <_ZN18ChiMetadataManager10MetaClientD2Ev@plt+0x8>

0x36000 <_ZN18ChiMetadataManager10MetaClient15AllocateBuffersEPjjjjj@plt+0x8>

0x36000 <_ZN18ChiMetadataManager23RegisterExclusiveClientEPjjj16ChiMetadataUsage@plt+0x8>

0x36000 <_ZN18ChiMetadataManager20RegisterSharedClientEPjjj16ChiMetadataUsage@plt+0x8>

0x36000 <_ZN18ChiMetadataManager13GetFreeHolderEjjjRNSt3__16chrono10time_pointINS1_12steady_clockENS1_8durationIxNS0_5ratioILl1ELl1000000000EEEEEEE@plt+0x8>

0x36000 <_ZN18ChiMetadataManager24RestoreNonstickyMetadataEPK15camera_metadataP11ChiMetadata@plt+0x8>

0x36000 <_ZN18ChiMetadataManager10MetaClient12TrackBuffersERNSt3__16chrono10time_pointINS2_12steady_clockENS2_8durationIxNS1_5ratioILl1ELl1000000000EEEEEEEj@plt+0x8>

0x36000 <_ZN18ChiMetadataManager13ReleaseHolderEjjP11ChiMetadata@plt+0x8>

0x36000 <_ZN8ChxUtils15AndroidMetadata13ResetMetadataEP15camera_metadata@plt+0x8>

0x36000 <_ZNSt3__112basic_stringIcNS_11char_traitsIcEENS_9allocatorIcEEE6__initEPKcm@plt+0x8>

0x36000 <_ZNSt3__112basic_stringIcNS_11char_traitsIcEENS_9allocatorIcEEE6appendEPKcm@plt+0x8>

0x36000 <_ZN18ChiMetadataManager15PrintAllBuffersEjj@plt+0x8>

 	adrp	x1, 0xb9d6000 <_ZN18ChiMetadataManager25AllocateFrameworkMetadataEjjbjj+0x348>
 	adrp	x19, 0xc1c9000 <_ZN18ChiMetadataManager5FlushEv+0x170>
 	ldr	q20, 0x29b78 <_ZN9Semaphore7DestroyEv+0x6ee0>
	ldr	s9, 0x1d5bc <_ZNK28ChiFeature2Statsregeneration16DoCleanupRequestEP24ChiFeature2RequestObject+0x44c>
