    3798: 3c 81 09 90  	adrp	x28, 0x13027000 <_ZN11ChiMetadata5CloneEv+0x90>
    c6d0: 00 06 1c 1c  	ldr	s0, 0x44790 <_ZN8ChxUtils17GetVendorTagValueEP11ChiMetadata9VendorTagPPv+0xb8>
    e520: 65 74 20 54  	b.pl	0x4f3ac <_ZN11ChiMetadata15DestroyInternalEb+0x4c>
   105b8: 6f 62 20 54  	b.nv	0x51204 <_ZN18ChiMetadataManager21AndroidMetadataHolderD2Ev+0x1c>
   10aec: 63 6b 20 58  	ldr	x3, 0x51858 <_ZN18ChiMetadataManager10InitializeEv+0xd0>
   11554: 25 66 20 54  	b.pl	0x52218 <_ZN18ChiMetadataManager25AllocateFrameworkMetadataEjjbjj+0x1b8>
   15120: 6f 6e 20 54  	b.nv	0x55eec <_ZN18ChiMetadataManager12TrackBuffersERNSt3__16chrono10time_pointINS1_12steady_clockENS1_8durationIxNS0_5ratioILl1ELl1000000000EEEEEEE+0x12c>
   179f0: 28 29 20 54  	b.hi	0x57f14 <_ZNK15ChiFeature2Base19FlushPipelineBufferEPK21ChiFeature2Identifier@plt+0x4>
   1830c: 68 69 20 54  	b.hi	0x59038 <_ZTV22ChiFeature2RealTimeMCX+0x30>
   18360: 68 69 20 54  	b.hi	0x5908c <_ZTV22ChiFeature2RealTimeMCX+0x84>
   19d8c: 08 97 0a 98  	ldrsw	x8, 0x2f06c <_ZNK22ChiFeature2RealTimeMCX31OnPopulateConfigurationSettingsEP24ChiFeature2RequestObjectPK21ChiFeature2IdentifierP11ChiMetadata+0x26cc>
   19dbc: 08 97 0a 98  	ldrsw	x8, 0x2f09c <_ZNK22ChiFeature2RealTimeMCX31OnPopulateConfigurationSettingsEP24ChiFeature2RequestObjectPK21ChiFeature2IdentifierP11ChiMetadata+0x26fc>
   19e6c: 08 97 0a 98  	ldrsw	x8, 0x2f14c <_ZNK22ChiFeature2RealTimeMCX31OnPopulateConfigurationSettingsEP24ChiFeature2RequestObjectPK21ChiFeature2IdentifierP11ChiMetadata+0x27ac>
   19e9c: 08 97 0a 98  	ldrsw	x8, 0x2f17c <_ZNK22ChiFeature2RealTimeMCX31OnPopulateConfigurationSettingsEP24ChiFeature2RequestObjectPK21ChiFeature2IdentifierP11ChiMetadata+0x27dc>
   19ecc: 08 97 0a 98  	ldrsw	x8, 0x2f1ac <_ZNK22ChiFeature2RealTimeMCX31OnPopulateConfigurationSettingsEP24ChiFeature2RequestObjectPK21ChiFeature2IdentifierP11ChiMetadata+0x280c>
   19efc: 08 97 0a 98  	ldrsw	x8, 0x2f1dc <_ZNK22ChiFeature2RealTimeMCX31OnPopulateConfigurationSettingsEP24ChiFeature2RequestObjectPK21ChiFeature2IdentifierP11ChiMetadata+0x283c>
   19f2c: 08 97 0a 98  	ldrsw	x8, 0x2f20c <_ZNK22ChiFeature2RealTimeMCX31OnPopulateConfigurationSettingsEP24ChiFeature2RequestObjectPK21ChiFeature2IdentifierP11ChiMetadata+0x286c>
   19f74: 08 97 0a 98  	ldrsw	x8, 0x2f254 <_ZNK22ChiFeature2RealTimeMCX31OnPopulateConfigurationSettingsEP24ChiFeature2RequestObjectPK21ChiFeature2IdentifierP11ChiMetadata+0x28b4>
   19f9c: 08 97 0a 98  	ldrsw	x8, 0x2f27c <_ZNK22ChiFeature2RealTimeMCX31OnPopulateConfigurationSettingsEP24ChiFeature2RequestObjectPK21ChiFeature2IdentifierP11ChiMetadata+0x28dc>
   19fcc: 08 97 0a 98  	ldrsw	x8, 0x2f2ac <_ZNK22ChiFeature2RealTimeMCX31OnPopulateConfigurationSettingsEP24ChiFeature2RequestObjectPK21ChiFeature2IdentifierP11ChiMetadata+0x290c>
   1a024: 08 97 0a 98  	ldrsw	x8, 0x2f304 <_ZNK22ChiFeature2RealTimeMCX31OnPopulateConfigurationSettingsEP24ChiFeature2RequestObjectPK21ChiFeature2IdentifierP11ChiMetadata+0x2964>
   1a0a4: 08 97 0a 98  	ldrsw	x8, 0x2f384 <_ZNK22ChiFeature2RealTimeMCX31OnPopulateConfigurationSettingsEP24ChiFeature2RequestObjectPK21ChiFeature2IdentifierP11ChiMetadata+0x29e4>
   1a0d4: 08 97 0a 98  	ldrsw	x8, 0x2f3b4 <_ZNK22ChiFeature2RealTimeMCX31OnPopulateConfigurationSettingsEP24ChiFeature2RequestObjectPK21ChiFeature2IdentifierP11ChiMetadata+0x2a14>
   1a0fc: 08 97 0a 98  	ldrsw	x8, 0x2f3dc <_ZNK22ChiFeature2RealTimeMCX31OnPopulateConfigurationSettingsEP24ChiFeature2RequestObjectPK21ChiFeature2IdentifierP11ChiMetadata+0x2a3c>
   1a12c: 08 97 0a 98  	ldrsw	x8, 0x2f40c <_ZNK22ChiFeature2RealTimeMCX31OnPopulateConfigurationSettingsEP24ChiFeature2RequestObjectPK21ChiFeature2IdentifierP11ChiMetadata+0x2a6c>
   1a15c: 08 97 0a 98  	ldrsw	x8, 0x2f43c <_ZNK22ChiFeature2RealTimeMCX31OnPopulateConfigurationSettingsEP24ChiFeature2RequestObjectPK21ChiFeature2IdentifierP11ChiMetadata+0x2a9c>
   1a18c: 08 97 0a 98  	ldrsw	x8, 0x2f46c <_ZNK22ChiFeature2RealTimeMCX31OnPopulateConfigurationSettingsEP24ChiFeature2RequestObjectPK21ChiFeature2IdentifierP11ChiMetadata+0x2acc>
   1a1bc: 08 97 0a 98  	ldrsw	x8, 0x2f49c <_ZNK22ChiFeature2RealTimeMCX31OnPopulateConfigurationSettingsEP24ChiFeature2RequestObjectPK21ChiFeature2IdentifierP11ChiMetadata+0x2afc>
   1a214: 08 97 0a 98  	ldrsw	x8, 0x2f4f4 <_ZNK22ChiFeature2RealTimeMCX31OnPopulateConfigurationSettingsEP24ChiFeature2RequestObjectPK21ChiFeature2IdentifierP11ChiMetadata+0x2b54>
   1a244: 08 97 0a 98  	ldrsw	x8, 0x2f524 <_ZNK22ChiFeature2RealTimeMCX31OnPopulateConfigurationSettingsEP24ChiFeature2RequestObjectPK21ChiFeature2IdentifierP11ChiMetadata+0x2b84>
   1a274: 08 97 0a 98  	ldrsw	x8, 0x2f554 <_ZNK22ChiFeature2RealTimeMCX31OnPopulateConfigurationSettingsEP24ChiFeature2RequestObjectPK21ChiFeature2IdentifierP11ChiMetadata+0x2bb4>
   1a2fc: 08 97 0a 98  	ldrsw	x8, 0x2f5dc <_ZNK22ChiFeature2RealTimeMCX31OnPopulateConfigurationSettingsEP24ChiFeature2RequestObjectPK21ChiFeature2IdentifierP11ChiMetadata+0x2c3c>
   1a32c: 08 97 0a 98  	ldrsw	x8, 0x2f60c <_ZNK22ChiFeature2RealTimeMCX31OnPopulateConfigurationSettingsEP24ChiFeature2RequestObjectPK21ChiFeature2IdentifierP11ChiMetadata+0x2c6c>
   1a35c: 08 97 0a 98  	ldrsw	x8, 0x2f63c <_ZNK22ChiFeature2RealTimeMCX31OnPopulateConfigurationSettingsEP24ChiFeature2RequestObjectPK21ChiFeature2IdentifierP11ChiMetadata+0x2c9c>
   1a38c: 08 97 0a 98  	ldrsw	x8, 0x2f66c <_ZNK22ChiFeature2RealTimeMCX31OnPopulateConfigurationSettingsEP24ChiFeature2RequestObjectPK21ChiFeature2IdentifierP11ChiMetadata+0x2ccc>
   1a3e4: 08 97 0a 98  	ldrsw	x8, 0x2f6c4 <_ZNK22ChiFeature2RealTimeMCX31OnPopulateConfigurationSettingsEP24ChiFeature2RequestObjectPK21ChiFeature2IdentifierP11ChiMetadata+0x2d24>
   1a414: 08 97 0a 98  	ldrsw	x8, 0x2f6f4 <_ZNK22ChiFeature2RealTimeMCX31OnPopulateConfigurationSettingsEP24ChiFeature2RequestObjectPK21ChiFeature2IdentifierP11ChiMetadata+0x2d54>
   1a48c: 08 97 0a 98  	ldrsw	x8, 0x2f76c <_ZNK22ChiFeature2RealTimeMCX28IsParallelPostFrameTriggeredEP24ChiFeature2RequestObjecti+0x34>
   1a4bc: 08 97 0a 98  	ldrsw	x8, 0x2f79c <_ZNK22ChiFeature2RealTimeMCX28IsParallelPostFrameTriggeredEP24ChiFeature2RequestObjecti+0x64>
   1a504: 08 97 0a 98  	ldrsw	x8, 0x2f7e4 <_ZNK22ChiFeature2RealTimeMCX28IsParallelPostFrameTriggeredEP24ChiFeature2RequestObjecti+0xac>
   1a554: 08 97 0a 98  	ldrsw	x8, 0x2f834 <_ZNK22ChiFeature2RealTimeMCX23IsManualCaptureRequiredEP24ChiFeature2RequestObject+0x4c>
   1a584: 08 97 0a 98  	ldrsw	x8, 0x2f864 <_ZNK22ChiFeature2RealTimeMCX23IsManualCaptureRequiredEP24ChiFeature2RequestObject+0x7c>
   1a5b4: 08 97 0a 98  	ldrsw	x8, 0x2f894 <_ZNK22ChiFeature2RealTimeMCX23IsManualCaptureRequiredEP24ChiFeature2RequestObject+0xac>
   1a5e4: 08 97 0a 98  	ldrsw	x8, 0x2f8c4 <_ZNK22ChiFeature2RealTimeMCX23IsManualCaptureRequiredEP24ChiFeature2RequestObject+0xdc>
   1a614: 08 97 0a 98  	ldrsw	x8, 0x2f8f4 <_ZNK22ChiFeature2RealTimeMCX23IsManualCaptureRequiredEP24ChiFeature2RequestObject+0x10c>
   1a644: 08 97 0a 98  	ldrsw	x8, 0x2f924 <_ZNK22ChiFeature2RealTimeMCX23IsManualCaptureRequiredEP24ChiFeature2RequestObject+0x13c>
   1a674: 08 97 0a 98  	ldrsw	x8, 0x2f954 <_ZNK22ChiFeature2RealTimeMCX23IsManualCaptureRequiredEP24ChiFeature2RequestObject+0x16c>
   1a6a4: 08 97 0a 98  	ldrsw	x8, 0x2f984 <_ZNK22ChiFeature2RealTimeMCX23IsManualCaptureRequiredEP24ChiFeature2RequestObject+0x19c>
   1a6d4: 08 97 0a 98  	ldrsw	x8, 0x2f9b4 <_ZNK22ChiFeature2RealTimeMCX23IsManualCaptureRequiredEP24ChiFeature2RequestObject+0x1cc>
   1a704: 08 97 0a 98  	ldrsw	x8, 0x2f9e4 <_ZNK22ChiFeature2RealTimeMCX41PopulateConfigurationsForSensorModeChangeEP24ChiFeature2RequestObjectP11ChiMetadata+0x2c>
   1a734: 08 97 0a 98  	ldrsw	x8, 0x2fa14 <_ZNK22ChiFeature2RealTimeMCX33PopulateConfigurationsForBayerSATEjP24ChiFeature2RequestObjectP11ChiMetadata+0x24>
   1a764: 08 97 0a 98  	ldrsw	x8, 0x2fa44 <_ZNK22ChiFeature2RealTimeMCX33PopulateConfigurationsForBayerSATEjP24ChiFeature2RequestObjectP11ChiMetadata+0x54>
   1a794: 08 97 0a 98  	ldrsw	x8, 0x2fa74 <_ZNK22ChiFeature2RealTimeMCX33PopulateConfigurationsForBayerSATEjP24ChiFeature2RequestObjectP11ChiMetadata+0x84>
   1a7cc: 08 97 0a 98  	ldrsw	x8, 0x2faac <_ZNK22ChiFeature2RealTimeMCX33PopulateConfigurationsForBayerSATEjP24ChiFeature2RequestObjectP11ChiMetadata+0xbc>
   1a7fc: 08 97 0a 98  	ldrsw	x8, 0x2fadc <_ZNK22ChiFeature2RealTimeMCX33PopulateConfigurationsForBayerSATEjP24ChiFeature2RequestObjectP11ChiMetadata+0xec>
   1ad34: 08 97 0a 98  	ldrsw	x8, 0x30014 <_ZNK22ChiFeature2RealTimeMCX33PopulateConfigurationsForBayerSATEjP24ChiFeature2RequestObjectP11ChiMetadata+0x624>
   1ae04: 08 97 0a 98  	ldrsw	x8, 0x300e4 <_ZNK22ChiFeature2RealTimeMCX33PopulateConfigurationsForBayerSATEjP24ChiFeature2RequestObjectP11ChiMetadata+0x6f4>
   1af24: 20 93 02 9c  	ldr	q0, 0x20188 <_ZN22ChiFeature2RealTimeMCX6CreateER26ChiFeature2CreateInputInfoR29RealtimeFeatureConfigSettings+0x2f0>
   1b214: 08 97 0a 98  	ldrsw	x8, 0x304f4 <_ZNK22ChiFeature2RealTimeMCX33PopulateConfigurationsForBayerSATEjP24ChiFeature2RequestObjectP11ChiMetadata+0xb04>
   1b25c: 08 97 0a 98  	ldrsw	x8, 0x3053c <_ZNK22ChiFeature2RealTimeMCX33PopulateConfigurationsForBayerSATEjP24ChiFeature2RequestObjectP11ChiMetadata+0xb4c>
   1b374: 08 97 0a 98  	ldrsw	x8, 0x30654 <_ZNK22ChiFeature2RealTimeMCX33PopulateConfigurationsForBayerSATEjP24ChiFeature2RequestObjectP11ChiMetadata+0xc64>
   1b3d4: 08 97 0a 98  	ldrsw	x8, 0x306b4 <_ZNK22ChiFeature2RealTimeMCX33PopulateConfigurationsForBayerSATEjP24ChiFeature2RequestObjectP11ChiMetadata+0xcc4>
   1b62c: 08 97 0a 98  	ldrsw	x8, 0x3090c <_ZNK22ChiFeature2RealTimeMCX16OnPrepareRequestEP24ChiFeature2RequestObject+0x11c>
   1b65c: 08 97 0a 98  	ldrsw	x8, 0x3093c <_ZNK22ChiFeature2RealTimeMCX16OnPrepareRequestEP24ChiFeature2RequestObject+0x14c>
   1b79c: 08 97 0a 98  	ldrsw	x8, 0x30a7c <_ZNK22ChiFeature2RealTimeMCX16OnPrepareRequestEP24ChiFeature2RequestObject+0x28c>
   1b7c4: 08 97 0a 98  	ldrsw	x8, 0x30aa4 <_ZNK22ChiFeature2RealTimeMCX16OnPrepareRequestEP24ChiFeature2RequestObject+0x2b4>
   1b7ec: 08 97 0a 98  	ldrsw	x8, 0x30acc <_ZNK22ChiFeature2RealTimeMCX16OnPrepareRequestEP24ChiFeature2RequestObject+0x2dc>
   1b81c: 08 97 0a 98  	ldrsw	x8, 0x30afc <_ZNK22ChiFeature2RealTimeMCX16OnPrepareRequestEP24ChiFeature2RequestObject+0x30c>
   1b944: 08 97 0a 98  	ldrsw	x8, 0x30c24 <_ZNK22ChiFeature2RealTimeMCX16OnPrepareRequestEP24ChiFeature2RequestObject+0x434>
   1b9f4: 08 97 0a 98  	ldrsw	x8, 0x30cd4 <_ZNK22ChiFeature2RealTimeMCX16OnPrepareRequestEP24ChiFeature2RequestObject+0x4e4>
   1ba1c: 08 97 0a 98  	ldrsw	x8, 0x30cfc <_ZNK22ChiFeature2RealTimeMCX16OnPrepareRequestEP24ChiFeature2RequestObject+0x50c>
   1bae4: 08 97 0a 98  	ldrsw	x8, 0x30dc4 <_ZNK22ChiFeature2RealTimeMCX16OnPrepareRequestEP24ChiFeature2RequestObject+0x5d4>
   1bb34: 08 97 0a 98  	ldrsw	x8, 0x30e14 <_ZNK22ChiFeature2RealTimeMCX16OnPrepareRequestEP24ChiFeature2RequestObject+0x624>
   1bb64: 08 97 0a 98  	ldrsw	x8, 0x30e44 <_ZNK22ChiFeature2RealTimeMCX16OnPrepareRequestEP24ChiFeature2RequestObject+0x654>
   1bbc8: 04 95 06 9c  	ldr	q4, 0x28e68 <_ZN22ChiFeature2RealTimeMCX18OnInitializeStreamEPK23ChiTargetPortDescriptorPK25ChiFeature2PortDescriptorPN15ChiFeature2Base20ChiFeatureStreamDataE+0x1590>
   1bbec: 20 93 02 9c  	ldr	q0, 0x20e50 <_ZNK22ChiFeature2RealTimeMCX24OnPruneUsecaseDescriptorEPK26ChiFeature2CreateInputInfoRNSt3__16vectorI12PruneVariantNS3_9allocatorIS5_EEEE+0x250>
   1bc14: 08 97 0a 98  	ldrsw	x8, 0x30ef4 <_ZNK22ChiFeature2RealTimeMCX16OnPrepareRequestEP24ChiFeature2RequestObject+0x704>
   1bc4c: 08 97 0a 98  	ldrsw	x8, 0x30f2c <_ZNK22ChiFeature2RealTimeMCX16OnPrepareRequestEP24ChiFeature2RequestObject+0x73c>
   1bcbc: 08 97 0a 98  	ldrsw	x8, 0x30f9c <_ZNK22ChiFeature2RealTimeMCX18GetEnabledZSLPortsEPK24ChiFeature2RequestObject+0xc>
   1bcec: 08 97 0a 98  	ldrsw	x8, 0x30fcc <_ZNK22ChiFeature2RealTimeMCX18GetEnabledZSLPortsEPK24ChiFeature2RequestObject+0x3c>
   1beac: 08 97 0a 98  	ldrsw	x8, 0x3118c <_ZNK22ChiFeature2RealTimeMCX18GetEnabledZSLPortsEPK24ChiFeature2RequestObject+0x1fc>
   1bf14: 08 97 0a 98  	ldrsw	x8, 0x311f4 <_ZNK22ChiFeature2RealTimeMCX18GetEnabledZSLPortsEPK24ChiFeature2RequestObject+0x264>
   1c13c: 08 97 0a 98  	ldrsw	x8, 0x3141c <_ZNK22ChiFeature2RealTimeMCX18GetEnabledZSLPortsEPK24ChiFeature2RequestObject+0x48c>
   1c16c: 08 97 0a 98  	ldrsw	x8, 0x3144c <_ZNK22ChiFeature2RealTimeMCX23OnExecuteProcessRequestEP24ChiFeature2RequestObject+0x24>
   1c1cc: 08 97 0a 98  	ldrsw	x8, 0x314ac <_ZNK22ChiFeature2RealTimeMCX23OnExecuteProcessRequestEP24ChiFeature2RequestObject+0x84>
   1c254: 08 97 0a 98  	ldrsw	x8, 0x31534 <_ZNK22ChiFeature2RealTimeMCX23OnExecuteProcessRequestEP24ChiFeature2RequestObject+0x10c>
   1c284: 08 97 0a 98  	ldrsw	x8, 0x31564 <_ZNK22ChiFeature2RealTimeMCX23OnExecuteProcessRequestEP24ChiFeature2RequestObject+0x13c>
   1c2d4: 08 97 0a 98  	ldrsw	x8, 0x315b4 <_ZNK22ChiFeature2RealTimeMCX23OnExecuteProcessRequestEP24ChiFeature2RequestObject+0x18c>
   1c304: 08 97 0a 98  	ldrsw	x8, 0x315e4 <_ZNK22ChiFeature2RealTimeMCX23OnExecuteProcessRequestEP24ChiFeature2RequestObject+0x1bc>
   1c334: 08 97 0a 98  	ldrsw	x8, 0x31614 <_ZNK22ChiFeature2RealTimeMCX23OnExecuteProcessRequestEP24ChiFeature2RequestObject+0x1ec>
   1c35c: 08 97 0a 98  	ldrsw	x8, 0x3163c <_ZNK22ChiFeature2RealTimeMCX23OnExecuteProcessRequestEP24ChiFeature2RequestObject+0x214>
   1c38c: 08 97 0a 98  	ldrsw	x8, 0x3166c <_ZNK22ChiFeature2RealTimeMCX23OnExecuteProcessRequestEP24ChiFeature2RequestObject+0x244>
   1c3b4: 08 97 0a 98  	ldrsw	x8, 0x31694 <_ZNK22ChiFeature2RealTimeMCX23OnExecuteProcessRequestEP24ChiFeature2RequestObject+0x26c>
   1c3e4: 08 97 0a 98  	ldrsw	x8, 0x316c4 <_ZNK22ChiFeature2RealTimeMCX23OnExecuteProcessRequestEP24ChiFeature2RequestObject+0x29c>
   1c4ec: 08 97 0a 98  	ldrsw	x8, 0x317cc <_ZNK22ChiFeature2RealTimeMCX23OnExecuteProcessRequestEP24ChiFeature2RequestObject+0x3a4>
   1c544: 08 97 0a 98  	ldrsw	x8, 0x31824 <_ZNK22ChiFeature2RealTimeMCX23OnExecuteProcessRequestEP24ChiFeature2RequestObject+0x3fc>
   1c574: 08 97 0a 98  	ldrsw	x8, 0x31854 <_ZNK22ChiFeature2RealTimeMCX23OnExecuteProcessRequestEP24ChiFeature2RequestObject+0x42c>
   1c5c4: 08 97 0a 98  	ldrsw	x8, 0x318a4 <_ZNK22ChiFeature2RealTimeMCX23OnExecuteProcessRequestEP24ChiFeature2RequestObject+0x47c>
   1c5f4: 08 97 0a 98  	ldrsw	x8, 0x318d4 <_ZNK22ChiFeature2RealTimeMCX23OnExecuteProcessRequestEP24ChiFeature2RequestObject+0x4ac>
   1c644: 08 97 0a 98  	ldrsw	x8, 0x31924 <_ZNK22ChiFeature2RealTimeMCX23OnExecuteProcessRequestEP24ChiFeature2RequestObject+0x4fc>
   1c694: 08 97 0a 98  	ldrsw	x8, 0x31974 <_ZNK22ChiFeature2RealTimeMCX23OnExecuteProcessRequestEP24ChiFeature2RequestObject+0x54c>
   1c6c4: 08 97 0a 98  	ldrsw	x8, 0x319a4 <_ZNK22ChiFeature2RealTimeMCX23OnExecuteProcessRequestEP24ChiFeature2RequestObject+0x57c>
   1c71c: 08 97 0a 98  	ldrsw	x8, 0x319fc <_ZNK22ChiFeature2RealTimeMCX23OnExecuteProcessRequestEP24ChiFeature2RequestObject+0x5d4>
   1d018: 4a ea 00 14  	b	0x57940 <_ZN7android8hardware11hidl_stringD1Ev@plt>
   1d1d4: e3 e9 00 94  	bl	0x57960 <_ZN7android8hardware11hidl_stringC1EPKc@plt>
   1d20c: d5 e9 00 94  	bl	0x57960 <_ZN7android8hardware11hidl_stringC1EPKc@plt>
   1d238: ca e9 00 94  	bl	0x57960 <_ZN7android8hardware11hidl_stringC1EPKc@plt>
   1d260: c0 e9 00 94  	bl	0x57960 <_ZN7android8hardware11hidl_stringC1EPKc@plt>
   1d288: b6 e9 00 94  	bl	0x57960 <_ZN7android8hardware11hidl_stringC1EPKc@plt>
   1d2b0: ac e9 00 94  	bl	0x57960 <_ZN7android8hardware11hidl_stringC1EPKc@plt>
   1d2d8: a2 e9 00 94  	bl	0x57960 <_ZN7android8hardware11hidl_stringC1EPKc@plt>
   1d300: 98 e9 00 94  	bl	0x57960 <_ZN7android8hardware11hidl_stringC1EPKc@plt>
   1d328: 8e e9 00 94  	bl	0x57960 <_ZN7android8hardware11hidl_stringC1EPKc@plt>
   1d350: 84 e9 00 94  	bl	0x57960 <_ZN7android8hardware11hidl_stringC1EPKc@plt>
   1d378: 7a e9 00 94  	bl	0x57960 <_ZN7android8hardware11hidl_stringC1EPKc@plt>
   1d3a0: 70 e9 00 94  	bl	0x57960 <_ZN7android8hardware11hidl_stringC1EPKc@plt>
   1d3c8: 66 e9 00 94  	bl	0x57960 <_ZN7android8hardware11hidl_stringC1EPKc@plt>
   1d3f0: 5c e9 00 94  	bl	0x57960 <_ZN7android8hardware11hidl_stringC1EPKc@plt>
   1d418: 52 e9 00 94  	bl	0x57960 <_ZN7android8hardware11hidl_stringC1EPKc@plt>
   1d440: 48 e9 00 94  	bl	0x57960 <_ZN7android8hardware11hidl_stringC1EPKc@plt>
   1d468: 3e e9 00 94  	bl	0x57960 <_ZN7android8hardware11hidl_stringC1EPKc@plt>
   1d490: 34 e9 00 94  	bl	0x57960 <_ZN7android8hardware11hidl_stringC1EPKc@plt>
   1d4b8: 2a e9 00 94  	bl	0x57960 <_ZN7android8hardware11hidl_stringC1EPKc@plt>
   1d4e0: 20 e9 00 94  	bl	0x57960 <_ZN7android8hardware11hidl_stringC1EPKc@plt>
   1d50c: 15 e9 00 94  	bl	0x57960 <_ZN7android8hardware11hidl_stringC1EPKc@plt>
   1da94: bf e7 00 94  	bl	0x57990 <_ZN7android8hardware11hidl_stringC1ERKNSt3__112basic_stringIcNS2_11char_traitsIcEENS2_9allocatorIcEEEE@plt>
   1dabc: b5 e7 00 94  	bl	0x57990 <_ZN7android8hardware11hidl_stringC1ERKNSt3__112basic_stringIcNS2_11char_traitsIcEENS2_9allocatorIcEEEE@plt>
   1dae4: ab e7 00 94  	bl	0x57990 <_ZN7android8hardware11hidl_stringC1ERKNSt3__112basic_stringIcNS2_11char_traitsIcEENS2_9allocatorIcEEEE@plt>
   1db0c: a1 e7 00 94  	bl	0x57990 <_ZN7android8hardware11hidl_stringC1ERKNSt3__112basic_stringIcNS2_11char_traitsIcEENS2_9allocatorIcEEEE@plt>
   1db34: 97 e7 00 94  	bl	0x57990 <_ZN7android8hardware11hidl_stringC1ERKNSt3__112basic_stringIcNS2_11char_traitsIcEENS2_9allocatorIcEEEE@plt>
   1db5c: 8d e7 00 94  	bl	0x57990 <_ZN7android8hardware11hidl_stringC1ERKNSt3__112basic_stringIcNS2_11char_traitsIcEENS2_9allocatorIcEEEE@plt>
   1db84: 83 e7 00 94  	bl	0x57990 <_ZN7android8hardware11hidl_stringC1ERKNSt3__112basic_stringIcNS2_11char_traitsIcEENS2_9allocatorIcEEEE@plt>
   1dbac: 79 e7 00 94  	bl	0x57990 <_ZN7android8hardware11hidl_stringC1ERKNSt3__112basic_stringIcNS2_11char_traitsIcEENS2_9allocatorIcEEEE@plt>
   1dbd4: 6f e7 00 94  	bl	0x57990 <_ZN7android8hardware11hidl_stringC1ERKNSt3__112basic_stringIcNS2_11char_traitsIcEENS2_9allocatorIcEEEE@plt>
   1dbfc: 65 e7 00 94  	bl	0x57990 <_ZN7android8hardware11hidl_stringC1ERKNSt3__112basic_stringIcNS2_11char_traitsIcEENS2_9allocatorIcEEEE@plt>
   1dc24: 5b e7 00 94  	bl	0x57990 <_ZN7android8hardware11hidl_stringC1ERKNSt3__112basic_stringIcNS2_11char_traitsIcEENS2_9allocatorIcEEEE@plt>
   1dc4c: 51 e7 00 94  	bl	0x57990 <_ZN7android8hardware11hidl_stringC1ERKNSt3__112basic_stringIcNS2_11char_traitsIcEENS2_9allocatorIcEEEE@plt>
   1dc74: 47 e7 00 94  	bl	0x57990 <_ZN7android8hardware11hidl_stringC1ERKNSt3__112basic_stringIcNS2_11char_traitsIcEENS2_9allocatorIcEEEE@plt>
   1dc9c: 3d e7 00 94  	bl	0x57990 <_ZN7android8hardware11hidl_stringC1ERKNSt3__112basic_stringIcNS2_11char_traitsIcEENS2_9allocatorIcEEEE@plt>
   1dcc4: 33 e7 00 94  	bl	0x57990 <_ZN7android8hardware11hidl_stringC1ERKNSt3__112basic_stringIcNS2_11char_traitsIcEENS2_9allocatorIcEEEE@plt>
   1dcec: 29 e7 00 94  	bl	0x57990 <_ZN7android8hardware11hidl_stringC1ERKNSt3__112basic_stringIcNS2_11char_traitsIcEENS2_9allocatorIcEEEE@plt>
   1dd14: 1f e7 00 94  	bl	0x57990 <_ZN7android8hardware11hidl_stringC1ERKNSt3__112basic_stringIcNS2_11char_traitsIcEENS2_9allocatorIcEEEE@plt>
   1dd3c: 15 e7 00 94  	bl	0x57990 <_ZN7android8hardware11hidl_stringC1ERKNSt3__112basic_stringIcNS2_11char_traitsIcEENS2_9allocatorIcEEEE@plt>
   1dd64: 0b e7 00 94  	bl	0x57990 <_ZN7android8hardware11hidl_stringC1ERKNSt3__112basic_stringIcNS2_11char_traitsIcEENS2_9allocatorIcEEEE@plt>
   1dd8c: 01 e7 00 94  	bl	0x57990 <_ZN7android8hardware11hidl_stringC1ERKNSt3__112basic_stringIcNS2_11char_traitsIcEENS2_9allocatorIcEEEE@plt>
   1ddb4: f7 e6 00 94  	bl	0x57990 <_ZN7android8hardware11hidl_stringC1ERKNSt3__112basic_stringIcNS2_11char_traitsIcEENS2_9allocatorIcEEEE@plt>
   1dddc: ed e6 00 94  	bl	0x57990 <_ZN7android8hardware11hidl_stringC1ERKNSt3__112basic_stringIcNS2_11char_traitsIcEENS2_9allocatorIcEEEE@plt>
   1de04: e3 e6 00 94  	bl	0x57990 <_ZN7android8hardware11hidl_stringC1ERKNSt3__112basic_stringIcNS2_11char_traitsIcEENS2_9allocatorIcEEEE@plt>
   1de2c: d9 e6 00 94  	bl	0x57990 <_ZN7android8hardware11hidl_stringC1ERKNSt3__112basic_stringIcNS2_11char_traitsIcEENS2_9allocatorIcEEEE@plt>
   1de54: cf e6 00 94  	bl	0x57990 <_ZN7android8hardware11hidl_stringC1ERKNSt3__112basic_stringIcNS2_11char_traitsIcEENS2_9allocatorIcEEEE@plt>
   1de7c: c5 e6 00 94  	bl	0x57990 <_ZN7android8hardware11hidl_stringC1ERKNSt3__112basic_stringIcNS2_11char_traitsIcEENS2_9allocatorIcEEEE@plt>
   1dea0: c0 e6 00 94  	bl	0x579a0 <_ZNSt3__112basic_stringIcNS_11char_traitsIcEENS_9allocatorIcEEEC1ERKS5_@plt>
   1dec8: b6 e6 00 94  	bl	0x579a0 <_ZNSt3__112basic_stringIcNS_11char_traitsIcEENS_9allocatorIcEEEC1ERKS5_@plt>
   1def0: ac e6 00 94  	bl	0x579a0 <_ZNSt3__112basic_stringIcNS_11char_traitsIcEENS_9allocatorIcEEEC1ERKS5_@plt>
   1df18: a2 e6 00 94  	bl	0x579a0 <_ZNSt3__112basic_stringIcNS_11char_traitsIcEENS_9allocatorIcEEEC1ERKS5_@plt>
   1fdc0: c2 01 00 d0  	adrp	x2, 0x59000 <_ZN22ChiFeature2RealTimeMCX6CreateER26ChiFeature2CreateInputInfoR29RealtimeFeatureConfigSettings+0x10>
000000000001fe98 <_ZN22ChiFeature2RealTimeMCX6CreateER26ChiFeature2CreateInputInfoR29RealtimeFeatureConfigSettings>:
   1ff30: 08 02 00 b0  	adrp	x8, 0x60000 <_ZN22ChiFeature2RealTimeMCX6CreateER26ChiFeature2CreateInputInfoR29RealtimeFeatureConfigSettings+0x19c>
   1ffb8: 80 06 00 b4  	cbz	x0, 0x20088 <_ZN22ChiFeature2RealTimeMCX6CreateER26ChiFeature2CreateInputInfoR29RealtimeFeatureConfigSettings+0x1f0>
   1ffc4: 7b de 00 94  	bl	0x579b0 <_ZN15ChiFeature2Base10InitializeEP26ChiFeature2CreateInputInfo@plt>
   1ffc8: 40 0d 00 34  	cbz	w0, 0x20170 <_ZN22ChiFeature2RealTimeMCX6CreateER26ChiFeature2CreateInputInfoR29RealtimeFeatureConfigSettings+0x2d8>
   1ffcc: 0d 02 00 b0  	adrp	x13, 0x60000 <_ZN22ChiFeature2RealTimeMCX6CreateER26ChiFeature2CreateInputInfoR29RealtimeFeatureConfigSettings+0x238>
   1ffd8: eb 04 00 36  	tbz	w11, #0, 0x20074 <_ZN22ChiFeature2RealTimeMCX6CreateER26ChiFeature2CreateInputInfoR29RealtimeFeatureConfigSettings+0x1dc>
   1ffdc: 0e 02 00 b0  	adrp	x14, 0x60000 <_ZN22ChiFeature2RealTimeMCX6CreateER26ChiFeature2CreateInputInfoR29RealtimeFeatureConfigSettings+0x248>
   1ffe0: 75 ff ff d0  	adrp	x21, 0xd000 <_ZN22ChiFeature2RealTimeMCX6CreateER26ChiFeature2CreateInputInfoR29RealtimeFeatureConfigSettings+0x100>
   1fff4: 01 02 00 54  	b.ne	0x20034 <_ZN22ChiFeature2RealTimeMCX6CreateER26ChiFeature2CreateInputInfoR29RealtimeFeatureConfigSettings+0x19c>
   2000c: a1 ff ff f0  	adrp	x1, 0x17000 <_ZN22ChiFeature2RealTimeMCX6CreateER26ChiFeature2CreateInputInfoR29RealtimeFeatureConfigSettings+0x150>
   20010: a2 ff ff d0  	adrp	x2, 0x16000 <_ZN22ChiFeature2RealTimeMCX6CreateER26ChiFeature2CreateInputInfoR29RealtimeFeatureConfigSettings+0x150>
   20014: a5 ff ff d0  	adrp	x5, 0x16000 <_ZN22ChiFeature2RealTimeMCX6CreateER26ChiFeature2CreateInputInfoR29RealtimeFeatureConfigSettings+0x154>
   20048: a1 ff ff f0  	adrp	x1, 0x17000 <_ZN22ChiFeature2RealTimeMCX6CreateER26ChiFeature2CreateInputInfoR29RealtimeFeatureConfigSettings+0x18c>
   20050: 60 ff ff b0  	adrp	x0, 0xd000 <_ZN22ChiFeature2RealTimeMCX6CreateER26ChiFeature2CreateInputInfoR29RealtimeFeatureConfigSettings+0x16c>
   20054: a3 ff ff d0  	adrp	x3, 0x16000 <_ZN22ChiFeature2RealTimeMCX6CreateER26ChiFeature2CreateInputInfoR29RealtimeFeatureConfigSettings+0x194>
   20058: 85 ff ff d0  	adrp	x5, 0x12000 <_ZN22ChiFeature2RealTimeMCX6CreateER26ChiFeature2CreateInputInfoR29RealtimeFeatureConfigSettings+0x188>
   20070: 5c de 00 94  	bl	0x579e0 <_ZN6ChiLog9LogSystemEPKcS1_S1_S1_iS1_z@plt>
   20084: 2d 00 00 14  	b	0x20138 <_ZN22ChiFeature2RealTimeMCX6CreateER26ChiFeature2CreateInputInfoR29RealtimeFeatureConfigSettings+0x2a0>
   20088: 06 02 00 90  	adrp	x6, 0x60000 <_ZN22ChiFeature2RealTimeMCX6CreateER26ChiFeature2CreateInputInfoR29RealtimeFeatureConfigSettings+0x2f0>
   20094: 2e 05 00 36  	tbz	w14, #0, 0x20138 <_ZN22ChiFeature2RealTimeMCX6CreateER26ChiFeature2CreateInputInfoR29RealtimeFeatureConfigSettings+0x2a0>
   20098: 07 02 00 90  	adrp	x7, 0x60000 <_ZN22ChiFeature2RealTimeMCX6CreateER26ChiFeature2CreateInputInfoR29RealtimeFeatureConfigSettings+0x300>
   200a8: 41 02 00 54  	b.ne	0x200f0 <_ZN22ChiFeature2RealTimeMCX6CreateER26ChiFeature2CreateInputInfoR29RealtimeFeatureConfigSettings+0x258>
   200ac: 75 ff ff b0  	adrp	x21, 0xd000 <_ZN22ChiFeature2RealTimeMCX6CreateER26ChiFeature2CreateInputInfoR29RealtimeFeatureConfigSettings+0x1c8>
   200c8: a1 ff ff f0  	adrp	x1, 0x17000 <_ZN22ChiFeature2RealTimeMCX6CreateER26ChiFeature2CreateInputInfoR29RealtimeFeatureConfigSettings+0x20c>
   200cc: 82 ff ff 90  	adrp	x2, 0x10000 <_ZN22ChiFeature2RealTimeMCX6CreateER26ChiFeature2CreateInputInfoR29RealtimeFeatureConfigSettings+0x1f4>
   200d0: a5 ff ff d0  	adrp	x5, 0x16000 <_ZN22ChiFeature2RealTimeMCX6CreateER26ChiFeature2CreateInputInfoR29RealtimeFeatureConfigSettings+0x210>
   200f0: 76 ff ff b0  	adrp	x22, 0xd000 <_ZN22ChiFeature2RealTimeMCX6CreateER26ChiFeature2CreateInputInfoR29RealtimeFeatureConfigSettings+0x20c>
   2010c: a1 ff ff f0  	adrp	x1, 0x17000 <_ZN22ChiFeature2RealTimeMCX6CreateER26ChiFeature2CreateInputInfoR29RealtimeFeatureConfigSettings+0x250>
   20114: 60 ff ff b0  	adrp	x0, 0xd000 <_ZN22ChiFeature2RealTimeMCX6CreateER26ChiFeature2CreateInputInfoR29RealtimeFeatureConfigSettings+0x230>
   20118: a3 ff ff d0  	adrp	x3, 0x16000 <_ZN22ChiFeature2RealTimeMCX6CreateER26ChiFeature2CreateInputInfoR29RealtimeFeatureConfigSettings+0x258>
   2011c: a5 ff ff 90  	adrp	x5, 0x14000 <_ZN22ChiFeature2RealTimeMCX6CreateER26ChiFeature2CreateInputInfoR29RealtimeFeatureConfigSettings+0x254>
   20134: 2b de 00 94  	bl	0x579e0 <_ZN6ChiLog9LogSystemEPKcS1_S1_S1_iS1_z@plt>
   20148: c1 14 00 54  	b.ne	0x203e0 <_ZN22ChiFeature2RealTimeMCX6CreateER26ChiFeature2CreateInputInfoR29RealtimeFeatureConfigSettings+0x548>
   20178: 36 01 00 b4  	cbz	x22, 0x2019c <_ZN22ChiFeature2RealTimeMCX6CreateER26ChiFeature2CreateInputInfoR29RealtimeFeatureConfigSettings+0x304>
   20198: 60 00 00 34  	cbz	w0, 0x201a4 <_ZN22ChiFeature2RealTimeMCX6CreateER26ChiFeature2CreateInputInfoR29RealtimeFeatureConfigSettings+0x30c>
   201a0: 03 00 00 14  	b	0x201ac <_ZN22ChiFeature2RealTimeMCX6CreateER26ChiFeature2CreateInputInfoR29RealtimeFeatureConfigSettings+0x314>
   201ac: 1b 02 00 90  	adrp	x27, 0x60000 <_ZN22ChiFeature2RealTimeMCX6CreateER26ChiFeature2CreateInputInfoR29RealtimeFeatureConfigSettings+0x414>
   201b0: b5 ff ff b0  	adrp	x21, 0x15000 <_ZN22ChiFeature2RealTimeMCX6CreateER26ChiFeature2CreateInputInfoR29RealtimeFeatureConfigSettings+0x2ec>
   201c0: 2c 05 18 36  	tbz	w12, #3, 0x20264 <_ZN22ChiFeature2RealTimeMCX6CreateER26ChiFeature2CreateInputInfoR29RealtimeFeatureConfigSettings+0x3cc>
   201c4: 01 02 00 90  	adrp	x1, 0x60000 <_ZN22ChiFeature2RealTimeMCX6CreateER26ChiFeature2CreateInputInfoR29RealtimeFeatureConfigSettings+0x42c>
   201d4: 41 02 00 54  	b.ne	0x2021c <_ZN22ChiFeature2RealTimeMCX6CreateER26ChiFeature2CreateInputInfoR29RealtimeFeatureConfigSettings+0x384>
   201ec: a1 ff ff f0  	adrp	x1, 0x17000 <_ZN22ChiFeature2RealTimeMCX6CreateER26ChiFeature2CreateInputInfoR29RealtimeFeatureConfigSettings+0x330>
   201f0: a2 ff ff b0  	adrp	x2, 0x15000 <_ZN22ChiFeature2RealTimeMCX6CreateER26ChiFeature2CreateInputInfoR29RealtimeFeatureConfigSettings+0x32c>
   201f4: a5 ff ff f0  	adrp	x5, 0x17000 <_ZN22ChiFeature2RealTimeMCX6CreateER26ChiFeature2CreateInputInfoR29RealtimeFeatureConfigSettings+0x338>
   20230: 81 ff ff d0  	adrp	x1, 0x12000 <_ZN22ChiFeature2RealTimeMCX6CreateER26ChiFeature2CreateInputInfoR29RealtimeFeatureConfigSettings+0x360>
   20238: c0 ff ff 90  	adrp	x0, 0x18000 <_ZN22ChiFeature2RealTimeMCX6CreateER26ChiFeature2CreateInputInfoR29RealtimeFeatureConfigSettings+0x380>
   2023c: a3 ff ff f0  	adrp	x3, 0x17000 <_ZN22ChiFeature2RealTimeMCX6CreateER26ChiFeature2CreateInputInfoR29RealtimeFeatureConfigSettings+0x380>
   20240: 85 ff ff b0  	adrp	x5, 0x11000 <_ZN22ChiFeature2RealTimeMCX6CreateER26ChiFeature2CreateInputInfoR29RealtimeFeatureConfigSettings+0x36c>
   20260: e0 dd 00 94  	bl	0x579e0 <_ZN6ChiLog9LogSystemEPKcS1_S1_S1_iS1_z@plt>
   20280: c9 02 00 54  	b.ls	0x202d8 <_ZN22ChiFeature2RealTimeMCX6CreateER26ChiFeature2CreateInputInfoR29RealtimeFeatureConfigSettings+0x440>
   202ac: ab 00 00 54  	b.lt	0x202c0 <_ZN22ChiFeature2RealTimeMCX6CreateER26ChiFeature2CreateInputInfoR29RealtimeFeatureConfigSettings+0x428>
   202cc: 76 00 00 b4  	cbz	x22, 0x202d8 <_ZN22ChiFeature2RealTimeMCX6CreateER26ChiFeature2CreateInputInfoR29RealtimeFeatureConfigSettings+0x440>
   202e0: 36 01 00 b4  	cbz	x22, 0x20304 <_ZN22ChiFeature2RealTimeMCX6CreateER26ChiFeature2CreateInputInfoR29RealtimeFeatureConfigSettings+0x46c>
   20300: a0 00 00 34  	cbz	w0, 0x20314 <_ZN22ChiFeature2RealTimeMCX6CreateER26ChiFeature2CreateInputInfoR29RealtimeFeatureConfigSettings+0x47c>
   2030c: cd 00 18 37  	tbnz	w13, #3, 0x20324 <_ZN22ChiFeature2RealTimeMCX6CreateER26ChiFeature2CreateInputInfoR29RealtimeFeatureConfigSettings+0x48c>
   20310: 2d 00 00 14  	b	0x203c4 <_ZN22ChiFeature2RealTimeMCX6CreateER26ChiFeature2CreateInputInfoR29RealtimeFeatureConfigSettings+0x52c>
   20320: 2d 05 18 36  	tbz	w13, #3, 0x203c4 <_ZN22ChiFeature2RealTimeMCX6CreateER26ChiFeature2CreateInputInfoR29RealtimeFeatureConfigSettings+0x52c>
   20324: 05 02 00 90  	adrp	x5, 0x60000 <_ZN22ChiFeature2RealTimeMCX7DestroyEv+0x3c>
   20334: 41 02 00 54  	b.ne	0x2037c <_ZN22ChiFeature2RealTimeMCX6CreateER26ChiFeature2CreateInputInfoR29RealtimeFeatureConfigSettings+0x4e4>
   2034c: a1 ff ff f0  	adrp	x1, 0x17000 <_ZN22ChiFeature2RealTimeMCX6CreateER26ChiFeature2CreateInputInfoR29RealtimeFeatureConfigSettings+0x490>
   20350: a2 ff ff b0  	adrp	x2, 0x15000 <_ZN22ChiFeature2RealTimeMCX6CreateER26ChiFeature2CreateInputInfoR29RealtimeFeatureConfigSettings+0x48c>
   20354: a5 ff ff f0  	adrp	x5, 0x17000 <_ZN22ChiFeature2RealTimeMCX6CreateER26ChiFeature2CreateInputInfoR29RealtimeFeatureConfigSettings+0x498>
   20390: 81 ff ff d0  	adrp	x1, 0x12000 <_ZN22ChiFeature2RealTimeMCX6CreateER26ChiFeature2CreateInputInfoR29RealtimeFeatureConfigSettings+0x4c0>
   20398: c0 ff ff 90  	adrp	x0, 0x18000 <_ZN22ChiFeature2RealTimeMCX6CreateER26ChiFeature2CreateInputInfoR29RealtimeFeatureConfigSettings+0x4e0>
   2039c: a3 ff ff f0  	adrp	x3, 0x17000 <_ZN22ChiFeature2RealTimeMCX6CreateER26ChiFeature2CreateInputInfoR29RealtimeFeatureConfigSettings+0x4e0>
   203a0: 85 ff ff b0  	adrp	x5, 0x11000 <_ZN22ChiFeature2RealTimeMCX6CreateER26ChiFeature2CreateInputInfoR29RealtimeFeatureConfigSettings+0x4cc>
   203c0: 88 dd 00 94  	bl	0x579e0 <_ZN6ChiLog9LogSystemEPKcS1_S1_S1_iS1_z@plt>
   203dc: 80 eb ff 54  	b.eq	0x2014c <_ZN22ChiFeature2RealTimeMCX6CreateER26ChiFeature2CreateInputInfoR29RealtimeFeatureConfigSettings+0x2b4>
00000000000203e8 <_ZN22ChiFeature2RealTimeMCX7DestroyEv>:
   20408: 20 06 00 b4  	cbz	x0, 0x204cc <_ZN22ChiFeature2RealTimeMCX7DestroyEv+0xe4>
   20410: e1 05 00 b4  	cbz	x1, 0x204cc <_ZN22ChiFeature2RealTimeMCX7DestroyEv+0xe4>
   20418: 82 dd 00 94  	bl	0x57a20 <_ZN16CHIThreadManager4SyncEmj@plt>
   20420: 61 05 00 54  	b.ne	0x204cc <_ZN22ChiFeature2RealTimeMCX7DestroyEv+0xe4>
   20424: 08 02 00 90  	adrp	x8, 0x60000 <_ZN22ChiFeature2RealTimeMCX7DestroyEv+0x13c>
   20430: e8 04 00 36  	tbz	w8, #0, 0x204cc <_ZN22ChiFeature2RealTimeMCX7DestroyEv+0xe4>
   20434: 09 02 00 90  	adrp	x9, 0x60000 <_ZN22ChiFeature2RealTimeMCX7DestroyEv+0x14c>
   20438: 74 ff ff b0  	adrp	x20, 0xd000 <_ZN22ChiFeature2RealTimeMCX7DestroyEv+0x4>
   2044c: 01 02 00 54  	b.ne	0x2048c <_ZN22ChiFeature2RealTimeMCX7DestroyEv+0xa4>
   20464: a1 ff ff f0  	adrp	x1, 0x17000 <_ZN22ChiFeature2RealTimeMCX7DestroyEv+0x58>
   20468: 82 ff ff 90  	adrp	x2, 0x10000 <_ZN22ChiFeature2RealTimeMCX7DestroyEv+0x40>
   2046c: 85 ff ff f0  	adrp	x5, 0x13000 <_ZN22ChiFeature2RealTimeMCX7DestroyEv+0x50>
   204a0: a1 ff ff f0  	adrp	x1, 0x17000 <_ZN22ChiFeature2RealTimeMCX7DestroyEv+0x94>
   204a8: 60 ff ff b0  	adrp	x0, 0xd000 <_ZN22ChiFeature2RealTimeMCX7DestroyEv+0x74>
   204ac: 83 ff ff f0  	adrp	x3, 0x13000 <_ZN22ChiFeature2RealTimeMCX7DestroyEv+0x90>
   204b0: a5 ff ff 90  	adrp	x5, 0x14000 <_ZN22ChiFeature2RealTimeMCX7DestroyEv+0x98>
   204c8: 46 dd 00 94  	bl	0x579e0 <_ZN6ChiLog9LogSystemEPKcS1_S1_S1_iS1_z@plt>
   204d4: 04 00 00 14  	b	0x204e4 <_ZN22ChiFeature2RealTimeMCX7DestroyEv+0xfc>
   204e8: a0 03 00 54  	b.eq	0x2055c <_ZN22ChiFeature2RealTimeMCX7DestroyEv+0x174>
   204f0: 94 ff ff b4  	cbz	x20, 0x204e0 <_ZN22ChiFeature2RealTimeMCX7DestroyEv+0xf8>
   20504: 48 02 00 34  	cbz	w8, 0x2054c <_ZN22ChiFeature2RealTimeMCX7DestroyEv+0x164>
   20510: 07 00 00 14  	b	0x2052c <_ZN22ChiFeature2RealTimeMCX7DestroyEv+0x144>
   20528: 22 01 00 54  	b.hs	0x2054c <_ZN22ChiFeature2RealTimeMCX7DestroyEv+0x164>
   2052c: 49 ff 07 37  	tbnz	w9, #0, 0x20514 <_ZN22ChiFeature2RealTimeMCX7DestroyEv+0x12c>
   20534: 00 ff ff b4  	cbz	x0, 0x20514 <_ZN22ChiFeature2RealTimeMCX7DestroyEv+0x12c>
   20538: 3e dd 00 94  	bl	0x57a30 <_ZdaPv@plt>
   20548: f3 ff ff 17  	b	0x20514 <_ZN22ChiFeature2RealTimeMCX7DestroyEv+0x12c>
   2054c: 69 fc 07 37  	tbnz	w9, #0, 0x204d8 <_ZN22ChiFeature2RealTimeMCX7DestroyEv+0xf0>
   20554: 37 dd 00 94  	bl	0x57a30 <_ZdaPv@plt>
   20558: e0 ff ff 17  	b	0x204d8 <_ZN22ChiFeature2RealTimeMCX7DestroyEv+0xf0>
   20560: 14 01 00 b4  	cbz	x20, 0x20580 <_ZN22ChiFeature2RealTimeMCX7DestroyEv+0x198>
   20568: 36 dd 00 94  	bl	0x57a40 <_ZNSt3__118condition_variableD1Ev@plt>
   20570: 38 dd 00 94  	bl	0x57a50 <_ZNSt3__15mutexD1Ev@plt>
   20584: 80 00 00 b4  	cbz	x0, 0x20594 <_ZN22ChiFeature2RealTimeMCX7DestroyEv+0x1ac>
   2058c: 35 dd 00 94  	bl	0x57a60 <_ZN11ChiMetadata7DestroyEb@plt>
   20598: 80 00 00 b4  	cbz	x0, 0x205a8 <_ZN22ChiFeature2RealTimeMCX7DestroyEv+0x1c0>
   205a0: 30 dd 00 94  	bl	0x57a60 <_ZN11ChiMetadata7DestroyEb@plt>
   205ac: b4 02 00 b4  	cbz	x20, 0x20600 <_ZN22ChiFeature2RealTimeMCX7DestroyEv+0x218>
   205b4: 60 01 00 b4  	cbz	x0, 0x205e0 <_ZN22ChiFeature2RealTimeMCX7DestroyEv+0x1f8>
   205bc: 6a ff ff 90  	adrp	x10, 0xc000 <_ZN22ChiFeature2RealTimeMCX7DestroyEv+0x184>
   205dc: 34 01 00 b4  	cbz	x20, 0x20600 <_ZN22ChiFeature2RealTimeMCX7DestroyEv+0x218>
   205e8: 61 00 00 54  	b.ne	0x205f4 <_ZN22ChiFeature2RealTimeMCX7DestroyEv+0x20c>
   20604: 35 01 00 b4  	cbz	x21, 0x20628 <_ZN22ChiFeature2RealTimeMCX7DestroyEv+0x240>
   20610: 61 00 00 54  	b.ne	0x2061c <_ZN22ChiFeature2RealTimeMCX7DestroyEv+0x234>
   2062c: 80 00 00 b4  	cbz	x0, 0x2063c <_ZN22ChiFeature2RealTimeMCX7DestroyEv+0x254>
   20634: 0b dd 00 94  	bl	0x57a60 <_ZN11ChiMetadata7DestroyEb@plt>
   20640: 80 00 00 b4  	cbz	x0, 0x20650 <_ZN22ChiFeature2RealTimeMCX7DestroyEv+0x268>
   20648: 06 dd 00 94  	bl	0x57a60 <_ZN11ChiMetadata7DestroyEb@plt>
   20654: 80 00 00 b4  	cbz	x0, 0x20664 <_ZN22ChiFeature2RealTimeMCX7DestroyEv+0x27c>
   2065c: 01 dd 00 94  	bl	0x57a60 <_ZN11ChiMetadata7DestroyEb@plt>
   20668: 80 00 00 b4  	cbz	x0, 0x20678 <_ZN22ChiFeature2RealTimeMCX7DestroyEv+0x290>
   20670: fc dc 00 94  	bl	0x57a60 <_ZN11ChiMetadata7DestroyEb@plt>
   2067c: 80 00 00 b4  	cbz	x0, 0x2068c <_ZN22ChiFeature2RealTimeMCX7DestroyEv+0x2a4>
   20684: f7 dc 00 94  	bl	0x57a60 <_ZN11ChiMetadata7DestroyEb@plt>
   20690: 80 00 00 b4  	cbz	x0, 0x206a0 <_ZN22ChiFeature2RealTimeMCX7DestroyEv+0x2b8>
   20698: f2 dc 00 94  	bl	0x57a60 <_ZN11ChiMetadata7DestroyEb@plt>
   206a4: 80 00 00 b4  	cbz	x0, 0x206b4 <_ZN22ChiFeature2RealTimeMCX7DestroyEv+0x2cc>
   206ac: ed dc 00 94  	bl	0x57a60 <_ZN11ChiMetadata7DestroyEb@plt>
   206b8: 80 00 00 b4  	cbz	x0, 0x206c8 <_ZN22ChiFeature2RealTimeMCX7DestroyEv+0x2e0>
   206c0: e8 dc 00 94  	bl	0x57a60 <_ZN11ChiMetadata7DestroyEb@plt>
00000000000206f0 <_ZNK22ChiFeature2RealTimeMCX15ReleaseResourceEP24ChiFeature2RequestObjectP21ChiFeature2IdentifierhP20ChiFeature2StageInfo>:
   20704: 21 09 00 54  	b.ne	0x20828 <_ZNK22ChiFeature2RealTimeMCX15ReleaseResourceEP24ChiFeature2RequestObjectP21ChiFeature2IdentifierhP20ChiFeature2StageInfo+0x138>
   20718: ea dc 00 94  	bl	0x57ac0 <_ZNK24ChiFeature2RequestObject19AreOutputsGeneratedEh@plt>
   20720: 41 08 00 54  	b.ne	0x20828 <_ZNK22ChiFeature2RealTimeMCX15ReleaseResourceEP24ChiFeature2RequestObjectP21ChiFeature2IdentifierhP20ChiFeature2StageInfo+0x138>
   2072c: e9 dc 00 94  	bl	0x57ad0 <_ZNK15ChiFeature2Base21GetFeaturePrivContextEP24ChiFeature2RequestObject@plt>
   20730: c0 07 00 b4  	cbz	x0, 0x20828 <_ZNK22ChiFeature2RealTimeMCX15ReleaseResourceEP24ChiFeature2RequestObjectP21ChiFeature2IdentifierhP20ChiFeature2StageInfo+0x138>
   2073c: 61 07 00 54  	b.ne	0x20828 <_ZNK22ChiFeature2RealTimeMCX15ReleaseResourceEP24ChiFeature2RequestObjectP21ChiFeature2IdentifierhP20ChiFeature2StageInfo+0x138>
   20748: 14 07 00 b4  	cbz	x20, 0x20828 <_ZNK22ChiFeature2RealTimeMCX15ReleaseResourceEP24ChiFeature2RequestObjectP21ChiFeature2IdentifierhP20ChiFeature2StageInfo+0x138>
   20750: e4 dc 00 94  	bl	0x57ae0 <_ZNSt3__15mutex4lockEv@plt>
   20758: 16 02 00 90  	adrp	x22, 0x60000 <_ZNK22ChiFeature2RealTimeMCX15ReleaseResourceEP24ChiFeature2RequestObjectP21ChiFeature2IdentifierhP20ChiFeature2StageInfo+0x168>
   2076c: 29 05 00 54  	b.ls	0x20810 <_ZNK22ChiFeature2RealTimeMCX15ReleaseResourceEP24ChiFeature2RequestObjectP21ChiFeature2IdentifierhP20ChiFeature2StageInfo+0x120>
   20774: e9 04 08 36  	tbz	w9, #1, 0x20810 <_ZNK22ChiFeature2RealTimeMCX15ReleaseResourceEP24ChiFeature2RequestObjectP21ChiFeature2IdentifierhP20ChiFeature2StageInfo+0x120>
   20778: 08 02 00 90  	adrp	x8, 0x60000 <_ZNK22ChiFeature2RealTimeMCX15ReleaseResourceEP24ChiFeature2RequestObjectP21ChiFeature2IdentifierhP20ChiFeature2StageInfo+0x188>
   2077c: b5 ff ff b0  	adrp	x21, 0x15000 <_ZNK22ChiFeature2RealTimeMCX15ReleaseResourceEP24ChiFeature2RequestObjectP21ChiFeature2IdentifierhP20ChiFeature2StageInfo+0x60>
   20790: 01 02 00 54  	b.ne	0x207d0 <_ZNK22ChiFeature2RealTimeMCX15ReleaseResourceEP24ChiFeature2RequestObjectP21ChiFeature2IdentifierhP20ChiFeature2StageInfo+0xe0>
   207a8: a1 ff ff f0  	adrp	x1, 0x17000 <_ZNK22ChiFeature2RealTimeMCX15ReleaseResourceEP24ChiFeature2RequestObjectP21ChiFeature2IdentifierhP20ChiFeature2StageInfo+0x94>
   207ac: 82 ff ff f0  	adrp	x2, 0x13000 <_ZNK22ChiFeature2RealTimeMCX15ReleaseResourceEP24ChiFeature2RequestObjectP21ChiFeature2IdentifierhP20ChiFeature2StageInfo+0x88>
   207b0: 65 ff ff b0  	adrp	x5, 0xd000 <_ZNK22ChiFeature2RealTimeMCX15ReleaseResourceEP24ChiFeature2RequestObjectP21ChiFeature2IdentifierhP20ChiFeature2StageInfo+0x74>
   207e4: 61 ff ff f0  	adrp	x1, 0xf000 <_ZNK22ChiFeature2RealTimeMCX15ReleaseResourceEP24ChiFeature2RequestObjectP21ChiFeature2IdentifierhP20ChiFeature2StageInfo+0xb0>
   207ec: a0 ff ff 90  	adrp	x0, 0x14000 <_ZNK22ChiFeature2RealTimeMCX15ReleaseResourceEP24ChiFeature2RequestObjectP21ChiFeature2IdentifierhP20ChiFeature2StageInfo+0xcc>
   207f0: 63 ff ff b0  	adrp	x3, 0xd000 <_ZNK22ChiFeature2RealTimeMCX15ReleaseResourceEP24ChiFeature2RequestObjectP21ChiFeature2IdentifierhP20ChiFeature2StageInfo+0xb4>
   207f4: 65 ff ff d0  	adrp	x5, 0xe000 <_ZNK22ChiFeature2RealTimeMCX15ReleaseResourceEP24ChiFeature2RequestObjectP21ChiFeature2IdentifierhP20ChiFeature2StageInfo+0xbc>
   2080c: 75 dc 00 94  	bl	0x579e0 <_ZN6ChiLog9LogSystemEPKcS1_S1_S1_iS1_z@plt>
   20814: b7 dc 00 94  	bl	0x57af0 <_ZNSt3__118condition_variable10notify_allEv@plt>
   2081c: b9 dc 00 94  	bl	0x57b00 <_ZNSt3__15mutex6unlockEv@plt>
   20824: aa 00 28 37  	tbnz	w10, #5, 0x20838 <_ZNK22ChiFeature2RealTimeMCX15ReleaseResourceEP24ChiFeature2RequestObjectP21ChiFeature2IdentifierhP20ChiFeature2StageInfo+0x148>
   20838: 09 02 00 90  	adrp	x9, 0x60000 <_ZNK22ChiFeature2RealTimeMCX15AcquireResourceEP24ChiFeature2RequestObject+0x48>
   2083c: 74 ff ff b0  	adrp	x20, 0xd000 <_ZNK22ChiFeature2RealTimeMCX15ReleaseResourceEP24ChiFeature2RequestObjectP21ChiFeature2IdentifierhP20ChiFeature2StageInfo+0x100>
   20850: 41 02 00 54  	b.ne	0x20898 <_ZNK22ChiFeature2RealTimeMCX15ReleaseResourceEP24ChiFeature2RequestObjectP21ChiFeature2IdentifierhP20ChiFeature2StageInfo+0x1a8>
   2086c: a1 ff ff f0  	adrp	x1, 0x17000 <_ZNK22ChiFeature2RealTimeMCX15ReleaseResourceEP24ChiFeature2RequestObjectP21ChiFeature2IdentifierhP20ChiFeature2StageInfo+0x158>
   20870: 82 ff ff d0  	adrp	x2, 0x12000 <_ZNK22ChiFeature2RealTimeMCX15ReleaseResourceEP24ChiFeature2RequestObjectP21ChiFeature2IdentifierhP20ChiFeature2StageInfo+0x148>
   20874: 85 ff ff d0  	adrp	x5, 0x12000 <_ZNK22ChiFeature2RealTimeMCX15ReleaseResourceEP24ChiFeature2RequestObjectP21ChiFeature2IdentifierhP20ChiFeature2StageInfo+0x14c>
   208b4: a8 ff ff f0  	adrp	x8, 0x17000 <_ZNK22ChiFeature2RealTimeMCX15ReleaseResourceEP24ChiFeature2RequestObjectP21ChiFeature2IdentifierhP20ChiFeature2StageInfo+0x1a0>
   208c4: 81 ff ff f0  	adrp	x1, 0x13000 <_ZNK22ChiFeature2RealTimeMCX15ReleaseResourceEP24ChiFeature2RequestObjectP21ChiFeature2IdentifierhP20ChiFeature2StageInfo+0x1a0>
   208cc: 83 ff ff d0  	adrp	x3, 0x12000 <_ZNK22ChiFeature2RealTimeMCX15ReleaseResourceEP24ChiFeature2RequestObjectP21ChiFeature2IdentifierhP20ChiFeature2StageInfo+0x1a4>
   208d0: 65 ff ff d0  	adrp	x5, 0xe000 <_ZNK22ChiFeature2RealTimeMCX15ReleaseResourceEP24ChiFeature2RequestObjectP21ChiFeature2IdentifierhP20ChiFeature2StageInfo+0x198>
   208ec: 3d dc 00 14  	b	0x579e0 <_ZN6ChiLog9LogSystemEPKcS1_S1_S1_iS1_z@plt>
00000000000208f0 <_ZNK22ChiFeature2RealTimeMCX15AcquireResourceEP24ChiFeature2RequestObject>:
   20900: 88 00 00 34  	cbz	w8, 0x20910 <_ZNK22ChiFeature2RealTimeMCX15AcquireResourceEP24ChiFeature2RequestObject+0x20>
   20914: 6f dc 00 94  	bl	0x57ad0 <_ZNK15ChiFeature2Base21GetFeaturePrivContextEP24ChiFeature2RequestObject@plt>
   20918: 60 00 00 b4  	cbz	x0, 0x20924 <_ZNK22ChiFeature2RealTimeMCX15AcquireResourceEP24ChiFeature2RequestObject+0x34>
   20928: e0 fe ff b4  	cbz	x0, 0x20904 <_ZNK22ChiFeature2RealTimeMCX15AcquireResourceEP24ChiFeature2RequestObject+0x14>
   2092c: 79 dc 00 94  	bl	0x57b10 <_ZN9Semaphore16WaitForSemaphoreEv@plt>
   20930: 08 02 00 90  	adrp	x8, 0x60000 <_ZNK22ChiFeature2RealTimeMCX16DoCleanupRequestEP24ChiFeature2RequestObject+0x38>
   2093c: 4a fe 2f 36  	tbz	w10, #5, 0x20904 <_ZNK22ChiFeature2RealTimeMCX15AcquireResourceEP24ChiFeature2RequestObject+0x14>
   20940: 09 02 00 90  	adrp	x9, 0x60000 <_ZN22ChiFeature2RealTimeMCX7DoFlushEv>
   20944: 74 ff ff b0  	adrp	x20, 0xd000 <_ZNK22ChiFeature2RealTimeMCX15AcquireResourceEP24ChiFeature2RequestObject+0x8>
   20958: 41 02 00 54  	b.ne	0x209a0 <_ZNK22ChiFeature2RealTimeMCX15AcquireResourceEP24ChiFeature2RequestObject+0xb0>
   20974: a1 ff ff f0  	adrp	x1, 0x17000 <_ZNK22ChiFeature2RealTimeMCX15AcquireResourceEP24ChiFeature2RequestObject+0x60>
   20978: a2 ff ff 90  	adrp	x2, 0x14000 <_ZNK22ChiFeature2RealTimeMCX15AcquireResourceEP24ChiFeature2RequestObject+0x58>
   2097c: a5 ff ff 90  	adrp	x5, 0x14000 <_ZNK22ChiFeature2RealTimeMCX15AcquireResourceEP24ChiFeature2RequestObject+0x5c>
   209bc: a8 ff ff f0  	adrp	x8, 0x17000 <_ZNK22ChiFeature2RealTimeMCX15AcquireResourceEP24ChiFeature2RequestObject+0xa8>
   209c8: 81 ff ff f0  	adrp	x1, 0x13000 <_ZNK22ChiFeature2RealTimeMCX15AcquireResourceEP24ChiFeature2RequestObject+0xa4>
   209d0: a3 ff ff 90  	adrp	x3, 0x14000 <_ZNK22ChiFeature2RealTimeMCX15AcquireResourceEP24ChiFeature2RequestObject+0xb0>
   209d4: a5 ff ff 90  	adrp	x5, 0x14000 <_ZNK22ChiFeature2RealTimeMCX15AcquireResourceEP24ChiFeature2RequestObject+0xb4>
   209f0: fc db 00 14  	b	0x579e0 <_ZN6ChiLog9LogSystemEPKcS1_S1_S1_iS1_z@plt>
00000000000209f8 <_ZNK22ChiFeature2RealTimeMCX16DoCleanupRequestEP24ChiFeature2RequestObject>:
   20a04: 41 01 00 b4  	cbz	x1, 0x20a2c <_ZNK22ChiFeature2RealTimeMCX16DoCleanupRequestEP24ChiFeature2RequestObject+0x34>
   20a10: 30 dc 00 94  	bl	0x57ad0 <_ZNK15ChiFeature2Base21GetFeaturePrivContextEP24ChiFeature2RequestObject@plt>
   20a14: c0 00 00 b4  	cbz	x0, 0x20a2c <_ZNK22ChiFeature2RealTimeMCX16DoCleanupRequestEP24ChiFeature2RequestObject+0x34>
   20a28: 3e dc 00 94  	bl	0x57b20 <_ZNK15ChiFeature2Base21SetFeaturePrivContextEP24ChiFeature2RequestObjectPv@plt>
0000000000020a40 <_ZN22ChiFeature2RealTimeMCX7DoFlushEv>:
   20a50: 15 02 00 90  	adrp	x21, 0x60000 <_ZN22ChiFeature2RealTimeMCX7DoFlushEv+0x110>
   20a60: 20 06 00 b4  	cbz	x0, 0x20b24 <_ZN22ChiFeature2RealTimeMCX7DoFlushEv+0xe4>
   20a6c: ed db 00 94  	bl	0x57a20 <_ZN16CHIThreadManager4SyncEmj@plt>
   20a78: 81 05 00 54  	b.ne	0x20b28 <_ZN22ChiFeature2RealTimeMCX7DoFlushEv+0xe8>
   20a80: e8 04 00 36  	tbz	w8, #0, 0x20b1c <_ZN22ChiFeature2RealTimeMCX7DoFlushEv+0xdc>
   20a84: 08 02 00 90  	adrp	x8, 0x60000 <_ZN22ChiFeature2RealTimeMCX7DoFlushEv+0x144>
   20a88: 74 ff ff b0  	adrp	x20, 0xd000 <_ZNK22ChiFeature2RealTimeMCX16DoCleanupRequestEP24ChiFeature2RequestObject+0x44>
   20a9c: 01 02 00 54  	b.ne	0x20adc <_ZN22ChiFeature2RealTimeMCX7DoFlushEv+0x9c>
   20ab4: a1 ff ff f0  	adrp	x1, 0x17000 <_ZN22ChiFeature2RealTimeMCX7DoFlushEv+0x50>
   20ab8: 82 ff ff 90  	adrp	x2, 0x10000 <_ZN22ChiFeature2RealTimeMCX7DoFlushEv+0x38>
   20abc: c5 ff ff 90  	adrp	x5, 0x18000 <_ZN22ChiFeature2RealTimeMCX7DoFlushEv+0x5c>
   20af0: a1 ff ff f0  	adrp	x1, 0x17000 <_ZN22ChiFeature2RealTimeMCX7DoFlushEv+0x8c>
   20af8: 60 ff ff b0  	adrp	x0, 0xd000 <_ZN22ChiFeature2RealTimeMCX7DoFlushEv+0x6c>
   20afc: c3 ff ff 90  	adrp	x3, 0x18000 <_ZN22ChiFeature2RealTimeMCX7DoFlushEv+0x9c>
   20b00: a5 ff ff 90  	adrp	x5, 0x14000 <_ZN22ChiFeature2RealTimeMCX7DoFlushEv+0x90>
   20b18: b2 db 00 94  	bl	0x579e0 <_ZN6ChiLog9LogSystemEPKcS1_S1_S1_iS1_z@plt>
   20b20: 02 00 00 14  	b	0x20b28 <_ZN22ChiFeature2RealTimeMCX7DoFlushEv+0xe8>
   20b30: ec db 00 94  	bl	0x57ae0 <_ZNSt3__15mutex4lockEv@plt>
   20b40: ea 04 18 36  	tbz	w10, #3, 0x20bdc <_ZN22ChiFeature2RealTimeMCX7DoFlushEv+0x19c>
   20b44: 09 02 00 90  	adrp	x9, 0x60000 <_ZNK22ChiFeature2RealTimeMCX24OnPruneUsecaseDescriptorEPK26ChiFeature2CreateInputInfoRNSt3__16vectorI12PruneVariantNS3_9allocatorIS5_EEEE+0x44>
   20b48: b5 ff ff b0  	adrp	x21, 0x15000 <_ZN22ChiFeature2RealTimeMCX7DoFlushEv+0xdc>
   20b5c: 01 02 00 54  	b.ne	0x20b9c <_ZN22ChiFeature2RealTimeMCX7DoFlushEv+0x15c>
   20b74: a1 ff ff f0  	adrp	x1, 0x17000 <_ZN22ChiFeature2RealTimeMCX7DoFlushEv+0x110>
   20b78: 82 ff ff b0  	adrp	x2, 0x11000 <_ZN22ChiFeature2RealTimeMCX7DoFlushEv+0xfc>
   20b7c: a5 ff ff d0  	adrp	x5, 0x16000 <_ZN22ChiFeature2RealTimeMCX7DoFlushEv+0x114>
   20bb0: 81 ff ff d0  	adrp	x1, 0x12000 <_ZN22ChiFeature2RealTimeMCX7DoFlushEv+0x138>
   20bb8: c0 ff ff 90  	adrp	x0, 0x18000 <_ZN22ChiFeature2RealTimeMCX7DoFlushEv+0x158>
   20bbc: a3 ff ff d0  	adrp	x3, 0x16000 <_ZN22ChiFeature2RealTimeMCX7DoFlushEv+0x154>
   20bc0: 65 ff ff d0  	adrp	x5, 0xe000 <_ZN22ChiFeature2RealTimeMCX7DoFlushEv+0x138>
   20bd8: 82 db 00 94  	bl	0x579e0 <_ZN6ChiLog9LogSystemEPKcS1_S1_S1_iS1_z@plt>
   20be0: c4 db 00 94  	bl	0x57af0 <_ZNSt3__118condition_variable10notify_allEv@plt>
   20be8: c6 db 00 94  	bl	0x57b00 <_ZNSt3__15mutex6unlockEv@plt>
0000000000020c00 <_ZNK22ChiFeature2RealTimeMCX24OnPruneUsecaseDescriptorEPK26ChiFeature2CreateInputInfoRNSt3__16vectorI12PruneVariantNS3_9allocatorIS5_EEEE>:
   20c20: 61 03 00 b4  	cbz	x1, 0x20c8c <_ZNK22ChiFeature2RealTimeMCX24OnPruneUsecaseDescriptorEPK26ChiFeature2CreateInputInfoRNSt3__16vectorI12PruneVariantNS3_9allocatorIS5_EEEE+0x8c>
   20c28: 7a ff ff f0  	adrp	x26, 0xf000 <_ZN22ChiFeature2RealTimeMCX7DoFlushEv+0x1a4>
   20c44: 70 22 00 b4  	cbz	x16, 0x21090 <_ZNK22ChiFeature2RealTimeMCX24OnPruneUsecaseDescriptorEPK26ChiFeature2CreateInputInfoRNSt3__16vectorI12PruneVariantNS3_9allocatorIS5_EEEE+0x490>
   20c4c: 3b 21 00 34  	cbz	w27, 0x21070 <_ZNK22ChiFeature2RealTimeMCX24OnPruneUsecaseDescriptorEPK26ChiFeature2CreateInputInfoRNSt3__16vectorI12PruneVariantNS3_9allocatorIS5_EEEE+0x470>
   20c54: 76 ff ff b0  	adrp	x22, 0xd000 <_ZNK22ChiFeature2RealTimeMCX24OnPruneUsecaseDescriptorEPK26ChiFeature2CreateInputInfoRNSt3__16vectorI12PruneVariantNS3_9allocatorIS5_EEEE+0x8>
   20c74: 00 01 00 34  	cbz	w0, 0x20c94 <_ZNK22ChiFeature2RealTimeMCX24OnPruneUsecaseDescriptorEPK26ChiFeature2CreateInputInfoRNSt3__16vectorI12PruneVariantNS3_9allocatorIS5_EEEE+0x94>
   20c84: 21 ff ff 54  	b.ne	0x20c68 <_ZNK22ChiFeature2RealTimeMCX24OnPruneUsecaseDescriptorEPK26ChiFeature2CreateInputInfoRNSt3__16vectorI12PruneVariantNS3_9allocatorIS5_EEEE+0x68>
   20c88: fa 00 00 14  	b	0x21070 <_ZNK22ChiFeature2RealTimeMCX24OnPruneUsecaseDescriptorEPK26ChiFeature2CreateInputInfoRNSt3__16vectorI12PruneVariantNS3_9allocatorIS5_EEEE+0x470>
   20c90: fb 04 00 14  	b	0x2207c <_ZNK22ChiFeature2RealTimeMCX24OnPruneUsecaseDescriptorEPK26ChiFeature2CreateInputInfoRNSt3__16vectorI12PruneVariantNS3_9allocatorIS5_EEEE+0x147c>
   20c98: c3 1e 00 b4  	cbz	x3, 0x21070 <_ZNK22ChiFeature2RealTimeMCX24OnPruneUsecaseDescriptorEPK26ChiFeature2CreateInputInfoRNSt3__16vectorI12PruneVariantNS3_9allocatorIS5_EEEE+0x470>
   20ca8: 41 1e 00 54  	b.ne	0x21070 <_ZNK22ChiFeature2RealTimeMCX24OnPruneUsecaseDescriptorEPK26ChiFeature2CreateInputInfoRNSt3__16vectorI12PruneVariantNS3_9allocatorIS5_EEEE+0x470>
   20cac: 96 ff ff f0  	adrp	x22, 0x13000 <_ZNK22ChiFeature2RealTimeMCX24OnPruneUsecaseDescriptorEPK26ChiFeature2CreateInputInfoRNSt3__16vectorI12PruneVariantNS3_9allocatorIS5_EEEE+0x78>
   20cb0: ba ff ff 90  	adrp	x26, 0x14000 <_ZNK22ChiFeature2RealTimeMCX24OnPruneUsecaseDescriptorEPK26ChiFeature2CreateInputInfoRNSt3__16vectorI12PruneVariantNS3_9allocatorIS5_EEEE+0x80>
   20ccc: 0b 00 00 14  	b	0x20cf8 <_ZNK22ChiFeature2RealTimeMCX24OnPruneUsecaseDescriptorEPK26ChiFeature2CreateInputInfoRNSt3__16vectorI12PruneVariantNS3_9allocatorIS5_EEEE+0xf8>
   20ce4: c0 01 00 34  	cbz	w0, 0x20d1c <_ZNK22ChiFeature2RealTimeMCX24OnPruneUsecaseDescriptorEPK26ChiFeature2CreateInputInfoRNSt3__16vectorI12PruneVariantNS3_9allocatorIS5_EEEE+0x11c>
   20cf4: e0 01 00 54  	b.eq	0x20d30 <_ZNK22ChiFeature2RealTimeMCX24OnPruneUsecaseDescriptorEPK26ChiFeature2CreateInputInfoRNSt3__16vectorI12PruneVariantNS3_9allocatorIS5_EEEE+0x130>
   20d08: 40 fe ff 34  	cbz	w0, 0x20cd0 <_ZNK22ChiFeature2RealTimeMCX24OnPruneUsecaseDescriptorEPK26ChiFeature2CreateInputInfoRNSt3__16vectorI12PruneVariantNS3_9allocatorIS5_EEEE+0xd0>
   20d18: 80 fe ff 35  	cbnz	w0, 0x20ce8 <_ZNK22ChiFeature2RealTimeMCX24OnPruneUsecaseDescriptorEPK26ChiFeature2CreateInputInfoRNSt3__16vectorI12PruneVariantNS3_9allocatorIS5_EEEE+0xe8>
   20d2c: 61 fe ff 54  	b.ne	0x20cf8 <_ZNK22ChiFeature2RealTimeMCX24OnPruneUsecaseDescriptorEPK26ChiFeature2CreateInputInfoRNSt3__16vectorI12PruneVariantNS3_9allocatorIS5_EEEE+0xf8>
   20d38: 4c 05 00 34  	cbz	w12, 0x20de0 <_ZNK22ChiFeature2RealTimeMCX24OnPruneUsecaseDescriptorEPK26ChiFeature2CreateInputInfoRNSt3__16vectorI12PruneVariantNS3_9allocatorIS5_EEEE+0x1e0>
   20d5c: 0b 00 00 14  	b	0x20d88 <_ZNK22ChiFeature2RealTimeMCX24OnPruneUsecaseDescriptorEPK26ChiFeature2CreateInputInfoRNSt3__16vectorI12PruneVariantNS3_9allocatorIS5_EEEE+0x188>
   20d64: 77 db 00 94  	bl	0x57b40 <_ZN15UsecaseSelector15IsPreviewStreamEPK14camera3_stream@plt>
   20d68: c0 02 00 34  	cbz	w0, 0x20dc0 <_ZNK22ChiFeature2RealTimeMCX24OnPruneUsecaseDescriptorEPK26ChiFeature2CreateInputInfoRNSt3__16vectorI12PruneVariantNS3_9allocatorIS5_EEEE+0x1c0>
   20d84: c2 03 00 54  	b.hs	0x20dfc <_ZNK22ChiFeature2RealTimeMCX24OnPruneUsecaseDescriptorEPK26ChiFeature2CreateInputInfoRNSt3__16vectorI12PruneVariantNS3_9allocatorIS5_EEEE+0x1fc>
   20d98: 46 fe 07 36  	tbz	w6, #0, 0x20d60 <_ZNK22ChiFeature2RealTimeMCX24OnPruneUsecaseDescriptorEPK26ChiFeature2CreateInputInfoRNSt3__16vectorI12PruneVariantNS3_9allocatorIS5_EEEE+0x160>
   20da0: 07 fe 07 36  	tbz	w7, #0, 0x20d60 <_ZNK22ChiFeature2RealTimeMCX24OnPruneUsecaseDescriptorEPK26ChiFeature2CreateInputInfoRNSt3__16vectorI12PruneVariantNS3_9allocatorIS5_EEEE+0x160>
   20dbc: e9 ff ff 17  	b	0x20d60 <_ZNK22ChiFeature2RealTimeMCX24OnPruneUsecaseDescriptorEPK26ChiFeature2CreateInputInfoRNSt3__16vectorI12PruneVariantNS3_9allocatorIS5_EEEE+0x160>
   20dc4: 63 db 00 94  	bl	0x57b50 <_ZN15UsecaseSelector11IsYUVStreamEPK14camera3_stream@plt>
   20dc8: 60 fd ff 34  	cbz	w0, 0x20d74 <_ZNK22ChiFeature2RealTimeMCX24OnPruneUsecaseDescriptorEPK26ChiFeature2CreateInputInfoRNSt3__16vectorI12PruneVariantNS3_9allocatorIS5_EEEE+0x174>
   20ddc: e6 ff ff 17  	b	0x20d74 <_ZNK22ChiFeature2RealTimeMCX24OnPruneUsecaseDescriptorEPK26ChiFeature2CreateInputInfoRNSt3__16vectorI12PruneVariantNS3_9allocatorIS5_EEEE+0x174>
   20e44: 69 00 00 54  	b.ls	0x20e50 <_ZNK22ChiFeature2RealTimeMCX24OnPruneUsecaseDescriptorEPK26ChiFeature2CreateInputInfoRNSt3__16vectorI12PruneVariantNS3_9allocatorIS5_EEEE+0x250>
   20e4c: c3 00 00 54  	b.lo	0x20e64 <_ZNK22ChiFeature2RealTimeMCX24OnPruneUsecaseDescriptorEPK26ChiFeature2CreateInputInfoRNSt3__16vectorI12PruneVariantNS3_9allocatorIS5_EEEE+0x264>
   20e58: 09 01 00 54  	b.ls	0x20e78 <_ZNK22ChiFeature2RealTimeMCX24OnPruneUsecaseDescriptorEPK26ChiFeature2CreateInputInfoRNSt3__16vectorI12PruneVariantNS3_9allocatorIS5_EEEE+0x278>
   20e60: c2 00 00 54  	b.hs	0x20e78 <_ZNK22ChiFeature2RealTimeMCX24OnPruneUsecaseDescriptorEPK26ChiFeature2CreateInputInfoRNSt3__16vectorI12PruneVariantNS3_9allocatorIS5_EEEE+0x278>
   20e78: 60 ff ff b0  	adrp	x0, 0xd000 <_ZNK22ChiFeature2RealTimeMCX24OnPruneUsecaseDescriptorEPK26ChiFeature2CreateInputInfoRNSt3__16vectorI12PruneVariantNS3_9allocatorIS5_EEEE+0x22c>
   20e80: 38 db 00 94  	bl	0x57b60 <_ZN15UsecaseSelector15GetVariantGroupEPKc@plt>
   20e84: 79 ff ff f0  	adrp	x25, 0xf000 <_ZNK22ChiFeature2RealTimeMCX24OnPruneUsecaseDescriptorEPK26ChiFeature2CreateInputInfoRNSt3__16vectorI12PruneVariantNS3_9allocatorIS5_EEEE+0x240>
   20e88: 87 ff ff d0  	adrp	x7, 0x12000 <_ZNK22ChiFeature2RealTimeMCX24OnPruneUsecaseDescriptorEPK26ChiFeature2CreateInputInfoRNSt3__16vectorI12PruneVariantNS3_9allocatorIS5_EEEE+0x250>
   20ea4: 33 db 00 94  	bl	0x57b70 <_ZN15UsecaseSelector14GetVariantTypeEPKc@plt>
   20eb4: 60 01 00 54  	b.eq	0x20ee0 <_ZNK22ChiFeature2RealTimeMCX24OnPruneUsecaseDescriptorEPK26ChiFeature2CreateInputInfoRNSt3__16vectorI12PruneVariantNS3_9allocatorIS5_EEEE+0x2e0>
   20ec4: 7a ff ff f0  	adrp	x26, 0xf000 <_ZNK22ChiFeature2RealTimeMCX24OnPruneUsecaseDescriptorEPK26ChiFeature2CreateInputInfoRNSt3__16vectorI12PruneVariantNS3_9allocatorIS5_EEEE+0x280>
   20edc: 2c 00 00 14  	b	0x20f8c <_ZNK22ChiFeature2RealTimeMCX24OnPruneUsecaseDescriptorEPK26ChiFeature2CreateInputInfoRNSt3__16vectorI12PruneVariantNS3_9allocatorIS5_EEEE+0x38c>
   20ef4: 46 8d 00 b5  	cbnz	x6, 0x2209c <_ZNK22ChiFeature2RealTimeMCX24OnPruneUsecaseDescriptorEPK26ChiFeature2CreateInputInfoRNSt3__16vectorI12PruneVariantNS3_9allocatorIS5_EEEE+0x149c>
   20f18: 15 01 00 b4  	cbz	x21, 0x20f38 <_ZNK22ChiFeature2RealTimeMCX24OnPruneUsecaseDescriptorEPK26ChiFeature2CreateInputInfoRNSt3__16vectorI12PruneVariantNS3_9allocatorIS5_EEEE+0x338>
   20f20: 25 8c 00 b5  	cbnz	x5, 0x220a4 <_ZNK22ChiFeature2RealTimeMCX24OnPruneUsecaseDescriptorEPK26ChiFeature2CreateInputInfoRNSt3__16vectorI12PruneVariantNS3_9allocatorIS5_EEEE+0x14a4>
   20f34: 02 00 00 14  	b	0x20f3c <_ZNK22ChiFeature2RealTimeMCX24OnPruneUsecaseDescriptorEPK26ChiFeature2CreateInputInfoRNSt3__16vectorI12PruneVariantNS3_9allocatorIS5_EEEE+0x33c>
   20f54: ab 00 00 54  	b.lt	0x20f68 <_ZNK22ChiFeature2RealTimeMCX24OnPruneUsecaseDescriptorEPK26ChiFeature2CreateInputInfoRNSt3__16vectorI12PruneVariantNS3_9allocatorIS5_EEEE+0x368>
   20f6c: 7a ff ff f0  	adrp	x26, 0xf000 <_ZNK22ChiFeature2RealTimeMCX24OnPruneUsecaseDescriptorEPK26ChiFeature2CreateInputInfoRNSt3__16vectorI12PruneVariantNS3_9allocatorIS5_EEEE+0x328>
   20f80: 76 00 00 b4  	cbz	x22, 0x20f8c <_ZNK22ChiFeature2RealTimeMCX24OnPruneUsecaseDescriptorEPK26ChiFeature2CreateInputInfoRNSt3__16vectorI12PruneVariantNS3_9allocatorIS5_EEEE+0x38c>
   20f8c: c0 ff ff 90  	adrp	x0, 0x18000 <_ZNK22ChiFeature2RealTimeMCX24OnPruneUsecaseDescriptorEPK26ChiFeature2CreateInputInfoRNSt3__16vectorI12PruneVariantNS3_9allocatorIS5_EEEE+0x36c>
   20f94: f3 da 00 94  	bl	0x57b60 <_ZN15UsecaseSelector15GetVariantGroupEPKc@plt>
   20f98: 86 ff ff d0  	adrp	x6, 0x12000 <_ZNK22ChiFeature2RealTimeMCX24OnPruneUsecaseDescriptorEPK26ChiFeature2CreateInputInfoRNSt3__16vectorI12PruneVariantNS3_9allocatorIS5_EEEE+0x360>
   20fac: f1 da 00 94  	bl	0x57b70 <_ZN15UsecaseSelector14GetVariantTypeEPKc@plt>
   20fb0: 07 02 00 90  	adrp	x7, 0x60000 <_ZNK22ChiFeature2RealTimeMCX24OnPruneUsecaseDescriptorEPK26ChiFeature2CreateInputInfoRNSt3__16vectorI12PruneVariantNS3_9allocatorIS5_EEEE+0x4b0>
   20fbc: bb 05 18 36  	tbz	w27, #3, 0x21070 <_ZNK22ChiFeature2RealTimeMCX24OnPruneUsecaseDescriptorEPK26ChiFeature2CreateInputInfoRNSt3__16vectorI12PruneVariantNS3_9allocatorIS5_EEEE+0x470>
   20fc0: 0d 02 00 90  	adrp	x13, 0x60000 <_ZNK22ChiFeature2RealTimeMCX24OnPruneUsecaseDescriptorEPK26ChiFeature2CreateInputInfoRNSt3__16vectorI12PruneVariantNS3_9allocatorIS5_EEEE+0x4c0>
   20fc4: 7a ff ff b0  	adrp	x26, 0xd000 <_ZNK22ChiFeature2RealTimeMCX24OnPruneUsecaseDescriptorEPK26ChiFeature2CreateInputInfoRNSt3__16vectorI12PruneVariantNS3_9allocatorIS5_EEEE+0x378>
   20fd8: 41 02 00 54  	b.ne	0x21020 <_ZNK22ChiFeature2RealTimeMCX24OnPruneUsecaseDescriptorEPK26ChiFeature2CreateInputInfoRNSt3__16vectorI12PruneVariantNS3_9allocatorIS5_EEEE+0x420>
   20ff0: a1 ff ff f0  	adrp	x1, 0x17000 <_ZNK22ChiFeature2RealTimeMCX24OnPruneUsecaseDescriptorEPK26ChiFeature2CreateInputInfoRNSt3__16vectorI12PruneVariantNS3_9allocatorIS5_EEEE+0x3cc>
   20ff4: a2 ff ff f0  	adrp	x2, 0x17000 <_ZNK22ChiFeature2RealTimeMCX24OnPruneUsecaseDescriptorEPK26ChiFeature2CreateInputInfoRNSt3__16vectorI12PruneVariantNS3_9allocatorIS5_EEEE+0x3d0>
   20ff8: a5 ff ff d0  	adrp	x5, 0x16000 <_ZNK22ChiFeature2RealTimeMCX24OnPruneUsecaseDescriptorEPK26ChiFeature2CreateInputInfoRNSt3__16vectorI12PruneVariantNS3_9allocatorIS5_EEEE+0x3d0>
   21034: 81 ff ff b0  	adrp	x1, 0x12000 <_ZNK22ChiFeature2RealTimeMCX24OnPruneUsecaseDescriptorEPK26ChiFeature2CreateInputInfoRNSt3__16vectorI12PruneVariantNS3_9allocatorIS5_EEEE+0x3f8>
   2103c: a0 ff ff f0  	adrp	x0, 0x18000 <_ZNK22ChiFeature2RealTimeMCX24OnPruneUsecaseDescriptorEPK26ChiFeature2CreateInputInfoRNSt3__16vectorI12PruneVariantNS3_9allocatorIS5_EEEE+0x418>
   21040: a3 ff ff b0  	adrp	x3, 0x16000 <_ZNK22ChiFeature2RealTimeMCX24OnPruneUsecaseDescriptorEPK26ChiFeature2CreateInputInfoRNSt3__16vectorI12PruneVariantNS3_9allocatorIS5_EEEE+0x414>
   21044: 85 ff ff f0  	adrp	x5, 0x14000 <_ZNK22ChiFeature2RealTimeMCX24OnPruneUsecaseDescriptorEPK26ChiFeature2CreateInputInfoRNSt3__16vectorI12PruneVariantNS3_9allocatorIS5_EEEE+0x410>
   21064: 5f da 00 94  	bl	0x579e0 <_ZN6ChiLog9LogSystemEPKcS1_S1_S1_iS1_z@plt>
   21068: 7a ff ff d0  	adrp	x26, 0xf000 <_ZNK22ChiFeature2RealTimeMCX24OnPruneUsecaseDescriptorEPK26ChiFeature2CreateInputInfoRNSt3__16vectorI12PruneVariantNS3_9allocatorIS5_EEEE+0x420>
   21074: f5 00 00 b4  	cbz	x21, 0x21090 <_ZNK22ChiFeature2RealTimeMCX24OnPruneUsecaseDescriptorEPK26ChiFeature2CreateInputInfoRNSt3__16vectorI12PruneVariantNS3_9allocatorIS5_EEEE+0x490>
   21080: 95 00 00 34  	cbz	w21, 0x21090 <_ZNK22ChiFeature2RealTimeMCX24OnPruneUsecaseDescriptorEPK26ChiFeature2CreateInputInfoRNSt3__16vectorI12PruneVariantNS3_9allocatorIS5_EEEE+0x490>
   21088: 37 01 00 b5  	cbnz	x23, 0x210ac <_ZNK22ChiFeature2RealTimeMCX24OnPruneUsecaseDescriptorEPK26ChiFeature2CreateInputInfoRNSt3__16vectorI12PruneVariantNS3_9allocatorIS5_EEEE+0x4ac>
   2108c: 0e 00 00 14  	b	0x210c4 <_ZNK22ChiFeature2RealTimeMCX24OnPruneUsecaseDescriptorEPK26ChiFeature2CreateInputInfoRNSt3__16vectorI12PruneVariantNS3_9allocatorIS5_EEEE+0x4c4>
   21090: bc da 00 94  	bl	0x57b80 <_ZN15ExtensionModule11GetInstanceEv@plt>
   210a8: f7 00 00 b4  	cbz	x23, 0x210c4 <_ZNK22ChiFeature2RealTimeMCX24OnPruneUsecaseDescriptorEPK26ChiFeature2CreateInputInfoRNSt3__16vectorI12PruneVariantNS3_9allocatorIS5_EEEE+0x4c4>
   210b4: 80 00 00 54  	b.eq	0x210c4 <_ZNK22ChiFeature2RealTimeMCX24OnPruneUsecaseDescriptorEPK26ChiFeature2CreateInputInfoRNSt3__16vectorI12PruneVariantNS3_9allocatorIS5_EEEE+0x4c4>
   210c0: 02 00 00 14  	b	0x210c8 <_ZNK22ChiFeature2RealTimeMCX24OnPruneUsecaseDescriptorEPK26ChiFeature2CreateInputInfoRNSt3__16vectorI12PruneVariantNS3_9allocatorIS5_EEEE+0x4c8>
   210c8: 60 ff ff b0  	adrp	x0, 0xe000 <_ZNK22ChiFeature2RealTimeMCX24OnPruneUsecaseDescriptorEPK26ChiFeature2CreateInputInfoRNSt3__16vectorI12PruneVariantNS3_9allocatorIS5_EEEE+0x47c>
   210d0: a4 da 00 94  	bl	0x57b60 <_ZN15UsecaseSelector15GetVariantGroupEPKc@plt>
   210d4: 99 ff ff b0  	adrp	x25, 0x12000 <_ZNK22ChiFeature2RealTimeMCX24OnPruneUsecaseDescriptorEPK26ChiFeature2CreateInputInfoRNSt3__16vectorI12PruneVariantNS3_9allocatorIS5_EEEE+0x498>
   210e4: a3 da 00 94  	bl	0x57b70 <_ZN15UsecaseSelector14GetVariantTypeEPKc@plt>
   210f0: 88 00 00 54  	b.hi	0x21100 <_ZNK22ChiFeature2RealTimeMCX24OnPruneUsecaseDescriptorEPK26ChiFeature2CreateInputInfoRNSt3__16vectorI12PruneVariantNS3_9allocatorIS5_EEEE+0x500>
   210f4: cf 01 00 90  	adrp	x15, 0x59000 <_ZNK22ChiFeature2RealTimeMCX24OnPruneUsecaseDescriptorEPK26ChiFeature2CreateInputInfoRNSt3__16vectorI12PruneVariantNS3_9allocatorIS5_EEEE+0x5d4>
   21104: 9b da 00 94  	bl	0x57b70 <_ZN15UsecaseSelector14GetVariantTypeEPKc@plt>
   21108: e6 01 00 f0  	adrp	x6, 0x60000 <_ZNK22ChiFeature2RealTimeMCX24OnPruneUsecaseDescriptorEPK26ChiFeature2CreateInputInfoRNSt3__16vectorI12PruneVariantNS3_9allocatorIS5_EEEE+0x604>
   21118: 7c 05 18 36  	tbz	w28, #3, 0x211c4 <_ZNK22ChiFeature2RealTimeMCX24OnPruneUsecaseDescriptorEPK26ChiFeature2CreateInputInfoRNSt3__16vectorI12PruneVariantNS3_9allocatorIS5_EEEE+0x5c4>
   2111c: f0 01 00 f0  	adrp	x16, 0x60000 <_ZNK22ChiFeature2RealTimeMCX24OnPruneUsecaseDescriptorEPK26ChiFeature2CreateInputInfoRNSt3__16vectorI12PruneVariantNS3_9allocatorIS5_EEEE+0x618>
   21124: ba ff ff 90  	adrp	x26, 0x15000 <_ZNK22ChiFeature2RealTimeMCX24OnPruneUsecaseDescriptorEPK26ChiFeature2CreateInputInfoRNSt3__16vectorI12PruneVariantNS3_9allocatorIS5_EEEE+0x4f4>
   21138: 21 02 00 54  	b.ne	0x2117c <_ZNK22ChiFeature2RealTimeMCX24OnPruneUsecaseDescriptorEPK26ChiFeature2CreateInputInfoRNSt3__16vectorI12PruneVariantNS3_9allocatorIS5_EEEE+0x57c>
   21150: a1 ff ff d0  	adrp	x1, 0x17000 <_ZNK22ChiFeature2RealTimeMCX24OnPruneUsecaseDescriptorEPK26ChiFeature2CreateInputInfoRNSt3__16vectorI12PruneVariantNS3_9allocatorIS5_EEEE+0x528>
   21154: 62 ff ff b0  	adrp	x2, 0xe000 <_ZNK22ChiFeature2RealTimeMCX24OnPruneUsecaseDescriptorEPK26ChiFeature2CreateInputInfoRNSt3__16vectorI12PruneVariantNS3_9allocatorIS5_EEEE+0x508>
   21158: 85 ff ff 90  	adrp	x5, 0x11000 <_ZNK22ChiFeature2RealTimeMCX24OnPruneUsecaseDescriptorEPK26ChiFeature2CreateInputInfoRNSt3__16vectorI12PruneVariantNS3_9allocatorIS5_EEEE+0x518>
   21190: 81 ff ff b0  	adrp	x1, 0x12000 <_ZNK22ChiFeature2RealTimeMCX24OnPruneUsecaseDescriptorEPK26ChiFeature2CreateInputInfoRNSt3__16vectorI12PruneVariantNS3_9allocatorIS5_EEEE+0x554>
   21198: a0 ff ff f0  	adrp	x0, 0x18000 <_ZNK22ChiFeature2RealTimeMCX24OnPruneUsecaseDescriptorEPK26ChiFeature2CreateInputInfoRNSt3__16vectorI12PruneVariantNS3_9allocatorIS5_EEEE+0x574>
   2119c: 83 ff ff 90  	adrp	x3, 0x11000 <_ZNK22ChiFeature2RealTimeMCX24OnPruneUsecaseDescriptorEPK26ChiFeature2CreateInputInfoRNSt3__16vectorI12PruneVariantNS3_9allocatorIS5_EEEE+0x55c>
   211a0: 85 ff ff d0  	adrp	x5, 0x13000 <_ZNK22ChiFeature2RealTimeMCX24OnPruneUsecaseDescriptorEPK26ChiFeature2CreateInputInfoRNSt3__16vectorI12PruneVariantNS3_9allocatorIS5_EEEE+0x568>
   211bc: 09 da 00 94  	bl	0x579e0 <_ZN6ChiLog9LogSystemEPKcS1_S1_S1_iS1_z@plt>
   211c4: a0 ff ff b0  	adrp	x0, 0x16000 <_ZNK22ChiFeature2RealTimeMCX24OnPruneUsecaseDescriptorEPK26ChiFeature2CreateInputInfoRNSt3__16vectorI12PruneVariantNS3_9allocatorIS5_EEEE+0x598>
   211cc: 65 da 00 94  	bl	0x57b60 <_ZN15UsecaseSelector15GetVariantGroupEPKc@plt>
   211dc: 65 da 00 94  	bl	0x57b70 <_ZN15UsecaseSelector14GetVariantTypeEPKc@plt>
   211f8: e8 02 00 54  	b.hi	0x21254 <_ZNK22ChiFeature2RealTimeMCX24OnPruneUsecaseDescriptorEPK26ChiFeature2CreateInputInfoRNSt3__16vectorI12PruneVariantNS3_9allocatorIS5_EEEE+0x654>
   21220: eb 00 00 54  	b.lt	0x2123c <_ZNK22ChiFeature2RealTimeMCX24OnPruneUsecaseDescriptorEPK26ChiFeature2CreateInputInfoRNSt3__16vectorI12PruneVariantNS3_9allocatorIS5_EEEE+0x63c>
   21244: 9a 00 00 b4  	cbz	x26, 0x21254 <_ZNK22ChiFeature2RealTimeMCX24OnPruneUsecaseDescriptorEPK26ChiFeature2CreateInputInfoRNSt3__16vectorI12PruneVariantNS3_9allocatorIS5_EEEE+0x654>
   2125c: 00 01 00 54  	b.eq	0x2127c <_ZNK22ChiFeature2RealTimeMCX24OnPruneUsecaseDescriptorEPK26ChiFeature2CreateInputInfoRNSt3__16vectorI12PruneVariantNS3_9allocatorIS5_EEEE+0x67c>
   21278: 28 00 00 14  	b	0x21318 <_ZNK22ChiFeature2RealTimeMCX24OnPruneUsecaseDescriptorEPK26ChiFeature2CreateInputInfoRNSt3__16vectorI12PruneVariantNS3_9allocatorIS5_EEEE+0x718>
   21290: 68 70 00 b5  	cbnz	x8, 0x2209c <_ZNK22ChiFeature2RealTimeMCX24OnPruneUsecaseDescriptorEPK26ChiFeature2CreateInputInfoRNSt3__16vectorI12PruneVariantNS3_9allocatorIS5_EEEE+0x149c>
   212b0: 16 01 00 b4  	cbz	x22, 0x212d0 <_ZNK22ChiFeature2RealTimeMCX24OnPruneUsecaseDescriptorEPK26ChiFeature2CreateInputInfoRNSt3__16vectorI12PruneVariantNS3_9allocatorIS5_EEEE+0x6d0>
   212b8: 6f 6f 00 b5  	cbnz	x15, 0x220a4 <_ZNK22ChiFeature2RealTimeMCX24OnPruneUsecaseDescriptorEPK26ChiFeature2CreateInputInfoRNSt3__16vectorI12PruneVariantNS3_9allocatorIS5_EEEE+0x14a4>
   212cc: 02 00 00 14  	b	0x212d4 <_ZNK22ChiFeature2RealTimeMCX24OnPruneUsecaseDescriptorEPK26ChiFeature2CreateInputInfoRNSt3__16vectorI12PruneVariantNS3_9allocatorIS5_EEEE+0x6d4>
   212ec: ab 00 00 54  	b.lt	0x21300 <_ZNK22ChiFeature2RealTimeMCX24OnPruneUsecaseDescriptorEPK26ChiFeature2CreateInputInfoRNSt3__16vectorI12PruneVariantNS3_9allocatorIS5_EEEE+0x700>
   21308: 9a 00 00 b4  	cbz	x26, 0x21318 <_ZNK22ChiFeature2RealTimeMCX24OnPruneUsecaseDescriptorEPK26ChiFeature2CreateInputInfoRNSt3__16vectorI12PruneVariantNS3_9allocatorIS5_EEEE+0x718>
   21320: 20 01 00 54  	b.eq	0x21344 <_ZNK22ChiFeature2RealTimeMCX24OnPruneUsecaseDescriptorEPK26ChiFeature2CreateInputInfoRNSt3__16vectorI12PruneVariantNS3_9allocatorIS5_EEEE+0x744>
   21340: 28 00 00 14  	b	0x213e0 <_ZNK22ChiFeature2RealTimeMCX24OnPruneUsecaseDescriptorEPK26ChiFeature2CreateInputInfoRNSt3__16vectorI12PruneVariantNS3_9allocatorIS5_EEEE+0x7e0>
   21358: 30 6a 00 b5  	cbnz	x16, 0x2209c <_ZNK22ChiFeature2RealTimeMCX24OnPruneUsecaseDescriptorEPK26ChiFeature2CreateInputInfoRNSt3__16vectorI12PruneVariantNS3_9allocatorIS5_EEEE+0x149c>
   21378: 16 01 00 b4  	cbz	x22, 0x21398 <_ZNK22ChiFeature2RealTimeMCX24OnPruneUsecaseDescriptorEPK26ChiFeature2CreateInputInfoRNSt3__16vectorI12PruneVariantNS3_9allocatorIS5_EEEE+0x798>
   21380: 22 69 00 b5  	cbnz	x2, 0x220a4 <_ZNK22ChiFeature2RealTimeMCX24OnPruneUsecaseDescriptorEPK26ChiFeature2CreateInputInfoRNSt3__16vectorI12PruneVariantNS3_9allocatorIS5_EEEE+0x14a4>
   21394: 02 00 00 14  	b	0x2139c <_ZNK22ChiFeature2RealTimeMCX24OnPruneUsecaseDescriptorEPK26ChiFeature2CreateInputInfoRNSt3__16vectorI12PruneVariantNS3_9allocatorIS5_EEEE+0x79c>
   213b4: ab 00 00 54  	b.lt	0x213c8 <_ZNK22ChiFeature2RealTimeMCX24OnPruneUsecaseDescriptorEPK26ChiFeature2CreateInputInfoRNSt3__16vectorI12PruneVariantNS3_9allocatorIS5_EEEE+0x7c8>
   213d4: 7a 00 00 b4  	cbz	x26, 0x213e0 <_ZNK22ChiFeature2RealTimeMCX24OnPruneUsecaseDescriptorEPK26ChiFeature2CreateInputInfoRNSt3__16vectorI12PruneVariantNS3_9allocatorIS5_EEEE+0x7e0>
   213e0: e0 01 00 f0  	adrp	x0, 0x60000 <_ZNK22ChiFeature2RealTimeMCX24OnPruneUsecaseDescriptorEPK26ChiFeature2CreateInputInfoRNSt3__16vectorI12PruneVariantNS3_9allocatorIS5_EEEE+0x8dc>
   213ec: a8 05 18 36  	tbz	w8, #3, 0x214a0 <_ZNK22ChiFeature2RealTimeMCX24OnPruneUsecaseDescriptorEPK26ChiFeature2CreateInputInfoRNSt3__16vectorI12PruneVariantNS3_9allocatorIS5_EEEE+0x8a0>
   213f0: e4 01 00 f0  	adrp	x4, 0x60000 <_ZNK22ChiFeature2RealTimeMCX24OnPruneUsecaseDescriptorEPK26ChiFeature2CreateInputInfoRNSt3__16vectorI12PruneVariantNS3_9allocatorIS5_EEEE+0x8ec>
   21400: 81 02 00 54  	b.ne	0x21450 <_ZNK22ChiFeature2RealTimeMCX24OnPruneUsecaseDescriptorEPK26ChiFeature2CreateInputInfoRNSt3__16vectorI12PruneVariantNS3_9allocatorIS5_EEEE+0x850>
   21404: 7b ff ff 90  	adrp	x27, 0xd000 <_ZNK22ChiFeature2RealTimeMCX24OnPruneUsecaseDescriptorEPK26ChiFeature2CreateInputInfoRNSt3__16vectorI12PruneVariantNS3_9allocatorIS5_EEEE+0x7b4>
   21420: a1 ff ff d0  	adrp	x1, 0x17000 <_ZNK22ChiFeature2RealTimeMCX24OnPruneUsecaseDescriptorEPK26ChiFeature2CreateInputInfoRNSt3__16vectorI12PruneVariantNS3_9allocatorIS5_EEEE+0x7f8>
   21424: 62 ff ff 90  	adrp	x2, 0xd000 <_ZNK22ChiFeature2RealTimeMCX24OnPruneUsecaseDescriptorEPK26ChiFeature2CreateInputInfoRNSt3__16vectorI12PruneVariantNS3_9allocatorIS5_EEEE+0x7d4>
   21428: a5 ff ff b0  	adrp	x5, 0x16000 <_ZNK22ChiFeature2RealTimeMCX24OnPruneUsecaseDescriptorEPK26ChiFeature2CreateInputInfoRNSt3__16vectorI12PruneVariantNS3_9allocatorIS5_EEEE+0x7fc>
   21450: 7a ff ff 90  	adrp	x26, 0xd000 <_ZNK22ChiFeature2RealTimeMCX24OnPruneUsecaseDescriptorEPK26ChiFeature2CreateInputInfoRNSt3__16vectorI12PruneVariantNS3_9allocatorIS5_EEEE+0x800>
   2146c: 81 ff ff b0  	adrp	x1, 0x12000 <_ZNK22ChiFeature2RealTimeMCX24OnPruneUsecaseDescriptorEPK26ChiFeature2CreateInputInfoRNSt3__16vectorI12PruneVariantNS3_9allocatorIS5_EEEE+0x830>
   21474: a0 ff ff f0  	adrp	x0, 0x18000 <_ZNK22ChiFeature2RealTimeMCX24OnPruneUsecaseDescriptorEPK26ChiFeature2CreateInputInfoRNSt3__16vectorI12PruneVariantNS3_9allocatorIS5_EEEE+0x850>
   21478: a3 ff ff b0  	adrp	x3, 0x16000 <_ZNK22ChiFeature2RealTimeMCX24OnPruneUsecaseDescriptorEPK26ChiFeature2CreateInputInfoRNSt3__16vectorI12PruneVariantNS3_9allocatorIS5_EEEE+0x84c>
   2147c: 65 ff ff f0  	adrp	x5, 0x10000 <_ZNK22ChiFeature2RealTimeMCX24OnPruneUsecaseDescriptorEPK26ChiFeature2CreateInputInfoRNSt3__16vectorI12PruneVariantNS3_9allocatorIS5_EEEE+0x838>
   2149c: 51 d9 00 94  	bl	0x579e0 <_ZN6ChiLog9LogSystemEPKcS1_S1_S1_iS1_z@plt>
   214a0: 80 ff ff b0  	adrp	x0, 0x12000 <_ZNK22ChiFeature2RealTimeMCX24OnPruneUsecaseDescriptorEPK26ChiFeature2CreateInputInfoRNSt3__16vectorI12PruneVariantNS3_9allocatorIS5_EEEE+0x864>
   214a8: ae d9 00 94  	bl	0x57b60 <_ZN15UsecaseSelector15GetVariantGroupEPKc@plt>
   214b0: 60 ff ff d0  	adrp	x0, 0xf000 <_ZNK22ChiFeature2RealTimeMCX24OnPruneUsecaseDescriptorEPK26ChiFeature2CreateInputInfoRNSt3__16vectorI12PruneVariantNS3_9allocatorIS5_EEEE+0x868>
   214b8: ae d9 00 94  	bl	0x57b70 <_ZN15UsecaseSelector14GetVariantTypeEPKc@plt>
   214c8: 00 01 00 54  	b.eq	0x214e8 <_ZNK22ChiFeature2RealTimeMCX24OnPruneUsecaseDescriptorEPK26ChiFeature2CreateInputInfoRNSt3__16vectorI12PruneVariantNS3_9allocatorIS5_EEEE+0x8e8>
   214e4: 28 00 00 14  	b	0x21584 <_ZNK22ChiFeature2RealTimeMCX24OnPruneUsecaseDescriptorEPK26ChiFeature2CreateInputInfoRNSt3__16vectorI12PruneVariantNS3_9allocatorIS5_EEEE+0x984>
   214fc: 01 5d 00 b5  	cbnz	x1, 0x2209c <_ZNK22ChiFeature2RealTimeMCX24OnPruneUsecaseDescriptorEPK26ChiFeature2CreateInputInfoRNSt3__16vectorI12PruneVariantNS3_9allocatorIS5_EEEE+0x149c>
   21520: 1c 01 00 b4  	cbz	x28, 0x21540 <_ZNK22ChiFeature2RealTimeMCX24OnPruneUsecaseDescriptorEPK26ChiFeature2CreateInputInfoRNSt3__16vectorI12PruneVariantNS3_9allocatorIS5_EEEE+0x940>
   21528: e8 5b 00 b5  	cbnz	x8, 0x220a4 <_ZNK22ChiFeature2RealTimeMCX24OnPruneUsecaseDescriptorEPK26ChiFeature2CreateInputInfoRNSt3__16vectorI12PruneVariantNS3_9allocatorIS5_EEEE+0x14a4>
   2153c: 02 00 00 14  	b	0x21544 <_ZNK22ChiFeature2RealTimeMCX24OnPruneUsecaseDescriptorEPK26ChiFeature2CreateInputInfoRNSt3__16vectorI12PruneVariantNS3_9allocatorIS5_EEEE+0x944>
   2155c: ab 00 00 54  	b.lt	0x21570 <_ZNK22ChiFeature2RealTimeMCX24OnPruneUsecaseDescriptorEPK26ChiFeature2CreateInputInfoRNSt3__16vectorI12PruneVariantNS3_9allocatorIS5_EEEE+0x970>
   21578: 79 00 00 b4  	cbz	x25, 0x21584 <_ZNK22ChiFeature2RealTimeMCX24OnPruneUsecaseDescriptorEPK26ChiFeature2CreateInputInfoRNSt3__16vectorI12PruneVariantNS3_9allocatorIS5_EEEE+0x984>
   21584: e8 01 00 f0  	adrp	x8, 0x60000 <_ZNK22ChiFeature2RealTimeMCX24OnPruneUsecaseDescriptorEPK26ChiFeature2CreateInputInfoRNSt3__16vectorI12PruneVariantNS3_9allocatorIS5_EEEE+0xa80>
   21590: a9 05 18 36  	tbz	w9, #3, 0x21644 <_ZNK22ChiFeature2RealTimeMCX24OnPruneUsecaseDescriptorEPK26ChiFeature2CreateInputInfoRNSt3__16vectorI12PruneVariantNS3_9allocatorIS5_EEEE+0xa44>
   21594: e7 01 00 f0  	adrp	x7, 0x60000 <_ZNK22ChiFeature2RealTimeMCX24OnPruneUsecaseDescriptorEPK26ChiFeature2CreateInputInfoRNSt3__16vectorI12PruneVariantNS3_9allocatorIS5_EEEE+0xa90>
   215a4: 81 02 00 54  	b.ne	0x215f4 <_ZNK22ChiFeature2RealTimeMCX24OnPruneUsecaseDescriptorEPK26ChiFeature2CreateInputInfoRNSt3__16vectorI12PruneVariantNS3_9allocatorIS5_EEEE+0x9f4>
   215a8: 7c ff ff 90  	adrp	x28, 0xd000 <_ZNK22ChiFeature2RealTimeMCX24OnPruneUsecaseDescriptorEPK26ChiFeature2CreateInputInfoRNSt3__16vectorI12PruneVariantNS3_9allocatorIS5_EEEE+0x958>
   215c4: a1 ff ff d0  	adrp	x1, 0x17000 <_ZNK22ChiFeature2RealTimeMCX24OnPruneUsecaseDescriptorEPK26ChiFeature2CreateInputInfoRNSt3__16vectorI12PruneVariantNS3_9allocatorIS5_EEEE+0x99c>
   215c8: a2 ff ff f0  	adrp	x2, 0x18000 <_ZNK22ChiFeature2RealTimeMCX24OnPruneUsecaseDescriptorEPK26ChiFeature2CreateInputInfoRNSt3__16vectorI12PruneVariantNS3_9allocatorIS5_EEEE+0x9a4>
   215cc: a5 ff ff b0  	adrp	x5, 0x16000 <_ZNK22ChiFeature2RealTimeMCX24OnPruneUsecaseDescriptorEPK26ChiFeature2CreateInputInfoRNSt3__16vectorI12PruneVariantNS3_9allocatorIS5_EEEE+0x9a0>
   215f4: 76 ff ff 90  	adrp	x22, 0xd000 <_ZNK22ChiFeature2RealTimeMCX24OnPruneUsecaseDescriptorEPK26ChiFeature2CreateInputInfoRNSt3__16vectorI12PruneVariantNS3_9allocatorIS5_EEEE+0x9a4>
   21610: 81 ff ff b0  	adrp	x1, 0x12000 <_ZNK22ChiFeature2RealTimeMCX24OnPruneUsecaseDescriptorEPK26ChiFeature2CreateInputInfoRNSt3__16vectorI12PruneVariantNS3_9allocatorIS5_EEEE+0x9d4>
   21618: a0 ff ff f0  	adrp	x0, 0x18000 <_ZNK22ChiFeature2RealTimeMCX24OnPruneUsecaseDescriptorEPK26ChiFeature2CreateInputInfoRNSt3__16vectorI12PruneVariantNS3_9allocatorIS5_EEEE+0x9f4>
   2161c: a3 ff ff b0  	adrp	x3, 0x16000 <_ZNK22ChiFeature2RealTimeMCX24OnPruneUsecaseDescriptorEPK26ChiFeature2CreateInputInfoRNSt3__16vectorI12PruneVariantNS3_9allocatorIS5_EEEE+0x9f0>
   21620: a5 ff ff d0  	adrp	x5, 0x17000 <_ZNK22ChiFeature2RealTimeMCX24OnPruneUsecaseDescriptorEPK26ChiFeature2CreateInputInfoRNSt3__16vectorI12PruneVariantNS3_9allocatorIS5_EEEE+0x9f8>
   21640: e8 d8 00 94  	bl	0x579e0 <_ZN6ChiLog9LogSystemEPKcS1_S1_S1_iS1_z@plt>
   21644: 60 ff ff d0  	adrp	x0, 0xf000 <_ZNK22ChiFeature2RealTimeMCX24OnPruneUsecaseDescriptorEPK26ChiFeature2CreateInputInfoRNSt3__16vectorI12PruneVariantNS3_9allocatorIS5_EEEE+0x9fc>
   2164c: 45 d9 00 94  	bl	0x57b60 <_ZN15UsecaseSelector15GetVariantGroupEPKc@plt>
   21660: 60 ff ff d0  	adrp	x0, 0xf000 <_ZNK22ChiFeature2RealTimeMCX24OnPruneUsecaseDescriptorEPK26ChiFeature2CreateInputInfoRNSt3__16vectorI12PruneVariantNS3_9allocatorIS5_EEEE+0xa18>
   2166c: c0 00 00 54  	b.eq	0x21684 <_ZNK22ChiFeature2RealTimeMCX24OnPruneUsecaseDescriptorEPK26ChiFeature2CreateInputInfoRNSt3__16vectorI12PruneVariantNS3_9allocatorIS5_EEEE+0xa84>
   21678: 60 00 00 54  	b.eq	0x21684 <_ZNK22ChiFeature2RealTimeMCX24OnPruneUsecaseDescriptorEPK26ChiFeature2CreateInputInfoRNSt3__16vectorI12PruneVariantNS3_9allocatorIS5_EEEE+0xa84>
   2167c: 80 ff ff b0  	adrp	x0, 0x12000 <_ZNK22ChiFeature2RealTimeMCX24OnPruneUsecaseDescriptorEPK26ChiFeature2CreateInputInfoRNSt3__16vectorI12PruneVariantNS3_9allocatorIS5_EEEE+0xa40>
   21684: 3b d9 00 94  	bl	0x57b70 <_ZN15UsecaseSelector14GetVariantTypeEPKc@plt>
   21694: 00 01 00 54  	b.eq	0x216b4 <_ZNK22ChiFeature2RealTimeMCX24OnPruneUsecaseDescriptorEPK26ChiFeature2CreateInputInfoRNSt3__16vectorI12PruneVariantNS3_9allocatorIS5_EEEE+0xab4>
   216b0: 28 00 00 14  	b	0x21750 <_ZNK22ChiFeature2RealTimeMCX24OnPruneUsecaseDescriptorEPK26ChiFeature2CreateInputInfoRNSt3__16vectorI12PruneVariantNS3_9allocatorIS5_EEEE+0xb50>
   216c8: b6 4e 00 b5  	cbnz	x22, 0x2209c <_ZNK22ChiFeature2RealTimeMCX24OnPruneUsecaseDescriptorEPK26ChiFeature2CreateInputInfoRNSt3__16vectorI12PruneVariantNS3_9allocatorIS5_EEEE+0x149c>
   216ec: 1c 01 00 b4  	cbz	x28, 0x2170c <_ZNK22ChiFeature2RealTimeMCX24OnPruneUsecaseDescriptorEPK26ChiFeature2CreateInputInfoRNSt3__16vectorI12PruneVariantNS3_9allocatorIS5_EEEE+0xb0c>
   216f4: 90 4d 00 b5  	cbnz	x16, 0x220a4 <_ZNK22ChiFeature2RealTimeMCX24OnPruneUsecaseDescriptorEPK26ChiFeature2CreateInputInfoRNSt3__16vectorI12PruneVariantNS3_9allocatorIS5_EEEE+0x14a4>
   21708: 02 00 00 14  	b	0x21710 <_ZNK22ChiFeature2RealTimeMCX24OnPruneUsecaseDescriptorEPK26ChiFeature2CreateInputInfoRNSt3__16vectorI12PruneVariantNS3_9allocatorIS5_EEEE+0xb10>
   21728: ab 00 00 54  	b.lt	0x2173c <_ZNK22ChiFeature2RealTimeMCX24OnPruneUsecaseDescriptorEPK26ChiFeature2CreateInputInfoRNSt3__16vectorI12PruneVariantNS3_9allocatorIS5_EEEE+0xb3c>
   21744: 75 00 00 b4  	cbz	x21, 0x21750 <_ZNK22ChiFeature2RealTimeMCX24OnPruneUsecaseDescriptorEPK26ChiFeature2CreateInputInfoRNSt3__16vectorI12PruneVariantNS3_9allocatorIS5_EEEE+0xb50>
   21750: 60 ff ff b0  	adrp	x0, 0xe000 <_ZNK22ChiFeature2RealTimeMCX24OnPruneUsecaseDescriptorEPK26ChiFeature2CreateInputInfoRNSt3__16vectorI12PruneVariantNS3_9allocatorIS5_EEEE+0xb04>
   21758: 02 d9 00 94  	bl	0x57b60 <_ZN15UsecaseSelector15GetVariantGroupEPKc@plt>
   21764: 60 ff ff d0  	adrp	x0, 0xf000 <_ZNK22ChiFeature2RealTimeMCX24OnPruneUsecaseDescriptorEPK26ChiFeature2CreateInputInfoRNSt3__16vectorI12PruneVariantNS3_9allocatorIS5_EEEE+0xb1c>
   21778: e8 00 00 54  	b.hi	0x21794 <_ZNK22ChiFeature2RealTimeMCX24OnPruneUsecaseDescriptorEPK26ChiFeature2CreateInputInfoRNSt3__16vectorI12PruneVariantNS3_9allocatorIS5_EEEE+0xb94>
   21790: e1 00 00 54  	b.ne	0x217ac <_ZNK22ChiFeature2RealTimeMCX24OnPruneUsecaseDescriptorEPK26ChiFeature2CreateInputInfoRNSt3__16vectorI12PruneVariantNS3_9allocatorIS5_EEEE+0xbac>
   217a0: 63 00 00 54  	b.lo	0x217ac <_ZNK22ChiFeature2RealTimeMCX24OnPruneUsecaseDescriptorEPK26ChiFeature2CreateInputInfoRNSt3__16vectorI12PruneVariantNS3_9allocatorIS5_EEEE+0xbac>
   217a4: 80 ff ff b0  	adrp	x0, 0x12000 <_ZNK22ChiFeature2RealTimeMCX24OnPruneUsecaseDescriptorEPK26ChiFeature2CreateInputInfoRNSt3__16vectorI12PruneVariantNS3_9allocatorIS5_EEEE+0xb68>
   217ac: f1 d8 00 94  	bl	0x57b70 <_ZN15UsecaseSelector14GetVariantTypeEPKc@plt>
   217bc: 00 01 00 54  	b.eq	0x217dc <_ZNK22ChiFeature2RealTimeMCX24OnPruneUsecaseDescriptorEPK26ChiFeature2CreateInputInfoRNSt3__16vectorI12PruneVariantNS3_9allocatorIS5_EEEE+0xbdc>
   217d8: 28 00 00 14  	b	0x21878 <_ZNK22ChiFeature2RealTimeMCX24OnPruneUsecaseDescriptorEPK26ChiFeature2CreateInputInfoRNSt3__16vectorI12PruneVariantNS3_9allocatorIS5_EEEE+0xc78>
   217f0: 66 45 00 b5  	cbnz	x6, 0x2209c <_ZNK22ChiFeature2RealTimeMCX24OnPruneUsecaseDescriptorEPK26ChiFeature2CreateInputInfoRNSt3__16vectorI12PruneVariantNS3_9allocatorIS5_EEEE+0x149c>
   21814: 1b 01 00 b4  	cbz	x27, 0x21834 <_ZNK22ChiFeature2RealTimeMCX24OnPruneUsecaseDescriptorEPK26ChiFeature2CreateInputInfoRNSt3__16vectorI12PruneVariantNS3_9allocatorIS5_EEEE+0xc34>
   2181c: 43 44 00 b5  	cbnz	x3, 0x220a4 <_ZNK22ChiFeature2RealTimeMCX24OnPruneUsecaseDescriptorEPK26ChiFeature2CreateInputInfoRNSt3__16vectorI12PruneVariantNS3_9allocatorIS5_EEEE+0x14a4>
   21830: 02 00 00 14  	b	0x21838 <_ZNK22ChiFeature2RealTimeMCX24OnPruneUsecaseDescriptorEPK26ChiFeature2CreateInputInfoRNSt3__16vectorI12PruneVariantNS3_9allocatorIS5_EEEE+0xc38>
   21850: ab 00 00 54  	b.lt	0x21864 <_ZNK22ChiFeature2RealTimeMCX24OnPruneUsecaseDescriptorEPK26ChiFeature2CreateInputInfoRNSt3__16vectorI12PruneVariantNS3_9allocatorIS5_EEEE+0xc64>
   2186c: 76 00 00 b4  	cbz	x22, 0x21878 <_ZNK22ChiFeature2RealTimeMCX24OnPruneUsecaseDescriptorEPK26ChiFeature2CreateInputInfoRNSt3__16vectorI12PruneVariantNS3_9allocatorIS5_EEEE+0xc78>
   21878: f5 01 00 f0  	adrp	x21, 0x60000 <_ZNK22ChiFeature2RealTimeMCX24OnPruneUsecaseDescriptorEPK26ChiFeature2CreateInputInfoRNSt3__16vectorI12PruneVariantNS3_9allocatorIS5_EEEE+0xd74>
   21888: 2e 06 18 36  	tbz	w14, #3, 0x2194c <_ZNK22ChiFeature2RealTimeMCX24OnPruneUsecaseDescriptorEPK26ChiFeature2CreateInputInfoRNSt3__16vectorI12PruneVariantNS3_9allocatorIS5_EEEE+0xd4c>
   2188c: f3 01 00 f0  	adrp	x19, 0x60000 <_ZNK22ChiFeature2RealTimeMCX24OnPruneUsecaseDescriptorEPK26ChiFeature2CreateInputInfoRNSt3__16vectorI12PruneVariantNS3_9allocatorIS5_EEEE+0xd88>
   2189c: c1 02 00 54  	b.ne	0x218f4 <_ZNK22ChiFeature2RealTimeMCX24OnPruneUsecaseDescriptorEPK26ChiFeature2CreateInputInfoRNSt3__16vectorI12PruneVariantNS3_9allocatorIS5_EEEE+0xcf4>
   218a0: 75 ff ff 90  	adrp	x21, 0xd000 <_ZNK22ChiFeature2RealTimeMCX24OnPruneUsecaseDescriptorEPK26ChiFeature2CreateInputInfoRNSt3__16vectorI12PruneVariantNS3_9allocatorIS5_EEEE+0xc50>
   218c0: a1 ff ff d0  	adrp	x1, 0x17000 <_ZNK22ChiFeature2RealTimeMCX24OnPruneUsecaseDescriptorEPK26ChiFeature2CreateInputInfoRNSt3__16vectorI12PruneVariantNS3_9allocatorIS5_EEEE+0xc98>
   218c4: a2 ff ff b0  	adrp	x2, 0x16000 <_ZNK22ChiFeature2RealTimeMCX24OnPruneUsecaseDescriptorEPK26ChiFeature2CreateInputInfoRNSt3__16vectorI12PruneVariantNS3_9allocatorIS5_EEEE+0xc98>
   218c8: a5 ff ff b0  	adrp	x5, 0x16000 <_ZNK22ChiFeature2RealTimeMCX24OnPruneUsecaseDescriptorEPK26ChiFeature2CreateInputInfoRNSt3__16vectorI12PruneVariantNS3_9allocatorIS5_EEEE+0xc9c>
   218f4: 7b ff ff 90  	adrp	x27, 0xd000 <_ZNK22ChiFeature2RealTimeMCX24OnPruneUsecaseDescriptorEPK26ChiFeature2CreateInputInfoRNSt3__16vectorI12PruneVariantNS3_9allocatorIS5_EEEE+0xca4>
   21918: a0 ff ff f0  	adrp	x0, 0x18000 <_ZNK22ChiFeature2RealTimeMCX24OnPruneUsecaseDescriptorEPK26ChiFeature2CreateInputInfoRNSt3__16vectorI12PruneVariantNS3_9allocatorIS5_EEEE+0xcf4>
   2191c: 81 ff ff b0  	adrp	x1, 0x12000 <_ZNK22ChiFeature2RealTimeMCX24OnPruneUsecaseDescriptorEPK26ChiFeature2CreateInputInfoRNSt3__16vectorI12PruneVariantNS3_9allocatorIS5_EEEE+0xce0>
   21920: a3 ff ff b0  	adrp	x3, 0x16000 <_ZNK22ChiFeature2RealTimeMCX24OnPruneUsecaseDescriptorEPK26ChiFeature2CreateInputInfoRNSt3__16vectorI12PruneVariantNS3_9allocatorIS5_EEEE+0xcf4>
   21924: 65 ff ff f0  	adrp	x5, 0x10000 <_ZNK22ChiFeature2RealTimeMCX24OnPruneUsecaseDescriptorEPK26ChiFeature2CreateInputInfoRNSt3__16vectorI12PruneVariantNS3_9allocatorIS5_EEEE+0xce0>
   21948: 26 d8 00 94  	bl	0x579e0 <_ZN6ChiLog9LogSystemEPKcS1_S1_S1_iS1_z@plt>
   2194c: 8d d8 00 94  	bl	0x57b80 <_ZN15ExtensionModule11GetInstanceEv@plt>
   21954: 40 ff ff f0  	adrp	x0, 0xc000 <_ZNK22ChiFeature2RealTimeMCX24OnPruneUsecaseDescriptorEPK26ChiFeature2CreateInputInfoRNSt3__16vectorI12PruneVariantNS3_9allocatorIS5_EEEE+0xd00>
   21960: 80 d8 00 94  	bl	0x57b60 <_ZN15UsecaseSelector15GetVariantGroupEPKc@plt>
   2196c: 81 01 00 54  	b.ne	0x2199c <_ZNK22ChiFeature2RealTimeMCX24OnPruneUsecaseDescriptorEPK26ChiFeature2CreateInputInfoRNSt3__16vectorI12PruneVariantNS3_9allocatorIS5_EEEE+0xd9c>
   21974: 60 ff ff d0  	adrp	x0, 0xf000 <_ZNK22ChiFeature2RealTimeMCX24OnPruneUsecaseDescriptorEPK26ChiFeature2CreateInputInfoRNSt3__16vectorI12PruneVariantNS3_9allocatorIS5_EEEE+0xd2c>
   21980: 20 01 00 54  	b.eq	0x219a4 <_ZNK22ChiFeature2RealTimeMCX24OnPruneUsecaseDescriptorEPK26ChiFeature2CreateInputInfoRNSt3__16vectorI12PruneVariantNS3_9allocatorIS5_EEEE+0xda4>
   2198c: c0 00 00 54  	b.eq	0x219a4 <_ZNK22ChiFeature2RealTimeMCX24OnPruneUsecaseDescriptorEPK26ChiFeature2CreateInputInfoRNSt3__16vectorI12PruneVariantNS3_9allocatorIS5_EEEE+0xda4>
   21998: 60 00 00 54  	b.eq	0x219a4 <_ZNK22ChiFeature2RealTimeMCX24OnPruneUsecaseDescriptorEPK26ChiFeature2CreateInputInfoRNSt3__16vectorI12PruneVariantNS3_9allocatorIS5_EEEE+0xda4>
   2199c: 80 ff ff b0  	adrp	x0, 0x12000 <_ZNK22ChiFeature2RealTimeMCX24OnPruneUsecaseDescriptorEPK26ChiFeature2CreateInputInfoRNSt3__16vectorI12PruneVariantNS3_9allocatorIS5_EEEE+0xd60>
   219a4: 73 d8 00 94  	bl	0x57b70 <_ZN15UsecaseSelector14GetVariantTypeEPKc@plt>
   219b4: 00 01 00 54  	b.eq	0x219d4 <_ZNK22ChiFeature2RealTimeMCX24OnPruneUsecaseDescriptorEPK26ChiFeature2CreateInputInfoRNSt3__16vectorI12PruneVariantNS3_9allocatorIS5_EEEE+0xdd4>
   219d0: 29 00 00 14  	b	0x21a74 <_ZNK22ChiFeature2RealTimeMCX24OnPruneUsecaseDescriptorEPK26ChiFeature2CreateInputInfoRNSt3__16vectorI12PruneVariantNS3_9allocatorIS5_EEEE+0xe74>
   219e8: a9 35 00 b5  	cbnz	x9, 0x2209c <_ZNK22ChiFeature2RealTimeMCX24OnPruneUsecaseDescriptorEPK26ChiFeature2CreateInputInfoRNSt3__16vectorI12PruneVariantNS3_9allocatorIS5_EEEE+0x149c>
   21a0c: 1b 01 00 b4  	cbz	x27, 0x21a2c <_ZNK22ChiFeature2RealTimeMCX24OnPruneUsecaseDescriptorEPK26ChiFeature2CreateInputInfoRNSt3__16vectorI12PruneVariantNS3_9allocatorIS5_EEEE+0xe2c>
   21a14: 8f 34 00 b5  	cbnz	x15, 0x220a4 <_ZNK22ChiFeature2RealTimeMCX24OnPruneUsecaseDescriptorEPK26ChiFeature2CreateInputInfoRNSt3__16vectorI12PruneVariantNS3_9allocatorIS5_EEEE+0x14a4>
   21a28: 02 00 00 14  	b	0x21a30 <_ZNK22ChiFeature2RealTimeMCX24OnPruneUsecaseDescriptorEPK26ChiFeature2CreateInputInfoRNSt3__16vectorI12PruneVariantNS3_9allocatorIS5_EEEE+0xe30>
   21a48: ab 00 00 54  	b.lt	0x21a5c <_ZNK22ChiFeature2RealTimeMCX24OnPruneUsecaseDescriptorEPK26ChiFeature2CreateInputInfoRNSt3__16vectorI12PruneVariantNS3_9allocatorIS5_EEEE+0xe5c>
   21a68: 7a 00 00 b4  	cbz	x26, 0x21a74 <_ZNK22ChiFeature2RealTimeMCX24OnPruneUsecaseDescriptorEPK26ChiFeature2CreateInputInfoRNSt3__16vectorI12PruneVariantNS3_9allocatorIS5_EEEE+0xe74>
   21a74: e9 01 00 f0  	adrp	x9, 0x60000 <_ZNK22ChiFeature2RealTimeMCX24OnPruneUsecaseDescriptorEPK26ChiFeature2CreateInputInfoRNSt3__16vectorI12PruneVariantNS3_9allocatorIS5_EEEE+0xf70>
   21a80: 63 06 18 36  	tbz	w3, #3, 0x21b4c <_ZNK22ChiFeature2RealTimeMCX24OnPruneUsecaseDescriptorEPK26ChiFeature2CreateInputInfoRNSt3__16vectorI12PruneVariantNS3_9allocatorIS5_EEEE+0xf4c>
   21a84: eb 01 00 f0  	adrp	x11, 0x60000 <_ZNK22ChiFeature2RealTimeMCX24OnPruneUsecaseDescriptorEPK26ChiFeature2CreateInputInfoRNSt3__16vectorI12PruneVariantNS3_9allocatorIS5_EEEE+0xf80>
   21a94: e1 02 00 54  	b.ne	0x21af0 <_ZNK22ChiFeature2RealTimeMCX24OnPruneUsecaseDescriptorEPK26ChiFeature2CreateInputInfoRNSt3__16vectorI12PruneVariantNS3_9allocatorIS5_EEEE+0xef0>
   21a98: 79 ff ff 90  	adrp	x25, 0xd000 <_ZNK22ChiFeature2RealTimeMCX24OnPruneUsecaseDescriptorEPK26ChiFeature2CreateInputInfoRNSt3__16vectorI12PruneVariantNS3_9allocatorIS5_EEEE+0xe48>
   21ab8: a1 ff ff d0  	adrp	x1, 0x17000 <_ZNK22ChiFeature2RealTimeMCX24OnPruneUsecaseDescriptorEPK26ChiFeature2CreateInputInfoRNSt3__16vectorI12PruneVariantNS3_9allocatorIS5_EEEE+0xe90>
   21abc: 62 ff ff f0  	adrp	x2, 0x10000 <_ZNK22ChiFeature2RealTimeMCX24OnPruneUsecaseDescriptorEPK26ChiFeature2CreateInputInfoRNSt3__16vectorI12PruneVariantNS3_9allocatorIS5_EEEE+0xe78>
   21ac0: a5 ff ff b0  	adrp	x5, 0x16000 <_ZNK22ChiFeature2RealTimeMCX24OnPruneUsecaseDescriptorEPK26ChiFeature2CreateInputInfoRNSt3__16vectorI12PruneVariantNS3_9allocatorIS5_EEEE+0xe94>
   21af0: 7a ff ff 90  	adrp	x26, 0xd000 <_ZNK22ChiFeature2RealTimeMCX24OnPruneUsecaseDescriptorEPK26ChiFeature2CreateInputInfoRNSt3__16vectorI12PruneVariantNS3_9allocatorIS5_EEEE+0xea0>
   21b14: a0 ff ff f0  	adrp	x0, 0x18000 <_ZNK22ChiFeature2RealTimeMCX24OnPruneUsecaseDescriptorEPK26ChiFeature2CreateInputInfoRNSt3__16vectorI12PruneVariantNS3_9allocatorIS5_EEEE+0xef0>
   21b18: 81 ff ff b0  	adrp	x1, 0x12000 <_ZNK22ChiFeature2RealTimeMCX24OnPruneUsecaseDescriptorEPK26ChiFeature2CreateInputInfoRNSt3__16vectorI12PruneVariantNS3_9allocatorIS5_EEEE+0xedc>
   21b1c: a3 ff ff b0  	adrp	x3, 0x16000 <_ZNK22ChiFeature2RealTimeMCX24OnPruneUsecaseDescriptorEPK26ChiFeature2CreateInputInfoRNSt3__16vectorI12PruneVariantNS3_9allocatorIS5_EEEE+0xef0>
   21b20: 85 ff ff b0  	adrp	x5, 0x12000 <_ZNK22ChiFeature2RealTimeMCX24OnPruneUsecaseDescriptorEPK26ChiFeature2CreateInputInfoRNSt3__16vectorI12PruneVariantNS3_9allocatorIS5_EEEE+0xee4>
   21b48: a6 d7 00 94  	bl	0x579e0 <_ZN6ChiLog9LogSystemEPKcS1_S1_S1_iS1_z@plt>
   21b4c: 80 ff ff 90  	adrp	x0, 0x11000 <_ZNK22ChiFeature2RealTimeMCX24OnPruneUsecaseDescriptorEPK26ChiFeature2CreateInputInfoRNSt3__16vectorI12PruneVariantNS3_9allocatorIS5_EEEE+0xf0c>
   21b54: 03 d8 00 94  	bl	0x57b60 <_ZN15UsecaseSelector15GetVariantGroupEPKc@plt>
   21b5c: 80 ff ff b0  	adrp	x0, 0x12000 <_ZNK22ChiFeature2RealTimeMCX24OnPruneUsecaseDescriptorEPK26ChiFeature2CreateInputInfoRNSt3__16vectorI12PruneVariantNS3_9allocatorIS5_EEEE+0xf20>
   21b64: 03 d8 00 94  	bl	0x57b70 <_ZN15UsecaseSelector14GetVariantTypeEPKc@plt>
   21b74: 00 01 00 54  	b.eq	0x21b94 <_ZNK22ChiFeature2RealTimeMCX24OnPruneUsecaseDescriptorEPK26ChiFeature2CreateInputInfoRNSt3__16vectorI12PruneVariantNS3_9allocatorIS5_EEEE+0xf94>
   21b90: 29 00 00 14  	b	0x21c34 <_ZNK22ChiFeature2RealTimeMCX24OnPruneUsecaseDescriptorEPK26ChiFeature2CreateInputInfoRNSt3__16vectorI12PruneVariantNS3_9allocatorIS5_EEEE+0x1034>
   21ba8: ba 27 00 b5  	cbnz	x26, 0x2209c <_ZNK22ChiFeature2RealTimeMCX24OnPruneUsecaseDescriptorEPK26ChiFeature2CreateInputInfoRNSt3__16vectorI12PruneVariantNS3_9allocatorIS5_EEEE+0x149c>
   21bcc: 1a 01 00 b4  	cbz	x26, 0x21bec <_ZNK22ChiFeature2RealTimeMCX24OnPruneUsecaseDescriptorEPK26ChiFeature2CreateInputInfoRNSt3__16vectorI12PruneVariantNS3_9allocatorIS5_EEEE+0xfec>
   21bd4: 82 26 00 b5  	cbnz	x2, 0x220a4 <_ZNK22ChiFeature2RealTimeMCX24OnPruneUsecaseDescriptorEPK26ChiFeature2CreateInputInfoRNSt3__16vectorI12PruneVariantNS3_9allocatorIS5_EEEE+0x14a4>
   21be8: 02 00 00 14  	b	0x21bf0 <_ZNK22ChiFeature2RealTimeMCX24OnPruneUsecaseDescriptorEPK26ChiFeature2CreateInputInfoRNSt3__16vectorI12PruneVariantNS3_9allocatorIS5_EEEE+0xff0>
   21c08: ab 00 00 54  	b.lt	0x21c1c <_ZNK22ChiFeature2RealTimeMCX24OnPruneUsecaseDescriptorEPK26ChiFeature2CreateInputInfoRNSt3__16vectorI12PruneVariantNS3_9allocatorIS5_EEEE+0x101c>
   21c28: 75 00 00 b4  	cbz	x21, 0x21c34 <_ZNK22ChiFeature2RealTimeMCX24OnPruneUsecaseDescriptorEPK26ChiFeature2CreateInputInfoRNSt3__16vectorI12PruneVariantNS3_9allocatorIS5_EEEE+0x1034>
   21c34: f7 01 00 f0  	adrp	x23, 0x60000 <_ZNK22ChiFeature2RealTimeMCX24OnPruneUsecaseDescriptorEPK26ChiFeature2CreateInputInfoRNSt3__16vectorI12PruneVariantNS3_9allocatorIS5_EEEE+0x1130>
   21c40: c5 05 18 36  	tbz	w5, #3, 0x21cf8 <_ZNK22ChiFeature2RealTimeMCX24OnPruneUsecaseDescriptorEPK26ChiFeature2CreateInputInfoRNSt3__16vectorI12PruneVariantNS3_9allocatorIS5_EEEE+0x10f8>
   21c44: ed 01 00 f0  	adrp	x13, 0x60000 <_ZNK22ChiFeature2RealTimeMCX24OnPruneUsecaseDescriptorEPK26ChiFeature2CreateInputInfoRNSt3__16vectorI12PruneVariantNS3_9allocatorIS5_EEEE+0x1140>
   21c54: 81 02 00 54  	b.ne	0x21ca4 <_ZNK22ChiFeature2RealTimeMCX24OnPruneUsecaseDescriptorEPK26ChiFeature2CreateInputInfoRNSt3__16vectorI12PruneVariantNS3_9allocatorIS5_EEEE+0x10a4>
   21c58: 7c ff ff 90  	adrp	x28, 0xd000 <_ZNK22ChiFeature2RealTimeMCX24OnPruneUsecaseDescriptorEPK26ChiFeature2CreateInputInfoRNSt3__16vectorI12PruneVariantNS3_9allocatorIS5_EEEE+0x1008>
   21c74: a1 ff ff d0  	adrp	x1, 0x17000 <_ZNK22ChiFeature2RealTimeMCX24OnPruneUsecaseDescriptorEPK26ChiFeature2CreateInputInfoRNSt3__16vectorI12PruneVariantNS3_9allocatorIS5_EEEE+0x104c>
   21c78: 62 ff ff b0  	adrp	x2, 0xe000 <_ZNK22ChiFeature2RealTimeMCX24OnPruneUsecaseDescriptorEPK26ChiFeature2CreateInputInfoRNSt3__16vectorI12PruneVariantNS3_9allocatorIS5_EEEE+0x102c>
   21c7c: a5 ff ff b0  	adrp	x5, 0x16000 <_ZNK22ChiFeature2RealTimeMCX24OnPruneUsecaseDescriptorEPK26ChiFeature2CreateInputInfoRNSt3__16vectorI12PruneVariantNS3_9allocatorIS5_EEEE+0x1050>
   21ca4: 76 ff ff 90  	adrp	x22, 0xd000 <_ZNK22ChiFeature2RealTimeMCX24OnPruneUsecaseDescriptorEPK26ChiFeature2CreateInputInfoRNSt3__16vectorI12PruneVariantNS3_9allocatorIS5_EEEE+0x1054>
   21cc0: 81 ff ff b0  	adrp	x1, 0x12000 <_ZNK22ChiFeature2RealTimeMCX24OnPruneUsecaseDescriptorEPK26ChiFeature2CreateInputInfoRNSt3__16vectorI12PruneVariantNS3_9allocatorIS5_EEEE+0x1084>
   21cc8: a0 ff ff f0  	adrp	x0, 0x18000 <_ZNK22ChiFeature2RealTimeMCX24OnPruneUsecaseDescriptorEPK26ChiFeature2CreateInputInfoRNSt3__16vectorI12PruneVariantNS3_9allocatorIS5_EEEE+0x10a4>
   21ccc: a3 ff ff b0  	adrp	x3, 0x16000 <_ZNK22ChiFeature2RealTimeMCX24OnPruneUsecaseDescriptorEPK26ChiFeature2CreateInputInfoRNSt3__16vectorI12PruneVariantNS3_9allocatorIS5_EEEE+0x10a0>
   21cd0: 65 ff ff f0  	adrp	x5, 0x10000 <_ZNK22ChiFeature2RealTimeMCX24OnPruneUsecaseDescriptorEPK26ChiFeature2CreateInputInfoRNSt3__16vectorI12PruneVariantNS3_9allocatorIS5_EEEE+0x108c>
   21cf0: 3c d7 00 94  	bl	0x579e0 <_ZN6ChiLog9LogSystemEPKcS1_S1_S1_iS1_z@plt>
   21d04: e1 0d 00 54  	b.ne	0x21ec0 <_ZNK22ChiFeature2RealTimeMCX24OnPruneUsecaseDescriptorEPK26ChiFeature2CreateInputInfoRNSt3__16vectorI12PruneVariantNS3_9allocatorIS5_EEEE+0x12c0>
   21d08: a0 ff ff d0  	adrp	x0, 0x17000 <_ZNK22ChiFeature2RealTimeMCX24OnPruneUsecaseDescriptorEPK26ChiFeature2CreateInputInfoRNSt3__16vectorI12PruneVariantNS3_9allocatorIS5_EEEE+0x10e0>
   21d10: 94 d7 00 94  	bl	0x57b60 <_ZN15UsecaseSelector15GetVariantGroupEPKc@plt>
   21d18: 40 ff ff f0  	adrp	x0, 0xc000 <_ZNK22ChiFeature2RealTimeMCX24OnPruneUsecaseDescriptorEPK26ChiFeature2CreateInputInfoRNSt3__16vectorI12PruneVariantNS3_9allocatorIS5_EEEE+0x10c4>
   21d20: 94 d7 00 94  	bl	0x57b70 <_ZN15UsecaseSelector14GetVariantTypeEPKc@plt>
   21d30: 00 01 00 54  	b.eq	0x21d50 <_ZNK22ChiFeature2RealTimeMCX24OnPruneUsecaseDescriptorEPK26ChiFeature2CreateInputInfoRNSt3__16vectorI12PruneVariantNS3_9allocatorIS5_EEEE+0x1150>
   21d4c: 28 00 00 14  	b	0x21dec <_ZNK22ChiFeature2RealTimeMCX24OnPruneUsecaseDescriptorEPK26ChiFeature2CreateInputInfoRNSt3__16vectorI12PruneVariantNS3_9allocatorIS5_EEEE+0x11ec>
   21d64: c4 19 00 b5  	cbnz	x4, 0x2209c <_ZNK22ChiFeature2RealTimeMCX24OnPruneUsecaseDescriptorEPK26ChiFeature2CreateInputInfoRNSt3__16vectorI12PruneVariantNS3_9allocatorIS5_EEEE+0x149c>
   21d88: 1c 01 00 b4  	cbz	x28, 0x21da8 <_ZNK22ChiFeature2RealTimeMCX24OnPruneUsecaseDescriptorEPK26ChiFeature2CreateInputInfoRNSt3__16vectorI12PruneVariantNS3_9allocatorIS5_EEEE+0x11a8>
   21d90: ab 18 00 b5  	cbnz	x11, 0x220a4 <_ZNK22ChiFeature2RealTimeMCX24OnPruneUsecaseDescriptorEPK26ChiFeature2CreateInputInfoRNSt3__16vectorI12PruneVariantNS3_9allocatorIS5_EEEE+0x14a4>
   21da4: 02 00 00 14  	b	0x21dac <_ZNK22ChiFeature2RealTimeMCX24OnPruneUsecaseDescriptorEPK26ChiFeature2CreateInputInfoRNSt3__16vectorI12PruneVariantNS3_9allocatorIS5_EEEE+0x11ac>
   21dc4: ab 00 00 54  	b.lt	0x21dd8 <_ZNK22ChiFeature2RealTimeMCX24OnPruneUsecaseDescriptorEPK26ChiFeature2CreateInputInfoRNSt3__16vectorI12PruneVariantNS3_9allocatorIS5_EEEE+0x11d8>
   21de0: 79 00 00 b4  	cbz	x25, 0x21dec <_ZNK22ChiFeature2RealTimeMCX24OnPruneUsecaseDescriptorEPK26ChiFeature2CreateInputInfoRNSt3__16vectorI12PruneVariantNS3_9allocatorIS5_EEEE+0x11ec>
   21dec: eb 01 00 f0  	adrp	x11, 0x60000 <_ZNK22ChiFeature2RealTimeMCX24OnPruneUsecaseDescriptorEPK26ChiFeature2CreateInputInfoRNSt3__16vectorI12PruneVariantNS3_9allocatorIS5_EEEE+0x12e8>
   21dfc: 20 06 18 36  	tbz	w0, #3, 0x21ec0 <_ZNK22ChiFeature2RealTimeMCX24OnPruneUsecaseDescriptorEPK26ChiFeature2CreateInputInfoRNSt3__16vectorI12PruneVariantNS3_9allocatorIS5_EEEE+0x12c0>
   21e00: f0 01 00 f0  	adrp	x16, 0x60000 <_ZNK22ChiFeature2RealTimeMCX24OnPruneUsecaseDescriptorEPK26ChiFeature2CreateInputInfoRNSt3__16vectorI12PruneVariantNS3_9allocatorIS5_EEEE+0x12fc>
   21e10: c1 02 00 54  	b.ne	0x21e68 <_ZNK22ChiFeature2RealTimeMCX24OnPruneUsecaseDescriptorEPK26ChiFeature2CreateInputInfoRNSt3__16vectorI12PruneVariantNS3_9allocatorIS5_EEEE+0x1268>
   21e14: 7b ff ff 90  	adrp	x27, 0xd000 <_ZNK22ChiFeature2RealTimeMCX24OnPruneUsecaseDescriptorEPK26ChiFeature2CreateInputInfoRNSt3__16vectorI12PruneVariantNS3_9allocatorIS5_EEEE+0x11c4>
   21e34: a1 ff ff d0  	adrp	x1, 0x17000 <_ZNK22ChiFeature2RealTimeMCX24OnPruneUsecaseDescriptorEPK26ChiFeature2CreateInputInfoRNSt3__16vectorI12PruneVariantNS3_9allocatorIS5_EEEE+0x120c>
   21e38: 82 ff ff f0  	adrp	x2, 0x14000 <_ZNK22ChiFeature2RealTimeMCX24OnPruneUsecaseDescriptorEPK26ChiFeature2CreateInputInfoRNSt3__16vectorI12PruneVariantNS3_9allocatorIS5_EEEE+0x1204>
   21e3c: a5 ff ff b0  	adrp	x5, 0x16000 <_ZNK22ChiFeature2RealTimeMCX24OnPruneUsecaseDescriptorEPK26ChiFeature2CreateInputInfoRNSt3__16vectorI12PruneVariantNS3_9allocatorIS5_EEEE+0x1210>
   21e68: 79 ff ff 90  	adrp	x25, 0xd000 <_ZNK22ChiFeature2RealTimeMCX24OnPruneUsecaseDescriptorEPK26ChiFeature2CreateInputInfoRNSt3__16vectorI12PruneVariantNS3_9allocatorIS5_EEEE+0x1218>
   21e8c: a0 ff ff f0  	adrp	x0, 0x18000 <_ZNK22ChiFeature2RealTimeMCX24OnPruneUsecaseDescriptorEPK26ChiFeature2CreateInputInfoRNSt3__16vectorI12PruneVariantNS3_9allocatorIS5_EEEE+0x1268>
   21e90: 81 ff ff b0  	adrp	x1, 0x12000 <_ZNK22ChiFeature2RealTimeMCX24OnPruneUsecaseDescriptorEPK26ChiFeature2CreateInputInfoRNSt3__16vectorI12PruneVariantNS3_9allocatorIS5_EEEE+0x1254>
   21e94: a3 ff ff b0  	adrp	x3, 0x16000 <_ZNK22ChiFeature2RealTimeMCX24OnPruneUsecaseDescriptorEPK26ChiFeature2CreateInputInfoRNSt3__16vectorI12PruneVariantNS3_9allocatorIS5_EEEE+0x1268>
   21e98: 65 ff ff d0  	adrp	x5, 0xf000 <_ZNK22ChiFeature2RealTimeMCX24OnPruneUsecaseDescriptorEPK26ChiFeature2CreateInputInfoRNSt3__16vectorI12PruneVariantNS3_9allocatorIS5_EEEE+0x1250>
   21ebc: c9 d6 00 94  	bl	0x579e0 <_ZN6ChiLog9LogSystemEPKcS1_S1_S1_iS1_z@plt>
   21ec0: 60 ff ff b0  	adrp	x0, 0xe000 <_ZNK22ChiFeature2RealTimeMCX24OnPruneUsecaseDescriptorEPK26ChiFeature2CreateInputInfoRNSt3__16vectorI12PruneVariantNS3_9allocatorIS5_EEEE+0x1274>
   21ec8: 26 d7 00 94  	bl	0x57b60 <_ZN15UsecaseSelector15GetVariantGroupEPKc@plt>
   21ed0: a0 ff ff f0  	adrp	x0, 0x18000 <_ZNK22ChiFeature2RealTimeMCX24OnPruneUsecaseDescriptorEPK26ChiFeature2CreateInputInfoRNSt3__16vectorI12PruneVariantNS3_9allocatorIS5_EEEE+0x12ac>
   21ed8: 26 d7 00 94  	bl	0x57b70 <_ZN15UsecaseSelector14GetVariantTypeEPKc@plt>
   21ee8: 00 01 00 54  	b.eq	0x21f08 <_ZNK22ChiFeature2RealTimeMCX24OnPruneUsecaseDescriptorEPK26ChiFeature2CreateInputInfoRNSt3__16vectorI12PruneVariantNS3_9allocatorIS5_EEEE+0x1308>
   21f04: 28 00 00 14  	b	0x21fa4 <_ZNK22ChiFeature2RealTimeMCX24OnPruneUsecaseDescriptorEPK26ChiFeature2CreateInputInfoRNSt3__16vectorI12PruneVariantNS3_9allocatorIS5_EEEE+0x13a4>
   21f1c: 0d 0c 00 b5  	cbnz	x13, 0x2209c <_ZNK22ChiFeature2RealTimeMCX24OnPruneUsecaseDescriptorEPK26ChiFeature2CreateInputInfoRNSt3__16vectorI12PruneVariantNS3_9allocatorIS5_EEEE+0x149c>
   21f40: 1b 01 00 b4  	cbz	x27, 0x21f60 <_ZNK22ChiFeature2RealTimeMCX24OnPruneUsecaseDescriptorEPK26ChiFeature2CreateInputInfoRNSt3__16vectorI12PruneVariantNS3_9allocatorIS5_EEEE+0x1360>
   21f48: f0 0a 00 b5  	cbnz	x16, 0x220a4 <_ZNK22ChiFeature2RealTimeMCX24OnPruneUsecaseDescriptorEPK26ChiFeature2CreateInputInfoRNSt3__16vectorI12PruneVariantNS3_9allocatorIS5_EEEE+0x14a4>
   21f5c: 02 00 00 14  	b	0x21f64 <_ZNK22ChiFeature2RealTimeMCX24OnPruneUsecaseDescriptorEPK26ChiFeature2CreateInputInfoRNSt3__16vectorI12PruneVariantNS3_9allocatorIS5_EEEE+0x1364>
   21f7c: ab 00 00 54  	b.lt	0x21f90 <_ZNK22ChiFeature2RealTimeMCX24OnPruneUsecaseDescriptorEPK26ChiFeature2CreateInputInfoRNSt3__16vectorI12PruneVariantNS3_9allocatorIS5_EEEE+0x1390>
   21f98: 76 00 00 b4  	cbz	x22, 0x21fa4 <_ZNK22ChiFeature2RealTimeMCX24OnPruneUsecaseDescriptorEPK26ChiFeature2CreateInputInfoRNSt3__16vectorI12PruneVariantNS3_9allocatorIS5_EEEE+0x13a4>
   21fa4: ea 01 00 f0  	adrp	x10, 0x60000 <_ZNK22ChiFeature2RealTimeMCX24OnPruneUsecaseDescriptorEPK26ChiFeature2CreateInputInfoRNSt3__16vectorI12PruneVariantNS3_9allocatorIS5_EEEE+0x14a0>
   21fb0: 41 06 18 36  	tbz	w1, #3, 0x22078 <_ZNK22ChiFeature2RealTimeMCX24OnPruneUsecaseDescriptorEPK26ChiFeature2CreateInputInfoRNSt3__16vectorI12PruneVariantNS3_9allocatorIS5_EEEE+0x1478>
   21fb4: f4 01 00 f0  	adrp	x20, 0x60000 <_ZN22ChiFeature2RealTimeMCX23OnPreparePipelineCreateEP21ChiFeature2Identifier+0x8>
   21fc8: c1 02 00 54  	b.ne	0x22020 <_ZNK22ChiFeature2RealTimeMCX24OnPruneUsecaseDescriptorEPK26ChiFeature2CreateInputInfoRNSt3__16vectorI12PruneVariantNS3_9allocatorIS5_EEEE+0x1420>
   21fcc: 75 ff ff 90  	adrp	x21, 0xd000 <_ZNK22ChiFeature2RealTimeMCX24OnPruneUsecaseDescriptorEPK26ChiFeature2CreateInputInfoRNSt3__16vectorI12PruneVariantNS3_9allocatorIS5_EEEE+0x137c>
   21fec: a1 ff ff d0  	adrp	x1, 0x17000 <_ZNK22ChiFeature2RealTimeMCX24OnPruneUsecaseDescriptorEPK26ChiFeature2CreateInputInfoRNSt3__16vectorI12PruneVariantNS3_9allocatorIS5_EEEE+0x13c4>
   21ff0: 82 ff ff 90  	adrp	x2, 0x11000 <_ZNK22ChiFeature2RealTimeMCX24OnPruneUsecaseDescriptorEPK26ChiFeature2CreateInputInfoRNSt3__16vectorI12PruneVariantNS3_9allocatorIS5_EEEE+0x13b0>
   21ff4: a5 ff ff b0  	adrp	x5, 0x16000 <_ZNK22ChiFeature2RealTimeMCX24OnPruneUsecaseDescriptorEPK26ChiFeature2CreateInputInfoRNSt3__16vectorI12PruneVariantNS3_9allocatorIS5_EEEE+0x13c8>
   22020: 5a ff ff f0  	adrp	x26, 0xd000 <_ZNK22ChiFeature2RealTimeMCX24OnPruneUsecaseDescriptorEPK26ChiFeature2CreateInputInfoRNSt3__16vectorI12PruneVariantNS3_9allocatorIS5_EEEE+0x13cc>
   22044: a0 ff ff d0  	adrp	x0, 0x18000 <_ZNK22ChiFeature2RealTimeMCX24OnPruneUsecaseDescriptorEPK26ChiFeature2CreateInputInfoRNSt3__16vectorI12PruneVariantNS3_9allocatorIS5_EEEE+0x141c>
   22048: 81 ff ff 90  	adrp	x1, 0x12000 <_ZNK22ChiFeature2RealTimeMCX24OnPruneUsecaseDescriptorEPK26ChiFeature2CreateInputInfoRNSt3__16vectorI12PruneVariantNS3_9allocatorIS5_EEEE+0x1408>
   2204c: a3 ff ff 90  	adrp	x3, 0x16000 <_ZNK22ChiFeature2RealTimeMCX24OnPruneUsecaseDescriptorEPK26ChiFeature2CreateInputInfoRNSt3__16vectorI12PruneVariantNS3_9allocatorIS5_EEEE+0x141c>
   22050: 65 ff ff f0  	adrp	x5, 0x11000 <_ZNK22ChiFeature2RealTimeMCX24OnPruneUsecaseDescriptorEPK26ChiFeature2CreateInputInfoRNSt3__16vectorI12PruneVariantNS3_9allocatorIS5_EEEE+0x140c>
   22074: 5b d6 00 94  	bl	0x579e0 <_ZN6ChiLog9LogSystemEPKcS1_S1_S1_iS1_z@plt>
   220a0: c0 d6 00 94  	bl	0x57ba0 <_ZNKSt3__120__vector_base_commonILb1EE20__throw_length_errorEv@plt>
00000000000220a8 <_ZN22ChiFeature2RealTimeMCX23OnPreparePipelineCreateEP21ChiFeature2Identifier>:
   220dc: b9 d6 00 94  	bl	0x57bc0 <_ZN15ChiFeature2Base23OnPreparePipelineCreateEP21ChiFeature2Identifier@plt>
   220e4: 60 8e 00 35  	cbnz	w0, 0x232b0 <_ZN22ChiFeature2RealTimeMCX23OnPreparePipelineCreateEP21ChiFeature2Identifier+0x1208>
   220e8: f7 01 00 b4  	cbz	x23, 0x22124 <_ZN22ChiFeature2RealTimeMCX23OnPreparePipelineCreateEP21ChiFeature2Identifier+0x7c>
   220fc: 42 01 00 54  	b.hs	0x22124 <_ZN22ChiFeature2RealTimeMCX23OnPreparePipelineCreateEP21ChiFeature2Identifier+0x7c>
   22104: 0b 01 00 b4  	cbz	x11, 0x22124 <_ZN22ChiFeature2RealTimeMCX23OnPreparePipelineCreateEP21ChiFeature2Identifier+0x7c>
   22118: 62 00 00 54  	b.hs	0x22124 <_ZN22ChiFeature2RealTimeMCX23OnPreparePipelineCreateEP21ChiFeature2Identifier+0x7c>
   22120: 02 00 00 14  	b	0x22128 <_ZN22ChiFeature2RealTimeMCX23OnPreparePipelineCreateEP21ChiFeature2Identifier+0x80>
   22150: 0e 03 00 34  	cbz	w14, 0x221b0 <_ZN22ChiFeature2RealTimeMCX23OnPreparePipelineCreateEP21ChiFeature2Identifier+0x108>
   22160: 09 00 00 14  	b	0x22184 <_ZN22ChiFeature2RealTimeMCX23OnPreparePipelineCreateEP21ChiFeature2Identifier+0xdc>
   22180: 82 01 00 54  	b.hs	0x221b0 <_ZN22ChiFeature2RealTimeMCX23OnPreparePipelineCreateEP21ChiFeature2Identifier+0x108>
   2218c: d3 fe ff b4  	cbz	x19, 0x22164 <_ZN22ChiFeature2RealTimeMCX23OnPreparePipelineCreateEP21ChiFeature2Identifier+0xbc>
   22194: 80 fe ff b4  	cbz	x0, 0x22164 <_ZN22ChiFeature2RealTimeMCX23OnPreparePipelineCreateEP21ChiFeature2Identifier+0xbc>
   221a0: 20 fe ff b4  	cbz	x0, 0x22164 <_ZN22ChiFeature2RealTimeMCX23OnPreparePipelineCreateEP21ChiFeature2Identifier+0xbc>
   221ac: ef ff ff 17  	b	0x22168 <_ZN22ChiFeature2RealTimeMCX23OnPreparePipelineCreateEP21ChiFeature2Identifier+0xc0>
   221b4: b3 18 00 b4  	cbz	x19, 0x224c8 <_ZN22ChiFeature2RealTimeMCX23OnPreparePipelineCreateEP21ChiFeature2Identifier+0x420>
   221bc: 6c 18 00 b4  	cbz	x12, 0x224c8 <_ZN22ChiFeature2RealTimeMCX23OnPreparePipelineCreateEP21ChiFeature2Identifier+0x420>
   221c4: f0 01 00 d0  	adrp	x16, 0x60000 <_ZN22ChiFeature2RealTimeMCX23OnPreparePipelineCreateEP21ChiFeature2Identifier+0x214>
   221ec: 5b 17 00 b4  	cbz	x27, 0x224d4 <_ZN22ChiFeature2RealTimeMCX23OnPreparePipelineCreateEP21ChiFeature2Identifier+0x42c>
   22204: 70 05 18 36  	tbz	w16, #3, 0x222b0 <_ZN22ChiFeature2RealTimeMCX23OnPreparePipelineCreateEP21ChiFeature2Identifier+0x208>
   22208: e2 01 00 d0  	adrp	x2, 0x60000 <_ZN22ChiFeature2RealTimeMCX23OnPreparePipelineCreateEP21ChiFeature2Identifier+0x258>
   2220c: 56 ff ff f0  	adrp	x22, 0xd000 <_ZN22ChiFeature2RealTimeMCX23OnPreparePipelineCreateEP21ChiFeature2Identifier+0x110>
   22220: 41 02 00 54  	b.ne	0x22268 <_ZN22ChiFeature2RealTimeMCX23OnPreparePipelineCreateEP21ChiFeature2Identifier+0x1c0>
   2223c: a1 ff ff b0  	adrp	x1, 0x17000 <_ZN22ChiFeature2RealTimeMCX23OnPreparePipelineCreateEP21ChiFeature2Identifier+0x168>
   22240: 42 ff ff d0  	adrp	x2, 0xc000 <_ZN22ChiFeature2RealTimeMCX23OnPreparePipelineCreateEP21ChiFeature2Identifier+0x140>
   22244: 65 ff ff d0  	adrp	x5, 0x10000 <_ZN22ChiFeature2RealTimeMCX23OnPreparePipelineCreateEP21ChiFeature2Identifier+0x154>
   22284: a0 ff ff d0  	adrp	x0, 0x18000 <_ZN22ChiFeature2RealTimeMCX23OnPreparePipelineCreateEP21ChiFeature2Identifier+0x1b4>
   22288: 81 ff ff 90  	adrp	x1, 0x12000 <_ZN22ChiFeature2RealTimeMCX23OnPreparePipelineCreateEP21ChiFeature2Identifier+0x1a0>
   2228c: 63 ff ff d0  	adrp	x3, 0x10000 <_ZN22ChiFeature2RealTimeMCX23OnPreparePipelineCreateEP21ChiFeature2Identifier+0x19c>
   22290: 65 ff ff 90  	adrp	x5, 0xe000 <_ZN22ChiFeature2RealTimeMCX23OnPreparePipelineCreateEP21ChiFeature2Identifier+0x198>
   222ac: cd d5 00 94  	bl	0x579e0 <_ZN6ChiLog9LogSystemEPKcS1_S1_S1_iS1_z@plt>
   222bc: e8 00 00 54  	b.hi	0x222d8 <_ZN22ChiFeature2RealTimeMCX23OnPreparePipelineCreateEP21ChiFeature2Identifier+0x230>
   222d4: 81 00 00 54  	b.ne	0x222e4 <_ZN22ChiFeature2RealTimeMCX23OnPreparePipelineCreateEP21ChiFeature2Identifier+0x23c>
   222e0: 61 00 00 54  	b.ne	0x222ec <_ZN22ChiFeature2RealTimeMCX23OnPreparePipelineCreateEP21ChiFeature2Identifier+0x244>
   222f0: 61 ff ff b0  	adrp	x1, 0xf000 <_ZN22ChiFeature2RealTimeMCX23OnPreparePipelineCreateEP21ChiFeature2Identifier+0x1fc>
   222f8: a2 ff ff b0  	adrp	x2, 0x17000 <_ZN22ChiFeature2RealTimeMCX23OnPreparePipelineCreateEP21ChiFeature2Identifier+0x224>
   22314: e0 05 00 35  	cbnz	w0, 0x223d0 <_ZN22ChiFeature2RealTimeMCX23OnPreparePipelineCreateEP21ChiFeature2Identifier+0x328>
   22318: e7 01 00 d0  	adrp	x7, 0x60000 <_ZN22ChiFeature2RealTimeMCX23OnPreparePipelineCreateEP21ChiFeature2Identifier+0x368>
   22324: 61 05 18 36  	tbz	w1, #3, 0x223d0 <_ZN22ChiFeature2RealTimeMCX23OnPreparePipelineCreateEP21ChiFeature2Identifier+0x328>
   22328: e5 01 00 d0  	adrp	x5, 0x60000 <_ZN22ChiFeature2RealTimeMCX23OnPreparePipelineCreateEP21ChiFeature2Identifier+0x378>
   22338: 61 02 00 54  	b.ne	0x22384 <_ZN22ChiFeature2RealTimeMCX23OnPreparePipelineCreateEP21ChiFeature2Identifier+0x2dc>
   2233c: 56 ff ff f0  	adrp	x22, 0xd000 <_ZN22ChiFeature2RealTimeMCX23OnPreparePipelineCreateEP21ChiFeature2Identifier+0x240>
   2235c: a1 ff ff b0  	adrp	x1, 0x17000 <_ZN22ChiFeature2RealTimeMCX23OnPreparePipelineCreateEP21ChiFeature2Identifier+0x288>
   22360: 82 ff ff d0  	adrp	x2, 0x14000 <_ZN22ChiFeature2RealTimeMCX23OnPreparePipelineCreateEP21ChiFeature2Identifier+0x280>
   22364: 65 ff ff d0  	adrp	x5, 0x10000 <_ZN22ChiFeature2RealTimeMCX23OnPreparePipelineCreateEP21ChiFeature2Identifier+0x274>
   22384: 56 ff ff f0  	adrp	x22, 0xd000 <_ZN22ChiFeature2RealTimeMCX23OnPreparePipelineCreateEP21ChiFeature2Identifier+0x288>
   223a8: a0 ff ff d0  	adrp	x0, 0x18000 <_ZN22ChiFeature2RealTimeMCX23OnPreparePipelineCreateEP21ChiFeature2Identifier+0x2d8>
   223ac: 81 ff ff 90  	adrp	x1, 0x12000 <_ZN22ChiFeature2RealTimeMCX23OnPreparePipelineCreateEP21ChiFeature2Identifier+0x2c4>
   223b0: 63 ff ff d0  	adrp	x3, 0x10000 <_ZN22ChiFeature2RealTimeMCX23OnPreparePipelineCreateEP21ChiFeature2Identifier+0x2c0>
   223b4: a5 ff ff 90  	adrp	x5, 0x16000 <_ZN22ChiFeature2RealTimeMCX23OnPreparePipelineCreateEP21ChiFeature2Identifier+0x2dc>
   223cc: 85 d5 00 94  	bl	0x579e0 <_ZN6ChiLog9LogSystemEPKcS1_S1_S1_iS1_z@plt>
   223d4: 41 ff ff f0  	adrp	x1, 0xd000 <_ZN22ChiFeature2RealTimeMCX23OnPreparePipelineCreateEP21ChiFeature2Identifier+0x2d8>
   223dc: a2 ff ff 90  	adrp	x2, 0x16000 <_ZN22ChiFeature2RealTimeMCX23OnPreparePipelineCreateEP21ChiFeature2Identifier+0x304>
   22400: e0 21 00 35  	cbnz	w0, 0x2283c <_ZN22ChiFeature2RealTimeMCX23OnPreparePipelineCreateEP21ChiFeature2Identifier+0x794>
   22410: f8 d5 00 94  	bl	0x57bf0 <_ZN16ChiFeature2Utils23GetcameraHdrModeFromXmlEjPK17LogicalCameraInfo@plt>
   22418: c1 02 00 54  	b.ne	0x22470 <_ZN22ChiFeature2RealTimeMCX23OnPreparePipelineCreateEP21ChiFeature2Identifier+0x3c8>
   22424: d7 d5 00 94  	bl	0x57b80 <_ZN15ExtensionModule11GetInstanceEv@plt>
   22438: f2 d5 00 94  	bl	0x57c00 <_ZN15ExtensionModule28GetPhysicalCameraSensorModesEjPjPP17ChiSensorModeInfo@plt>
   22440: 88 01 00 b4  	cbz	x8, 0x22470 <_ZN22ChiFeature2RealTimeMCX23OnPreparePipelineCreateEP21ChiFeature2Identifier+0x3c8>
   22448: 4a 01 00 34  	cbz	w10, 0x22470 <_ZN22ChiFeature2RealTimeMCX23OnPreparePipelineCreateEP21ChiFeature2Identifier+0x3c8>
   2245c: 07 0c f8 37  	tbnz	w7, #31, 0x225dc <_ZN22ChiFeature2RealTimeMCX23OnPreparePipelineCreateEP21ChiFeature2Identifier+0x534>
   2246c: 61 ff ff 54  	b.ne	0x22458 <_ZN22ChiFeature2RealTimeMCX23OnPreparePipelineCreateEP21ChiFeature2Identifier+0x3b0>
   22478: f4 0d 30 36  	tbz	w20, #6, 0x22634 <_ZN22ChiFeature2RealTimeMCX23OnPreparePipelineCreateEP21ChiFeature2Identifier+0x58c>
   2247c: 49 ff ff d0  	adrp	x9, 0xc000 <_ZN22ChiFeature2RealTimeMCX23OnPreparePipelineCreateEP21ChiFeature2Identifier+0x37c>
   22480: 53 ff ff d0  	adrp	x19, 0xc000 <_ZN22ChiFeature2RealTimeMCX23OnPreparePipelineCreateEP21ChiFeature2Identifier+0x380>
   224ac: 48 03 00 54  	b.hi	0x22514 <_ZN22ChiFeature2RealTimeMCX23OnPreparePipelineCreateEP21ChiFeature2Identifier+0x46c>
   224c4: 5c 00 00 14  	b	0x22634 <_ZN22ChiFeature2RealTimeMCX23OnPreparePipelineCreateEP21ChiFeature2Identifier+0x58c>
   224d0: 78 03 00 14  	b	0x232b0 <_ZN22ChiFeature2RealTimeMCX23OnPreparePipelineCreateEP21ChiFeature2Identifier+0x1208>
   224e0: c8 3f 00 35  	cbnz	w8, 0x22cd8 <_ZN22ChiFeature2RealTimeMCX23OnPreparePipelineCreateEP21ChiFeature2Identifier+0xc30>
   224fc: 81 00 00 54  	b.ne	0x2250c <_ZN22ChiFeature2RealTimeMCX23OnPreparePipelineCreateEP21ChiFeature2Identifier+0x464>
   22508: f6 01 00 14  	b	0x22ce0 <_ZN22ChiFeature2RealTimeMCX23OnPreparePipelineCreateEP21ChiFeature2Identifier+0xc38>
   22510: f4 01 00 14  	b	0x22ce0 <_ZN22ChiFeature2RealTimeMCX23OnPreparePipelineCreateEP21ChiFeature2Identifier+0xc38>
   22514: e5 01 00 d0  	adrp	x5, 0x60000 <_ZN22ChiFeature2RealTimeMCX23OnPreparePipelineCreateEP21ChiFeature2Identifier+0x564>
   22524: 88 08 00 36  	tbz	w8, #0, 0x22634 <_ZN22ChiFeature2RealTimeMCX23OnPreparePipelineCreateEP21ChiFeature2Identifier+0x58c>
   22528: eb 01 00 d0  	adrp	x11, 0x60000 <_ZN22ChiFeature2RealTimeMCX23OnPreparePipelineCreateEP21ChiFeature2Identifier+0x578>
   22538: 81 02 00 54  	b.ne	0x22588 <_ZN22ChiFeature2RealTimeMCX23OnPreparePipelineCreateEP21ChiFeature2Identifier+0x4e0>
   2253c: 75 ff ff f0  	adrp	x21, 0x11000 <_ZN22ChiFeature2RealTimeMCX23OnPreparePipelineCreateEP21ChiFeature2Identifier+0x450>
   22558: a1 ff ff b0  	adrp	x1, 0x17000 <_ZN22ChiFeature2RealTimeMCX23OnPreparePipelineCreateEP21ChiFeature2Identifier+0x484>
   2255c: 82 ff ff d0  	adrp	x2, 0x14000 <_ZN22ChiFeature2RealTimeMCX23OnPreparePipelineCreateEP21ChiFeature2Identifier+0x47c>
   22560: 65 ff ff f0  	adrp	x5, 0x11000 <_ZN22ChiFeature2RealTimeMCX23OnPreparePipelineCreateEP21ChiFeature2Identifier+0x474>
   22588: 74 ff ff f0  	adrp	x20, 0x11000 <_ZN22ChiFeature2RealTimeMCX23OnPreparePipelineCreateEP21ChiFeature2Identifier+0x49c>
   225a4: a1 ff ff b0  	adrp	x1, 0x17000 <_ZN22ChiFeature2RealTimeMCX23OnPreparePipelineCreateEP21ChiFeature2Identifier+0x4d0>
   225ac: 40 ff ff f0  	adrp	x0, 0xd000 <_ZN22ChiFeature2RealTimeMCX23OnPreparePipelineCreateEP21ChiFeature2Identifier+0x4b0>
   225b0: 63 ff ff f0  	adrp	x3, 0x11000 <_ZN22ChiFeature2RealTimeMCX23OnPreparePipelineCreateEP21ChiFeature2Identifier+0x4c4>
   225b4: a5 ff ff 90  	adrp	x5, 0x16000 <_ZN22ChiFeature2RealTimeMCX23OnPreparePipelineCreateEP21ChiFeature2Identifier+0x4dc>
   225d4: 03 d5 00 94  	bl	0x579e0 <_ZN6ChiLog9LogSystemEPKcS1_S1_S1_iS1_z@plt>
   225d8: 17 00 00 14  	b	0x22634 <_ZN22ChiFeature2RealTimeMCX23OnPreparePipelineCreateEP21ChiFeature2Identifier+0x58c>
   225dc: 46 ff ff d0  	adrp	x6, 0xc000 <_ZN22ChiFeature2RealTimeMCX23OnPreparePipelineCreateEP21ChiFeature2Identifier+0x4dc>
   225e0: 47 ff ff d0  	adrp	x7, 0xc000 <_ZN22ChiFeature2RealTimeMCX23OnPreparePipelineCreateEP21ChiFeature2Identifier+0x4e0>
   22604: 08 01 00 54  	b.hi	0x22624 <_ZN22ChiFeature2RealTimeMCX23OnPreparePipelineCreateEP21ChiFeature2Identifier+0x57c>
   22620: 05 00 00 14  	b	0x22634 <_ZN22ChiFeature2RealTimeMCX23OnPreparePipelineCreateEP21ChiFeature2Identifier+0x58c>
   22624: e6 01 00 d0  	adrp	x6, 0x60000 <_ZN22ChiFeature2RealTimeMCX23OnPreparePipelineCreateEP21ChiFeature2Identifier+0x674>
   22630: aa 65 00 37  	tbnz	w10, #0, 0x232e4 <_ZN22ChiFeature2RealTimeMCX23OnPreparePipelineCreateEP21ChiFeature2Identifier+0x123c>
   22638: a1 ff ff d0  	adrp	x1, 0x18000 <_ZN22ChiFeature2RealTimeMCX23OnPreparePipelineCreateEP21ChiFeature2Identifier+0x568>
   22640: 62 ff ff 90  	adrp	x2, 0xe000 <_ZN22ChiFeature2RealTimeMCX23OnPreparePipelineCreateEP21ChiFeature2Identifier+0x548>
   22668: 88 00 00 54  	b.hi	0x22678 <_ZN22ChiFeature2RealTimeMCX23OnPreparePipelineCreateEP21ChiFeature2Identifier+0x5d0>
   22674: 30 00 00 14  	b	0x22734 <_ZN22ChiFeature2RealTimeMCX23OnPreparePipelineCreateEP21ChiFeature2Identifier+0x68c>
   22678: e4 01 00 d0  	adrp	x4, 0x60000 <_ZN22ChiFeature2RealTimeMCX23OnPreparePipelineCreateEP21ChiFeature2Identifier+0x6c8>
   22684: 69 05 00 36  	tbz	w9, #0, 0x22730 <_ZN22ChiFeature2RealTimeMCX23OnPreparePipelineCreateEP21ChiFeature2Identifier+0x688>
   22688: f7 01 00 d0  	adrp	x23, 0x60000 <_ZN22ChiFeature2RealTimeMCX23OnPreparePipelineCreateEP21ChiFeature2Identifier+0x6d8>
   22694: 77 ff ff f0  	adrp	x23, 0x11000 <_ZN22ChiFeature2RealTimeMCX23OnPreparePipelineCreateEP21ChiFeature2Identifier+0x5a8>
   226a0: 41 02 00 54  	b.ne	0x226e8 <_ZN22ChiFeature2RealTimeMCX23OnPreparePipelineCreateEP21ChiFeature2Identifier+0x640>
   226b8: a1 ff ff b0  	adrp	x1, 0x17000 <_ZN22ChiFeature2RealTimeMCX23OnPreparePipelineCreateEP21ChiFeature2Identifier+0x5e4>
   226bc: 82 ff ff d0  	adrp	x2, 0x14000 <_ZN22ChiFeature2RealTimeMCX23OnPreparePipelineCreateEP21ChiFeature2Identifier+0x5dc>
   226c0: 45 ff ff f0  	adrp	x5, 0xd000 <_ZN22ChiFeature2RealTimeMCX23OnPreparePipelineCreateEP21ChiFeature2Identifier+0x5c4>
   226fc: a1 ff ff b0  	adrp	x1, 0x17000 <_ZN22ChiFeature2RealTimeMCX23OnPreparePipelineCreateEP21ChiFeature2Identifier+0x628>
   22704: 40 ff ff f0  	adrp	x0, 0xd000 <_ZN22ChiFeature2RealTimeMCX23OnPreparePipelineCreateEP21ChiFeature2Identifier+0x608>
   22708: 43 ff ff f0  	adrp	x3, 0xd000 <_ZN22ChiFeature2RealTimeMCX23OnPreparePipelineCreateEP21ChiFeature2Identifier+0x60c>
   2270c: a5 ff ff 90  	adrp	x5, 0x16000 <_ZN22ChiFeature2RealTimeMCX23OnPreparePipelineCreateEP21ChiFeature2Identifier+0x634>
   2272c: ad d4 00 94  	bl	0x579e0 <_ZN6ChiLog9LogSystemEPKcS1_S1_S1_iS1_z@plt>
   22734: f1 01 00 d0  	adrp	x17, 0x60000 <_ZN22ChiFeature2RealTimeMCX23OnPreparePipelineCreateEP21ChiFeature2Identifier+0x784>
   22744: 76 06 28 36  	tbz	w22, #5, 0x22810 <_ZN22ChiFeature2RealTimeMCX23OnPreparePipelineCreateEP21ChiFeature2Identifier+0x768>
   22748: ec 01 00 d0  	adrp	x12, 0x60000 <_ZN22ChiFeature2RealTimeMCX23OnPreparePipelineCreateEP21ChiFeature2Identifier+0x798>
   22758: e1 02 00 54  	b.ne	0x227b4 <_ZN22ChiFeature2RealTimeMCX23OnPreparePipelineCreateEP21ChiFeature2Identifier+0x70c>
   2275c: 57 ff ff f0  	adrp	x23, 0xd000 <_ZN22ChiFeature2RealTimeMCX23OnPreparePipelineCreateEP21ChiFeature2Identifier+0x660>
   22780: a1 ff ff b0  	adrp	x1, 0x17000 <_ZN22ChiFeature2RealTimeMCX23OnPreparePipelineCreateEP21ChiFeature2Identifier+0x6ac>
   22784: a2 ff ff d0  	adrp	x2, 0x18000 <_ZN22ChiFeature2RealTimeMCX23OnPreparePipelineCreateEP21ChiFeature2Identifier+0x6b4>
   22788: 65 ff ff d0  	adrp	x5, 0x10000 <_ZN22ChiFeature2RealTimeMCX23OnPreparePipelineCreateEP21ChiFeature2Identifier+0x698>
   227b4: 56 ff ff f0  	adrp	x22, 0xd000 <_ZN22ChiFeature2RealTimeMCX23OnPreparePipelineCreateEP21ChiFeature2Identifier+0x6b8>
   227dc: a0 ff ff b0  	adrp	x0, 0x17000 <_ZN22ChiFeature2RealTimeMCX23OnPreparePipelineCreateEP21ChiFeature2Identifier+0x708>
   227e0: 81 ff ff b0  	adrp	x1, 0x13000 <_ZN22ChiFeature2RealTimeMCX23OnPreparePipelineCreateEP21ChiFeature2Identifier+0x6fc>
   227e4: 63 ff ff d0  	adrp	x3, 0x10000 <_ZN22ChiFeature2RealTimeMCX23OnPreparePipelineCreateEP21ChiFeature2Identifier+0x6f4>
   227e8: a5 ff ff 90  	adrp	x5, 0x16000 <_ZN22ChiFeature2RealTimeMCX23OnPreparePipelineCreateEP21ChiFeature2Identifier+0x710>
   2280c: 75 d4 00 94  	bl	0x579e0 <_ZN6ChiLog9LogSystemEPKcS1_S1_S1_iS1_z@plt>
   22814: a1 ff ff d0  	adrp	x1, 0x18000 <_ZN22ChiFeature2RealTimeMCX23OnPreparePipelineCreateEP21ChiFeature2Identifier+0x744>
   2281c: 82 ff ff b0  	adrp	x2, 0x13000 <_ZN22ChiFeature2RealTimeMCX23OnPreparePipelineCreateEP21ChiFeature2Identifier+0x738>
   2283c: f8 1a 00 b4  	cbz	x24, 0x22b98 <_ZN22ChiFeature2RealTimeMCX23OnPreparePipelineCreateEP21ChiFeature2Identifier+0xaf0>
   22848: ce d4 00 94  	bl	0x57b80 <_ZN15ExtensionModule11GetInstanceEv@plt>
   2285c: e0 01 00 34  	cbz	w0, 0x22898 <_ZN22ChiFeature2RealTimeMCX23OnPreparePipelineCreateEP21ChiFeature2Identifier+0x7f0>
   22868: c6 d4 00 94  	bl	0x57b80 <_ZN15ExtensionModule11GetInstanceEv@plt>
   2287c: e0 08 00 34  	cbz	w0, 0x22998 <_ZN22ChiFeature2RealTimeMCX23OnPreparePipelineCreateEP21ChiFeature2Identifier+0x8f0>
   22884: bf d4 00 94  	bl	0x57b80 <_ZN15ExtensionModule11GetInstanceEv@plt>
   2288c: 6e 10 00 b4  	cbz	x14, 0x22a98 <_ZN22ChiFeature2RealTimeMCX23OnPreparePipelineCreateEP21ChiFeature2Identifier+0x9f0>
   22894: 82 00 00 14  	b	0x22a9c <_ZN22ChiFeature2RealTimeMCX23OnPreparePipelineCreateEP21ChiFeature2Identifier+0x9f4>
   2289c: 23 fe ff b4  	cbz	x3, 0x22860 <_ZN22ChiFeature2RealTimeMCX23OnPreparePipelineCreateEP21ChiFeature2Identifier+0x7b8>
   228a4: 41 ff ff f0  	adrp	x1, 0xd000 <_ZN22ChiFeature2RealTimeMCX23OnPreparePipelineCreateEP21ChiFeature2Identifier+0x7a8>
   228ac: 82 ff ff f0  	adrp	x2, 0x15000 <_ZN22ChiFeature2RealTimeMCX23OnPreparePipelineCreateEP21ChiFeature2Identifier+0x7d0>
   228c4: e0 fc ff 34  	cbz	w0, 0x22860 <_ZN22ChiFeature2RealTimeMCX23OnPreparePipelineCreateEP21ChiFeature2Identifier+0x7b8>
   228c8: e3 01 00 d0  	adrp	x3, 0x60000 <_ZN22ChiFeature2RealTimeMCX23OnPreparePipelineCreateEP21ChiFeature2Identifier+0x918>
   228d4: 6d fc 07 36  	tbz	w13, #0, 0x22860 <_ZN22ChiFeature2RealTimeMCX23OnPreparePipelineCreateEP21ChiFeature2Identifier+0x7b8>
   228d8: ed 01 00 d0  	adrp	x13, 0x60000 <_ZN22ChiFeature2RealTimeMCX23OnPreparePipelineCreateEP21ChiFeature2Identifier+0x928>
   228ec: a1 02 00 54  	b.ne	0x22940 <_ZN22ChiFeature2RealTimeMCX23OnPreparePipelineCreateEP21ChiFeature2Identifier+0x898>
   228f0: 57 ff ff f0  	adrp	x23, 0xd000 <_ZN22ChiFeature2RealTimeMCX23OnPreparePipelineCreateEP21ChiFeature2Identifier+0x7f4>
   22910: a1 ff ff b0  	adrp	x1, 0x17000 <_ZN22ChiFeature2RealTimeMCX23OnPreparePipelineCreateEP21ChiFeature2Identifier+0x83c>
   22914: 42 ff ff d0  	adrp	x2, 0xc000 <_ZN22ChiFeature2RealTimeMCX23OnPreparePipelineCreateEP21ChiFeature2Identifier+0x814>
   22918: 65 ff ff d0  	adrp	x5, 0x10000 <_ZN22ChiFeature2RealTimeMCX23OnPreparePipelineCreateEP21ChiFeature2Identifier+0x828>
   22940: 57 ff ff f0  	adrp	x23, 0xd000 <_ZN22ChiFeature2RealTimeMCX23OnPreparePipelineCreateEP21ChiFeature2Identifier+0x844>
   22964: 40 ff ff f0  	adrp	x0, 0xd000 <_ZN22ChiFeature2RealTimeMCX23OnPreparePipelineCreateEP21ChiFeature2Identifier+0x868>
   22968: a1 ff ff b0  	adrp	x1, 0x17000 <_ZN22ChiFeature2RealTimeMCX23OnPreparePipelineCreateEP21ChiFeature2Identifier+0x894>
   2296c: 63 ff ff d0  	adrp	x3, 0x10000 <_ZN22ChiFeature2RealTimeMCX23OnPreparePipelineCreateEP21ChiFeature2Identifier+0x87c>
   22970: 85 ff ff f0  	adrp	x5, 0x15000 <_ZN22ChiFeature2RealTimeMCX23OnPreparePipelineCreateEP21ChiFeature2Identifier+0x894>
   22990: 14 d4 00 94  	bl	0x579e0 <_ZN6ChiLog9LogSystemEPKcS1_S1_S1_iS1_z@plt>
   22994: b3 ff ff 17  	b	0x22860 <_ZN22ChiFeature2RealTimeMCX23OnPreparePipelineCreateEP21ChiFeature2Identifier+0x7b8>
   2299c: 23 f7 ff b4  	cbz	x3, 0x22880 <_ZN22ChiFeature2RealTimeMCX23OnPreparePipelineCreateEP21ChiFeature2Identifier+0x7d8>
   229a4: 41 ff ff f0  	adrp	x1, 0xd000 <_ZN22ChiFeature2RealTimeMCX23OnPreparePipelineCreateEP21ChiFeature2Identifier+0x8a8>
   229ac: 42 ff ff f0  	adrp	x2, 0xd000 <_ZN22ChiFeature2RealTimeMCX23OnPreparePipelineCreateEP21ChiFeature2Identifier+0x8b0>
   229c4: e0 f5 ff 34  	cbz	w0, 0x22880 <_ZN22ChiFeature2RealTimeMCX23OnPreparePipelineCreateEP21ChiFeature2Identifier+0x7d8>
   229c8: e2 01 00 d0  	adrp	x2, 0x60000 <_ZN22ChiFeature2RealTimeMCX23OnPreparePipelineCreateEP21ChiFeature2Identifier+0xa18>
   229d4: 6e f5 0f 36  	tbz	w14, #1, 0x22880 <_ZN22ChiFeature2RealTimeMCX23OnPreparePipelineCreateEP21ChiFeature2Identifier+0x7d8>
   229d8: f8 01 00 d0  	adrp	x24, 0x60000 <_ZN22ChiFeature2RealTimeMCX23OnPreparePipelineCreateEP21ChiFeature2Identifier+0xa28>
   229ec: a1 02 00 54  	b.ne	0x22a40 <_ZN22ChiFeature2RealTimeMCX23OnPreparePipelineCreateEP21ChiFeature2Identifier+0x998>
   229f0: 56 ff ff f0  	adrp	x22, 0xd000 <_ZN22ChiFeature2RealTimeMCX23OnPreparePipelineCreateEP21ChiFeature2Identifier+0x8f4>
   22a10: a1 ff ff b0  	adrp	x1, 0x17000 <_ZN22ChiFeature2RealTimeMCX23OnPreparePipelineCreateEP21ChiFeature2Identifier+0x93c>
   22a14: 82 ff ff f0  	adrp	x2, 0x15000 <_ZN22ChiFeature2RealTimeMCX23OnPreparePipelineCreateEP21ChiFeature2Identifier+0x938>
   22a18: 65 ff ff d0  	adrp	x5, 0x10000 <_ZN22ChiFeature2RealTimeMCX23OnPreparePipelineCreateEP21ChiFeature2Identifier+0x928>
   22a40: 56 ff ff f0  	adrp	x22, 0xd000 <_ZN22ChiFeature2RealTimeMCX23OnPreparePipelineCreateEP21ChiFeature2Identifier+0x944>
   22a64: 80 ff ff d0  	adrp	x0, 0x14000 <_ZN22ChiFeature2RealTimeMCX23OnPreparePipelineCreateEP21ChiFeature2Identifier+0x984>
   22a68: 61 ff ff b0  	adrp	x1, 0xf000 <_ZN22ChiFeature2RealTimeMCX23OnPreparePipelineCreateEP21ChiFeature2Identifier+0x974>
   22a6c: 63 ff ff d0  	adrp	x3, 0x10000 <_ZN22ChiFeature2RealTimeMCX23OnPreparePipelineCreateEP21ChiFeature2Identifier+0x97c>
   22a70: a5 ff ff 90  	adrp	x5, 0x16000 <_ZN22ChiFeature2RealTimeMCX23OnPreparePipelineCreateEP21ChiFeature2Identifier+0x998>
   22a90: d4 d3 00 94  	bl	0x579e0 <_ZN6ChiLog9LogSystemEPKcS1_S1_S1_iS1_z@plt>
   22a94: 7b ff ff 17  	b	0x22880 <_ZN22ChiFeature2RealTimeMCX23OnPreparePipelineCreateEP21ChiFeature2Identifier+0x7d8>
   22aa0: 41 ff ff f0  	adrp	x1, 0xd000 <_ZN22ChiFeature2RealTimeMCX23OnPreparePipelineCreateEP21ChiFeature2Identifier+0x9a4>
   22aa8: 42 ff ff f0  	adrp	x2, 0xd000 <_ZN22ChiFeature2RealTimeMCX23OnPreparePipelineCreateEP21ChiFeature2Identifier+0x9ac>
   22acc: 60 06 00 34  	cbz	w0, 0x22b98 <_ZN22ChiFeature2RealTimeMCX23OnPreparePipelineCreateEP21ChiFeature2Identifier+0xaf0>
   22ad0: e1 01 00 d0  	adrp	x1, 0x60000 <_ZN22ChiFeature2RealTimeMCX23OnPreparePipelineCreateEP21ChiFeature2Identifier+0xb20>
   22adc: ef 05 00 36  	tbz	w15, #0, 0x22b98 <_ZN22ChiFeature2RealTimeMCX23OnPreparePipelineCreateEP21ChiFeature2Identifier+0xaf0>
   22ae0: ee 01 00 d0  	adrp	x14, 0x60000 <_ZN22ChiFeature2RealTimeMCX23OnPreparePipelineCreateEP21ChiFeature2Identifier+0xb30>
   22af0: a1 02 00 54  	b.ne	0x22b44 <_ZN22ChiFeature2RealTimeMCX23OnPreparePipelineCreateEP21ChiFeature2Identifier+0xa9c>
   22af4: 55 ff ff f0  	adrp	x21, 0xd000 <_ZN22ChiFeature2RealTimeMCX23OnPreparePipelineCreateEP21ChiFeature2Identifier+0x9f8>
   22b14: a1 ff ff b0  	adrp	x1, 0x17000 <_ZN22ChiFeature2RealTimeMCX23OnPreparePipelineCreateEP21ChiFeature2Identifier+0xa40>
   22b18: 62 ff ff 90  	adrp	x2, 0xe000 <_ZN22ChiFeature2RealTimeMCX23OnPreparePipelineCreateEP21ChiFeature2Identifier+0xa20>
   22b1c: 65 ff ff d0  	adrp	x5, 0x10000 <_ZN22ChiFeature2RealTimeMCX23OnPreparePipelineCreateEP21ChiFeature2Identifier+0xa2c>
   22b44: 57 ff ff f0  	adrp	x23, 0xd000 <_ZN22ChiFeature2RealTimeMCX23OnPreparePipelineCreateEP21ChiFeature2Identifier+0xa48>
   22b68: 40 ff ff f0  	adrp	x0, 0xd000 <_ZN22ChiFeature2RealTimeMCX23OnPreparePipelineCreateEP21ChiFeature2Identifier+0xa6c>
   22b6c: a1 ff ff b0  	adrp	x1, 0x17000 <_ZN22ChiFeature2RealTimeMCX23OnPreparePipelineCreateEP21ChiFeature2Identifier+0xa98>
   22b70: 63 ff ff d0  	adrp	x3, 0x10000 <_ZN22ChiFeature2RealTimeMCX23OnPreparePipelineCreateEP21ChiFeature2Identifier+0xa80>
   22b74: a5 ff ff b0  	adrp	x5, 0x17000 <_ZN22ChiFeature2RealTimeMCX23OnPreparePipelineCreateEP21ChiFeature2Identifier+0xaa0>
   22b94: 93 d3 00 94  	bl	0x579e0 <_ZN6ChiLog9LogSystemEPKcS1_S1_S1_iS1_z@plt>
   22b98: b6 04 00 35  	cbnz	w22, 0x22c2c <_ZN22ChiFeature2RealTimeMCX23OnPreparePipelineCreateEP21ChiFeature2Identifier+0xb84>
   22ba8: 81 ff ff f0  	adrp	x1, 0x15000 <_ZN22ChiFeature2RealTimeMCX23OnPreparePipelineCreateEP21ChiFeature2Identifier+0xacc>
   22bac: 62 ff ff 90  	adrp	x2, 0xe000 <_ZN22ChiFeature2RealTimeMCX23OnPreparePipelineCreateEP21ChiFeature2Identifier+0xab4>
   22bd8: f1 00 00 34  	cbz	w17, 0x22bf4 <_ZN22ChiFeature2RealTimeMCX23OnPreparePipelineCreateEP21ChiFeature2Identifier+0xb4c>
   22bf0: 03 00 00 14  	b	0x22bfc <_ZN22ChiFeature2RealTimeMCX23OnPreparePipelineCreateEP21ChiFeature2Identifier+0xb54>
   22c00: a1 ff ff b0  	adrp	x1, 0x17000 <_ZN22ChiFeature2RealTimeMCX23OnPreparePipelineCreateEP21ChiFeature2Identifier+0xb2c>
   22c08: 62 ff ff b0  	adrp	x2, 0xf000 <_ZN22ChiFeature2RealTimeMCX23OnPreparePipelineCreateEP21ChiFeature2Identifier+0xb14>
   22c30: ea 04 00 b4  	cbz	x10, 0x22ccc <_ZN22ChiFeature2RealTimeMCX23OnPreparePipelineCreateEP21ChiFeature2Identifier+0xc24>
   22c38: b4 04 00 34  	cbz	w20, 0x22ccc <_ZN22ChiFeature2RealTimeMCX23OnPreparePipelineCreateEP21ChiFeature2Identifier+0xc24>
   22c40: 55 ff ff f0  	adrp	x21, 0xd000 <_ZN22ChiFeature2RealTimeMCX23OnPreparePipelineCreateEP21ChiFeature2Identifier+0xb44>
   22c5c: c0 00 00 34  	cbz	w0, 0x22c74 <_ZN22ChiFeature2RealTimeMCX23OnPreparePipelineCreateEP21ChiFeature2Identifier+0xbcc>
   22c6c: 21 ff ff 54  	b.ne	0x22c50 <_ZN22ChiFeature2RealTimeMCX23OnPreparePipelineCreateEP21ChiFeature2Identifier+0xba8>
   22c70: 17 00 00 14  	b	0x22ccc <_ZN22ChiFeature2RealTimeMCX23OnPreparePipelineCreateEP21ChiFeature2Identifier+0xc24>
   22c80: 61 02 00 54  	b.ne	0x22ccc <_ZN22ChiFeature2RealTimeMCX23OnPreparePipelineCreateEP21ChiFeature2Identifier+0xc24>
   22c88: be d3 00 94  	bl	0x57b80 <_ZN15ExtensionModule11GetInstanceEv@plt>
   22c90: 6f 00 00 b4  	cbz	x15, 0x22c9c <_ZN22ChiFeature2RealTimeMCX23OnPreparePipelineCreateEP21ChiFeature2Identifier+0xbf4>
   22c98: 02 00 00 14  	b	0x22ca0 <_ZN22ChiFeature2RealTimeMCX23OnPreparePipelineCreateEP21ChiFeature2Identifier+0xbf8>
   22ca4: 81 ff ff f0  	adrp	x1, 0x15000 <_ZN22ChiFeature2RealTimeMCX23OnPreparePipelineCreateEP21ChiFeature2Identifier+0xbc8>
   22cac: 62 ff ff 90  	adrp	x2, 0xe000 <_ZN22ChiFeature2RealTimeMCX23OnPreparePipelineCreateEP21ChiFeature2Identifier+0xbb4>
   22cd4: 88 c0 ff 34  	cbz	w8, 0x224e4 <_ZN22ChiFeature2RealTimeMCX23OnPreparePipelineCreateEP21ChiFeature2Identifier+0x43c>
   22ce4: 29 1c 00 b4  	cbz	x9, 0x23068 <_ZN22ChiFeature2RealTimeMCX23OnPreparePipelineCreateEP21ChiFeature2Identifier+0xfc0>
   22cf0: c1 1b 00 54  	b.ne	0x23068 <_ZN22ChiFeature2RealTimeMCX23OnPreparePipelineCreateEP21ChiFeature2Identifier+0xfc0>
   22cf8: 8a 1b 00 34  	cbz	w10, 0x23068 <_ZN22ChiFeature2RealTimeMCX23OnPreparePipelineCreateEP21ChiFeature2Identifier+0xfc0>
   22d00: a0 01 00 54  	b.eq	0x22d34 <_ZN22ChiFeature2RealTimeMCX23OnPreparePipelineCreateEP21ChiFeature2Identifier+0xc8c>
   22d08: a0 12 00 54  	b.eq	0x22f5c <_ZN22ChiFeature2RealTimeMCX23OnPreparePipelineCreateEP21ChiFeature2Identifier+0xeb4>
   22d0c: e8 1a 00 35  	cbnz	w8, 0x23068 <_ZN22ChiFeature2RealTimeMCX23OnPreparePipelineCreateEP21ChiFeature2Identifier+0xfc0>
   22d28: 01 1a 00 54  	b.ne	0x23068 <_ZN22ChiFeature2RealTimeMCX23OnPreparePipelineCreateEP21ChiFeature2Identifier+0xfc0>
   22d30: ce 00 00 14  	b	0x23068 <_ZN22ChiFeature2RealTimeMCX23OnPreparePipelineCreateEP21ChiFeature2Identifier+0xfc0>
   22d34: aa 19 08 36  	tbz	w10, #1, 0x23068 <_ZN22ChiFeature2RealTimeMCX23OnPreparePipelineCreateEP21ChiFeature2Identifier+0xfc0>
   22d4c: e1 18 00 54  	b.ne	0x23068 <_ZN22ChiFeature2RealTimeMCX23OnPreparePipelineCreateEP21ChiFeature2Identifier+0xfc0>
   22d54: 41 ff ff f0  	adrp	x1, 0xd000 <_ZN22ChiFeature2RealTimeMCX23OnPreparePipelineCreateEP21ChiFeature2Identifier+0xc58>
   22d5c: a2 ff ff d0  	adrp	x2, 0x18000 <_ZN22ChiFeature2RealTimeMCX23OnPreparePipelineCreateEP21ChiFeature2Identifier+0xc8c>
   22d90: 00 06 00 34  	cbz	w0, 0x22e50 <_ZN22ChiFeature2RealTimeMCX23OnPreparePipelineCreateEP21ChiFeature2Identifier+0xda8>
   22d94: e0 01 00 d0  	adrp	x0, 0x60000 <_ZN22ChiFeature2RealTimeMCX23OnPreparePipelineCreateEP21ChiFeature2Identifier+0xde4>
   22da0: 88 05 00 36  	tbz	w8, #0, 0x22e50 <_ZN22ChiFeature2RealTimeMCX23OnPreparePipelineCreateEP21ChiFeature2Identifier+0xda8>
   22da4: e0 01 00 d0  	adrp	x0, 0x60000 <_ZN22ChiFeature2RealTimeMCX23OnPreparePipelineCreateEP21ChiFeature2Identifier+0xdf4>
   22db4: 81 02 00 54  	b.ne	0x22e04 <_ZN22ChiFeature2RealTimeMCX23OnPreparePipelineCreateEP21ChiFeature2Identifier+0xd5c>
   22db8: 58 ff ff f0  	adrp	x24, 0xd000 <_ZN22ChiFeature2RealTimeMCX23OnPreparePipelineCreateEP21ChiFeature2Identifier+0xcbc>
   22dd4: a1 ff ff b0  	adrp	x1, 0x17000 <_ZN22ChiFeature2RealTimeMCX23OnPreparePipelineCreateEP21ChiFeature2Identifier+0xd00>
   22dd8: 62 ff ff d0  	adrp	x2, 0x10000 <_ZN22ChiFeature2RealTimeMCX23OnPreparePipelineCreateEP21ChiFeature2Identifier+0xce8>
   22ddc: 65 ff ff d0  	adrp	x5, 0x10000 <_ZN22ChiFeature2RealTimeMCX23OnPreparePipelineCreateEP21ChiFeature2Identifier+0xcec>
   22e04: 57 ff ff f0  	adrp	x23, 0xd000 <_ZN22ChiFeature2RealTimeMCX23OnPreparePipelineCreateEP21ChiFeature2Identifier+0xd08>
   22e20: a1 ff ff b0  	adrp	x1, 0x17000 <_ZN22ChiFeature2RealTimeMCX23OnPreparePipelineCreateEP21ChiFeature2Identifier+0xd4c>
   22e28: 40 ff ff f0  	adrp	x0, 0xd000 <_ZN22ChiFeature2RealTimeMCX23OnPreparePipelineCreateEP21ChiFeature2Identifier+0xd2c>
   22e2c: 63 ff ff d0  	adrp	x3, 0x10000 <_ZN22ChiFeature2RealTimeMCX23OnPreparePipelineCreateEP21ChiFeature2Identifier+0xd3c>
   22e30: 85 ff ff 90  	adrp	x5, 0x12000 <_ZN22ChiFeature2RealTimeMCX23OnPreparePipelineCreateEP21ChiFeature2Identifier+0xd48>
   22e4c: e5 d2 00 94  	bl	0x579e0 <_ZN6ChiLog9LogSystemEPKcS1_S1_S1_iS1_z@plt>
   22e50: e8 01 00 d0  	adrp	x8, 0x60000 <_ZN22ChiFeature2RealTimeMCX23OnPreparePipelineCreateEP21ChiFeature2Identifier+0xea0>
   22e5c: 69 05 28 36  	tbz	w9, #5, 0x22f08 <_ZN22ChiFeature2RealTimeMCX23OnPreparePipelineCreateEP21ChiFeature2Identifier+0xe60>
   22e60: e8 01 00 d0  	adrp	x8, 0x60000 <_ZN22ChiFeature2RealTimeMCX23OnPreparePipelineCreateEP21ChiFeature2Identifier+0xeb0>
   22e70: 61 02 00 54  	b.ne	0x22ebc <_ZN22ChiFeature2RealTimeMCX23OnPreparePipelineCreateEP21ChiFeature2Identifier+0xe14>
   22e74: 58 ff ff f0  	adrp	x24, 0xd000 <_ZN22ChiFeature2RealTimeMCX23OnPreparePipelineCreateEP21ChiFeature2Identifier+0xd78>
   22e90: a1 ff ff b0  	adrp	x1, 0x17000 <_ZN22ChiFeature2RealTimeMCX23OnPreparePipelineCreateEP21ChiFeature2Identifier+0xdbc>
   22e94: a2 ff ff d0  	adrp	x2, 0x18000 <_ZN22ChiFeature2RealTimeMCX23OnPreparePipelineCreateEP21ChiFeature2Identifier+0xdc4>
   22e98: 65 ff ff d0  	adrp	x5, 0x10000 <_ZN22ChiFeature2RealTimeMCX23OnPreparePipelineCreateEP21ChiFeature2Identifier+0xda8>
   22ebc: 57 ff ff f0  	adrp	x23, 0xd000 <_ZN22ChiFeature2RealTimeMCX23OnPreparePipelineCreateEP21ChiFeature2Identifier+0xdc0>
   22ed8: 81 ff ff b0  	adrp	x1, 0x13000 <_ZN22ChiFeature2RealTimeMCX23OnPreparePipelineCreateEP21ChiFeature2Identifier+0xdf4>
   22ee0: a0 ff ff b0  	adrp	x0, 0x17000 <_ZN22ChiFeature2RealTimeMCX23OnPreparePipelineCreateEP21ChiFeature2Identifier+0xe0c>
   22ee4: 63 ff ff d0  	adrp	x3, 0x10000 <_ZN22ChiFeature2RealTimeMCX23OnPreparePipelineCreateEP21ChiFeature2Identifier+0xdf4>
   22ee8: 65 ff ff 90  	adrp	x5, 0xe000 <_ZN22ChiFeature2RealTimeMCX23OnPreparePipelineCreateEP21ChiFeature2Identifier+0xdf0>
   22f04: b7 d2 00 94  	bl	0x579e0 <_ZN6ChiLog9LogSystemEPKcS1_S1_S1_iS1_z@plt>
   22f08: 49 ff ff d0  	adrp	x9, 0xc000 <_ZN22ChiFeature2RealTimeMCX23OnPreparePipelineCreateEP21ChiFeature2Identifier+0xe08>
   22f38: 8f 09 00 b5  	cbnz	x15, 0x23068 <_ZN22ChiFeature2RealTimeMCX23OnPreparePipelineCreateEP21ChiFeature2Identifier+0xfc0>
   22f50: 30 d3 00 94  	bl	0x57c10 <_ZN11ChiMetadata6CreateEPKjjbP18ChiMetadataManagerj@plt>
   22f58: 44 00 00 14  	b	0x23068 <_ZN22ChiFeature2RealTimeMCX23OnPreparePipelineCreateEP21ChiFeature2Identifier+0xfc0>
   22f5c: 6a 08 00 36  	tbz	w10, #0, 0x23068 <_ZN22ChiFeature2RealTimeMCX23OnPreparePipelineCreateEP21ChiFeature2Identifier+0xfc0>
   22f74: a1 07 00 54  	b.ne	0x23068 <_ZN22ChiFeature2RealTimeMCX23OnPreparePipelineCreateEP21ChiFeature2Identifier+0xfc0>
   22f78: ef 01 00 d0  	adrp	x15, 0x60000 <_ZN22ChiFeature2RealTimeMCX23OnPreparePipelineCreateEP21ChiFeature2Identifier+0xfc8>
   22f8c: 81 05 28 36  	tbz	w1, #5, 0x2303c <_ZN22ChiFeature2RealTimeMCX23OnPreparePipelineCreateEP21ChiFeature2Identifier+0xf94>
   22f90: e5 01 00 d0  	adrp	x5, 0x60000 <_ZN22ChiFeature2RealTimeMCX23OnPreparePipelineCreateEP21ChiFeature2Identifier+0xfe0>
   22fa0: 81 02 00 54  	b.ne	0x22ff0 <_ZN22ChiFeature2RealTimeMCX23OnPreparePipelineCreateEP21ChiFeature2Identifier+0xf48>
   22fa4: 58 ff ff f0  	adrp	x24, 0xd000 <_ZN22ChiFeature2RealTimeMCX23OnPreparePipelineCreateEP21ChiFeature2Identifier+0xea8>
   22fc0: a1 ff ff b0  	adrp	x1, 0x17000 <_ZN22ChiFeature2RealTimeMCX23OnPreparePipelineCreateEP21ChiFeature2Identifier+0xeec>
   22fc4: 82 ff ff f0  	adrp	x2, 0x15000 <_ZN22ChiFeature2RealTimeMCX23OnPreparePipelineCreateEP21ChiFeature2Identifier+0xee8>
   22fc8: 65 ff ff d0  	adrp	x5, 0x10000 <_ZN22ChiFeature2RealTimeMCX23OnPreparePipelineCreateEP21ChiFeature2Identifier+0xed8>
   22ff0: 57 ff ff f0  	adrp	x23, 0xd000 <_ZN22ChiFeature2RealTimeMCX23OnPreparePipelineCreateEP21ChiFeature2Identifier+0xef4>
   2300c: 81 ff ff 90  	adrp	x1, 0x13000 <_ZN22ChiFeature2RealTimeMCX23OnPreparePipelineCreateEP21ChiFeature2Identifier+0xf24>
   23014: a0 ff ff 90  	adrp	x0, 0x17000 <_ZN22ChiFeature2RealTimeMCX23OnPreparePipelineCreateEP21ChiFeature2Identifier+0xf3c>
   23018: 63 ff ff b0  	adrp	x3, 0x10000 <_ZN22ChiFeature2RealTimeMCX23OnPreparePipelineCreateEP21ChiFeature2Identifier+0xf24>
   2301c: 85 ff ff f0  	adrp	x5, 0x16000 <_ZN22ChiFeature2RealTimeMCX23OnPreparePipelineCreateEP21ChiFeature2Identifier+0xf40>
   23038: 6a d2 00 94  	bl	0x579e0 <_ZN6ChiLog9LogSystemEPKcS1_S1_S1_iS1_z@plt>
   2303c: 46 ff ff b0  	adrp	x6, 0xc000 <_ZN22ChiFeature2RealTimeMCX23OnPreparePipelineCreateEP21ChiFeature2Identifier+0xf38>
   23068: f9 01 00 b0  	adrp	x25, 0x60000 <_ZN22ChiFeature2RealTimeMCX23OnPreparePipelineCreateEP21ChiFeature2Identifier+0x10b4>
   2307c: a1 09 00 54  	b.ne	0x231b0 <_ZN22ChiFeature2RealTimeMCX23OnPreparePipelineCreateEP21ChiFeature2Identifier+0x1108>
   23084: 61 ff ff b0  	adrp	x1, 0x10000 <_ZN22ChiFeature2RealTimeMCX23OnPreparePipelineCreateEP21ChiFeature2Identifier+0xf90>
   23094: 60 01 00 34  	cbz	w0, 0x230c0 <_ZN22ChiFeature2RealTimeMCX23OnPreparePipelineCreateEP21ChiFeature2Identifier+0x1018>
   23098: 81 ff ff b0  	adrp	x1, 0x14000 <_ZN22ChiFeature2RealTimeMCX23OnPreparePipelineCreateEP21ChiFeature2Identifier+0xfb4>
   230a8: c0 00 00 34  	cbz	w0, 0x230c0 <_ZN22ChiFeature2RealTimeMCX23OnPreparePipelineCreateEP21ChiFeature2Identifier+0x1018>
   230ac: 81 ff ff f0  	adrp	x1, 0x16000 <_ZN22ChiFeature2RealTimeMCX23OnPreparePipelineCreateEP21ChiFeature2Identifier+0xfd0>
   230bc: a0 07 00 35  	cbnz	w0, 0x231b0 <_ZN22ChiFeature2RealTimeMCX23OnPreparePipelineCreateEP21ChiFeature2Identifier+0x1108>
   230c8: 41 ff ff d0  	adrp	x1, 0xd000 <_ZN22ChiFeature2RealTimeMCX23OnPreparePipelineCreateEP21ChiFeature2Identifier+0xfc8>
   230cc: 42 ff ff b0  	adrp	x2, 0xc000 <_ZN22ChiFeature2RealTimeMCX23OnPreparePipelineCreateEP21ChiFeature2Identifier+0xfc8>
   230f8: c0 05 00 35  	cbnz	w0, 0x231b0 <_ZN22ChiFeature2RealTimeMCX23OnPreparePipelineCreateEP21ChiFeature2Identifier+0x1108>
   23100: 8d 05 18 36  	tbz	w13, #3, 0x231b0 <_ZN22ChiFeature2RealTimeMCX23OnPreparePipelineCreateEP21ChiFeature2Identifier+0x1108>
   23104: ea 01 00 b0  	adrp	x10, 0x60000 <_ZN22ChiFeature2RealTimeMCX23OnPreparePipelineCreateEP21ChiFeature2Identifier+0x1150>
   23114: 61 02 00 54  	b.ne	0x23160 <_ZN22ChiFeature2RealTimeMCX23OnPreparePipelineCreateEP21ChiFeature2Identifier+0x10b8>
   23118: 54 ff ff d0  	adrp	x20, 0xd000 <_ZN22ChiFeature2RealTimeMCX23OnPreparePipelineCreateEP21ChiFeature2Identifier+0x1018>
   23138: a1 ff ff 90  	adrp	x1, 0x17000 <_ZN22ChiFeature2RealTimeMCX23OnPreparePipelineCreateEP21ChiFeature2Identifier+0x1060>
   2313c: 62 ff ff b0  	adrp	x2, 0x10000 <_ZN22ChiFeature2RealTimeMCX23OnPreparePipelineCreateEP21ChiFeature2Identifier+0x1048>
   23140: 65 ff ff b0  	adrp	x5, 0x10000 <_ZN22ChiFeature2RealTimeMCX23OnPreparePipelineCreateEP21ChiFeature2Identifier+0x104c>
   23160: 58 ff ff d0  	adrp	x24, 0xd000 <_ZN22ChiFeature2RealTimeMCX23OnPreparePipelineCreateEP21ChiFeature2Identifier+0x1060>
   23184: a0 ff ff b0  	adrp	x0, 0x18000 <_ZN22ChiFeature2RealTimeMCX23OnPreparePipelineCreateEP21ChiFeature2Identifier+0x10b0>
   23188: 61 ff ff f0  	adrp	x1, 0x12000 <_ZN22ChiFeature2RealTimeMCX23OnPreparePipelineCreateEP21ChiFeature2Identifier+0x109c>
   2318c: 63 ff ff b0  	adrp	x3, 0x10000 <_ZN22ChiFeature2RealTimeMCX23OnPreparePipelineCreateEP21ChiFeature2Identifier+0x1098>
   23190: a5 ff ff 90  	adrp	x5, 0x17000 <_ZN22ChiFeature2RealTimeMCX23OnPreparePipelineCreateEP21ChiFeature2Identifier+0x10b8>
   231a8: 0e d2 00 94  	bl	0x579e0 <_ZN6ChiLog9LogSystemEPKcS1_S1_S1_iS1_z@plt>
   231b4: ee 07 18 36  	tbz	w14, #3, 0x232b0 <_ZN22ChiFeature2RealTimeMCX23OnPreparePipelineCreateEP21ChiFeature2Identifier+0x1208>
   231b8: eb 01 00 b0  	adrp	x11, 0x60000 <_ZN22ChiFeature2RealTimeMCX23OnPreparePipelineCreateEP21ChiFeature2Identifier+0x1204>
   231c8: a1 03 00 54  	b.ne	0x2323c <_ZN22ChiFeature2RealTimeMCX23OnPreparePipelineCreateEP21ChiFeature2Identifier+0x1194>
   231cc: 57 ff ff d0  	adrp	x23, 0xd000 <_ZN22ChiFeature2RealTimeMCX23OnPreparePipelineCreateEP21ChiFeature2Identifier+0x10cc>
   231f0: a1 ff ff 90  	adrp	x1, 0x17000 <_ZN22ChiFeature2RealTimeMCX23OnPreparePipelineCreateEP21ChiFeature2Identifier+0x1118>
   231f8: 42 ff ff f0  	adrp	x2, 0xe000 <_ZN22ChiFeature2RealTimeMCX23OnPreparePipelineCreateEP21ChiFeature2Identifier+0x10fc>
   23200: 65 ff ff b0  	adrp	x5, 0x10000 <_ZN22ChiFeature2RealTimeMCX23OnPreparePipelineCreateEP21ChiFeature2Identifier+0x110c>
   2323c: 54 ff ff d0  	adrp	x20, 0xd000 <_ZN22ChiFeature2RealTimeMCX23OnPreparePipelineCreateEP21ChiFeature2Identifier+0x113c>
   2325c: 61 ff ff f0  	adrp	x1, 0x12000 <_ZN22ChiFeature2RealTimeMCX23OnPreparePipelineCreateEP21ChiFeature2Identifier+0x1170>
   2326c: a0 ff ff b0  	adrp	x0, 0x18000 <_ZN22ChiFeature2RealTimeMCX23OnPreparePipelineCreateEP21ChiFeature2Identifier+0x1198>
   2327c: 45 ff ff f0  	adrp	x5, 0xe000 <_ZN22ChiFeature2RealTimeMCX23OnPreparePipelineCreateEP21ChiFeature2Identifier+0x1180>
   23284: 63 ff ff b0  	adrp	x3, 0x10000 <_ZN22ChiFeature2RealTimeMCX23OnPreparePipelineCreateEP21ChiFeature2Identifier+0x1190>
   232ac: cd d1 00 94  	bl	0x579e0 <_ZN6ChiLog9LogSystemEPKcS1_S1_S1_iS1_z@plt>
   232bc: 01 02 00 54  	b.ne	0x232fc <_ZN22ChiFeature2RealTimeMCX23OnPreparePipelineCreateEP21ChiFeature2Identifier+0x1254>
   232e4: e8 01 00 b0  	adrp	x8, 0x60000 <_ZN22ChiFeature2RealTimeMCX12OnInitializeEP26ChiFeature2CreateInputInfo+0xd8>
   232f4: 40 92 ff 54  	b.eq	0x2253c <_ZN22ChiFeature2RealTimeMCX23OnPreparePipelineCreateEP21ChiFeature2Identifier+0x494>
   232f8: a4 fc ff 17  	b	0x22588 <_ZN22ChiFeature2RealTimeMCX23OnPreparePipelineCreateEP21ChiFeature2Identifier+0x4e0>
0000000000023300 <_ZN22ChiFeature2RealTimeMCX12OnInitializeEP26ChiFeature2CreateInputInfo>:
   23324: f6 01 00 b0  	adrp	x22, 0x60000 <_ZN22ChiFeature2RealTimeMCX12OnInitializeEP26ChiFeature2CreateInputInfo+0x118>
   2333c: 21 06 00 b4  	cbz	x1, 0x23400 <_ZN22ChiFeature2RealTimeMCX12OnInitializeEP26ChiFeature2CreateInputInfo+0x100>
   2337c: b9 01 00 b4  	cbz	x25, 0x233b0 <_ZN22ChiFeature2RealTimeMCX12OnInitializeEP26ChiFeature2CreateInputInfo+0xb0>
   23388: fe d1 00 94  	bl	0x57b80 <_ZN15ExtensionModule11GetInstanceEv@plt>
   2339c: a0 00 00 35  	cbnz	w0, 0x233b0 <_ZN22ChiFeature2RealTimeMCX12OnInitializeEP26ChiFeature2CreateInputInfo+0xb0>
   233a4: 73 00 00 b4  	cbz	x19, 0x233b0 <_ZN22ChiFeature2RealTimeMCX12OnInitializeEP26ChiFeature2CreateInputInfo+0xb0>
   233b8: 57 ff ff d0  	adrp	x23, 0xd000 <_ZN22ChiFeature2RealTimeMCX12OnInitializeEP26ChiFeature2CreateInputInfo+0x60>
   233c8: 44 07 00 b4  	cbz	x4, 0x234b0 <_ZN22ChiFeature2RealTimeMCX12OnInitializeEP26ChiFeature2CreateInputInfo+0x1b0>
   233e0: c0 0b 00 b4  	cbz	x0, 0x23558 <_ZN22ChiFeature2RealTimeMCX12OnInitializeEP26ChiFeature2CreateInputInfo+0x258>
   233f8: 82 0b 00 35  	cbnz	w2, 0x23568 <_ZN22ChiFeature2RealTimeMCX12OnInitializeEP26ChiFeature2CreateInputInfo+0x268>
   233fc: 5c 01 00 14  	b	0x2396c <_ZN22ChiFeature2RealTimeMCX12OnInitializeEP26ChiFeature2CreateInputInfo+0x66c>
   23404: 2f 05 00 36  	tbz	w15, #0, 0x234a8 <_ZN22ChiFeature2RealTimeMCX12OnInitializeEP26ChiFeature2CreateInputInfo+0x1a8>
   23408: f5 01 00 b0  	adrp	x21, 0x60000 <_ZN22ChiFeature2RealTimeMCX12OnInitializeEP26ChiFeature2CreateInputInfo+0x1fc>
   23418: 41 02 00 54  	b.ne	0x23460 <_ZN22ChiFeature2RealTimeMCX12OnInitializeEP26ChiFeature2CreateInputInfo+0x160>
   2341c: 54 ff ff d0  	adrp	x20, 0xd000 <_ZN22ChiFeature2RealTimeMCX12OnInitializeEP26ChiFeature2CreateInputInfo+0xc4>
   23438: a1 ff ff 90  	adrp	x1, 0x17000 <_ZN22ChiFeature2RealTimeMCX12OnInitializeEP26ChiFeature2CreateInputInfo+0x108>
   2343c: a2 ff ff b0  	adrp	x2, 0x18000 <_ZN22ChiFeature2RealTimeMCX12OnInitializeEP26ChiFeature2CreateInputInfo+0x110>
   23440: 85 ff ff f0  	adrp	x5, 0x16000 <_ZN22ChiFeature2RealTimeMCX12OnInitializeEP26ChiFeature2CreateInputInfo+0x10c>
   23460: 59 ff ff d0  	adrp	x25, 0xd000 <_ZN22ChiFeature2RealTimeMCX12OnInitializeEP26ChiFeature2CreateInputInfo+0x108>
   2347c: a1 ff ff 90  	adrp	x1, 0x17000 <_ZN22ChiFeature2RealTimeMCX12OnInitializeEP26ChiFeature2CreateInputInfo+0x14c>
   23484: 40 ff ff d0  	adrp	x0, 0xd000 <_ZN22ChiFeature2RealTimeMCX12OnInitializeEP26ChiFeature2CreateInputInfo+0x12c>
   23488: 83 ff ff f0  	adrp	x3, 0x16000 <_ZN22ChiFeature2RealTimeMCX12OnInitializeEP26ChiFeature2CreateInputInfo+0x154>
   2348c: 65 ff ff d0  	adrp	x5, 0x11000 <_ZN22ChiFeature2RealTimeMCX12OnInitializeEP26ChiFeature2CreateInputInfo+0x144>
   234a4: 4f d1 00 94  	bl	0x579e0 <_ZN6ChiLog9LogSystemEPKcS1_S1_S1_iS1_z@plt>
   234ac: 07 03 00 14  	b	0x240c8 <_ZN22ChiFeature2RealTimeMCX12OnInitializeEP26ChiFeature2CreateInputInfo+0xdc8>
   234b4: b1 04 00 36  	tbz	w17, #0, 0x23548 <_ZN22ChiFeature2RealTimeMCX12OnInitializeEP26ChiFeature2CreateInputInfo+0x248>
   234b8: f4 01 00 b0  	adrp	x20, 0x60000 <_ZN22ChiFeature2RealTimeMCX12OnInitializeEP26ChiFeature2CreateInputInfo+0x2ac>
   234c8: 01 02 00 54  	b.ne	0x23508 <_ZN22ChiFeature2RealTimeMCX12OnInitializeEP26ChiFeature2CreateInputInfo+0x208>
   234e0: a1 ff ff 90  	adrp	x1, 0x17000 <_ZN22ChiFeature2RealTimeMCX12OnInitializeEP26ChiFeature2CreateInputInfo+0x1b0>
   234e4: 62 ff ff b0  	adrp	x2, 0x10000 <_ZN22ChiFeature2RealTimeMCX12OnInitializeEP26ChiFeature2CreateInputInfo+0x198>
   234e8: 85 ff ff f0  	adrp	x5, 0x16000 <_ZN22ChiFeature2RealTimeMCX12OnInitializeEP26ChiFeature2CreateInputInfo+0x1b4>
   2351c: a1 ff ff 90  	adrp	x1, 0x17000 <_ZN22ChiFeature2RealTimeMCX12OnInitializeEP26ChiFeature2CreateInputInfo+0x1ec>
   23524: 40 ff ff d0  	adrp	x0, 0xd000 <_ZN22ChiFeature2RealTimeMCX12OnInitializeEP26ChiFeature2CreateInputInfo+0x1cc>
   23528: 83 ff ff f0  	adrp	x3, 0x16000 <_ZN22ChiFeature2RealTimeMCX12OnInitializeEP26ChiFeature2CreateInputInfo+0x1f4>
   2352c: 85 ff ff d0  	adrp	x5, 0x15000 <_ZN22ChiFeature2RealTimeMCX12OnInitializeEP26ChiFeature2CreateInputInfo+0x1f4>
   23544: 27 d1 00 94  	bl	0x579e0 <_ZN6ChiLog9LogSystemEPKcS1_S1_S1_iS1_z@plt>
   23554: 80 f4 ff b5  	cbnz	x0, 0x233e4 <_ZN22ChiFeature2RealTimeMCX12OnInitializeEP26ChiFeature2CreateInputInfo+0xe4>
   23564: 42 20 00 34  	cbz	w2, 0x2396c <_ZN22ChiFeature2RealTimeMCX12OnInitializeEP26ChiFeature2CreateInputInfo+0x66c>
   235a4: 06 00 00 14  	b	0x235bc <_ZN22ChiFeature2RealTimeMCX12OnInitializeEP26ChiFeature2CreateInputInfo+0x2bc>
   235b8: a2 1d 00 54  	b.hs	0x2396c <_ZN22ChiFeature2RealTimeMCX12OnInitializeEP26ChiFeature2CreateInputInfo+0x66c>
   235d4: a5 fe ff 35  	cbnz	w5, 0x235a8 <_ZN22ChiFeature2RealTimeMCX12OnInitializeEP26ChiFeature2CreateInputInfo+0x2a8>
   235e8: 02 fe ff 54  	b.hs	0x235a8 <_ZN22ChiFeature2RealTimeMCX12OnInitializeEP26ChiFeature2CreateInputInfo+0x2a8>
   235f0: d4 fd ff b4  	cbz	x20, 0x235a8 <_ZN22ChiFeature2RealTimeMCX12OnInitializeEP26ChiFeature2CreateInputInfo+0x2a8>
   235fc: a6 06 18 36  	tbz	w6, #3, 0x236d0 <_ZN22ChiFeature2RealTimeMCX12OnInitializeEP26ChiFeature2CreateInputInfo+0x3d0>
   23600: e8 01 00 b0  	adrp	x8, 0x60000 <_ZN22ChiFeature2RealTimeMCX12OnInitializeEP26ChiFeature2CreateInputInfo+0x3f4>
   23614: 81 02 00 54  	b.ne	0x23664 <_ZN22ChiFeature2RealTimeMCX12OnInitializeEP26ChiFeature2CreateInputInfo+0x364>
   23618: 56 ff ff d0  	adrp	x22, 0xd000 <_ZN22ChiFeature2RealTimeMCX12OnInitializeEP26ChiFeature2CreateInputInfo+0x2c0>
   23638: a1 ff ff 90  	adrp	x1, 0x17000 <_ZN22ChiFeature2RealTimeMCX12OnInitializeEP26ChiFeature2CreateInputInfo+0x308>
   2363c: 42 ff ff d0  	adrp	x2, 0xd000 <_ZN22ChiFeature2RealTimeMCX12OnInitializeEP26ChiFeature2CreateInputInfo+0x2e4>
   23640: 85 ff ff f0  	adrp	x5, 0x16000 <_ZN22ChiFeature2RealTimeMCX12OnInitializeEP26ChiFeature2CreateInputInfo+0x30c>
   23664: 56 ff ff d0  	adrp	x22, 0xd000 <_ZN22ChiFeature2RealTimeMCX12OnInitializeEP26ChiFeature2CreateInputInfo+0x30c>
   23688: a0 ff ff b0  	adrp	x0, 0x18000 <_ZN22ChiFeature2RealTimeMCX12OnInitializeEP26ChiFeature2CreateInputInfo+0x35c>
   2368c: 61 ff ff f0  	adrp	x1, 0x12000 <_ZN22ChiFeature2RealTimeMCX12OnInitializeEP26ChiFeature2CreateInputInfo+0x348>
   23690: 83 ff ff f0  	adrp	x3, 0x16000 <_ZN22ChiFeature2RealTimeMCX12OnInitializeEP26ChiFeature2CreateInputInfo+0x35c>
   23694: 85 ff ff d0  	adrp	x5, 0x15000 <_ZN22ChiFeature2RealTimeMCX12OnInitializeEP26ChiFeature2CreateInputInfo+0x35c>
   236b0: cc d0 00 94  	bl	0x579e0 <_ZN6ChiLog9LogSystemEPKcS1_S1_S1_iS1_z@plt>
   236b4: f6 01 00 b0  	adrp	x22, 0x60000 <_ZN22ChiFeature2RealTimeMCX12OnInitializeEP26ChiFeature2CreateInputInfo+0x4a8>
   236d8: a1 00 00 54  	b.ne	0x236ec <_ZN22ChiFeature2RealTimeMCX12OnInitializeEP26ChiFeature2CreateInputInfo+0x3ec>
   236dc: b3 ff ff 17  	b	0x235a8 <_ZN22ChiFeature2RealTimeMCX12OnInitializeEP26ChiFeature2CreateInputInfo+0x2a8>
   236e8: 00 f6 ff 54  	b.eq	0x235a8 <_ZN22ChiFeature2RealTimeMCX12OnInitializeEP26ChiFeature2CreateInputInfo+0x2a8>
   236f0: 8a ff ff b4  	cbz	x10, 0x236e0 <_ZN22ChiFeature2RealTimeMCX12OnInitializeEP26ChiFeature2CreateInputInfo+0x3e0>
   23700: 40 06 00 54  	b.eq	0x237c8 <_ZN22ChiFeature2RealTimeMCX12OnInitializeEP26ChiFeature2CreateInputInfo+0x4c8>
   23714: 0a 05 00 54  	b.ge	0x237b4 <_ZN22ChiFeature2RealTimeMCX12OnInitializeEP26ChiFeature2CreateInputInfo+0x4b4>
   2372c: 4b 04 00 54  	b.lt	0x237b4 <_ZN22ChiFeature2RealTimeMCX12OnInitializeEP26ChiFeature2CreateInputInfo+0x4b4>
   2373c: 68 04 00 54  	b.hi	0x237c8 <_ZN22ChiFeature2RealTimeMCX12OnInitializeEP26ChiFeature2CreateInputInfo+0x4c8>
   23748: 0b 04 00 54  	b.lt	0x237c8 <_ZN22ChiFeature2RealTimeMCX12OnInitializeEP26ChiFeature2CreateInputInfo+0x4c8>
   23750: 6d 0a 00 54  	b.le	0x2389c <_ZN22ChiFeature2RealTimeMCX12OnInitializeEP26ChiFeature2CreateInputInfo+0x59c>
   23764: 4d 0a 00 54  	b.le	0x238ac <_ZN22ChiFeature2RealTimeMCX12OnInitializeEP26ChiFeature2CreateInputInfo+0x5ac>
   237a0: a1 fe ff 54  	b.ne	0x23774 <_ZN22ChiFeature2RealTimeMCX12OnInitializeEP26ChiFeature2CreateInputInfo+0x474>
   237a4: 30 01 00 b4  	cbz	x16, 0x237c8 <_ZN22ChiFeature2RealTimeMCX12OnInitializeEP26ChiFeature2CreateInputInfo+0x4c8>
   237ac: 68 08 00 54  	b.hi	0x238b8 <_ZN22ChiFeature2RealTimeMCX12OnInitializeEP26ChiFeature2CreateInputInfo+0x5b8>
   237b0: 4b 00 00 14  	b	0x238dc <_ZN22ChiFeature2RealTimeMCX12OnInitializeEP26ChiFeature2CreateInputInfo+0x5dc>
   237c4: a1 ff ff 54  	b.ne	0x237b8 <_ZN22ChiFeature2RealTimeMCX12OnInitializeEP26ChiFeature2CreateInputInfo+0x4b8>
   237d0: 80 f8 ff 54  	b.eq	0x236e0 <_ZN22ChiFeature2RealTimeMCX12OnInitializeEP26ChiFeature2CreateInputInfo+0x3e0>
   237e4: 0a 05 00 54  	b.ge	0x23884 <_ZN22ChiFeature2RealTimeMCX12OnInitializeEP26ChiFeature2CreateInputInfo+0x584>
   237fc: 4b 04 00 54  	b.lt	0x23884 <_ZN22ChiFeature2RealTimeMCX12OnInitializeEP26ChiFeature2CreateInputInfo+0x584>
   2380c: a8 f6 ff 54  	b.hi	0x236e0 <_ZN22ChiFeature2RealTimeMCX12OnInitializeEP26ChiFeature2CreateInputInfo+0x3e0>
   23818: 4b f6 ff 54  	b.lt	0x236e0 <_ZN22ChiFeature2RealTimeMCX12OnInitializeEP26ChiFeature2CreateInputInfo+0x3e0>
   23820: 2d 04 00 54  	b.le	0x238a4 <_ZN22ChiFeature2RealTimeMCX12OnInitializeEP26ChiFeature2CreateInputInfo+0x5a4>
   23834: cd 06 00 54  	b.le	0x2390c <_ZN22ChiFeature2RealTimeMCX12OnInitializeEP26ChiFeature2CreateInputInfo+0x60c>
   23870: a1 fe ff 54  	b.ne	0x23844 <_ZN22ChiFeature2RealTimeMCX12OnInitializeEP26ChiFeature2CreateInputInfo+0x544>
   23874: 6f f3 ff b4  	cbz	x15, 0x236e0 <_ZN22ChiFeature2RealTimeMCX12OnInitializeEP26ChiFeature2CreateInputInfo+0x3e0>
   2387c: e8 04 00 54  	b.hi	0x23918 <_ZN22ChiFeature2RealTimeMCX12OnInitializeEP26ChiFeature2CreateInputInfo+0x618>
   23880: 2e 00 00 14  	b	0x23938 <_ZN22ChiFeature2RealTimeMCX12OnInitializeEP26ChiFeature2CreateInputInfo+0x638>
   23894: a1 ff ff 54  	b.ne	0x23888 <_ZN22ChiFeature2RealTimeMCX12OnInitializeEP26ChiFeature2CreateInputInfo+0x588>
   23898: 92 ff ff 17  	b	0x236e0 <_ZN22ChiFeature2RealTimeMCX12OnInitializeEP26ChiFeature2CreateInputInfo+0x3e0>
   238a0: 17 00 00 14  	b	0x238fc <_ZN22ChiFeature2RealTimeMCX12OnInitializeEP26ChiFeature2CreateInputInfo+0x5fc>
   238a8: 2b 00 00 14  	b	0x23954 <_ZN22ChiFeature2RealTimeMCX12OnInitializeEP26ChiFeature2CreateInputInfo+0x654>
   238b4: 49 01 00 54  	b.ls	0x238dc <_ZN22ChiFeature2RealTimeMCX12OnInitializeEP26ChiFeature2CreateInputInfo+0x5dc>
   238d8: 8a f7 ff 54  	b.ge	0x237c8 <_ZN22ChiFeature2RealTimeMCX12OnInitializeEP26ChiFeature2CreateInputInfo+0x4c8>
   238dc: 0c 01 08 36  	tbz	w12, #1, 0x238fc <_ZN22ChiFeature2RealTimeMCX12OnInitializeEP26ChiFeature2CreateInputInfo+0x5fc>
   238f8: 8a f6 ff 54  	b.ge	0x237c8 <_ZN22ChiFeature2RealTimeMCX12OnInitializeEP26ChiFeature2CreateInputInfo+0x4c8>
   23908: b0 ff ff 17  	b	0x237c8 <_ZN22ChiFeature2RealTimeMCX12OnInitializeEP26ChiFeature2CreateInputInfo+0x4c8>
   23914: 29 01 00 54  	b.ls	0x23938 <_ZN22ChiFeature2RealTimeMCX12OnInitializeEP26ChiFeature2CreateInputInfo+0x638>
   23934: 6a ed ff 54  	b.ge	0x236e0 <_ZN22ChiFeature2RealTimeMCX12OnInitializeEP26ChiFeature2CreateInputInfo+0x3e0>
   23938: ea 00 08 36  	tbz	w10, #1, 0x23954 <_ZN22ChiFeature2RealTimeMCX12OnInitializeEP26ChiFeature2CreateInputInfo+0x654>
   23950: 8a ec ff 54  	b.ge	0x236e0 <_ZN22ChiFeature2RealTimeMCX12OnInitializeEP26ChiFeature2CreateInputInfo+0x3e0>
   23964: 41 ec ff 54  	b.ne	0x236ec <_ZN22ChiFeature2RealTimeMCX12OnInitializeEP26ChiFeature2CreateInputInfo+0x3ec>
   23968: 10 ff ff 17  	b	0x235a8 <_ZN22ChiFeature2RealTimeMCX12OnInitializeEP26ChiFeature2CreateInputInfo+0x2a8>
   23970: 59 ff ff d0  	adrp	x25, 0xd000 <_ZN22ChiFeature2RealTimeMCX12OnInitializeEP26ChiFeature2CreateInputInfo+0x618>
   2397c: 76 06 00 b4  	cbz	x22, 0x23a48 <_ZN22ChiFeature2RealTimeMCX12OnInitializeEP26ChiFeature2CreateInputInfo+0x748>
   23980: e1 01 00 b0  	adrp	x1, 0x60000 <_ZN22ChiFeature2RealTimeMCX12OnInitializeEP26ChiFeature2CreateInputInfo+0x774>
   23988: 82 ff ff d0  	adrp	x2, 0x15000 <_ZN22ChiFeature2RealTimeMCX12OnInitializeEP26ChiFeature2CreateInputInfo+0x650>
   239a0: a0 d0 00 94  	bl	0x57c20 <_ZN16CHIThreadManager17RegisterJobFamilyEPFPvS0_EPKcPmi@plt>
   239a4: e0 0c 00 34  	cbz	w0, 0x23b40 <_ZN22ChiFeature2RealTimeMCX12OnInitializeEP26ChiFeature2CreateInputInfo+0x840>
   239a8: e3 01 00 b0  	adrp	x3, 0x60000 <_ZN22ChiFeature2RealTimeMCX12OnInitializeEP26ChiFeature2CreateInputInfo+0x79c>
   239b4: bb 04 18 36  	tbz	w27, #3, 0x23a48 <_ZN22ChiFeature2RealTimeMCX12OnInitializeEP26ChiFeature2CreateInputInfo+0x748>
   239b8: ec 01 00 b0  	adrp	x12, 0x60000 <_ZN22ChiFeature2RealTimeMCX12OnInitializeEP26ChiFeature2CreateInputInfo+0x7ac>
   239c8: 01 02 00 54  	b.ne	0x23a08 <_ZN22ChiFeature2RealTimeMCX12OnInitializeEP26ChiFeature2CreateInputInfo+0x708>
   239e0: a1 ff ff 90  	adrp	x1, 0x17000 <_ZN22ChiFeature2RealTimeMCX12OnInitializeEP26ChiFeature2CreateInputInfo+0x6b0>
   239e4: 82 ff ff b0  	adrp	x2, 0x14000 <_ZN22ChiFeature2RealTimeMCX12OnInitializeEP26ChiFeature2CreateInputInfo+0x6a8>
   239e8: 85 ff ff f0  	adrp	x5, 0x16000 <_ZN22ChiFeature2RealTimeMCX12OnInitializeEP26ChiFeature2CreateInputInfo+0x6b4>
   23a1c: 61 ff ff f0  	adrp	x1, 0x12000 <_ZN22ChiFeature2RealTimeMCX12OnInitializeEP26ChiFeature2CreateInputInfo+0x6d8>
   23a24: a0 ff ff b0  	adrp	x0, 0x18000 <_ZN22ChiFeature2RealTimeMCX12OnInitializeEP26ChiFeature2CreateInputInfo+0x6f8>
   23a28: 83 ff ff f0  	adrp	x3, 0x16000 <_ZN22ChiFeature2RealTimeMCX12OnInitializeEP26ChiFeature2CreateInputInfo+0x6f4>
   23a2c: 85 ff ff f0  	adrp	x5, 0x16000 <_ZN22ChiFeature2RealTimeMCX12OnInitializeEP26ChiFeature2CreateInputInfo+0x6f8>
   23a44: e7 cf 00 94  	bl	0x579e0 <_ZN6ChiLog9LogSystemEPKcS1_S1_S1_iS1_z@plt>
   23a48: f8 01 00 b0  	adrp	x24, 0x60000 <_ZN22ChiFeature2RealTimeMCX12OnInitializeEP26ChiFeature2CreateInputInfo+0x83c>
   23a54: a4 04 00 36  	tbz	w4, #0, 0x23ae8 <_ZN22ChiFeature2RealTimeMCX12OnInitializeEP26ChiFeature2CreateInputInfo+0x7e8>
   23a58: ed 01 00 b0  	adrp	x13, 0x60000 <_ZN22ChiFeature2RealTimeMCX12OnInitializeEP26ChiFeature2CreateInputInfo+0x84c>
   23a68: 01 02 00 54  	b.ne	0x23aa8 <_ZN22ChiFeature2RealTimeMCX12OnInitializeEP26ChiFeature2CreateInputInfo+0x7a8>
   23a80: a1 ff ff 90  	adrp	x1, 0x17000 <_ZN22ChiFeature2RealTimeMCX12OnInitializeEP26ChiFeature2CreateInputInfo+0x750>
   23a84: 62 ff ff f0  	adrp	x2, 0x12000 <_ZN22ChiFeature2RealTimeMCX12OnInitializeEP26ChiFeature2CreateInputInfo+0x740>
   23a88: 85 ff ff f0  	adrp	x5, 0x16000 <_ZN22ChiFeature2RealTimeMCX12OnInitializeEP26ChiFeature2CreateInputInfo+0x754>
   23abc: a1 ff ff 90  	adrp	x1, 0x17000 <_ZN22ChiFeature2RealTimeMCX12OnInitializeEP26ChiFeature2CreateInputInfo+0x78c>
   23ac4: 40 ff ff d0  	adrp	x0, 0xd000 <_ZN22ChiFeature2RealTimeMCX12OnInitializeEP26ChiFeature2CreateInputInfo+0x76c>
   23ac8: 83 ff ff f0  	adrp	x3, 0x16000 <_ZN22ChiFeature2RealTimeMCX12OnInitializeEP26ChiFeature2CreateInputInfo+0x794>
   23acc: 45 ff ff f0  	adrp	x5, 0xe000 <_ZN22ChiFeature2RealTimeMCX12OnInitializeEP26ChiFeature2CreateInputInfo+0x778>
   23ae4: bf cf 00 94  	bl	0x579e0 <_ZN6ChiLog9LogSystemEPKcS1_S1_S1_iS1_z@plt>
   23b1c: a0 13 00 b4  	cbz	x0, 0x23d90 <_ZN22ChiFeature2RealTimeMCX12OnInitializeEP26ChiFeature2CreateInputInfo+0xa90>
   23b2c: e0 12 00 34  	cbz	w0, 0x23d88 <_ZN22ChiFeature2RealTimeMCX12OnInitializeEP26ChiFeature2CreateInputInfo+0xa88>
   23b3c: 95 00 00 14  	b	0x23d90 <_ZN22ChiFeature2RealTimeMCX12OnInitializeEP26ChiFeature2CreateInputInfo+0xa90>
   23b44: 38 f3 ff b4  	cbz	x24, 0x239a8 <_ZN22ChiFeature2RealTimeMCX12OnInitializeEP26ChiFeature2CreateInputInfo+0x6a8>
   23b48: e1 01 00 b0  	adrp	x1, 0x60000 <_ZN22ChiFeature2RealTimeMCX12OnInitializeEP26ChiFeature2CreateInputInfo+0x93c>
   23b50: 62 ff ff f0  	adrp	x2, 0x12000 <_ZN22ChiFeature2RealTimeMCX12OnInitializeEP26ChiFeature2CreateInputInfo+0x80c>
   23b68: 2e d0 00 94  	bl	0x57c20 <_ZN16CHIThreadManager17RegisterJobFamilyEPFPvS0_EPKcPmi@plt>
   23b70: 20 31 00 34  	cbz	w0, 0x24194 <_ZN22ChiFeature2RealTimeMCX12OnInitializeEP26ChiFeature2CreateInputInfo+0xe94>
   23b74: e4 01 00 b0  	adrp	x4, 0x60000 <_ZN22ChiFeature2RealTimeMCX12OnInitializeEP26ChiFeature2CreateInputInfo+0x968>
   23b80: e7 30 00 36  	tbz	w7, #0, 0x2419c <_ZN22ChiFeature2RealTimeMCX12OnInitializeEP26ChiFeature2CreateInputInfo+0xe9c>
   23b84: e0 01 00 b0  	adrp	x0, 0x60000 <_ZN22ChiFeature2RealTimeMCX12OnInitializeEP26ChiFeature2CreateInputInfo+0x978>
   23b94: c1 07 00 54  	b.ne	0x23c8c <_ZN22ChiFeature2RealTimeMCX12OnInitializeEP26ChiFeature2CreateInputInfo+0x98c>
   23bb8: 03 05 00 54  	b.lo	0x23c58 <_ZN22ChiFeature2RealTimeMCX12OnInitializeEP26ChiFeature2CreateInputInfo+0x958>
   23bbc: 7c ff ff f0  	adrp	x28, 0x12000 <_ZN22ChiFeature2RealTimeMCX12OnInitializeEP26ChiFeature2CreateInputInfo+0x878>
   23bdc: 77 ff ff b0  	adrp	x23, 0x10000 <_ZN22ChiFeature2RealTimeMCX12OnInitializeEP26ChiFeature2CreateInputInfo+0x890>
   23be4: a1 ff ff 90  	adrp	x1, 0x17000 <_ZN22ChiFeature2RealTimeMCX12OnInitializeEP26ChiFeature2CreateInputInfo+0x8b4>
   23be8: 82 ff ff 90  	adrp	x2, 0x13000 <_ZN22ChiFeature2RealTimeMCX12OnInitializeEP26ChiFeature2CreateInputInfo+0x8a8>
   23c28: 61 ff ff f0  	adrp	x1, 0x12000 <_ZN22ChiFeature2RealTimeMCX12OnInitializeEP26ChiFeature2CreateInputInfo+0x8e4>
   23c30: 40 ff ff d0  	adrp	x0, 0xd000 <_ZN22ChiFeature2RealTimeMCX12OnInitializeEP26ChiFeature2CreateInputInfo+0x8d8>
   23c34: 45 ff ff d0  	adrp	x5, 0xd000 <_ZN22ChiFeature2RealTimeMCX12OnInitializeEP26ChiFeature2CreateInputInfo+0x8dc>
   23c50: 64 cf 00 94  	bl	0x579e0 <_ZN6ChiLog9LogSystemEPKcS1_S1_S1_iS1_z@plt>
   23c58: b8 01 00 d0  	adrp	x24, 0x59000 <_ZN22ChiFeature2RealTimeMCX12OnInitializeEP26ChiFeature2CreateInputInfo+0xa30>
   23c5c: a1 ff ff 90  	adrp	x1, 0x17000 <_ZN22ChiFeature2RealTimeMCX12OnInitializeEP26ChiFeature2CreateInputInfo+0x92c>
   23c64: 42 ff ff d0  	adrp	x2, 0xd000 <_ZN22ChiFeature2RealTimeMCX12OnInitializeEP26ChiFeature2CreateInputInfo+0x90c>
   23c68: 85 ff ff f0  	adrp	x5, 0x16000 <_ZN22ChiFeature2RealTimeMCX12OnInitializeEP26ChiFeature2CreateInputInfo+0x934>
   23ca8: 03 05 00 54  	b.lo	0x23d48 <_ZN22ChiFeature2RealTimeMCX12OnInitializeEP26ChiFeature2CreateInputInfo+0xa48>
   23cac: 7c ff ff f0  	adrp	x28, 0x12000 <_ZN22ChiFeature2RealTimeMCX12OnInitializeEP26ChiFeature2CreateInputInfo+0x968>
   23ccc: 79 ff ff b0  	adrp	x25, 0x10000 <_ZN22ChiFeature2RealTimeMCX12OnInitializeEP26ChiFeature2CreateInputInfo+0x980>
   23cd4: a1 ff ff 90  	adrp	x1, 0x17000 <_ZN22ChiFeature2RealTimeMCX12OnInitializeEP26ChiFeature2CreateInputInfo+0x9a4>
   23cd8: 82 ff ff 90  	adrp	x2, 0x13000 <_ZN22ChiFeature2RealTimeMCX12OnInitializeEP26ChiFeature2CreateInputInfo+0x998>
   23d18: 61 ff ff f0  	adrp	x1, 0x12000 <_ZN22ChiFeature2RealTimeMCX12OnInitializeEP26ChiFeature2CreateInputInfo+0x9d4>
   23d20: 40 ff ff d0  	adrp	x0, 0xd000 <_ZN22ChiFeature2RealTimeMCX12OnInitializeEP26ChiFeature2CreateInputInfo+0x9c8>
   23d24: 45 ff ff d0  	adrp	x5, 0xd000 <_ZN22ChiFeature2RealTimeMCX12OnInitializeEP26ChiFeature2CreateInputInfo+0x9cc>
   23d40: 28 cf 00 94  	bl	0x579e0 <_ZN6ChiLog9LogSystemEPKcS1_S1_S1_iS1_z@plt>
   23d48: b7 01 00 d0  	adrp	x23, 0x59000 <_ZN22ChiFeature2RealTimeMCX12OnInitializeEP26ChiFeature2CreateInputInfo+0xb20>
   23d4c: 40 ff ff d0  	adrp	x0, 0xd000 <_ZN22ChiFeature2RealTimeMCX12OnInitializeEP26ChiFeature2CreateInputInfo+0x9f4>
   23d54: a1 ff ff 90  	adrp	x1, 0x17000 <_ZN22ChiFeature2RealTimeMCX12OnInitializeEP26ChiFeature2CreateInputInfo+0xa24>
   23d58: 83 ff ff f0  	adrp	x3, 0x16000 <_ZN22ChiFeature2RealTimeMCX12OnInitializeEP26ChiFeature2CreateInputInfo+0xa24>
   23d5c: a5 ff ff 90  	adrp	x5, 0x17000 <_ZN22ChiFeature2RealTimeMCX12OnInitializeEP26ChiFeature2CreateInputInfo+0xa2c>
   23d7c: 19 cf 00 94  	bl	0x579e0 <_ZN6ChiLog9LogSystemEPKcS1_S1_S1_iS1_z@plt>
   23d84: 06 01 00 14  	b	0x2419c <_ZN22ChiFeature2RealTimeMCX12OnInitializeEP26ChiFeature2CreateInputInfo+0xe9c>
   23dac: 40 02 00 b4  	cbz	x0, 0x23df4 <_ZN22ChiFeature2RealTimeMCX12OnInitializeEP26ChiFeature2CreateInputInfo+0xaf4>
   23dc0: 60 01 00 35  	cbnz	w0, 0x23dec <_ZN22ChiFeature2RealTimeMCX12OnInitializeEP26ChiFeature2CreateInputInfo+0xaec>
   23dd0: a0 00 00 35  	cbnz	w0, 0x23de4 <_ZN22ChiFeature2RealTimeMCX12OnInitializeEP26ChiFeature2CreateInputInfo+0xae4>
   23de0: e0 31 00 34  	cbz	w0, 0x2441c <_ZN22ChiFeature2RealTimeMCX12OnInitializeEP26ChiFeature2CreateInputInfo+0x111c>
   23dfc: 35 05 00 36  	tbz	w21, #0, 0x23ea0 <_ZN22ChiFeature2RealTimeMCX12OnInitializeEP26ChiFeature2CreateInputInfo+0xba0>
   23e00: f5 01 00 b0  	adrp	x21, 0x60000 <_ZN22ChiFeature2RealTimeMCX12OnInitializeEP26ChiFeature2CreateInputInfo+0xbf4>
   23e10: 41 02 00 54  	b.ne	0x23e58 <_ZN22ChiFeature2RealTimeMCX12OnInitializeEP26ChiFeature2CreateInputInfo+0xb58>
   23e30: a1 ff ff 90  	adrp	x1, 0x17000 <_ZN22ChiFeature2RealTimeMCX12OnInitializeEP26ChiFeature2CreateInputInfo+0xb00>
   23e34: 62 ff ff b0  	adrp	x2, 0x10000 <_ZN22ChiFeature2RealTimeMCX12OnInitializeEP26ChiFeature2CreateInputInfo+0xae8>
   23e38: 85 ff ff f0  	adrp	x5, 0x16000 <_ZN22ChiFeature2RealTimeMCX12OnInitializeEP26ChiFeature2CreateInputInfo+0xb04>
   23e78: 40 ff ff d0  	adrp	x0, 0xd000 <_ZN22ChiFeature2RealTimeMCX12OnInitializeEP26ChiFeature2CreateInputInfo+0xb20>
   23e7c: a1 ff ff 90  	adrp	x1, 0x17000 <_ZN22ChiFeature2RealTimeMCX12OnInitializeEP26ChiFeature2CreateInputInfo+0xb4c>
   23e80: 83 ff ff f0  	adrp	x3, 0x16000 <_ZN22ChiFeature2RealTimeMCX12OnInitializeEP26ChiFeature2CreateInputInfo+0xb4c>
   23e84: 65 ff ff d0  	adrp	x5, 0x11000 <_ZN22ChiFeature2RealTimeMCX12OnInitializeEP26ChiFeature2CreateInputInfo+0xb3c>
   23e9c: d1 ce 00 94  	bl	0x579e0 <_ZN6ChiLog9LogSystemEPKcS1_S1_S1_iS1_z@plt>
   23eb4: 00 04 00 b4  	cbz	x0, 0x23f34 <_ZN22ChiFeature2RealTimeMCX12OnInitializeEP26ChiFeature2CreateInputInfo+0xc34>
   23ec0: 70 cf 00 94  	bl	0x57c80 <_ZN11ChiMetadata21InitializeMetadataOpsEP14ChiMetadataOps@plt>
   23ec4: 40 03 00 35  	cbnz	w0, 0x23f2c <_ZN22ChiFeature2RealTimeMCX12OnInitializeEP26ChiFeature2CreateInputInfo+0xc2c>
   23ef8: f8 01 00 b0  	adrp	x24, 0x60000 <_ZN22ChiFeature2RealTimeMCX12OnInitializeEP26ChiFeature2CreateInputInfo+0xcec>
   23f28: a0 0e 00 34  	cbz	w0, 0x240fc <_ZN22ChiFeature2RealTimeMCX12OnInitializeEP26ChiFeature2CreateInputInfo+0xdfc>
   23f44: e8 04 00 36  	tbz	w8, #0, 0x23fe0 <_ZN22ChiFeature2RealTimeMCX12OnInitializeEP26ChiFeature2CreateInputInfo+0xce0>
   23f48: eb 01 00 b0  	adrp	x11, 0x60000 <_ZN22ChiFeature2RealTimeMCX12OnInitializeEP26ChiFeature2CreateInputInfo+0xd3c>
   23f58: 21 02 00 54  	b.ne	0x23f9c <_ZN22ChiFeature2RealTimeMCX12OnInitializeEP26ChiFeature2CreateInputInfo+0xc9c>
   23f70: a1 ff ff 90  	adrp	x1, 0x17000 <_ZN22ChiFeature2RealTimeMCX12OnInitializeEP26ChiFeature2CreateInputInfo+0xc40>
   23f74: 62 ff ff d0  	adrp	x2, 0x11000 <_ZN22ChiFeature2RealTimeMCX12OnInitializeEP26ChiFeature2CreateInputInfo+0xc2c>
   23f78: 85 ff ff f0  	adrp	x5, 0x16000 <_ZN22ChiFeature2RealTimeMCX12OnInitializeEP26ChiFeature2CreateInputInfo+0xc44>
   23fb0: a1 ff ff 90  	adrp	x1, 0x17000 <_ZN22ChiFeature2RealTimeMCX12OnInitializeEP26ChiFeature2CreateInputInfo+0xc80>
   23fb8: 40 ff ff d0  	adrp	x0, 0xd000 <_ZN22ChiFeature2RealTimeMCX12OnInitializeEP26ChiFeature2CreateInputInfo+0xc60>
   23fbc: 83 ff ff f0  	adrp	x3, 0x16000 <_ZN22ChiFeature2RealTimeMCX12OnInitializeEP26ChiFeature2CreateInputInfo+0xc88>
   23fc0: 65 ff ff d0  	adrp	x5, 0x11000 <_ZN22ChiFeature2RealTimeMCX12OnInitializeEP26ChiFeature2CreateInputInfo+0xc78>
   23fdc: 81 ce 00 94  	bl	0x579e0 <_ZN6ChiLog9LogSystemEPKcS1_S1_S1_iS1_z@plt>
   23fe4: 4b ff ff b0  	adrp	x11, 0xc000 <_ZN22ChiFeature2RealTimeMCX12OnInitializeEP26ChiFeature2CreateInputInfo+0xc88>
   24004: 2a 06 18 36  	tbz	w10, #3, 0x240c8 <_ZN22ChiFeature2RealTimeMCX12OnInitializeEP26ChiFeature2CreateInputInfo+0xdc8>
   24008: ea 01 00 90  	adrp	x10, 0x60000 <_ZN22ChiFeature2RealTimeMCX12OnInitializeEP26ChiFeature2CreateInputInfo+0xdf8>
   24018: c1 02 00 54  	b.ne	0x24070 <_ZN22ChiFeature2RealTimeMCX12OnInitializeEP26ChiFeature2CreateInputInfo+0xd70>
   24038: 81 ff ff f0  	adrp	x1, 0x17000 <_ZN22ChiFeature2RealTimeMCX12OnInitializeEP26ChiFeature2CreateInputInfo+0xd04>
   24040: 42 ff ff d0  	adrp	x2, 0xe000 <_ZN22ChiFeature2RealTimeMCX12OnInitializeEP26ChiFeature2CreateInputInfo+0xce8>
   24048: 85 ff ff d0  	adrp	x5, 0x16000 <_ZN22ChiFeature2RealTimeMCX12OnInitializeEP26ChiFeature2CreateInputInfo+0xd10>
   24094: a0 ff ff 90  	adrp	x0, 0x18000 <_ZN22ChiFeature2RealTimeMCX12OnInitializeEP26ChiFeature2CreateInputInfo+0xd64>
   2409c: 61 ff ff d0  	adrp	x1, 0x12000 <_ZN22ChiFeature2RealTimeMCX12OnInitializeEP26ChiFeature2CreateInputInfo+0xd54>
   240a0: 83 ff ff d0  	adrp	x3, 0x16000 <_ZN22ChiFeature2RealTimeMCX12OnInitializeEP26ChiFeature2CreateInputInfo+0xd68>
   240a4: 85 ff ff d0  	adrp	x5, 0x16000 <_ZN22ChiFeature2RealTimeMCX12OnInitializeEP26ChiFeature2CreateInputInfo+0xd6c>
   240c4: 47 ce 00 94  	bl	0x579e0 <_ZN6ChiLog9LogSystemEPKcS1_S1_S1_iS1_z@plt>
   240d4: a1 39 00 54  	b.ne	0x24808 <_ZN22ChiFeature2RealTimeMCX12OnInitializeEP26ChiFeature2CreateInputInfo+0x1508>
   2410c: e0 03 00 b4  	cbz	x0, 0x24188 <_ZN22ChiFeature2RealTimeMCX12OnInitializeEP26ChiFeature2CreateInputInfo+0xe88>
   24118: da ce 00 94  	bl	0x57c80 <_ZN11ChiMetadata21InitializeMetadataOpsEP14ChiMetadataOps@plt>
   2411c: 20 03 00 35  	cbnz	w0, 0x24180 <_ZN22ChiFeature2RealTimeMCX12OnInitializeEP26ChiFeature2CreateInputInfo+0xe80>
   2417c: 40 16 00 34  	cbz	w0, 0x24444 <_ZN22ChiFeature2RealTimeMCX12OnInitializeEP26ChiFeature2CreateInputInfo+0x1144>
   24190: 6b ff ff 17  	b	0x23f3c <_ZN22ChiFeature2RealTimeMCX12OnInitializeEP26ChiFeature2CreateInputInfo+0xc3c>
   24198: fc ce ff b4  	cbz	x28, 0x23b74 <_ZN22ChiFeature2RealTimeMCX12OnInitializeEP26ChiFeature2CreateInputInfo+0x874>
   2419c: e1 01 00 90  	adrp	x1, 0x60000 <_ZN22ChiFeature2RealTimeMCX12OnInitializeEP26ChiFeature2CreateInputInfo+0xf8c>
   241a4: a2 ff ff 90  	adrp	x2, 0x18000 <_ZN22ChiFeature2RealTimeMCX12OnInitializeEP26ChiFeature2CreateInputInfo+0xe74>
   241bc: 99 ce 00 94  	bl	0x57c20 <_ZN16CHIThreadManager17RegisterJobFamilyEPFPvS0_EPKcPmi@plt>
   241c4: c0 11 00 34  	cbz	w0, 0x243fc <_ZN22ChiFeature2RealTimeMCX12OnInitializeEP26ChiFeature2CreateInputInfo+0x10fc>
   241c8: f8 01 00 90  	adrp	x24, 0x60000 <_ZN22ChiFeature2RealTimeMCX12OnInitializeEP26ChiFeature2CreateInputInfo+0xfb8>
   241d4: a1 00 00 37  	tbnz	w1, #0, 0x241e8 <_ZN22ChiFeature2RealTimeMCX12OnInitializeEP26ChiFeature2CreateInputInfo+0xee8>
   241d8: 59 ff ff b0  	adrp	x25, 0xd000 <_ZN22ChiFeature2RealTimeMCX12OnInitializeEP26ChiFeature2CreateInputInfo+0xe7c>
   241e4: 42 fe ff 17  	b	0x23aec <_ZN22ChiFeature2RealTimeMCX12OnInitializeEP26ChiFeature2CreateInputInfo+0x7ec>
   241e8: e7 01 00 90  	adrp	x7, 0x60000 <_ZN22ChiFeature2RealTimeMCX12OnInitializeEP26ChiFeature2CreateInputInfo+0xfd8>
   241ec: b7 01 00 b0  	adrp	x23, 0x59000 <_ZN22ChiFeature2RealTimeMCX12OnInitializeEP26ChiFeature2CreateInputInfo+0xfc0>
   241f0: 59 ff ff b0  	adrp	x25, 0xd000 <_ZN22ChiFeature2RealTimeMCX12OnInitializeEP26ChiFeature2CreateInputInfo+0xe94>
   24208: c1 07 00 54  	b.ne	0x24300 <_ZN22ChiFeature2RealTimeMCX12OnInitializeEP26ChiFeature2CreateInputInfo+0x1000>
   2422c: 03 05 00 54  	b.lo	0x242cc <_ZN22ChiFeature2RealTimeMCX12OnInitializeEP26ChiFeature2CreateInputInfo+0xfcc>
   24230: 73 ff ff d0  	adrp	x19, 0x12000 <_ZN22ChiFeature2RealTimeMCX12OnInitializeEP26ChiFeature2CreateInputInfo+0xee8>
   24250: 7c ff ff 90  	adrp	x28, 0x10000 <_ZN22ChiFeature2RealTimeMCX12OnInitializeEP26ChiFeature2CreateInputInfo+0xf00>
   24258: 81 ff ff f0  	adrp	x1, 0x17000 <_ZN22ChiFeature2RealTimeMCX12OnInitializeEP26ChiFeature2CreateInputInfo+0xf24>
   2425c: 62 ff ff f0  	adrp	x2, 0x13000 <_ZN22ChiFeature2RealTimeMCX12OnInitializeEP26ChiFeature2CreateInputInfo+0xf18>
   2429c: 61 ff ff d0  	adrp	x1, 0x12000 <_ZN22ChiFeature2RealTimeMCX12OnInitializeEP26ChiFeature2CreateInputInfo+0xf54>
   242a4: 40 ff ff b0  	adrp	x0, 0xd000 <_ZN22ChiFeature2RealTimeMCX12OnInitializeEP26ChiFeature2CreateInputInfo+0xf48>
   242a8: 45 ff ff b0  	adrp	x5, 0xd000 <_ZN22ChiFeature2RealTimeMCX12OnInitializeEP26ChiFeature2CreateInputInfo+0xf4c>
   242c4: c7 cd 00 94  	bl	0x579e0 <_ZN6ChiLog9LogSystemEPKcS1_S1_S1_iS1_z@plt>
   242d0: 81 ff ff f0  	adrp	x1, 0x17000 <_ZN22ChiFeature2RealTimeMCX12OnInitializeEP26ChiFeature2CreateInputInfo+0xf9c>
   242d4: 62 ff ff d0  	adrp	x2, 0x12000 <_ZN22ChiFeature2RealTimeMCX12OnInitializeEP26ChiFeature2CreateInputInfo+0xf8c>
   242d8: 85 ff ff d0  	adrp	x5, 0x16000 <_ZN22ChiFeature2RealTimeMCX12OnInitializeEP26ChiFeature2CreateInputInfo+0xfa0>
   242f8: f8 01 00 90  	adrp	x24, 0x60000 <_ZN22ChiFeature2RealTimeMCX12OnInitializeEP26ChiFeature2CreateInputInfo+0x10e8>
   2431c: 43 05 00 54  	b.lo	0x243c4 <_ZN22ChiFeature2RealTimeMCX12OnInitializeEP26ChiFeature2CreateInputInfo+0x10c4>
   24320: 73 ff ff d0  	adrp	x19, 0x12000 <_ZN22ChiFeature2RealTimeMCX12OnInitializeEP26ChiFeature2CreateInputInfo+0xfd8>
   24340: 76 ff ff 90  	adrp	x22, 0x10000 <_ZN22ChiFeature2RealTimeMCX12OnInitializeEP26ChiFeature2CreateInputInfo+0xff0>
   24348: 81 ff ff f0  	adrp	x1, 0x17000 <_ZN22ChiFeature2RealTimeMCX12OnInitializeEP26ChiFeature2CreateInputInfo+0x1014>
   2434c: 62 ff ff f0  	adrp	x2, 0x13000 <_ZN22ChiFeature2RealTimeMCX12OnInitializeEP26ChiFeature2CreateInputInfo+0x1008>
   24388: f8 01 00 90  	adrp	x24, 0x60000 <_ZN22ChiFeature2RealTimeMCX12OnInitializeEP26ChiFeature2CreateInputInfo+0x1178>
   24394: 40 ff ff b0  	adrp	x0, 0xd000 <_ZN22ChiFeature2RealTimeMCX12OnInitializeEP26ChiFeature2CreateInputInfo+0x1038>
   24398: 61 ff ff d0  	adrp	x1, 0x12000 <_ZN22ChiFeature2RealTimeMCX12OnInitializeEP26ChiFeature2CreateInputInfo+0x1050>
   2439c: 45 ff ff b0  	adrp	x5, 0xd000 <_ZN22ChiFeature2RealTimeMCX12OnInitializeEP26ChiFeature2CreateInputInfo+0x1040>
   243bc: 89 cd 00 94  	bl	0x579e0 <_ZN6ChiLog9LogSystemEPKcS1_S1_S1_iS1_z@plt>
   243c8: 40 ff ff b0  	adrp	x0, 0xd000 <_ZN22ChiFeature2RealTimeMCX12OnInitializeEP26ChiFeature2CreateInputInfo+0x106c>
   243cc: 81 ff ff f0  	adrp	x1, 0x17000 <_ZN22ChiFeature2RealTimeMCX12OnInitializeEP26ChiFeature2CreateInputInfo+0x1098>
   243d0: 83 ff ff d0  	adrp	x3, 0x16000 <_ZN22ChiFeature2RealTimeMCX12OnInitializeEP26ChiFeature2CreateInputInfo+0x1098>
   243d4: 85 ff ff b0  	adrp	x5, 0x15000 <_ZN22ChiFeature2RealTimeMCX12OnInitializeEP26ChiFeature2CreateInputInfo+0x1098>
   243f0: 7c cd 00 94  	bl	0x579e0 <_ZN6ChiLog9LogSystemEPKcS1_S1_S1_iS1_z@plt>
   243f8: bc fd ff 17  	b	0x23ae8 <_ZN22ChiFeature2RealTimeMCX12OnInitializeEP26ChiFeature2CreateInputInfo+0x7e8>
   24400: 59 ee ff b4  	cbz	x25, 0x241c8 <_ZN22ChiFeature2RealTimeMCX12OnInitializeEP26ChiFeature2CreateInputInfo+0xec8>
   24404: f8 01 00 90  	adrp	x24, 0x60000 <_ZN22ChiFeature2RealTimeMCX12OnInitializeEP26ChiFeature2CreateInputInfo+0x11f4>
   24408: 59 ff ff b0  	adrp	x25, 0xd000 <_ZN22ChiFeature2RealTimeMCX12OnInitializeEP26ChiFeature2CreateInputInfo+0x10ac>
   24418: b5 fd ff 17  	b	0x23aec <_ZN22ChiFeature2RealTimeMCX12OnInitializeEP26ChiFeature2CreateInputInfo+0x7ec>
   24420: f8 01 00 90  	adrp	x24, 0x60000 <_ZN22ChiFeature2RealTimeMCX12OnInitializeEP26ChiFeature2CreateInputInfo+0x1210>
   2443c: 5b d3 ff b5  	cbnz	x27, 0x23ea4 <_ZN22ChiFeature2RealTimeMCX12OnInitializeEP26ChiFeature2CreateInputInfo+0xba4>
   24440: 6e fe ff 17  	b	0x23df8 <_ZN22ChiFeature2RealTimeMCX12OnInitializeEP26ChiFeature2CreateInputInfo+0xaf8>
   24454: c0 03 00 b4  	cbz	x0, 0x244cc <_ZN22ChiFeature2RealTimeMCX12OnInitializeEP26ChiFeature2CreateInputInfo+0x11cc>
   24460: 08 ce 00 94  	bl	0x57c80 <_ZN11ChiMetadata21InitializeMetadataOpsEP14ChiMetadataOps@plt>
   24464: 00 03 00 35  	cbnz	w0, 0x244c4 <_ZN22ChiFeature2RealTimeMCX12OnInitializeEP26ChiFeature2CreateInputInfo+0x11c4>
   244c0: c0 00 00 34  	cbz	w0, 0x244d8 <_ZN22ChiFeature2RealTimeMCX12OnInitializeEP26ChiFeature2CreateInputInfo+0x11d8>
   244d4: 9a fe ff 17  	b	0x23f3c <_ZN22ChiFeature2RealTimeMCX12OnInitializeEP26ChiFeature2CreateInputInfo+0xc3c>
   244e8: c0 03 00 b4  	cbz	x0, 0x24560 <_ZN22ChiFeature2RealTimeMCX12OnInitializeEP26ChiFeature2CreateInputInfo+0x1260>
   244f4: e3 cd 00 94  	bl	0x57c80 <_ZN11ChiMetadata21InitializeMetadataOpsEP14ChiMetadataOps@plt>
   244f8: 00 03 00 35  	cbnz	w0, 0x24558 <_ZN22ChiFeature2RealTimeMCX12OnInitializeEP26ChiFeature2CreateInputInfo+0x1258>
   24554: c0 00 00 34  	cbz	w0, 0x2456c <_ZN22ChiFeature2RealTimeMCX12OnInitializeEP26ChiFeature2CreateInputInfo+0x126c>
   24568: 75 fe ff 17  	b	0x23f3c <_ZN22ChiFeature2RealTimeMCX12OnInitializeEP26ChiFeature2CreateInputInfo+0xc3c>
   2457c: c0 03 00 b4  	cbz	x0, 0x245f4 <_ZN22ChiFeature2RealTimeMCX12OnInitializeEP26ChiFeature2CreateInputInfo+0x12f4>
   24588: be cd 00 94  	bl	0x57c80 <_ZN11ChiMetadata21InitializeMetadataOpsEP14ChiMetadataOps@plt>
   2458c: 00 03 00 35  	cbnz	w0, 0x245ec <_ZN22ChiFeature2RealTimeMCX12OnInitializeEP26ChiFeature2CreateInputInfo+0x12ec>
   245e8: 60 01 00 34  	cbz	w0, 0x24614 <_ZN22ChiFeature2RealTimeMCX12OnInitializeEP26ChiFeature2CreateInputInfo+0x1314>
   24600: f8 01 00 90  	adrp	x24, 0x60000 <_ZN22ChiFeature2RealTimeMCX12OnInitializeEP26ChiFeature2CreateInputInfo+0x13f0>
   24604: 59 ff ff b0  	adrp	x25, 0xd000 <_ZN22ChiFeature2RealTimeMCX12OnInitializeEP26ChiFeature2CreateInputInfo+0x12a8>
   24610: 4b fe ff 17  	b	0x23f3c <_ZN22ChiFeature2RealTimeMCX12OnInitializeEP26ChiFeature2CreateInputInfo+0xc3c>
   24628: c0 03 00 b4  	cbz	x0, 0x246a0 <_ZN22ChiFeature2RealTimeMCX12OnInitializeEP26ChiFeature2CreateInputInfo+0x13a0>
   24634: 93 cd 00 94  	bl	0x57c80 <_ZN11ChiMetadata21InitializeMetadataOpsEP14ChiMetadataOps@plt>
   24638: 00 03 00 35  	cbnz	w0, 0x24698 <_ZN22ChiFeature2RealTimeMCX12OnInitializeEP26ChiFeature2CreateInputInfo+0x1398>
   24694: e0 00 00 34  	cbz	w0, 0x246b0 <_ZN22ChiFeature2RealTimeMCX12OnInitializeEP26ChiFeature2CreateInputInfo+0x13b0>
   246ac: d5 ff ff 17  	b	0x24600 <_ZN22ChiFeature2RealTimeMCX12OnInitializeEP26ChiFeature2CreateInputInfo+0x1300>
   246c4: c0 03 00 b4  	cbz	x0, 0x2473c <_ZN22ChiFeature2RealTimeMCX12OnInitializeEP26ChiFeature2CreateInputInfo+0x143c>
   246d0: 6c cd 00 94  	bl	0x57c80 <_ZN11ChiMetadata21InitializeMetadataOpsEP14ChiMetadataOps@plt>
   246d4: 00 03 00 35  	cbnz	w0, 0x24734 <_ZN22ChiFeature2RealTimeMCX12OnInitializeEP26ChiFeature2CreateInputInfo+0x1434>
   24730: e0 00 00 34  	cbz	w0, 0x2474c <_ZN22ChiFeature2RealTimeMCX12OnInitializeEP26ChiFeature2CreateInputInfo+0x144c>
   24748: ae ff ff 17  	b	0x24600 <_ZN22ChiFeature2RealTimeMCX12OnInitializeEP26ChiFeature2CreateInputInfo+0x1300>
   24760: c0 03 00 b4  	cbz	x0, 0x247d8 <_ZN22ChiFeature2RealTimeMCX12OnInitializeEP26ChiFeature2CreateInputInfo+0x14d8>
   2476c: 45 cd 00 94  	bl	0x57c80 <_ZN11ChiMetadata21InitializeMetadataOpsEP14ChiMetadataOps@plt>
   24770: 00 03 00 35  	cbnz	w0, 0x247d0 <_ZN22ChiFeature2RealTimeMCX12OnInitializeEP26ChiFeature2CreateInputInfo+0x14d0>
   247cc: e0 00 00 34  	cbz	w0, 0x247e8 <_ZN22ChiFeature2RealTimeMCX12OnInitializeEP26ChiFeature2CreateInputInfo+0x14e8>
   247e4: 87 ff ff 17  	b	0x24600 <_ZN22ChiFeature2RealTimeMCX12OnInitializeEP26ChiFeature2CreateInputInfo+0x1300>
   247ec: f8 01 00 90  	adrp	x24, 0x60000 <_ZN22ChiFeature2RealTimeMCX20SubmitRequestHandlerEPv+0xcc>
   247f0: 59 ff ff b0  	adrp	x25, 0xd000 <_ZN22ChiFeature2RealTimeMCX12OnInitializeEP26ChiFeature2CreateInputInfo+0x1494>
   24804: f8 fd ff 17  	b	0x23fe4 <_ZN22ChiFeature2RealTimeMCX12OnInitializeEP26ChiFeature2CreateInputInfo+0xce4>
0000000000024810 <_ZN22ChiFeature2RealTimeMCX20SubmitRequestHandlerEPv>:
   2483c: a0 98 00 b4  	cbz	x0, 0x25b50 <_ZN22ChiFeature2RealTimeMCX20SubmitRequestHandlerEPv+0x1340>
   24850: 16 98 00 b4  	cbz	x22, 0x25b50 <_ZN22ChiFeature2RealTimeMCX20SubmitRequestHandlerEPv+0x1340>
   24874: 07 cd 00 94  	bl	0x57c90 <_ZNK24ChiFeature2RequestObject23GetUsecaseRequestObjectEv@plt>
   24898: 6a 06 00 b4  	cbz	x10, 0x24964 <_ZN22ChiFeature2RealTimeMCX20SubmitRequestHandlerEPv+0x154>
   248a8: a0 05 00 34  	cbz	w0, 0x2495c <_ZN22ChiFeature2RealTimeMCX20SubmitRequestHandlerEPv+0x14c>
   248ac: f1 01 00 90  	adrp	x17, 0x60000 <_ZN22ChiFeature2RealTimeMCX20SubmitRequestHandlerEPv+0x18c>
   248b8: 2c 05 08 36  	tbz	w12, #1, 0x2495c <_ZN22ChiFeature2RealTimeMCX20SubmitRequestHandlerEPv+0x14c>
   248bc: e3 01 00 90  	adrp	x3, 0x60000 <_ZN22ChiFeature2RealTimeMCX20SubmitRequestHandlerEPv+0x19c>
   248c0: 7c ff ff f0  	adrp	x28, 0x13000 <_ZN22ChiFeature2RealTimeMCX20SubmitRequestHandlerEPv+0x6c>
   248d4: 21 02 00 54  	b.ne	0x24918 <_ZN22ChiFeature2RealTimeMCX20SubmitRequestHandlerEPv+0x108>
   248ec: 81 ff ff f0  	adrp	x1, 0x17000 <_ZN22ChiFeature2RealTimeMCX20SubmitRequestHandlerEPv+0xa8>
   248f0: 62 ff ff d0  	adrp	x2, 0x12000 <_ZN22ChiFeature2RealTimeMCX20SubmitRequestHandlerEPv+0x98>
   248f4: 85 ff ff f0  	adrp	x5, 0x17000 <_ZN22ChiFeature2RealTimeMCX20SubmitRequestHandlerEPv+0xb0>
   2492c: 41 ff ff f0  	adrp	x1, 0xf000 <_ZN22ChiFeature2RealTimeMCX20SubmitRequestHandlerEPv+0xc8>
   24934: 80 ff ff 90  	adrp	x0, 0x14000 <_ZN22ChiFeature2RealTimeMCX20SubmitRequestHandlerEPv+0xe4>
   24938: 83 ff ff f0  	adrp	x3, 0x17000 <_ZN22ChiFeature2RealTimeMCX20SubmitRequestHandlerEPv+0xf4>
   2493c: a5 ff ff 90  	adrp	x5, 0x18000 <_ZN22ChiFeature2RealTimeMCX20SubmitRequestHandlerEPv+0xfc>
   24958: 22 cc 00 94  	bl	0x579e0 <_ZN6ChiLog9LogSystemEPKcS1_S1_S1_iS1_z@plt>
   24960: 02 00 00 14  	b	0x24968 <_ZN22ChiFeature2RealTimeMCX20SubmitRequestHandlerEPv+0x158>
   24980: c4 cc 00 94  	bl	0x57c90 <_ZNK24ChiFeature2RequestObject23GetUsecaseRequestObjectEv@plt>
   2499c: c1 cc 00 94  	bl	0x57ca0 <_ZNK24ChiFeature2RequestObject19GetSequencePrivDataE24ChiFeature2SequenceOrderh@plt>
   249a0: c0 00 00 b4  	cbz	x0, 0x249b8 <_ZN22ChiFeature2RealTimeMCX20SubmitRequestHandlerEPv+0x1a8>
   249a8: 8d 00 00 35  	cbnz	w13, 0x249b8 <_ZN22ChiFeature2RealTimeMCX20SubmitRequestHandlerEPv+0x1a8>
   249b4: bf cc 00 94  	bl	0x57cb0 <_ZNK22ChiFeature2RealTimeMCX15AcquireResourceEP24ChiFeature2RequestObject@plt>
   249c4: 0e 40 00 34  	cbz	w14, 0x251c4 <_ZN22ChiFeature2RealTimeMCX20SubmitRequestHandlerEPv+0x9b4>
   249d4: 07 00 00 14  	b	0x249f0 <_ZN22ChiFeature2RealTimeMCX20SubmitRequestHandlerEPv+0x1e0>
   249ec: c9 3e 00 54  	b.ls	0x251c4 <_ZN22ChiFeature2RealTimeMCX20SubmitRequestHandlerEPv+0x9b4>
   24a10: c1 31 00 54  	b.ne	0x25048 <_ZN22ChiFeature2RealTimeMCX20SubmitRequestHandlerEPv+0x838>
   24a28: 01 04 00 54  	b.ne	0x24aa8 <_ZN22ChiFeature2RealTimeMCX20SubmitRequestHandlerEPv+0x298>
   24a34: e0 05 00 54  	b.eq	0x24af0 <_ZN22ChiFeature2RealTimeMCX20SubmitRequestHandlerEPv+0x2e0>
   24a3c: ac 05 00 b4  	cbz	x12, 0x24af0 <_ZN22ChiFeature2RealTimeMCX20SubmitRequestHandlerEPv+0x2e0>
   24a4c: 22 05 00 54  	b.hs	0x24af0 <_ZN22ChiFeature2RealTimeMCX20SubmitRequestHandlerEPv+0x2e0>
   24a54: f9 04 00 b4  	cbz	x25, 0x24af0 <_ZN22ChiFeature2RealTimeMCX20SubmitRequestHandlerEPv+0x2e0>
   24a68: 40 20 00 54  	b.eq	0x24e70 <_ZN22ChiFeature2RealTimeMCX20SubmitRequestHandlerEPv+0x660>
   24a7c: 05 00 00 14  	b	0x24a90 <_ZN22ChiFeature2RealTimeMCX20SubmitRequestHandlerEPv+0x280>
   24a8c: 40 1f 00 54  	b.eq	0x24e74 <_ZN22ChiFeature2RealTimeMCX20SubmitRequestHandlerEPv+0x664>
   24a98: 41 ff ff 54  	b.ne	0x24a80 <_ZN22ChiFeature2RealTimeMCX20SubmitRequestHandlerEPv+0x270>
   24aa4: f7 ff ff 17  	b	0x24a80 <_ZN22ChiFeature2RealTimeMCX20SubmitRequestHandlerEPv+0x270>
   24aa8: 36 cc 00 94  	bl	0x57b80 <_ZN15ExtensionModule11GetInstanceEv@plt>
   24ab0: 2e 01 00 b4  	cbz	x14, 0x24ad4 <_ZN22ChiFeature2RealTimeMCX20SubmitRequestHandlerEPv+0x2c4>
   24abc: c1 00 00 54  	b.ne	0x24ad4 <_ZN22ChiFeature2RealTimeMCX20SubmitRequestHandlerEPv+0x2c4>
   24ac0: 30 cc 00 94  	bl	0x57b80 <_ZN15ExtensionModule11GetInstanceEv@plt>
   24ac8: 7c 07 00 b4  	cbz	x28, 0x24bb4 <_ZN22ChiFeature2RealTimeMCX20SubmitRequestHandlerEPv+0x3a4>
   24ad0: 23 07 00 34  	cbz	w3, 0x24bb4 <_ZN22ChiFeature2RealTimeMCX20SubmitRequestHandlerEPv+0x3a4>
   24ae0: 78 cc 00 94  	bl	0x57cc0 <_ZNK22ChiFeature2RealTimeMCX18DeActivatePipelineEP24ChiFeature2RequestObjectRK21ChiFeature2Identifier@plt>
   24ae8: 49 16 00 b5  	cbnz	x9, 0x24db0 <_ZN22ChiFeature2RealTimeMCX20SubmitRequestHandlerEPv+0x5a0>
   24aec: 29 01 00 14  	b	0x24f90 <_ZN22ChiFeature2RealTimeMCX20SubmitRequestHandlerEPv+0x780>
   24af0: f0 01 00 90  	adrp	x16, 0x60000 <_ZN22ChiFeature2RealTimeMCX20SubmitRequestHandlerEPv+0x3d0>
   24afc: 71 15 00 36  	tbz	w17, #0, 0x24da8 <_ZN22ChiFeature2RealTimeMCX20SubmitRequestHandlerEPv+0x598>
   24b00: f9 01 00 90  	adrp	x25, 0x60000 <_ZN22ChiFeature2RealTimeMCX20SubmitRequestHandlerEPv+0x3e0>
   24b10: 61 02 00 54  	b.ne	0x24b5c <_ZN22ChiFeature2RealTimeMCX20SubmitRequestHandlerEPv+0x34c>
   24b14: 59 ff ff b0  	adrp	x25, 0xd000 <_ZN22ChiFeature2RealTimeMCX20SubmitRequestHandlerEPv+0x2a8>
   24b30: 81 ff ff f0  	adrp	x1, 0x17000 <_ZN22ChiFeature2RealTimeMCX20SubmitRequestHandlerEPv+0x2ec>
   24b34: 82 ff ff d0  	adrp	x2, 0x16000 <_ZN22ChiFeature2RealTimeMCX20SubmitRequestHandlerEPv+0x2ec>
   24b38: 65 ff ff f0  	adrp	x5, 0x13000 <_ZN22ChiFeature2RealTimeMCX20SubmitRequestHandlerEPv+0x2e4>
   24b5c: 57 ff ff b0  	adrp	x23, 0xd000 <_ZN22ChiFeature2RealTimeMCX20SubmitRequestHandlerEPv+0x2f0>
   24b78: 81 ff ff f0  	adrp	x1, 0x17000 <_ZN22ChiFeature2RealTimeMCX20SubmitRequestHandlerEPv+0x334>
   24b80: 40 ff ff b0  	adrp	x0, 0xd000 <_ZN22ChiFeature2RealTimeMCX20SubmitRequestHandlerEPv+0x314>
   24b84: 63 ff ff f0  	adrp	x3, 0x13000 <_ZN22ChiFeature2RealTimeMCX20SubmitRequestHandlerEPv+0x330>
   24b88: a5 ff ff 90  	adrp	x5, 0x18000 <_ZN22ChiFeature2RealTimeMCX20SubmitRequestHandlerEPv+0x348>
   24ba4: 8f cb 00 94  	bl	0x579e0 <_ZN6ChiLog9LogSystemEPKcS1_S1_S1_iS1_z@plt>
   24bac: 29 10 00 b5  	cbnz	x9, 0x24db0 <_ZN22ChiFeature2RealTimeMCX20SubmitRequestHandlerEPv+0x5a0>
   24bb0: f8 00 00 14  	b	0x24f90 <_ZN22ChiFeature2RealTimeMCX20SubmitRequestHandlerEPv+0x780>
   24bc4: 42 05 00 54  	b.hs	0x24c6c <_ZN22ChiFeature2RealTimeMCX20SubmitRequestHandlerEPv+0x45c>
   24bcc: 01 05 00 b4  	cbz	x1, 0x24c6c <_ZN22ChiFeature2RealTimeMCX20SubmitRequestHandlerEPv+0x45c>
   24be0: 62 04 00 54  	b.hs	0x24c6c <_ZN22ChiFeature2RealTimeMCX20SubmitRequestHandlerEPv+0x45c>
   24be8: 24 04 00 b4  	cbz	x4, 0x24c6c <_ZN22ChiFeature2RealTimeMCX20SubmitRequestHandlerEPv+0x45c>
   24bf8: 60 09 00 54  	b.eq	0x24d24 <_ZN22ChiFeature2RealTimeMCX20SubmitRequestHandlerEPv+0x514>
   24c0c: 71 2c 00 b4  	cbz	x17, 0x25198 <_ZN22ChiFeature2RealTimeMCX20SubmitRequestHandlerEPv+0x988>
   24c28: 05 00 00 14  	b	0x24c3c <_ZN22ChiFeature2RealTimeMCX20SubmitRequestHandlerEPv+0x42c>
   24c38: a0 2a 00 54  	b.eq	0x2518c <_ZN22ChiFeature2RealTimeMCX20SubmitRequestHandlerEPv+0x97c>
   24c48: 80 00 00 54  	b.eq	0x24c58 <_ZN22ChiFeature2RealTimeMCX20SubmitRequestHandlerEPv+0x448>
   24c50: e1 fe ff 54  	b.ne	0x24c2c <_ZN22ChiFeature2RealTimeMCX20SubmitRequestHandlerEPv+0x41c>
   24c54: 04 00 00 14  	b	0x24c64 <_ZN22ChiFeature2RealTimeMCX20SubmitRequestHandlerEPv+0x454>
   24c60: 61 fe ff 54  	b.ne	0x24c2c <_ZN22ChiFeature2RealTimeMCX20SubmitRequestHandlerEPv+0x41c>
   24c68: f1 ff ff 17  	b	0x24c2c <_ZN22ChiFeature2RealTimeMCX20SubmitRequestHandlerEPv+0x41c>
   24c6c: e5 01 00 90  	adrp	x5, 0x60000 <_ZN22ChiFeature2RealTimeMCX20SubmitRequestHandlerEPv+0x54c>
   24c78: 66 05 00 36  	tbz	w6, #0, 0x24d24 <_ZN22ChiFeature2RealTimeMCX20SubmitRequestHandlerEPv+0x514>
   24c7c: e8 01 00 90  	adrp	x8, 0x60000 <_ZN22ChiFeature2RealTimeMCX20SubmitRequestHandlerEPv+0x55c>
   24c8c: 61 02 00 54  	b.ne	0x24cd8 <_ZN22ChiFeature2RealTimeMCX20SubmitRequestHandlerEPv+0x4c8>
   24c90: 5c ff ff b0  	adrp	x28, 0xd000 <_ZN22ChiFeature2RealTimeMCX20SubmitRequestHandlerEPv+0x424>
   24cac: 81 ff ff f0  	adrp	x1, 0x17000 <_ZN22ChiFeature2RealTimeMCX20SubmitRequestHandlerEPv+0x468>
   24cb0: 82 ff ff d0  	adrp	x2, 0x16000 <_ZN22ChiFeature2RealTimeMCX20SubmitRequestHandlerEPv+0x468>
   24cb4: 65 ff ff f0  	adrp	x5, 0x13000 <_ZN22ChiFeature2RealTimeMCX20SubmitRequestHandlerEPv+0x460>
   24cd8: 59 ff ff b0  	adrp	x25, 0xd000 <_ZN22ChiFeature2RealTimeMCX20SubmitRequestHandlerEPv+0x46c>
   24cf4: 81 ff ff f0  	adrp	x1, 0x17000 <_ZN22ChiFeature2RealTimeMCX20SubmitRequestHandlerEPv+0x4b0>
   24cfc: 40 ff ff b0  	adrp	x0, 0xd000 <_ZN22ChiFeature2RealTimeMCX20SubmitRequestHandlerEPv+0x490>
   24d00: 63 ff ff f0  	adrp	x3, 0x13000 <_ZN22ChiFeature2RealTimeMCX20SubmitRequestHandlerEPv+0x4ac>
   24d04: a5 ff ff 90  	adrp	x5, 0x18000 <_ZN22ChiFeature2RealTimeMCX20SubmitRequestHandlerEPv+0x4c4>
   24d20: 30 cb 00 94  	bl	0x579e0 <_ZN6ChiLog9LogSystemEPKcS1_S1_S1_iS1_z@plt>
   24d3c: d9 cb 00 94  	bl	0x57ca0 <_ZNK24ChiFeature2RequestObject19GetSequencePrivDataE24ChiFeature2SequenceOrderh@plt>
   24d40: 60 00 00 b4  	cbz	x0, 0x24d4c <_ZN22ChiFeature2RealTimeMCX20SubmitRequestHandlerEPv+0x53c>
   24d48: 02 00 00 14  	b	0x24d50 <_ZN22ChiFeature2RealTimeMCX20SubmitRequestHandlerEPv+0x540>
   24d68: d9 01 00 b4  	cbz	x25, 0x24da0 <_ZN22ChiFeature2RealTimeMCX20SubmitRequestHandlerEPv+0x590>
   24d90: d0 cb 00 94  	bl	0x57cd0 <_ZN16CHIThreadManager7PostJobEmPvm@plt>
   24d98: c9 00 00 b5  	cbnz	x9, 0x24db0 <_ZN22ChiFeature2RealTimeMCX20SubmitRequestHandlerEPv+0x5a0>
   24d9c: 7d 00 00 14  	b	0x24f90 <_ZN22ChiFeature2RealTimeMCX20SubmitRequestHandlerEPv+0x780>
   24dac: 29 0f 00 b4  	cbz	x9, 0x24f90 <_ZN22ChiFeature2RealTimeMCX20SubmitRequestHandlerEPv+0x780>
   24db8: c1 0e 00 54  	b.ne	0x24f90 <_ZN22ChiFeature2RealTimeMCX20SubmitRequestHandlerEPv+0x780>
   24dbc: e4 01 00 90  	adrp	x4, 0x60000 <_ZN22ChiFeature2RealTimeMCX20SubmitRequestHandlerEPv+0x69c>
   24dc8: 07 14 18 36  	tbz	w7, #3, 0x25048 <_ZN22ChiFeature2RealTimeMCX20SubmitRequestHandlerEPv+0x838>
   24dcc: fc 01 00 90  	adrp	x28, 0x60000 <_ZN22ChiFeature2RealTimeMCX20SubmitRequestHandlerEPv+0x6ac>
   24ddc: 61 02 00 54  	b.ne	0x24e28 <_ZN22ChiFeature2RealTimeMCX20SubmitRequestHandlerEPv+0x618>
   24de0: 55 ff ff b0  	adrp	x21, 0xd000 <_ZN22ChiFeature2RealTimeMCX20SubmitRequestHandlerEPv+0x574>
   24dfc: 81 ff ff f0  	adrp	x1, 0x17000 <_ZN22ChiFeature2RealTimeMCX20SubmitRequestHandlerEPv+0x5b8>
   24e00: a2 ff ff 90  	adrp	x2, 0x18000 <_ZN22ChiFeature2RealTimeMCX20SubmitRequestHandlerEPv+0x5c0>
   24e04: 65 ff ff f0  	adrp	x5, 0x13000 <_ZN22ChiFeature2RealTimeMCX20SubmitRequestHandlerEPv+0x5b0>
   24e28: 57 ff ff b0  	adrp	x23, 0xd000 <_ZN22ChiFeature2RealTimeMCX20SubmitRequestHandlerEPv+0x5bc>
   24e44: 61 ff ff d0  	adrp	x1, 0x12000 <_ZN22ChiFeature2RealTimeMCX20SubmitRequestHandlerEPv+0x5ec>
   24e4c: a0 ff ff 90  	adrp	x0, 0x18000 <_ZN22ChiFeature2RealTimeMCX20SubmitRequestHandlerEPv+0x60c>
   24e50: 63 ff ff f0  	adrp	x3, 0x13000 <_ZN22ChiFeature2RealTimeMCX20SubmitRequestHandlerEPv+0x5fc>
   24e54: 65 ff ff f0  	adrp	x5, 0x13000 <_ZN22ChiFeature2RealTimeMCX20SubmitRequestHandlerEPv+0x600>
   24e6c: 75 00 00 14  	b	0x25040 <_ZN22ChiFeature2RealTimeMCX20SubmitRequestHandlerEPv+0x830>
   24e80: 42 07 00 54  	b.hs	0x24f68 <_ZN22ChiFeature2RealTimeMCX20SubmitRequestHandlerEPv+0x758>
   24e84: e2 01 00 90  	adrp	x2, 0x60000 <_ZN22ChiFeature2RealTimeMCX20SubmitRequestHandlerEPv+0x764>
   24e90: 50 06 18 36  	tbz	w16, #3, 0x24f58 <_ZN22ChiFeature2RealTimeMCX20SubmitRequestHandlerEPv+0x748>
   24e94: ea 01 00 90  	adrp	x10, 0x60000 <_ZN22ChiFeature2RealTimeMCX20SubmitRequestHandlerEPv+0x774>
   24ea4: c1 02 00 54  	b.ne	0x24efc <_ZN22ChiFeature2RealTimeMCX20SubmitRequestHandlerEPv+0x6ec>
   24ea8: 40 ff ff b0  	adrp	x0, 0xd000 <_ZN22ChiFeature2RealTimeMCX20SubmitRequestHandlerEPv+0x63c>
   24ebc: 49 ff ff b0  	adrp	x9, 0xd000 <_ZN22ChiFeature2RealTimeMCX20SubmitRequestHandlerEPv+0x650>
   24ec8: 81 ff ff f0  	adrp	x1, 0x17000 <_ZN22ChiFeature2RealTimeMCX20SubmitRequestHandlerEPv+0x684>
   24ecc: 82 ff ff f0  	adrp	x2, 0x17000 <_ZN22ChiFeature2RealTimeMCX20SubmitRequestHandlerEPv+0x688>
   24ed0: 65 ff ff f0  	adrp	x5, 0x13000 <_ZN22ChiFeature2RealTimeMCX20SubmitRequestHandlerEPv+0x67c>
   24efc: 48 ff ff b0  	adrp	x8, 0xd000 <_ZN22ChiFeature2RealTimeMCX20SubmitRequestHandlerEPv+0x690>
   24f14: 4a ff ff b0  	adrp	x10, 0xd000 <_ZN22ChiFeature2RealTimeMCX20SubmitRequestHandlerEPv+0x6a8>
   24f20: 61 ff ff d0  	adrp	x1, 0x12000 <_ZN22ChiFeature2RealTimeMCX20SubmitRequestHandlerEPv+0x6c8>
   24f28: a0 ff ff 90  	adrp	x0, 0x18000 <_ZN22ChiFeature2RealTimeMCX20SubmitRequestHandlerEPv+0x6e8>
   24f2c: 63 ff ff f0  	adrp	x3, 0x13000 <_ZN22ChiFeature2RealTimeMCX20SubmitRequestHandlerEPv+0x6d8>
   24f30: 45 ff ff 90  	adrp	x5, 0xc000 <_ZN22ChiFeature2RealTimeMCX20SubmitRequestHandlerEPv+0x6c0>
   24f54: a3 ca 00 94  	bl	0x579e0 <_ZN6ChiLog9LogSystemEPKcS1_S1_S1_iS1_z@plt>
   24f64: 5f cb 00 94  	bl	0x57ce0 <_ZNK15ChiFeature2Base13FlushPipelineEPK21ChiFeature2Identifierm@plt>
   24f74: 53 cb 00 94  	bl	0x57cc0 <_ZNK22ChiFeature2RealTimeMCX18DeActivatePipelineEP24ChiFeature2RequestObjectRK21ChiFeature2Identifier@plt>
   24f78: 57 00 00 b4  	cbz	x23, 0x24f80 <_ZN22ChiFeature2RealTimeMCX20SubmitRequestHandlerEPv+0x770>
   24f8c: 29 f1 ff b5  	cbnz	x9, 0x24db0 <_ZN22ChiFeature2RealTimeMCX20SubmitRequestHandlerEPv+0x5a0>
   24f90: e3 01 00 90  	adrp	x3, 0x60000 <_ZN22ChiFeature2RealTimeMCX20SubmitRequestHandlerEPv+0x870>
   24f9c: 64 05 18 36  	tbz	w4, #3, 0x25048 <_ZN22ChiFeature2RealTimeMCX20SubmitRequestHandlerEPv+0x838>
   24fa0: ec 01 00 90  	adrp	x12, 0x60000 <_ZN22ChiFeature2RealTimeMCX20SubmitRequestHandlerEPv+0x880>
   24fb0: 61 02 00 54  	b.ne	0x24ffc <_ZN22ChiFeature2RealTimeMCX20SubmitRequestHandlerEPv+0x7ec>
   24fb4: 5c ff ff b0  	adrp	x28, 0xd000 <_ZN22ChiFeature2RealTimeMCX20SubmitRequestHandlerEPv+0x748>
   24fd0: 81 ff ff f0  	adrp	x1, 0x17000 <_ZN22ChiFeature2RealTimeMCX20SubmitRequestHandlerEPv+0x78c>
   24fd4: 62 ff ff f0  	adrp	x2, 0x13000 <_ZN22ChiFeature2RealTimeMCX20SubmitRequestHandlerEPv+0x780>
   24fd8: 65 ff ff f0  	adrp	x5, 0x13000 <_ZN22ChiFeature2RealTimeMCX20SubmitRequestHandlerEPv+0x784>
   24ffc: 59 ff ff b0  	adrp	x25, 0xd000 <_ZN22ChiFeature2RealTimeMCX20SubmitRequestHandlerEPv+0x790>
   25018: 61 ff ff b0  	adrp	x1, 0x12000 <_ZN22ChiFeature2RealTimeMCX20SubmitRequestHandlerEPv+0x7bc>
   25020: 80 ff ff f0  	adrp	x0, 0x18000 <_ZN22ChiFeature2RealTimeMCX20SubmitRequestHandlerEPv+0x7dc>
   25024: 63 ff ff d0  	adrp	x3, 0x13000 <_ZN22ChiFeature2RealTimeMCX20SubmitRequestHandlerEPv+0x7cc>
   25028: 65 ff ff 90  	adrp	x5, 0x11000 <_ZN22ChiFeature2RealTimeMCX20SubmitRequestHandlerEPv+0x7c8>
   25044: 67 ca 00 94  	bl	0x579e0 <_ZN6ChiLog9LogSystemEPKcS1_S1_S1_iS1_z@plt>
   25058: 01 cc ff 54  	b.ne	0x249d8 <_ZN22ChiFeature2RealTimeMCX20SubmitRequestHandlerEPv+0x1c8>
   2505c: c9 ca 00 94  	bl	0x57b80 <_ZN15ExtensionModule11GetInstanceEv@plt>
   25064: af cb ff b4  	cbz	x15, 0x249d8 <_ZN22ChiFeature2RealTimeMCX20SubmitRequestHandlerEPv+0x1c8>
   25070: 41 cb ff 54  	b.ne	0x249d8 <_ZN22ChiFeature2RealTimeMCX20SubmitRequestHandlerEPv+0x1c8>
   25074: c6 01 00 f0  	adrp	x6, 0x60000 <_ZN22ChiFeature2RealTimeMCX20SubmitRequestHandlerEPv+0x950>
   25080: 60 05 18 36  	tbz	w0, #3, 0x2512c <_ZN22ChiFeature2RealTimeMCX20SubmitRequestHandlerEPv+0x91c>
   25084: d3 01 00 f0  	adrp	x19, 0x60000 <_ZN22ChiFeature2RealTimeMCX20SubmitRequestHandlerEPv+0x960>
   25094: 61 02 00 54  	b.ne	0x250e0 <_ZN22ChiFeature2RealTimeMCX20SubmitRequestHandlerEPv+0x8d0>
   25098: 55 ff ff 90  	adrp	x21, 0xd000 <_ZN22ChiFeature2RealTimeMCX20SubmitRequestHandlerEPv+0x828>
   250b8: 81 ff ff d0  	adrp	x1, 0x17000 <_ZN22ChiFeature2RealTimeMCX20SubmitRequestHandlerEPv+0x870>
   250bc: 62 ff ff b0  	adrp	x2, 0x12000 <_ZN22ChiFeature2RealTimeMCX20SubmitRequestHandlerEPv+0x860>
   250c0: 65 ff ff d0  	adrp	x5, 0x13000 <_ZN22ChiFeature2RealTimeMCX20SubmitRequestHandlerEPv+0x868>
   250e0: 57 ff ff 90  	adrp	x23, 0xd000 <_ZN22ChiFeature2RealTimeMCX20SubmitRequestHandlerEPv+0x870>
   25104: 80 ff ff f0  	adrp	x0, 0x18000 <_ZN22ChiFeature2RealTimeMCX20SubmitRequestHandlerEPv+0x8c0>
   25108: 61 ff ff b0  	adrp	x1, 0x12000 <_ZN22ChiFeature2RealTimeMCX20SubmitRequestHandlerEPv+0x8ac>
   2510c: 63 ff ff d0  	adrp	x3, 0x13000 <_ZN22ChiFeature2RealTimeMCX20SubmitRequestHandlerEPv+0x8b4>
   25110: 45 ff ff f0  	adrp	x5, 0x10000 <_ZN22ChiFeature2RealTimeMCX20SubmitRequestHandlerEPv+0x8ac>
   25128: 2e ca 00 94  	bl	0x579e0 <_ZN6ChiLog9LogSystemEPKcS1_S1_S1_iS1_z@plt>
   25138: da ca 00 94  	bl	0x57ca0 <_ZNK24ChiFeature2RequestObject19GetSequencePrivDataE24ChiFeature2SequenceOrderh@plt>
   2513c: 60 00 00 b4  	cbz	x0, 0x25148 <_ZN22ChiFeature2RealTimeMCX20SubmitRequestHandlerEPv+0x938>
   25144: 02 00 00 14  	b	0x2514c <_ZN22ChiFeature2RealTimeMCX20SubmitRequestHandlerEPv+0x93c>
   2515c: f9 c3 ff b4  	cbz	x25, 0x249d8 <_ZN22ChiFeature2RealTimeMCX20SubmitRequestHandlerEPv+0x1c8>
   25184: d3 ca 00 94  	bl	0x57cd0 <_ZN16CHIThreadManager7PostJobEmPvm@plt>
   25188: 14 fe ff 17  	b	0x249d8 <_ZN22ChiFeature2RealTimeMCX20SubmitRequestHandlerEPv+0x1c8>
   25190: e1 00 00 54  	b.ne	0x251ac <_ZN22ChiFeature2RealTimeMCX20SubmitRequestHandlerEPv+0x99c>
   25194: e4 fe ff 17  	b	0x24d24 <_ZN22ChiFeature2RealTimeMCX20SubmitRequestHandlerEPv+0x514>
   2519c: 04 00 00 14  	b	0x251ac <_ZN22ChiFeature2RealTimeMCX20SubmitRequestHandlerEPv+0x99c>
   251a8: e0 db ff 54  	b.eq	0x24d24 <_ZN22ChiFeature2RealTimeMCX20SubmitRequestHandlerEPv+0x514>
   251b4: 61 ff ff 54  	b.ne	0x251a0 <_ZN22ChiFeature2RealTimeMCX20SubmitRequestHandlerEPv+0x990>
   251c0: f8 ff ff 17  	b	0x251a0 <_ZN22ChiFeature2RealTimeMCX20SubmitRequestHandlerEPv+0x990>
   251c8: 9b 31 00 b4  	cbz	x27, 0x257f8 <_ZN22ChiFeature2RealTimeMCX20SubmitRequestHandlerEPv+0xfe8>
   251d8: c6 ca 00 94  	bl	0x57cf0 <_ZNK15ChiFeature2Base20SetPreviewBypassInfoEP11ChiMetadataPK31ChiFeature2UsecaseRequestObject@plt>
   251dc: 69 ca 00 94  	bl	0x57b80 <_ZN15ExtensionModule11GetInstanceEv@plt>
   25204: fc 05 00 b5  	cbnz	x28, 0x252c0 <_ZN22ChiFeature2RealTimeMCX20SubmitRequestHandlerEPv+0xab0>
   25208: c1 01 00 f0  	adrp	x1, 0x60000 <_ZN22ChiFeature2RealTimeMCX20SubmitRequestHandlerEPv+0xae4>
   25214: 78 05 30 36  	tbz	w24, #6, 0x252c0 <_ZN22ChiFeature2RealTimeMCX20SubmitRequestHandlerEPv+0xab0>
   25218: ca 01 00 f0  	adrp	x10, 0x60000 <_ZN22ChiFeature2RealTimeMCX20SubmitRequestHandlerEPv+0xaf4>
   25228: 61 02 00 54  	b.ne	0x25274 <_ZN22ChiFeature2RealTimeMCX20SubmitRequestHandlerEPv+0xa64>
   2522c: 97 ff ff 90  	adrp	x23, 0x15000 <_ZN22ChiFeature2RealTimeMCX20SubmitRequestHandlerEPv+0x9dc>
   25248: 81 ff ff d0  	adrp	x1, 0x17000 <_ZN22ChiFeature2RealTimeMCX20SubmitRequestHandlerEPv+0xa00>
   2524c: 82 ff ff d0  	adrp	x2, 0x17000 <_ZN22ChiFeature2RealTimeMCX20SubmitRequestHandlerEPv+0xa04>
   25250: 65 ff ff 90  	adrp	x5, 0x11000 <_ZN22ChiFeature2RealTimeMCX20SubmitRequestHandlerEPv+0x9f0>
   25274: 99 ff ff 90  	adrp	x25, 0x15000 <_ZN22ChiFeature2RealTimeMCX20SubmitRequestHandlerEPv+0xa24>
   25290: 41 ff ff b0  	adrp	x1, 0xe000 <_ZN22ChiFeature2RealTimeMCX20SubmitRequestHandlerEPv+0xa24>
   25298: 80 ff ff 90  	adrp	x0, 0x15000 <_ZN22ChiFeature2RealTimeMCX20SubmitRequestHandlerEPv+0xa48>
   2529c: 63 ff ff 90  	adrp	x3, 0x11000 <_ZN22ChiFeature2RealTimeMCX20SubmitRequestHandlerEPv+0xa3c>
   252a0: 45 ff ff d0  	adrp	x5, 0xf000 <_ZN22ChiFeature2RealTimeMCX20SubmitRequestHandlerEPv+0xa38>
   252bc: c9 c9 00 94  	bl	0x579e0 <_ZN6ChiLog9LogSystemEPKcS1_S1_S1_iS1_z@plt>
   252c0: 30 ca 00 94  	bl	0x57b80 <_ZN15ExtensionModule11GetInstanceEv@plt>
   252e8: bb 05 00 b5  	cbnz	x27, 0x2539c <_ZN22ChiFeature2RealTimeMCX20SubmitRequestHandlerEPv+0xb8c>
   252ec: c0 01 00 f0  	adrp	x0, 0x60000 <_ZN22ChiFeature2RealTimeMCX20SubmitRequestHandlerEPv+0xbc8>
   252f8: 34 05 30 36  	tbz	w20, #6, 0x2539c <_ZN22ChiFeature2RealTimeMCX20SubmitRequestHandlerEPv+0xb8c>
   252fc: d3 01 00 f0  	adrp	x19, 0x60000 <_ZN22ChiFeature2RealTimeMCX20SubmitRequestHandlerEPv+0xbd8>
   25300: 98 ff ff 90  	adrp	x24, 0x15000 <_ZN22ChiFeature2RealTimeMCX20SubmitRequestHandlerEPv+0xab0>
   25314: 21 02 00 54  	b.ne	0x25358 <_ZN22ChiFeature2RealTimeMCX20SubmitRequestHandlerEPv+0xb48>
   2532c: 81 ff ff d0  	adrp	x1, 0x17000 <_ZN22ChiFeature2RealTimeMCX20SubmitRequestHandlerEPv+0xae4>
   25330: 82 ff ff d0  	adrp	x2, 0x17000 <_ZN22ChiFeature2RealTimeMCX20SubmitRequestHandlerEPv+0xae8>
   25334: 65 ff ff 90  	adrp	x5, 0x11000 <_ZN22ChiFeature2RealTimeMCX20SubmitRequestHandlerEPv+0xad4>
   2536c: 41 ff ff b0  	adrp	x1, 0xe000 <_ZN22ChiFeature2RealTimeMCX20SubmitRequestHandlerEPv+0xb00>
   25374: 80 ff ff 90  	adrp	x0, 0x15000 <_ZN22ChiFeature2RealTimeMCX20SubmitRequestHandlerEPv+0xb24>
   25378: 63 ff ff 90  	adrp	x3, 0x11000 <_ZN22ChiFeature2RealTimeMCX20SubmitRequestHandlerEPv+0xb18>
   2537c: 45 ff ff d0  	adrp	x5, 0xf000 <_ZN22ChiFeature2RealTimeMCX20SubmitRequestHandlerEPv+0xb14>
   25398: 92 c9 00 94  	bl	0x579e0 <_ZN6ChiLog9LogSystemEPKcS1_S1_S1_iS1_z@plt>
   253a0: 3c 0e 00 b4  	cbz	x28, 0x25564 <_ZN22ChiFeature2RealTimeMCX20SubmitRequestHandlerEPv+0xd54>
   253a8: f5 0d 00 34  	cbz	w21, 0x25564 <_ZN22ChiFeature2RealTimeMCX20SubmitRequestHandlerEPv+0xd54>
   253ac: 9b 00 00 b4  	cbz	x27, 0x253bc <_ZN22ChiFeature2RealTimeMCX20SubmitRequestHandlerEPv+0xbac>
   253b8: 60 0d 00 54  	b.eq	0x25564 <_ZN22ChiFeature2RealTimeMCX20SubmitRequestHandlerEPv+0xd54>
   253c4: d8 00 00 b4  	cbz	x24, 0x253dc <_ZN22ChiFeature2RealTimeMCX20SubmitRequestHandlerEPv+0xbcc>
   253c8: b9 00 00 b4  	cbz	x25, 0x253dc <_ZN22ChiFeature2RealTimeMCX20SubmitRequestHandlerEPv+0xbcc>
   253d8: 4a ca 00 94  	bl	0x57d00 <_ZN16CHIThreadManager16GetAllPostedJobsEmRNSt3__16vectorIPvNS0_9allocatorIS2_EEEE@plt>
   253e4: 00 0c 00 54  	b.eq	0x25564 <_ZN22ChiFeature2RealTimeMCX20SubmitRequestHandlerEPv+0xd54>
   25408: 22 ca 00 94  	bl	0x57c90 <_ZNK24ChiFeature2RequestObject23GetUsecaseRequestObjectEv@plt>
   25414: 01 01 00 54  	b.ne	0x25434 <_ZN22ChiFeature2RealTimeMCX20SubmitRequestHandlerEPv+0xc24>
   2542c: 23 fe ff 54  	b.lo	0x253f0 <_ZN22ChiFeature2RealTimeMCX20SubmitRequestHandlerEPv+0xbe0>
   25430: 4d 00 00 14  	b	0x25564 <_ZN22ChiFeature2RealTimeMCX20SubmitRequestHandlerEPv+0xd54>
   2544c: 31 ca 00 94  	bl	0x57d10 <_ZNK22ChiFeature2RealTimeMCX21AreRequestsCompatibleEhPP18ChiPipelineRequest@plt>
   25454: 81 08 00 54  	b.ne	0x25564 <_ZN22ChiFeature2RealTimeMCX20SubmitRequestHandlerEPv+0xd54>
   25458: db 01 00 f0  	adrp	x27, 0x60000 <_ZN22ChiFeature2RealTimeMCX20SubmitRequestHandlerEPv+0xd34>
   25464: 73 06 18 36  	tbz	w19, #3, 0x25530 <_ZN22ChiFeature2RealTimeMCX20SubmitRequestHandlerEPv+0xd20>
   25468: ce 01 00 f0  	adrp	x14, 0x60000 <_ZN22ChiFeature2RealTimeMCX20SubmitRequestHandlerEPv+0xd44>
   25478: e1 02 00 54  	b.ne	0x254d4 <_ZN22ChiFeature2RealTimeMCX20SubmitRequestHandlerEPv+0xcc4>
   2547c: 5a ff ff 90  	adrp	x26, 0xd000 <_ZN22ChiFeature2RealTimeMCX20SubmitRequestHandlerEPv+0xc0c>
   2549c: 81 ff ff d0  	adrp	x1, 0x17000 <_ZN22ChiFeature2RealTimeMCX20SubmitRequestHandlerEPv+0xc54>
   254a0: 42 ff ff d0  	adrp	x2, 0xf000 <_ZN22ChiFeature2RealTimeMCX20SubmitRequestHandlerEPv+0xc38>
   254a4: 65 ff ff d0  	adrp	x5, 0x13000 <_ZN22ChiFeature2RealTimeMCX20SubmitRequestHandlerEPv+0xc4c>
   254d4: 54 ff ff 90  	adrp	x20, 0xd000 <_ZN22ChiFeature2RealTimeMCX20SubmitRequestHandlerEPv+0xc64>
   254f4: 61 ff ff b0  	adrp	x1, 0x12000 <_ZN22ChiFeature2RealTimeMCX20SubmitRequestHandlerEPv+0xc98>
   254fc: 80 ff ff f0  	adrp	x0, 0x18000 <_ZN22ChiFeature2RealTimeMCX20SubmitRequestHandlerEPv+0xcb8>
   25500: 63 ff ff d0  	adrp	x3, 0x13000 <_ZN22ChiFeature2RealTimeMCX20SubmitRequestHandlerEPv+0xca8>
   25504: 25 ff ff f0  	adrp	x5, 0xc000 <_ZN22ChiFeature2RealTimeMCX20SubmitRequestHandlerEPv+0xc90>
   2552c: 2d c9 00 94  	bl	0x579e0 <_ZN6ChiLog9LogSystemEPKcS1_S1_S1_iS1_z@plt>
   2553c: f9 c9 00 94  	bl	0x57d20 <_ZNK22ChiFeature2RealTimeMCX21MergePipelineRequestsEhPP18ChiPipelineRequest@plt>
   25554: f7 c9 00 94  	bl	0x57d30 <_ZN16CHIThreadManager9RemoveJobEmPv@plt>
   25564: 87 c9 00 94  	bl	0x57b80 <_ZN15ExtensionModule11GetInstanceEv@plt>
   2556c: 78 14 00 b4  	cbz	x24, 0x257f8 <_ZN22ChiFeature2RealTimeMCX20SubmitRequestHandlerEPv+0xfe8>
   25578: 01 14 00 54  	b.ne	0x257f8 <_ZN22ChiFeature2RealTimeMCX20SubmitRequestHandlerEPv+0xfe8>
   2557c: 81 c9 00 94  	bl	0x57b80 <_ZN15ExtensionModule11GetInstanceEv@plt>
   25584: 74 00 00 b4  	cbz	x20, 0x25590 <_ZN22ChiFeature2RealTimeMCX20SubmitRequestHandlerEPv+0xd80>
   2558c: 7a 13 00 35  	cbnz	w26, 0x257f8 <_ZN22ChiFeature2RealTimeMCX20SubmitRequestHandlerEPv+0xfe8>
   25594: 39 13 00 b4  	cbz	x25, 0x257f8 <_ZN22ChiFeature2RealTimeMCX20SubmitRequestHandlerEPv+0xfe8>
   255a4: aa 12 00 34  	cbz	w10, 0x257f8 <_ZN22ChiFeature2RealTimeMCX20SubmitRequestHandlerEPv+0xfe8>
   255b4: 17 00 00 14  	b	0x25610 <_ZN22ChiFeature2RealTimeMCX20SubmitRequestHandlerEPv+0xe00>
   255b8: 58 ff ff 90  	adrp	x24, 0xd000 <_ZN22ChiFeature2RealTimeMCX20SubmitRequestHandlerEPv+0xd48>
   255d4: 81 ff ff d0  	adrp	x1, 0x17000 <_ZN22ChiFeature2RealTimeMCX20SubmitRequestHandlerEPv+0xd8c>
   255dc: 40 ff ff 90  	adrp	x0, 0xd000 <_ZN22ChiFeature2RealTimeMCX20SubmitRequestHandlerEPv+0xd6c>
   255e0: 63 ff ff d0  	adrp	x3, 0x13000 <_ZN22ChiFeature2RealTimeMCX20SubmitRequestHandlerEPv+0xd88>
   255e4: 45 ff ff f0  	adrp	x5, 0x10000 <_ZN22ChiFeature2RealTimeMCX20SubmitRequestHandlerEPv+0xd80>
   255fc: f9 c8 00 94  	bl	0x579e0 <_ZN6ChiLog9LogSystemEPKcS1_S1_S1_iS1_z@plt>
   2560c: 69 0f 00 54  	b.ls	0x257f8 <_ZN22ChiFeature2RealTimeMCX20SubmitRequestHandlerEPv+0xfe8>
   2563c: a2 01 00 54  	b.hs	0x25670 <_ZN22ChiFeature2RealTimeMCX20SubmitRequestHandlerEPv+0xe60>
   25644: 65 01 00 b4  	cbz	x5, 0x25670 <_ZN22ChiFeature2RealTimeMCX20SubmitRequestHandlerEPv+0xe60>
   25658: c2 00 00 54  	b.hs	0x25670 <_ZN22ChiFeature2RealTimeMCX20SubmitRequestHandlerEPv+0xe60>
   25660: 98 00 00 b4  	cbz	x24, 0x25670 <_ZN22ChiFeature2RealTimeMCX20SubmitRequestHandlerEPv+0xe60>
   2566c: 2f 00 00 14  	b	0x25728 <_ZN22ChiFeature2RealTimeMCX20SubmitRequestHandlerEPv+0xf18>
   25670: d8 01 00 f0  	adrp	x24, 0x60000 <_ZN22ChiFeature2RealTimeMCX20SubmitRequestHandlerEPv+0xf4c>
   2567c: 2e fc 07 36  	tbz	w14, #0, 0x25600 <_ZN22ChiFeature2RealTimeMCX20SubmitRequestHandlerEPv+0xdf0>
   25680: cd 01 00 f0  	adrp	x13, 0x60000 <_ZN22ChiFeature2RealTimeMCX20SubmitRequestHandlerEPv+0xf5c>
   25690: 41 f9 ff 54  	b.ne	0x255b8 <_ZN22ChiFeature2RealTimeMCX20SubmitRequestHandlerEPv+0xda8>
   25694: 5b ff ff 90  	adrp	x27, 0xd000 <_ZN22ChiFeature2RealTimeMCX20SubmitRequestHandlerEPv+0xe24>
   256b0: 81 ff ff d0  	adrp	x1, 0x17000 <_ZN22ChiFeature2RealTimeMCX20SubmitRequestHandlerEPv+0xe68>
   256b4: 42 ff ff b0  	adrp	x2, 0xe000 <_ZN22ChiFeature2RealTimeMCX20SubmitRequestHandlerEPv+0xe48>
   256b8: 65 ff ff d0  	adrp	x5, 0x13000 <_ZN22ChiFeature2RealTimeMCX20SubmitRequestHandlerEPv+0xe60>
   256d8: b8 ff ff 17  	b	0x255b8 <_ZN22ChiFeature2RealTimeMCX20SubmitRequestHandlerEPv+0xda8>
   256dc: 73 ff ff b0  	adrp	x19, 0x12000 <_ZN22ChiFeature2RealTimeMCX20SubmitRequestHandlerEPv+0xe80>
   256f8: 81 ff ff d0  	adrp	x1, 0x17000 <_ZN22ChiFeature2RealTimeMCX20SubmitRequestHandlerEPv+0xeb0>
   25700: 40 ff ff 90  	adrp	x0, 0xd000 <_ZN22ChiFeature2RealTimeMCX20SubmitRequestHandlerEPv+0xe90>
   25704: 43 ff ff f0  	adrp	x3, 0x10000 <_ZN22ChiFeature2RealTimeMCX20SubmitRequestHandlerEPv+0xea0>
   25708: 85 ff ff d0  	adrp	x5, 0x17000 <_ZN22ChiFeature2RealTimeMCX20SubmitRequestHandlerEPv+0xec0>
   25720: b0 c8 00 94  	bl	0x579e0 <_ZN6ChiLog9LogSystemEPKcS1_S1_S1_iS1_z@plt>
   2572c: a0 f6 ff 54  	b.eq	0x25600 <_ZN22ChiFeature2RealTimeMCX20SubmitRequestHandlerEPv+0xdf0>
   2573c: 41 ff ff 54  	b.ne	0x25724 <_ZN22ChiFeature2RealTimeMCX20SubmitRequestHandlerEPv+0xf14>
   25740: 10 c9 00 94  	bl	0x57b80 <_ZN15ExtensionModule11GetInstanceEv@plt>
   25748: 31 02 00 b4  	cbz	x17, 0x2578c <_ZN22ChiFeature2RealTimeMCX20SubmitRequestHandlerEPv+0xf7c>
   25754: cc 01 00 34  	cbz	w12, 0x2578c <_ZN22ChiFeature2RealTimeMCX20SubmitRequestHandlerEPv+0xf7c>
   2575c: 48 fe ff 54  	b.hi	0x25724 <_ZN22ChiFeature2RealTimeMCX20SubmitRequestHandlerEPv+0xf14>
   25768: e1 fd ff 54  	b.ne	0x25724 <_ZN22ChiFeature2RealTimeMCX20SubmitRequestHandlerEPv+0xf14>
   25778: aa c8 00 94  	bl	0x57a20 <_ZN16CHIThreadManager4SyncEmj@plt>
   25780: 00 c9 00 94  	bl	0x57b80 <_ZN15ExtensionModule11GetInstanceEv@plt>
   25788: 51 fe ff b5  	cbnz	x17, 0x25750 <_ZN22ChiFeature2RealTimeMCX20SubmitRequestHandlerEPv+0xf40>
   2578c: c7 01 00 f0  	adrp	x7, 0x60000 <_ZN22ChiFeature2RealTimeMCX20SubmitRequestHandlerEPv+0x1068>
   25798: 6d fc 07 36  	tbz	w13, #0, 0x25724 <_ZN22ChiFeature2RealTimeMCX20SubmitRequestHandlerEPv+0xf14>
   2579c: cb 01 00 f0  	adrp	x11, 0x60000 <_ZN22ChiFeature2RealTimeMCX20SubmitRequestHandlerEPv+0x1078>
   257ac: 81 f9 ff 54  	b.ne	0x256dc <_ZN22ChiFeature2RealTimeMCX20SubmitRequestHandlerEPv+0xecc>
   257b0: 73 ff ff b0  	adrp	x19, 0x12000 <_ZN22ChiFeature2RealTimeMCX20SubmitRequestHandlerEPv+0xf54>
   257cc: 81 ff ff d0  	adrp	x1, 0x17000 <_ZN22ChiFeature2RealTimeMCX20SubmitRequestHandlerEPv+0xf84>
   257d0: 42 ff ff d0  	adrp	x2, 0xf000 <_ZN22ChiFeature2RealTimeMCX20SubmitRequestHandlerEPv+0xf68>
   257d4: 45 ff ff f0  	adrp	x5, 0x10000 <_ZN22ChiFeature2RealTimeMCX20SubmitRequestHandlerEPv+0xf70>
   257f4: ba ff ff 17  	b	0x256dc <_ZN22ChiFeature2RealTimeMCX20SubmitRequestHandlerEPv+0xecc>
   257f8: c9 01 00 f0  	adrp	x9, 0x60000 <_ZN22ChiFeature2RealTimeMCX20SubmitRequestHandlerEPv+0x10d4>
   2580c: 6f 06 18 36  	tbz	w15, #3, 0x258d8 <_ZN22ChiFeature2RealTimeMCX20SubmitRequestHandlerEPv+0x10c8>
   25810: c0 01 00 f0  	adrp	x0, 0x60000 <_ZN22ChiFeature2RealTimeMCX20SubmitRequestHandlerEPv+0x10ec>
   25824: c1 02 00 54  	b.ne	0x2587c <_ZN22ChiFeature2RealTimeMCX20SubmitRequestHandlerEPv+0x106c>
   25828: 5c ff ff 90  	adrp	x28, 0xd000 <_ZN22ChiFeature2RealTimeMCX20SubmitRequestHandlerEPv+0xfb8>
   2584c: 82 ff ff f0  	adrp	x2, 0x18000 <_ZN22ChiFeature2RealTimeMCX20SubmitRequestHandlerEPv+0x1008>
   25850: 65 ff ff d0  	adrp	x5, 0x13000 <_ZN22ChiFeature2RealTimeMCX20SubmitRequestHandlerEPv+0xff8>
   25864: 81 ff ff d0  	adrp	x1, 0x17000 <_ZN22ChiFeature2RealTimeMCX20SubmitRequestHandlerEPv+0x101c>
   2587c: 59 ff ff 90  	adrp	x25, 0xd000 <_ZN22ChiFeature2RealTimeMCX20SubmitRequestHandlerEPv+0x100c>
   258a4: 80 ff ff f0  	adrp	x0, 0x18000 <_ZN22ChiFeature2RealTimeMCX20SubmitRequestHandlerEPv+0x1060>
   258a8: 61 ff ff b0  	adrp	x1, 0x12000 <_ZN22ChiFeature2RealTimeMCX20SubmitRequestHandlerEPv+0x104c>
   258ac: 63 ff ff d0  	adrp	x3, 0x13000 <_ZN22ChiFeature2RealTimeMCX20SubmitRequestHandlerEPv+0x1054>
   258b0: 85 ff ff f0  	adrp	x5, 0x18000 <_ZN22ChiFeature2RealTimeMCX20SubmitRequestHandlerEPv+0x106c>
   258d0: 44 c8 00 94  	bl	0x579e0 <_ZN6ChiLog9LogSystemEPKcS1_S1_S1_iS1_z@plt>
   258dc: 70 0d 00 34  	cbz	w16, 0x25a88 <_ZN22ChiFeature2RealTimeMCX20SubmitRequestHandlerEPv+0x1278>
   258e0: d3 01 00 f0  	adrp	x19, 0x60000 <_ZN22ChiFeature2RealTimeMCX20SubmitRequestHandlerEPv+0x11bc>
   258f4: 25 00 00 14  	b	0x25988 <_ZN22ChiFeature2RealTimeMCX20SubmitRequestHandlerEPv+0x1178>
   258f8: 55 ff ff 90  	adrp	x21, 0xd000 <_ZN22ChiFeature2RealTimeMCX20SubmitRequestHandlerEPv+0x1088>
   25924: 60 ff ff f0  	adrp	x0, 0x14000 <_ZN22ChiFeature2RealTimeMCX20SubmitRequestHandlerEPv+0x10d0>
   25928: 41 ff ff d0  	adrp	x1, 0xf000 <_ZN22ChiFeature2RealTimeMCX20SubmitRequestHandlerEPv+0x10c0>
   2592c: 63 ff ff d0  	adrp	x3, 0x13000 <_ZN22ChiFeature2RealTimeMCX20SubmitRequestHandlerEPv+0x10d4>
   25930: 85 ff ff b0  	adrp	x5, 0x16000 <_ZN22ChiFeature2RealTimeMCX20SubmitRequestHandlerEPv+0x10e4>
   25948: 26 c8 00 94  	bl	0x579e0 <_ZN6ChiLog9LogSystemEPKcS1_S1_S1_iS1_z@plt>
   2594c: d3 01 00 f0  	adrp	x19, 0x60000 <_ZN22ChiFeature2RealTimeMCX20SubmitRequestHandlerEPv+0x1228>
   25960: d8 c8 00 94  	bl	0x57cc0 <_ZNK22ChiFeature2RealTimeMCX18DeActivatePipelineEP24ChiFeature2RequestObjectRK21ChiFeature2Identifier@plt>
   25984: 22 08 00 54  	b.hs	0x25a88 <_ZN22ChiFeature2RealTimeMCX20SubmitRequestHandlerEPv+0x1278>
   259a4: 81 fe ff 54  	b.ne	0x25974 <_ZN22ChiFeature2RealTimeMCX20SubmitRequestHandlerEPv+0x1164>
   259c8: 60 fd ff 54  	b.eq	0x25974 <_ZN22ChiFeature2RealTimeMCX20SubmitRequestHandlerEPv+0x1164>
   259d0: 22 fd ff b4  	cbz	x2, 0x25974 <_ZN22ChiFeature2RealTimeMCX20SubmitRequestHandlerEPv+0x1164>
   259e4: 82 fc ff 54  	b.hs	0x25974 <_ZN22ChiFeature2RealTimeMCX20SubmitRequestHandlerEPv+0x1164>
   259ec: 5a fc ff b4  	cbz	x26, 0x25974 <_ZN22ChiFeature2RealTimeMCX20SubmitRequestHandlerEPv+0x1164>
   259f4: 06 fc ff b4  	cbz	x6, 0x25974 <_ZN22ChiFeature2RealTimeMCX20SubmitRequestHandlerEPv+0x1164>
   259fc: d9 fb ff b4  	cbz	x25, 0x25974 <_ZN22ChiFeature2RealTimeMCX20SubmitRequestHandlerEPv+0x1164>
   25a0c: c3 fa ff 35  	cbnz	w3, 0x25964 <_ZN22ChiFeature2RealTimeMCX20SubmitRequestHandlerEPv+0x1154>
   25a18: 61 fa ff 54  	b.ne	0x25964 <_ZN22ChiFeature2RealTimeMCX20SubmitRequestHandlerEPv+0x1154>
   25a1c: cf 01 00 f0  	adrp	x15, 0x60000 <_ZN22ChiFeature2RealTimeMCX20SubmitRequestHandlerEPv+0x12f8>
   25a28: 65 f9 0f 36  	tbz	w5, #1, 0x25954 <_ZN22ChiFeature2RealTimeMCX20SubmitRequestHandlerEPv+0x1144>
   25a34: 21 f6 ff 54  	b.ne	0x258f8 <_ZN22ChiFeature2RealTimeMCX20SubmitRequestHandlerEPv+0x10e8>
   25a38: 55 ff ff 90  	adrp	x21, 0xd000 <_ZN22ChiFeature2RealTimeMCX20SubmitRequestHandlerEPv+0x11c8>
   25a5c: 81 ff ff d0  	adrp	x1, 0x17000 <_ZN22ChiFeature2RealTimeMCX20SubmitRequestHandlerEPv+0x1214>
   25a60: 42 ff ff 90  	adrp	x2, 0xd000 <_ZN22ChiFeature2RealTimeMCX20SubmitRequestHandlerEPv+0x11f0>
   25a64: 65 ff ff d0  	adrp	x5, 0x13000 <_ZN22ChiFeature2RealTimeMCX20SubmitRequestHandlerEPv+0x120c>
   25a84: 9d ff ff 17  	b	0x258f8 <_ZN22ChiFeature2RealTimeMCX20SubmitRequestHandlerEPv+0x10e8>
   25a8c: ad c8 00 94  	bl	0x57d40 <_ZNK15ChiFeature2Base24OnSubmitRequestToSessionEP18ChiPipelineRequest@plt>
   25a94: 20 04 00 34  	cbz	w0, 0x25b18 <_ZN22ChiFeature2RealTimeMCX20SubmitRequestHandlerEPv+0x1308>
   25ab0: 7c c8 00 94  	bl	0x57ca0 <_ZNK24ChiFeature2RequestObject19GetSequencePrivDataE24ChiFeature2SequenceOrderh@plt>
   25ad8: 60 00 00 b4  	cbz	x0, 0x25ae4 <_ZN22ChiFeature2RealTimeMCX20SubmitRequestHandlerEPv+0x12d4>
   25ae0: 02 00 00 14  	b	0x25ae8 <_ZN22ChiFeature2RealTimeMCX20SubmitRequestHandlerEPv+0x12d8>
   25b08: 82 00 00 b4  	cbz	x2, 0x25b18 <_ZN22ChiFeature2RealTimeMCX20SubmitRequestHandlerEPv+0x1308>
   25b14: 8f c8 00 94  	bl	0x57d50 <_ZNK15ChiFeature2Base18HandleRequestErrorEPK20ChiMessageDescriptorPNS_27ChiFeatureFrameCallbackDataE@plt>
   25b24: 60 00 00 b4  	cbz	x0, 0x25b30 <_ZN22ChiFeature2RealTimeMCX20SubmitRequestHandlerEPv+0x1320>
   25b34: 60 00 00 b4  	cbz	x0, 0x25b40 <_ZN22ChiFeature2RealTimeMCX20SubmitRequestHandlerEPv+0x1330>
   25b44: 60 00 00 b4  	cbz	x0, 0x25b50 <_ZN22ChiFeature2RealTimeMCX20SubmitRequestHandlerEPv+0x1340>
   25b5c: 41 01 00 54  	b.ne	0x25b84 <_ZN22ChiFeature2RealTimeMCX20SubmitRequestHandlerEPv+0x1374>
0000000000025b88 <_ZN22ChiFeature2RealTimeMCX35ParallelPipelineDeactivationHandlerEPv>:
   25b88: 60 1b 00 b4  	cbz	x0, 0x25ef4 <_ZN22ChiFeature2RealTimeMCX35ParallelPipelineDeactivationHandlerEPv+0x36c>
   25bbc: a2 12 00 54  	b.hs	0x25e10 <_ZN22ChiFeature2RealTimeMCX35ParallelPipelineDeactivationHandlerEPv+0x288>
   25bc4: 68 12 00 b4  	cbz	x8, 0x25e10 <_ZN22ChiFeature2RealTimeMCX35ParallelPipelineDeactivationHandlerEPv+0x288>
   25bd8: c2 11 00 54  	b.hs	0x25e10 <_ZN22ChiFeature2RealTimeMCX35ParallelPipelineDeactivationHandlerEPv+0x288>
   25be0: 96 11 00 b4  	cbz	x22, 0x25e10 <_ZN22ChiFeature2RealTimeMCX35ParallelPipelineDeactivationHandlerEPv+0x288>
   25bf0: d7 01 00 f0  	adrp	x23, 0x60000 <_ZN22ChiFeature2RealTimeMCX35ParallelPipelineDeactivationHandlerEPv+0x154>
   25bfc: 68 05 28 36  	tbz	w8, #5, 0x25ca8 <_ZN22ChiFeature2RealTimeMCX35ParallelPipelineDeactivationHandlerEPv+0x120>
   25c00: c1 01 00 f0  	adrp	x1, 0x60000 <_ZN22ChiFeature2RealTimeMCX35ParallelPipelineDeactivationHandlerEPv+0x164>
   25c10: 61 02 00 54  	b.ne	0x25c5c <_ZN22ChiFeature2RealTimeMCX35ParallelPipelineDeactivationHandlerEPv+0xd4>
   25c14: 55 ff ff 90  	adrp	x21, 0xd000 <_ZN22ChiFeature2RealTimeMCX35ParallelPipelineDeactivationHandlerEPv+0x2c>
   25c34: 81 ff ff d0  	adrp	x1, 0x17000 <_ZN22ChiFeature2RealTimeMCX35ParallelPipelineDeactivationHandlerEPv+0x74>
   25c38: 82 ff ff 90  	adrp	x2, 0x15000 <_ZN22ChiFeature2RealTimeMCX35ParallelPipelineDeactivationHandlerEPv+0x70>
   25c3c: 85 ff ff f0  	adrp	x5, 0x18000 <_ZN22ChiFeature2RealTimeMCX35ParallelPipelineDeactivationHandlerEPv+0x80>
   25c5c: 55 ff ff 90  	adrp	x21, 0xd000 <_ZN22ChiFeature2RealTimeMCX35ParallelPipelineDeactivationHandlerEPv+0x74>
   25c80: 80 ff ff d0  	adrp	x0, 0x17000 <_ZN22ChiFeature2RealTimeMCX35ParallelPipelineDeactivationHandlerEPv+0xc0>
   25c84: 61 ff ff d0  	adrp	x1, 0x13000 <_ZN22ChiFeature2RealTimeMCX35ParallelPipelineDeactivationHandlerEPv+0xb4>
   25c88: 83 ff ff f0  	adrp	x3, 0x18000 <_ZN22ChiFeature2RealTimeMCX35ParallelPipelineDeactivationHandlerEPv+0xcc>
   25c8c: 45 ff ff f0  	adrp	x5, 0x10000 <_ZN22ChiFeature2RealTimeMCX35ParallelPipelineDeactivationHandlerEPv+0xb0>
   25ca4: 4f c7 00 94  	bl	0x579e0 <_ZN6ChiLog9LogSystemEPKcS1_S1_S1_iS1_z@plt>
   25cac: a2 06 00 54  	b.hs	0x25d80 <_ZN22ChiFeature2RealTimeMCX35ParallelPipelineDeactivationHandlerEPv+0x1f8>
   25cb4: ea 05 18 36  	tbz	w10, #3, 0x25d70 <_ZN22ChiFeature2RealTimeMCX35ParallelPipelineDeactivationHandlerEPv+0x1e8>
   25cb8: c2 01 00 f0  	adrp	x2, 0x60000 <_ZN22ChiFeature2RealTimeMCX35ParallelPipelineDeactivationHandlerEPv+0x21c>
   25cc8: a1 02 00 54  	b.ne	0x25d1c <_ZN22ChiFeature2RealTimeMCX35ParallelPipelineDeactivationHandlerEPv+0x194>
   25ccc: 55 ff ff 90  	adrp	x21, 0xd000 <_ZN22ChiFeature2RealTimeMCX35ParallelPipelineDeactivationHandlerEPv+0xe4>
   25cec: 81 ff ff d0  	adrp	x1, 0x17000 <_ZN22ChiFeature2RealTimeMCX35ParallelPipelineDeactivationHandlerEPv+0x12c>
   25cf0: 82 ff ff f0  	adrp	x2, 0x18000 <_ZN22ChiFeature2RealTimeMCX35ParallelPipelineDeactivationHandlerEPv+0x134>
   25cf4: 85 ff ff f0  	adrp	x5, 0x18000 <_ZN22ChiFeature2RealTimeMCX35ParallelPipelineDeactivationHandlerEPv+0x138>
   25d1c: 55 ff ff 90  	adrp	x21, 0xd000 <_ZN22ChiFeature2RealTimeMCX35ParallelPipelineDeactivationHandlerEPv+0x134>
   25d40: 80 ff ff f0  	adrp	x0, 0x18000 <_ZN22ChiFeature2RealTimeMCX35ParallelPipelineDeactivationHandlerEPv+0x184>
   25d44: 61 ff ff b0  	adrp	x1, 0x12000 <_ZN22ChiFeature2RealTimeMCX35ParallelPipelineDeactivationHandlerEPv+0x170>
   25d48: 83 ff ff f0  	adrp	x3, 0x18000 <_ZN22ChiFeature2RealTimeMCX35ParallelPipelineDeactivationHandlerEPv+0x18c>
   25d4c: 45 ff ff d0  	adrp	x5, 0xf000 <_ZN22ChiFeature2RealTimeMCX35ParallelPipelineDeactivationHandlerEPv+0x16c>
   25d6c: 1d c7 00 94  	bl	0x579e0 <_ZN6ChiLog9LogSystemEPKcS1_S1_S1_iS1_z@plt>
   25d7c: d9 c7 00 94  	bl	0x57ce0 <_ZNK15ChiFeature2Base13FlushPipelineEPK21ChiFeature2Identifierm@plt>
   25d8c: cd c7 00 94  	bl	0x57cc0 <_ZNK22ChiFeature2RealTimeMCX18DeActivatePipelineEP24ChiFeature2RequestObjectRK21ChiFeature2Identifier@plt>
   25da0: 20 0b 00 54  	b.eq	0x25f04 <_ZN22ChiFeature2RealTimeMCX35ParallelPipelineDeactivationHandlerEPv+0x37c>
   25db4: 70 10 00 b4  	cbz	x16, 0x25fc0 <_ZN22ChiFeature2RealTimeMCX35ParallelPipelineDeactivationHandlerEPv+0x438>
   25dcc: 05 00 00 14  	b	0x25de0 <_ZN22ChiFeature2RealTimeMCX35ParallelPipelineDeactivationHandlerEPv+0x258>
   25ddc: 00 09 00 54  	b.eq	0x25efc <_ZN22ChiFeature2RealTimeMCX35ParallelPipelineDeactivationHandlerEPv+0x374>
   25dec: 80 00 00 54  	b.eq	0x25dfc <_ZN22ChiFeature2RealTimeMCX35ParallelPipelineDeactivationHandlerEPv+0x274>
   25df4: e1 fe ff 54  	b.ne	0x25dd0 <_ZN22ChiFeature2RealTimeMCX35ParallelPipelineDeactivationHandlerEPv+0x248>
   25df8: 04 00 00 14  	b	0x25e08 <_ZN22ChiFeature2RealTimeMCX35ParallelPipelineDeactivationHandlerEPv+0x280>
   25e04: 61 fe ff 54  	b.ne	0x25dd0 <_ZN22ChiFeature2RealTimeMCX35ParallelPipelineDeactivationHandlerEPv+0x248>
   25e0c: f1 ff ff 17  	b	0x25dd0 <_ZN22ChiFeature2RealTimeMCX35ParallelPipelineDeactivationHandlerEPv+0x248>
   25e10: c0 01 00 f0  	adrp	x0, 0x60000 <_ZN22ChiFeature2RealTimeMCX35ParallelPipelineDeactivationHandlerEPv+0x374>
   25e1c: ed 05 00 36  	tbz	w13, #0, 0x25ed8 <_ZN22ChiFeature2RealTimeMCX35ParallelPipelineDeactivationHandlerEPv+0x350>
   25e20: d6 01 00 f0  	adrp	x22, 0x60000 <_ZN22ChiFeature2RealTimeMCX35ParallelPipelineDeactivationHandlerEPv+0x384>
   25e24: 54 ff ff 90  	adrp	x20, 0xd000 <_ZN22ChiFeature2RealTimeMCX35ParallelPipelineDeactivationHandlerEPv+0x23c>
   25e38: 81 02 00 54  	b.ne	0x25e88 <_ZN22ChiFeature2RealTimeMCX35ParallelPipelineDeactivationHandlerEPv+0x300>
   25e58: 81 ff ff d0  	adrp	x1, 0x17000 <_ZN22ChiFeature2RealTimeMCX35ParallelPipelineDeactivationHandlerEPv+0x298>
   25e60: 82 ff ff d0  	adrp	x2, 0x17000 <_ZN22ChiFeature2RealTimeMCX35ParallelPipelineDeactivationHandlerEPv+0x2a0>
   25e64: 85 ff ff f0  	adrp	x5, 0x18000 <_ZN22ChiFeature2RealTimeMCX35ParallelPipelineDeactivationHandlerEPv+0x2a8>
   25eac: 40 ff ff 90  	adrp	x0, 0xd000 <_ZN22ChiFeature2RealTimeMCX35ParallelPipelineDeactivationHandlerEPv+0x2c4>
   25eb0: 81 ff ff d0  	adrp	x1, 0x17000 <_ZN22ChiFeature2RealTimeMCX35ParallelPipelineDeactivationHandlerEPv+0x2f0>
   25eb4: 83 ff ff f0  	adrp	x3, 0x18000 <_ZN22ChiFeature2RealTimeMCX35ParallelPipelineDeactivationHandlerEPv+0x2f8>
   25eb8: 85 ff ff d0  	adrp	x5, 0x17000 <_ZN22ChiFeature2RealTimeMCX35ParallelPipelineDeactivationHandlerEPv+0x2f8>
   25ed4: c3 c6 00 94  	bl	0x579e0 <_ZN6ChiLog9LogSystemEPKcS1_S1_S1_iS1_z@plt>
   25f00: a1 06 00 54  	b.ne	0x25fd4 <_ZN22ChiFeature2RealTimeMCX35ParallelPipelineDeactivationHandlerEPv+0x44c>
   25f10: 4b fe 2f 36  	tbz	w11, #5, 0x25ed8 <_ZN22ChiFeature2RealTimeMCX35ParallelPipelineDeactivationHandlerEPv+0x350>
   25f14: c7 01 00 f0  	adrp	x7, 0x60000 <_ZN22ChiFeature2RealTimeMCX23PipelineActivateHandlerEPv+0x18>
   25f24: 61 02 00 54  	b.ne	0x25f70 <_ZN22ChiFeature2RealTimeMCX35ParallelPipelineDeactivationHandlerEPv+0x3e8>
   25f28: 54 ff ff 90  	adrp	x20, 0xd000 <_ZN22ChiFeature2RealTimeMCX35ParallelPipelineDeactivationHandlerEPv+0x340>
   25f48: 81 ff ff d0  	adrp	x1, 0x17000 <_ZN22ChiFeature2RealTimeMCX35ParallelPipelineDeactivationHandlerEPv+0x388>
   25f4c: 82 ff ff 90  	adrp	x2, 0x15000 <_ZN22ChiFeature2RealTimeMCX35ParallelPipelineDeactivationHandlerEPv+0x384>
   25f50: 85 ff ff f0  	adrp	x5, 0x18000 <_ZN22ChiFeature2RealTimeMCX35ParallelPipelineDeactivationHandlerEPv+0x394>
   25f70: 55 ff ff 90  	adrp	x21, 0xd000 <_ZN22ChiFeature2RealTimeMCX35ParallelPipelineDeactivationHandlerEPv+0x388>
   25f94: 80 ff ff d0  	adrp	x0, 0x17000 <_ZN22ChiFeature2RealTimeMCX35ParallelPipelineDeactivationHandlerEPv+0x3d4>
   25f98: 61 ff ff d0  	adrp	x1, 0x13000 <_ZN22ChiFeature2RealTimeMCX35ParallelPipelineDeactivationHandlerEPv+0x3c8>
   25f9c: 83 ff ff f0  	adrp	x3, 0x18000 <_ZN22ChiFeature2RealTimeMCX35ParallelPipelineDeactivationHandlerEPv+0x3e0>
   25fa0: 85 ff ff 90  	adrp	x5, 0x15000 <_ZN22ChiFeature2RealTimeMCX35ParallelPipelineDeactivationHandlerEPv+0x3d8>
   25fb8: 8a c6 00 94  	bl	0x579e0 <_ZN6ChiLog9LogSystemEPKcS1_S1_S1_iS1_z@plt>
   25fbc: c7 ff ff 17  	b	0x25ed8 <_ZN22ChiFeature2RealTimeMCX35ParallelPipelineDeactivationHandlerEPv+0x350>
   25fc4: 04 00 00 14  	b	0x25fd4 <_ZN22ChiFeature2RealTimeMCX35ParallelPipelineDeactivationHandlerEPv+0x44c>
   25fd0: a0 f9 ff 54  	b.eq	0x25f04 <_ZN22ChiFeature2RealTimeMCX35ParallelPipelineDeactivationHandlerEPv+0x37c>
   25fdc: 61 ff ff 54  	b.ne	0x25fc8 <_ZN22ChiFeature2RealTimeMCX35ParallelPipelineDeactivationHandlerEPv+0x440>
   25fe4: f9 ff ff 17  	b	0x25fc8 <_ZN22ChiFeature2RealTimeMCX35ParallelPipelineDeactivationHandlerEPv+0x440>
0000000000025fe8 <_ZN22ChiFeature2RealTimeMCX23PipelineActivateHandlerEPv>:
   25fe8: c0 10 00 b4  	cbz	x0, 0x26200 <_ZN22ChiFeature2RealTimeMCX23PipelineActivateHandlerEPv+0x218>
   26018: 42 08 00 54  	b.hs	0x26120 <_ZN22ChiFeature2RealTimeMCX23PipelineActivateHandlerEPv+0x138>
   26020: 08 08 00 b4  	cbz	x8, 0x26120 <_ZN22ChiFeature2RealTimeMCX23PipelineActivateHandlerEPv+0x138>
   26034: 62 07 00 54  	b.hs	0x26120 <_ZN22ChiFeature2RealTimeMCX23PipelineActivateHandlerEPv+0x138>
   2603c: 35 07 00 b4  	cbz	x21, 0x26120 <_ZN22ChiFeature2RealTimeMCX23PipelineActivateHandlerEPv+0x138>
   26050: 44 c7 00 94  	bl	0x57d60 <_ZNK15ChiFeature2Base16ActivatePipelineEPK21ChiFeature2Identifier@plt>
   2605c: cc 01 00 d0  	adrp	x12, 0x60000 <_ZN22ChiFeature2RealTimeMCX23PipelineActivateHandlerEPv+0x15c>
   26068: 08 0c 18 36  	tbz	w8, #3, 0x261e8 <_ZN22ChiFeature2RealTimeMCX23PipelineActivateHandlerEPv+0x200>
   2606c: cd 01 00 d0  	adrp	x13, 0x60000 <_ZN22ChiFeature2RealTimeMCX23PipelineActivateHandlerEPv+0x16c>
   2607c: 81 02 00 54  	b.ne	0x260cc <_ZN22ChiFeature2RealTimeMCX23PipelineActivateHandlerEPv+0xe4>
   26080: 34 ff ff f0  	adrp	x20, 0xd000 <_ZN22ChiFeature2RealTimeMCX23PipelineActivateHandlerEPv+0x34>
   260a0: 81 ff ff b0  	adrp	x1, 0x17000 <_ZN22ChiFeature2RealTimeMCX23PipelineActivateHandlerEPv+0x7c>
   260a4: 42 ff ff d0  	adrp	x2, 0x10000 <_ZN22ChiFeature2RealTimeMCX23PipelineActivateHandlerEPv+0x64>
   260a8: 85 ff ff d0  	adrp	x5, 0x18000 <_ZN22ChiFeature2RealTimeMCX23PipelineActivateHandlerEPv+0x88>
   260cc: 34 ff ff f0  	adrp	x20, 0xd000 <_ZN22ChiFeature2RealTimeMCX23PipelineActivateHandlerEPv+0x80>
   260f0: 80 ff ff d0  	adrp	x0, 0x18000 <_ZN22ChiFeature2RealTimeMCX23PipelineActivateHandlerEPv+0xd0>
   260f4: 61 ff ff 90  	adrp	x1, 0x12000 <_ZN22ChiFeature2RealTimeMCX23PipelineActivateHandlerEPv+0xbc>
   260f8: 83 ff ff d0  	adrp	x3, 0x18000 <_ZN22ChiFeature2RealTimeMCX23PipelineActivateHandlerEPv+0xd8>
   260fc: 65 ff ff 90  	adrp	x5, 0x12000 <_ZN22ChiFeature2RealTimeMCX23PipelineActivateHandlerEPv+0xc4>
   26118: 32 c6 00 94  	bl	0x579e0 <_ZN6ChiLog9LogSystemEPKcS1_S1_S1_iS1_z@plt>
   2611c: 33 00 00 14  	b	0x261e8 <_ZN22ChiFeature2RealTimeMCX23PipelineActivateHandlerEPv+0x200>
   26120: d0 01 00 d0  	adrp	x16, 0x60000 <_ZNK22ChiFeature2RealTimeMCX24OnSubmitRequestToSessionEP18ChiPipelineRequest>
   2612c: e9 05 00 36  	tbz	w9, #0, 0x261e8 <_ZN22ChiFeature2RealTimeMCX23PipelineActivateHandlerEPv+0x200>
   26130: d1 01 00 d0  	adrp	x17, 0x60000 <_ZNK22ChiFeature2RealTimeMCX24OnSubmitRequestToSessionEP18ChiPipelineRequest+0x10>
   26134: 34 ff ff f0  	adrp	x20, 0xd000 <_ZN22ChiFeature2RealTimeMCX23PipelineActivateHandlerEPv+0xe8>
   26148: 81 02 00 54  	b.ne	0x26198 <_ZN22ChiFeature2RealTimeMCX23PipelineActivateHandlerEPv+0x1b0>
   26168: 81 ff ff b0  	adrp	x1, 0x17000 <_ZN22ChiFeature2RealTimeMCX23PipelineActivateHandlerEPv+0x144>
   26170: 82 ff ff b0  	adrp	x2, 0x17000 <_ZN22ChiFeature2RealTimeMCX23PipelineActivateHandlerEPv+0x14c>
   26174: 85 ff ff d0  	adrp	x5, 0x18000 <_ZN22ChiFeature2RealTimeMCX23PipelineActivateHandlerEPv+0x154>
   261bc: 20 ff ff f0  	adrp	x0, 0xd000 <_ZN22ChiFeature2RealTimeMCX23PipelineActivateHandlerEPv+0x170>
   261c0: 81 ff ff b0  	adrp	x1, 0x17000 <_ZN22ChiFeature2RealTimeMCX23PipelineActivateHandlerEPv+0x19c>
   261c4: 83 ff ff d0  	adrp	x3, 0x18000 <_ZN22ChiFeature2RealTimeMCX23PipelineActivateHandlerEPv+0x1a4>
   261c8: 85 ff ff b0  	adrp	x5, 0x17000 <_ZN22ChiFeature2RealTimeMCX23PipelineActivateHandlerEPv+0x1a4>
   261e4: ff c5 00 94  	bl	0x579e0 <_ZN6ChiLog9LogSystemEPKcS1_S1_S1_iS1_z@plt>
0000000000026208 <_ZNK22ChiFeature2RealTimeMCX24OnSubmitRequestToSessionEP18ChiPipelineRequest>:
   26244: d9 01 00 d0  	adrp	x25, 0x60000 <_ZNK22ChiFeature2RealTimeMCX24OnSubmitRequestToSessionEP18ChiPipelineRequest+0x124>
   26254: 68 06 18 36  	tbz	w8, #3, 0x26320 <_ZNK22ChiFeature2RealTimeMCX24OnSubmitRequestToSessionEP18ChiPipelineRequest+0x118>
   26258: c9 01 00 d0  	adrp	x9, 0x60000 <_ZNK22ChiFeature2RealTimeMCX24OnSubmitRequestToSessionEP18ChiPipelineRequest+0x138>
   2625c: 38 ff ff f0  	adrp	x24, 0xd000 <_ZN22ChiFeature2RealTimeMCX23PipelineActivateHandlerEPv+0x210>
   26270: c1 02 00 54  	b.ne	0x262c8 <_ZNK22ChiFeature2RealTimeMCX24OnSubmitRequestToSessionEP18ChiPipelineRequest+0xc0>
   26290: 81 ff ff b0  	adrp	x1, 0x17000 <_ZNK22ChiFeature2RealTimeMCX24OnSubmitRequestToSessionEP18ChiPipelineRequest+0x4c>
   26294: 62 ff ff f0  	adrp	x2, 0x15000 <_ZNK22ChiFeature2RealTimeMCX24OnSubmitRequestToSessionEP18ChiPipelineRequest+0x48>
   26298: 65 ff ff 90  	adrp	x5, 0x12000 <_ZNK22ChiFeature2RealTimeMCX24OnSubmitRequestToSessionEP18ChiPipelineRequest+0x40>
   262e8: 80 ff ff d0  	adrp	x0, 0x18000 <_ZNK22ChiFeature2RealTimeMCX24OnSubmitRequestToSessionEP18ChiPipelineRequest+0xa8>
   262ec: 61 ff ff 90  	adrp	x1, 0x12000 <_ZNK22ChiFeature2RealTimeMCX24OnSubmitRequestToSessionEP18ChiPipelineRequest+0x94>
   262f0: 63 ff ff 90  	adrp	x3, 0x12000 <_ZNK22ChiFeature2RealTimeMCX24OnSubmitRequestToSessionEP18ChiPipelineRequest+0x98>
   262f4: 45 ff ff d0  	adrp	x5, 0x10000 <_ZNK22ChiFeature2RealTimeMCX24OnSubmitRequestToSessionEP18ChiPipelineRequest+0x94>
   2631c: b1 c5 00 94  	bl	0x579e0 <_ZN6ChiLog9LogSystemEPKcS1_S1_S1_iS1_z@plt>
   26320: d3 01 00 b4  	cbz	x19, 0x26358 <_ZNK22ChiFeature2RealTimeMCX24OnSubmitRequestToSessionEP18ChiPipelineRequest+0x150>
   26324: b7 01 00 b4  	cbz	x23, 0x26358 <_ZNK22ChiFeature2RealTimeMCX24OnSubmitRequestToSessionEP18ChiPipelineRequest+0x150>
   26354: 5f c6 00 14  	b	0x57cd0 <_ZN16CHIThreadManager7PostJobEmPvm@plt>
   26358: 77 00 00 b4  	cbz	x23, 0x26364 <_ZNK22ChiFeature2RealTimeMCX24OnSubmitRequestToSessionEP18ChiPipelineRequest+0x15c>
   26368: ab 05 00 36  	tbz	w11, #0, 0x2641c <_ZNK22ChiFeature2RealTimeMCX24OnSubmitRequestToSessionEP18ChiPipelineRequest+0x214>
   2636c: cc 01 00 d0  	adrp	x12, 0x60000 <_ZNK22ChiFeature2RealTimeMCX21AreRequestsCompatibleEhPP18ChiPipelineRequest+0x14>
   2637c: 81 02 00 54  	b.ne	0x263cc <_ZNK22ChiFeature2RealTimeMCX24OnSubmitRequestToSessionEP18ChiPipelineRequest+0x1c4>
   26380: 36 ff ff f0  	adrp	x22, 0xd000 <_ZNK22ChiFeature2RealTimeMCX24OnSubmitRequestToSessionEP18ChiPipelineRequest+0x114>
   2639c: 81 ff ff b0  	adrp	x1, 0x17000 <_ZNK22ChiFeature2RealTimeMCX24OnSubmitRequestToSessionEP18ChiPipelineRequest+0x158>
   263a0: 82 ff ff b0  	adrp	x2, 0x17000 <_ZNK22ChiFeature2RealTimeMCX24OnSubmitRequestToSessionEP18ChiPipelineRequest+0x15c>
   263a4: 65 ff ff 90  	adrp	x5, 0x12000 <_ZNK22ChiFeature2RealTimeMCX24OnSubmitRequestToSessionEP18ChiPipelineRequest+0x14c>
   263cc: 38 ff ff f0  	adrp	x24, 0xd000 <_ZNK22ChiFeature2RealTimeMCX24OnSubmitRequestToSessionEP18ChiPipelineRequest+0x160>
   263e8: 81 ff ff b0  	adrp	x1, 0x17000 <_ZNK22ChiFeature2RealTimeMCX24OnSubmitRequestToSessionEP18ChiPipelineRequest+0x1a4>
   263f0: 20 ff ff f0  	adrp	x0, 0xd000 <_ZNK22ChiFeature2RealTimeMCX24OnSubmitRequestToSessionEP18ChiPipelineRequest+0x184>
   263f4: 63 ff ff 90  	adrp	x3, 0x12000 <_ZNK22ChiFeature2RealTimeMCX24OnSubmitRequestToSessionEP18ChiPipelineRequest+0x19c>
   263f8: 65 ff ff d0  	adrp	x5, 0x14000 <_ZNK22ChiFeature2RealTimeMCX24OnSubmitRequestToSessionEP18ChiPipelineRequest+0x1a8>
   26418: 72 c5 00 94  	bl	0x579e0 <_ZN6ChiLog9LogSystemEPKcS1_S1_S1_iS1_z@plt>
0000000000026440 <_ZNK22ChiFeature2RealTimeMCX21AreRequestsCompatibleEhPP18ChiPipelineRequest>:
   26468: 81 08 00 54  	b.ne	0x26578 <_ZNK22ChiFeature2RealTimeMCX21AreRequestsCompatibleEhPP18ChiPipelineRequest+0x138>
   2646c: e2 28 00 b4  	cbz	x2, 0x26988 <_ZNK22ChiFeature2RealTimeMCX21AreRequestsCompatibleEhPP18ChiPipelineRequest+0x548>
   26474: 93 0d 00 b4  	cbz	x19, 0x26624 <_ZNK22ChiFeature2RealTimeMCX21AreRequestsCompatibleEhPP18ChiPipelineRequest+0x1e4>
   26478: 74 0d 00 b4  	cbz	x20, 0x26624 <_ZNK22ChiFeature2RealTimeMCX21AreRequestsCompatibleEhPP18ChiPipelineRequest+0x1e4>
   26488: a1 00 00 54  	b.ne	0x2649c <_ZNK22ChiFeature2RealTimeMCX21AreRequestsCompatibleEhPP18ChiPipelineRequest+0x5c>
   26498: 80 13 00 54  	b.eq	0x26708 <_ZNK22ChiFeature2RealTimeMCX21AreRequestsCompatibleEhPP18ChiPipelineRequest+0x2c8>
   2649c: d6 01 00 d0  	adrp	x22, 0x60000 <_ZNK22ChiFeature2RealTimeMCX21AreRequestsCompatibleEhPP18ChiPipelineRequest+0x144>
   264a8: f0 11 00 36  	tbz	w16, #0, 0x266e4 <_ZNK22ChiFeature2RealTimeMCX21AreRequestsCompatibleEhPP18ChiPipelineRequest+0x2a4>
   264ac: c0 01 00 d0  	adrp	x0, 0x60000 <_ZNK22ChiFeature2RealTimeMCX21AreRequestsCompatibleEhPP18ChiPipelineRequest+0x154>
   264bc: e1 02 00 54  	b.ne	0x26518 <_ZNK22ChiFeature2RealTimeMCX21AreRequestsCompatibleEhPP18ChiPipelineRequest+0xd8>
   264c0: 3a ff ff f0  	adrp	x26, 0xd000 <_ZNK22ChiFeature2RealTimeMCX21AreRequestsCompatibleEhPP18ChiPipelineRequest+0x1c>
   264e4: 81 ff ff b0  	adrp	x1, 0x17000 <_ZNK22ChiFeature2RealTimeMCX21AreRequestsCompatibleEhPP18ChiPipelineRequest+0x68>
   264ec: 62 ff ff 90  	adrp	x2, 0x12000 <_ZNK22ChiFeature2RealTimeMCX21AreRequestsCompatibleEhPP18ChiPipelineRequest+0x5c>
   264f4: 65 ff ff d0  	adrp	x5, 0x14000 <_ZNK22ChiFeature2RealTimeMCX21AreRequestsCompatibleEhPP18ChiPipelineRequest+0x6c>
   26518: 38 ff ff f0  	adrp	x24, 0xd000 <_ZNK22ChiFeature2RealTimeMCX21AreRequestsCompatibleEhPP18ChiPipelineRequest+0x74>
   26544: 20 ff ff f0  	adrp	x0, 0xd000 <_ZNK22ChiFeature2RealTimeMCX21AreRequestsCompatibleEhPP18ChiPipelineRequest+0xa0>
   2654c: 81 ff ff b0  	adrp	x1, 0x17000 <_ZNK22ChiFeature2RealTimeMCX21AreRequestsCompatibleEhPP18ChiPipelineRequest+0xd0>
   26550: 63 ff ff d0  	adrp	x3, 0x14000 <_ZNK22ChiFeature2RealTimeMCX21AreRequestsCompatibleEhPP18ChiPipelineRequest+0xc8>
   26554: 65 ff ff 90  	adrp	x5, 0x12000 <_ZNK22ChiFeature2RealTimeMCX21AreRequestsCompatibleEhPP18ChiPipelineRequest+0xc4>
   26570: 1c c5 00 94  	bl	0x579e0 <_ZN6ChiLog9LogSystemEPKcS1_S1_S1_iS1_z@plt>
   26574: 5c 00 00 14  	b	0x266e4 <_ZNK22ChiFeature2RealTimeMCX21AreRequestsCompatibleEhPP18ChiPipelineRequest+0x2a4>
   26578: c8 01 00 d0  	adrp	x8, 0x60000 <_ZNK22ChiFeature2RealTimeMCX21AreRequestsCompatibleEhPP18ChiPipelineRequest+0x220>
   26584: 0a 0b 00 36  	tbz	w10, #0, 0x266e4 <_ZNK22ChiFeature2RealTimeMCX21AreRequestsCompatibleEhPP18ChiPipelineRequest+0x2a4>
   26588: c9 01 00 d0  	adrp	x9, 0x60000 <_ZNK22ChiFeature2RealTimeMCX21AreRequestsCompatibleEhPP18ChiPipelineRequest+0x230>
   2658c: 35 ff ff f0  	adrp	x21, 0xd000 <_ZNK22ChiFeature2RealTimeMCX21AreRequestsCompatibleEhPP18ChiPipelineRequest+0xe8>
   265a0: 01 02 00 54  	b.ne	0x265e0 <_ZNK22ChiFeature2RealTimeMCX21AreRequestsCompatibleEhPP18ChiPipelineRequest+0x1a0>
   265b8: 81 ff ff b0  	adrp	x1, 0x17000 <_ZNK22ChiFeature2RealTimeMCX21AreRequestsCompatibleEhPP18ChiPipelineRequest+0x13c>
   265bc: 22 ff ff f0  	adrp	x2, 0xd000 <_ZNK22ChiFeature2RealTimeMCX21AreRequestsCompatibleEhPP18ChiPipelineRequest+0x118>
   265c0: 65 ff ff d0  	adrp	x5, 0x14000 <_ZNK22ChiFeature2RealTimeMCX21AreRequestsCompatibleEhPP18ChiPipelineRequest+0x138>
   265f4: 81 ff ff b0  	adrp	x1, 0x17000 <_ZNK22ChiFeature2RealTimeMCX21AreRequestsCompatibleEhPP18ChiPipelineRequest+0x178>
   265fc: 20 ff ff f0  	adrp	x0, 0xd000 <_ZNK22ChiFeature2RealTimeMCX21AreRequestsCompatibleEhPP18ChiPipelineRequest+0x158>
   26600: 63 ff ff d0  	adrp	x3, 0x14000 <_ZNK22ChiFeature2RealTimeMCX21AreRequestsCompatibleEhPP18ChiPipelineRequest+0x178>
   26604: 85 ff ff 90  	adrp	x5, 0x16000 <_ZNK22ChiFeature2RealTimeMCX21AreRequestsCompatibleEhPP18ChiPipelineRequest+0x184>
   2661c: f1 c4 00 94  	bl	0x579e0 <_ZN6ChiLog9LogSystemEPKcS1_S1_S1_iS1_z@plt>
   26620: 31 00 00 14  	b	0x266e4 <_ZNK22ChiFeature2RealTimeMCX21AreRequestsCompatibleEhPP18ChiPipelineRequest+0x2a4>
   26624: d8 01 00 d0  	adrp	x24, 0x60000 <_ZNK22ChiFeature2RealTimeMCX21AreRequestsCompatibleEhPP18ChiPipelineRequest+0x2cc>
   26630: b1 05 00 36  	tbz	w17, #0, 0x266e4 <_ZNK22ChiFeature2RealTimeMCX21AreRequestsCompatibleEhPP18ChiPipelineRequest+0x2a4>
   26634: d9 01 00 d0  	adrp	x25, 0x60000 <_ZNK22ChiFeature2RealTimeMCX21AreRequestsCompatibleEhPP18ChiPipelineRequest+0x2dc>
   26644: 81 02 00 54  	b.ne	0x26694 <_ZNK22ChiFeature2RealTimeMCX21AreRequestsCompatibleEhPP18ChiPipelineRequest+0x254>
   26648: 39 ff ff f0  	adrp	x25, 0xd000 <_ZNK22ChiFeature2RealTimeMCX21AreRequestsCompatibleEhPP18ChiPipelineRequest+0x1a4>
   26664: 81 ff ff b0  	adrp	x1, 0x17000 <_ZNK22ChiFeature2RealTimeMCX21AreRequestsCompatibleEhPP18ChiPipelineRequest+0x1e8>
   26668: 62 ff ff d0  	adrp	x2, 0x14000 <_ZNK22ChiFeature2RealTimeMCX21AreRequestsCompatibleEhPP18ChiPipelineRequest+0x1e0>
   2666c: 65 ff ff d0  	adrp	x5, 0x14000 <_ZNK22ChiFeature2RealTimeMCX21AreRequestsCompatibleEhPP18ChiPipelineRequest+0x1e4>
   26694: 37 ff ff f0  	adrp	x23, 0xd000 <_ZNK22ChiFeature2RealTimeMCX21AreRequestsCompatibleEhPP18ChiPipelineRequest+0x1f0>
   266b0: 81 ff ff b0  	adrp	x1, 0x17000 <_ZNK22ChiFeature2RealTimeMCX21AreRequestsCompatibleEhPP18ChiPipelineRequest+0x234>
   266b8: 20 ff ff f0  	adrp	x0, 0xd000 <_ZNK22ChiFeature2RealTimeMCX21AreRequestsCompatibleEhPP18ChiPipelineRequest+0x214>
   266bc: 63 ff ff d0  	adrp	x3, 0x14000 <_ZNK22ChiFeature2RealTimeMCX21AreRequestsCompatibleEhPP18ChiPipelineRequest+0x234>
   266c0: 45 ff ff b0  	adrp	x5, 0xf000 <_ZNK22ChiFeature2RealTimeMCX21AreRequestsCompatibleEhPP18ChiPipelineRequest+0x224>
   266e0: c0 c4 00 94  	bl	0x579e0 <_ZN6ChiLog9LogSystemEPKcS1_S1_S1_iS1_z@plt>
   26708: 08 14 00 34  	cbz	w8, 0x26988 <_ZNK22ChiFeature2RealTimeMCX21AreRequestsCompatibleEhPP18ChiPipelineRequest+0x548>
   2670c: da 01 00 d0  	adrp	x26, 0x60000 <_ZNK22ChiFeature2RealTimeMCX21AreRequestsCompatibleEhPP18ChiPipelineRequest+0x3b4>
   26710: dc 01 00 d0  	adrp	x28, 0x60000 <_ZNK22ChiFeature2RealTimeMCX21AreRequestsCompatibleEhPP18ChiPipelineRequest+0x3b8>
   26714: 82 ff ff b0  	adrp	x2, 0x17000 <_ZNK22ChiFeature2RealTimeMCX21AreRequestsCompatibleEhPP18ChiPipelineRequest+0x298>
   26740: 89 12 00 34  	cbz	w9, 0x26990 <_ZNK22ChiFeature2RealTimeMCX21AreRequestsCompatibleEhPP18ChiPipelineRequest+0x550>
   26768: c0 00 00 54  	b.eq	0x26780 <_ZNK22ChiFeature2RealTimeMCX21AreRequestsCompatibleEhPP18ChiPipelineRequest+0x340>
   26778: 41 ff ff 54  	b.ne	0x26760 <_ZNK22ChiFeature2RealTimeMCX21AreRequestsCompatibleEhPP18ChiPipelineRequest+0x320>
   2677c: 85 00 00 14  	b	0x26990 <_ZNK22ChiFeature2RealTimeMCX21AreRequestsCompatibleEhPP18ChiPipelineRequest+0x550>
   26788: 60 04 00 54  	b.eq	0x26814 <_ZNK22ChiFeature2RealTimeMCX21AreRequestsCompatibleEhPP18ChiPipelineRequest+0x3d4>
   26790: 31 04 00 b4  	cbz	x17, 0x26814 <_ZNK22ChiFeature2RealTimeMCX21AreRequestsCompatibleEhPP18ChiPipelineRequest+0x3d4>
   267a0: e0 01 00 54  	b.eq	0x267dc <_ZNK22ChiFeature2RealTimeMCX21AreRequestsCompatibleEhPP18ChiPipelineRequest+0x39c>
   267d8: e8 fe ff 54  	b.hi	0x267b4 <_ZNK22ChiFeature2RealTimeMCX21AreRequestsCompatibleEhPP18ChiPipelineRequest+0x374>
   267e4: 82 08 00 54  	b.hs	0x268f4 <_ZNK22ChiFeature2RealTimeMCX21AreRequestsCompatibleEhPP18ChiPipelineRequest+0x4b4>
   267f0: e3 08 00 b4  	cbz	x3, 0x2690c <_ZNK22ChiFeature2RealTimeMCX21AreRequestsCompatibleEhPP18ChiPipelineRequest+0x4cc>
   26804: 81 08 00 54  	b.ne	0x26914 <_ZNK22ChiFeature2RealTimeMCX21AreRequestsCompatibleEhPP18ChiPipelineRequest+0x4d4>
   26810: 39 00 00 14  	b	0x268f4 <_ZNK22ChiFeature2RealTimeMCX21AreRequestsCompatibleEhPP18ChiPipelineRequest+0x4b4>
   26818: ed 06 00 36  	tbz	w13, #0, 0x268f4 <_ZNK22ChiFeature2RealTimeMCX21AreRequestsCompatibleEhPP18ChiPipelineRequest+0x4b4>
   26830: a1 02 00 54  	b.ne	0x26884 <_ZNK22ChiFeature2RealTimeMCX21AreRequestsCompatibleEhPP18ChiPipelineRequest+0x444>
   26834: 37 ff ff f0  	adrp	x23, 0xd000 <_ZNK22ChiFeature2RealTimeMCX21AreRequestsCompatibleEhPP18ChiPipelineRequest+0x390>
   26858: 62 ff ff f0  	adrp	x2, 0x15000 <_ZNK22ChiFeature2RealTimeMCX21AreRequestsCompatibleEhPP18ChiPipelineRequest+0x3d4>
   2685c: 65 ff ff d0  	adrp	x5, 0x14000 <_ZNK22ChiFeature2RealTimeMCX21AreRequestsCompatibleEhPP18ChiPipelineRequest+0x3d4>
   26884: 37 ff ff f0  	adrp	x23, 0xd000 <_ZNK22ChiFeature2RealTimeMCX21AreRequestsCompatibleEhPP18ChiPipelineRequest+0x3e0>
   268a8: 81 ff ff b0  	adrp	x1, 0x17000 <_ZNK22ChiFeature2RealTimeMCX21AreRequestsCompatibleEhPP18ChiPipelineRequest+0x42c>
   268b0: 20 ff ff f0  	adrp	x0, 0xd000 <_ZNK22ChiFeature2RealTimeMCX21AreRequestsCompatibleEhPP18ChiPipelineRequest+0x40c>
   268b4: 63 ff ff d0  	adrp	x3, 0x14000 <_ZNK22ChiFeature2RealTimeMCX21AreRequestsCompatibleEhPP18ChiPipelineRequest+0x42c>
   268b8: 85 ff ff b0  	adrp	x5, 0x17000 <_ZNK22ChiFeature2RealTimeMCX21AreRequestsCompatibleEhPP18ChiPipelineRequest+0x43c>
   268d0: 44 c4 00 94  	bl	0x579e0 <_ZN6ChiLog9LogSystemEPKcS1_S1_S1_iS1_z@plt>
   268fc: 62 04 00 54  	b.hs	0x26988 <_ZNK22ChiFeature2RealTimeMCX21AreRequestsCompatibleEhPP18ChiPipelineRequest+0x548>
   26904: 09 f2 ff 35  	cbnz	w9, 0x26744 <_ZNK22ChiFeature2RealTimeMCX21AreRequestsCompatibleEhPP18ChiPipelineRequest+0x304>
   26908: 22 00 00 14  	b	0x26990 <_ZNK22ChiFeature2RealTimeMCX21AreRequestsCompatibleEhPP18ChiPipelineRequest+0x550>
   26910: f9 ff ff 17  	b	0x268f4 <_ZNK22ChiFeature2RealTimeMCX21AreRequestsCompatibleEhPP18ChiPipelineRequest+0x4b4>
   26918: ec 08 00 34  	cbz	w12, 0x26a34 <_ZNK22ChiFeature2RealTimeMCX21AreRequestsCompatibleEhPP18ChiPipelineRequest+0x5f4>
   26944: 61 ff ff 54  	b.ne	0x26930 <_ZNK22ChiFeature2RealTimeMCX21AreRequestsCompatibleEhPP18ChiPipelineRequest+0x4f0>
   26970: 61 ff ff 54  	b.ne	0x2695c <_ZNK22ChiFeature2RealTimeMCX21AreRequestsCompatibleEhPP18ChiPipelineRequest+0x51c>
   26974: 5b 06 00 35  	cbnz	w27, 0x26a3c <_ZNK22ChiFeature2RealTimeMCX21AreRequestsCompatibleEhPP18ChiPipelineRequest+0x5fc>
   26980: a0 fb ff 54  	b.eq	0x268f4 <_ZNK22ChiFeature2RealTimeMCX21AreRequestsCompatibleEhPP18ChiPipelineRequest+0x4b4>
   26984: 2e 00 00 14  	b	0x26a3c <_ZNK22ChiFeature2RealTimeMCX21AreRequestsCompatibleEhPP18ChiPipelineRequest+0x5fc>
   2698c: 57 ff ff 17  	b	0x266e8 <_ZNK22ChiFeature2RealTimeMCX21AreRequestsCompatibleEhPP18ChiPipelineRequest+0x2a8>
   26994: 8f ea 0f 36  	tbz	w15, #1, 0x266e4 <_ZNK22ChiFeature2RealTimeMCX21AreRequestsCompatibleEhPP18ChiPipelineRequest+0x2a4>
   269a0: 41 02 00 54  	b.ne	0x269e8 <_ZNK22ChiFeature2RealTimeMCX21AreRequestsCompatibleEhPP18ChiPipelineRequest+0x5a8>
   269a4: 35 ff ff f0  	adrp	x21, 0xd000 <_ZNK22ChiFeature2RealTimeMCX21AreRequestsCompatibleEhPP18ChiPipelineRequest+0x500>
   269c0: 81 ff ff b0  	adrp	x1, 0x17000 <_ZNK22ChiFeature2RealTimeMCX21AreRequestsCompatibleEhPP18ChiPipelineRequest+0x544>
   269c4: 22 ff ff f0  	adrp	x2, 0xd000 <_ZNK22ChiFeature2RealTimeMCX21AreRequestsCompatibleEhPP18ChiPipelineRequest+0x520>
   269c8: 65 ff ff d0  	adrp	x5, 0x14000 <_ZNK22ChiFeature2RealTimeMCX21AreRequestsCompatibleEhPP18ChiPipelineRequest+0x540>
   269e8: 3b ff ff f0  	adrp	x27, 0xd000 <_ZNK22ChiFeature2RealTimeMCX21AreRequestsCompatibleEhPP18ChiPipelineRequest+0x544>
   26a04: 41 ff ff b0  	adrp	x1, 0xf000 <_ZNK22ChiFeature2RealTimeMCX21AreRequestsCompatibleEhPP18ChiPipelineRequest+0x568>
   26a0c: 60 ff ff d0  	adrp	x0, 0x14000 <_ZNK22ChiFeature2RealTimeMCX21AreRequestsCompatibleEhPP18ChiPipelineRequest+0x584>
   26a10: 63 ff ff d0  	adrp	x3, 0x14000 <_ZNK22ChiFeature2RealTimeMCX21AreRequestsCompatibleEhPP18ChiPipelineRequest+0x588>
   26a14: 85 ff ff b0  	adrp	x5, 0x17000 <_ZNK22ChiFeature2RealTimeMCX21AreRequestsCompatibleEhPP18ChiPipelineRequest+0x598>
   26a2c: ed c3 00 94  	bl	0x579e0 <_ZN6ChiLog9LogSystemEPKcS1_S1_S1_iS1_z@plt>
   26a30: 2d ff ff 17  	b	0x266e4 <_ZNK22ChiFeature2RealTimeMCX21AreRequestsCompatibleEhPP18ChiPipelineRequest+0x2a4>
   26a40: 2c e5 0f 36  	tbz	w12, #1, 0x266e4 <_ZNK22ChiFeature2RealTimeMCX21AreRequestsCompatibleEhPP18ChiPipelineRequest+0x2a4>
   26a4c: 81 02 00 54  	b.ne	0x26a9c <_ZNK22ChiFeature2RealTimeMCX21AreRequestsCompatibleEhPP18ChiPipelineRequest+0x65c>
   26a50: 3a ff ff f0  	adrp	x26, 0xd000 <_ZNK22ChiFeature2RealTimeMCX21AreRequestsCompatibleEhPP18ChiPipelineRequest+0x5ac>
   26a6c: 81 ff ff b0  	adrp	x1, 0x17000 <_ZNK22ChiFeature2RealTimeMCX21AreRequestsCompatibleEhPP18ChiPipelineRequest+0x5f0>
   26a70: 62 ff ff b0  	adrp	x2, 0x13000 <_ZNK22ChiFeature2RealTimeMCX21AreRequestsCompatibleEhPP18ChiPipelineRequest+0x5e4>
   26a74: 65 ff ff d0  	adrp	x5, 0x14000 <_ZNK22ChiFeature2RealTimeMCX21AreRequestsCompatibleEhPP18ChiPipelineRequest+0x5ec>
   26a9c: 38 ff ff f0  	adrp	x24, 0xd000 <_ZNK22ChiFeature2RealTimeMCX21AreRequestsCompatibleEhPP18ChiPipelineRequest+0x5f8>
   26ab8: 41 ff ff b0  	adrp	x1, 0xf000 <_ZNK22ChiFeature2RealTimeMCX21AreRequestsCompatibleEhPP18ChiPipelineRequest+0x61c>
   26ac0: 60 ff ff d0  	adrp	x0, 0x14000 <_ZNK22ChiFeature2RealTimeMCX21AreRequestsCompatibleEhPP18ChiPipelineRequest+0x638>
   26ac4: 63 ff ff d0  	adrp	x3, 0x14000 <_ZNK22ChiFeature2RealTimeMCX21AreRequestsCompatibleEhPP18ChiPipelineRequest+0x63c>
   26ac8: 25 ff ff d0  	adrp	x5, 0xc000 <_ZNK22ChiFeature2RealTimeMCX21AreRequestsCompatibleEhPP18ChiPipelineRequest+0x620>
   26ae8: be c3 00 94  	bl	0x579e0 <_ZN6ChiLog9LogSystemEPKcS1_S1_S1_iS1_z@plt>
   26aec: fe fe ff 17  	b	0x266e4 <_ZNK22ChiFeature2RealTimeMCX21AreRequestsCompatibleEhPP18ChiPipelineRequest+0x2a4>
0000000000026af0 <_ZNK22ChiFeature2RealTimeMCX21MergePipelineRequestsEhPP18ChiPipelineRequest>:
   26b24: 41 03 00 54  	b.ne	0x26b8c <_ZNK22ChiFeature2RealTimeMCX21MergePipelineRequestsEhPP18ChiPipelineRequest+0x9c>
   26b28: 22 09 00 b4  	cbz	x2, 0x26c4c <_ZNK22ChiFeature2RealTimeMCX21MergePipelineRequestsEhPP18ChiPipelineRequest+0x15c>
   26b38: db 08 00 b4  	cbz	x27, 0x26c50 <_ZNK22ChiFeature2RealTimeMCX21MergePipelineRequestsEhPP18ChiPipelineRequest+0x160>
   26b40: 94 08 00 b4  	cbz	x20, 0x26c50 <_ZNK22ChiFeature2RealTimeMCX21MergePipelineRequestsEhPP18ChiPipelineRequest+0x160>
   26b5c: a0 00 00 b4  	cbz	x0, 0x26b70 <_ZNK22ChiFeature2RealTimeMCX21MergePipelineRequestsEhPP18ChiPipelineRequest+0x80>
   26b78: eb 4a 00 34  	cbz	w11, 0x274d4 <_ZNK22ChiFeature2RealTimeMCX21MergePipelineRequestsEhPP18ChiPipelineRequest+0x9e4>
   26b88: 4a 00 00 14  	b	0x26cb0 <_ZNK22ChiFeature2RealTimeMCX21MergePipelineRequestsEhPP18ChiPipelineRequest+0x1c0>
   26b8c: d4 01 00 d0  	adrp	x20, 0x60000 <_ZNK22ChiFeature2RealTimeMCX21MergePipelineRequestsEhPP18ChiPipelineRequest+0x184>
   26b98: e9 04 00 36  	tbz	w9, #0, 0x26c34 <_ZNK22ChiFeature2RealTimeMCX21MergePipelineRequestsEhPP18ChiPipelineRequest+0x144>
   26b9c: d8 01 00 d0  	adrp	x24, 0x60000 <_ZNK22ChiFeature2RealTimeMCX21MergePipelineRequestsEhPP18ChiPipelineRequest+0x194>
   26ba0: 35 ff ff f0  	adrp	x21, 0xd000 <_ZNK22ChiFeature2RealTimeMCX21MergePipelineRequestsEhPP18ChiPipelineRequest+0x4c>
   26bb4: 01 02 00 54  	b.ne	0x26bf4 <_ZNK22ChiFeature2RealTimeMCX21MergePipelineRequestsEhPP18ChiPipelineRequest+0x104>
   26bcc: 81 ff ff b0  	adrp	x1, 0x17000 <_ZNK22ChiFeature2RealTimeMCX21MergePipelineRequestsEhPP18ChiPipelineRequest+0xa0>
   26bd0: 82 ff ff d0  	adrp	x2, 0x18000 <_ZNK22ChiFeature2RealTimeMCX21MergePipelineRequestsEhPP18ChiPipelineRequest+0xa8>
   26bd4: 65 ff ff b0  	adrp	x5, 0x13000 <_ZNK22ChiFeature2RealTimeMCX21MergePipelineRequestsEhPP18ChiPipelineRequest+0x98>
   26c08: 81 ff ff b0  	adrp	x1, 0x17000 <_ZNK22ChiFeature2RealTimeMCX21MergePipelineRequestsEhPP18ChiPipelineRequest+0xdc>
   26c10: 20 ff ff f0  	adrp	x0, 0xd000 <_ZNK22ChiFeature2RealTimeMCX21MergePipelineRequestsEhPP18ChiPipelineRequest+0xbc>
   26c14: 63 ff ff b0  	adrp	x3, 0x13000 <_ZNK22ChiFeature2RealTimeMCX21MergePipelineRequestsEhPP18ChiPipelineRequest+0xd8>
   26c18: 45 ff ff d0  	adrp	x5, 0x10000 <_ZNK22ChiFeature2RealTimeMCX21MergePipelineRequestsEhPP18ChiPipelineRequest+0xd0>
   26c30: 6c c3 00 94  	bl	0x579e0 <_ZN6ChiLog9LogSystemEPKcS1_S1_S1_iS1_z@plt>
   26c44: e0 00 00 54  	b.eq	0x26c60 <_ZNK22ChiFeature2RealTimeMCX21MergePipelineRequestsEhPP18ChiPipelineRequest+0x170>
   26c48: 2c 02 00 14  	b	0x274f8 <_ZNK22ChiFeature2RealTimeMCX21MergePipelineRequestsEhPP18ChiPipelineRequest+0xa08>
   26c5c: e1 44 00 54  	b.ne	0x274f8 <_ZNK22ChiFeature2RealTimeMCX21MergePipelineRequestsEhPP18ChiPipelineRequest+0xa08>
   26cac: 42 41 00 54  	b.hs	0x274d4 <_ZNK22ChiFeature2RealTimeMCX21MergePipelineRequestsEhPP18ChiPipelineRequest+0x9e4>
   26cb0: 60 ff ff b4  	cbz	x0, 0x26c9c <_ZNK22ChiFeature2RealTimeMCX21MergePipelineRequestsEhPP18ChiPipelineRequest+0x1ac>
   26cb8: 2a ff ff 34  	cbz	w10, 0x26c9c <_ZNK22ChiFeature2RealTimeMCX21MergePipelineRequestsEhPP18ChiPipelineRequest+0x1ac>
   26ce4: c0 00 00 54  	b.eq	0x26cfc <_ZNK22ChiFeature2RealTimeMCX21MergePipelineRequestsEhPP18ChiPipelineRequest+0x20c>
   26cf4: 41 ff ff 54  	b.ne	0x26cdc <_ZNK22ChiFeature2RealTimeMCX21MergePipelineRequestsEhPP18ChiPipelineRequest+0x1ec>
   26cf8: e9 ff ff 17  	b	0x26c9c <_ZNK22ChiFeature2RealTimeMCX21MergePipelineRequestsEhPP18ChiPipelineRequest+0x1ac>
   26cfc: 17 fd ff b4  	cbz	x23, 0x26c9c <_ZNK22ChiFeature2RealTimeMCX21MergePipelineRequestsEhPP18ChiPipelineRequest+0x1ac>
   26d08: a7 fc ff b4  	cbz	x7, 0x26c9c <_ZNK22ChiFeature2RealTimeMCX21MergePipelineRequestsEhPP18ChiPipelineRequest+0x1ac>
   26d14: 4a fc ff b4  	cbz	x10, 0x26c9c <_ZNK22ChiFeature2RealTimeMCX21MergePipelineRequestsEhPP18ChiPipelineRequest+0x1ac>
   26d48: a0 fa ff b4  	cbz	x0, 0x26c9c <_ZNK22ChiFeature2RealTimeMCX21MergePipelineRequestsEhPP18ChiPipelineRequest+0x1ac>
   26d64: 6b 0e 00 34  	cbz	w11, 0x26f30 <_ZNK22ChiFeature2RealTimeMCX21MergePipelineRequestsEhPP18ChiPipelineRequest+0x440>
   26d7c: 23 0b 00 54  	b.lo	0x26ee0 <_ZNK22ChiFeature2RealTimeMCX21MergePipelineRequestsEhPP18ChiPipelineRequest+0x3f0>
   26dc4: e2 08 00 37  	tbnz	w2, #0, 0x26ee0 <_ZNK22ChiFeature2RealTimeMCX21MergePipelineRequestsEhPP18ChiPipelineRequest+0x3f0>
   26dcc: a3 08 00 36  	tbz	w3, #0, 0x26ee0 <_ZNK22ChiFeature2RealTimeMCX21MergePipelineRequestsEhPP18ChiPipelineRequest+0x3f0>
   26e80: 81 fb ff 54  	b.ne	0x26df0 <_ZNK22ChiFeature2RealTimeMCX21MergePipelineRequestsEhPP18ChiPipelineRequest+0x300>
   26e84: 0c 05 00 b4  	cbz	x12, 0x26f24 <_ZNK22ChiFeature2RealTimeMCX21MergePipelineRequestsEhPP18ChiPipelineRequest+0x434>
   26ed8: 6b fe ff 54  	b.lt	0x26ea4 <_ZNK22ChiFeature2RealTimeMCX21MergePipelineRequestsEhPP18ChiPipelineRequest+0x3b4>
   26edc: 12 00 00 14  	b	0x26f24 <_ZNK22ChiFeature2RealTimeMCX21MergePipelineRequestsEhPP18ChiPipelineRequest+0x434>
   26f20: 63 fe ff 54  	b.lo	0x26eec <_ZNK22ChiFeature2RealTimeMCX21MergePipelineRequestsEhPP18ChiPipelineRequest+0x3fc>
   26f28: 2f 01 00 35  	cbnz	w15, 0x26f4c <_ZNK22ChiFeature2RealTimeMCX21MergePipelineRequestsEhPP18ChiPipelineRequest+0x45c>
   26f2c: bb 00 00 14  	b	0x27218 <_ZNK22ChiFeature2RealTimeMCX21MergePipelineRequestsEhPP18ChiPipelineRequest+0x728>
   26f48: 8f 16 00 34  	cbz	w15, 0x27218 <_ZNK22ChiFeature2RealTimeMCX21MergePipelineRequestsEhPP18ChiPipelineRequest+0x728>
   26f64: 11 00 00 14  	b	0x26fa8 <_ZNK22ChiFeature2RealTimeMCX21MergePipelineRequestsEhPP18ChiPipelineRequest+0x4b8>
   26fa4: 82 13 00 54  	b.hs	0x27214 <_ZNK22ChiFeature2RealTimeMCX21MergePipelineRequestsEhPP18ChiPipelineRequest+0x724>
   26fa8: 14 fe ff 34  	cbz	w20, 0x26f68 <_ZNK22ChiFeature2RealTimeMCX21MergePipelineRequestsEhPP18ChiPipelineRequest+0x478>
   26fc8: c0 00 00 54  	b.eq	0x26fe0 <_ZNK22ChiFeature2RealTimeMCX21MergePipelineRequestsEhPP18ChiPipelineRequest+0x4f0>
   26fd8: 41 ff ff 54  	b.ne	0x26fc0 <_ZNK22ChiFeature2RealTimeMCX21MergePipelineRequestsEhPP18ChiPipelineRequest+0x4d0>
   26fdc: e3 ff ff 17  	b	0x26f68 <_ZNK22ChiFeature2RealTimeMCX21MergePipelineRequestsEhPP18ChiPipelineRequest+0x478>
   26fe4: b6 fd ff b4  	cbz	x22, 0x26f98 <_ZNK22ChiFeature2RealTimeMCX21MergePipelineRequestsEhPP18ChiPipelineRequest+0x4a8>
   26ff0: 40 fd ff 54  	b.eq	0x26f98 <_ZNK22ChiFeature2RealTimeMCX21MergePipelineRequestsEhPP18ChiPipelineRequest+0x4a8>
   26ffc: 2b 00 00 14  	b	0x270a8 <_ZNK22ChiFeature2RealTimeMCX21MergePipelineRequestsEhPP18ChiPipelineRequest+0x5b8>
   27000: 2b ff ff d0  	adrp	x11, 0xd000 <_ZNK22ChiFeature2RealTimeMCX21MergePipelineRequestsEhPP18ChiPipelineRequest+0x4a8>
   2701c: 31 ff ff d0  	adrp	x17, 0xd000 <_ZNK22ChiFeature2RealTimeMCX21MergePipelineRequestsEhPP18ChiPipelineRequest+0x4c4>
   27030: 80 ff ff b0  	adrp	x0, 0x18000 <_ZNK22ChiFeature2RealTimeMCX21MergePipelineRequestsEhPP18ChiPipelineRequest+0x504>
   27034: 41 ff ff f0  	adrp	x1, 0x12000 <_ZNK22ChiFeature2RealTimeMCX21MergePipelineRequestsEhPP18ChiPipelineRequest+0x4f0>
   2703c: 63 ff ff 90  	adrp	x3, 0x13000 <_ZNK22ChiFeature2RealTimeMCX21MergePipelineRequestsEhPP18ChiPipelineRequest+0x4fc>
   27040: 65 ff ff b0  	adrp	x5, 0x14000 <_ZNK22ChiFeature2RealTimeMCX21MergePipelineRequestsEhPP18ChiPipelineRequest+0x504>
   27058: 62 c2 00 94  	bl	0x579e0 <_ZN6ChiLog9LogSystemEPKcS1_S1_S1_iS1_z@plt>
   27074: 47 c3 00 94  	bl	0x57d90 <_ZN22CHITargetBufferManager12UpdateTargetEjmPv15ChiTargetStatusPS0_@plt>
   270a4: 09 0b 00 54  	b.ls	0x27204 <_ZNK22ChiFeature2RealTimeMCX21MergePipelineRequestsEhPP18ChiPipelineRequest+0x714>
   270a8: 29 ff ff b4  	cbz	x9, 0x2708c <_ZNK22ChiFeature2RealTimeMCX21MergePipelineRequestsEhPP18ChiPipelineRequest+0x59c>
   270c0: 62 fe ff 54  	b.hs	0x2708c <_ZNK22ChiFeature2RealTimeMCX21MergePipelineRequestsEhPP18ChiPipelineRequest+0x59c>
   270c8: 25 fe ff b4  	cbz	x5, 0x2708c <_ZNK22ChiFeature2RealTimeMCX21MergePipelineRequestsEhPP18ChiPipelineRequest+0x59c>
   270e0: 62 fd ff 54  	b.hs	0x2708c <_ZNK22ChiFeature2RealTimeMCX21MergePipelineRequestsEhPP18ChiPipelineRequest+0x59c>
   270e8: 24 fd ff b4  	cbz	x4, 0x2708c <_ZNK22ChiFeature2RealTimeMCX21MergePipelineRequestsEhPP18ChiPipelineRequest+0x59c>
   270f8: 88 01 00 54  	b.hi	0x27128 <_ZNK22ChiFeature2RealTimeMCX21MergePipelineRequestsEhPP18ChiPipelineRequest+0x638>
   27120: 69 fb ff 54  	b.ls	0x2708c <_ZNK22ChiFeature2RealTimeMCX21MergePipelineRequestsEhPP18ChiPipelineRequest+0x59c>
   27124: 0e 00 00 14  	b	0x2715c <_ZNK22ChiFeature2RealTimeMCX21MergePipelineRequestsEhPP18ChiPipelineRequest+0x66c>
   27158: a9 f9 ff 54  	b.ls	0x2708c <_ZNK22ChiFeature2RealTimeMCX21MergePipelineRequestsEhPP18ChiPipelineRequest+0x59c>
   2715c: 8f f9 ff b4  	cbz	x15, 0x2708c <_ZNK22ChiFeature2RealTimeMCX21MergePipelineRequestsEhPP18ChiPipelineRequest+0x59c>
   27178: a1 f8 ff 54  	b.ne	0x2708c <_ZNK22ChiFeature2RealTimeMCX21MergePipelineRequestsEhPP18ChiPipelineRequest+0x59c>
   2717c: ce 01 00 b0  	adrp	x14, 0x60000 <_ZNK22ChiFeature2RealTimeMCX21MergePipelineRequestsEhPP18ChiPipelineRequest+0x770>
   2718c: c5 f6 1f 36  	tbz	w5, #3, 0x27064 <_ZNK22ChiFeature2RealTimeMCX21MergePipelineRequestsEhPP18ChiPipelineRequest+0x574>
   27190: c3 01 00 b0  	adrp	x3, 0x60000 <_ZNK22ChiFeature2RealTimeMCX21MergePipelineRequestsEhPP18ChiPipelineRequest+0x784>
   271a4: e1 f2 ff 54  	b.ne	0x27000 <_ZNK22ChiFeature2RealTimeMCX21MergePipelineRequestsEhPP18ChiPipelineRequest+0x510>
   271a8: 29 ff ff d0  	adrp	x9, 0xd000 <_ZNK22ChiFeature2RealTimeMCX21MergePipelineRequestsEhPP18ChiPipelineRequest+0x650>
   271c4: 30 ff ff d0  	adrp	x16, 0xd000 <_ZNK22ChiFeature2RealTimeMCX21MergePipelineRequestsEhPP18ChiPipelineRequest+0x66c>
   271d4: 81 ff ff 90  	adrp	x1, 0x17000 <_ZNK22ChiFeature2RealTimeMCX21MergePipelineRequestsEhPP18ChiPipelineRequest+0x6a4>
   271d8: 62 ff ff 90  	adrp	x2, 0x13000 <_ZNK22ChiFeature2RealTimeMCX21MergePipelineRequestsEhPP18ChiPipelineRequest+0x698>
   271dc: 65 ff ff 90  	adrp	x5, 0x13000 <_ZNK22ChiFeature2RealTimeMCX21MergePipelineRequestsEhPP18ChiPipelineRequest+0x69c>
   27200: 80 ff ff 17  	b	0x27000 <_ZNK22ChiFeature2RealTimeMCX21MergePipelineRequestsEhPP18ChiPipelineRequest+0x510>
   27210: 62 ff ff 17  	b	0x26f98 <_ZNK22ChiFeature2RealTimeMCX21MergePipelineRequestsEhPP18ChiPipelineRequest+0x4a8>
   27280: 02 d0 ff 54  	b.hs	0x26c80 <_ZNK22ChiFeature2RealTimeMCX21MergePipelineRequestsEhPP18ChiPipelineRequest+0x190>
   27288: c6 cf ff b4  	cbz	x6, 0x26c80 <_ZNK22ChiFeature2RealTimeMCX21MergePipelineRequestsEhPP18ChiPipelineRequest+0x190>
   2729c: 22 cf ff 54  	b.hs	0x26c80 <_ZNK22ChiFeature2RealTimeMCX21MergePipelineRequestsEhPP18ChiPipelineRequest+0x190>
   272a4: f7 ce ff b4  	cbz	x23, 0x26c80 <_ZNK22ChiFeature2RealTimeMCX21MergePipelineRequestsEhPP18ChiPipelineRequest+0x190>
   272ac: ba ce ff b4  	cbz	x26, 0x26c80 <_ZNK22ChiFeature2RealTimeMCX21MergePipelineRequestsEhPP18ChiPipelineRequest+0x190>
   272b8: 54 ce ff b4  	cbz	x20, 0x26c80 <_ZNK22ChiFeature2RealTimeMCX21MergePipelineRequestsEhPP18ChiPipelineRequest+0x190>
   272d4: 70 06 00 b4  	cbz	x16, 0x273a0 <_ZNK22ChiFeature2RealTimeMCX21MergePipelineRequestsEhPP18ChiPipelineRequest+0x8b0>
   272e4: e0 05 00 34  	cbz	w0, 0x273a0 <_ZNK22ChiFeature2RealTimeMCX21MergePipelineRequestsEhPP18ChiPipelineRequest+0x8b0>
   272e8: d0 01 00 b0  	adrp	x16, 0x60000 <_ZNK22ChiFeature2RealTimeMCX21MergePipelineRequestsEhPP18ChiPipelineRequest+0x8dc>
   272f4: 66 05 08 36  	tbz	w6, #1, 0x273a0 <_ZNK22ChiFeature2RealTimeMCX21MergePipelineRequestsEhPP18ChiPipelineRequest+0x8b0>
   272f8: c1 01 00 b0  	adrp	x1, 0x60000 <_ZNK22ChiFeature2RealTimeMCX21MergePipelineRequestsEhPP18ChiPipelineRequest+0x8ec>
   27308: 61 02 00 54  	b.ne	0x27354 <_ZNK22ChiFeature2RealTimeMCX21MergePipelineRequestsEhPP18ChiPipelineRequest+0x864>
   2730c: 7c ff ff 90  	adrp	x28, 0x13000 <_ZNK22ChiFeature2RealTimeMCX21MergePipelineRequestsEhPP18ChiPipelineRequest+0x7cc>
   27328: 81 ff ff 90  	adrp	x1, 0x17000 <_ZNK22ChiFeature2RealTimeMCX21MergePipelineRequestsEhPP18ChiPipelineRequest+0x7f8>
   2732c: 42 ff ff f0  	adrp	x2, 0x12000 <_ZNK22ChiFeature2RealTimeMCX21MergePipelineRequestsEhPP18ChiPipelineRequest+0x7e8>
   27330: 85 ff ff 90  	adrp	x5, 0x17000 <_ZNK22ChiFeature2RealTimeMCX21MergePipelineRequestsEhPP18ChiPipelineRequest+0x800>
   27354: 7c ff ff 90  	adrp	x28, 0x13000 <_ZNK22ChiFeature2RealTimeMCX21MergePipelineRequestsEhPP18ChiPipelineRequest+0x814>
   27370: 41 ff ff 90  	adrp	x1, 0xf000 <_ZNK22ChiFeature2RealTimeMCX21MergePipelineRequestsEhPP18ChiPipelineRequest+0x820>
   27378: 60 ff ff b0  	adrp	x0, 0x14000 <_ZNK22ChiFeature2RealTimeMCX21MergePipelineRequestsEhPP18ChiPipelineRequest+0x83c>
   2737c: 83 ff ff 90  	adrp	x3, 0x17000 <_ZNK22ChiFeature2RealTimeMCX21MergePipelineRequestsEhPP18ChiPipelineRequest+0x84c>
   27380: 85 ff ff b0  	adrp	x5, 0x18000 <_ZNK22ChiFeature2RealTimeMCX21MergePipelineRequestsEhPP18ChiPipelineRequest+0x854>
   2739c: 91 c1 00 94  	bl	0x579e0 <_ZN6ChiLog9LogSystemEPKcS1_S1_S1_iS1_z@plt>
   273bc: 91 06 00 b4  	cbz	x17, 0x2748c <_ZNK22ChiFeature2RealTimeMCX21MergePipelineRequestsEhPP18ChiPipelineRequest+0x99c>
   273cc: 00 06 00 34  	cbz	w0, 0x2748c <_ZNK22ChiFeature2RealTimeMCX21MergePipelineRequestsEhPP18ChiPipelineRequest+0x99c>
   273d0: cf 01 00 b0  	adrp	x15, 0x60000 <_ZNK22ChiFeature2RealTimeMCX21MergePipelineRequestsEhPP18ChiPipelineRequest+0x9c4>
   273dc: 87 05 08 36  	tbz	w7, #1, 0x2748c <_ZNK22ChiFeature2RealTimeMCX21MergePipelineRequestsEhPP18ChiPipelineRequest+0x99c>
   273e0: d1 01 00 b0  	adrp	x17, 0x60000 <_ZNK22ChiFeature2RealTimeMCX21MergePipelineRequestsEhPP18ChiPipelineRequest+0x9d4>
   273f0: 61 02 00 54  	b.ne	0x2743c <_ZNK22ChiFeature2RealTimeMCX21MergePipelineRequestsEhPP18ChiPipelineRequest+0x94c>
   273f4: 73 ff ff 90  	adrp	x19, 0x13000 <_ZNK22ChiFeature2RealTimeMCX21MergePipelineRequestsEhPP18ChiPipelineRequest+0x8b4>
   27410: 81 ff ff 90  	adrp	x1, 0x17000 <_ZNK22ChiFeature2RealTimeMCX21MergePipelineRequestsEhPP18ChiPipelineRequest+0x8e0>
   27414: 42 ff ff f0  	adrp	x2, 0x12000 <_ZNK22ChiFeature2RealTimeMCX21MergePipelineRequestsEhPP18ChiPipelineRequest+0x8d0>
   27418: 85 ff ff 90  	adrp	x5, 0x17000 <_ZNK22ChiFeature2RealTimeMCX21MergePipelineRequestsEhPP18ChiPipelineRequest+0x8e8>
   2743c: 73 ff ff 90  	adrp	x19, 0x13000 <_ZNK22ChiFeature2RealTimeMCX21MergePipelineRequestsEhPP18ChiPipelineRequest+0x8fc>
   27458: 41 ff ff 90  	adrp	x1, 0xf000 <_ZNK22ChiFeature2RealTimeMCX21MergePipelineRequestsEhPP18ChiPipelineRequest+0x908>
   27460: 60 ff ff b0  	adrp	x0, 0x14000 <_ZNK22ChiFeature2RealTimeMCX21MergePipelineRequestsEhPP18ChiPipelineRequest+0x924>
   27464: 83 ff ff 90  	adrp	x3, 0x17000 <_ZNK22ChiFeature2RealTimeMCX21MergePipelineRequestsEhPP18ChiPipelineRequest+0x934>
   27468: 85 ff ff b0  	adrp	x5, 0x18000 <_ZNK22ChiFeature2RealTimeMCX21MergePipelineRequestsEhPP18ChiPipelineRequest+0x93c>
   27484: 57 c1 00 94  	bl	0x579e0 <_ZN6ChiLog9LogSystemEPKcS1_S1_S1_iS1_z@plt>
   2748c: b4 bf ff b4  	cbz	x20, 0x26c80 <_ZNK22ChiFeature2RealTimeMCX21MergePipelineRequestsEhPP18ChiPipelineRequest+0x190>
   27494: 7c bf ff b4  	cbz	x28, 0x26c80 <_ZNK22ChiFeature2RealTimeMCX21MergePipelineRequestsEhPP18ChiPipelineRequest+0x190>
   274b0: 38 c2 00 94  	bl	0x57d90 <_ZN22CHITargetBufferManager12UpdateTargetEjmPv15ChiTargetStatusPS0_@plt>
   274cc: 31 c2 00 94  	bl	0x57d90 <_ZN22CHITargetBufferManager12UpdateTargetEjmPv15ChiTargetStatusPS0_@plt>
   274d0: ec fd ff 17  	b	0x26c80 <_ZNK22ChiFeature2RealTimeMCX21MergePipelineRequestsEhPP18ChiPipelineRequest+0x190>
   274f4: 60 bb ff 54  	b.eq	0x26c60 <_ZNK22ChiFeature2RealTimeMCX21MergePipelineRequestsEhPP18ChiPipelineRequest+0x170>
0000000000027500 <_ZNK22ChiFeature2RealTimeMCX18DeActivatePipelineEP24ChiFeature2RequestObjectRK21ChiFeature2Identifier>:
   27520: e1 00 00 b4  	cbz	x1, 0x2753c <_ZNK22ChiFeature2RealTimeMCX18DeActivatePipelineEP24ChiFeature2RequestObjectRK21ChiFeature2Identifier+0x3c>
   2752c: 69 c1 00 94  	bl	0x57ad0 <_ZNK15ChiFeature2Base21GetFeaturePrivContextEP24ChiFeature2RequestObject@plt>
   27534: 28 01 00 35  	cbnz	w8, 0x27558 <_ZNK22ChiFeature2RealTimeMCX18DeActivatePipelineEP24ChiFeature2RequestObjectRK21ChiFeature2Identifier+0x58>
   27538: 04 00 00 14  	b	0x27548 <_ZNK22ChiFeature2RealTimeMCX18DeActivatePipelineEP24ChiFeature2RequestObjectRK21ChiFeature2Identifier+0x48>
   27544: a8 00 00 35  	cbnz	w8, 0x27558 <_ZNK22ChiFeature2RealTimeMCX18DeActivatePipelineEP24ChiFeature2RequestObjectRK21ChiFeature2Identifier+0x58>
   27548: 00 08 00 b4  	cbz	x0, 0x27648 <_ZNK22ChiFeature2RealTimeMCX18DeActivatePipelineEP24ChiFeature2RequestObjectRK21ChiFeature2Identifier+0x148>
   27554: a1 07 00 54  	b.ne	0x27648 <_ZNK22ChiFeature2RealTimeMCX18DeActivatePipelineEP24ChiFeature2RequestObjectRK21ChiFeature2Identifier+0x148>
   27558: c8 01 00 b0  	adrp	x8, 0x60000 <_ZNK22ChiFeature2RealTimeMCX18DeActivatePipelineEP24ChiFeature2RequestObjectRK21ChiFeature2Identifier+0x13c>
   27564: 69 00 28 37  	tbnz	w9, #5, 0x27570 <_ZNK22ChiFeature2RealTimeMCX18DeActivatePipelineEP24ChiFeature2RequestObjectRK21ChiFeature2Identifier+0x70>
   2756c: 6e 00 00 14  	b	0x27724 <_ZNK22ChiFeature2RealTimeMCX18DeActivatePipelineEP24ChiFeature2RequestObjectRK21ChiFeature2Identifier+0x224>
   27570: c9 01 00 b0  	adrp	x9, 0x60000 <_ZNK22ChiFeature2RealTimeMCX18DeActivatePipelineEP24ChiFeature2RequestObjectRK21ChiFeature2Identifier+0x154>
   27574: 36 ff ff d0  	adrp	x22, 0xd000 <_ZNK22ChiFeature2RealTimeMCX18DeActivatePipelineEP24ChiFeature2RequestObjectRK21ChiFeature2Identifier+0xc>
   27578: 37 ff ff d0  	adrp	x23, 0xd000 <_ZNK22ChiFeature2RealTimeMCX18DeActivatePipelineEP24ChiFeature2RequestObjectRK21ChiFeature2Identifier+0x10>
   27590: c1 02 00 54  	b.ne	0x275e8 <_ZNK22ChiFeature2RealTimeMCX18DeActivatePipelineEP24ChiFeature2RequestObjectRK21ChiFeature2Identifier+0xe8>
   275b8: 81 ff ff 90  	adrp	x1, 0x17000 <_ZNK22ChiFeature2RealTimeMCX18DeActivatePipelineEP24ChiFeature2RequestObjectRK21ChiFeature2Identifier+0x78>
   275c0: 82 ff ff b0  	adrp	x2, 0x18000 <_ZNK22ChiFeature2RealTimeMCX18DeActivatePipelineEP24ChiFeature2RequestObjectRK21ChiFeature2Identifier+0x84>
   275c8: 45 ff ff d0  	adrp	x5, 0x11000 <_ZNK22ChiFeature2RealTimeMCX18DeActivatePipelineEP24ChiFeature2RequestObjectRK21ChiFeature2Identifier+0x70>
   2760c: 80 ff ff 90  	adrp	x0, 0x17000 <_ZNK22ChiFeature2RealTimeMCX18DeActivatePipelineEP24ChiFeature2RequestObjectRK21ChiFeature2Identifier+0xcc>
   27614: 61 ff ff 90  	adrp	x1, 0x13000 <_ZNK22ChiFeature2RealTimeMCX18DeActivatePipelineEP24ChiFeature2RequestObjectRK21ChiFeature2Identifier+0xc4>
   2761c: 43 ff ff d0  	adrp	x3, 0x11000 <_ZNK22ChiFeature2RealTimeMCX18DeActivatePipelineEP24ChiFeature2RequestObjectRK21ChiFeature2Identifier+0xc4>
   27620: 45 ff ff b0  	adrp	x5, 0x10000 <_ZNK22ChiFeature2RealTimeMCX18DeActivatePipelineEP24ChiFeature2RequestObjectRK21ChiFeature2Identifier+0xc4>
   2763c: e9 c0 00 94  	bl	0x579e0 <_ZN6ChiLog9LogSystemEPKcS1_S1_S1_iS1_z@plt>
   27644: 38 00 00 14  	b	0x27724 <_ZNK22ChiFeature2RealTimeMCX18DeActivatePipelineEP24ChiFeature2RequestObjectRK21ChiFeature2Identifier+0x224>
   27648: cc 01 00 b0  	adrp	x12, 0x60000 <_ZNK22ChiFeature2RealTimeMCX18DeActivatePipelineEP24ChiFeature2RequestObjectRK21ChiFeature2Identifier+0x22c>
   27654: 6a 06 28 36  	tbz	w10, #5, 0x27720 <_ZNK22ChiFeature2RealTimeMCX18DeActivatePipelineEP24ChiFeature2RequestObjectRK21ChiFeature2Identifier+0x220>
   27658: cd 01 00 b0  	adrp	x13, 0x60000 <_ZNK22ChiFeature2RealTimeMCX18DeActivatePipelineEP24ChiFeature2RequestObjectRK21ChiFeature2Identifier+0x23c>
   27668: e1 02 00 54  	b.ne	0x276c4 <_ZNK22ChiFeature2RealTimeMCX18DeActivatePipelineEP24ChiFeature2RequestObjectRK21ChiFeature2Identifier+0x1c4>
   2766c: 36 ff ff d0  	adrp	x22, 0xd000 <_ZNK22ChiFeature2RealTimeMCX18DeActivatePipelineEP24ChiFeature2RequestObjectRK21ChiFeature2Identifier+0x104>
   27688: 28 ff ff d0  	adrp	x8, 0xd000 <_ZNK22ChiFeature2RealTimeMCX18DeActivatePipelineEP24ChiFeature2RequestObjectRK21ChiFeature2Identifier+0x120>
   2769c: 81 ff ff 90  	adrp	x1, 0x17000 <_ZNK22ChiFeature2RealTimeMCX18DeActivatePipelineEP24ChiFeature2RequestObjectRK21ChiFeature2Identifier+0x15c>
   276a0: 82 ff ff b0  	adrp	x2, 0x18000 <_ZNK22ChiFeature2RealTimeMCX18DeActivatePipelineEP24ChiFeature2RequestObjectRK21ChiFeature2Identifier+0x164>
   276a4: 45 ff ff d0  	adrp	x5, 0x11000 <_ZNK22ChiFeature2RealTimeMCX18DeActivatePipelineEP24ChiFeature2RequestObjectRK21ChiFeature2Identifier+0x14c>
   276c4: 36 ff ff d0  	adrp	x22, 0xd000 <_ZNK22ChiFeature2RealTimeMCX18DeActivatePipelineEP24ChiFeature2RequestObjectRK21ChiFeature2Identifier+0x15c>
   276e0: 29 ff ff d0  	adrp	x9, 0xd000 <_ZNK22ChiFeature2RealTimeMCX18DeActivatePipelineEP24ChiFeature2RequestObjectRK21ChiFeature2Identifier+0x178>
   276f4: 80 ff ff 90  	adrp	x0, 0x17000 <_ZNK22ChiFeature2RealTimeMCX18DeActivatePipelineEP24ChiFeature2RequestObjectRK21ChiFeature2Identifier+0x1b4>
   276f8: 61 ff ff 90  	adrp	x1, 0x13000 <_ZNK22ChiFeature2RealTimeMCX18DeActivatePipelineEP24ChiFeature2RequestObjectRK21ChiFeature2Identifier+0x1a8>
   276fc: 43 ff ff d0  	adrp	x3, 0x11000 <_ZNK22ChiFeature2RealTimeMCX18DeActivatePipelineEP24ChiFeature2RequestObjectRK21ChiFeature2Identifier+0x1a4>
   27700: 65 ff ff f0  	adrp	x5, 0x16000 <_ZNK22ChiFeature2RealTimeMCX18DeActivatePipelineEP24ChiFeature2RequestObjectRK21ChiFeature2Identifier+0x1bc>
   2771c: b1 c0 00 94  	bl	0x579e0 <_ZN6ChiLog9LogSystemEPKcS1_S1_S1_iS1_z@plt>
   2772c: 9d c1 00 94  	bl	0x57da0 <_ZNK15ChiFeature2Base18DeActivatePipelineEPK21ChiFeature2Identifierj@plt>
0000000000027748 <_ZNK22ChiFeature2RealTimeMCX28ParallelPipelineDeactivationEPK21ChiFeature2IdentifierNSt3__14pairImmEEm>:
   27788: f7 01 00 b4  	cbz	x23, 0x277c4 <_ZNK22ChiFeature2RealTimeMCX28ParallelPipelineDeactivationEPK21ChiFeature2IdentifierNSt3__14pairImmEEm+0x7c>
   277c0: 44 c1 00 14  	b	0x57cd0 <_ZN16CHIThreadManager7PostJobEmPvm@plt>
00000000000277e8 <_ZNK22ChiFeature2RealTimeMCX24ParallelPipelineActivateEPK21ChiFeature2Identifierm>:
   27814: d5 01 00 b4  	cbz	x21, 0x2784c <_ZNK22ChiFeature2RealTimeMCX24ParallelPipelineActivateEPK21ChiFeature2Identifierm+0x64>
   27848: 22 c1 00 14  	b	0x57cd0 <_ZN16CHIThreadManager7PostJobEmPvm@plt>
0000000000027860 <_ZNK22ChiFeature2RealTimeMCX21CheckForZSLQueueResetEP24ChiFeature2RequestObject>:
   27860: 61 01 00 b4  	cbz	x1, 0x2788c <_ZNK22ChiFeature2RealTimeMCX21CheckForZSLQueueResetEP24ChiFeature2RequestObject+0x2c>
   27868: 28 01 00 b4  	cbz	x8, 0x2788c <_ZNK22ChiFeature2RealTimeMCX21CheckForZSLQueueResetEP24ChiFeature2RequestObject+0x2c>
   27870: e9 00 28 36  	tbz	w9, #5, 0x2788c <_ZNK22ChiFeature2RealTimeMCX21CheckForZSLQueueResetEP24ChiFeature2RequestObject+0x2c>
   27878: a9 00 00 b4  	cbz	x9, 0x2788c <_ZNK22ChiFeature2RealTimeMCX21CheckForZSLQueueResetEP24ChiFeature2RequestObject+0x2c>
0000000000027898 <_ZNK22ChiFeature2RealTimeMCX19GetNumDummyRequestsEP24ChiFeature2RequestObject>:
   27898: a1 01 00 b4  	cbz	x1, 0x278cc <_ZNK22ChiFeature2RealTimeMCX19GetNumDummyRequestsEP24ChiFeature2RequestObject+0x34>
   278a0: 68 01 00 b4  	cbz	x8, 0x278cc <_ZNK22ChiFeature2RealTimeMCX19GetNumDummyRequestsEP24ChiFeature2RequestObject+0x34>
   278a8: 29 01 28 36  	tbz	w9, #5, 0x278cc <_ZNK22ChiFeature2RealTimeMCX19GetNumDummyRequestsEP24ChiFeature2RequestObject+0x34>
   278b0: ea 00 00 35  	cbnz	w10, 0x278cc <_ZNK22ChiFeature2RealTimeMCX19GetNumDummyRequestsEP24ChiFeature2RequestObject+0x34>
   278b8: a9 00 00 b4  	cbz	x9, 0x278cc <_ZNK22ChiFeature2RealTimeMCX19GetNumDummyRequestsEP24ChiFeature2RequestObject+0x34>
00000000000278d8 <_ZN22ChiFeature2RealTimeMCX18OnInitializeStreamEPK23ChiTargetPortDescriptorPK25ChiFeature2PortDescriptorPN15ChiFeature2Base20ChiFeatureStreamDataE>:
   278f8: d4 01 00 b0  	adrp	x20, 0x60000 <_ZN22ChiFeature2RealTimeMCX18OnInitializeStreamEPK23ChiTargetPortDescriptorPK25ChiFeature2PortDescriptorPN15ChiFeature2Base20ChiFeatureStreamDataE+0x104>
   27918: e1 02 00 b4  	cbz	x1, 0x27974 <_ZN22ChiFeature2RealTimeMCX18OnInitializeStreamEPK23ChiTargetPortDescriptorPK25ChiFeature2PortDescriptorPN15ChiFeature2Base20ChiFeatureStreamDataE+0x9c>
   2791c: dc 02 00 b4  	cbz	x28, 0x27974 <_ZN22ChiFeature2RealTimeMCX18OnInitializeStreamEPK23ChiTargetPortDescriptorPK25ChiFeature2PortDescriptorPN15ChiFeature2Base20ChiFeatureStreamDataE+0x9c>
   27920: b3 02 00 b4  	cbz	x19, 0x27974 <_ZN22ChiFeature2RealTimeMCX18OnInitializeStreamEPK23ChiTargetPortDescriptorPK25ChiFeature2PortDescriptorPN15ChiFeature2Base20ChiFeatureStreamDataE+0x9c>
   27928: 7a 02 00 b4  	cbz	x26, 0x27974 <_ZN22ChiFeature2RealTimeMCX18OnInitializeStreamEPK23ChiTargetPortDescriptorPK25ChiFeature2PortDescriptorPN15ChiFeature2Base20ChiFeatureStreamDataE+0x9c>
   27938: 68 08 00 54  	b.hi	0x27a44 <_ZN22ChiFeature2RealTimeMCX18OnInitializeStreamEPK23ChiTargetPortDescriptorPK25ChiFeature2PortDescriptorPN15ChiFeature2Base20ChiFeatureStreamDataE+0x16c>
   27944: a8 08 00 54  	b.hi	0x27a58 <_ZN22ChiFeature2RealTimeMCX18OnInitializeStreamEPK23ChiTargetPortDescriptorPK25ChiFeature2PortDescriptorPN15ChiFeature2Base20ChiFeatureStreamDataE+0x180>
   2796c: ec 07 28 37  	tbnz	w12, #5, 0x27a68 <_ZN22ChiFeature2RealTimeMCX18OnInitializeStreamEPK23ChiTargetPortDescriptorPK25ChiFeature2PortDescriptorPN15ChiFeature2Base20ChiFeatureStreamDataE+0x190>
   27970: 80 00 00 14  	b	0x27b70 <_ZN22ChiFeature2RealTimeMCX18OnInitializeStreamEPK23ChiTargetPortDescriptorPK25ChiFeature2PortDescriptorPN15ChiFeature2Base20ChiFeatureStreamDataE+0x298>
   27978: 69 00 00 37  	tbnz	w9, #0, 0x27984 <_ZN22ChiFeature2RealTimeMCX18OnInitializeStreamEPK23ChiTargetPortDescriptorPK25ChiFeature2PortDescriptorPN15ChiFeature2Base20ChiFeatureStreamDataE+0xac>
   27980: 1f 03 00 14  	b	0x285fc <_ZN22ChiFeature2RealTimeMCX18OnInitializeStreamEPK23ChiTargetPortDescriptorPK25ChiFeature2PortDescriptorPN15ChiFeature2Base20ChiFeatureStreamDataE+0xd24>
   27984: cf 01 00 b0  	adrp	x15, 0x60000 <_ZN22ChiFeature2RealTimeMCX18OnInitializeStreamEPK23ChiTargetPortDescriptorPK25ChiFeature2PortDescriptorPN15ChiFeature2Base20ChiFeatureStreamDataE+0x190>
   27994: a1 02 00 54  	b.ne	0x279e8 <_ZN22ChiFeature2RealTimeMCX18OnInitializeStreamEPK23ChiTargetPortDescriptorPK25ChiFeature2PortDescriptorPN15ChiFeature2Base20ChiFeatureStreamDataE+0x110>
   27998: 34 ff ff d0  	adrp	x20, 0xd000 <_ZN22ChiFeature2RealTimeMCX18OnInitializeStreamEPK23ChiTargetPortDescriptorPK25ChiFeature2PortDescriptorPN15ChiFeature2Base20ChiFeatureStreamDataE+0x58>
   279b4: 81 ff ff 90  	adrp	x1, 0x17000 <_ZN22ChiFeature2RealTimeMCX18OnInitializeStreamEPK23ChiTargetPortDescriptorPK25ChiFeature2PortDescriptorPN15ChiFeature2Base20ChiFeatureStreamDataE+0x9c>
   279b8: 42 ff ff 90  	adrp	x2, 0xf000 <_ZN22ChiFeature2RealTimeMCX18OnInitializeStreamEPK23ChiTargetPortDescriptorPK25ChiFeature2PortDescriptorPN15ChiFeature2Base20ChiFeatureStreamDataE+0x80>
   279bc: 65 ff ff b0  	adrp	x5, 0x14000 <_ZN22ChiFeature2RealTimeMCX18OnInitializeStreamEPK23ChiTargetPortDescriptorPK25ChiFeature2PortDescriptorPN15ChiFeature2Base20ChiFeatureStreamDataE+0x98>
   279e8: 38 ff ff d0  	adrp	x24, 0xd000 <_ZN22ChiFeature2RealTimeMCX18OnInitializeStreamEPK23ChiTargetPortDescriptorPK25ChiFeature2PortDescriptorPN15ChiFeature2Base20ChiFeatureStreamDataE+0xa8>
   27a04: 81 ff ff 90  	adrp	x1, 0x17000 <_ZN22ChiFeature2RealTimeMCX18OnInitializeStreamEPK23ChiTargetPortDescriptorPK25ChiFeature2PortDescriptorPN15ChiFeature2Base20ChiFeatureStreamDataE+0xec>
   27a0c: 20 ff ff d0  	adrp	x0, 0xd000 <_ZN22ChiFeature2RealTimeMCX18OnInitializeStreamEPK23ChiTargetPortDescriptorPK25ChiFeature2PortDescriptorPN15ChiFeature2Base20ChiFeatureStreamDataE+0xcc>
   27a10: 63 ff ff b0  	adrp	x3, 0x14000 <_ZN22ChiFeature2RealTimeMCX18OnInitializeStreamEPK23ChiTargetPortDescriptorPK25ChiFeature2PortDescriptorPN15ChiFeature2Base20ChiFeatureStreamDataE+0xec>
   27a14: 65 ff ff d0  	adrp	x5, 0x15000 <_ZN22ChiFeature2RealTimeMCX18OnInitializeStreamEPK23ChiTargetPortDescriptorPK25ChiFeature2PortDescriptorPN15ChiFeature2Base20ChiFeatureStreamDataE+0xf4>
   27a38: ea bf 00 94  	bl	0x579e0 <_ZN6ChiLog9LogSystemEPKcS1_S1_S1_iS1_z@plt>
   27a40: ef 02 00 14  	b	0x285fc <_ZN22ChiFeature2RealTimeMCX18OnInitializeStreamEPK23ChiTargetPortDescriptorPK25ChiFeature2PortDescriptorPN15ChiFeature2Base20ChiFeatureStreamDataE+0xd24>
   27a50: cc 00 28 37  	tbnz	w12, #5, 0x27a68 <_ZN22ChiFeature2RealTimeMCX18OnInitializeStreamEPK23ChiTargetPortDescriptorPK25ChiFeature2PortDescriptorPN15ChiFeature2Base20ChiFeatureStreamDataE+0x190>
   27a54: 47 00 00 14  	b	0x27b70 <_ZN22ChiFeature2RealTimeMCX18OnInitializeStreamEPK23ChiTargetPortDescriptorPK25ChiFeature2PortDescriptorPN15ChiFeature2Base20ChiFeatureStreamDataE+0x298>
   27a64: 6c 08 28 36  	tbz	w12, #5, 0x27b70 <_ZN22ChiFeature2RealTimeMCX18OnInitializeStreamEPK23ChiTargetPortDescriptorPK25ChiFeature2PortDescriptorPN15ChiFeature2Base20ChiFeatureStreamDataE+0x298>
   27a68: d0 01 00 b0  	adrp	x16, 0x60000 <_ZN22ChiFeature2RealTimeMCX18OnInitializeStreamEPK23ChiTargetPortDescriptorPK25ChiFeature2PortDescriptorPN15ChiFeature2Base20ChiFeatureStreamDataE+0x274>
   27a6c: 38 ff ff d0  	adrp	x24, 0xd000 <_ZN22ChiFeature2RealTimeMCX18OnInitializeStreamEPK23ChiTargetPortDescriptorPK25ChiFeature2PortDescriptorPN15ChiFeature2Base20ChiFeatureStreamDataE+0x12c>
   27a80: c1 03 00 54  	b.ne	0x27af8 <_ZN22ChiFeature2RealTimeMCX18OnInitializeStreamEPK23ChiTargetPortDescriptorPK25ChiFeature2PortDescriptorPN15ChiFeature2Base20ChiFeatureStreamDataE+0x220>
   27a9c: 81 ff ff 90  	adrp	x1, 0x17000 <_ZN22ChiFeature2RealTimeMCX18OnInitializeStreamEPK23ChiTargetPortDescriptorPK25ChiFeature2PortDescriptorPN15ChiFeature2Base20ChiFeatureStreamDataE+0x184>
   27aac: 22 ff ff b0  	adrp	x2, 0xc000 <_ZN22ChiFeature2RealTimeMCX18OnInitializeStreamEPK23ChiTargetPortDescriptorPK25ChiFeature2PortDescriptorPN15ChiFeature2Base20ChiFeatureStreamDataE+0x168>
   27ac4: 65 ff ff b0  	adrp	x5, 0x14000 <_ZN22ChiFeature2RealTimeMCX18OnInitializeStreamEPK23ChiTargetPortDescriptorPK25ChiFeature2PortDescriptorPN15ChiFeature2Base20ChiFeatureStreamDataE+0x1a0>
   27b10: 63 ff ff b0  	adrp	x3, 0x14000 <_ZN22ChiFeature2RealTimeMCX18OnInitializeStreamEPK23ChiTargetPortDescriptorPK25ChiFeature2PortDescriptorPN15ChiFeature2Base20ChiFeatureStreamDataE+0x1ec>
   27b20: 80 ff ff 90  	adrp	x0, 0x17000 <_ZN22ChiFeature2RealTimeMCX18OnInitializeStreamEPK23ChiTargetPortDescriptorPK25ChiFeature2PortDescriptorPN15ChiFeature2Base20ChiFeatureStreamDataE+0x208>
   27b38: 61 ff ff 90  	adrp	x1, 0x13000 <_ZN22ChiFeature2RealTimeMCX18OnInitializeStreamEPK23ChiTargetPortDescriptorPK25ChiFeature2PortDescriptorPN15ChiFeature2Base20ChiFeatureStreamDataE+0x210>
   27b40: 65 ff ff f0  	adrp	x5, 0x16000 <_ZN22ChiFeature2RealTimeMCX18OnInitializeStreamEPK23ChiTargetPortDescriptorPK25ChiFeature2PortDescriptorPN15ChiFeature2Base20ChiFeatureStreamDataE+0x224>
   27b6c: 9d bf 00 94  	bl	0x579e0 <_ZN6ChiLog9LogSystemEPKcS1_S1_S1_iS1_z@plt>
   27b78: b8 02 00 94  	bl	0x28658 <_ZN22ChiFeature2RealTimeMCX18OnInitializeStreamEPK23ChiTargetPortDescriptorPK25ChiFeature2PortDescriptorPN15ChiFeature2Base20ChiFeatureStreamDataE+0xd80>
   27b80: 00 c0 00 94  	bl	0x57b80 <_ZN15ExtensionModule11GetInstanceEv@plt>
   27b8c: 2d 01 00 b4  	cbz	x13, 0x27bb0 <_ZN22ChiFeature2RealTimeMCX18OnInitializeStreamEPK23ChiTargetPortDescriptorPK25ChiFeature2PortDescriptorPN15ChiFeature2Base20ChiFeatureStreamDataE+0x2d8>
   27b98: c1 00 00 54  	b.ne	0x27bb0 <_ZN22ChiFeature2RealTimeMCX18OnInitializeStreamEPK23ChiTargetPortDescriptorPK25ChiFeature2PortDescriptorPN15ChiFeature2Base20ChiFeatureStreamDataE+0x2d8>
   27bac: 02 00 00 14  	b	0x27bb4 <_ZN22ChiFeature2RealTimeMCX18OnInitializeStreamEPK23ChiTargetPortDescriptorPK25ChiFeature2PortDescriptorPN15ChiFeature2Base20ChiFeatureStreamDataE+0x2dc>
   27bc4: 08 35 00 54  	b.hi	0x28264 <_ZN22ChiFeature2RealTimeMCX18OnInitializeStreamEPK23ChiTargetPortDescriptorPK25ChiFeature2PortDescriptorPN15ChiFeature2Base20ChiFeatureStreamDataE+0x98c>
   27bdc: 00 07 00 54  	b.eq	0x27cbc <_ZN22ChiFeature2RealTimeMCX18OnInitializeStreamEPK23ChiTargetPortDescriptorPK25ChiFeature2PortDescriptorPN15ChiFeature2Base20ChiFeatureStreamDataE+0x3e4>
   27bfc: 01 03 00 94  	bl	0x28800 <_ZN22ChiFeature2RealTimeMCX18OnInitializeStreamEPK23ChiTargetPortDescriptorPK25ChiFeature2PortDescriptorPN15ChiFeature2Base20ChiFeatureStreamDataE+0xf28>
   27c00: 20 33 00 b4  	cbz	x0, 0x28264 <_ZN22ChiFeature2RealTimeMCX18OnInitializeStreamEPK23ChiTargetPortDescriptorPK25ChiFeature2PortDescriptorPN15ChiFeature2Base20ChiFeatureStreamDataE+0x98c>
   27c0c: 00 25 28 36  	tbz	w0, #5, 0x280ac <_ZN22ChiFeature2RealTimeMCX18OnInitializeStreamEPK23ChiTargetPortDescriptorPK25ChiFeature2PortDescriptorPN15ChiFeature2Base20ChiFeatureStreamDataE+0x7d4>
   27c10: d1 01 00 b0  	adrp	x17, 0x60000 <_ZN22ChiFeature2RealTimeMCX18OnInitializeStreamEPK23ChiTargetPortDescriptorPK25ChiFeature2PortDescriptorPN15ChiFeature2Base20ChiFeatureStreamDataE+0x41c>
   27c20: 61 02 00 54  	b.ne	0x27c6c <_ZN22ChiFeature2RealTimeMCX18OnInitializeStreamEPK23ChiTargetPortDescriptorPK25ChiFeature2PortDescriptorPN15ChiFeature2Base20ChiFeatureStreamDataE+0x394>
   27c24: 38 ff ff d0  	adrp	x24, 0xd000 <_ZN22ChiFeature2RealTimeMCX18OnInitializeStreamEPK23ChiTargetPortDescriptorPK25ChiFeature2PortDescriptorPN15ChiFeature2Base20ChiFeatureStreamDataE+0x2e4>
   27c44: 81 ff ff 90  	adrp	x1, 0x17000 <_ZN22ChiFeature2RealTimeMCX18OnInitializeStreamEPK23ChiTargetPortDescriptorPK25ChiFeature2PortDescriptorPN15ChiFeature2Base20ChiFeatureStreamDataE+0x32c>
   27c48: 42 ff ff 90  	adrp	x2, 0xf000 <_ZN22ChiFeature2RealTimeMCX18OnInitializeStreamEPK23ChiTargetPortDescriptorPK25ChiFeature2PortDescriptorPN15ChiFeature2Base20ChiFeatureStreamDataE+0x310>
   27c4c: 65 ff ff b0  	adrp	x5, 0x14000 <_ZN22ChiFeature2RealTimeMCX18OnInitializeStreamEPK23ChiTargetPortDescriptorPK25ChiFeature2PortDescriptorPN15ChiFeature2Base20ChiFeatureStreamDataE+0x328>
   27c6c: 33 ff ff d0  	adrp	x19, 0xd000 <_ZN22ChiFeature2RealTimeMCX18OnInitializeStreamEPK23ChiTargetPortDescriptorPK25ChiFeature2PortDescriptorPN15ChiFeature2Base20ChiFeatureStreamDataE+0x32c>
   27c88: 61 ff ff 90  	adrp	x1, 0x13000 <_ZN22ChiFeature2RealTimeMCX18OnInitializeStreamEPK23ChiTargetPortDescriptorPK25ChiFeature2PortDescriptorPN15ChiFeature2Base20ChiFeatureStreamDataE+0x360>
   27c94: 80 ff ff 90  	adrp	x0, 0x17000 <_ZN22ChiFeature2RealTimeMCX18OnInitializeStreamEPK23ChiTargetPortDescriptorPK25ChiFeature2PortDescriptorPN15ChiFeature2Base20ChiFeatureStreamDataE+0x37c>
   27c98: 63 ff ff b0  	adrp	x3, 0x14000 <_ZN22ChiFeature2RealTimeMCX18OnInitializeStreamEPK23ChiTargetPortDescriptorPK25ChiFeature2PortDescriptorPN15ChiFeature2Base20ChiFeatureStreamDataE+0x374>
   27c9c: 45 ff ff 90  	adrp	x5, 0xf000 <_ZN22ChiFeature2RealTimeMCX18OnInitializeStreamEPK23ChiTargetPortDescriptorPK25ChiFeature2PortDescriptorPN15ChiFeature2Base20ChiFeatureStreamDataE+0x364>
   27cb4: 4b bf 00 94  	bl	0x579e0 <_ZN6ChiLog9LogSystemEPKcS1_S1_S1_iS1_z@plt>
   27cb8: fd 00 00 14  	b	0x280ac <_ZN22ChiFeature2RealTimeMCX18OnInitializeStreamEPK23ChiTargetPortDescriptorPK25ChiFeature2PortDescriptorPN15ChiFeature2Base20ChiFeatureStreamDataE+0x7d4>
   27cd0: a0 2c 00 54  	b.eq	0x28264 <_ZN22ChiFeature2RealTimeMCX18OnInitializeStreamEPK23ChiTargetPortDescriptorPK25ChiFeature2PortDescriptorPN15ChiFeature2Base20ChiFeatureStreamDataE+0x98c>
   27cec: a9 00 00 54  	b.ls	0x27d00 <_ZN22ChiFeature2RealTimeMCX18OnInitializeStreamEPK23ChiTargetPortDescriptorPK25ChiFeature2PortDescriptorPN15ChiFeature2Base20ChiFeatureStreamDataE+0x428>
   27cfc: 02 00 00 14  	b	0x27d04 <_ZN22ChiFeature2RealTimeMCX18OnInitializeStreamEPK23ChiTargetPortDescriptorPK25ChiFeature2PortDescriptorPN15ChiFeature2Base20ChiFeatureStreamDataE+0x42c>
   27d08: a8 06 00 b4  	cbz	x8, 0x27ddc <_ZN22ChiFeature2RealTimeMCX18OnInitializeStreamEPK23ChiTargetPortDescriptorPK25ChiFeature2PortDescriptorPN15ChiFeature2Base20ChiFeatureStreamDataE+0x504>
   27d10: 81 03 00 36  	tbz	w1, #0, 0x27d80 <_ZN22ChiFeature2RealTimeMCX18OnInitializeStreamEPK23ChiTargetPortDescriptorPK25ChiFeature2PortDescriptorPN15ChiFeature2Base20ChiFeatureStreamDataE+0x4a8>
   27d28: c1 02 00 54  	b.ne	0x27d80 <_ZN22ChiFeature2RealTimeMCX18OnInitializeStreamEPK23ChiTargetPortDescriptorPK25ChiFeature2PortDescriptorPN15ChiFeature2Base20ChiFeatureStreamDataE+0x4a8>
   27d34: 61 02 00 54  	b.ne	0x27d80 <_ZN22ChiFeature2RealTimeMCX18OnInitializeStreamEPK23ChiTargetPortDescriptorPK25ChiFeature2PortDescriptorPN15ChiFeature2Base20ChiFeatureStreamDataE+0x4a8>
   27d74: 8d 07 00 94  	bl	0x29ba8 <_ZN22ChiFeature2RealTimeMCX18OnInitializeStreamEPK23ChiTargetPortDescriptorPK25ChiFeature2PortDescriptorPN15ChiFeature2Base20ChiFeatureStreamDataE+0x22d0>
   27d7c: 08 03 00 b4  	cbz	x8, 0x27ddc <_ZN22ChiFeature2RealTimeMCX18OnInitializeStreamEPK23ChiTargetPortDescriptorPK25ChiFeature2PortDescriptorPN15ChiFeature2Base20ChiFeatureStreamDataE+0x504>
   27d84: c6 02 08 36  	tbz	w6, #1, 0x27ddc <_ZN22ChiFeature2RealTimeMCX18OnInitializeStreamEPK23ChiTargetPortDescriptorPK25ChiFeature2PortDescriptorPN15ChiFeature2Base20ChiFeatureStreamDataE+0x504>
   27da8: a1 01 00 54  	b.ne	0x27ddc <_ZN22ChiFeature2RealTimeMCX18OnInitializeStreamEPK23ChiTargetPortDescriptorPK25ChiFeature2PortDescriptorPN15ChiFeature2Base20ChiFeatureStreamDataE+0x504>
   27db4: 41 01 00 54  	b.ne	0x27ddc <_ZN22ChiFeature2RealTimeMCX18OnInitializeStreamEPK23ChiTargetPortDescriptorPK25ChiFeature2PortDescriptorPN15ChiFeature2Base20ChiFeatureStreamDataE+0x504>
   27dd8: 74 07 00 94  	bl	0x29ba8 <_ZN22ChiFeature2RealTimeMCX18OnInitializeStreamEPK23ChiTargetPortDescriptorPK25ChiFeature2PortDescriptorPN15ChiFeature2Base20ChiFeatureStreamDataE+0x22d0>
   27e04: 20 01 00 54  	b.eq	0x27e28 <_ZN22ChiFeature2RealTimeMCX18OnInitializeStreamEPK23ChiTargetPortDescriptorPK25ChiFeature2PortDescriptorPN15ChiFeature2Base20ChiFeatureStreamDataE+0x550>
   27e0c: e7 00 00 34  	cbz	w7, 0x27e28 <_ZN22ChiFeature2RealTimeMCX18OnInitializeStreamEPK23ChiTargetPortDescriptorPK25ChiFeature2PortDescriptorPN15ChiFeature2Base20ChiFeatureStreamDataE+0x550>
   27e20: 60 02 00 54  	b.eq	0x27e6c <_ZN22ChiFeature2RealTimeMCX18OnInitializeStreamEPK23ChiTargetPortDescriptorPK25ChiFeature2PortDescriptorPN15ChiFeature2Base20ChiFeatureStreamDataE+0x594>
   27e24: 2e 00 00 14  	b	0x27edc <_ZN22ChiFeature2RealTimeMCX18OnInitializeStreamEPK23ChiTargetPortDescriptorPK25ChiFeature2PortDescriptorPN15ChiFeature2Base20ChiFeatureStreamDataE+0x604>
   27e4c: 7b 00 00 b4  	cbz	x27, 0x27e58 <_ZN22ChiFeature2RealTimeMCX18OnInitializeStreamEPK23ChiTargetPortDescriptorPK25ChiFeature2PortDescriptorPN15ChiFeature2Base20ChiFeatureStreamDataE+0x580>
   27e68: a1 03 00 54  	b.ne	0x27edc <_ZN22ChiFeature2RealTimeMCX18OnInitializeStreamEPK23ChiTargetPortDescriptorPK25ChiFeature2PortDescriptorPN15ChiFeature2Base20ChiFeatureStreamDataE+0x604>
   27e70: c9 00 00 54  	b.ls	0x27e88 <_ZN22ChiFeature2RealTimeMCX18OnInitializeStreamEPK23ChiTargetPortDescriptorPK25ChiFeature2PortDescriptorPN15ChiFeature2Base20ChiFeatureStreamDataE+0x5b0>
   27e84: 16 00 00 14  	b	0x27edc <_ZN22ChiFeature2RealTimeMCX18OnInitializeStreamEPK23ChiTargetPortDescriptorPK25ChiFeature2PortDescriptorPN15ChiFeature2Base20ChiFeatureStreamDataE+0x604>
   27ea8: 6e 3d 00 b5  	cbnz	x14, 0x28654 <_ZN22ChiFeature2RealTimeMCX18OnInitializeStreamEPK23ChiTargetPortDescriptorPK25ChiFeature2PortDescriptorPN15ChiFeature2Base20ChiFeatureStreamDataE+0xd7c>
   27ecc: 7b 00 00 b4  	cbz	x27, 0x27ed8 <_ZN22ChiFeature2RealTimeMCX18OnInitializeStreamEPK23ChiTargetPortDescriptorPK25ChiFeature2PortDescriptorPN15ChiFeature2Base20ChiFeatureStreamDataE+0x600>
   27edc: 29 bf 00 94  	bl	0x57b80 <_ZN15ExtensionModule11GetInstanceEv@plt>
   27ee8: 0e 01 00 b4  	cbz	x14, 0x27f08 <_ZN22ChiFeature2RealTimeMCX18OnInitializeStreamEPK23ChiTargetPortDescriptorPK25ChiFeature2PortDescriptorPN15ChiFeature2Base20ChiFeatureStreamDataE+0x630>
   27ef4: a1 00 00 54  	b.ne	0x27f08 <_ZN22ChiFeature2RealTimeMCX18OnInitializeStreamEPK23ChiTargetPortDescriptorPK25ChiFeature2PortDescriptorPN15ChiFeature2Base20ChiFeatureStreamDataE+0x630>
   27f0c: 00 03 00 54  	b.eq	0x27f6c <_ZN22ChiFeature2RealTimeMCX18OnInitializeStreamEPK23ChiTargetPortDescriptorPK25ChiFeature2PortDescriptorPN15ChiFeature2Base20ChiFeatureStreamDataE+0x694>
   27f44: 2f 02 00 94  	bl	0x28800 <_ZN22ChiFeature2RealTimeMCX18OnInitializeStreamEPK23ChiTargetPortDescriptorPK25ChiFeature2PortDescriptorPN15ChiFeature2Base20ChiFeatureStreamDataE+0xf28>
   27f48: c0 01 00 b5  	cbnz	x0, 0x27f80 <_ZN22ChiFeature2RealTimeMCX18OnInitializeStreamEPK23ChiTargetPortDescriptorPK25ChiFeature2PortDescriptorPN15ChiFeature2Base20ChiFeatureStreamDataE+0x6a8>
   27f50: a1 fe ff 54  	b.ne	0x27f24 <_ZN22ChiFeature2RealTimeMCX18OnInitializeStreamEPK23ChiTargetPortDescriptorPK25ChiFeature2PortDescriptorPN15ChiFeature2Base20ChiFeatureStreamDataE+0x64c>
   27f54: d4 01 00 b0  	adrp	x20, 0x60000 <_ZN22ChiFeature2RealTimeMCX18OnInitializeStreamEPK23ChiTargetPortDescriptorPK25ChiFeature2PortDescriptorPN15ChiFeature2Base20ChiFeatureStreamDataE+0x760>
   27f68: 4c 00 00 14  	b	0x28098 <_ZN22ChiFeature2RealTimeMCX18OnInitializeStreamEPK23ChiTargetPortDescriptorPK25ChiFeature2PortDescriptorPN15ChiFeature2Base20ChiFeatureStreamDataE+0x7c0>
   27f6c: d4 01 00 b0  	adrp	x20, 0x60000 <_ZN22ChiFeature2RealTimeMCX18OnInitializeStreamEPK23ChiTargetPortDescriptorPK25ChiFeature2PortDescriptorPN15ChiFeature2Base20ChiFeatureStreamDataE+0x778>
   27f7c: 48 00 00 14  	b	0x2809c <_ZN22ChiFeature2RealTimeMCX18OnInitializeStreamEPK23ChiTargetPortDescriptorPK25ChiFeature2PortDescriptorPN15ChiFeature2Base20ChiFeatureStreamDataE+0x7c4>
   27f80: d4 01 00 b0  	adrp	x20, 0x60000 <_ZN22ChiFeature2RealTimeMCX18OnInitializeStreamEPK23ChiTargetPortDescriptorPK25ChiFeature2PortDescriptorPN15ChiFeature2Base20ChiFeatureStreamDataE+0x78c>
   27f94: 69 00 28 37  	tbnz	w9, #5, 0x27fa0 <_ZN22ChiFeature2RealTimeMCX18OnInitializeStreamEPK23ChiTargetPortDescriptorPK25ChiFeature2PortDescriptorPN15ChiFeature2Base20ChiFeatureStreamDataE+0x6c8>
   27f9c: 3f 00 00 14  	b	0x28098 <_ZN22ChiFeature2RealTimeMCX18OnInitializeStreamEPK23ChiTargetPortDescriptorPK25ChiFeature2PortDescriptorPN15ChiFeature2Base20ChiFeatureStreamDataE+0x7c0>
   27fa0: c6 01 00 b0  	adrp	x6, 0x60000 <_ZN22ChiFeature2RealTimeMCX18OnInitializeStreamEPK23ChiTargetPortDescriptorPK25ChiFeature2PortDescriptorPN15ChiFeature2Base20ChiFeatureStreamDataE+0x7ac>
   27fb0: a1 03 00 54  	b.ne	0x28024 <_ZN22ChiFeature2RealTimeMCX18OnInitializeStreamEPK23ChiTargetPortDescriptorPK25ChiFeature2PortDescriptorPN15ChiFeature2Base20ChiFeatureStreamDataE+0x74c>
   27fb4: 3c ff ff d0  	adrp	x28, 0xd000 <_ZN22ChiFeature2RealTimeMCX18OnInitializeStreamEPK23ChiTargetPortDescriptorPK25ChiFeature2PortDescriptorPN15ChiFeature2Base20ChiFeatureStreamDataE+0x674>
   27fd8: 81 ff ff 90  	adrp	x1, 0x17000 <_ZN22ChiFeature2RealTimeMCX18OnInitializeStreamEPK23ChiTargetPortDescriptorPK25ChiFeature2PortDescriptorPN15ChiFeature2Base20ChiFeatureStreamDataE+0x6c0>
   27fdc: 62 ff ff d0  	adrp	x2, 0x15000 <_ZN22ChiFeature2RealTimeMCX18OnInitializeStreamEPK23ChiTargetPortDescriptorPK25ChiFeature2PortDescriptorPN15ChiFeature2Base20ChiFeatureStreamDataE+0x6bc>
   27fe4: 65 ff ff b0  	adrp	x5, 0x14000 <_ZN22ChiFeature2RealTimeMCX18OnInitializeStreamEPK23ChiTargetPortDescriptorPK25ChiFeature2PortDescriptorPN15ChiFeature2Base20ChiFeatureStreamDataE+0x6c0>
   28024: 38 ff ff b0  	adrp	x24, 0xd000 <_ZN22ChiFeature2RealTimeMCX18OnInitializeStreamEPK23ChiTargetPortDescriptorPK25ChiFeature2PortDescriptorPN15ChiFeature2Base20ChiFeatureStreamDataE+0x6e0>
   2804c: 60 ff ff f0  	adrp	x0, 0x17000 <_ZN22ChiFeature2RealTimeMCX18OnInitializeStreamEPK23ChiTargetPortDescriptorPK25ChiFeature2PortDescriptorPN15ChiFeature2Base20ChiFeatureStreamDataE+0x730>
   28054: 41 ff ff f0  	adrp	x1, 0x13000 <_ZN22ChiFeature2RealTimeMCX18OnInitializeStreamEPK23ChiTargetPortDescriptorPK25ChiFeature2PortDescriptorPN15ChiFeature2Base20ChiFeatureStreamDataE+0x728>
   2805c: 63 ff ff 90  	adrp	x3, 0x14000 <_ZN22ChiFeature2RealTimeMCX18OnInitializeStreamEPK23ChiTargetPortDescriptorPK25ChiFeature2PortDescriptorPN15ChiFeature2Base20ChiFeatureStreamDataE+0x734>
   28060: 65 ff ff 90  	adrp	x5, 0x14000 <_ZN22ChiFeature2RealTimeMCX18OnInitializeStreamEPK23ChiTargetPortDescriptorPK25ChiFeature2PortDescriptorPN15ChiFeature2Base20ChiFeatureStreamDataE+0x738>
   28094: 53 be 00 94  	bl	0x579e0 <_ZN6ChiLog9LogSystemEPKcS1_S1_S1_iS1_z@plt>
   2809c: 7b 00 00 b4  	cbz	x27, 0x280a8 <_ZN22ChiFeature2RealTimeMCX18OnInitializeStreamEPK23ChiTargetPortDescriptorPK25ChiFeature2PortDescriptorPN15ChiFeature2Base20ChiFeatureStreamDataE+0x7d0>
   280a8: f9 0d 00 b4  	cbz	x25, 0x28264 <_ZN22ChiFeature2RealTimeMCX18OnInitializeStreamEPK23ChiTargetPortDescriptorPK25ChiFeature2PortDescriptorPN15ChiFeature2Base20ChiFeatureStreamDataE+0x98c>
   280b8: c8 2b 00 54  	b.hi	0x28630 <_ZN22ChiFeature2RealTimeMCX18OnInitializeStreamEPK23ChiTargetPortDescriptorPK25ChiFeature2PortDescriptorPN15ChiFeature2Base20ChiFeatureStreamDataE+0xd58>
   280d0: 00 2b 00 54  	b.eq	0x28630 <_ZN22ChiFeature2RealTimeMCX18OnInitializeStreamEPK23ChiTargetPortDescriptorPK25ChiFeature2PortDescriptorPN15ChiFeature2Base20ChiFeatureStreamDataE+0xd58>
   280fc: 07 07 18 36  	tbz	w7, #3, 0x281dc <_ZN22ChiFeature2RealTimeMCX18OnInitializeStreamEPK23ChiTargetPortDescriptorPK25ChiFeature2PortDescriptorPN15ChiFeature2Base20ChiFeatureStreamDataE+0x904>
   28100: d5 01 00 90  	adrp	x21, 0x60000 <_ZN22ChiFeature2RealTimeMCX18OnInitializeStreamEPK23ChiTargetPortDescriptorPK25ChiFeature2PortDescriptorPN15ChiFeature2Base20ChiFeatureStreamDataE+0x908>
   28110: 21 03 00 54  	b.ne	0x28174 <_ZN22ChiFeature2RealTimeMCX18OnInitializeStreamEPK23ChiTargetPortDescriptorPK25ChiFeature2PortDescriptorPN15ChiFeature2Base20ChiFeatureStreamDataE+0x89c>
   28114: 33 ff ff b0  	adrp	x19, 0xd000 <_ZN22ChiFeature2RealTimeMCX18OnInitializeStreamEPK23ChiTargetPortDescriptorPK25ChiFeature2PortDescriptorPN15ChiFeature2Base20ChiFeatureStreamDataE+0x7d0>
   28134: 61 ff ff f0  	adrp	x1, 0x17000 <_ZN22ChiFeature2RealTimeMCX18OnInitializeStreamEPK23ChiTargetPortDescriptorPK25ChiFeature2PortDescriptorPN15ChiFeature2Base20ChiFeatureStreamDataE+0x818>
   2813c: 22 ff ff f0  	adrp	x2, 0xf000 <_ZN22ChiFeature2RealTimeMCX18OnInitializeStreamEPK23ChiTargetPortDescriptorPK25ChiFeature2PortDescriptorPN15ChiFeature2Base20ChiFeatureStreamDataE+0x800>
   28144: 65 ff ff 90  	adrp	x5, 0x14000 <_ZN22ChiFeature2RealTimeMCX18OnInitializeStreamEPK23ChiTargetPortDescriptorPK25ChiFeature2PortDescriptorPN15ChiFeature2Base20ChiFeatureStreamDataE+0x81c>
   28174: 3c ff ff b0  	adrp	x28, 0xd000 <_ZN22ChiFeature2RealTimeMCX18OnInitializeStreamEPK23ChiTargetPortDescriptorPK25ChiFeature2PortDescriptorPN15ChiFeature2Base20ChiFeatureStreamDataE+0x830>
   2819c: 80 ff ff 90  	adrp	x0, 0x18000 <_ZN22ChiFeature2RealTimeMCX18OnInitializeStreamEPK23ChiTargetPortDescriptorPK25ChiFeature2PortDescriptorPN15ChiFeature2Base20ChiFeatureStreamDataE+0x884>
   281a4: 41 ff ff d0  	adrp	x1, 0x12000 <_ZN22ChiFeature2RealTimeMCX18OnInitializeStreamEPK23ChiTargetPortDescriptorPK25ChiFeature2PortDescriptorPN15ChiFeature2Base20ChiFeatureStreamDataE+0x874>
   281a8: 63 ff ff 90  	adrp	x3, 0x14000 <_ZN22ChiFeature2RealTimeMCX18OnInitializeStreamEPK23ChiTargetPortDescriptorPK25ChiFeature2PortDescriptorPN15ChiFeature2Base20ChiFeatureStreamDataE+0x880>
   281ac: 65 ff ff f0  	adrp	x5, 0x17000 <_ZN22ChiFeature2RealTimeMCX18OnInitializeStreamEPK23ChiTargetPortDescriptorPK25ChiFeature2PortDescriptorPN15ChiFeature2Base20ChiFeatureStreamDataE+0x890>
   281d4: 03 be 00 94  	bl	0x579e0 <_ZN6ChiLog9LogSystemEPKcS1_S1_S1_iS1_z@plt>
   281e0: 83 17 00 54  	b.lo	0x284d0 <_ZN22ChiFeature2RealTimeMCX18OnInitializeStreamEPK23ChiTargetPortDescriptorPK25ChiFeature2PortDescriptorPN15ChiFeature2Base20ChiFeatureStreamDataE+0xbf8>
   2825c: 06 1d 00 35  	cbnz	w6, 0x285fc <_ZN22ChiFeature2RealTimeMCX18OnInitializeStreamEPK23ChiTargetPortDescriptorPK25ChiFeature2PortDescriptorPN15ChiFeature2Base20ChiFeatureStreamDataE+0xd24>
   28260: 9f 00 00 14  	b	0x284dc <_ZN22ChiFeature2RealTimeMCX18OnInitializeStreamEPK23ChiTargetPortDescriptorPK25ChiFeature2PortDescriptorPN15ChiFeature2Base20ChiFeatureStreamDataE+0xc04>
   28278: 00 07 00 54  	b.eq	0x28358 <_ZN22ChiFeature2RealTimeMCX18OnInitializeStreamEPK23ChiTargetPortDescriptorPK25ChiFeature2PortDescriptorPN15ChiFeature2Base20ChiFeatureStreamDataE+0xa80>
   28290: c2 00 00 54  	b.hs	0x282a8 <_ZN22ChiFeature2RealTimeMCX18OnInitializeStreamEPK23ChiTargetPortDescriptorPK25ChiFeature2PortDescriptorPN15ChiFeature2Base20ChiFeatureStreamDataE+0x9d0>
   28294: 2b 00 00 14  	b	0x28340 <_ZN22ChiFeature2RealTimeMCX18OnInitializeStreamEPK23ChiTargetPortDescriptorPK25ChiFeature2PortDescriptorPN15ChiFeature2Base20ChiFeatureStreamDataE+0xa68>
   282a4: e3 04 00 54  	b.lo	0x28340 <_ZN22ChiFeature2RealTimeMCX18OnInitializeStreamEPK23ChiTargetPortDescriptorPK25ChiFeature2PortDescriptorPN15ChiFeature2Base20ChiFeatureStreamDataE+0xa68>
   282bc: 60 1c 00 b5  	cbnz	x0, 0x28648 <_ZN22ChiFeature2RealTimeMCX18OnInitializeStreamEPK23ChiTargetPortDescriptorPK25ChiFeature2PortDescriptorPN15ChiFeature2Base20ChiFeatureStreamDataE+0xd70>
   282dc: 18 01 00 b4  	cbz	x24, 0x282fc <_ZN22ChiFeature2RealTimeMCX18OnInitializeStreamEPK23ChiTargetPortDescriptorPK25ChiFeature2PortDescriptorPN15ChiFeature2Base20ChiFeatureStreamDataE+0xa24>
   282e4: 86 1b 00 b5  	cbnz	x6, 0x28654 <_ZN22ChiFeature2RealTimeMCX18OnInitializeStreamEPK23ChiTargetPortDescriptorPK25ChiFeature2PortDescriptorPN15ChiFeature2Base20ChiFeatureStreamDataE+0xd7c>
   282f8: 02 00 00 14  	b	0x28300 <_ZN22ChiFeature2RealTimeMCX18OnInitializeStreamEPK23ChiTargetPortDescriptorPK25ChiFeature2PortDescriptorPN15ChiFeature2Base20ChiFeatureStreamDataE+0xa28>
   28310: ab 00 00 54  	b.lt	0x28324 <_ZN22ChiFeature2RealTimeMCX18OnInitializeStreamEPK23ChiTargetPortDescriptorPK25ChiFeature2PortDescriptorPN15ChiFeature2Base20ChiFeatureStreamDataE+0xa4c>
   2832c: f3 00 00 b4  	cbz	x19, 0x28348 <_ZN22ChiFeature2RealTimeMCX18OnInitializeStreamEPK23ChiTargetPortDescriptorPK25ChiFeature2PortDescriptorPN15ChiFeature2Base20ChiFeatureStreamDataE+0xa70>
   2833c: 03 00 00 14  	b	0x28348 <_ZN22ChiFeature2RealTimeMCX18OnInitializeStreamEPK23ChiTargetPortDescriptorPK25ChiFeature2PortDescriptorPN15ChiFeature2Base20ChiFeatureStreamDataE+0xa70>
   28354: 28 fa ff 54  	b.hi	0x28298 <_ZN22ChiFeature2RealTimeMCX18OnInitializeStreamEPK23ChiTargetPortDescriptorPK25ChiFeature2PortDescriptorPN15ChiFeature2Base20ChiFeatureStreamDataE+0x9c0>
   283b8: 30 ff ff 90  	adrp	x16, 0xc000 <_ZN22ChiFeature2RealTimeMCX18OnInitializeStreamEPK23ChiTargetPortDescriptorPK25ChiFeature2PortDescriptorPN15ChiFeature2Base20ChiFeatureStreamDataE+0xa70>
   283d4: 77 be 00 94  	bl	0x57db0 <_ZN16ChiFeature2Utils15GetTargetStreamEPK17LogicalCameraInfoPK23ChiTargetPortDescriptorPP9ChiStreamjS8_S7_RNSt3__16vectorIiNS9_9allocatorIiEEEERNSA_IS7_NSB_IS7_EEEEPKci@plt>
   283d8: d4 01 00 90  	adrp	x20, 0x60000 <_ZN22ChiFeature2RealTimeMCX18OnInitializeStreamEPK23ChiTargetPortDescriptorPK25ChiFeature2PortDescriptorPN15ChiFeature2Base20ChiFeatureStreamDataE+0xbe0>
   283ec: 20 06 00 34  	cbz	w0, 0x284b0 <_ZN22ChiFeature2RealTimeMCX18OnInitializeStreamEPK23ChiTargetPortDescriptorPK25ChiFeature2PortDescriptorPN15ChiFeature2Base20ChiFeatureStreamDataE+0xbd8>
   283f4: e2 05 00 36  	tbz	w2, #0, 0x284b0 <_ZN22ChiFeature2RealTimeMCX18OnInitializeStreamEPK23ChiTargetPortDescriptorPK25ChiFeature2PortDescriptorPN15ChiFeature2Base20ChiFeatureStreamDataE+0xbd8>
   283f8: d3 01 00 90  	adrp	x19, 0x60000 <_ZN22ChiFeature2RealTimeMCX18OnInitializeStreamEPK23ChiTargetPortDescriptorPK25ChiFeature2PortDescriptorPN15ChiFeature2Base20ChiFeatureStreamDataE+0xc00>
   28408: c1 02 00 54  	b.ne	0x28460 <_ZN22ChiFeature2RealTimeMCX18OnInitializeStreamEPK23ChiTargetPortDescriptorPK25ChiFeature2PortDescriptorPN15ChiFeature2Base20ChiFeatureStreamDataE+0xb88>
   2840c: 34 ff ff b0  	adrp	x20, 0xd000 <_ZN22ChiFeature2RealTimeMCX18OnInitializeStreamEPK23ChiTargetPortDescriptorPK25ChiFeature2PortDescriptorPN15ChiFeature2Base20ChiFeatureStreamDataE+0xac8>
   28430: d4 01 00 90  	adrp	x20, 0x60000 <_ZN22ChiFeature2RealTimeMCX18OnInitializeStreamEPK23ChiTargetPortDescriptorPK25ChiFeature2PortDescriptorPN15ChiFeature2Base20ChiFeatureStreamDataE+0xc38>
   28434: 61 ff ff f0  	adrp	x1, 0x17000 <_ZN22ChiFeature2RealTimeMCX18OnInitializeStreamEPK23ChiTargetPortDescriptorPK25ChiFeature2PortDescriptorPN15ChiFeature2Base20ChiFeatureStreamDataE+0xb18>
   28438: 42 ff ff f0  	adrp	x2, 0x13000 <_ZN22ChiFeature2RealTimeMCX18OnInitializeStreamEPK23ChiTargetPortDescriptorPK25ChiFeature2PortDescriptorPN15ChiFeature2Base20ChiFeatureStreamDataE+0xb0c>
   2843c: 65 ff ff 90  	adrp	x5, 0x14000 <_ZN22ChiFeature2RealTimeMCX18OnInitializeStreamEPK23ChiTargetPortDescriptorPK25ChiFeature2PortDescriptorPN15ChiFeature2Base20ChiFeatureStreamDataE+0xb14>
   28460: 3a ff ff b0  	adrp	x26, 0xd000 <_ZN22ChiFeature2RealTimeMCX18OnInitializeStreamEPK23ChiTargetPortDescriptorPK25ChiFeature2PortDescriptorPN15ChiFeature2Base20ChiFeatureStreamDataE+0xb1c>
   28484: 20 ff ff b0  	adrp	x0, 0xd000 <_ZN22ChiFeature2RealTimeMCX18OnInitializeStreamEPK23ChiTargetPortDescriptorPK25ChiFeature2PortDescriptorPN15ChiFeature2Base20ChiFeatureStreamDataE+0xb40>
   28488: 61 ff ff f0  	adrp	x1, 0x17000 <_ZN22ChiFeature2RealTimeMCX18OnInitializeStreamEPK23ChiTargetPortDescriptorPK25ChiFeature2PortDescriptorPN15ChiFeature2Base20ChiFeatureStreamDataE+0xb6c>
   2848c: 63 ff ff 90  	adrp	x3, 0x14000 <_ZN22ChiFeature2RealTimeMCX18OnInitializeStreamEPK23ChiTargetPortDescriptorPK25ChiFeature2PortDescriptorPN15ChiFeature2Base20ChiFeatureStreamDataE+0xb64>
   28490: 45 ff ff b0  	adrp	x5, 0x11000 <_ZN22ChiFeature2RealTimeMCX18OnInitializeStreamEPK23ChiTargetPortDescriptorPK25ChiFeature2PortDescriptorPN15ChiFeature2Base20ChiFeatureStreamDataE+0xb5c>
   284ac: 4d bd 00 94  	bl	0x579e0 <_ZN6ChiLog9LogSystemEPKcS1_S1_S1_iS1_z@plt>
   284b8: 60 00 00 b4  	cbz	x0, 0x284c4 <_ZN22ChiFeature2RealTimeMCX18OnInitializeStreamEPK23ChiTargetPortDescriptorPK25ChiFeature2PortDescriptorPN15ChiFeature2Base20ChiFeatureStreamDataE+0xbec>
   284c8: a6 09 00 35  	cbnz	w6, 0x285fc <_ZN22ChiFeature2RealTimeMCX18OnInitializeStreamEPK23ChiTargetPortDescriptorPK25ChiFeature2PortDescriptorPN15ChiFeature2Base20ChiFeatureStreamDataE+0xd24>
   284cc: 04 00 00 14  	b	0x284dc <_ZN22ChiFeature2RealTimeMCX18OnInitializeStreamEPK23ChiTargetPortDescriptorPK25ChiFeature2PortDescriptorPN15ChiFeature2Base20ChiFeatureStreamDataE+0xc04>
   284d8: 26 09 00 35  	cbnz	w6, 0x285fc <_ZN22ChiFeature2RealTimeMCX18OnInitializeStreamEPK23ChiTargetPortDescriptorPK25ChiFeature2PortDescriptorPN15ChiFeature2Base20ChiFeatureStreamDataE+0xd24>
   284e0: e7 08 00 35  	cbnz	w7, 0x285fc <_ZN22ChiFeature2RealTimeMCX18OnInitializeStreamEPK23ChiTargetPortDescriptorPK25ChiFeature2PortDescriptorPN15ChiFeature2Base20ChiFeatureStreamDataE+0xd24>
   284f0: 40 08 00 54  	b.eq	0x285f8 <_ZN22ChiFeature2RealTimeMCX18OnInitializeStreamEPK23ChiTargetPortDescriptorPK25ChiFeature2PortDescriptorPN15ChiFeature2Base20ChiFeatureStreamDataE+0xd20>
   284f4: 38 ff ff b0  	adrp	x24, 0xd000 <_ZN22ChiFeature2RealTimeMCX18OnInitializeStreamEPK23ChiTargetPortDescriptorPK25ChiFeature2PortDescriptorPN15ChiFeature2Base20ChiFeatureStreamDataE+0xbb0>
   284f8: 76 ff ff 90  	adrp	x22, 0x14000 <_ZN22ChiFeature2RealTimeMCX18OnInitializeStreamEPK23ChiTargetPortDescriptorPK25ChiFeature2PortDescriptorPN15ChiFeature2Base20ChiFeatureStreamDataE+0xbd0>
   28510: 1a 00 00 14  	b	0x28578 <_ZN22ChiFeature2RealTimeMCX18OnInitializeStreamEPK23ChiTargetPortDescriptorPK25ChiFeature2PortDescriptorPN15ChiFeature2Base20ChiFeatureStreamDataE+0xca0>
   28534: 60 ff ff f0  	adrp	x0, 0x17000 <_ZN22ChiFeature2RealTimeMCX18OnInitializeStreamEPK23ChiTargetPortDescriptorPK25ChiFeature2PortDescriptorPN15ChiFeature2Base20ChiFeatureStreamDataE+0xc18>
   2853c: 41 ff ff f0  	adrp	x1, 0x13000 <_ZN22ChiFeature2RealTimeMCX18OnInitializeStreamEPK23ChiTargetPortDescriptorPK25ChiFeature2PortDescriptorPN15ChiFeature2Base20ChiFeatureStreamDataE+0xc10>
   28540: 65 ff ff d0  	adrp	x5, 0x16000 <_ZN22ChiFeature2RealTimeMCX18OnInitializeStreamEPK23ChiTargetPortDescriptorPK25ChiFeature2PortDescriptorPN15ChiFeature2Base20ChiFeatureStreamDataE+0xc20>
   28568: 1e bd 00 94  	bl	0x579e0 <_ZN6ChiLog9LogSystemEPKcS1_S1_S1_iS1_z@plt>
   28574: 20 04 00 54  	b.eq	0x285f8 <_ZN22ChiFeature2RealTimeMCX18OnInitializeStreamEPK23ChiTargetPortDescriptorPK25ChiFeature2PortDescriptorPN15ChiFeature2Base20ChiFeatureStreamDataE+0xd20>
   28580: 67 ff ff b4  	cbz	x7, 0x2856c <_ZN22ChiFeature2RealTimeMCX18OnInitializeStreamEPK23ChiTargetPortDescriptorPK25ChiFeature2PortDescriptorPN15ChiFeature2Base20ChiFeatureStreamDataE+0xc94>
   28588: 28 ff 2f 36  	tbz	w8, #5, 0x2856c <_ZN22ChiFeature2RealTimeMCX18OnInitializeStreamEPK23ChiTargetPortDescriptorPK25ChiFeature2PortDescriptorPN15ChiFeature2Base20ChiFeatureStreamDataE+0xc94>
   2858c: cc 01 00 90  	adrp	x12, 0x60000 <_ZN22ChiFeature2RealTimeMCX18OnInitializeStreamEPK23ChiTargetPortDescriptorPK25ChiFeature2PortDescriptorPN15ChiFeature2Base20ChiFeatureStreamDataE+0xd94>
   2859c: c1 fb ff 54  	b.ne	0x28514 <_ZN22ChiFeature2RealTimeMCX18OnInitializeStreamEPK23ChiTargetPortDescriptorPK25ChiFeature2PortDescriptorPN15ChiFeature2Base20ChiFeatureStreamDataE+0xc3c>
   285bc: 61 ff ff f0  	adrp	x1, 0x17000 <_ZN22ChiFeature2RealTimeMCX18OnInitializeStreamEPK23ChiTargetPortDescriptorPK25ChiFeature2PortDescriptorPN15ChiFeature2Base20ChiFeatureStreamDataE+0xca0>
   285c0: 22 ff ff d0  	adrp	x2, 0xe000 <_ZN22ChiFeature2RealTimeMCX18OnInitializeStreamEPK23ChiTargetPortDescriptorPK25ChiFeature2PortDescriptorPN15ChiFeature2Base20ChiFeatureStreamDataE+0xc80>
   285f4: c8 ff ff 17  	b	0x28514 <_ZN22ChiFeature2RealTimeMCX18OnInitializeStreamEPK23ChiTargetPortDescriptorPK25ChiFeature2PortDescriptorPN15ChiFeature2Base20ChiFeatureStreamDataE+0xc3c>
   28608: 41 02 00 54  	b.ne	0x28650 <_ZN22ChiFeature2RealTimeMCX18OnInitializeStreamEPK23ChiTargetPortDescriptorPK25ChiFeature2PortDescriptorPN15ChiFeature2Base20ChiFeatureStreamDataE+0xd78>
   28644: a5 fe ff 17  	b	0x280d8 <_ZN22ChiFeature2RealTimeMCX18OnInitializeStreamEPK23ChiTargetPortDescriptorPK25ChiFeature2PortDescriptorPN15ChiFeature2Base20ChiFeatureStreamDataE+0x800>
   2864c: 55 bd 00 94  	bl	0x57ba0 <_ZNKSt3__120__vector_base_commonILb1EE20__throw_length_errorEv@plt>
   28674: 43 bd 00 94  	bl	0x57b80 <_ZN15ExtensionModule11GetInstanceEv@plt>
   2867c: 08 07 00 b4  	cbz	x8, 0x2875c <_ZN22ChiFeature2RealTimeMCX18OnInitializeStreamEPK23ChiTargetPortDescriptorPK25ChiFeature2PortDescriptorPN15ChiFeature2Base20ChiFeatureStreamDataE+0xe84>
   28690: 34 06 00 35  	cbnz	w20, 0x28754 <_ZN22ChiFeature2RealTimeMCX18OnInitializeStreamEPK23ChiTargetPortDescriptorPK25ChiFeature2PortDescriptorPN15ChiFeature2Base20ChiFeatureStreamDataE+0xe7c>
   2869c: c1 05 00 54  	b.ne	0x28754 <_ZN22ChiFeature2RealTimeMCX18OnInitializeStreamEPK23ChiTargetPortDescriptorPK25ChiFeature2PortDescriptorPN15ChiFeature2Base20ChiFeatureStreamDataE+0xe7c>
   286a0: ca 01 00 90  	adrp	x10, 0x60000 <_ZN22ChiFeature2RealTimeMCX18OnInitializeStreamEPK23ChiTargetPortDescriptorPK25ChiFeature2PortDescriptorPN15ChiFeature2Base20ChiFeatureStreamDataE+0xea8>
   286ac: e9 04 18 36  	tbz	w9, #3, 0x28748 <_ZN22ChiFeature2RealTimeMCX18OnInitializeStreamEPK23ChiTargetPortDescriptorPK25ChiFeature2PortDescriptorPN15ChiFeature2Base20ChiFeatureStreamDataE+0xe70>
   286b0: cb 01 00 90  	adrp	x11, 0x60000 <_ZN22ChiFeature2RealTimeMCX18OnInitializeStreamEPK23ChiTargetPortDescriptorPK25ChiFeature2PortDescriptorPN15ChiFeature2Base20ChiFeatureStreamDataE+0xeb8>
   286b4: 74 ff ff b0  	adrp	x20, 0x15000 <_ZN22ChiFeature2RealTimeMCX18OnInitializeStreamEPK23ChiTargetPortDescriptorPK25ChiFeature2PortDescriptorPN15ChiFeature2Base20ChiFeatureStreamDataE+0xd90>
   286c8: 01 02 00 54  	b.ne	0x28708 <_ZN22ChiFeature2RealTimeMCX18OnInitializeStreamEPK23ChiTargetPortDescriptorPK25ChiFeature2PortDescriptorPN15ChiFeature2Base20ChiFeatureStreamDataE+0xe30>
   286e0: 61 ff ff f0  	adrp	x1, 0x17000 <_ZN22ChiFeature2RealTimeMCX18OnInitializeStreamEPK23ChiTargetPortDescriptorPK25ChiFeature2PortDescriptorPN15ChiFeature2Base20ChiFeatureStreamDataE+0xdc4>
   286e4: 62 ff ff d0  	adrp	x2, 0x16000 <_ZN22ChiFeature2RealTimeMCX18OnInitializeStreamEPK23ChiTargetPortDescriptorPK25ChiFeature2PortDescriptorPN15ChiFeature2Base20ChiFeatureStreamDataE+0xdc4>
   286e8: 85 ff ff 90  	adrp	x5, 0x18000 <_ZN22ChiFeature2RealTimeMCX18OnInitializeStreamEPK23ChiTargetPortDescriptorPK25ChiFeature2PortDescriptorPN15ChiFeature2Base20ChiFeatureStreamDataE+0xdd0>
   2871c: 41 ff ff d0  	adrp	x1, 0x12000 <_ZN22ChiFeature2RealTimeMCX18OnInitializeStreamEPK23ChiTargetPortDescriptorPK25ChiFeature2PortDescriptorPN15ChiFeature2Base20ChiFeatureStreamDataE+0xdec>
   28724: 80 ff ff 90  	adrp	x0, 0x18000 <_ZN22ChiFeature2RealTimeMCX18OnInitializeStreamEPK23ChiTargetPortDescriptorPK25ChiFeature2PortDescriptorPN15ChiFeature2Base20ChiFeatureStreamDataE+0xe0c>
   28728: 83 ff ff 90  	adrp	x3, 0x18000 <_ZN22ChiFeature2RealTimeMCX18OnInitializeStreamEPK23ChiTargetPortDescriptorPK25ChiFeature2PortDescriptorPN15ChiFeature2Base20ChiFeatureStreamDataE+0xe10>
   2872c: 65 ff ff d0  	adrp	x5, 0x16000 <_ZN22ChiFeature2RealTimeMCX18OnInitializeStreamEPK23ChiTargetPortDescriptorPK25ChiFeature2PortDescriptorPN15ChiFeature2Base20ChiFeatureStreamDataE+0xe0c>
   28744: a7 bc 00 94  	bl	0x579e0 <_ZN6ChiLog9LogSystemEPKcS1_S1_S1_iS1_z@plt>
   28754: f3 00 00 b5  	cbnz	x19, 0x28770 <_ZN22ChiFeature2RealTimeMCX18OnInitializeStreamEPK23ChiTargetPortDescriptorPK25ChiFeature2PortDescriptorPN15ChiFeature2Base20ChiFeatureStreamDataE+0xe98>
   28758: 15 00 00 14  	b	0x287ac <_ZN22ChiFeature2RealTimeMCX18OnInitializeStreamEPK23ChiTargetPortDescriptorPK25ChiFeature2PortDescriptorPN15ChiFeature2Base20ChiFeatureStreamDataE+0xed4>
   2876c: 13 02 00 b4  	cbz	x19, 0x287ac <_ZN22ChiFeature2RealTimeMCX18OnInitializeStreamEPK23ChiTargetPortDescriptorPK25ChiFeature2PortDescriptorPN15ChiFeature2Base20ChiFeatureStreamDataE+0xed4>
   28774: d7 01 00 34  	cbz	w23, 0x287ac <_ZN22ChiFeature2RealTimeMCX18OnInitializeStreamEPK23ChiTargetPortDescriptorPK25ChiFeature2PortDescriptorPN15ChiFeature2Base20ChiFeatureStreamDataE+0xed4>
   2877c: 34 ff ff d0  	adrp	x20, 0xe000 <_ZN22ChiFeature2RealTimeMCX18OnInitializeStreamEPK23ChiTargetPortDescriptorPK25ChiFeature2PortDescriptorPN15ChiFeature2Base20ChiFeatureStreamDataE+0xe3c>
   28798: 80 01 00 34  	cbz	w0, 0x287c8 <_ZN22ChiFeature2RealTimeMCX18OnInitializeStreamEPK23ChiTargetPortDescriptorPK25ChiFeature2PortDescriptorPN15ChiFeature2Base20ChiFeatureStreamDataE+0xef0>
   287a8: 21 ff ff 54  	b.ne	0x2878c <_ZN22ChiFeature2RealTimeMCX18OnInitializeStreamEPK23ChiTargetPortDescriptorPK25ChiFeature2PortDescriptorPN15ChiFeature2Base20ChiFeatureStreamDataE+0xeb4>
   287ac: f5 bc 00 94  	bl	0x57b80 <_ZN15ExtensionModule11GetInstanceEv@plt>
   287b4: 49 01 00 b4  	cbz	x9, 0x287dc <_ZN22ChiFeature2RealTimeMCX18OnInitializeStreamEPK23ChiTargetPortDescriptorPK25ChiFeature2PortDescriptorPN15ChiFeature2Base20ChiFeatureStreamDataE+0xf04>
   287c4: 07 00 00 14  	b	0x287e0 <_ZN22ChiFeature2RealTimeMCX18OnInitializeStreamEPK23ChiTargetPortDescriptorPK25ChiFeature2PortDescriptorPN15ChiFeature2Base20ChiFeatureStreamDataE+0xf08>
   287d0: ec bc 00 94  	bl	0x57b80 <_ZN15ExtensionModule11GetInstanceEv@plt>
   287d8: 09 ff ff b5  	cbnz	x9, 0x287b8 <_ZN22ChiFeature2RealTimeMCX18OnInitializeStreamEPK23ChiTargetPortDescriptorPK25ChiFeature2PortDescriptorPN15ChiFeature2Base20ChiFeatureStreamDataE+0xee0>
   28828: 40 9a 00 54  	b.eq	0x29b70 <_ZN22ChiFeature2RealTimeMCX18OnInitializeStreamEPK23ChiTargetPortDescriptorPK25ChiFeature2PortDescriptorPN15ChiFeature2Base20ChiFeatureStreamDataE+0x2298>
   28894: d5 05 00 34  	cbz	w21, 0x2894c <_ZN22ChiFeature2RealTimeMCX18OnInitializeStreamEPK23ChiTargetPortDescriptorPK25ChiFeature2PortDescriptorPN15ChiFeature2Base20ChiFeatureStreamDataE+0x1074>
   288a4: 4f 09 00 34  	cbz	w15, 0x289cc <_ZN22ChiFeature2RealTimeMCX18OnInitializeStreamEPK23ChiTargetPortDescriptorPK25ChiFeature2PortDescriptorPN15ChiFeature2Base20ChiFeatureStreamDataE+0x10f4>
   288a8: 14 0d 00 b4  	cbz	x20, 0x28a48 <_ZN22ChiFeature2RealTimeMCX18OnInitializeStreamEPK23ChiTargetPortDescriptorPK25ChiFeature2PortDescriptorPN15ChiFeature2Base20ChiFeatureStreamDataE+0x1170>
   288ac: 49 14 00 54  	b.ls	0x28b34 <_ZN22ChiFeature2RealTimeMCX18OnInitializeStreamEPK23ChiTargetPortDescriptorPK25ChiFeature2PortDescriptorPN15ChiFeature2Base20ChiFeatureStreamDataE+0x125c>
   288c0: 40 27 00 54  	b.eq	0x28da8 <_ZN22ChiFeature2RealTimeMCX18OnInitializeStreamEPK23ChiTargetPortDescriptorPK25ChiFeature2PortDescriptorPN15ChiFeature2Base20ChiFeatureStreamDataE+0x14d0>
   288d0: 06 00 00 14  	b	0x288e8 <_ZN22ChiFeature2RealTimeMCX18OnInitializeStreamEPK23ChiTargetPortDescriptorPK25ChiFeature2PortDescriptorPN15ChiFeature2Base20ChiFeatureStreamDataE+0x1010>
   288e4: 40 94 00 54  	b.eq	0x29b6c <_ZN22ChiFeature2RealTimeMCX18OnInitializeStreamEPK23ChiTargetPortDescriptorPK25ChiFeature2PortDescriptorPN15ChiFeature2Base20ChiFeatureStreamDataE+0x2294>
   288f4: c1 00 00 54  	b.ne	0x2890c <_ZN22ChiFeature2RealTimeMCX18OnInitializeStreamEPK23ChiTargetPortDescriptorPK25ChiFeature2PortDescriptorPN15ChiFeature2Base20ChiFeatureStreamDataE+0x1034>
   28908: 02 00 00 14  	b	0x28910 <_ZN22ChiFeature2RealTimeMCX18OnInitializeStreamEPK23ChiTargetPortDescriptorPK25ChiFeature2PortDescriptorPN15ChiFeature2Base20ChiFeatureStreamDataE+0x1038>
   28930: 21 fd ff 54  	b.ne	0x288d4 <_ZN22ChiFeature2RealTimeMCX18OnInitializeStreamEPK23ChiTargetPortDescriptorPK25ChiFeature2PortDescriptorPN15ChiFeature2Base20ChiFeatureStreamDataE+0xffc>
   28938: e0 fc ff b4  	cbz	x0, 0x288d4 <_ZN22ChiFeature2RealTimeMCX18OnInitializeStreamEPK23ChiTargetPortDescriptorPK25ChiFeature2PortDescriptorPN15ChiFeature2Base20ChiFeatureStreamDataE+0xffc>
   28944: 81 fc ff 54  	b.ne	0x288d4 <_ZN22ChiFeature2RealTimeMCX18OnInitializeStreamEPK23ChiTargetPortDescriptorPK25ChiFeature2PortDescriptorPN15ChiFeature2Base20ChiFeatureStreamDataE+0xffc>
   28948: 8a 04 00 14  	b	0x29b70 <_ZN22ChiFeature2RealTimeMCX18OnInitializeStreamEPK23ChiTargetPortDescriptorPK25ChiFeature2PortDescriptorPN15ChiFeature2Base20ChiFeatureStreamDataE+0x2298>
   28950: 34 0c 00 b4  	cbz	x20, 0x28ad4 <_ZN22ChiFeature2RealTimeMCX18OnInitializeStreamEPK23ChiTargetPortDescriptorPK25ChiFeature2PortDescriptorPN15ChiFeature2Base20ChiFeatureStreamDataE+0x11fc>
   28954: 89 13 00 54  	b.ls	0x28bc4 <_ZN22ChiFeature2RealTimeMCX18OnInitializeStreamEPK23ChiTargetPortDescriptorPK25ChiFeature2PortDescriptorPN15ChiFeature2Base20ChiFeatureStreamDataE+0x12ec>
   28968: 40 2d 00 54  	b.eq	0x28f10 <_ZN22ChiFeature2RealTimeMCX18OnInitializeStreamEPK23ChiTargetPortDescriptorPK25ChiFeature2PortDescriptorPN15ChiFeature2Base20ChiFeatureStreamDataE+0x1638>
   28978: 06 00 00 14  	b	0x28990 <_ZN22ChiFeature2RealTimeMCX18OnInitializeStreamEPK23ChiTargetPortDescriptorPK25ChiFeature2PortDescriptorPN15ChiFeature2Base20ChiFeatureStreamDataE+0x10b8>
   2898c: 00 8f 00 54  	b.eq	0x29b6c <_ZN22ChiFeature2RealTimeMCX18OnInitializeStreamEPK23ChiTargetPortDescriptorPK25ChiFeature2PortDescriptorPN15ChiFeature2Base20ChiFeatureStreamDataE+0x2294>
   289b0: 60 fe ff 54  	b.eq	0x2897c <_ZN22ChiFeature2RealTimeMCX18OnInitializeStreamEPK23ChiTargetPortDescriptorPK25ChiFeature2PortDescriptorPN15ChiFeature2Base20ChiFeatureStreamDataE+0x10a4>
   289b8: 20 fe ff b4  	cbz	x0, 0x2897c <_ZN22ChiFeature2RealTimeMCX18OnInitializeStreamEPK23ChiTargetPortDescriptorPK25ChiFeature2PortDescriptorPN15ChiFeature2Base20ChiFeatureStreamDataE+0x10a4>
   289c4: c1 fd ff 54  	b.ne	0x2897c <_ZN22ChiFeature2RealTimeMCX18OnInitializeStreamEPK23ChiTargetPortDescriptorPK25ChiFeature2PortDescriptorPN15ChiFeature2Base20ChiFeatureStreamDataE+0x10a4>
   289c8: 6a 04 00 14  	b	0x29b70 <_ZN22ChiFeature2RealTimeMCX18OnInitializeStreamEPK23ChiTargetPortDescriptorPK25ChiFeature2PortDescriptorPN15ChiFeature2Base20ChiFeatureStreamDataE+0x2298>
   289cc: 14 13 00 b4  	cbz	x20, 0x28c2c <_ZN22ChiFeature2RealTimeMCX18OnInitializeStreamEPK23ChiTargetPortDescriptorPK25ChiFeature2PortDescriptorPN15ChiFeature2Base20ChiFeatureStreamDataE+0x1354>
   289d0: e9 15 00 54  	b.ls	0x28c8c <_ZN22ChiFeature2RealTimeMCX18OnInitializeStreamEPK23ChiTargetPortDescriptorPK25ChiFeature2PortDescriptorPN15ChiFeature2Base20ChiFeatureStreamDataE+0x13b4>
   289e4: e0 34 00 54  	b.eq	0x29080 <_ZN22ChiFeature2RealTimeMCX18OnInitializeStreamEPK23ChiTargetPortDescriptorPK25ChiFeature2PortDescriptorPN15ChiFeature2Base20ChiFeatureStreamDataE+0x17a8>
   289f4: 06 00 00 14  	b	0x28a0c <_ZN22ChiFeature2RealTimeMCX18OnInitializeStreamEPK23ChiTargetPortDescriptorPK25ChiFeature2PortDescriptorPN15ChiFeature2Base20ChiFeatureStreamDataE+0x1134>
   28a08: 20 8b 00 54  	b.eq	0x29b6c <_ZN22ChiFeature2RealTimeMCX18OnInitializeStreamEPK23ChiTargetPortDescriptorPK25ChiFeature2PortDescriptorPN15ChiFeature2Base20ChiFeatureStreamDataE+0x2294>
   28a2c: 61 fe ff 54  	b.ne	0x289f8 <_ZN22ChiFeature2RealTimeMCX18OnInitializeStreamEPK23ChiTargetPortDescriptorPK25ChiFeature2PortDescriptorPN15ChiFeature2Base20ChiFeatureStreamDataE+0x1120>
   28a34: 20 fe ff b4  	cbz	x0, 0x289f8 <_ZN22ChiFeature2RealTimeMCX18OnInitializeStreamEPK23ChiTargetPortDescriptorPK25ChiFeature2PortDescriptorPN15ChiFeature2Base20ChiFeatureStreamDataE+0x1120>
   28a40: c1 fd ff 54  	b.ne	0x289f8 <_ZN22ChiFeature2RealTimeMCX18OnInitializeStreamEPK23ChiTargetPortDescriptorPK25ChiFeature2PortDescriptorPN15ChiFeature2Base20ChiFeatureStreamDataE+0x1120>
   28a44: 4b 04 00 14  	b	0x29b70 <_ZN22ChiFeature2RealTimeMCX18OnInitializeStreamEPK23ChiTargetPortDescriptorPK25ChiFeature2PortDescriptorPN15ChiFeature2Base20ChiFeatureStreamDataE+0x2298>
   28a48: 69 15 00 54  	b.ls	0x28cf4 <_ZN22ChiFeature2RealTimeMCX18OnInitializeStreamEPK23ChiTargetPortDescriptorPK25ChiFeature2PortDescriptorPN15ChiFeature2Base20ChiFeatureStreamDataE+0x141c>
   28a5c: 40 35 00 54  	b.eq	0x29104 <_ZN22ChiFeature2RealTimeMCX18OnInitializeStreamEPK23ChiTargetPortDescriptorPK25ChiFeature2PortDescriptorPN15ChiFeature2Base20ChiFeatureStreamDataE+0x182c>
   28a68: 06 00 00 14  	b	0x28a80 <_ZN22ChiFeature2RealTimeMCX18OnInitializeStreamEPK23ChiTargetPortDescriptorPK25ChiFeature2PortDescriptorPN15ChiFeature2Base20ChiFeatureStreamDataE+0x11a8>
   28a7c: 80 87 00 54  	b.eq	0x29b6c <_ZN22ChiFeature2RealTimeMCX18OnInitializeStreamEPK23ChiTargetPortDescriptorPK25ChiFeature2PortDescriptorPN15ChiFeature2Base20ChiFeatureStreamDataE+0x2294>
   28a8c: e1 00 00 54  	b.ne	0x28aa8 <_ZN22ChiFeature2RealTimeMCX18OnInitializeStreamEPK23ChiTargetPortDescriptorPK25ChiFeature2PortDescriptorPN15ChiFeature2Base20ChiFeatureStreamDataE+0x11d0>
   28aa0: 91 00 00 35  	cbnz	w17, 0x28ab0 <_ZN22ChiFeature2RealTimeMCX18OnInitializeStreamEPK23ChiTargetPortDescriptorPK25ChiFeature2PortDescriptorPN15ChiFeature2Base20ChiFeatureStreamDataE+0x11d8>
   28aa4: f2 ff ff 17  	b	0x28a6c <_ZN22ChiFeature2RealTimeMCX18OnInitializeStreamEPK23ChiTargetPortDescriptorPK25ChiFeature2PortDescriptorPN15ChiFeature2Base20ChiFeatureStreamDataE+0x1194>
   28aac: 11 fe ff 34  	cbz	w17, 0x28a6c <_ZN22ChiFeature2RealTimeMCX18OnInitializeStreamEPK23ChiTargetPortDescriptorPK25ChiFeature2PortDescriptorPN15ChiFeature2Base20ChiFeatureStreamDataE+0x1194>
   28ab8: a1 fd ff 54  	b.ne	0x28a6c <_ZN22ChiFeature2RealTimeMCX18OnInitializeStreamEPK23ChiTargetPortDescriptorPK25ChiFeature2PortDescriptorPN15ChiFeature2Base20ChiFeatureStreamDataE+0x1194>
   28ac0: 60 fd ff b4  	cbz	x0, 0x28a6c <_ZN22ChiFeature2RealTimeMCX18OnInitializeStreamEPK23ChiTargetPortDescriptorPK25ChiFeature2PortDescriptorPN15ChiFeature2Base20ChiFeatureStreamDataE+0x1194>
   28acc: 01 fd ff 54  	b.ne	0x28a6c <_ZN22ChiFeature2RealTimeMCX18OnInitializeStreamEPK23ChiTargetPortDescriptorPK25ChiFeature2PortDescriptorPN15ChiFeature2Base20ChiFeatureStreamDataE+0x1194>
   28ad0: 28 04 00 14  	b	0x29b70 <_ZN22ChiFeature2RealTimeMCX18OnInitializeStreamEPK23ChiTargetPortDescriptorPK25ChiFeature2PortDescriptorPN15ChiFeature2Base20ChiFeatureStreamDataE+0x2298>
   28ad4: 29 14 00 54  	b.ls	0x28d58 <_ZN22ChiFeature2RealTimeMCX18OnInitializeStreamEPK23ChiTargetPortDescriptorPK25ChiFeature2PortDescriptorPN15ChiFeature2Base20ChiFeatureStreamDataE+0x1480>
   28ae8: c0 3f 00 54  	b.eq	0x292e0 <_ZN22ChiFeature2RealTimeMCX18OnInitializeStreamEPK23ChiTargetPortDescriptorPK25ChiFeature2PortDescriptorPN15ChiFeature2Base20ChiFeatureStreamDataE+0x1a08>
   28af4: 06 00 00 14  	b	0x28b0c <_ZN22ChiFeature2RealTimeMCX18OnInitializeStreamEPK23ChiTargetPortDescriptorPK25ChiFeature2PortDescriptorPN15ChiFeature2Base20ChiFeatureStreamDataE+0x1234>
   28b08: 20 83 00 54  	b.eq	0x29b6c <_ZN22ChiFeature2RealTimeMCX18OnInitializeStreamEPK23ChiTargetPortDescriptorPK25ChiFeature2PortDescriptorPN15ChiFeature2Base20ChiFeatureStreamDataE+0x2294>
   28b18: 01 ff ff 54  	b.ne	0x28af8 <_ZN22ChiFeature2RealTimeMCX18OnInitializeStreamEPK23ChiTargetPortDescriptorPK25ChiFeature2PortDescriptorPN15ChiFeature2Base20ChiFeatureStreamDataE+0x1220>
   28b20: c0 fe ff b4  	cbz	x0, 0x28af8 <_ZN22ChiFeature2RealTimeMCX18OnInitializeStreamEPK23ChiTargetPortDescriptorPK25ChiFeature2PortDescriptorPN15ChiFeature2Base20ChiFeatureStreamDataE+0x1220>
   28b2c: 61 fe ff 54  	b.ne	0x28af8 <_ZN22ChiFeature2RealTimeMCX18OnInitializeStreamEPK23ChiTargetPortDescriptorPK25ChiFeature2PortDescriptorPN15ChiFeature2Base20ChiFeatureStreamDataE+0x1220>
   28b30: 10 04 00 14  	b	0x29b70 <_ZN22ChiFeature2RealTimeMCX18OnInitializeStreamEPK23ChiTargetPortDescriptorPK25ChiFeature2PortDescriptorPN15ChiFeature2Base20ChiFeatureStreamDataE+0x2298>
   28b38: 20 19 00 54  	b.eq	0x28e5c <_ZN22ChiFeature2RealTimeMCX18OnInitializeStreamEPK23ChiTargetPortDescriptorPK25ChiFeature2PortDescriptorPN15ChiFeature2Base20ChiFeatureStreamDataE+0x1584>
   28b48: 06 00 00 14  	b	0x28b60 <_ZN22ChiFeature2RealTimeMCX18OnInitializeStreamEPK23ChiTargetPortDescriptorPK25ChiFeature2PortDescriptorPN15ChiFeature2Base20ChiFeatureStreamDataE+0x1288>
   28b5c: 80 80 00 54  	b.eq	0x29b6c <_ZN22ChiFeature2RealTimeMCX18OnInitializeStreamEPK23ChiTargetPortDescriptorPK25ChiFeature2PortDescriptorPN15ChiFeature2Base20ChiFeatureStreamDataE+0x2294>
   28b6c: c1 00 00 54  	b.ne	0x28b84 <_ZN22ChiFeature2RealTimeMCX18OnInitializeStreamEPK23ChiTargetPortDescriptorPK25ChiFeature2PortDescriptorPN15ChiFeature2Base20ChiFeatureStreamDataE+0x12ac>
   28b80: 02 00 00 14  	b	0x28b88 <_ZN22ChiFeature2RealTimeMCX18OnInitializeStreamEPK23ChiTargetPortDescriptorPK25ChiFeature2PortDescriptorPN15ChiFeature2Base20ChiFeatureStreamDataE+0x12b0>
   28ba8: 21 fd ff 54  	b.ne	0x28b4c <_ZN22ChiFeature2RealTimeMCX18OnInitializeStreamEPK23ChiTargetPortDescriptorPK25ChiFeature2PortDescriptorPN15ChiFeature2Base20ChiFeatureStreamDataE+0x1274>
   28bb0: e0 fc ff b4  	cbz	x0, 0x28b4c <_ZN22ChiFeature2RealTimeMCX18OnInitializeStreamEPK23ChiTargetPortDescriptorPK25ChiFeature2PortDescriptorPN15ChiFeature2Base20ChiFeatureStreamDataE+0x1274>
   28bbc: 81 fc ff 54  	b.ne	0x28b4c <_ZN22ChiFeature2RealTimeMCX18OnInitializeStreamEPK23ChiTargetPortDescriptorPK25ChiFeature2PortDescriptorPN15ChiFeature2Base20ChiFeatureStreamDataE+0x1274>
   28bc0: ec 03 00 14  	b	0x29b70 <_ZN22ChiFeature2RealTimeMCX18OnInitializeStreamEPK23ChiTargetPortDescriptorPK25ChiFeature2PortDescriptorPN15ChiFeature2Base20ChiFeatureStreamDataE+0x2298>
   28bc8: c0 1e 00 54  	b.eq	0x28fa0 <_ZN22ChiFeature2RealTimeMCX18OnInitializeStreamEPK23ChiTargetPortDescriptorPK25ChiFeature2PortDescriptorPN15ChiFeature2Base20ChiFeatureStreamDataE+0x16c8>
   28bd8: 06 00 00 14  	b	0x28bf0 <_ZN22ChiFeature2RealTimeMCX18OnInitializeStreamEPK23ChiTargetPortDescriptorPK25ChiFeature2PortDescriptorPN15ChiFeature2Base20ChiFeatureStreamDataE+0x1318>
   28bec: 00 7c 00 54  	b.eq	0x29b6c <_ZN22ChiFeature2RealTimeMCX18OnInitializeStreamEPK23ChiTargetPortDescriptorPK25ChiFeature2PortDescriptorPN15ChiFeature2Base20ChiFeatureStreamDataE+0x2294>
   28c10: 60 fe ff 54  	b.eq	0x28bdc <_ZN22ChiFeature2RealTimeMCX18OnInitializeStreamEPK23ChiTargetPortDescriptorPK25ChiFeature2PortDescriptorPN15ChiFeature2Base20ChiFeatureStreamDataE+0x1304>
   28c18: 20 fe ff b4  	cbz	x0, 0x28bdc <_ZN22ChiFeature2RealTimeMCX18OnInitializeStreamEPK23ChiTargetPortDescriptorPK25ChiFeature2PortDescriptorPN15ChiFeature2Base20ChiFeatureStreamDataE+0x1304>
   28c24: c1 fd ff 54  	b.ne	0x28bdc <_ZN22ChiFeature2RealTimeMCX18OnInitializeStreamEPK23ChiTargetPortDescriptorPK25ChiFeature2PortDescriptorPN15ChiFeature2Base20ChiFeatureStreamDataE+0x1304>
   28c28: d2 03 00 14  	b	0x29b70 <_ZN22ChiFeature2RealTimeMCX18OnInitializeStreamEPK23ChiTargetPortDescriptorPK25ChiFeature2PortDescriptorPN15ChiFeature2Base20ChiFeatureStreamDataE+0x2298>
   28c2c: 29 20 00 54  	b.ls	0x29030 <_ZN22ChiFeature2RealTimeMCX18OnInitializeStreamEPK23ChiTargetPortDescriptorPK25ChiFeature2PortDescriptorPN15ChiFeature2Base20ChiFeatureStreamDataE+0x1758>
   28c34: 60 3c 00 54  	b.eq	0x293c0 <_ZN22ChiFeature2RealTimeMCX18OnInitializeStreamEPK23ChiTargetPortDescriptorPK25ChiFeature2PortDescriptorPN15ChiFeature2Base20ChiFeatureStreamDataE+0x1ae8>
   28c4c: 06 00 00 14  	b	0x28c64 <_ZN22ChiFeature2RealTimeMCX18OnInitializeStreamEPK23ChiTargetPortDescriptorPK25ChiFeature2PortDescriptorPN15ChiFeature2Base20ChiFeatureStreamDataE+0x138c>
   28c60: 60 78 00 54  	b.eq	0x29b6c <_ZN22ChiFeature2RealTimeMCX18OnInitializeStreamEPK23ChiTargetPortDescriptorPK25ChiFeature2PortDescriptorPN15ChiFeature2Base20ChiFeatureStreamDataE+0x2294>
   28c70: 01 ff ff 54  	b.ne	0x28c50 <_ZN22ChiFeature2RealTimeMCX18OnInitializeStreamEPK23ChiTargetPortDescriptorPK25ChiFeature2PortDescriptorPN15ChiFeature2Base20ChiFeatureStreamDataE+0x1378>
   28c78: c0 fe ff b4  	cbz	x0, 0x28c50 <_ZN22ChiFeature2RealTimeMCX18OnInitializeStreamEPK23ChiTargetPortDescriptorPK25ChiFeature2PortDescriptorPN15ChiFeature2Base20ChiFeatureStreamDataE+0x1378>
   28c84: 61 fe ff 54  	b.ne	0x28c50 <_ZN22ChiFeature2RealTimeMCX18OnInitializeStreamEPK23ChiTargetPortDescriptorPK25ChiFeature2PortDescriptorPN15ChiFeature2Base20ChiFeatureStreamDataE+0x1378>
   28c88: ba 03 00 14  	b	0x29b70 <_ZN22ChiFeature2RealTimeMCX18OnInitializeStreamEPK23ChiTargetPortDescriptorPK25ChiFeature2PortDescriptorPN15ChiFeature2Base20ChiFeatureStreamDataE+0x2298>
   28c90: e0 28 00 54  	b.eq	0x291ac <_ZN22ChiFeature2RealTimeMCX18OnInitializeStreamEPK23ChiTargetPortDescriptorPK25ChiFeature2PortDescriptorPN15ChiFeature2Base20ChiFeatureStreamDataE+0x18d4>
   28ca0: 06 00 00 14  	b	0x28cb8 <_ZN22ChiFeature2RealTimeMCX18OnInitializeStreamEPK23ChiTargetPortDescriptorPK25ChiFeature2PortDescriptorPN15ChiFeature2Base20ChiFeatureStreamDataE+0x13e0>
   28cb4: c0 75 00 54  	b.eq	0x29b6c <_ZN22ChiFeature2RealTimeMCX18OnInitializeStreamEPK23ChiTargetPortDescriptorPK25ChiFeature2PortDescriptorPN15ChiFeature2Base20ChiFeatureStreamDataE+0x2294>
   28cd8: 61 fe ff 54  	b.ne	0x28ca4 <_ZN22ChiFeature2RealTimeMCX18OnInitializeStreamEPK23ChiTargetPortDescriptorPK25ChiFeature2PortDescriptorPN15ChiFeature2Base20ChiFeatureStreamDataE+0x13cc>
   28ce0: 20 fe ff b4  	cbz	x0, 0x28ca4 <_ZN22ChiFeature2RealTimeMCX18OnInitializeStreamEPK23ChiTargetPortDescriptorPK25ChiFeature2PortDescriptorPN15ChiFeature2Base20ChiFeatureStreamDataE+0x13cc>
   28cec: c1 fd ff 54  	b.ne	0x28ca4 <_ZN22ChiFeature2RealTimeMCX18OnInitializeStreamEPK23ChiTargetPortDescriptorPK25ChiFeature2PortDescriptorPN15ChiFeature2Base20ChiFeatureStreamDataE+0x13cc>
   28cf0: a0 03 00 14  	b	0x29b70 <_ZN22ChiFeature2RealTimeMCX18OnInitializeStreamEPK23ChiTargetPortDescriptorPK25ChiFeature2PortDescriptorPN15ChiFeature2Base20ChiFeatureStreamDataE+0x2298>
   28cf8: 00 2a 00 54  	b.eq	0x29238 <_ZN22ChiFeature2RealTimeMCX18OnInitializeStreamEPK23ChiTargetPortDescriptorPK25ChiFeature2PortDescriptorPN15ChiFeature2Base20ChiFeatureStreamDataE+0x1960>
   28d04: 06 00 00 14  	b	0x28d1c <_ZN22ChiFeature2RealTimeMCX18OnInitializeStreamEPK23ChiTargetPortDescriptorPK25ChiFeature2PortDescriptorPN15ChiFeature2Base20ChiFeatureStreamDataE+0x1444>
   28d18: a0 72 00 54  	b.eq	0x29b6c <_ZN22ChiFeature2RealTimeMCX18OnInitializeStreamEPK23ChiTargetPortDescriptorPK25ChiFeature2PortDescriptorPN15ChiFeature2Base20ChiFeatureStreamDataE+0x2294>
   28d28: 01 ff ff 54  	b.ne	0x28d08 <_ZN22ChiFeature2RealTimeMCX18OnInitializeStreamEPK23ChiTargetPortDescriptorPK25ChiFeature2PortDescriptorPN15ChiFeature2Base20ChiFeatureStreamDataE+0x1430>
   28d3c: 61 fe ff 54  	b.ne	0x28d08 <_ZN22ChiFeature2RealTimeMCX18OnInitializeStreamEPK23ChiTargetPortDescriptorPK25ChiFeature2PortDescriptorPN15ChiFeature2Base20ChiFeatureStreamDataE+0x1430>
   28d44: 20 fe ff b4  	cbz	x0, 0x28d08 <_ZN22ChiFeature2RealTimeMCX18OnInitializeStreamEPK23ChiTargetPortDescriptorPK25ChiFeature2PortDescriptorPN15ChiFeature2Base20ChiFeatureStreamDataE+0x1430>
   28d50: c1 fd ff 54  	b.ne	0x28d08 <_ZN22ChiFeature2RealTimeMCX18OnInitializeStreamEPK23ChiTargetPortDescriptorPK25ChiFeature2PortDescriptorPN15ChiFeature2Base20ChiFeatureStreamDataE+0x1430>
   28d54: 87 03 00 14  	b	0x29b70 <_ZN22ChiFeature2RealTimeMCX18OnInitializeStreamEPK23ChiTargetPortDescriptorPK25ChiFeature2PortDescriptorPN15ChiFeature2Base20ChiFeatureStreamDataE+0x2298>
   28d5c: a0 2f 00 54  	b.eq	0x29350 <_ZN22ChiFeature2RealTimeMCX18OnInitializeStreamEPK23ChiTargetPortDescriptorPK25ChiFeature2PortDescriptorPN15ChiFeature2Base20ChiFeatureStreamDataE+0x1a78>
   28d68: 06 00 00 14  	b	0x28d80 <_ZN22ChiFeature2RealTimeMCX18OnInitializeStreamEPK23ChiTargetPortDescriptorPK25ChiFeature2PortDescriptorPN15ChiFeature2Base20ChiFeatureStreamDataE+0x14a8>
   28d7c: 80 6f 00 54  	b.eq	0x29b6c <_ZN22ChiFeature2RealTimeMCX18OnInitializeStreamEPK23ChiTargetPortDescriptorPK25ChiFeature2PortDescriptorPN15ChiFeature2Base20ChiFeatureStreamDataE+0x2294>
   28d8c: 01 ff ff 54  	b.ne	0x28d6c <_ZN22ChiFeature2RealTimeMCX18OnInitializeStreamEPK23ChiTargetPortDescriptorPK25ChiFeature2PortDescriptorPN15ChiFeature2Base20ChiFeatureStreamDataE+0x1494>
   28d94: c0 fe ff b4  	cbz	x0, 0x28d6c <_ZN22ChiFeature2RealTimeMCX18OnInitializeStreamEPK23ChiTargetPortDescriptorPK25ChiFeature2PortDescriptorPN15ChiFeature2Base20ChiFeatureStreamDataE+0x1494>
   28da0: 61 fe ff 54  	b.ne	0x28d6c <_ZN22ChiFeature2RealTimeMCX18OnInitializeStreamEPK23ChiTargetPortDescriptorPK25ChiFeature2PortDescriptorPN15ChiFeature2Base20ChiFeatureStreamDataE+0x1494>
   28da4: 73 03 00 14  	b	0x29b70 <_ZN22ChiFeature2RealTimeMCX18OnInitializeStreamEPK23ChiTargetPortDescriptorPK25ChiFeature2PortDescriptorPN15ChiFeature2Base20ChiFeatureStreamDataE+0x2298>
   28dac: 88 42 00 54  	b.hi	0x295fc <_ZN22ChiFeature2RealTimeMCX18OnInitializeStreamEPK23ChiTargetPortDescriptorPK25ChiFeature2PortDescriptorPN15ChiFeature2Base20ChiFeatureStreamDataE+0x1d24>
   28dc0: e0 41 00 54  	b.eq	0x295fc <_ZN22ChiFeature2RealTimeMCX18OnInitializeStreamEPK23ChiTargetPortDescriptorPK25ChiFeature2PortDescriptorPN15ChiFeature2Base20ChiFeatureStreamDataE+0x1d24>
   28dcc: 06 00 00 14  	b	0x28de4 <_ZN22ChiFeature2RealTimeMCX18OnInitializeStreamEPK23ChiTargetPortDescriptorPK25ChiFeature2PortDescriptorPN15ChiFeature2Base20ChiFeatureStreamDataE+0x150c>
   28de0: 60 6c 00 54  	b.eq	0x29b6c <_ZN22ChiFeature2RealTimeMCX18OnInitializeStreamEPK23ChiTargetPortDescriptorPK25ChiFeature2PortDescriptorPN15ChiFeature2Base20ChiFeatureStreamDataE+0x2294>
   28df0: c1 00 00 54  	b.ne	0x28e08 <_ZN22ChiFeature2RealTimeMCX18OnInitializeStreamEPK23ChiTargetPortDescriptorPK25ChiFeature2PortDescriptorPN15ChiFeature2Base20ChiFeatureStreamDataE+0x1530>
   28e04: 02 00 00 14  	b	0x28e0c <_ZN22ChiFeature2RealTimeMCX18OnInitializeStreamEPK23ChiTargetPortDescriptorPK25ChiFeature2PortDescriptorPN15ChiFeature2Base20ChiFeatureStreamDataE+0x1534>
   28e2c: 21 fd ff 54  	b.ne	0x28dd0 <_ZN22ChiFeature2RealTimeMCX18OnInitializeStreamEPK23ChiTargetPortDescriptorPK25ChiFeature2PortDescriptorPN15ChiFeature2Base20ChiFeatureStreamDataE+0x14f8>
   28e34: e0 fc ff b4  	cbz	x0, 0x28dd0 <_ZN22ChiFeature2RealTimeMCX18OnInitializeStreamEPK23ChiTargetPortDescriptorPK25ChiFeature2PortDescriptorPN15ChiFeature2Base20ChiFeatureStreamDataE+0x14f8>
   28e48: 41 fc ff 54  	b.ne	0x28dd0 <_ZN22ChiFeature2RealTimeMCX18OnInitializeStreamEPK23ChiTargetPortDescriptorPK25ChiFeature2PortDescriptorPN15ChiFeature2Base20ChiFeatureStreamDataE+0x14f8>
   28e54: e6 fb 07 36  	tbz	w6, #0, 0x28dd0 <_ZN22ChiFeature2RealTimeMCX18OnInitializeStreamEPK23ChiTargetPortDescriptorPK25ChiFeature2PortDescriptorPN15ChiFeature2Base20ChiFeatureStreamDataE+0x14f8>
   28e58: 46 03 00 14  	b	0x29b70 <_ZN22ChiFeature2RealTimeMCX18OnInitializeStreamEPK23ChiTargetPortDescriptorPK25ChiFeature2PortDescriptorPN15ChiFeature2Base20ChiFeatureStreamDataE+0x2298>
   28e60: c8 41 00 54  	b.hi	0x29698 <_ZN22ChiFeature2RealTimeMCX18OnInitializeStreamEPK23ChiTargetPortDescriptorPK25ChiFeature2PortDescriptorPN15ChiFeature2Base20ChiFeatureStreamDataE+0x1dc0>
   28e74: 20 41 00 54  	b.eq	0x29698 <_ZN22ChiFeature2RealTimeMCX18OnInitializeStreamEPK23ChiTargetPortDescriptorPK25ChiFeature2PortDescriptorPN15ChiFeature2Base20ChiFeatureStreamDataE+0x1dc0>
   28e80: 06 00 00 14  	b	0x28e98 <_ZN22ChiFeature2RealTimeMCX18OnInitializeStreamEPK23ChiTargetPortDescriptorPK25ChiFeature2PortDescriptorPN15ChiFeature2Base20ChiFeatureStreamDataE+0x15c0>
   28e94: c0 66 00 54  	b.eq	0x29b6c <_ZN22ChiFeature2RealTimeMCX18OnInitializeStreamEPK23ChiTargetPortDescriptorPK25ChiFeature2PortDescriptorPN15ChiFeature2Base20ChiFeatureStreamDataE+0x2294>
   28ea4: c1 00 00 54  	b.ne	0x28ebc <_ZN22ChiFeature2RealTimeMCX18OnInitializeStreamEPK23ChiTargetPortDescriptorPK25ChiFeature2PortDescriptorPN15ChiFeature2Base20ChiFeatureStreamDataE+0x15e4>
   28eb8: 02 00 00 14  	b	0x28ec0 <_ZN22ChiFeature2RealTimeMCX18OnInitializeStreamEPK23ChiTargetPortDescriptorPK25ChiFeature2PortDescriptorPN15ChiFeature2Base20ChiFeatureStreamDataE+0x15e8>
   28ee0: 21 fd ff 54  	b.ne	0x28e84 <_ZN22ChiFeature2RealTimeMCX18OnInitializeStreamEPK23ChiTargetPortDescriptorPK25ChiFeature2PortDescriptorPN15ChiFeature2Base20ChiFeatureStreamDataE+0x15ac>
   28ee8: e0 fc ff b4  	cbz	x0, 0x28e84 <_ZN22ChiFeature2RealTimeMCX18OnInitializeStreamEPK23ChiTargetPortDescriptorPK25ChiFeature2PortDescriptorPN15ChiFeature2Base20ChiFeatureStreamDataE+0x15ac>
   28efc: 41 fc ff 54  	b.ne	0x28e84 <_ZN22ChiFeature2RealTimeMCX18OnInitializeStreamEPK23ChiTargetPortDescriptorPK25ChiFeature2PortDescriptorPN15ChiFeature2Base20ChiFeatureStreamDataE+0x15ac>
   28f08: f3 fb 07 36  	tbz	w19, #0, 0x28e84 <_ZN22ChiFeature2RealTimeMCX18OnInitializeStreamEPK23ChiTargetPortDescriptorPK25ChiFeature2PortDescriptorPN15ChiFeature2Base20ChiFeatureStreamDataE+0x15ac>
   28f0c: 19 03 00 14  	b	0x29b70 <_ZN22ChiFeature2RealTimeMCX18OnInitializeStreamEPK23ChiTargetPortDescriptorPK25ChiFeature2PortDescriptorPN15ChiFeature2Base20ChiFeatureStreamDataE+0x2298>
   28f14: 08 41 00 54  	b.hi	0x29734 <_ZN22ChiFeature2RealTimeMCX18OnInitializeStreamEPK23ChiTargetPortDescriptorPK25ChiFeature2PortDescriptorPN15ChiFeature2Base20ChiFeatureStreamDataE+0x1e5c>
   28f28: 60 40 00 54  	b.eq	0x29734 <_ZN22ChiFeature2RealTimeMCX18OnInitializeStreamEPK23ChiTargetPortDescriptorPK25ChiFeature2PortDescriptorPN15ChiFeature2Base20ChiFeatureStreamDataE+0x1e5c>
   28f34: 06 00 00 14  	b	0x28f4c <_ZN22ChiFeature2RealTimeMCX18OnInitializeStreamEPK23ChiTargetPortDescriptorPK25ChiFeature2PortDescriptorPN15ChiFeature2Base20ChiFeatureStreamDataE+0x1674>
   28f48: 20 61 00 54  	b.eq	0x29b6c <_ZN22ChiFeature2RealTimeMCX18OnInitializeStreamEPK23ChiTargetPortDescriptorPK25ChiFeature2PortDescriptorPN15ChiFeature2Base20ChiFeatureStreamDataE+0x2294>
   28f6c: 60 fe ff 54  	b.eq	0x28f38 <_ZN22ChiFeature2RealTimeMCX18OnInitializeStreamEPK23ChiTargetPortDescriptorPK25ChiFeature2PortDescriptorPN15ChiFeature2Base20ChiFeatureStreamDataE+0x1660>
   28f74: 20 fe ff b4  	cbz	x0, 0x28f38 <_ZN22ChiFeature2RealTimeMCX18OnInitializeStreamEPK23ChiTargetPortDescriptorPK25ChiFeature2PortDescriptorPN15ChiFeature2Base20ChiFeatureStreamDataE+0x1660>
   28f90: 47 fd 07 37  	tbnz	w7, #0, 0x28f38 <_ZN22ChiFeature2RealTimeMCX18OnInitializeStreamEPK23ChiTargetPortDescriptorPK25ChiFeature2PortDescriptorPN15ChiFeature2Base20ChiFeatureStreamDataE+0x1660>
   28f98: 01 fd ff 54  	b.ne	0x28f38 <_ZN22ChiFeature2RealTimeMCX18OnInitializeStreamEPK23ChiTargetPortDescriptorPK25ChiFeature2PortDescriptorPN15ChiFeature2Base20ChiFeatureStreamDataE+0x1660>
   28f9c: f5 02 00 14  	b	0x29b70 <_ZN22ChiFeature2RealTimeMCX18OnInitializeStreamEPK23ChiTargetPortDescriptorPK25ChiFeature2PortDescriptorPN15ChiFeature2Base20ChiFeatureStreamDataE+0x2298>
   28fa4: 48 40 00 54  	b.hi	0x297ac <_ZN22ChiFeature2RealTimeMCX18OnInitializeStreamEPK23ChiTargetPortDescriptorPK25ChiFeature2PortDescriptorPN15ChiFeature2Base20ChiFeatureStreamDataE+0x1ed4>
   28fb8: a0 3f 00 54  	b.eq	0x297ac <_ZN22ChiFeature2RealTimeMCX18OnInitializeStreamEPK23ChiTargetPortDescriptorPK25ChiFeature2PortDescriptorPN15ChiFeature2Base20ChiFeatureStreamDataE+0x1ed4>
   28fc4: 06 00 00 14  	b	0x28fdc <_ZN22ChiFeature2RealTimeMCX18OnInitializeStreamEPK23ChiTargetPortDescriptorPK25ChiFeature2PortDescriptorPN15ChiFeature2Base20ChiFeatureStreamDataE+0x1704>
   28fd8: a0 5c 00 54  	b.eq	0x29b6c <_ZN22ChiFeature2RealTimeMCX18OnInitializeStreamEPK23ChiTargetPortDescriptorPK25ChiFeature2PortDescriptorPN15ChiFeature2Base20ChiFeatureStreamDataE+0x2294>
   28ffc: 60 fe ff 54  	b.eq	0x28fc8 <_ZN22ChiFeature2RealTimeMCX18OnInitializeStreamEPK23ChiTargetPortDescriptorPK25ChiFeature2PortDescriptorPN15ChiFeature2Base20ChiFeatureStreamDataE+0x16f0>
   29004: 20 fe ff b4  	cbz	x0, 0x28fc8 <_ZN22ChiFeature2RealTimeMCX18OnInitializeStreamEPK23ChiTargetPortDescriptorPK25ChiFeature2PortDescriptorPN15ChiFeature2Base20ChiFeatureStreamDataE+0x16f0>
   29020: 49 fd 07 37  	tbnz	w9, #0, 0x28fc8 <_ZN22ChiFeature2RealTimeMCX18OnInitializeStreamEPK23ChiTargetPortDescriptorPK25ChiFeature2PortDescriptorPN15ChiFeature2Base20ChiFeatureStreamDataE+0x16f0>
   29028: 01 fd ff 54  	b.ne	0x28fc8 <_ZN22ChiFeature2RealTimeMCX18OnInitializeStreamEPK23ChiTargetPortDescriptorPK25ChiFeature2PortDescriptorPN15ChiFeature2Base20ChiFeatureStreamDataE+0x16f0>
   2902c: d1 02 00 14  	b	0x29b70 <_ZN22ChiFeature2RealTimeMCX18OnInitializeStreamEPK23ChiTargetPortDescriptorPK25ChiFeature2PortDescriptorPN15ChiFeature2Base20ChiFeatureStreamDataE+0x2298>
   29034: 40 20 00 54  	b.eq	0x2943c <_ZN22ChiFeature2RealTimeMCX18OnInitializeStreamEPK23ChiTargetPortDescriptorPK25ChiFeature2PortDescriptorPN15ChiFeature2Base20ChiFeatureStreamDataE+0x1b64>
   29040: 06 00 00 14  	b	0x29058 <_ZN22ChiFeature2RealTimeMCX18OnInitializeStreamEPK23ChiTargetPortDescriptorPK25ChiFeature2PortDescriptorPN15ChiFeature2Base20ChiFeatureStreamDataE+0x1780>
   29054: c0 58 00 54  	b.eq	0x29b6c <_ZN22ChiFeature2RealTimeMCX18OnInitializeStreamEPK23ChiTargetPortDescriptorPK25ChiFeature2PortDescriptorPN15ChiFeature2Base20ChiFeatureStreamDataE+0x2294>
   29064: 01 ff ff 54  	b.ne	0x29044 <_ZN22ChiFeature2RealTimeMCX18OnInitializeStreamEPK23ChiTargetPortDescriptorPK25ChiFeature2PortDescriptorPN15ChiFeature2Base20ChiFeatureStreamDataE+0x176c>
   2906c: c0 fe ff b4  	cbz	x0, 0x29044 <_ZN22ChiFeature2RealTimeMCX18OnInitializeStreamEPK23ChiTargetPortDescriptorPK25ChiFeature2PortDescriptorPN15ChiFeature2Base20ChiFeatureStreamDataE+0x176c>
   29078: 61 fe ff 54  	b.ne	0x29044 <_ZN22ChiFeature2RealTimeMCX18OnInitializeStreamEPK23ChiTargetPortDescriptorPK25ChiFeature2PortDescriptorPN15ChiFeature2Base20ChiFeatureStreamDataE+0x176c>
   2907c: bd 02 00 14  	b	0x29b70 <_ZN22ChiFeature2RealTimeMCX18OnInitializeStreamEPK23ChiTargetPortDescriptorPK25ChiFeature2PortDescriptorPN15ChiFeature2Base20ChiFeatureStreamDataE+0x2298>
   29080: ca 21 00 36  	tbz	w10, #0, 0x294b8 <_ZN22ChiFeature2RealTimeMCX18OnInitializeStreamEPK23ChiTargetPortDescriptorPK25ChiFeature2PortDescriptorPN15ChiFeature2Base20ChiFeatureStreamDataE+0x1be0>
   29088: 08 4c 00 54  	b.hi	0x29a08 <_ZN22ChiFeature2RealTimeMCX18OnInitializeStreamEPK23ChiTargetPortDescriptorPK25ChiFeature2PortDescriptorPN15ChiFeature2Base20ChiFeatureStreamDataE+0x2130>
   2909c: 60 4b 00 54  	b.eq	0x29a08 <_ZN22ChiFeature2RealTimeMCX18OnInitializeStreamEPK23ChiTargetPortDescriptorPK25ChiFeature2PortDescriptorPN15ChiFeature2Base20ChiFeatureStreamDataE+0x2130>
   290a8: 06 00 00 14  	b	0x290c0 <_ZN22ChiFeature2RealTimeMCX18OnInitializeStreamEPK23ChiTargetPortDescriptorPK25ChiFeature2PortDescriptorPN15ChiFeature2Base20ChiFeatureStreamDataE+0x17e8>
   290bc: 80 55 00 54  	b.eq	0x29b6c <_ZN22ChiFeature2RealTimeMCX18OnInitializeStreamEPK23ChiTargetPortDescriptorPK25ChiFeature2PortDescriptorPN15ChiFeature2Base20ChiFeatureStreamDataE+0x2294>
   290e0: 61 fe ff 54  	b.ne	0x290ac <_ZN22ChiFeature2RealTimeMCX18OnInitializeStreamEPK23ChiTargetPortDescriptorPK25ChiFeature2PortDescriptorPN15ChiFeature2Base20ChiFeatureStreamDataE+0x17d4>
   290e8: 20 fe ff b4  	cbz	x0, 0x290ac <_ZN22ChiFeature2RealTimeMCX18OnInitializeStreamEPK23ChiTargetPortDescriptorPK25ChiFeature2PortDescriptorPN15ChiFeature2Base20ChiFeatureStreamDataE+0x17d4>
   290f4: c1 fd ff 54  	b.ne	0x290ac <_ZN22ChiFeature2RealTimeMCX18OnInitializeStreamEPK23ChiTargetPortDescriptorPK25ChiFeature2PortDescriptorPN15ChiFeature2Base20ChiFeatureStreamDataE+0x17d4>
   290fc: 81 fd ff 54  	b.ne	0x290ac <_ZN22ChiFeature2RealTimeMCX18OnInitializeStreamEPK23ChiTargetPortDescriptorPK25ChiFeature2PortDescriptorPN15ChiFeature2Base20ChiFeatureStreamDataE+0x17d4>
   29100: 9c 02 00 14  	b	0x29b70 <_ZN22ChiFeature2RealTimeMCX18OnInitializeStreamEPK23ChiTargetPortDescriptorPK25ChiFeature2PortDescriptorPN15ChiFeature2Base20ChiFeatureStreamDataE+0x2298>
   29108: e8 38 00 54  	b.hi	0x29824 <_ZN22ChiFeature2RealTimeMCX18OnInitializeStreamEPK23ChiTargetPortDescriptorPK25ChiFeature2PortDescriptorPN15ChiFeature2Base20ChiFeatureStreamDataE+0x1f4c>
   2911c: 40 38 00 54  	b.eq	0x29824 <_ZN22ChiFeature2RealTimeMCX18OnInitializeStreamEPK23ChiTargetPortDescriptorPK25ChiFeature2PortDescriptorPN15ChiFeature2Base20ChiFeatureStreamDataE+0x1f4c>
   29128: 06 00 00 14  	b	0x29140 <_ZN22ChiFeature2RealTimeMCX18OnInitializeStreamEPK23ChiTargetPortDescriptorPK25ChiFeature2PortDescriptorPN15ChiFeature2Base20ChiFeatureStreamDataE+0x1868>
   2913c: 80 51 00 54  	b.eq	0x29b6c <_ZN22ChiFeature2RealTimeMCX18OnInitializeStreamEPK23ChiTargetPortDescriptorPK25ChiFeature2PortDescriptorPN15ChiFeature2Base20ChiFeatureStreamDataE+0x2294>
   2914c: e1 00 00 54  	b.ne	0x29168 <_ZN22ChiFeature2RealTimeMCX18OnInitializeStreamEPK23ChiTargetPortDescriptorPK25ChiFeature2PortDescriptorPN15ChiFeature2Base20ChiFeatureStreamDataE+0x1890>
   29160: 90 00 00 35  	cbnz	w16, 0x29170 <_ZN22ChiFeature2RealTimeMCX18OnInitializeStreamEPK23ChiTargetPortDescriptorPK25ChiFeature2PortDescriptorPN15ChiFeature2Base20ChiFeatureStreamDataE+0x1898>
   29164: f2 ff ff 17  	b	0x2912c <_ZN22ChiFeature2RealTimeMCX18OnInitializeStreamEPK23ChiTargetPortDescriptorPK25ChiFeature2PortDescriptorPN15ChiFeature2Base20ChiFeatureStreamDataE+0x1854>
   2916c: 10 fe ff 34  	cbz	w16, 0x2912c <_ZN22ChiFeature2RealTimeMCX18OnInitializeStreamEPK23ChiTargetPortDescriptorPK25ChiFeature2PortDescriptorPN15ChiFeature2Base20ChiFeatureStreamDataE+0x1854>
   29178: a1 fd ff 54  	b.ne	0x2912c <_ZN22ChiFeature2RealTimeMCX18OnInitializeStreamEPK23ChiTargetPortDescriptorPK25ChiFeature2PortDescriptorPN15ChiFeature2Base20ChiFeatureStreamDataE+0x1854>
   29180: 60 fd ff b4  	cbz	x0, 0x2912c <_ZN22ChiFeature2RealTimeMCX18OnInitializeStreamEPK23ChiTargetPortDescriptorPK25ChiFeature2PortDescriptorPN15ChiFeature2Base20ChiFeatureStreamDataE+0x1854>
   29198: a1 fc ff 54  	b.ne	0x2912c <_ZN22ChiFeature2RealTimeMCX18OnInitializeStreamEPK23ChiTargetPortDescriptorPK25ChiFeature2PortDescriptorPN15ChiFeature2Base20ChiFeatureStreamDataE+0x1854>
   291a4: 4f fc 07 36  	tbz	w15, #0, 0x2912c <_ZN22ChiFeature2RealTimeMCX18OnInitializeStreamEPK23ChiTargetPortDescriptorPK25ChiFeature2PortDescriptorPN15ChiFeature2Base20ChiFeatureStreamDataE+0x1854>
   291a8: 72 02 00 14  	b	0x29b70 <_ZN22ChiFeature2RealTimeMCX18OnInitializeStreamEPK23ChiTargetPortDescriptorPK25ChiFeature2PortDescriptorPN15ChiFeature2Base20ChiFeatureStreamDataE+0x2298>
   291b0: e8 37 00 54  	b.hi	0x298ac <_ZN22ChiFeature2RealTimeMCX18OnInitializeStreamEPK23ChiTargetPortDescriptorPK25ChiFeature2PortDescriptorPN15ChiFeature2Base20ChiFeatureStreamDataE+0x1fd4>
   291c4: 40 37 00 54  	b.eq	0x298ac <_ZN22ChiFeature2RealTimeMCX18OnInitializeStreamEPK23ChiTargetPortDescriptorPK25ChiFeature2PortDescriptorPN15ChiFeature2Base20ChiFeatureStreamDataE+0x1fd4>
   291d0: 06 00 00 14  	b	0x291e8 <_ZN22ChiFeature2RealTimeMCX18OnInitializeStreamEPK23ChiTargetPortDescriptorPK25ChiFeature2PortDescriptorPN15ChiFeature2Base20ChiFeatureStreamDataE+0x1910>
   291e4: 40 4c 00 54  	b.eq	0x29b6c <_ZN22ChiFeature2RealTimeMCX18OnInitializeStreamEPK23ChiTargetPortDescriptorPK25ChiFeature2PortDescriptorPN15ChiFeature2Base20ChiFeatureStreamDataE+0x2294>
   29208: 61 fe ff 54  	b.ne	0x291d4 <_ZN22ChiFeature2RealTimeMCX18OnInitializeStreamEPK23ChiTargetPortDescriptorPK25ChiFeature2PortDescriptorPN15ChiFeature2Base20ChiFeatureStreamDataE+0x18fc>
   29210: 20 fe ff b4  	cbz	x0, 0x291d4 <_ZN22ChiFeature2RealTimeMCX18OnInitializeStreamEPK23ChiTargetPortDescriptorPK25ChiFeature2PortDescriptorPN15ChiFeature2Base20ChiFeatureStreamDataE+0x18fc>
   29224: 81 fd ff 54  	b.ne	0x291d4 <_ZN22ChiFeature2RealTimeMCX18OnInitializeStreamEPK23ChiTargetPortDescriptorPK25ChiFeature2PortDescriptorPN15ChiFeature2Base20ChiFeatureStreamDataE+0x18fc>
   29230: 27 fd 07 36  	tbz	w7, #0, 0x291d4 <_ZN22ChiFeature2RealTimeMCX18OnInitializeStreamEPK23ChiTargetPortDescriptorPK25ChiFeature2PortDescriptorPN15ChiFeature2Base20ChiFeatureStreamDataE+0x18fc>
   29234: 4f 02 00 14  	b	0x29b70 <_ZN22ChiFeature2RealTimeMCX18OnInitializeStreamEPK23ChiTargetPortDescriptorPK25ChiFeature2PortDescriptorPN15ChiFeature2Base20ChiFeatureStreamDataE+0x2298>
   2923c: 28 37 00 54  	b.hi	0x29920 <_ZN22ChiFeature2RealTimeMCX18OnInitializeStreamEPK23ChiTargetPortDescriptorPK25ChiFeature2PortDescriptorPN15ChiFeature2Base20ChiFeatureStreamDataE+0x2048>
   29250: 80 36 00 54  	b.eq	0x29920 <_ZN22ChiFeature2RealTimeMCX18OnInitializeStreamEPK23ChiTargetPortDescriptorPK25ChiFeature2PortDescriptorPN15ChiFeature2Base20ChiFeatureStreamDataE+0x2048>
   29260: 06 00 00 14  	b	0x29278 <_ZN22ChiFeature2RealTimeMCX18OnInitializeStreamEPK23ChiTargetPortDescriptorPK25ChiFeature2PortDescriptorPN15ChiFeature2Base20ChiFeatureStreamDataE+0x19a0>
   29274: c0 47 00 54  	b.eq	0x29b6c <_ZN22ChiFeature2RealTimeMCX18OnInitializeStreamEPK23ChiTargetPortDescriptorPK25ChiFeature2PortDescriptorPN15ChiFeature2Base20ChiFeatureStreamDataE+0x2294>
   29284: c1 00 00 54  	b.ne	0x2929c <_ZN22ChiFeature2RealTimeMCX18OnInitializeStreamEPK23ChiTargetPortDescriptorPK25ChiFeature2PortDescriptorPN15ChiFeature2Base20ChiFeatureStreamDataE+0x19c4>
   29294: 83 00 00 35  	cbnz	w3, 0x292a4 <_ZN22ChiFeature2RealTimeMCX18OnInitializeStreamEPK23ChiTargetPortDescriptorPK25ChiFeature2PortDescriptorPN15ChiFeature2Base20ChiFeatureStreamDataE+0x19cc>
   29298: f3 ff ff 17  	b	0x29264 <_ZN22ChiFeature2RealTimeMCX18OnInitializeStreamEPK23ChiTargetPortDescriptorPK25ChiFeature2PortDescriptorPN15ChiFeature2Base20ChiFeatureStreamDataE+0x198c>
   292a0: 23 fe ff 34  	cbz	w3, 0x29264 <_ZN22ChiFeature2RealTimeMCX18OnInitializeStreamEPK23ChiTargetPortDescriptorPK25ChiFeature2PortDescriptorPN15ChiFeature2Base20ChiFeatureStreamDataE+0x198c>
   292ac: c1 fd ff 54  	b.ne	0x29264 <_ZN22ChiFeature2RealTimeMCX18OnInitializeStreamEPK23ChiTargetPortDescriptorPK25ChiFeature2PortDescriptorPN15ChiFeature2Base20ChiFeatureStreamDataE+0x198c>
   292b4: 80 fd ff b4  	cbz	x0, 0x29264 <_ZN22ChiFeature2RealTimeMCX18OnInitializeStreamEPK23ChiTargetPortDescriptorPK25ChiFeature2PortDescriptorPN15ChiFeature2Base20ChiFeatureStreamDataE+0x198c>
   292cc: c1 fc ff 54  	b.ne	0x29264 <_ZN22ChiFeature2RealTimeMCX18OnInitializeStreamEPK23ChiTargetPortDescriptorPK25ChiFeature2PortDescriptorPN15ChiFeature2Base20ChiFeatureStreamDataE+0x198c>
   292d8: 69 fc 07 36  	tbz	w9, #0, 0x29264 <_ZN22ChiFeature2RealTimeMCX18OnInitializeStreamEPK23ChiTargetPortDescriptorPK25ChiFeature2PortDescriptorPN15ChiFeature2Base20ChiFeatureStreamDataE+0x198c>
   292dc: 25 02 00 14  	b	0x29b70 <_ZN22ChiFeature2RealTimeMCX18OnInitializeStreamEPK23ChiTargetPortDescriptorPK25ChiFeature2PortDescriptorPN15ChiFeature2Base20ChiFeatureStreamDataE+0x2298>
   292e0: ca 11 00 36  	tbz	w10, #0, 0x29518 <_ZN22ChiFeature2RealTimeMCX18OnInitializeStreamEPK23ChiTargetPortDescriptorPK25ChiFeature2PortDescriptorPN15ChiFeature2Base20ChiFeatureStreamDataE+0x1c40>
   292e8: 48 3c 00 54  	b.hi	0x29a70 <_ZN22ChiFeature2RealTimeMCX18OnInitializeStreamEPK23ChiTargetPortDescriptorPK25ChiFeature2PortDescriptorPN15ChiFeature2Base20ChiFeatureStreamDataE+0x2198>
   292fc: a0 3b 00 54  	b.eq	0x29a70 <_ZN22ChiFeature2RealTimeMCX18OnInitializeStreamEPK23ChiTargetPortDescriptorPK25ChiFeature2PortDescriptorPN15ChiFeature2Base20ChiFeatureStreamDataE+0x2198>
   29308: 06 00 00 14  	b	0x29320 <_ZN22ChiFeature2RealTimeMCX18OnInitializeStreamEPK23ChiTargetPortDescriptorPK25ChiFeature2PortDescriptorPN15ChiFeature2Base20ChiFeatureStreamDataE+0x1a48>
   2931c: 80 42 00 54  	b.eq	0x29b6c <_ZN22ChiFeature2RealTimeMCX18OnInitializeStreamEPK23ChiTargetPortDescriptorPK25ChiFeature2PortDescriptorPN15ChiFeature2Base20ChiFeatureStreamDataE+0x2294>
   2932c: 01 ff ff 54  	b.ne	0x2930c <_ZN22ChiFeature2RealTimeMCX18OnInitializeStreamEPK23ChiTargetPortDescriptorPK25ChiFeature2PortDescriptorPN15ChiFeature2Base20ChiFeatureStreamDataE+0x1a34>
   29334: c0 fe ff b4  	cbz	x0, 0x2930c <_ZN22ChiFeature2RealTimeMCX18OnInitializeStreamEPK23ChiTargetPortDescriptorPK25ChiFeature2PortDescriptorPN15ChiFeature2Base20ChiFeatureStreamDataE+0x1a34>
   29348: 21 fe ff 54  	b.ne	0x2930c <_ZN22ChiFeature2RealTimeMCX18OnInitializeStreamEPK23ChiTargetPortDescriptorPK25ChiFeature2PortDescriptorPN15ChiFeature2Base20ChiFeatureStreamDataE+0x1a34>
   2934c: 09 02 00 14  	b	0x29b70 <_ZN22ChiFeature2RealTimeMCX18OnInitializeStreamEPK23ChiTargetPortDescriptorPK25ChiFeature2PortDescriptorPN15ChiFeature2Base20ChiFeatureStreamDataE+0x2298>
   29350: 8a 10 00 36  	tbz	w10, #0, 0x29560 <_ZN22ChiFeature2RealTimeMCX18OnInitializeStreamEPK23ChiTargetPortDescriptorPK25ChiFeature2PortDescriptorPN15ChiFeature2Base20ChiFeatureStreamDataE+0x1c88>
   29358: 48 3b 00 54  	b.hi	0x29ac0 <_ZN22ChiFeature2RealTimeMCX18OnInitializeStreamEPK23ChiTargetPortDescriptorPK25ChiFeature2PortDescriptorPN15ChiFeature2Base20ChiFeatureStreamDataE+0x21e8>
   2936c: a0 3a 00 54  	b.eq	0x29ac0 <_ZN22ChiFeature2RealTimeMCX18OnInitializeStreamEPK23ChiTargetPortDescriptorPK25ChiFeature2PortDescriptorPN15ChiFeature2Base20ChiFeatureStreamDataE+0x21e8>
   29378: 06 00 00 14  	b	0x29390 <_ZN22ChiFeature2RealTimeMCX18OnInitializeStreamEPK23ChiTargetPortDescriptorPK25ChiFeature2PortDescriptorPN15ChiFeature2Base20ChiFeatureStreamDataE+0x1ab8>
   2938c: 00 3f 00 54  	b.eq	0x29b6c <_ZN22ChiFeature2RealTimeMCX18OnInitializeStreamEPK23ChiTargetPortDescriptorPK25ChiFeature2PortDescriptorPN15ChiFeature2Base20ChiFeatureStreamDataE+0x2294>
   2939c: 01 ff ff 54  	b.ne	0x2937c <_ZN22ChiFeature2RealTimeMCX18OnInitializeStreamEPK23ChiTargetPortDescriptorPK25ChiFeature2PortDescriptorPN15ChiFeature2Base20ChiFeatureStreamDataE+0x1aa4>
   293a4: c0 fe ff b4  	cbz	x0, 0x2937c <_ZN22ChiFeature2RealTimeMCX18OnInitializeStreamEPK23ChiTargetPortDescriptorPK25ChiFeature2PortDescriptorPN15ChiFeature2Base20ChiFeatureStreamDataE+0x1aa4>
   293b8: 21 fe ff 54  	b.ne	0x2937c <_ZN22ChiFeature2RealTimeMCX18OnInitializeStreamEPK23ChiTargetPortDescriptorPK25ChiFeature2PortDescriptorPN15ChiFeature2Base20ChiFeatureStreamDataE+0x1aa4>
   293bc: ed 01 00 14  	b	0x29b70 <_ZN22ChiFeature2RealTimeMCX18OnInitializeStreamEPK23ChiTargetPortDescriptorPK25ChiFeature2PortDescriptorPN15ChiFeature2Base20ChiFeatureStreamDataE+0x2298>
   293c0: 4a 0f 00 36  	tbz	w10, #0, 0x295a8 <_ZN22ChiFeature2RealTimeMCX18OnInitializeStreamEPK23ChiTargetPortDescriptorPK25ChiFeature2PortDescriptorPN15ChiFeature2Base20ChiFeatureStreamDataE+0x1cd0>
   293c8: 48 3a 00 54  	b.hi	0x29b10 <_ZN22ChiFeature2RealTimeMCX18OnInitializeStreamEPK23ChiTargetPortDescriptorPK25ChiFeature2PortDescriptorPN15ChiFeature2Base20ChiFeatureStreamDataE+0x2238>
   293dc: a0 39 00 54  	b.eq	0x29b10 <_ZN22ChiFeature2RealTimeMCX18OnInitializeStreamEPK23ChiTargetPortDescriptorPK25ChiFeature2PortDescriptorPN15ChiFeature2Base20ChiFeatureStreamDataE+0x2238>
   293f4: 06 00 00 14  	b	0x2940c <_ZN22ChiFeature2RealTimeMCX18OnInitializeStreamEPK23ChiTargetPortDescriptorPK25ChiFeature2PortDescriptorPN15ChiFeature2Base20ChiFeatureStreamDataE+0x1b34>
   29408: 20 3b 00 54  	b.eq	0x29b6c <_ZN22ChiFeature2RealTimeMCX18OnInitializeStreamEPK23ChiTargetPortDescriptorPK25ChiFeature2PortDescriptorPN15ChiFeature2Base20ChiFeatureStreamDataE+0x2294>
   29418: 01 ff ff 54  	b.ne	0x293f8 <_ZN22ChiFeature2RealTimeMCX18OnInitializeStreamEPK23ChiTargetPortDescriptorPK25ChiFeature2PortDescriptorPN15ChiFeature2Base20ChiFeatureStreamDataE+0x1b20>
   29420: c0 fe ff b4  	cbz	x0, 0x293f8 <_ZN22ChiFeature2RealTimeMCX18OnInitializeStreamEPK23ChiTargetPortDescriptorPK25ChiFeature2PortDescriptorPN15ChiFeature2Base20ChiFeatureStreamDataE+0x1b20>
   29434: 21 fe ff 54  	b.ne	0x293f8 <_ZN22ChiFeature2RealTimeMCX18OnInitializeStreamEPK23ChiTargetPortDescriptorPK25ChiFeature2PortDescriptorPN15ChiFeature2Base20ChiFeatureStreamDataE+0x1b20>
   29438: ce 01 00 14  	b	0x29b70 <_ZN22ChiFeature2RealTimeMCX18OnInitializeStreamEPK23ChiTargetPortDescriptorPK25ChiFeature2PortDescriptorPN15ChiFeature2Base20ChiFeatureStreamDataE+0x2298>
   29440: 48 2b 00 54  	b.hi	0x299a8 <_ZN22ChiFeature2RealTimeMCX18OnInitializeStreamEPK23ChiTargetPortDescriptorPK25ChiFeature2PortDescriptorPN15ChiFeature2Base20ChiFeatureStreamDataE+0x20d0>
   29454: a0 2a 00 54  	b.eq	0x299a8 <_ZN22ChiFeature2RealTimeMCX18OnInitializeStreamEPK23ChiTargetPortDescriptorPK25ChiFeature2PortDescriptorPN15ChiFeature2Base20ChiFeatureStreamDataE+0x20d0>
   29460: 06 00 00 14  	b	0x29478 <_ZN22ChiFeature2RealTimeMCX18OnInitializeStreamEPK23ChiTargetPortDescriptorPK25ChiFeature2PortDescriptorPN15ChiFeature2Base20ChiFeatureStreamDataE+0x1ba0>
   29474: c0 37 00 54  	b.eq	0x29b6c <_ZN22ChiFeature2RealTimeMCX18OnInitializeStreamEPK23ChiTargetPortDescriptorPK25ChiFeature2PortDescriptorPN15ChiFeature2Base20ChiFeatureStreamDataE+0x2294>
   29484: 01 ff ff 54  	b.ne	0x29464 <_ZN22ChiFeature2RealTimeMCX18OnInitializeStreamEPK23ChiTargetPortDescriptorPK25ChiFeature2PortDescriptorPN15ChiFeature2Base20ChiFeatureStreamDataE+0x1b8c>
   2948c: c0 fe ff b4  	cbz	x0, 0x29464 <_ZN22ChiFeature2RealTimeMCX18OnInitializeStreamEPK23ChiTargetPortDescriptorPK25ChiFeature2PortDescriptorPN15ChiFeature2Base20ChiFeatureStreamDataE+0x1b8c>
   294a4: 01 fe ff 54  	b.ne	0x29464 <_ZN22ChiFeature2RealTimeMCX18OnInitializeStreamEPK23ChiTargetPortDescriptorPK25ChiFeature2PortDescriptorPN15ChiFeature2Base20ChiFeatureStreamDataE+0x1b8c>
   294b0: a1 fd 07 36  	tbz	w1, #0, 0x29464 <_ZN22ChiFeature2RealTimeMCX18OnInitializeStreamEPK23ChiTargetPortDescriptorPK25ChiFeature2PortDescriptorPN15ChiFeature2Base20ChiFeatureStreamDataE+0x1b8c>
   294b4: af 01 00 14  	b	0x29b70 <_ZN22ChiFeature2RealTimeMCX18OnInitializeStreamEPK23ChiTargetPortDescriptorPK25ChiFeature2PortDescriptorPN15ChiFeature2Base20ChiFeatureStreamDataE+0x2298>
   294c4: 06 00 00 14  	b	0x294dc <_ZN22ChiFeature2RealTimeMCX18OnInitializeStreamEPK23ChiTargetPortDescriptorPK25ChiFeature2PortDescriptorPN15ChiFeature2Base20ChiFeatureStreamDataE+0x1c04>
   294d8: a0 34 00 54  	b.eq	0x29b6c <_ZN22ChiFeature2RealTimeMCX18OnInitializeStreamEPK23ChiTargetPortDescriptorPK25ChiFeature2PortDescriptorPN15ChiFeature2Base20ChiFeatureStreamDataE+0x2294>
   294fc: 61 fe ff 54  	b.ne	0x294c8 <_ZN22ChiFeature2RealTimeMCX18OnInitializeStreamEPK23ChiTargetPortDescriptorPK25ChiFeature2PortDescriptorPN15ChiFeature2Base20ChiFeatureStreamDataE+0x1bf0>
   29504: 20 fe ff b4  	cbz	x0, 0x294c8 <_ZN22ChiFeature2RealTimeMCX18OnInitializeStreamEPK23ChiTargetPortDescriptorPK25ChiFeature2PortDescriptorPN15ChiFeature2Base20ChiFeatureStreamDataE+0x1bf0>
   29510: c1 fd ff 54  	b.ne	0x294c8 <_ZN22ChiFeature2RealTimeMCX18OnInitializeStreamEPK23ChiTargetPortDescriptorPK25ChiFeature2PortDescriptorPN15ChiFeature2Base20ChiFeatureStreamDataE+0x1bf0>
   29514: 97 01 00 14  	b	0x29b70 <_ZN22ChiFeature2RealTimeMCX18OnInitializeStreamEPK23ChiTargetPortDescriptorPK25ChiFeature2PortDescriptorPN15ChiFeature2Base20ChiFeatureStreamDataE+0x2298>
   29520: 06 00 00 14  	b	0x29538 <_ZN22ChiFeature2RealTimeMCX18OnInitializeStreamEPK23ChiTargetPortDescriptorPK25ChiFeature2PortDescriptorPN15ChiFeature2Base20ChiFeatureStreamDataE+0x1c60>
   29534: c0 31 00 54  	b.eq	0x29b6c <_ZN22ChiFeature2RealTimeMCX18OnInitializeStreamEPK23ChiTargetPortDescriptorPK25ChiFeature2PortDescriptorPN15ChiFeature2Base20ChiFeatureStreamDataE+0x2294>
   29544: 01 ff ff 54  	b.ne	0x29524 <_ZN22ChiFeature2RealTimeMCX18OnInitializeStreamEPK23ChiTargetPortDescriptorPK25ChiFeature2PortDescriptorPN15ChiFeature2Base20ChiFeatureStreamDataE+0x1c4c>
   2954c: c0 fe ff b4  	cbz	x0, 0x29524 <_ZN22ChiFeature2RealTimeMCX18OnInitializeStreamEPK23ChiTargetPortDescriptorPK25ChiFeature2PortDescriptorPN15ChiFeature2Base20ChiFeatureStreamDataE+0x1c4c>
   29558: 61 fe ff 54  	b.ne	0x29524 <_ZN22ChiFeature2RealTimeMCX18OnInitializeStreamEPK23ChiTargetPortDescriptorPK25ChiFeature2PortDescriptorPN15ChiFeature2Base20ChiFeatureStreamDataE+0x1c4c>
   2955c: 85 01 00 14  	b	0x29b70 <_ZN22ChiFeature2RealTimeMCX18OnInitializeStreamEPK23ChiTargetPortDescriptorPK25ChiFeature2PortDescriptorPN15ChiFeature2Base20ChiFeatureStreamDataE+0x2298>
   29568: 06 00 00 14  	b	0x29580 <_ZN22ChiFeature2RealTimeMCX18OnInitializeStreamEPK23ChiTargetPortDescriptorPK25ChiFeature2PortDescriptorPN15ChiFeature2Base20ChiFeatureStreamDataE+0x1ca8>
   2957c: 80 2f 00 54  	b.eq	0x29b6c <_ZN22ChiFeature2RealTimeMCX18OnInitializeStreamEPK23ChiTargetPortDescriptorPK25ChiFeature2PortDescriptorPN15ChiFeature2Base20ChiFeatureStreamDataE+0x2294>
   2958c: 01 ff ff 54  	b.ne	0x2956c <_ZN22ChiFeature2RealTimeMCX18OnInitializeStreamEPK23ChiTargetPortDescriptorPK25ChiFeature2PortDescriptorPN15ChiFeature2Base20ChiFeatureStreamDataE+0x1c94>
   29594: c0 fe ff b4  	cbz	x0, 0x2956c <_ZN22ChiFeature2RealTimeMCX18OnInitializeStreamEPK23ChiTargetPortDescriptorPK25ChiFeature2PortDescriptorPN15ChiFeature2Base20ChiFeatureStreamDataE+0x1c94>
   295a0: 61 fe ff 54  	b.ne	0x2956c <_ZN22ChiFeature2RealTimeMCX18OnInitializeStreamEPK23ChiTargetPortDescriptorPK25ChiFeature2PortDescriptorPN15ChiFeature2Base20ChiFeatureStreamDataE+0x1c94>
   295a4: 73 01 00 14  	b	0x29b70 <_ZN22ChiFeature2RealTimeMCX18OnInitializeStreamEPK23ChiTargetPortDescriptorPK25ChiFeature2PortDescriptorPN15ChiFeature2Base20ChiFeatureStreamDataE+0x2298>
   295bc: 06 00 00 14  	b	0x295d4 <_ZN22ChiFeature2RealTimeMCX18OnInitializeStreamEPK23ChiTargetPortDescriptorPK25ChiFeature2PortDescriptorPN15ChiFeature2Base20ChiFeatureStreamDataE+0x1cfc>
   295d0: e0 2c 00 54  	b.eq	0x29b6c <_ZN22ChiFeature2RealTimeMCX18OnInitializeStreamEPK23ChiTargetPortDescriptorPK25ChiFeature2PortDescriptorPN15ChiFeature2Base20ChiFeatureStreamDataE+0x2294>
   295e0: 01 ff ff 54  	b.ne	0x295c0 <_ZN22ChiFeature2RealTimeMCX18OnInitializeStreamEPK23ChiTargetPortDescriptorPK25ChiFeature2PortDescriptorPN15ChiFeature2Base20ChiFeatureStreamDataE+0x1ce8>
   295e8: c0 fe ff b4  	cbz	x0, 0x295c0 <_ZN22ChiFeature2RealTimeMCX18OnInitializeStreamEPK23ChiTargetPortDescriptorPK25ChiFeature2PortDescriptorPN15ChiFeature2Base20ChiFeatureStreamDataE+0x1ce8>
   295f4: 61 fe ff 54  	b.ne	0x295c0 <_ZN22ChiFeature2RealTimeMCX18OnInitializeStreamEPK23ChiTargetPortDescriptorPK25ChiFeature2PortDescriptorPN15ChiFeature2Base20ChiFeatureStreamDataE+0x1ce8>
   295f8: 5e 01 00 14  	b	0x29b70 <_ZN22ChiFeature2RealTimeMCX18OnInitializeStreamEPK23ChiTargetPortDescriptorPK25ChiFeature2PortDescriptorPN15ChiFeature2Base20ChiFeatureStreamDataE+0x2298>
   29608: 06 00 00 14  	b	0x29620 <_ZN22ChiFeature2RealTimeMCX18OnInitializeStreamEPK23ChiTargetPortDescriptorPK25ChiFeature2PortDescriptorPN15ChiFeature2Base20ChiFeatureStreamDataE+0x1d48>
   2961c: 80 2a 00 54  	b.eq	0x29b6c <_ZN22ChiFeature2RealTimeMCX18OnInitializeStreamEPK23ChiTargetPortDescriptorPK25ChiFeature2PortDescriptorPN15ChiFeature2Base20ChiFeatureStreamDataE+0x2294>
   2962c: c1 00 00 54  	b.ne	0x29644 <_ZN22ChiFeature2RealTimeMCX18OnInitializeStreamEPK23ChiTargetPortDescriptorPK25ChiFeature2PortDescriptorPN15ChiFeature2Base20ChiFeatureStreamDataE+0x1d6c>
   29640: 02 00 00 14  	b	0x29648 <_ZN22ChiFeature2RealTimeMCX18OnInitializeStreamEPK23ChiTargetPortDescriptorPK25ChiFeature2PortDescriptorPN15ChiFeature2Base20ChiFeatureStreamDataE+0x1d70>
   29668: 21 fd ff 54  	b.ne	0x2960c <_ZN22ChiFeature2RealTimeMCX18OnInitializeStreamEPK23ChiTargetPortDescriptorPK25ChiFeature2PortDescriptorPN15ChiFeature2Base20ChiFeatureStreamDataE+0x1d34>
   29670: e0 fc ff b4  	cbz	x0, 0x2960c <_ZN22ChiFeature2RealTimeMCX18OnInitializeStreamEPK23ChiTargetPortDescriptorPK25ChiFeature2PortDescriptorPN15ChiFeature2Base20ChiFeatureStreamDataE+0x1d34>
   29684: 41 fc ff 54  	b.ne	0x2960c <_ZN22ChiFeature2RealTimeMCX18OnInitializeStreamEPK23ChiTargetPortDescriptorPK25ChiFeature2PortDescriptorPN15ChiFeature2Base20ChiFeatureStreamDataE+0x1d34>
   29690: ed fb 07 36  	tbz	w13, #0, 0x2960c <_ZN22ChiFeature2RealTimeMCX18OnInitializeStreamEPK23ChiTargetPortDescriptorPK25ChiFeature2PortDescriptorPN15ChiFeature2Base20ChiFeatureStreamDataE+0x1d34>
   29694: 37 01 00 14  	b	0x29b70 <_ZN22ChiFeature2RealTimeMCX18OnInitializeStreamEPK23ChiTargetPortDescriptorPK25ChiFeature2PortDescriptorPN15ChiFeature2Base20ChiFeatureStreamDataE+0x2298>
   296a4: 06 00 00 14  	b	0x296bc <_ZN22ChiFeature2RealTimeMCX18OnInitializeStreamEPK23ChiTargetPortDescriptorPK25ChiFeature2PortDescriptorPN15ChiFeature2Base20ChiFeatureStreamDataE+0x1de4>
   296b8: a0 25 00 54  	b.eq	0x29b6c <_ZN22ChiFeature2RealTimeMCX18OnInitializeStreamEPK23ChiTargetPortDescriptorPK25ChiFeature2PortDescriptorPN15ChiFeature2Base20ChiFeatureStreamDataE+0x2294>
   296c8: c1 00 00 54  	b.ne	0x296e0 <_ZN22ChiFeature2RealTimeMCX18OnInitializeStreamEPK23ChiTargetPortDescriptorPK25ChiFeature2PortDescriptorPN15ChiFeature2Base20ChiFeatureStreamDataE+0x1e08>
   296dc: 02 00 00 14  	b	0x296e4 <_ZN22ChiFeature2RealTimeMCX18OnInitializeStreamEPK23ChiTargetPortDescriptorPK25ChiFeature2PortDescriptorPN15ChiFeature2Base20ChiFeatureStreamDataE+0x1e0c>
   29704: 21 fd ff 54  	b.ne	0x296a8 <_ZN22ChiFeature2RealTimeMCX18OnInitializeStreamEPK23ChiTargetPortDescriptorPK25ChiFeature2PortDescriptorPN15ChiFeature2Base20ChiFeatureStreamDataE+0x1dd0>
   2970c: e0 fc ff b4  	cbz	x0, 0x296a8 <_ZN22ChiFeature2RealTimeMCX18OnInitializeStreamEPK23ChiTargetPortDescriptorPK25ChiFeature2PortDescriptorPN15ChiFeature2Base20ChiFeatureStreamDataE+0x1dd0>
   29720: 41 fc ff 54  	b.ne	0x296a8 <_ZN22ChiFeature2RealTimeMCX18OnInitializeStreamEPK23ChiTargetPortDescriptorPK25ChiFeature2PortDescriptorPN15ChiFeature2Base20ChiFeatureStreamDataE+0x1dd0>
   2972c: ed fb 07 36  	tbz	w13, #0, 0x296a8 <_ZN22ChiFeature2RealTimeMCX18OnInitializeStreamEPK23ChiTargetPortDescriptorPK25ChiFeature2PortDescriptorPN15ChiFeature2Base20ChiFeatureStreamDataE+0x1dd0>
   29730: 10 01 00 14  	b	0x29b70 <_ZN22ChiFeature2RealTimeMCX18OnInitializeStreamEPK23ChiTargetPortDescriptorPK25ChiFeature2PortDescriptorPN15ChiFeature2Base20ChiFeatureStreamDataE+0x2298>
   29740: 06 00 00 14  	b	0x29758 <_ZN22ChiFeature2RealTimeMCX18OnInitializeStreamEPK23ChiTargetPortDescriptorPK25ChiFeature2PortDescriptorPN15ChiFeature2Base20ChiFeatureStreamDataE+0x1e80>
   29754: c0 20 00 54  	b.eq	0x29b6c <_ZN22ChiFeature2RealTimeMCX18OnInitializeStreamEPK23ChiTargetPortDescriptorPK25ChiFeature2PortDescriptorPN15ChiFeature2Base20ChiFeatureStreamDataE+0x2294>
   29778: 60 fe ff 54  	b.eq	0x29744 <_ZN22ChiFeature2RealTimeMCX18OnInitializeStreamEPK23ChiTargetPortDescriptorPK25ChiFeature2PortDescriptorPN15ChiFeature2Base20ChiFeatureStreamDataE+0x1e6c>
   29780: 20 fe ff b4  	cbz	x0, 0x29744 <_ZN22ChiFeature2RealTimeMCX18OnInitializeStreamEPK23ChiTargetPortDescriptorPK25ChiFeature2PortDescriptorPN15ChiFeature2Base20ChiFeatureStreamDataE+0x1e6c>
   2979c: 4a fd 07 37  	tbnz	w10, #0, 0x29744 <_ZN22ChiFeature2RealTimeMCX18OnInitializeStreamEPK23ChiTargetPortDescriptorPK25ChiFeature2PortDescriptorPN15ChiFeature2Base20ChiFeatureStreamDataE+0x1e6c>
   297a4: 01 fd ff 54  	b.ne	0x29744 <_ZN22ChiFeature2RealTimeMCX18OnInitializeStreamEPK23ChiTargetPortDescriptorPK25ChiFeature2PortDescriptorPN15ChiFeature2Base20ChiFeatureStreamDataE+0x1e6c>
   297a8: f2 00 00 14  	b	0x29b70 <_ZN22ChiFeature2RealTimeMCX18OnInitializeStreamEPK23ChiTargetPortDescriptorPK25ChiFeature2PortDescriptorPN15ChiFeature2Base20ChiFeatureStreamDataE+0x2298>
   297b8: 06 00 00 14  	b	0x297d0 <_ZN22ChiFeature2RealTimeMCX18OnInitializeStreamEPK23ChiTargetPortDescriptorPK25ChiFeature2PortDescriptorPN15ChiFeature2Base20ChiFeatureStreamDataE+0x1ef8>
   297cc: 00 1d 00 54  	b.eq	0x29b6c <_ZN22ChiFeature2RealTimeMCX18OnInitializeStreamEPK23ChiTargetPortDescriptorPK25ChiFeature2PortDescriptorPN15ChiFeature2Base20ChiFeatureStreamDataE+0x2294>
   297f0: 60 fe ff 54  	b.eq	0x297bc <_ZN22ChiFeature2RealTimeMCX18OnInitializeStreamEPK23ChiTargetPortDescriptorPK25ChiFeature2PortDescriptorPN15ChiFeature2Base20ChiFeatureStreamDataE+0x1ee4>
   297f8: 20 fe ff b4  	cbz	x0, 0x297bc <_ZN22ChiFeature2RealTimeMCX18OnInitializeStreamEPK23ChiTargetPortDescriptorPK25ChiFeature2PortDescriptorPN15ChiFeature2Base20ChiFeatureStreamDataE+0x1ee4>
   29814: 4a fd 07 37  	tbnz	w10, #0, 0x297bc <_ZN22ChiFeature2RealTimeMCX18OnInitializeStreamEPK23ChiTargetPortDescriptorPK25ChiFeature2PortDescriptorPN15ChiFeature2Base20ChiFeatureStreamDataE+0x1ee4>
   2981c: 01 fd ff 54  	b.ne	0x297bc <_ZN22ChiFeature2RealTimeMCX18OnInitializeStreamEPK23ChiTargetPortDescriptorPK25ChiFeature2PortDescriptorPN15ChiFeature2Base20ChiFeatureStreamDataE+0x1ee4>
   29820: d4 00 00 14  	b	0x29b70 <_ZN22ChiFeature2RealTimeMCX18OnInitializeStreamEPK23ChiTargetPortDescriptorPK25ChiFeature2PortDescriptorPN15ChiFeature2Base20ChiFeatureStreamDataE+0x2298>
   2982c: 06 00 00 14  	b	0x29844 <_ZN22ChiFeature2RealTimeMCX18OnInitializeStreamEPK23ChiTargetPortDescriptorPK25ChiFeature2PortDescriptorPN15ChiFeature2Base20ChiFeatureStreamDataE+0x1f6c>
   29840: 60 19 00 54  	b.eq	0x29b6c <_ZN22ChiFeature2RealTimeMCX18OnInitializeStreamEPK23ChiTargetPortDescriptorPK25ChiFeature2PortDescriptorPN15ChiFeature2Base20ChiFeatureStreamDataE+0x2294>
   29850: c1 00 00 54  	b.ne	0x29868 <_ZN22ChiFeature2RealTimeMCX18OnInitializeStreamEPK23ChiTargetPortDescriptorPK25ChiFeature2PortDescriptorPN15ChiFeature2Base20ChiFeatureStreamDataE+0x1f90>
   29864: 02 00 00 14  	b	0x2986c <_ZN22ChiFeature2RealTimeMCX18OnInitializeStreamEPK23ChiTargetPortDescriptorPK25ChiFeature2PortDescriptorPN15ChiFeature2Base20ChiFeatureStreamDataE+0x1f94>
   2986c: 22 fe ff 34  	cbz	w2, 0x29830 <_ZN22ChiFeature2RealTimeMCX18OnInitializeStreamEPK23ChiTargetPortDescriptorPK25ChiFeature2PortDescriptorPN15ChiFeature2Base20ChiFeatureStreamDataE+0x1f58>
   29878: c1 fd ff 54  	b.ne	0x29830 <_ZN22ChiFeature2RealTimeMCX18OnInitializeStreamEPK23ChiTargetPortDescriptorPK25ChiFeature2PortDescriptorPN15ChiFeature2Base20ChiFeatureStreamDataE+0x1f58>
   29880: 80 fd ff b4  	cbz	x0, 0x29830 <_ZN22ChiFeature2RealTimeMCX18OnInitializeStreamEPK23ChiTargetPortDescriptorPK25ChiFeature2PortDescriptorPN15ChiFeature2Base20ChiFeatureStreamDataE+0x1f58>
   29898: c1 fc ff 54  	b.ne	0x29830 <_ZN22ChiFeature2RealTimeMCX18OnInitializeStreamEPK23ChiTargetPortDescriptorPK25ChiFeature2PortDescriptorPN15ChiFeature2Base20ChiFeatureStreamDataE+0x1f58>
   298a4: 67 fc 07 36  	tbz	w7, #0, 0x29830 <_ZN22ChiFeature2RealTimeMCX18OnInitializeStreamEPK23ChiTargetPortDescriptorPK25ChiFeature2PortDescriptorPN15ChiFeature2Base20ChiFeatureStreamDataE+0x1f58>
   298a8: b2 00 00 14  	b	0x29b70 <_ZN22ChiFeature2RealTimeMCX18OnInitializeStreamEPK23ChiTargetPortDescriptorPK25ChiFeature2PortDescriptorPN15ChiFeature2Base20ChiFeatureStreamDataE+0x2298>
   298b8: 06 00 00 14  	b	0x298d0 <_ZN22ChiFeature2RealTimeMCX18OnInitializeStreamEPK23ChiTargetPortDescriptorPK25ChiFeature2PortDescriptorPN15ChiFeature2Base20ChiFeatureStreamDataE+0x1ff8>
   298cc: 00 15 00 54  	b.eq	0x29b6c <_ZN22ChiFeature2RealTimeMCX18OnInitializeStreamEPK23ChiTargetPortDescriptorPK25ChiFeature2PortDescriptorPN15ChiFeature2Base20ChiFeatureStreamDataE+0x2294>
   298f0: 61 fe ff 54  	b.ne	0x298bc <_ZN22ChiFeature2RealTimeMCX18OnInitializeStreamEPK23ChiTargetPortDescriptorPK25ChiFeature2PortDescriptorPN15ChiFeature2Base20ChiFeatureStreamDataE+0x1fe4>
   298f8: 20 fe ff b4  	cbz	x0, 0x298bc <_ZN22ChiFeature2RealTimeMCX18OnInitializeStreamEPK23ChiTargetPortDescriptorPK25ChiFeature2PortDescriptorPN15ChiFeature2Base20ChiFeatureStreamDataE+0x1fe4>
   2990c: 81 fd ff 54  	b.ne	0x298bc <_ZN22ChiFeature2RealTimeMCX18OnInitializeStreamEPK23ChiTargetPortDescriptorPK25ChiFeature2PortDescriptorPN15ChiFeature2Base20ChiFeatureStreamDataE+0x1fe4>
   29918: 23 fd 07 36  	tbz	w3, #0, 0x298bc <_ZN22ChiFeature2RealTimeMCX18OnInitializeStreamEPK23ChiTargetPortDescriptorPK25ChiFeature2PortDescriptorPN15ChiFeature2Base20ChiFeatureStreamDataE+0x1fe4>
   2991c: 95 00 00 14  	b	0x29b70 <_ZN22ChiFeature2RealTimeMCX18OnInitializeStreamEPK23ChiTargetPortDescriptorPK25ChiFeature2PortDescriptorPN15ChiFeature2Base20ChiFeatureStreamDataE+0x2298>
   29928: 06 00 00 14  	b	0x29940 <_ZN22ChiFeature2RealTimeMCX18OnInitializeStreamEPK23ChiTargetPortDescriptorPK25ChiFeature2PortDescriptorPN15ChiFeature2Base20ChiFeatureStreamDataE+0x2068>
   2993c: 80 11 00 54  	b.eq	0x29b6c <_ZN22ChiFeature2RealTimeMCX18OnInitializeStreamEPK23ChiTargetPortDescriptorPK25ChiFeature2PortDescriptorPN15ChiFeature2Base20ChiFeatureStreamDataE+0x2294>
   2994c: c1 00 00 54  	b.ne	0x29964 <_ZN22ChiFeature2RealTimeMCX18OnInitializeStreamEPK23ChiTargetPortDescriptorPK25ChiFeature2PortDescriptorPN15ChiFeature2Base20ChiFeatureStreamDataE+0x208c>
   29960: 02 00 00 14  	b	0x29968 <_ZN22ChiFeature2RealTimeMCX18OnInitializeStreamEPK23ChiTargetPortDescriptorPK25ChiFeature2PortDescriptorPN15ChiFeature2Base20ChiFeatureStreamDataE+0x2090>
   29968: 24 fe ff 34  	cbz	w4, 0x2992c <_ZN22ChiFeature2RealTimeMCX18OnInitializeStreamEPK23ChiTargetPortDescriptorPK25ChiFeature2PortDescriptorPN15ChiFeature2Base20ChiFeatureStreamDataE+0x2054>
   29974: c1 fd ff 54  	b.ne	0x2992c <_ZN22ChiFeature2RealTimeMCX18OnInitializeStreamEPK23ChiTargetPortDescriptorPK25ChiFeature2PortDescriptorPN15ChiFeature2Base20ChiFeatureStreamDataE+0x2054>
   2997c: 80 fd ff b4  	cbz	x0, 0x2992c <_ZN22ChiFeature2RealTimeMCX18OnInitializeStreamEPK23ChiTargetPortDescriptorPK25ChiFeature2PortDescriptorPN15ChiFeature2Base20ChiFeatureStreamDataE+0x2054>
   29994: c1 fc ff 54  	b.ne	0x2992c <_ZN22ChiFeature2RealTimeMCX18OnInitializeStreamEPK23ChiTargetPortDescriptorPK25ChiFeature2PortDescriptorPN15ChiFeature2Base20ChiFeatureStreamDataE+0x2054>
   299a0: 61 fc 07 36  	tbz	w1, #0, 0x2992c <_ZN22ChiFeature2RealTimeMCX18OnInitializeStreamEPK23ChiTargetPortDescriptorPK25ChiFeature2PortDescriptorPN15ChiFeature2Base20ChiFeatureStreamDataE+0x2054>
   299a4: 73 00 00 14  	b	0x29b70 <_ZN22ChiFeature2RealTimeMCX18OnInitializeStreamEPK23ChiTargetPortDescriptorPK25ChiFeature2PortDescriptorPN15ChiFeature2Base20ChiFeatureStreamDataE+0x2298>
   299b0: 06 00 00 14  	b	0x299c8 <_ZN22ChiFeature2RealTimeMCX18OnInitializeStreamEPK23ChiTargetPortDescriptorPK25ChiFeature2PortDescriptorPN15ChiFeature2Base20ChiFeatureStreamDataE+0x20f0>
   299c4: 40 0d 00 54  	b.eq	0x29b6c <_ZN22ChiFeature2RealTimeMCX18OnInitializeStreamEPK23ChiTargetPortDescriptorPK25ChiFeature2PortDescriptorPN15ChiFeature2Base20ChiFeatureStreamDataE+0x2294>
   299d4: 01 ff ff 54  	b.ne	0x299b4 <_ZN22ChiFeature2RealTimeMCX18OnInitializeStreamEPK23ChiTargetPortDescriptorPK25ChiFeature2PortDescriptorPN15ChiFeature2Base20ChiFeatureStreamDataE+0x20dc>
   299dc: c0 fe ff b4  	cbz	x0, 0x299b4 <_ZN22ChiFeature2RealTimeMCX18OnInitializeStreamEPK23ChiTargetPortDescriptorPK25ChiFeature2PortDescriptorPN15ChiFeature2Base20ChiFeatureStreamDataE+0x20dc>
   299f4: 01 fe ff 54  	b.ne	0x299b4 <_ZN22ChiFeature2RealTimeMCX18OnInitializeStreamEPK23ChiTargetPortDescriptorPK25ChiFeature2PortDescriptorPN15ChiFeature2Base20ChiFeatureStreamDataE+0x20dc>
   29a00: b0 fd 07 36  	tbz	w16, #0, 0x299b4 <_ZN22ChiFeature2RealTimeMCX18OnInitializeStreamEPK23ChiTargetPortDescriptorPK25ChiFeature2PortDescriptorPN15ChiFeature2Base20ChiFeatureStreamDataE+0x20dc>
   29a04: 5b 00 00 14  	b	0x29b70 <_ZN22ChiFeature2RealTimeMCX18OnInitializeStreamEPK23ChiTargetPortDescriptorPK25ChiFeature2PortDescriptorPN15ChiFeature2Base20ChiFeatureStreamDataE+0x2298>
   29a14: 06 00 00 14  	b	0x29a2c <_ZN22ChiFeature2RealTimeMCX18OnInitializeStreamEPK23ChiTargetPortDescriptorPK25ChiFeature2PortDescriptorPN15ChiFeature2Base20ChiFeatureStreamDataE+0x2154>
   29a28: 20 0a 00 54  	b.eq	0x29b6c <_ZN22ChiFeature2RealTimeMCX18OnInitializeStreamEPK23ChiTargetPortDescriptorPK25ChiFeature2PortDescriptorPN15ChiFeature2Base20ChiFeatureStreamDataE+0x2294>
   29a4c: 61 fe ff 54  	b.ne	0x29a18 <_ZN22ChiFeature2RealTimeMCX18OnInitializeStreamEPK23ChiTargetPortDescriptorPK25ChiFeature2PortDescriptorPN15ChiFeature2Base20ChiFeatureStreamDataE+0x2140>
   29a54: 20 fe ff b4  	cbz	x0, 0x29a18 <_ZN22ChiFeature2RealTimeMCX18OnInitializeStreamEPK23ChiTargetPortDescriptorPK25ChiFeature2PortDescriptorPN15ChiFeature2Base20ChiFeatureStreamDataE+0x2140>
   29a60: c1 fd ff 54  	b.ne	0x29a18 <_ZN22ChiFeature2RealTimeMCX18OnInitializeStreamEPK23ChiTargetPortDescriptorPK25ChiFeature2PortDescriptorPN15ChiFeature2Base20ChiFeatureStreamDataE+0x2140>
   29a68: 81 fd ff 54  	b.ne	0x29a18 <_ZN22ChiFeature2RealTimeMCX18OnInitializeStreamEPK23ChiTargetPortDescriptorPK25ChiFeature2PortDescriptorPN15ChiFeature2Base20ChiFeatureStreamDataE+0x2140>
   29a6c: 41 00 00 14  	b	0x29b70 <_ZN22ChiFeature2RealTimeMCX18OnInitializeStreamEPK23ChiTargetPortDescriptorPK25ChiFeature2PortDescriptorPN15ChiFeature2Base20ChiFeatureStreamDataE+0x2298>
   29a78: 06 00 00 14  	b	0x29a90 <_ZN22ChiFeature2RealTimeMCX18OnInitializeStreamEPK23ChiTargetPortDescriptorPK25ChiFeature2PortDescriptorPN15ChiFeature2Base20ChiFeatureStreamDataE+0x21b8>
   29a8c: 00 07 00 54  	b.eq	0x29b6c <_ZN22ChiFeature2RealTimeMCX18OnInitializeStreamEPK23ChiTargetPortDescriptorPK25ChiFeature2PortDescriptorPN15ChiFeature2Base20ChiFeatureStreamDataE+0x2294>
   29a9c: 01 ff ff 54  	b.ne	0x29a7c <_ZN22ChiFeature2RealTimeMCX18OnInitializeStreamEPK23ChiTargetPortDescriptorPK25ChiFeature2PortDescriptorPN15ChiFeature2Base20ChiFeatureStreamDataE+0x21a4>
   29aa4: c0 fe ff b4  	cbz	x0, 0x29a7c <_ZN22ChiFeature2RealTimeMCX18OnInitializeStreamEPK23ChiTargetPortDescriptorPK25ChiFeature2PortDescriptorPN15ChiFeature2Base20ChiFeatureStreamDataE+0x21a4>
   29ab8: 21 fe ff 54  	b.ne	0x29a7c <_ZN22ChiFeature2RealTimeMCX18OnInitializeStreamEPK23ChiTargetPortDescriptorPK25ChiFeature2PortDescriptorPN15ChiFeature2Base20ChiFeatureStreamDataE+0x21a4>
   29abc: 2d 00 00 14  	b	0x29b70 <_ZN22ChiFeature2RealTimeMCX18OnInitializeStreamEPK23ChiTargetPortDescriptorPK25ChiFeature2PortDescriptorPN15ChiFeature2Base20ChiFeatureStreamDataE+0x2298>
   29ac8: 06 00 00 14  	b	0x29ae0 <_ZN22ChiFeature2RealTimeMCX18OnInitializeStreamEPK23ChiTargetPortDescriptorPK25ChiFeature2PortDescriptorPN15ChiFeature2Base20ChiFeatureStreamDataE+0x2208>
   29adc: 80 04 00 54  	b.eq	0x29b6c <_ZN22ChiFeature2RealTimeMCX18OnInitializeStreamEPK23ChiTargetPortDescriptorPK25ChiFeature2PortDescriptorPN15ChiFeature2Base20ChiFeatureStreamDataE+0x2294>
   29aec: 01 ff ff 54  	b.ne	0x29acc <_ZN22ChiFeature2RealTimeMCX18OnInitializeStreamEPK23ChiTargetPortDescriptorPK25ChiFeature2PortDescriptorPN15ChiFeature2Base20ChiFeatureStreamDataE+0x21f4>
   29af4: c0 fe ff b4  	cbz	x0, 0x29acc <_ZN22ChiFeature2RealTimeMCX18OnInitializeStreamEPK23ChiTargetPortDescriptorPK25ChiFeature2PortDescriptorPN15ChiFeature2Base20ChiFeatureStreamDataE+0x21f4>
   29b08: 21 fe ff 54  	b.ne	0x29acc <_ZN22ChiFeature2RealTimeMCX18OnInitializeStreamEPK23ChiTargetPortDescriptorPK25ChiFeature2PortDescriptorPN15ChiFeature2Base20ChiFeatureStreamDataE+0x21f4>
   29b0c: 19 00 00 14  	b	0x29b70 <_ZN22ChiFeature2RealTimeMCX18OnInitializeStreamEPK23ChiTargetPortDescriptorPK25ChiFeature2PortDescriptorPN15ChiFeature2Base20ChiFeatureStreamDataE+0x2298>
   29b24: 06 00 00 14  	b	0x29b3c <_ZN22ChiFeature2RealTimeMCX18OnInitializeStreamEPK23ChiTargetPortDescriptorPK25ChiFeature2PortDescriptorPN15ChiFeature2Base20ChiFeatureStreamDataE+0x2264>
   29b38: a0 01 00 54  	b.eq	0x29b6c <_ZN22ChiFeature2RealTimeMCX18OnInitializeStreamEPK23ChiTargetPortDescriptorPK25ChiFeature2PortDescriptorPN15ChiFeature2Base20ChiFeatureStreamDataE+0x2294>
   29b48: 01 ff ff 54  	b.ne	0x29b28 <_ZN22ChiFeature2RealTimeMCX18OnInitializeStreamEPK23ChiTargetPortDescriptorPK25ChiFeature2PortDescriptorPN15ChiFeature2Base20ChiFeatureStreamDataE+0x2250>
   29b50: c0 fe ff b4  	cbz	x0, 0x29b28 <_ZN22ChiFeature2RealTimeMCX18OnInitializeStreamEPK23ChiTargetPortDescriptorPK25ChiFeature2PortDescriptorPN15ChiFeature2Base20ChiFeatureStreamDataE+0x2250>
   29b64: 21 fe ff 54  	b.ne	0x29b28 <_ZN22ChiFeature2RealTimeMCX18OnInitializeStreamEPK23ChiTargetPortDescriptorPK25ChiFeature2PortDescriptorPN15ChiFeature2Base20ChiFeatureStreamDataE+0x2250>
   29b68: 02 00 00 14  	b	0x29b70 <_ZN22ChiFeature2RealTimeMCX18OnInitializeStreamEPK23ChiTargetPortDescriptorPK25ChiFeature2PortDescriptorPN15ChiFeature2Base20ChiFeatureStreamDataE+0x2298>
   29b74: 60 00 00 54  	b.eq	0x29b80 <_ZN22ChiFeature2RealTimeMCX18OnInitializeStreamEPK23ChiTargetPortDescriptorPK25ChiFeature2PortDescriptorPN15ChiFeature2Base20ChiFeatureStreamDataE+0x22a8>
   29b7c: 02 00 00 14  	b	0x29b84 <_ZN22ChiFeature2RealTimeMCX18OnInitializeStreamEPK23ChiTargetPortDescriptorPK25ChiFeature2PortDescriptorPN15ChiFeature2Base20ChiFeatureStreamDataE+0x22ac>
   29bd4: 21 03 00 b4  	cbz	x1, 0x29c38 <_ZN22ChiFeature2RealTimeMCX18OnInitializeStreamEPK23ChiTargetPortDescriptorPK25ChiFeature2PortDescriptorPN15ChiFeature2Base20ChiFeatureStreamDataE+0x2360>
   29bdc: e3 02 00 b4  	cbz	x3, 0x29c38 <_ZN22ChiFeature2RealTimeMCX18OnInitializeStreamEPK23ChiTargetPortDescriptorPK25ChiFeature2PortDescriptorPN15ChiFeature2Base20ChiFeatureStreamDataE+0x2360>
   29be4: a4 02 00 b4  	cbz	x4, 0x29c38 <_ZN22ChiFeature2RealTimeMCX18OnInitializeStreamEPK23ChiTargetPortDescriptorPK25ChiFeature2PortDescriptorPN15ChiFeature2Base20ChiFeatureStreamDataE+0x2360>
   29bec: 65 02 00 b4  	cbz	x5, 0x29c38 <_ZN22ChiFeature2RealTimeMCX18OnInitializeStreamEPK23ChiTargetPortDescriptorPK25ChiFeature2PortDescriptorPN15ChiFeature2Base20ChiFeatureStreamDataE+0x2360>
   29bf0: ba 01 00 f0  	adrp	x26, 0x60000 <_ZN22ChiFeature2RealTimeMCX18OnInitializeStreamEPK23ChiTargetPortDescriptorPK25ChiFeature2PortDescriptorPN15ChiFeature2Base20ChiFeatureStreamDataE+0x23f4>
   29c04: c2 07 00 37  	tbnz	w2, #0, 0x29cfc <_ZN22ChiFeature2RealTimeMCX18OnInitializeStreamEPK23ChiTargetPortDescriptorPK25ChiFeature2PortDescriptorPN15ChiFeature2Base20ChiFeatureStreamDataE+0x2424>
   29c30: 64 b8 00 94  	bl	0x57dc0 <_ZN15UsecaseSelector18getSensorDimensionEjPK28camera3_stream_configurationPjS3_S3_jjPK17LogicalCameraInfo@plt>
   29c34: 13 01 00 14  	b	0x2a080 <_ZN22ChiFeature2RealTimeMCX18OnInitializeStreamEPK23ChiTargetPortDescriptorPK25ChiFeature2PortDescriptorPN15ChiFeature2Base20ChiFeatureStreamDataE+0x27a8>
   29c38: ae 01 00 f0  	adrp	x14, 0x60000 <_ZN22ChiFeature2RealTimeMCX18OnInitializeStreamEPK23ChiTargetPortDescriptorPK25ChiFeature2PortDescriptorPN15ChiFeature2Base20ChiFeatureStreamDataE+0x243c>
   29c44: 2e 28 00 36  	tbz	w14, #0, 0x2a148 <_ZN22ChiFeature2RealTimeMCX18OnInitializeStreamEPK23ChiTargetPortDescriptorPK25ChiFeature2PortDescriptorPN15ChiFeature2Base20ChiFeatureStreamDataE+0x2870>
   29c48: af 01 00 f0  	adrp	x15, 0x60000 <_ZN22ChiFeature2RealTimeMCX18OnInitializeStreamEPK23ChiTargetPortDescriptorPK25ChiFeature2PortDescriptorPN15ChiFeature2Base20ChiFeatureStreamDataE+0x244c>
   29c58: 41 02 00 54  	b.ne	0x29ca0 <_ZN22ChiFeature2RealTimeMCX18OnInitializeStreamEPK23ChiTargetPortDescriptorPK25ChiFeature2PortDescriptorPN15ChiFeature2Base20ChiFeatureStreamDataE+0x23c8>
   29c5c: 77 ff ff 90  	adrp	x23, 0x15000 <_ZN22ChiFeature2RealTimeMCX18OnInitializeStreamEPK23ChiTargetPortDescriptorPK25ChiFeature2PortDescriptorPN15ChiFeature2Base20ChiFeatureStreamDataE+0x2334>
   29c78: 61 ff ff d0  	adrp	x1, 0x17000 <_ZN22ChiFeature2RealTimeMCX18OnInitializeStreamEPK23ChiTargetPortDescriptorPK25ChiFeature2PortDescriptorPN15ChiFeature2Base20ChiFeatureStreamDataE+0x2358>
   29c7c: 22 ff ff f0  	adrp	x2, 0x10000 <_ZN22ChiFeature2RealTimeMCX18OnInitializeStreamEPK23ChiTargetPortDescriptorPK25ChiFeature2PortDescriptorPN15ChiFeature2Base20ChiFeatureStreamDataE+0x2340>
   29c80: 25 ff ff d0  	adrp	x5, 0xf000 <_ZN22ChiFeature2RealTimeMCX18OnInitializeStreamEPK23ChiTargetPortDescriptorPK25ChiFeature2PortDescriptorPN15ChiFeature2Base20ChiFeatureStreamDataE+0x2340>
   29ca0: 78 ff ff 90  	adrp	x24, 0x15000 <_ZN22ChiFeature2RealTimeMCX18OnInitializeStreamEPK23ChiTargetPortDescriptorPK25ChiFeature2PortDescriptorPN15ChiFeature2Base20ChiFeatureStreamDataE+0x2378>
   29cbc: 61 ff ff d0  	adrp	x1, 0x17000 <_ZN22ChiFeature2RealTimeMCX18OnInitializeStreamEPK23ChiTargetPortDescriptorPK25ChiFeature2PortDescriptorPN15ChiFeature2Base20ChiFeatureStreamDataE+0x239c>
   29cc4: 20 ff ff 90  	adrp	x0, 0xd000 <_ZN22ChiFeature2RealTimeMCX18OnInitializeStreamEPK23ChiTargetPortDescriptorPK25ChiFeature2PortDescriptorPN15ChiFeature2Base20ChiFeatureStreamDataE+0x237c>
   29cc8: 23 ff ff d0  	adrp	x3, 0xf000 <_ZN22ChiFeature2RealTimeMCX18OnInitializeStreamEPK23ChiTargetPortDescriptorPK25ChiFeature2PortDescriptorPN15ChiFeature2Base20ChiFeatureStreamDataE+0x2388>
   29ccc: 65 ff ff 90  	adrp	x5, 0x15000 <_ZN22ChiFeature2RealTimeMCX18OnInitializeStreamEPK23ChiTargetPortDescriptorPK25ChiFeature2PortDescriptorPN15ChiFeature2Base20ChiFeatureStreamDataE+0x23a4>
   29ce4: 3f b7 00 94  	bl	0x579e0 <_ZN6ChiLog9LogSystemEPKcS1_S1_S1_iS1_z@plt>
   29cf4: 20 23 00 54  	b.eq	0x2a158 <_ZN22ChiFeature2RealTimeMCX18OnInitializeStreamEPK23ChiTargetPortDescriptorPK25ChiFeature2PortDescriptorPN15ChiFeature2Base20ChiFeatureStreamDataE+0x2880>
   29d00: e0 09 00 54  	b.eq	0x29e3c <_ZN22ChiFeature2RealTimeMCX18OnInitializeStreamEPK23ChiTargetPortDescriptorPK25ChiFeature2PortDescriptorPN15ChiFeature2Base20ChiFeatureStreamDataE+0x2564>
   29d0c: 9d b7 00 94  	bl	0x57b80 <_ZN15ExtensionModule11GetInstanceEv@plt>
   29d1c: b9 b7 00 94  	bl	0x57c00 <_ZN15ExtensionModule28GetPhysicalCameraSensorModesEjPjPP17ChiSensorModeInfo@plt>
   29d20: 20 03 00 35  	cbnz	w0, 0x29d84 <_ZN22ChiFeature2RealTimeMCX18OnInitializeStreamEPK23ChiTargetPortDescriptorPK25ChiFeature2PortDescriptorPN15ChiFeature2Base20ChiFeatureStreamDataE+0x24ac>
   29d28: e8 02 00 34  	cbz	w8, 0x29d84 <_ZN22ChiFeature2RealTimeMCX18OnInitializeStreamEPK23ChiTargetPortDescriptorPK25ChiFeature2PortDescriptorPN15ChiFeature2Base20ChiFeatureStreamDataE+0x24ac>
   29d38: 0a 00 00 14  	b	0x29d60 <_ZN22ChiFeature2RealTimeMCX18OnInitializeStreamEPK23ChiTargetPortDescriptorPK25ChiFeature2PortDescriptorPN15ChiFeature2Base20ChiFeatureStreamDataE+0x2488>
   29d5c: 40 01 00 54  	b.eq	0x29d84 <_ZN22ChiFeature2RealTimeMCX18OnInitializeStreamEPK23ChiTargetPortDescriptorPK25ChiFeature2PortDescriptorPN15ChiFeature2Base20ChiFeatureStreamDataE+0x24ac>
   29d6c: 88 fe ff 54  	b.hi	0x29d3c <_ZN22ChiFeature2RealTimeMCX18OnInitializeStreamEPK23ChiTargetPortDescriptorPK25ChiFeature2PortDescriptorPN15ChiFeature2Base20ChiFeatureStreamDataE+0x2464>
   29d7c: 08 fe ff 54  	b.hi	0x29d3c <_ZN22ChiFeature2RealTimeMCX18OnInitializeStreamEPK23ChiTargetPortDescriptorPK25ChiFeature2PortDescriptorPN15ChiFeature2Base20ChiFeatureStreamDataE+0x2464>
   29d80: f4 ff ff 17  	b	0x29d50 <_ZN22ChiFeature2RealTimeMCX18OnInitializeStreamEPK23ChiTargetPortDescriptorPK25ChiFeature2PortDescriptorPN15ChiFeature2Base20ChiFeatureStreamDataE+0x2478>
   29d8c: 7d b7 00 94  	bl	0x57b80 <_ZN15ExtensionModule11GetInstanceEv@plt>
   29d9c: 99 b7 00 94  	bl	0x57c00 <_ZN15ExtensionModule28GetPhysicalCameraSensorModesEjPjPP17ChiSensorModeInfo@plt>
   29dac: a1 16 00 54  	b.ne	0x2a080 <_ZN22ChiFeature2RealTimeMCX18OnInitializeStreamEPK23ChiTargetPortDescriptorPK25ChiFeature2PortDescriptorPN15ChiFeature2Base20ChiFeatureStreamDataE+0x27a8>
   29db8: 72 b7 00 94  	bl	0x57b80 <_ZN15ExtensionModule11GetInstanceEv@plt>
   29dc8: 8e b7 00 94  	bl	0x57c00 <_ZN15ExtensionModule28GetPhysicalCameraSensorModesEjPjPP17ChiSensorModeInfo@plt>
   29dd4: 21 0f 00 54  	b.ne	0x29fb8 <_ZN22ChiFeature2RealTimeMCX18OnInitializeStreamEPK23ChiTargetPortDescriptorPK25ChiFeature2PortDescriptorPN15ChiFeature2Base20ChiFeatureStreamDataE+0x26e0>
   29dfc: 61 b7 00 94  	bl	0x57b80 <_ZN15ExtensionModule11GetInstanceEv@plt>
   29e04: f3 b7 00 94  	bl	0x57dd0 <_ZN15ExtensionModule15GetVendorTagOpsEP16ChiVendorTagsOps@plt>
   29e0c: 69 0d 00 34  	cbz	w9, 0x29fb8 <_ZN22ChiFeature2RealTimeMCX18OnInitializeStreamEPK23ChiTargetPortDescriptorPK25ChiFeature2PortDescriptorPN15ChiFeature2Base20ChiFeatureStreamDataE+0x26e0>
   29e24: 40 0b 00 54  	b.eq	0x29f8c <_ZN22ChiFeature2RealTimeMCX18OnInitializeStreamEPK23ChiTargetPortDescriptorPK25ChiFeature2PortDescriptorPN15ChiFeature2Base20ChiFeatureStreamDataE+0x26b4>
   29e34: 21 ff ff 54  	b.ne	0x29e18 <_ZN22ChiFeature2RealTimeMCX18OnInitializeStreamEPK23ChiTargetPortDescriptorPK25ChiFeature2PortDescriptorPN15ChiFeature2Base20ChiFeatureStreamDataE+0x2540>
   29e38: 60 00 00 14  	b	0x29fb8 <_ZN22ChiFeature2RealTimeMCX18OnInitializeStreamEPK23ChiTargetPortDescriptorPK25ChiFeature2PortDescriptorPN15ChiFeature2Base20ChiFeatureStreamDataE+0x26e0>
   29e3c: 62 ee 1f 36  	tbz	w2, #3, 0x29c08 <_ZN22ChiFeature2RealTimeMCX18OnInitializeStreamEPK23ChiTargetPortDescriptorPK25ChiFeature2PortDescriptorPN15ChiFeature2Base20ChiFeatureStreamDataE+0x2330>
   29e48: 4e b7 00 94  	bl	0x57b80 <_ZN15ExtensionModule11GetInstanceEv@plt>
   29e58: 6a b7 00 94  	bl	0x57c00 <_ZN15ExtensionModule28GetPhysicalCameraSensorModesEjPjPP17ChiSensorModeInfo@plt>
   29e68: c9 10 00 34  	cbz	w9, 0x2a080 <_ZN22ChiFeature2RealTimeMCX18OnInitializeStreamEPK23ChiTargetPortDescriptorPK25ChiFeature2PortDescriptorPN15ChiFeature2Base20ChiFeatureStreamDataE+0x27a8>
   29e6c: 79 ff ff 90  	adrp	x25, 0x15000 <_ZN22ChiFeature2RealTimeMCX18OnInitializeStreamEPK23ChiTargetPortDescriptorPK25ChiFeature2PortDescriptorPN15ChiFeature2Base20ChiFeatureStreamDataE+0x2544>
   29e84: 1a 00 00 14  	b	0x29eec <_ZN22ChiFeature2RealTimeMCX18OnInitializeStreamEPK23ChiTargetPortDescriptorPK25ChiFeature2PortDescriptorPN15ChiFeature2Base20ChiFeatureStreamDataE+0x2614>
   29eac: 60 ff ff d0  	adrp	x0, 0x17000 <_ZN22ChiFeature2RealTimeMCX18OnInitializeStreamEPK23ChiTargetPortDescriptorPK25ChiFeature2PortDescriptorPN15ChiFeature2Base20ChiFeatureStreamDataE+0x258c>
   29eb0: 41 ff ff d0  	adrp	x1, 0x13000 <_ZN22ChiFeature2RealTimeMCX18OnInitializeStreamEPK23ChiTargetPortDescriptorPK25ChiFeature2PortDescriptorPN15ChiFeature2Base20ChiFeatureStreamDataE+0x2580>
   29eb4: 23 ff ff d0  	adrp	x3, 0xf000 <_ZN22ChiFeature2RealTimeMCX18OnInitializeStreamEPK23ChiTargetPortDescriptorPK25ChiFeature2PortDescriptorPN15ChiFeature2Base20ChiFeatureStreamDataE+0x2574>
   29eb8: 25 ff ff b0  	adrp	x5, 0xe000 <_ZN22ChiFeature2RealTimeMCX18OnInitializeStreamEPK23ChiTargetPortDescriptorPK25ChiFeature2PortDescriptorPN15ChiFeature2Base20ChiFeatureStreamDataE+0x2574>
   29ed4: c3 b6 00 94  	bl	0x579e0 <_ZN6ChiLog9LogSystemEPKcS1_S1_S1_iS1_z@plt>
   29ee8: c2 0c 00 54  	b.hs	0x2a080 <_ZN22ChiFeature2RealTimeMCX18OnInitializeStreamEPK23ChiTargetPortDescriptorPK25ChiFeature2PortDescriptorPN15ChiFeature2Base20ChiFeatureStreamDataE+0x27a8>
   29ef8: 2c ff ff 36  	tbz	w12, #31, 0x29edc <_ZN22ChiFeature2RealTimeMCX18OnInitializeStreamEPK23ChiTargetPortDescriptorPK25ChiFeature2PortDescriptorPN15ChiFeature2Base20ChiFeatureStreamDataE+0x2604>
   29f04: c1 fe ff 54  	b.ne	0x29edc <_ZN22ChiFeature2RealTimeMCX18OnInitializeStreamEPK23ChiTargetPortDescriptorPK25ChiFeature2PortDescriptorPN15ChiFeature2Base20ChiFeatureStreamDataE+0x2604>
   29f24: d0 fd 2f 36  	tbz	w16, #5, 0x29edc <_ZN22ChiFeature2RealTimeMCX18OnInitializeStreamEPK23ChiTargetPortDescriptorPK25ChiFeature2PortDescriptorPN15ChiFeature2Base20ChiFeatureStreamDataE+0x2604>
   29f28: a9 01 00 f0  	adrp	x9, 0x60000 <_ZN22ChiFeature2RealTimeMCX18OnInitializeStreamEPK23ChiTargetPortDescriptorPK25ChiFeature2PortDescriptorPN15ChiFeature2Base20ChiFeatureStreamDataE+0x272c>
   29f38: 81 fa ff 54  	b.ne	0x29e88 <_ZN22ChiFeature2RealTimeMCX18OnInitializeStreamEPK23ChiTargetPortDescriptorPK25ChiFeature2PortDescriptorPN15ChiFeature2Base20ChiFeatureStreamDataE+0x25b0>
   29f58: 61 ff ff d0  	adrp	x1, 0x17000 <_ZN22ChiFeature2RealTimeMCX18OnInitializeStreamEPK23ChiTargetPortDescriptorPK25ChiFeature2PortDescriptorPN15ChiFeature2Base20ChiFeatureStreamDataE+0x2638>
   29f60: 42 ff ff d0  	adrp	x2, 0x13000 <_ZN22ChiFeature2RealTimeMCX18OnInitializeStreamEPK23ChiTargetPortDescriptorPK25ChiFeature2PortDescriptorPN15ChiFeature2Base20ChiFeatureStreamDataE+0x2630>
   29f64: 25 ff ff d0  	adrp	x5, 0xf000 <_ZN22ChiFeature2RealTimeMCX18OnInitializeStreamEPK23ChiTargetPortDescriptorPK25ChiFeature2PortDescriptorPN15ChiFeature2Base20ChiFeatureStreamDataE+0x2624>
   29f88: c0 ff ff 17  	b	0x29e88 <_ZN22ChiFeature2RealTimeMCX18OnInitializeStreamEPK23ChiTargetPortDescriptorPK25ChiFeature2PortDescriptorPN15ChiFeature2Base20ChiFeatureStreamDataE+0x25b0>
   29f94: 37 01 00 b4  	cbz	x23, 0x29fb8 <_ZN22ChiFeature2RealTimeMCX18OnInitializeStreamEPK23ChiTargetPortDescriptorPK25ChiFeature2PortDescriptorPN15ChiFeature2Base20ChiFeatureStreamDataE+0x26e0>
   29f9c: 60 ff ff d0  	adrp	x0, 0x17000 <_ZN22ChiFeature2RealTimeMCX18OnInitializeStreamEPK23ChiTargetPortDescriptorPK25ChiFeature2PortDescriptorPN15ChiFeature2Base20ChiFeatureStreamDataE+0x267c>
   29fa0: 41 ff ff d0  	adrp	x1, 0x13000 <_ZN22ChiFeature2RealTimeMCX18OnInitializeStreamEPK23ChiTargetPortDescriptorPK25ChiFeature2PortDescriptorPN15ChiFeature2Base20ChiFeatureStreamDataE+0x2670>
   29fb4: 20 0e 00 34  	cbz	w0, 0x2a178 <_ZN22ChiFeature2RealTimeMCX18OnInitializeStreamEPK23ChiTargetPortDescriptorPK25ChiFeature2PortDescriptorPN15ChiFeature2Base20ChiFeatureStreamDataE+0x28a0>
   29fb8: ba 01 00 f0  	adrp	x26, 0x60000 <_ZN22ChiFeature2RealTimeMCX18OnInitializeStreamEPK23ChiTargetPortDescriptorPK25ChiFeature2PortDescriptorPN15ChiFeature2Base20ChiFeatureStreamDataE+0x27bc>
   29fc4: e4 05 18 36  	tbz	w4, #3, 0x2a080 <_ZN22ChiFeature2RealTimeMCX18OnInitializeStreamEPK23ChiTargetPortDescriptorPK25ChiFeature2PortDescriptorPN15ChiFeature2Base20ChiFeatureStreamDataE+0x27a8>
   29fc8: a2 01 00 f0  	adrp	x2, 0x60000 <_ZN22ChiFeature2RealTimeMCX18OnInitializeStreamEPK23ChiTargetPortDescriptorPK25ChiFeature2PortDescriptorPN15ChiFeature2Base20ChiFeatureStreamDataE+0x27cc>
   29fcc: 79 ff ff 90  	adrp	x25, 0x15000 <_ZN22ChiFeature2RealTimeMCX18OnInitializeStreamEPK23ChiTargetPortDescriptorPK25ChiFeature2PortDescriptorPN15ChiFeature2Base20ChiFeatureStreamDataE+0x26a4>
   29fe0: 81 02 00 54  	b.ne	0x2a030 <_ZN22ChiFeature2RealTimeMCX18OnInitializeStreamEPK23ChiTargetPortDescriptorPK25ChiFeature2PortDescriptorPN15ChiFeature2Base20ChiFeatureStreamDataE+0x2758>
   2a000: 61 ff ff b0  	adrp	x1, 0x17000 <_ZN22ChiFeature2RealTimeMCX18OnInitializeStreamEPK23ChiTargetPortDescriptorPK25ChiFeature2PortDescriptorPN15ChiFeature2Base20ChiFeatureStreamDataE+0x26dc>
   2a008: 62 ff ff b0  	adrp	x2, 0x17000 <_ZN22ChiFeature2RealTimeMCX18OnInitializeStreamEPK23ChiTargetPortDescriptorPK25ChiFeature2PortDescriptorPN15ChiFeature2Base20ChiFeatureStreamDataE+0x26e4>
   2a00c: 45 ff ff 90  	adrp	x5, 0x12000 <_ZN22ChiFeature2RealTimeMCX18OnInitializeStreamEPK23ChiTargetPortDescriptorPK25ChiFeature2PortDescriptorPN15ChiFeature2Base20ChiFeatureStreamDataE+0x26d4>
   2a054: 60 ff ff d0  	adrp	x0, 0x18000 <_ZN22ChiFeature2RealTimeMCX18OnInitializeStreamEPK23ChiTargetPortDescriptorPK25ChiFeature2PortDescriptorPN15ChiFeature2Base20ChiFeatureStreamDataE+0x2734>
   2a058: 41 ff ff 90  	adrp	x1, 0x12000 <_ZN22ChiFeature2RealTimeMCX18OnInitializeStreamEPK23ChiTargetPortDescriptorPK25ChiFeature2PortDescriptorPN15ChiFeature2Base20ChiFeatureStreamDataE+0x2720>
   2a05c: 43 ff ff 90  	adrp	x3, 0x12000 <_ZN22ChiFeature2RealTimeMCX18OnInitializeStreamEPK23ChiTargetPortDescriptorPK25ChiFeature2PortDescriptorPN15ChiFeature2Base20ChiFeatureStreamDataE+0x2724>
   2a060: 05 ff ff f0  	adrp	x5, 0xd000 <_ZN22ChiFeature2RealTimeMCX18OnInitializeStreamEPK23ChiTargetPortDescriptorPK25ChiFeature2PortDescriptorPN15ChiFeature2Base20ChiFeatureStreamDataE+0x2714>
   2a07c: 59 b6 00 94  	bl	0x579e0 <_ZN6ChiLog9LogSystemEPKcS1_S1_S1_iS1_z@plt>
   2a084: 23 06 18 36  	tbz	w3, #3, 0x2a148 <_ZN22ChiFeature2RealTimeMCX18OnInitializeStreamEPK23ChiTargetPortDescriptorPK25ChiFeature2PortDescriptorPN15ChiFeature2Base20ChiFeatureStreamDataE+0x2870>
   2a088: a3 01 00 d0  	adrp	x3, 0x60000 <_ZN22ChiFeature2RealTimeMCX18OnInitializeStreamEPK23ChiTargetPortDescriptorPK25ChiFeature2PortDescriptorPN15ChiFeature2Base20ChiFeatureStreamDataE+0x2888>
   2a098: c1 02 00 54  	b.ne	0x2a0f0 <_ZN22ChiFeature2RealTimeMCX18OnInitializeStreamEPK23ChiTargetPortDescriptorPK25ChiFeature2PortDescriptorPN15ChiFeature2Base20ChiFeatureStreamDataE+0x2818>
   2a09c: 5c ff ff f0  	adrp	x28, 0x15000 <_ZN22ChiFeature2RealTimeMCX18OnInitializeStreamEPK23ChiTargetPortDescriptorPK25ChiFeature2PortDescriptorPN15ChiFeature2Base20ChiFeatureStreamDataE+0x2770>
   2a0c0: 61 ff ff b0  	adrp	x1, 0x17000 <_ZN22ChiFeature2RealTimeMCX18OnInitializeStreamEPK23ChiTargetPortDescriptorPK25ChiFeature2PortDescriptorPN15ChiFeature2Base20ChiFeatureStreamDataE+0x279c>
   2a0c8: 22 ff ff 90  	adrp	x2, 0xe000 <_ZN22ChiFeature2RealTimeMCX18OnInitializeStreamEPK23ChiTargetPortDescriptorPK25ChiFeature2PortDescriptorPN15ChiFeature2Base20ChiFeatureStreamDataE+0x2780>
   2a0cc: 25 ff ff b0  	adrp	x5, 0xf000 <_ZN22ChiFeature2RealTimeMCX18OnInitializeStreamEPK23ChiTargetPortDescriptorPK25ChiFeature2PortDescriptorPN15ChiFeature2Base20ChiFeatureStreamDataE+0x2788>
   2a0f0: 59 ff ff f0  	adrp	x25, 0x15000 <_ZN22ChiFeature2RealTimeMCX18OnInitializeStreamEPK23ChiTargetPortDescriptorPK25ChiFeature2PortDescriptorPN15ChiFeature2Base20ChiFeatureStreamDataE+0x27c4>
   2a11c: 60 ff ff d0  	adrp	x0, 0x18000 <_ZN22ChiFeature2RealTimeMCX18OnInitializeStreamEPK23ChiTargetPortDescriptorPK25ChiFeature2PortDescriptorPN15ChiFeature2Base20ChiFeatureStreamDataE+0x27fc>
   2a120: 41 ff ff 90  	adrp	x1, 0x12000 <_ZN22ChiFeature2RealTimeMCX18OnInitializeStreamEPK23ChiTargetPortDescriptorPK25ChiFeature2PortDescriptorPN15ChiFeature2Base20ChiFeatureStreamDataE+0x27e8>
   2a124: 23 ff ff b0  	adrp	x3, 0xf000 <_ZN22ChiFeature2RealTimeMCX18OnInitializeStreamEPK23ChiTargetPortDescriptorPK25ChiFeature2PortDescriptorPN15ChiFeature2Base20ChiFeatureStreamDataE+0x27e0>
   2a128: 65 ff ff b0  	adrp	x5, 0x17000 <_ZN22ChiFeature2RealTimeMCX18OnInitializeStreamEPK23ChiTargetPortDescriptorPK25ChiFeature2PortDescriptorPN15ChiFeature2Base20ChiFeatureStreamDataE+0x2804>
   2a144: 27 b6 00 94  	bl	0x579e0 <_ZN6ChiLog9LogSystemEPKcS1_S1_S1_iS1_z@plt>
   2a154: 21 dd ff 54  	b.ne	0x29cf8 <_ZN22ChiFeature2RealTimeMCX18OnInitializeStreamEPK23ChiTargetPortDescriptorPK25ChiFeature2PortDescriptorPN15ChiFeature2Base20ChiFeatureStreamDataE+0x2420>
   2a17c: f7 f1 ff b4  	cbz	x23, 0x29fb8 <_ZN22ChiFeature2RealTimeMCX18OnInitializeStreamEPK23ChiTargetPortDescriptorPK25ChiFeature2PortDescriptorPN15ChiFeature2Base20ChiFeatureStreamDataE+0x26e0>
   2a198: 40 07 00 34  	cbz	w0, 0x2a280 <_ZN22ChiFeature2RealTimeMCX18OnInitializeStreamEPK23ChiTargetPortDescriptorPK25ChiFeature2PortDescriptorPN15ChiFeature2Base20ChiFeatureStreamDataE+0x29a8>
   2a19c: a7 01 00 d0  	adrp	x7, 0x60000 <_ZN22ChiFeature2RealTimeMCX18OnInitializeStreamEPK23ChiTargetPortDescriptorPK25ChiFeature2PortDescriptorPN15ChiFeature2Base20ChiFeatureStreamDataE+0x299c>
   2a1a8: 26 06 28 36  	tbz	w6, #5, 0x2a26c <_ZN22ChiFeature2RealTimeMCX18OnInitializeStreamEPK23ChiTargetPortDescriptorPK25ChiFeature2PortDescriptorPN15ChiFeature2Base20ChiFeatureStreamDataE+0x2994>
   2a1ac: a1 01 00 d0  	adrp	x1, 0x60000 <_ZN22ChiFeature2RealTimeMCX18OnInitializeStreamEPK23ChiTargetPortDescriptorPK25ChiFeature2PortDescriptorPN15ChiFeature2Base20ChiFeatureStreamDataE+0x29ac>
   2a1bc: c1 02 00 54  	b.ne	0x2a214 <_ZN22ChiFeature2RealTimeMCX18OnInitializeStreamEPK23ChiTargetPortDescriptorPK25ChiFeature2PortDescriptorPN15ChiFeature2Base20ChiFeatureStreamDataE+0x293c>
   2a1c0: 5c ff ff f0  	adrp	x28, 0x15000 <_ZN22ChiFeature2RealTimeMCX18OnInitializeStreamEPK23ChiTargetPortDescriptorPK25ChiFeature2PortDescriptorPN15ChiFeature2Base20ChiFeatureStreamDataE+0x2894>
   2a1e0: 61 ff ff b0  	adrp	x1, 0x17000 <_ZN22ChiFeature2RealTimeMCX18OnInitializeStreamEPK23ChiTargetPortDescriptorPK25ChiFeature2PortDescriptorPN15ChiFeature2Base20ChiFeatureStreamDataE+0x28bc>
   2a1e4: 22 ff ff d0  	adrp	x2, 0x10000 <_ZN22ChiFeature2RealTimeMCX18OnInitializeStreamEPK23ChiTargetPortDescriptorPK25ChiFeature2PortDescriptorPN15ChiFeature2Base20ChiFeatureStreamDataE+0x28a4>
   2a1e8: 25 ff ff 90  	adrp	x5, 0xe000 <_ZN22ChiFeature2RealTimeMCX18OnInitializeStreamEPK23ChiTargetPortDescriptorPK25ChiFeature2PortDescriptorPN15ChiFeature2Base20ChiFeatureStreamDataE+0x28a0>
   2a214: 58 ff ff f0  	adrp	x24, 0x15000 <_ZN22ChiFeature2RealTimeMCX18OnInitializeStreamEPK23ChiTargetPortDescriptorPK25ChiFeature2PortDescriptorPN15ChiFeature2Base20ChiFeatureStreamDataE+0x28e8>
   2a238: 60 ff ff b0  	adrp	x0, 0x17000 <_ZN22ChiFeature2RealTimeMCX18OnInitializeStreamEPK23ChiTargetPortDescriptorPK25ChiFeature2PortDescriptorPN15ChiFeature2Base20ChiFeatureStreamDataE+0x2914>
   2a23c: 41 ff ff b0  	adrp	x1, 0x13000 <_ZN22ChiFeature2RealTimeMCX18OnInitializeStreamEPK23ChiTargetPortDescriptorPK25ChiFeature2PortDescriptorPN15ChiFeature2Base20ChiFeatureStreamDataE+0x2908>
   2a240: 23 ff ff 90  	adrp	x3, 0xe000 <_ZN22ChiFeature2RealTimeMCX18OnInitializeStreamEPK23ChiTargetPortDescriptorPK25ChiFeature2PortDescriptorPN15ChiFeature2Base20ChiFeatureStreamDataE+0x28f8>
   2a244: 65 ff ff 90  	adrp	x5, 0x16000 <_ZN22ChiFeature2RealTimeMCX18OnInitializeStreamEPK23ChiTargetPortDescriptorPK25ChiFeature2PortDescriptorPN15ChiFeature2Base20ChiFeatureStreamDataE+0x291c>
   2a268: de b5 00 94  	bl	0x579e0 <_ZN6ChiLog9LogSystemEPKcS1_S1_S1_iS1_z@plt>
   2a278: cc 01 00 35  	cbnz	w12, 0x2a2b0 <_ZN22ChiFeature2RealTimeMCX18OnInitializeStreamEPK23ChiTargetPortDescriptorPK25ChiFeature2PortDescriptorPN15ChiFeature2Base20ChiFeatureStreamDataE+0x29d8>
   2a27c: 4f ff ff 17  	b	0x29fb8 <_ZN22ChiFeature2RealTimeMCX18OnInitializeStreamEPK23ChiTargetPortDescriptorPK25ChiFeature2PortDescriptorPN15ChiFeature2Base20ChiFeatureStreamDataE+0x26e0>
   2a29c: c3 0b 00 b5  	cbnz	x3, 0x2a414 <_ZN22ChiFeature2RealTimeMCX18OnInitializeStreamEPK23ChiTargetPortDescriptorPK25ChiFeature2PortDescriptorPN15ChiFeature2Base20ChiFeatureStreamDataE+0x2b3c>
   2a2a0: a5 0b 00 35  	cbnz	w5, 0x2a414 <_ZN22ChiFeature2RealTimeMCX18OnInitializeStreamEPK23ChiTargetPortDescriptorPK25ChiFeature2PortDescriptorPN15ChiFeature2Base20ChiFeatureStreamDataE+0x2b3c>
   2a2ac: 6c e8 ff 34  	cbz	w12, 0x29fb8 <_ZN22ChiFeature2RealTimeMCX18OnInitializeStreamEPK23ChiTargetPortDescriptorPK25ChiFeature2PortDescriptorPN15ChiFeature2Base20ChiFeatureStreamDataE+0x26e0>
   2a2b4: 28 e8 ff 34  	cbz	w8, 0x29fb8 <_ZN22ChiFeature2RealTimeMCX18OnInitializeStreamEPK23ChiTargetPortDescriptorPK25ChiFeature2PortDescriptorPN15ChiFeature2Base20ChiFeatureStreamDataE+0x26e0>
   2a2cc: 09 00 00 14  	b	0x2a2f0 <_ZN22ChiFeature2RealTimeMCX18OnInitializeStreamEPK23ChiTargetPortDescriptorPK25ChiFeature2PortDescriptorPN15ChiFeature2Base20ChiFeatureStreamDataE+0x2a18>
   2a2ec: 62 e6 ff 54  	b.hs	0x29fb8 <_ZN22ChiFeature2RealTimeMCX18OnInitializeStreamEPK23ChiTargetPortDescriptorPK25ChiFeature2PortDescriptorPN15ChiFeature2Base20ChiFeatureStreamDataE+0x26e0>
   2a2fc: a0 fe 27 36  	tbz	w0, #4, 0x2a2d0 <_ZN22ChiFeature2RealTimeMCX18OnInitializeStreamEPK23ChiTargetPortDescriptorPK25ChiFeature2PortDescriptorPN15ChiFeature2Base20ChiFeatureStreamDataE+0x29f8>
   2a308: 43 fe ff 54  	b.lo	0x2a2d0 <_ZN22ChiFeature2RealTimeMCX18OnInitializeStreamEPK23ChiTargetPortDescriptorPK25ChiFeature2PortDescriptorPN15ChiFeature2Base20ChiFeatureStreamDataE+0x29f8>
   2a31c: a3 fd ff 54  	b.lo	0x2a2d0 <_ZN22ChiFeature2RealTimeMCX18OnInitializeStreamEPK23ChiTargetPortDescriptorPK25ChiFeature2PortDescriptorPN15ChiFeature2Base20ChiFeatureStreamDataE+0x29f8>
   2a334: a6 01 00 d0  	adrp	x6, 0x60000 <_ZN22ChiFeature2RealTimeMCX18OnInitializeStreamEPK23ChiTargetPortDescriptorPK25ChiFeature2PortDescriptorPN15ChiFeature2Base20ChiFeatureStreamDataE+0x2b34>
   2a340: c7 fc 2f 36  	tbz	w7, #5, 0x2a2d8 <_ZN22ChiFeature2RealTimeMCX18OnInitializeStreamEPK23ChiTargetPortDescriptorPK25ChiFeature2PortDescriptorPN15ChiFeature2Base20ChiFeatureStreamDataE+0x2a00>
   2a344: a0 01 00 d0  	adrp	x0, 0x60000 <_ZN22ChiFeature2RealTimeMCX18OnInitializeStreamEPK23ChiTargetPortDescriptorPK25ChiFeature2PortDescriptorPN15ChiFeature2Base20ChiFeatureStreamDataE+0x2b44>
   2a354: e1 02 00 54  	b.ne	0x2a3b0 <_ZN22ChiFeature2RealTimeMCX18OnInitializeStreamEPK23ChiTargetPortDescriptorPK25ChiFeature2PortDescriptorPN15ChiFeature2Base20ChiFeatureStreamDataE+0x2ad8>
   2a358: 4b ff ff f0  	adrp	x11, 0x15000 <_ZN22ChiFeature2RealTimeMCX18OnInitializeStreamEPK23ChiTargetPortDescriptorPK25ChiFeature2PortDescriptorPN15ChiFeature2Base20ChiFeatureStreamDataE+0x2a2c>
   2a380: 61 ff ff b0  	adrp	x1, 0x17000 <_ZN22ChiFeature2RealTimeMCX18OnInitializeStreamEPK23ChiTargetPortDescriptorPK25ChiFeature2PortDescriptorPN15ChiFeature2Base20ChiFeatureStreamDataE+0x2a5c>
   2a388: 22 ff ff d0  	adrp	x2, 0x10000 <_ZN22ChiFeature2RealTimeMCX18OnInitializeStreamEPK23ChiTargetPortDescriptorPK25ChiFeature2PortDescriptorPN15ChiFeature2Base20ChiFeatureStreamDataE+0x2a48>
   2a38c: 45 ff ff 90  	adrp	x5, 0x12000 <_ZN22ChiFeature2RealTimeMCX18OnInitializeStreamEPK23ChiTargetPortDescriptorPK25ChiFeature2PortDescriptorPN15ChiFeature2Base20ChiFeatureStreamDataE+0x2a54>
   2a3b0: 5a ff ff f0  	adrp	x26, 0x15000 <_ZN22ChiFeature2RealTimeMCX18OnInitializeStreamEPK23ChiTargetPortDescriptorPK25ChiFeature2PortDescriptorPN15ChiFeature2Base20ChiFeatureStreamDataE+0x2a84>
   2a3dc: 60 ff ff b0  	adrp	x0, 0x17000 <_ZN22ChiFeature2RealTimeMCX18OnInitializeStreamEPK23ChiTargetPortDescriptorPK25ChiFeature2PortDescriptorPN15ChiFeature2Base20ChiFeatureStreamDataE+0x2ab8>
   2a3e0: 41 ff ff b0  	adrp	x1, 0x13000 <_ZN22ChiFeature2RealTimeMCX18OnInitializeStreamEPK23ChiTargetPortDescriptorPK25ChiFeature2PortDescriptorPN15ChiFeature2Base20ChiFeatureStreamDataE+0x2aac>
   2a3e4: 43 ff ff 90  	adrp	x3, 0x12000 <_ZN22ChiFeature2RealTimeMCX18OnInitializeStreamEPK23ChiTargetPortDescriptorPK25ChiFeature2PortDescriptorPN15ChiFeature2Base20ChiFeatureStreamDataE+0x2aac>
   2a3e8: 45 ff ff b0  	adrp	x5, 0x13000 <_ZN22ChiFeature2RealTimeMCX18OnInitializeStreamEPK23ChiTargetPortDescriptorPK25ChiFeature2PortDescriptorPN15ChiFeature2Base20ChiFeatureStreamDataE+0x2ab4>
   2a404: 77 b5 00 94  	bl	0x579e0 <_ZN6ChiLog9LogSystemEPKcS1_S1_S1_iS1_z@plt>
   2a410: b2 ff ff 17  	b	0x2a2d8 <_ZN22ChiFeature2RealTimeMCX18OnInitializeStreamEPK23ChiTargetPortDescriptorPK25ChiFeature2PortDescriptorPN15ChiFeature2Base20ChiFeatureStreamDataE+0x2a00>
   2a418: a0 f2 ff b4  	cbz	x0, 0x2a26c <_ZN22ChiFeature2RealTimeMCX18OnInitializeStreamEPK23ChiTargetPortDescriptorPK25ChiFeature2PortDescriptorPN15ChiFeature2Base20ChiFeatureStreamDataE+0x2994>
   2a42c: 6b dc ff 54  	b.lt	0x29fb8 <_ZN22ChiFeature2RealTimeMCX18OnInitializeStreamEPK23ChiTargetPortDescriptorPK25ChiFeature2PortDescriptorPN15ChiFeature2Base20ChiFeatureStreamDataE+0x26e0>
   2a430: 58 dc ff 34  	cbz	w24, 0x29fb8 <_ZN22ChiFeature2RealTimeMCX18OnInitializeStreamEPK23ChiTargetPortDescriptorPK25ChiFeature2PortDescriptorPN15ChiFeature2Base20ChiFeatureStreamDataE+0x26e0>
   2a440: 06 00 00 14  	b	0x2a458 <_ZN22ChiFeature2RealTimeMCX18OnInitializeStreamEPK23ChiTargetPortDescriptorPK25ChiFeature2PortDescriptorPN15ChiFeature2Base20ChiFeatureStreamDataE+0x2b80>
   2a454: 22 db ff 54  	b.hs	0x29fb8 <_ZN22ChiFeature2RealTimeMCX18OnInitializeStreamEPK23ChiTargetPortDescriptorPK25ChiFeature2PortDescriptorPN15ChiFeature2Base20ChiFeatureStreamDataE+0x26e0>
   2a47c: 06 00 00 14  	b	0x2a494 <_ZN22ChiFeature2RealTimeMCX18OnInitializeStreamEPK23ChiTargetPortDescriptorPK25ChiFeature2PortDescriptorPN15ChiFeature2Base20ChiFeatureStreamDataE+0x2bbc>
   2a490: a0 fd ff 54  	b.eq	0x2a444 <_ZN22ChiFeature2RealTimeMCX18OnInitializeStreamEPK23ChiTargetPortDescriptorPK25ChiFeature2PortDescriptorPN15ChiFeature2Base20ChiFeatureStreamDataE+0x2b6c>
   2a498: 5c 01 00 b4  	cbz	x28, 0x2a4c0 <_ZN22ChiFeature2RealTimeMCX18OnInitializeStreamEPK23ChiTargetPortDescriptorPK25ChiFeature2PortDescriptorPN15ChiFeature2Base20ChiFeatureStreamDataE+0x2be8>
   2a4a0: 00 01 00 b4  	cbz	x0, 0x2a4c0 <_ZN22ChiFeature2RealTimeMCX18OnInitializeStreamEPK23ChiTargetPortDescriptorPK25ChiFeature2PortDescriptorPN15ChiFeature2Base20ChiFeatureStreamDataE+0x2be8>
   2a4ac: a0 00 00 b4  	cbz	x0, 0x2a4c0 <_ZN22ChiFeature2RealTimeMCX18OnInitializeStreamEPK23ChiTargetPortDescriptorPK25ChiFeature2PortDescriptorPN15ChiFeature2Base20ChiFeatureStreamDataE+0x2be8>
   2a4bc: 02 00 00 14  	b	0x2a4c4 <_ZN22ChiFeature2RealTimeMCX18OnInitializeStreamEPK23ChiTargetPortDescriptorPK25ChiFeature2PortDescriptorPN15ChiFeature2Base20ChiFeatureStreamDataE+0x2bec>
   2a4c4: a5 01 00 d0  	adrp	x5, 0x60000 <_ZN22ChiFeature2RealTimeMCX18OnInitializeStreamEPK23ChiTargetPortDescriptorPK25ChiFeature2PortDescriptorPN15ChiFeature2Base20ChiFeatureStreamDataE+0x2cc4>
   2a4d0: c7 09 28 36  	tbz	w7, #5, 0x2a608 <_ZN22ChiFeature2RealTimeMCX18OnInitializeStreamEPK23ChiTargetPortDescriptorPK25ChiFeature2PortDescriptorPN15ChiFeature2Base20ChiFeatureStreamDataE+0x2d30>
   2a4d4: b1 01 00 d0  	adrp	x17, 0x60000 <_ZN22ChiFeature2RealTimeMCX18OnInitializeStreamEPK23ChiTargetPortDescriptorPK25ChiFeature2PortDescriptorPN15ChiFeature2Base20ChiFeatureStreamDataE+0x2cd4>
   2a4e4: a1 04 00 54  	b.ne	0x2a578 <_ZN22ChiFeature2RealTimeMCX18OnInitializeStreamEPK23ChiTargetPortDescriptorPK25ChiFeature2PortDescriptorPN15ChiFeature2Base20ChiFeatureStreamDataE+0x2ca0>
   2a4e8: 42 ff ff f0  	adrp	x2, 0x15000 <_ZN22ChiFeature2RealTimeMCX18OnInitializeStreamEPK23ChiTargetPortDescriptorPK25ChiFeature2PortDescriptorPN15ChiFeature2Base20ChiFeatureStreamDataE+0x2bbc>
   2a504: 4d ff ff f0  	adrp	x13, 0x15000 <_ZN22ChiFeature2RealTimeMCX18OnInitializeStreamEPK23ChiTargetPortDescriptorPK25ChiFeature2PortDescriptorPN15ChiFeature2Base20ChiFeatureStreamDataE+0x2bd8>
   2a518: 61 ff ff b0  	adrp	x1, 0x17000 <_ZN22ChiFeature2RealTimeMCX18OnInitializeStreamEPK23ChiTargetPortDescriptorPK25ChiFeature2PortDescriptorPN15ChiFeature2Base20ChiFeatureStreamDataE+0x2bf4>
   2a51c: 22 ff ff b0  	adrp	x2, 0xf000 <_ZN22ChiFeature2RealTimeMCX18OnInitializeStreamEPK23ChiTargetPortDescriptorPK25ChiFeature2PortDescriptorPN15ChiFeature2Base20ChiFeatureStreamDataE+0x2bd8>
   2a520: 25 ff ff 90  	adrp	x5, 0xe000 <_ZN22ChiFeature2RealTimeMCX18OnInitializeStreamEPK23ChiTargetPortDescriptorPK25ChiFeature2PortDescriptorPN15ChiFeature2Base20ChiFeatureStreamDataE+0x2bd8>
   2a578: 58 ff ff f0  	adrp	x24, 0x15000 <_ZN22ChiFeature2RealTimeMCX18OnInitializeStreamEPK23ChiTargetPortDescriptorPK25ChiFeature2PortDescriptorPN15ChiFeature2Base20ChiFeatureStreamDataE+0x2c4c>
   2a5a4: 60 ff ff b0  	adrp	x0, 0x17000 <_ZN22ChiFeature2RealTimeMCX18OnInitializeStreamEPK23ChiTargetPortDescriptorPK25ChiFeature2PortDescriptorPN15ChiFeature2Base20ChiFeatureStreamDataE+0x2c80>
   2a5a8: 41 ff ff b0  	adrp	x1, 0x13000 <_ZN22ChiFeature2RealTimeMCX18OnInitializeStreamEPK23ChiTargetPortDescriptorPK25ChiFeature2PortDescriptorPN15ChiFeature2Base20ChiFeatureStreamDataE+0x2c74>
   2a5b0: 05 ff ff f0  	adrp	x5, 0xd000 <_ZN22ChiFeature2RealTimeMCX18OnInitializeStreamEPK23ChiTargetPortDescriptorPK25ChiFeature2PortDescriptorPN15ChiFeature2Base20ChiFeatureStreamDataE+0x2c64>
   2a5d0: 23 ff ff 90  	adrp	x3, 0xe000 <_ZN22ChiFeature2RealTimeMCX18OnInitializeStreamEPK23ChiTargetPortDescriptorPK25ChiFeature2PortDescriptorPN15ChiFeature2Base20ChiFeatureStreamDataE+0x2c88>
   2a604: f7 b4 00 94  	bl	0x579e0 <_ZN6ChiLog9LogSystemEPKcS1_S1_S1_iS1_z@plt>
   2a60c: a1 f3 ff 54  	b.ne	0x2a480 <_ZN22ChiFeature2RealTimeMCX18OnInitializeStreamEPK23ChiTargetPortDescriptorPK25ChiFeature2PortDescriptorPN15ChiFeature2Base20ChiFeatureStreamDataE+0x2ba8>
   2a61c: 21 f3 ff 54  	b.ne	0x2a480 <_ZN22ChiFeature2RealTimeMCX18OnInitializeStreamEPK23ChiTargetPortDescriptorPK25ChiFeature2PortDescriptorPN15ChiFeature2Base20ChiFeatureStreamDataE+0x2ba8>
   2a628: d9 f2 ff 34  	cbz	w25, 0x2a480 <_ZN22ChiFeature2RealTimeMCX18OnInitializeStreamEPK23ChiTargetPortDescriptorPK25ChiFeature2PortDescriptorPN15ChiFeature2Base20ChiFeatureStreamDataE+0x2ba8>
   2a634: 60 f2 ff 34  	cbz	w0, 0x2a480 <_ZN22ChiFeature2RealTimeMCX18OnInitializeStreamEPK23ChiTargetPortDescriptorPK25ChiFeature2PortDescriptorPN15ChiFeature2Base20ChiFeatureStreamDataE+0x2ba8>
   2a640: 01 f2 ff 54  	b.ne	0x2a480 <_ZN22ChiFeature2RealTimeMCX18OnInitializeStreamEPK23ChiTargetPortDescriptorPK25ChiFeature2PortDescriptorPN15ChiFeature2Base20ChiFeatureStreamDataE+0x2ba8>
   2a64c: a1 f1 ff 54  	b.ne	0x2a480 <_ZN22ChiFeature2RealTimeMCX18OnInitializeStreamEPK23ChiTargetPortDescriptorPK25ChiFeature2PortDescriptorPN15ChiFeature2Base20ChiFeatureStreamDataE+0x2ba8>
   2a658: 41 f1 ff 54  	b.ne	0x2a480 <_ZN22ChiFeature2RealTimeMCX18OnInitializeStreamEPK23ChiTargetPortDescriptorPK25ChiFeature2PortDescriptorPN15ChiFeature2Base20ChiFeatureStreamDataE+0x2ba8>
   2a660: 1c f1 ff 35  	cbnz	w28, 0x2a480 <_ZN22ChiFeature2RealTimeMCX18OnInitializeStreamEPK23ChiTargetPortDescriptorPK25ChiFeature2PortDescriptorPN15ChiFeature2Base20ChiFeatureStreamDataE+0x2ba8>
   2a664: a4 01 00 d0  	adrp	x4, 0x60000 <_ZN22ChiFeature2RealTimeMCX18OnInitializeStreamEPK23ChiTargetPortDescriptorPK25ChiFeature2PortDescriptorPN15ChiFeature2Base20ChiFeatureStreamDataE+0x2e64>
   2a678: f6 06 18 36  	tbz	w22, #3, 0x2a754 <_ZN22ChiFeature2RealTimeMCX18OnInitializeStreamEPK23ChiTargetPortDescriptorPK25ChiFeature2PortDescriptorPN15ChiFeature2Base20ChiFeatureStreamDataE+0x2e7c>
   2a67c: a1 01 00 d0  	adrp	x1, 0x60000 <_ZN22ChiFeature2RealTimeMCX18OnInitializeStreamEPK23ChiTargetPortDescriptorPK25ChiFeature2PortDescriptorPN15ChiFeature2Base20ChiFeatureStreamDataE+0x2e7c>
   2a68c: 21 03 00 54  	b.ne	0x2a6f0 <_ZN22ChiFeature2RealTimeMCX18OnInitializeStreamEPK23ChiTargetPortDescriptorPK25ChiFeature2PortDescriptorPN15ChiFeature2Base20ChiFeatureStreamDataE+0x2e18>
   2a690: 5c ff ff f0  	adrp	x28, 0x15000 <_ZN22ChiFeature2RealTimeMCX18OnInitializeStreamEPK23ChiTargetPortDescriptorPK25ChiFeature2PortDescriptorPN15ChiFeature2Base20ChiFeatureStreamDataE+0x2d64>
   2a6b0: 61 ff ff b0  	adrp	x1, 0x17000 <_ZN22ChiFeature2RealTimeMCX18OnInitializeStreamEPK23ChiTargetPortDescriptorPK25ChiFeature2PortDescriptorPN15ChiFeature2Base20ChiFeatureStreamDataE+0x2d8c>
   2a6b8: 22 ff ff d0  	adrp	x2, 0x10000 <_ZN22ChiFeature2RealTimeMCX18OnInitializeStreamEPK23ChiTargetPortDescriptorPK25ChiFeature2PortDescriptorPN15ChiFeature2Base20ChiFeatureStreamDataE+0x2d78>
   2a6bc: 25 ff ff 90  	adrp	x5, 0xe000 <_ZN22ChiFeature2RealTimeMCX18OnInitializeStreamEPK23ChiTargetPortDescriptorPK25ChiFeature2PortDescriptorPN15ChiFeature2Base20ChiFeatureStreamDataE+0x2d74>
   2a6f0: 59 ff ff f0  	adrp	x25, 0x15000 <_ZN22ChiFeature2RealTimeMCX18OnInitializeStreamEPK23ChiTargetPortDescriptorPK25ChiFeature2PortDescriptorPN15ChiFeature2Base20ChiFeatureStreamDataE+0x2dc4>
   2a710: 41 ff ff 90  	adrp	x1, 0x12000 <_ZN22ChiFeature2RealTimeMCX18OnInitializeStreamEPK23ChiTargetPortDescriptorPK25ChiFeature2PortDescriptorPN15ChiFeature2Base20ChiFeatureStreamDataE+0x2dd8>
   2a71c: 60 ff ff d0  	adrp	x0, 0x18000 <_ZN22ChiFeature2RealTimeMCX18OnInitializeStreamEPK23ChiTargetPortDescriptorPK25ChiFeature2PortDescriptorPN15ChiFeature2Base20ChiFeatureStreamDataE+0x2dfc>
   2a720: 23 ff ff 90  	adrp	x3, 0xe000 <_ZN22ChiFeature2RealTimeMCX18OnInitializeStreamEPK23ChiTargetPortDescriptorPK25ChiFeature2PortDescriptorPN15ChiFeature2Base20ChiFeatureStreamDataE+0x2dd8>
   2a728: 25 ff ff b0  	adrp	x5, 0xf000 <_ZN22ChiFeature2RealTimeMCX18OnInitializeStreamEPK23ChiTargetPortDescriptorPK25ChiFeature2PortDescriptorPN15ChiFeature2Base20ChiFeatureStreamDataE+0x2de4>
   2a750: a4 b4 00 94  	bl	0x579e0 <_ZN6ChiLog9LogSystemEPKcS1_S1_S1_iS1_z@plt>
   2a75c: ac da ff 35  	cbnz	w12, 0x2a2b0 <_ZN22ChiFeature2RealTimeMCX18OnInitializeStreamEPK23ChiTargetPortDescriptorPK25ChiFeature2PortDescriptorPN15ChiFeature2Base20ChiFeatureStreamDataE+0x29d8>
   2a760: 16 fe ff 17  	b	0x29fb8 <_ZN22ChiFeature2RealTimeMCX18OnInitializeStreamEPK23ChiTargetPortDescriptorPK25ChiFeature2PortDescriptorPN15ChiFeature2Base20ChiFeatureStreamDataE+0x26e0>
000000000002a768 <_ZN22ChiFeature2RealTimeMCX15OnSessionCreateEP21ChiFeature2Identifier>:
   2a794: 81 03 00 b4  	cbz	x1, 0x2a804 <_ZN22ChiFeature2RealTimeMCX15OnSessionCreateEP21ChiFeature2Identifier+0x9c>
   2a7ac: 22 01 00 54  	b.hs	0x2a7d0 <_ZN22ChiFeature2RealTimeMCX15OnSessionCreateEP21ChiFeature2Identifier+0x68>
   2a7b8: f9 00 00 b4  	cbz	x25, 0x2a7d4 <_ZN22ChiFeature2RealTimeMCX15OnSessionCreateEP21ChiFeature2Identifier+0x6c>
   2a7c0: bb 00 00 b4  	cbz	x27, 0x2a7d4 <_ZN22ChiFeature2RealTimeMCX15OnSessionCreateEP21ChiFeature2Identifier+0x6c>
   2a7cc: 01 08 00 54  	b.ne	0x2a8cc <_ZN22ChiFeature2RealTimeMCX15OnSessionCreateEP21ChiFeature2Identifier+0x164>
   2a7e0: 41 07 00 54  	b.ne	0x2a8c8 <_ZN22ChiFeature2RealTimeMCX15OnSessionCreateEP21ChiFeature2Identifier+0x160>
   2a804: a2 01 00 d0  	adrp	x2, 0x60000 <_ZN22ChiFeature2RealTimeMCX15OnSessionCreateEP21ChiFeature2Identifier+0x174>
   2a810: 28 05 00 36  	tbz	w8, #0, 0x2a8b4 <_ZN22ChiFeature2RealTimeMCX15OnSessionCreateEP21ChiFeature2Identifier+0x14c>
   2a814: a3 01 00 d0  	adrp	x3, 0x60000 <_ZN22ChiFeature2RealTimeMCX15OnSessionCreateEP21ChiFeature2Identifier+0x184>
   2a824: 41 02 00 54  	b.ne	0x2a86c <_ZN22ChiFeature2RealTimeMCX15OnSessionCreateEP21ChiFeature2Identifier+0x104>
   2a828: 14 ff ff f0  	adrp	x20, 0xd000 <_ZN22ChiFeature2RealTimeMCX15OnSessionCreateEP21ChiFeature2Identifier+0x4c>
   2a844: 61 ff ff b0  	adrp	x1, 0x17000 <_ZN22ChiFeature2RealTimeMCX15OnSessionCreateEP21ChiFeature2Identifier+0x90>
   2a848: 62 ff ff 90  	adrp	x2, 0x16000 <_ZN22ChiFeature2RealTimeMCX15OnSessionCreateEP21ChiFeature2Identifier+0x90>
   2a84c: 25 ff ff d0  	adrp	x5, 0x10000 <_ZN22ChiFeature2RealTimeMCX15OnSessionCreateEP21ChiFeature2Identifier+0x7c>
   2a86c: 16 ff ff f0  	adrp	x22, 0xd000 <_ZN22ChiFeature2RealTimeMCX15OnSessionCreateEP21ChiFeature2Identifier+0x90>
   2a888: 61 ff ff b0  	adrp	x1, 0x17000 <_ZN22ChiFeature2RealTimeMCX15OnSessionCreateEP21ChiFeature2Identifier+0xd4>
   2a890: 00 ff ff f0  	adrp	x0, 0xd000 <_ZN22ChiFeature2RealTimeMCX15OnSessionCreateEP21ChiFeature2Identifier+0xb4>
   2a894: 23 ff ff d0  	adrp	x3, 0x10000 <_ZN22ChiFeature2RealTimeMCX15OnSessionCreateEP21ChiFeature2Identifier+0xc4>
   2a898: 05 ff ff f0  	adrp	x5, 0xd000 <_ZN22ChiFeature2RealTimeMCX15OnSessionCreateEP21ChiFeature2Identifier+0xbc>
   2a8b0: 4c b4 00 94  	bl	0x579e0 <_ZN6ChiLog9LogSystemEPKcS1_S1_S1_iS1_z@plt>
   2a8c4: 00 f9 ff 54  	b.eq	0x2a7e4 <_ZN22ChiFeature2RealTimeMCX15OnSessionCreateEP21ChiFeature2Identifier+0x7c>
   2a8d0: 3c ff ff f0  	adrp	x28, 0x11000 <_ZN22ChiFeature2RealTimeMCX15OnSessionCreateEP21ChiFeature2Identifier+0x104>
   2a8ec: 07 00 00 14  	b	0x2a908 <_ZN22ChiFeature2RealTimeMCX15OnSessionCreateEP21ChiFeature2Identifier+0x1a0>
   2a904: 62 f6 ff 54  	b.hs	0x2a7d0 <_ZN22ChiFeature2RealTimeMCX15OnSessionCreateEP21ChiFeature2Identifier+0x68>
   2a90c: 54 ff ff b4  	cbz	x20, 0x2a8f4 <_ZN22ChiFeature2RealTimeMCX15OnSessionCreateEP21ChiFeature2Identifier+0x18c>
   2a914: d7 01 00 b4  	cbz	x23, 0x2a94c <_ZN22ChiFeature2RealTimeMCX15OnSessionCreateEP21ChiFeature2Identifier+0x1e4>
   2a938: 2e b5 00 94  	bl	0x57df0 <_ZN18ChiMetadataManager14RegisterClientEiPjjjj16ChiMetadataUsage@plt>
   2a944: 4b 00 00 b4  	cbz	x11, 0x2a94c <_ZN22ChiFeature2RealTimeMCX15OnSessionCreateEP21ChiFeature2Identifier+0x1e4>
   2a954: 41 0b 00 54  	b.ne	0x2aabc <_ZN22ChiFeature2RealTimeMCX15OnSessionCreateEP21ChiFeature2Identifier+0x354>
   2a964: 61 00 00 54  	b.ne	0x2a970 <_ZN22ChiFeature2RealTimeMCX15OnSessionCreateEP21ChiFeature2Identifier+0x208>
   2a970: 37 fc ff b4  	cbz	x23, 0x2a8f4 <_ZN22ChiFeature2RealTimeMCX15OnSessionCreateEP21ChiFeature2Identifier+0x18c>
   2a978: 01 ff ff d0  	adrp	x1, 0xc000 <_ZN22ChiFeature2RealTimeMCX15OnSessionCreateEP21ChiFeature2Identifier+0x198>
   2a9a0: b7 fa ff b4  	cbz	x23, 0x2a8f4 <_ZN22ChiFeature2RealTimeMCX15OnSessionCreateEP21ChiFeature2Identifier+0x18c>
   2a9a4: a6 01 00 d0  	adrp	x6, 0x60000 <_ZN22ChiFeature2RealTimeMCX15OnSessionCreateEP21ChiFeature2Identifier+0x314>
   2a9b0: 6a 05 18 36  	tbz	w10, #3, 0x2aa5c <_ZN22ChiFeature2RealTimeMCX15OnSessionCreateEP21ChiFeature2Identifier+0x2f4>
   2a9b4: a7 01 00 d0  	adrp	x7, 0x60000 <_ZN22ChiFeature2RealTimeMCX15OnSessionCreateEP21ChiFeature2Identifier+0x324>
   2a9c4: 61 02 00 54  	b.ne	0x2aa10 <_ZN22ChiFeature2RealTimeMCX15OnSessionCreateEP21ChiFeature2Identifier+0x2a8>
   2a9c8: 14 ff ff f0  	adrp	x20, 0xd000 <_ZN22ChiFeature2RealTimeMCX15OnSessionCreateEP21ChiFeature2Identifier+0x1ec>
   2a9e8: 61 ff ff b0  	adrp	x1, 0x17000 <_ZN22ChiFeature2RealTimeMCX15OnSessionCreateEP21ChiFeature2Identifier+0x234>
   2a9ec: 62 ff ff d0  	adrp	x2, 0x18000 <_ZN22ChiFeature2RealTimeMCX15OnSessionCreateEP21ChiFeature2Identifier+0x23c>
   2a9f0: 25 ff ff d0  	adrp	x5, 0x10000 <_ZN22ChiFeature2RealTimeMCX15OnSessionCreateEP21ChiFeature2Identifier+0x220>
   2aa10: 14 ff ff f0  	adrp	x20, 0xd000 <_ZN22ChiFeature2RealTimeMCX15OnSessionCreateEP21ChiFeature2Identifier+0x234>
   2aa34: 60 ff ff d0  	adrp	x0, 0x18000 <_ZN22ChiFeature2RealTimeMCX15OnSessionCreateEP21ChiFeature2Identifier+0x284>
   2aa38: 41 ff ff 90  	adrp	x1, 0x12000 <_ZN22ChiFeature2RealTimeMCX15OnSessionCreateEP21ChiFeature2Identifier+0x270>
   2aa3c: 23 ff ff d0  	adrp	x3, 0x10000 <_ZN22ChiFeature2RealTimeMCX15OnSessionCreateEP21ChiFeature2Identifier+0x26c>
   2aa40: 05 ff ff d0  	adrp	x5, 0xc000 <_ZN22ChiFeature2RealTimeMCX15OnSessionCreateEP21ChiFeature2Identifier+0x260>
   2aa58: e2 b3 00 94  	bl	0x579e0 <_ZN6ChiLog9LogSystemEPKcS1_S1_S1_iS1_z@plt>
   2aa60: 94 01 00 b4  	cbz	x20, 0x2aa90 <_ZN22ChiFeature2RealTimeMCX15OnSessionCreateEP21ChiFeature2Identifier+0x328>
   2aa70: 29 f4 ff 54  	b.ls	0x2a8f4 <_ZN22ChiFeature2RealTimeMCX15OnSessionCreateEP21ChiFeature2Identifier+0x18c>
   2aa78: f2 b3 00 94  	bl	0x57a40 <_ZNSt3__118condition_variableD1Ev@plt>
   2aa80: f4 b3 00 94  	bl	0x57a50 <_ZNSt3__15mutexD1Ev@plt>
   2aab0: 00 f2 ff b4  	cbz	x0, 0x2a8f0 <_ZN22ChiFeature2RealTimeMCX15OnSessionCreateEP21ChiFeature2Identifier+0x188>
   2aab8: 8e ff ff 17  	b	0x2a8f0 <_ZN22ChiFeature2RealTimeMCX15OnSessionCreateEP21ChiFeature2Identifier+0x188>
   2aad8: 05 00 00 14  	b	0x2aaec <_ZN22ChiFeature2RealTimeMCX15OnSessionCreateEP21ChiFeature2Identifier+0x384>
   2aae8: 89 f3 ff 54  	b.ls	0x2a958 <_ZN22ChiFeature2RealTimeMCX15OnSessionCreateEP21ChiFeature2Identifier+0x1f0>
   2aaf8: 29 ff ff 54  	b.ls	0x2aadc <_ZN22ChiFeature2RealTimeMCX15OnSessionCreateEP21ChiFeature2Identifier+0x374>
   2ab00: f0 fe ff b4  	cbz	x16, 0x2aadc <_ZN22ChiFeature2RealTimeMCX15OnSessionCreateEP21ChiFeature2Identifier+0x374>
   2ab18: 22 fe ff 54  	b.hs	0x2aadc <_ZN22ChiFeature2RealTimeMCX15OnSessionCreateEP21ChiFeature2Identifier+0x374>
   2ab20: ef fd ff b4  	cbz	x15, 0x2aadc <_ZN22ChiFeature2RealTimeMCX15OnSessionCreateEP21ChiFeature2Identifier+0x374>
   2ab30: 08 01 00 54  	b.hi	0x2ab50 <_ZN22ChiFeature2RealTimeMCX15OnSessionCreateEP21ChiFeature2Identifier+0x3e8>
   2ab48: a9 fc ff 54  	b.ls	0x2aadc <_ZN22ChiFeature2RealTimeMCX15OnSessionCreateEP21ChiFeature2Identifier+0x374>
   2ab4c: 07 00 00 14  	b	0x2ab68 <_ZN22ChiFeature2RealTimeMCX15OnSessionCreateEP21ChiFeature2Identifier+0x400>
   2ab64: c9 fb ff 54  	b.ls	0x2aadc <_ZN22ChiFeature2RealTimeMCX15OnSessionCreateEP21ChiFeature2Identifier+0x374>
   2ab68: af fb ff b4  	cbz	x15, 0x2aadc <_ZN22ChiFeature2RealTimeMCX15OnSessionCreateEP21ChiFeature2Identifier+0x374>
   2ab74: 40 fb ff b4  	cbz	x0, 0x2aadc <_ZN22ChiFeature2RealTimeMCX15OnSessionCreateEP21ChiFeature2Identifier+0x374>
   2ab90: d3 ff ff 17  	b	0x2aadc <_ZN22ChiFeature2RealTimeMCX15OnSessionCreateEP21ChiFeature2Identifier+0x374>
000000000002ab98 <_ZN22ChiFeature2RealTimeMCX12OnPortCreateEP21ChiFeature2Identifier>:
   2abd0: a1 05 00 b4  	cbz	x1, 0x2ac84 <_ZN22ChiFeature2RealTimeMCX12OnPortCreateEP21ChiFeature2Identifier+0xec>
   2abe4: 02 05 00 54  	b.hs	0x2ac84 <_ZN22ChiFeature2RealTimeMCX12OnPortCreateEP21ChiFeature2Identifier+0xec>
   2abec: c6 04 00 b4  	cbz	x6, 0x2ac84 <_ZN22ChiFeature2RealTimeMCX12OnPortCreateEP21ChiFeature2Identifier+0xec>
   2ac00: 22 04 00 54  	b.hs	0x2ac84 <_ZN22ChiFeature2RealTimeMCX12OnPortCreateEP21ChiFeature2Identifier+0xec>
   2ac08: ea 03 00 b4  	cbz	x10, 0x2ac84 <_ZN22ChiFeature2RealTimeMCX12OnPortCreateEP21ChiFeature2Identifier+0xec>
   2ac18: c8 01 00 54  	b.hi	0x2ac50 <_ZN22ChiFeature2RealTimeMCX12OnPortCreateEP21ChiFeature2Identifier+0xb8>
   2ac40: 29 02 00 54  	b.ls	0x2ac84 <_ZN22ChiFeature2RealTimeMCX12OnPortCreateEP21ChiFeature2Identifier+0xec>
   2ac4c: 0f 00 00 14  	b	0x2ac88 <_ZN22ChiFeature2RealTimeMCX12OnPortCreateEP21ChiFeature2Identifier+0xf0>
   2ac74: 89 00 00 54  	b.ls	0x2ac84 <_ZN22ChiFeature2RealTimeMCX12OnPortCreateEP21ChiFeature2Identifier+0xec>
   2ac80: 02 00 00 14  	b	0x2ac88 <_ZN22ChiFeature2RealTimeMCX12OnPortCreateEP21ChiFeature2Identifier+0xf0>
   2ac90: 5c b4 00 94  	bl	0x57e00 <_ZN15ChiFeature2Base12OnPortCreateEP21ChiFeature2Identifier@plt>
   2acbc: a1 40 00 54  	b.ne	0x2b4d0 <_ZN22ChiFeature2RealTimeMCX12OnPortCreateEP21ChiFeature2Identifier+0x938>
   2acc4: 62 00 00 b4  	cbz	x2, 0x2acd0 <_ZN22ChiFeature2RealTimeMCX12OnPortCreateEP21ChiFeature2Identifier+0x138>
   2accc: 81 00 00 b5  	cbnz	x1, 0x2acdc <_ZN22ChiFeature2RealTimeMCX12OnPortCreateEP21ChiFeature2Identifier+0x144>
   2acd8: c1 3f 00 54  	b.ne	0x2b4d0 <_ZN22ChiFeature2RealTimeMCX12OnPortCreateEP21ChiFeature2Identifier+0x938>
   2ace4: 4b b4 00 94  	bl	0x57e10 <_ZN22ChiFeature2RealTimeMCX18CheckAndAddZSLPortEPKN15ChiFeature2Base18ChiFeaturePortDataE@plt>
   2acec: 01 03 00 54  	b.ne	0x2ad4c <_ZN22ChiFeature2RealTimeMCX12OnPortCreateEP21ChiFeature2Identifier+0x1b4>
   2acf4: 37 01 00 b4  	cbz	x23, 0x2ad18 <_ZN22ChiFeature2RealTimeMCX12OnPortCreateEP21ChiFeature2Identifier+0x180>
   2ad14: 20 07 00 34  	cbz	w0, 0x2adf8 <_ZN22ChiFeature2RealTimeMCX12OnPortCreateEP21ChiFeature2Identifier+0x260>
   2ad1c: a9 01 00 d0  	adrp	x9, 0x60000 <_ZN22ChiFeature2RealTimeMCX12OnPortCreateEP21ChiFeature2Identifier+0x25c>
   2ad28: 50 07 18 37  	tbnz	w16, #3, 0x2ae10 <_ZN22ChiFeature2RealTimeMCX12OnPortCreateEP21ChiFeature2Identifier+0x278>
   2ad38: 82 0c 00 37  	tbnz	w2, #0, 0x2aec8 <_ZN22ChiFeature2RealTimeMCX12OnPortCreateEP21ChiFeature2Identifier+0x330>
   2ad44: 41 00 00 54  	b.ne	0x2ad4c <_ZN22ChiFeature2RealTimeMCX12OnPortCreateEP21ChiFeature2Identifier+0x1b4>
   2ad54: a0 00 00 54  	b.eq	0x2ad68 <_ZN22ChiFeature2RealTimeMCX12OnPortCreateEP21ChiFeature2Identifier+0x1d0>
   2ad5c: a1 01 00 54  	b.ne	0x2ad90 <_ZN22ChiFeature2RealTimeMCX12OnPortCreateEP21ChiFeature2Identifier+0x1f8>
   2ad64: 05 00 00 14  	b	0x2ad78 <_ZN22ChiFeature2RealTimeMCX12OnPortCreateEP21ChiFeature2Identifier+0x1e0>
   2ad74: e3 00 00 54  	b.lo	0x2ad90 <_ZN22ChiFeature2RealTimeMCX12OnPortCreateEP21ChiFeature2Identifier+0x1f8>
   2ad7c: a0 00 00 54  	b.eq	0x2ad90 <_ZN22ChiFeature2RealTimeMCX12OnPortCreateEP21ChiFeature2Identifier+0x1f8>
   2ad84: 60 00 00 54  	b.eq	0x2ad90 <_ZN22ChiFeature2RealTimeMCX12OnPortCreateEP21ChiFeature2Identifier+0x1f8>
   2ad94: 41 ff ff d0  	adrp	x1, 0x14000 <_ZN22ChiFeature2RealTimeMCX12OnPortCreateEP21ChiFeature2Identifier+0x1a4>
   2ada4: 60 0f 00 35  	cbnz	w0, 0x2af90 <_ZN22ChiFeature2RealTimeMCX12OnPortCreateEP21ChiFeature2Identifier+0x3f8>
   2adac: c5 00 20 37  	tbnz	w5, #4, 0x2adc4 <_ZN22ChiFeature2RealTimeMCX12OnPortCreateEP21ChiFeature2Identifier+0x22c>
   2adc0: 74 00 00 14  	b	0x2af90 <_ZN22ChiFeature2RealTimeMCX12OnPortCreateEP21ChiFeature2Identifier+0x3f8>
   2adc8: af 08 00 b4  	cbz	x15, 0x2aedc <_ZN22ChiFeature2RealTimeMCX12OnPortCreateEP21ChiFeature2Identifier+0x344>
   2add8: 0c ff ff d0  	adrp	x12, 0xc000 <_ZN22ChiFeature2RealTimeMCX12OnPortCreateEP21ChiFeature2Identifier+0x1c8>
   2adf4: 67 00 00 14  	b	0x2af90 <_ZN22ChiFeature2RealTimeMCX12OnPortCreateEP21ChiFeature2Identifier+0x3f8>
   2ae00: a9 01 00 d0  	adrp	x9, 0x60000 <_ZN22ChiFeature2RealTimeMCX12OnPortCreateEP21ChiFeature2Identifier+0x340>
   2ae0c: 10 f9 1f 36  	tbz	w16, #3, 0x2ad2c <_ZN22ChiFeature2RealTimeMCX12OnPortCreateEP21ChiFeature2Identifier+0x194>
   2ae10: aa 01 00 d0  	adrp	x10, 0x60000 <_ZN22ChiFeature2RealTimeMCX12OnPortCreateEP21ChiFeature2Identifier+0x350>
   2ae14: 59 ff ff f0  	adrp	x25, 0x15000 <_ZN22ChiFeature2RealTimeMCX12OnPortCreateEP21ChiFeature2Identifier+0x228>
   2ae28: 41 02 00 54  	b.ne	0x2ae70 <_ZN22ChiFeature2RealTimeMCX12OnPortCreateEP21ChiFeature2Identifier+0x2d8>
   2ae40: 61 ff ff b0  	adrp	x1, 0x17000 <_ZN22ChiFeature2RealTimeMCX12OnPortCreateEP21ChiFeature2Identifier+0x25c>
   2ae44: 42 ff ff f0  	adrp	x2, 0x15000 <_ZN22ChiFeature2RealTimeMCX12OnPortCreateEP21ChiFeature2Identifier+0x258>
   2ae48: 65 ff ff b0  	adrp	x5, 0x17000 <_ZN22ChiFeature2RealTimeMCX12OnPortCreateEP21ChiFeature2Identifier+0x264>
   2ae84: 41 ff ff 90  	adrp	x1, 0x12000 <_ZN22ChiFeature2RealTimeMCX12OnPortCreateEP21ChiFeature2Identifier+0x28c>
   2ae8c: 60 ff ff d0  	adrp	x0, 0x18000 <_ZN22ChiFeature2RealTimeMCX12OnPortCreateEP21ChiFeature2Identifier+0x2ac>
   2ae90: 63 ff ff b0  	adrp	x3, 0x17000 <_ZN22ChiFeature2RealTimeMCX12OnPortCreateEP21ChiFeature2Identifier+0x2ac>
   2ae94: 25 ff ff f0  	adrp	x5, 0x11000 <_ZN22ChiFeature2RealTimeMCX12OnPortCreateEP21ChiFeature2Identifier+0x298>
   2aeb4: cb b2 00 94  	bl	0x579e0 <_ZN6ChiLog9LogSystemEPKcS1_S1_S1_iS1_z@plt>
   2aec4: c2 f3 07 36  	tbz	w2, #0, 0x2ad3c <_ZN22ChiFeature2RealTimeMCX12OnPortCreateEP21ChiFeature2Identifier+0x1a4>
   2aed4: a0 f3 ff 54  	b.eq	0x2ad48 <_ZN22ChiFeature2RealTimeMCX12OnPortCreateEP21ChiFeature2Identifier+0x1b0>
   2aed8: 9d ff ff 17  	b	0x2ad4c <_ZN22ChiFeature2RealTimeMCX12OnPortCreateEP21ChiFeature2Identifier+0x1b4>
   2aedc: ad 01 00 d0  	adrp	x13, 0x60000 <_ZN22ChiFeature2RealTimeMCX12OnPortCreateEP21ChiFeature2Identifier+0x41c>
   2aee8: 47 05 00 36  	tbz	w7, #0, 0x2af90 <_ZN22ChiFeature2RealTimeMCX12OnPortCreateEP21ChiFeature2Identifier+0x3f8>
   2aeec: ae 01 00 d0  	adrp	x14, 0x60000 <_ZN22ChiFeature2RealTimeMCX12OnPortCreateEP21ChiFeature2Identifier+0x42c>
   2aefc: 41 02 00 54  	b.ne	0x2af44 <_ZN22ChiFeature2RealTimeMCX12OnPortCreateEP21ChiFeature2Identifier+0x3ac>
   2af00: 17 ff ff f0  	adrp	x23, 0xd000 <_ZN22ChiFeature2RealTimeMCX12OnPortCreateEP21ChiFeature2Identifier+0x2f4>
   2af1c: 61 ff ff b0  	adrp	x1, 0x17000 <_ZN22ChiFeature2RealTimeMCX12OnPortCreateEP21ChiFeature2Identifier+0x338>
   2af20: 02 ff ff d0  	adrp	x2, 0xc000 <_ZN22ChiFeature2RealTimeMCX12OnPortCreateEP21ChiFeature2Identifier+0x310>
   2af24: 45 ff ff b0  	adrp	x5, 0x13000 <_ZN22ChiFeature2RealTimeMCX12OnPortCreateEP21ChiFeature2Identifier+0x330>
   2af44: 19 ff ff f0  	adrp	x25, 0xd000 <_ZN22ChiFeature2RealTimeMCX12OnPortCreateEP21ChiFeature2Identifier+0x338>
   2af60: 61 ff ff b0  	adrp	x1, 0x17000 <_ZN22ChiFeature2RealTimeMCX12OnPortCreateEP21ChiFeature2Identifier+0x37c>
   2af68: 00 ff ff f0  	adrp	x0, 0xd000 <_ZN22ChiFeature2RealTimeMCX12OnPortCreateEP21ChiFeature2Identifier+0x35c>
   2af6c: 43 ff ff b0  	adrp	x3, 0x13000 <_ZN22ChiFeature2RealTimeMCX12OnPortCreateEP21ChiFeature2Identifier+0x378>
   2af70: 25 ff ff d0  	adrp	x5, 0x10000 <_ZN22ChiFeature2RealTimeMCX12OnPortCreateEP21ChiFeature2Identifier+0x370>
   2af88: 96 b2 00 94  	bl	0x579e0 <_ZN6ChiLog9LogSystemEPKcS1_S1_S1_iS1_z@plt>
   2af90: 41 ff ff f0  	adrp	x1, 0x15000 <_ZN22ChiFeature2RealTimeMCX12OnPortCreateEP21ChiFeature2Identifier+0x3a4>
   2afa0: c0 00 00 34  	cbz	w0, 0x2afb8 <_ZN22ChiFeature2RealTimeMCX12OnPortCreateEP21ChiFeature2Identifier+0x420>
   2afa4: 21 ff ff b0  	adrp	x1, 0xf000 <_ZN22ChiFeature2RealTimeMCX12OnPortCreateEP21ChiFeature2Identifier+0x3a0>
   2afb4: e0 21 00 35  	cbnz	w0, 0x2b3f0 <_ZN22ChiFeature2RealTimeMCX12OnPortCreateEP21ChiFeature2Identifier+0x858>
   2afb8: 35 11 00 b4  	cbz	x21, 0x2b1dc <_ZN22ChiFeature2RealTimeMCX12OnPortCreateEP21ChiFeature2Identifier+0x644>
   2afcc: 82 10 00 54  	b.hs	0x2b1dc <_ZN22ChiFeature2RealTimeMCX12OnPortCreateEP21ChiFeature2Identifier+0x644>
   2afd4: 51 10 00 b4  	cbz	x17, 0x2b1dc <_ZN22ChiFeature2RealTimeMCX12OnPortCreateEP21ChiFeature2Identifier+0x644>
   2afe8: a2 0f 00 54  	b.hs	0x2b1dc <_ZN22ChiFeature2RealTimeMCX12OnPortCreateEP21ChiFeature2Identifier+0x644>
   2aff0: 78 0f 00 b4  	cbz	x24, 0x2b1dc <_ZN22ChiFeature2RealTimeMCX12OnPortCreateEP21ChiFeature2Identifier+0x644>
   2aff8: 3c 0f 00 b4  	cbz	x28, 0x2b1dc <_ZN22ChiFeature2RealTimeMCX12OnPortCreateEP21ChiFeature2Identifier+0x644>
   2b000: 7c 08 00 b4  	cbz	x28, 0x2b10c <_ZN22ChiFeature2RealTimeMCX12OnPortCreateEP21ChiFeature2Identifier+0x574>
   2b008: a9 0e 00 b4  	cbz	x9, 0x2b1dc <_ZN22ChiFeature2RealTimeMCX12OnPortCreateEP21ChiFeature2Identifier+0x644>
   2b020: e9 0d 00 54  	b.ls	0x2b1dc <_ZN22ChiFeature2RealTimeMCX12OnPortCreateEP21ChiFeature2Identifier+0x644>
   2b024: b0 01 00 b0  	adrp	x16, 0x60000 <_ZN22ChiFeature2RealTimeMCX12OnPortCreateEP21ChiFeature2Identifier+0x560>
   2b030: ad 06 18 36  	tbz	w13, #3, 0x2b104 <_ZN22ChiFeature2RealTimeMCX12OnPortCreateEP21ChiFeature2Identifier+0x56c>
   2b034: b1 01 00 b0  	adrp	x17, 0x60000 <_ZN22ChiFeature2RealTimeMCX12OnPortCreateEP21ChiFeature2Identifier+0x570>
   2b044: e1 02 00 54  	b.ne	0x2b0a0 <_ZN22ChiFeature2RealTimeMCX12OnPortCreateEP21ChiFeature2Identifier+0x508>
   2b048: 17 ff ff d0  	adrp	x23, 0xd000 <_ZN22ChiFeature2RealTimeMCX12OnPortCreateEP21ChiFeature2Identifier+0x438>
   2b06c: 42 ff ff 90  	adrp	x2, 0x13000 <_ZN22ChiFeature2RealTimeMCX12OnPortCreateEP21ChiFeature2Identifier+0x474>
   2b070: 45 ff ff 90  	adrp	x5, 0x13000 <_ZN22ChiFeature2RealTimeMCX12OnPortCreateEP21ChiFeature2Identifier+0x478>
   2b080: 61 ff ff 90  	adrp	x1, 0x17000 <_ZN22ChiFeature2RealTimeMCX12OnPortCreateEP21ChiFeature2Identifier+0x498>
   2b0a0: 19 ff ff d0  	adrp	x25, 0xd000 <_ZN22ChiFeature2RealTimeMCX12OnPortCreateEP21ChiFeature2Identifier+0x490>
   2b0c4: 21 ff ff f0  	adrp	x1, 0x12000 <_ZN22ChiFeature2RealTimeMCX12OnPortCreateEP21ChiFeature2Identifier+0x4c8>
   2b0c8: 43 ff ff 90  	adrp	x3, 0x13000 <_ZN22ChiFeature2RealTimeMCX12OnPortCreateEP21ChiFeature2Identifier+0x4d0>
   2b0cc: 25 ff ff 90  	adrp	x5, 0xf000 <_ZN22ChiFeature2RealTimeMCX12OnPortCreateEP21ChiFeature2Identifier+0x4c4>
   2b0dc: 60 ff ff b0  	adrp	x0, 0x18000 <_ZN22ChiFeature2RealTimeMCX12OnPortCreateEP21ChiFeature2Identifier+0x4f8>
   2b0f8: 3a b2 00 94  	bl	0x579e0 <_ZN6ChiLog9LogSystemEPKcS1_S1_S1_iS1_z@plt>
   2b108: 35 00 00 14  	b	0x2b1dc <_ZN22ChiFeature2RealTimeMCX12OnPortCreateEP21ChiFeature2Identifier+0x644>
   2b10c: a3 01 00 b0  	adrp	x3, 0x60000 <_ZN22ChiFeature2RealTimeMCX12OnPortCreateEP21ChiFeature2Identifier+0x648>
   2b118: 2f 06 00 36  	tbz	w15, #0, 0x2b1dc <_ZN22ChiFeature2RealTimeMCX12OnPortCreateEP21ChiFeature2Identifier+0x644>
   2b11c: a4 01 00 b0  	adrp	x4, 0x60000 <_ZN22ChiFeature2RealTimeMCX12OnPortCreateEP21ChiFeature2Identifier+0x658>
   2b12c: c1 02 00 54  	b.ne	0x2b184 <_ZN22ChiFeature2RealTimeMCX12OnPortCreateEP21ChiFeature2Identifier+0x5ec>
   2b130: 17 ff ff d0  	adrp	x23, 0xd000 <_ZN22ChiFeature2RealTimeMCX12OnPortCreateEP21ChiFeature2Identifier+0x520>
   2b154: 61 ff ff 90  	adrp	x1, 0x17000 <_ZN22ChiFeature2RealTimeMCX12OnPortCreateEP21ChiFeature2Identifier+0x56c>
   2b158: 02 ff ff f0  	adrp	x2, 0xe000 <_ZN22ChiFeature2RealTimeMCX12OnPortCreateEP21ChiFeature2Identifier+0x54c>
   2b15c: 45 ff ff 90  	adrp	x5, 0x13000 <_ZN22ChiFeature2RealTimeMCX12OnPortCreateEP21ChiFeature2Identifier+0x564>
   2b184: 19 ff ff d0  	adrp	x25, 0xd000 <_ZN22ChiFeature2RealTimeMCX12OnPortCreateEP21ChiFeature2Identifier+0x574>
   2b1ac: 00 ff ff d0  	adrp	x0, 0xd000 <_ZN22ChiFeature2RealTimeMCX12OnPortCreateEP21ChiFeature2Identifier+0x59c>
   2b1b0: 61 ff ff 90  	adrp	x1, 0x17000 <_ZN22ChiFeature2RealTimeMCX12OnPortCreateEP21ChiFeature2Identifier+0x5c8>
   2b1b4: 43 ff ff 90  	adrp	x3, 0x13000 <_ZN22ChiFeature2RealTimeMCX12OnPortCreateEP21ChiFeature2Identifier+0x5bc>
   2b1b8: 25 ff ff d0  	adrp	x5, 0x11000 <_ZN22ChiFeature2RealTimeMCX12OnPortCreateEP21ChiFeature2Identifier+0x5b8>
   2b1d8: 02 b2 00 94  	bl	0x579e0 <_ZN6ChiLog9LogSystemEPKcS1_S1_S1_iS1_z@plt>
   2b1dc: bc 01 00 b0  	adrp	x28, 0x60000 <_ZN22ChiFeature2RealTimeMCX12OnPortCreateEP21ChiFeature2Identifier+0x718>
   2b1e8: 30 08 28 36  	tbz	w16, #5, 0x2b2ec <_ZN22ChiFeature2RealTimeMCX12OnPortCreateEP21ChiFeature2Identifier+0x754>
   2b1ec: a5 01 00 b0  	adrp	x5, 0x60000 <_ZN22ChiFeature2RealTimeMCX12OnPortCreateEP21ChiFeature2Identifier+0x728>
   2b1fc: c1 03 00 54  	b.ne	0x2b274 <_ZN22ChiFeature2RealTimeMCX12OnPortCreateEP21ChiFeature2Identifier+0x6dc>
   2b200: 17 ff ff d0  	adrp	x23, 0xd000 <_ZN22ChiFeature2RealTimeMCX12OnPortCreateEP21ChiFeature2Identifier+0x5f0>
   2b22c: 61 ff ff 90  	adrp	x1, 0x17000 <_ZN22ChiFeature2RealTimeMCX12OnPortCreateEP21ChiFeature2Identifier+0x644>
   2b234: 22 ff ff b0  	adrp	x2, 0x10000 <_ZN22ChiFeature2RealTimeMCX12OnPortCreateEP21ChiFeature2Identifier+0x630>
   2b240: 45 ff ff 90  	adrp	x5, 0x13000 <_ZN22ChiFeature2RealTimeMCX12OnPortCreateEP21ChiFeature2Identifier+0x648>
   2b274: 19 ff ff d0  	adrp	x25, 0xd000 <_ZN22ChiFeature2RealTimeMCX12OnPortCreateEP21ChiFeature2Identifier+0x664>
   2b2a4: 60 ff ff 90  	adrp	x0, 0x17000 <_ZN22ChiFeature2RealTimeMCX12OnPortCreateEP21ChiFeature2Identifier+0x6bc>
   2b2a8: 05 ff ff b0  	adrp	x5, 0xc000 <_ZN22ChiFeature2RealTimeMCX12OnPortCreateEP21ChiFeature2Identifier+0x694>
   2b2b4: 43 ff ff 90  	adrp	x3, 0x13000 <_ZN22ChiFeature2RealTimeMCX12OnPortCreateEP21ChiFeature2Identifier+0x6bc>
   2b2d8: 41 ff ff 90  	adrp	x1, 0x13000 <_ZN22ChiFeature2RealTimeMCX12OnPortCreateEP21ChiFeature2Identifier+0x6e0>
   2b2e8: be b1 00 94  	bl	0x579e0 <_ZN6ChiLog9LogSystemEPKcS1_S1_S1_iS1_z@plt>
   2b2f4: e1 07 00 54  	b.ne	0x2b3f0 <_ZN22ChiFeature2RealTimeMCX12OnPortCreateEP21ChiFeature2Identifier+0x858>
   2b2fc: ae 07 00 b4  	cbz	x14, 0x2b3f0 <_ZN22ChiFeature2RealTimeMCX12OnPortCreateEP21ChiFeature2Identifier+0x858>
   2b304: 62 07 00 36  	tbz	w2, #0, 0x2b3f0 <_ZN22ChiFeature2RealTimeMCX12OnPortCreateEP21ChiFeature2Identifier+0x858>
   2b320: 81 06 00 54  	b.ne	0x2b3f0 <_ZN22ChiFeature2RealTimeMCX12OnPortCreateEP21ChiFeature2Identifier+0x858>
   2b330: 03 06 00 35  	cbnz	w3, 0x2b3f0 <_ZN22ChiFeature2RealTimeMCX12OnPortCreateEP21ChiFeature2Identifier+0x858>
   2b338: 25 05 18 36  	tbz	w5, #3, 0x2b3dc <_ZN22ChiFeature2RealTimeMCX12OnPortCreateEP21ChiFeature2Identifier+0x844>
   2b33c: a0 01 00 b0  	adrp	x0, 0x60000 <_ZN22ChiFeature2RealTimeMCX12OnPortCreateEP21ChiFeature2Identifier+0x878>
   2b34c: 41 02 00 54  	b.ne	0x2b394 <_ZN22ChiFeature2RealTimeMCX12OnPortCreateEP21ChiFeature2Identifier+0x7fc>
   2b350: 17 ff ff d0  	adrp	x23, 0xd000 <_ZN22ChiFeature2RealTimeMCX12OnPortCreateEP21ChiFeature2Identifier+0x740>
   2b36c: 61 ff ff 90  	adrp	x1, 0x17000 <_ZN22ChiFeature2RealTimeMCX12OnPortCreateEP21ChiFeature2Identifier+0x784>
   2b370: 62 ff ff b0  	adrp	x2, 0x18000 <_ZN22ChiFeature2RealTimeMCX12OnPortCreateEP21ChiFeature2Identifier+0x78c>
   2b374: 45 ff ff 90  	adrp	x5, 0x13000 <_ZN22ChiFeature2RealTimeMCX12OnPortCreateEP21ChiFeature2Identifier+0x77c>
   2b394: 19 ff ff d0  	adrp	x25, 0xd000 <_ZN22ChiFeature2RealTimeMCX12OnPortCreateEP21ChiFeature2Identifier+0x784>
   2b3b0: 21 ff ff f0  	adrp	x1, 0x12000 <_ZN22ChiFeature2RealTimeMCX12OnPortCreateEP21ChiFeature2Identifier+0x7b4>
   2b3b8: 60 ff ff b0  	adrp	x0, 0x18000 <_ZN22ChiFeature2RealTimeMCX12OnPortCreateEP21ChiFeature2Identifier+0x7d4>
   2b3bc: 43 ff ff 90  	adrp	x3, 0x13000 <_ZN22ChiFeature2RealTimeMCX12OnPortCreateEP21ChiFeature2Identifier+0x7c4>
   2b3c0: 05 ff ff d0  	adrp	x5, 0xd000 <_ZN22ChiFeature2RealTimeMCX12OnPortCreateEP21ChiFeature2Identifier+0x7b0>
   2b3d8: 82 b1 00 94  	bl	0x579e0 <_ZN6ChiLog9LogSystemEPKcS1_S1_S1_iS1_z@plt>
   2b3dc: 08 ff ff b0  	adrp	x8, 0xc000 <_ZN22ChiFeature2RealTimeMCX12OnPortCreateEP21ChiFeature2Identifier+0x7c8>
   2b3f8: 81 00 00 54  	b.ne	0x2b408 <_ZN22ChiFeature2RealTimeMCX12OnPortCreateEP21ChiFeature2Identifier+0x870>
   2b408: bc 01 00 b0  	adrp	x28, 0x60000 <_ZN22ChiFeature2RealTimeMCX12OnPortCreateEP21ChiFeature2Identifier+0x944>
   2b414: e0 05 18 36  	tbz	w0, #3, 0x2b4d0 <_ZN22ChiFeature2RealTimeMCX12OnPortCreateEP21ChiFeature2Identifier+0x938>
   2b418: b8 01 00 b0  	adrp	x24, 0x60000 <_ZN22ChiFeature2RealTimeMCX12OnPortCreateEP21ChiFeature2Identifier+0x954>
   2b41c: 17 ff ff d0  	adrp	x23, 0xd000 <_ZN22ChiFeature2RealTimeMCX12OnPortCreateEP21ChiFeature2Identifier+0x80c>
   2b430: 81 02 00 54  	b.ne	0x2b480 <_ZN22ChiFeature2RealTimeMCX12OnPortCreateEP21ChiFeature2Identifier+0x8e8>
   2b450: 61 ff ff 90  	adrp	x1, 0x17000 <_ZN22ChiFeature2RealTimeMCX12OnPortCreateEP21ChiFeature2Identifier+0x868>
   2b458: 02 ff ff d0  	adrp	x2, 0xd000 <_ZN22ChiFeature2RealTimeMCX12OnPortCreateEP21ChiFeature2Identifier+0x848>
   2b45c: 45 ff ff 90  	adrp	x5, 0x13000 <_ZN22ChiFeature2RealTimeMCX12OnPortCreateEP21ChiFeature2Identifier+0x864>
   2b4a4: 60 ff ff b0  	adrp	x0, 0x18000 <_ZN22ChiFeature2RealTimeMCX12OnPortCreateEP21ChiFeature2Identifier+0x8c0>
   2b4a8: 21 ff ff f0  	adrp	x1, 0x12000 <_ZN22ChiFeature2RealTimeMCX12OnPortCreateEP21ChiFeature2Identifier+0x8ac>
   2b4ac: 43 ff ff 90  	adrp	x3, 0x13000 <_ZN22ChiFeature2RealTimeMCX12OnPortCreateEP21ChiFeature2Identifier+0x8b4>
   2b4b0: 45 ff ff b0  	adrp	x5, 0x14000 <_ZN22ChiFeature2RealTimeMCX12OnPortCreateEP21ChiFeature2Identifier+0x8bc>
   2b4cc: 45 b1 00 94  	bl	0x579e0 <_ZN6ChiLog9LogSystemEPKcS1_S1_S1_iS1_z@plt>
   2b4d4: f8 10 00 b4  	cbz	x24, 0x2b6f0 <_ZN22ChiFeature2RealTimeMCX12OnPortCreateEP21ChiFeature2Identifier+0xb58>
   2b4e0: 80 10 00 54  	b.eq	0x2b6f0 <_ZN22ChiFeature2RealTimeMCX12OnPortCreateEP21ChiFeature2Identifier+0xb58>
   2b4e4: 6b 10 00 37  	tbnz	w11, #0, 0x2b6f0 <_ZN22ChiFeature2RealTimeMCX12OnPortCreateEP21ChiFeature2Identifier+0xb58>
   2b4e8: b5 05 00 b4  	cbz	x21, 0x2b59c <_ZN22ChiFeature2RealTimeMCX12OnPortCreateEP21ChiFeature2Identifier+0xa04>
   2b4fc: 02 05 00 54  	b.hs	0x2b59c <_ZN22ChiFeature2RealTimeMCX12OnPortCreateEP21ChiFeature2Identifier+0xa04>
   2b504: c7 04 00 b4  	cbz	x7, 0x2b59c <_ZN22ChiFeature2RealTimeMCX12OnPortCreateEP21ChiFeature2Identifier+0xa04>
   2b518: 22 04 00 54  	b.hs	0x2b59c <_ZN22ChiFeature2RealTimeMCX12OnPortCreateEP21ChiFeature2Identifier+0xa04>
   2b520: ec 03 00 b4  	cbz	x12, 0x2b59c <_ZN22ChiFeature2RealTimeMCX12OnPortCreateEP21ChiFeature2Identifier+0xa04>
   2b530: c8 01 00 54  	b.hi	0x2b568 <_ZN22ChiFeature2RealTimeMCX12OnPortCreateEP21ChiFeature2Identifier+0x9d0>
   2b558: 29 02 00 54  	b.ls	0x2b59c <_ZN22ChiFeature2RealTimeMCX12OnPortCreateEP21ChiFeature2Identifier+0xa04>
   2b564: 0f 00 00 14  	b	0x2b5a0 <_ZN22ChiFeature2RealTimeMCX12OnPortCreateEP21ChiFeature2Identifier+0xa08>
   2b58c: 89 00 00 54  	b.ls	0x2b59c <_ZN22ChiFeature2RealTimeMCX12OnPortCreateEP21ChiFeature2Identifier+0xa04>
   2b598: 02 00 00 14  	b	0x2b5a0 <_ZN22ChiFeature2RealTimeMCX12OnPortCreateEP21ChiFeature2Identifier+0xa08>
   2b5a8: 82 04 00 54  	b.hs	0x2b638 <_ZN22ChiFeature2RealTimeMCX12OnPortCreateEP21ChiFeature2Identifier+0xaa0>
   2b5ac: 28 0a 00 b4  	cbz	x8, 0x2b6f0 <_ZN22ChiFeature2RealTimeMCX12OnPortCreateEP21ChiFeature2Identifier+0xb58>
   2b5bc: a1 09 00 54  	b.ne	0x2b6f0 <_ZN22ChiFeature2RealTimeMCX12OnPortCreateEP21ChiFeature2Identifier+0xb58>
   2b5c4: 67 09 00 35  	cbnz	w7, 0x2b6f0 <_ZN22ChiFeature2RealTimeMCX12OnPortCreateEP21ChiFeature2Identifier+0xb58>
   2b5d8: c2 08 00 54  	b.hs	0x2b6f0 <_ZN22ChiFeature2RealTimeMCX12OnPortCreateEP21ChiFeature2Identifier+0xb58>
   2b5e0: 84 08 00 b4  	cbz	x4, 0x2b6f0 <_ZN22ChiFeature2RealTimeMCX12OnPortCreateEP21ChiFeature2Identifier+0xb58>
   2b5f0: 02 08 00 54  	b.hs	0x2b6f0 <_ZN22ChiFeature2RealTimeMCX12OnPortCreateEP21ChiFeature2Identifier+0xb58>
   2b5f8: cb 07 00 b4  	cbz	x11, 0x2b6f0 <_ZN22ChiFeature2RealTimeMCX12OnPortCreateEP21ChiFeature2Identifier+0xb58>
   2b608: 28 0d 00 54  	b.hi	0x2b7ac <_ZN22ChiFeature2RealTimeMCX12OnPortCreateEP21ChiFeature2Identifier+0xc14>
   2b630: 28 0d 00 54  	b.hi	0x2b7d4 <_ZN22ChiFeature2RealTimeMCX12OnPortCreateEP21ChiFeature2Identifier+0xc3c>
   2b634: 70 00 00 14  	b	0x2b7f4 <_ZN22ChiFeature2RealTimeMCX12OnPortCreateEP21ChiFeature2Identifier+0xc5c>
   2b638: b6 01 00 b0  	adrp	x22, 0x60000 <_ZN22ChiFeature2RealTimeMCX12OnPortCreateEP21ChiFeature2Identifier+0xb74>
   2b644: 66 05 00 36  	tbz	w6, #0, 0x2b6f0 <_ZN22ChiFeature2RealTimeMCX12OnPortCreateEP21ChiFeature2Identifier+0xb58>
   2b648: b5 01 00 b0  	adrp	x21, 0x60000 <_ZN22ChiFeature2RealTimeMCX12OnPortCreateEP21ChiFeature2Identifier+0xb84>
   2b654: 35 ff ff d0  	adrp	x21, 0x11000 <_ZN22ChiFeature2RealTimeMCX12OnPortCreateEP21ChiFeature2Identifier+0xa54>
   2b660: 41 02 00 54  	b.ne	0x2b6a8 <_ZN22ChiFeature2RealTimeMCX12OnPortCreateEP21ChiFeature2Identifier+0xb10>
   2b678: 61 ff ff 90  	adrp	x1, 0x17000 <_ZN22ChiFeature2RealTimeMCX12OnPortCreateEP21ChiFeature2Identifier+0xa90>
   2b67c: 42 ff ff b0  	adrp	x2, 0x14000 <_ZN22ChiFeature2RealTimeMCX12OnPortCreateEP21ChiFeature2Identifier+0xa88>
   2b680: 05 ff ff d0  	adrp	x5, 0xd000 <_ZN22ChiFeature2RealTimeMCX12OnPortCreateEP21ChiFeature2Identifier+0xa70>
   2b6bc: 61 ff ff 90  	adrp	x1, 0x17000 <_ZN22ChiFeature2RealTimeMCX12OnPortCreateEP21ChiFeature2Identifier+0xad4>
   2b6c4: 00 ff ff d0  	adrp	x0, 0xd000 <_ZN22ChiFeature2RealTimeMCX12OnPortCreateEP21ChiFeature2Identifier+0xab4>
   2b6c8: 03 ff ff d0  	adrp	x3, 0xd000 <_ZN22ChiFeature2RealTimeMCX12OnPortCreateEP21ChiFeature2Identifier+0xab8>
   2b6cc: 45 ff ff f0  	adrp	x5, 0x16000 <_ZN22ChiFeature2RealTimeMCX12OnPortCreateEP21ChiFeature2Identifier+0xae0>
   2b6ec: bd b0 00 94  	bl	0x579e0 <_ZN6ChiLog9LogSystemEPKcS1_S1_S1_iS1_z@plt>
   2b6f0: 5b 04 00 34  	cbz	w27, 0x2b778 <_ZN22ChiFeature2RealTimeMCX12OnPortCreateEP21ChiFeature2Identifier+0xbe0>
   2b6f8: 09 04 00 b4  	cbz	x9, 0x2b778 <_ZN22ChiFeature2RealTimeMCX12OnPortCreateEP21ChiFeature2Identifier+0xbe0>
   2b700: cd 03 00 b4  	cbz	x13, 0x2b778 <_ZN22ChiFeature2RealTimeMCX12OnPortCreateEP21ChiFeature2Identifier+0xbe0>
   2b708: 88 03 00 35  	cbnz	w8, 0x2b778 <_ZN22ChiFeature2RealTimeMCX12OnPortCreateEP21ChiFeature2Identifier+0xbe0>
   2b714: 21 03 00 54  	b.ne	0x2b778 <_ZN22ChiFeature2RealTimeMCX12OnPortCreateEP21ChiFeature2Identifier+0xbe0>
   2b720: 60 00 00 54  	b.eq	0x2b72c <_ZN22ChiFeature2RealTimeMCX12OnPortCreateEP21ChiFeature2Identifier+0xb94>
   2b728: 81 02 00 54  	b.ne	0x2b778 <_ZN22ChiFeature2RealTimeMCX12OnPortCreateEP21ChiFeature2Identifier+0xbe0>
   2b72c: 15 b1 00 94  	bl	0x57b80 <_ZN15ExtensionModule11GetInstanceEv@plt>
   2b734: 75 00 00 b4  	cbz	x21, 0x2b740 <_ZN22ChiFeature2RealTimeMCX12OnPortCreateEP21ChiFeature2Identifier+0xba8>
   2b73c: 02 00 00 14  	b	0x2b744 <_ZN22ChiFeature2RealTimeMCX12OnPortCreateEP21ChiFeature2Identifier+0xbac>
   2b744: a9 01 00 34  	cbz	w9, 0x2b778 <_ZN22ChiFeature2RealTimeMCX12OnPortCreateEP21ChiFeature2Identifier+0xbe0>
   2b758: 09 01 00 54  	b.ls	0x2b778 <_ZN22ChiFeature2RealTimeMCX12OnPortCreateEP21ChiFeature2Identifier+0xbe0>
   2b75c: 09 ff ff b0  	adrp	x9, 0xc000 <_ZN22ChiFeature2RealTimeMCX12OnPortCreateEP21ChiFeature2Identifier+0xb48>
   2b784: 61 07 00 54  	b.ne	0x2b870 <_ZN22ChiFeature2RealTimeMCX12OnPortCreateEP21ChiFeature2Identifier+0xcd8>
   2b7d0: 89 02 00 54  	b.ls	0x2b820 <_ZN22ChiFeature2RealTimeMCX12OnPortCreateEP21ChiFeature2Identifier+0xc88>
   2b7d4: aa 00 00 b4  	cbz	x10, 0x2b7e8 <_ZN22ChiFeature2RealTimeMCX12OnPortCreateEP21ChiFeature2Identifier+0xc50>
   2b7e4: 01 04 10 37  	tbnz	w1, #2, 0x2b864 <_ZN22ChiFeature2RealTimeMCX12OnPortCreateEP21ChiFeature2Identifier+0xccc>
   2b7ec: 88 01 00 54  	b.hi	0x2b81c <_ZN22ChiFeature2RealTimeMCX12OnPortCreateEP21ChiFeature2Identifier+0xc84>
   2b814: e9 f6 ff 54  	b.ls	0x2b6f0 <_ZN22ChiFeature2RealTimeMCX12OnPortCreateEP21ChiFeature2Identifier+0xb58>
   2b818: 0b 00 00 14  	b	0x2b844 <_ZN22ChiFeature2RealTimeMCX12OnPortCreateEP21ChiFeature2Identifier+0xcac>
   2b840: 89 f5 ff 54  	b.ls	0x2b6f0 <_ZN22ChiFeature2RealTimeMCX12OnPortCreateEP21ChiFeature2Identifier+0xb58>
   2b844: 6a f5 ff b4  	cbz	x10, 0x2b6f0 <_ZN22ChiFeature2RealTimeMCX12OnPortCreateEP21ChiFeature2Identifier+0xb58>
   2b854: ed f4 0f 36  	tbz	w13, #1, 0x2b6f0 <_ZN22ChiFeature2RealTimeMCX12OnPortCreateEP21ChiFeature2Identifier+0xb58>
   2b860: a4 ff ff 17  	b	0x2b6f0 <_ZN22ChiFeature2RealTimeMCX12OnPortCreateEP21ChiFeature2Identifier+0xb58>
   2b86c: a1 ff ff 17  	b	0x2b6f0 <_ZN22ChiFeature2RealTimeMCX12OnPortCreateEP21ChiFeature2Identifier+0xb58>
000000000002b878 <_ZN22ChiFeature2RealTimeMCX18CheckAndAddZSLPortEPKN15ChiFeature2Base18ChiFeaturePortDataE>:
   2b89c: 68 00 00 34  	cbz	w8, 0x2b8a8 <_ZN22ChiFeature2RealTimeMCX18CheckAndAddZSLPortEPKN15ChiFeature2Base18ChiFeaturePortDataE+0x30>
   2b8a4: fe 00 00 14  	b	0x2bc9c <_ZN22ChiFeature2RealTimeMCX18CheckAndAddZSLPortEPKN15ChiFeature2Base18ChiFeaturePortDataE+0x424>
   2b8b0: 41 ff ff d0  	adrp	x1, 0x15000 <_ZN22ChiFeature2RealTimeMCX12OnPortCreateEP21ChiFeature2Identifier+0xcc0>
   2b8c4: 00 03 00 34  	cbz	w0, 0x2b924 <_ZN22ChiFeature2RealTimeMCX18CheckAndAddZSLPortEPKN15ChiFeature2Base18ChiFeaturePortDataE+0xac>
   2b8c8: 41 ff ff b0  	adrp	x1, 0x14000 <_ZN22ChiFeature2RealTimeMCX12OnPortCreateEP21ChiFeature2Identifier+0xcd4>
   2b8d8: 60 02 00 34  	cbz	w0, 0x2b924 <_ZN22ChiFeature2RealTimeMCX18CheckAndAddZSLPortEPKN15ChiFeature2Base18ChiFeaturePortDataE+0xac>
   2b8dc: 41 ff ff f0  	adrp	x1, 0x16000 <_ZN22ChiFeature2RealTimeMCX18CheckAndAddZSLPortEPKN15ChiFeature2Base18ChiFeaturePortDataE+0x10>
   2b8ec: c0 01 00 34  	cbz	w0, 0x2b924 <_ZN22ChiFeature2RealTimeMCX18CheckAndAddZSLPortEPKN15ChiFeature2Base18ChiFeaturePortDataE+0xac>
   2b8f0: 41 ff ff d0  	adrp	x1, 0x15000 <_ZN22ChiFeature2RealTimeMCX18CheckAndAddZSLPortEPKN15ChiFeature2Base18ChiFeaturePortDataE+0x20>
   2b900: 20 01 00 34  	cbz	w0, 0x2b924 <_ZN22ChiFeature2RealTimeMCX18CheckAndAddZSLPortEPKN15ChiFeature2Base18ChiFeaturePortDataE+0xac>
   2b904: 41 ff ff d0  	adrp	x1, 0x15000 <_ZN22ChiFeature2RealTimeMCX18CheckAndAddZSLPortEPKN15ChiFeature2Base18ChiFeaturePortDataE+0x34>
   2b914: 80 00 00 34  	cbz	w0, 0x2b924 <_ZN22ChiFeature2RealTimeMCX18CheckAndAddZSLPortEPKN15ChiFeature2Base18ChiFeaturePortDataE+0xac>
   2b920: 01 fc ff 54  	b.ne	0x2b8a0 <_ZN22ChiFeature2RealTimeMCX18CheckAndAddZSLPortEPKN15ChiFeature2Base18ChiFeaturePortDataE+0x28>
   2b924: aa 01 00 b0  	adrp	x10, 0x60000 <_ZN22ChiFeature2RealTimeMCX18CheckAndAddZSLPortEPKN15ChiFeature2Base18ChiFeaturePortDataE+0x180>
   2b930: e9 05 18 36  	tbz	w9, #3, 0x2b9ec <_ZN22ChiFeature2RealTimeMCX18CheckAndAddZSLPortEPKN15ChiFeature2Base18ChiFeaturePortDataE+0x174>
   2b934: ae 01 00 b0  	adrp	x14, 0x60000 <_ZN22ChiFeature2RealTimeMCX18CheckAndAddZSLPortEPKN15ChiFeature2Base18ChiFeaturePortDataE+0x190>
   2b938: 17 ff ff d0  	adrp	x23, 0xd000 <_ZN22ChiFeature2RealTimeMCX18CheckAndAddZSLPortEPKN15ChiFeature2Base18ChiFeaturePortDataE+0x48>
   2b94c: 81 02 00 54  	b.ne	0x2b99c <_ZN22ChiFeature2RealTimeMCX18CheckAndAddZSLPortEPKN15ChiFeature2Base18ChiFeaturePortDataE+0x124>
   2b96c: 61 ff ff 90  	adrp	x1, 0x17000 <_ZN22ChiFeature2RealTimeMCX18CheckAndAddZSLPortEPKN15ChiFeature2Base18ChiFeaturePortDataE+0xa4>
   2b974: 22 ff ff b0  	adrp	x2, 0x10000 <_ZN22ChiFeature2RealTimeMCX18CheckAndAddZSLPortEPKN15ChiFeature2Base18ChiFeaturePortDataE+0x90>
   2b978: 65 ff ff b0  	adrp	x5, 0x18000 <_ZN22ChiFeature2RealTimeMCX18CheckAndAddZSLPortEPKN15ChiFeature2Base18ChiFeaturePortDataE+0xb4>
   2b9c0: 60 ff ff b0  	adrp	x0, 0x18000 <_ZN22ChiFeature2RealTimeMCX18CheckAndAddZSLPortEPKN15ChiFeature2Base18ChiFeaturePortDataE+0xfc>
   2b9c4: 21 ff ff f0  	adrp	x1, 0x12000 <_ZN22ChiFeature2RealTimeMCX18CheckAndAddZSLPortEPKN15ChiFeature2Base18ChiFeaturePortDataE+0xe8>
   2b9c8: 63 ff ff b0  	adrp	x3, 0x18000 <_ZN22ChiFeature2RealTimeMCX18CheckAndAddZSLPortEPKN15ChiFeature2Base18ChiFeaturePortDataE+0x104>
   2b9cc: 25 ff ff 90  	adrp	x5, 0xf000 <_ZN22ChiFeature2RealTimeMCX18CheckAndAddZSLPortEPKN15ChiFeature2Base18ChiFeaturePortDataE+0xe4>
   2b9e8: fe af 00 94  	bl	0x579e0 <_ZN6ChiLog9LogSystemEPKcS1_S1_S1_iS1_z@plt>
   2b9f4: 48 15 00 b4  	cbz	x8, 0x2bc9c <_ZN22ChiFeature2RealTimeMCX18CheckAndAddZSLPortEPKN15ChiFeature2Base18ChiFeaturePortDataE+0x424>
   2b9fc: 0d 15 00 b4  	cbz	x13, 0x2bc9c <_ZN22ChiFeature2RealTimeMCX18CheckAndAddZSLPortEPKN15ChiFeature2Base18ChiFeaturePortDataE+0x424>
   2ba0c: 05 00 00 14  	b	0x2ba20 <_ZN22ChiFeature2RealTimeMCX18CheckAndAddZSLPortEPKN15ChiFeature2Base18ChiFeaturePortDataE+0x1a8>
   2ba1c: e0 13 00 54  	b.eq	0x2bc98 <_ZN22ChiFeature2RealTimeMCX18CheckAndAddZSLPortEPKN15ChiFeature2Base18ChiFeaturePortDataE+0x420>
   2ba2c: 21 ff ff 54  	b.ne	0x2ba10 <_ZN22ChiFeature2RealTimeMCX18CheckAndAddZSLPortEPKN15ChiFeature2Base18ChiFeaturePortDataE+0x198>
   2ba3c: a1 fe ff 54  	b.ne	0x2ba10 <_ZN22ChiFeature2RealTimeMCX18CheckAndAddZSLPortEPKN15ChiFeature2Base18ChiFeaturePortDataE+0x198>
   2ba4c: 21 fe ff 54  	b.ne	0x2ba10 <_ZN22ChiFeature2RealTimeMCX18CheckAndAddZSLPortEPKN15ChiFeature2Base18ChiFeaturePortDataE+0x198>
   2ba5c: a1 fd ff 54  	b.ne	0x2ba10 <_ZN22ChiFeature2RealTimeMCX18CheckAndAddZSLPortEPKN15ChiFeature2Base18ChiFeaturePortDataE+0x198>
   2ba6c: 21 fd ff 54  	b.ne	0x2ba10 <_ZN22ChiFeature2RealTimeMCX18CheckAndAddZSLPortEPKN15ChiFeature2Base18ChiFeaturePortDataE+0x198>
   2ba78: 1a b0 00 94  	bl	0x57ae0 <_ZNSt3__15mutex4lockEv@plt>
   2ba8c: 7b 02 00 b4  	cbz	x27, 0x2bad8 <_ZN22ChiFeature2RealTimeMCX18CheckAndAddZSLPortEPKN15ChiFeature2Base18ChiFeaturePortDataE+0x260>
   2ba98: c9 00 00 54  	b.ls	0x2bab0 <_ZN22ChiFeature2RealTimeMCX18CheckAndAddZSLPortEPKN15ChiFeature2Base18ChiFeaturePortDataE+0x238>
   2baa0: 09 02 00 b4  	cbz	x9, 0x2bae0 <_ZN22ChiFeature2RealTimeMCX18CheckAndAddZSLPortEPKN15ChiFeature2Base18ChiFeaturePortDataE+0x268>
   2baac: f9 ff ff 17  	b	0x2ba90 <_ZN22ChiFeature2RealTimeMCX18CheckAndAddZSLPortEPKN15ChiFeature2Base18ChiFeaturePortDataE+0x218>
   2bab0: a3 00 00 54  	b.lo	0x2bac4 <_ZN22ChiFeature2RealTimeMCX18CheckAndAddZSLPortEPKN15ChiFeature2Base18ChiFeaturePortDataE+0x24c>
   2babc: 08 ff ff 54  	b.hi	0x2ba9c <_ZN22ChiFeature2RealTimeMCX18CheckAndAddZSLPortEPKN15ChiFeature2Base18ChiFeaturePortDataE+0x224>
   2bac0: 22 01 00 54  	b.hs	0x2bae4 <_ZN22ChiFeature2RealTimeMCX18CheckAndAddZSLPortEPKN15ChiFeature2Base18ChiFeaturePortDataE+0x26c>
   2bacc: c9 00 00 b4  	cbz	x9, 0x2bae4 <_ZN22ChiFeature2RealTimeMCX18CheckAndAddZSLPortEPKN15ChiFeature2Base18ChiFeaturePortDataE+0x26c>
   2bad4: ef ff ff 17  	b	0x2ba90 <_ZN22ChiFeature2RealTimeMCX18CheckAndAddZSLPortEPKN15ChiFeature2Base18ChiFeaturePortDataE+0x218>
   2badc: 02 00 00 14  	b	0x2bae4 <_ZN22ChiFeature2RealTimeMCX18CheckAndAddZSLPortEPKN15ChiFeature2Base18ChiFeaturePortDataE+0x26c>
   2bae8: f6 02 00 b5  	cbnz	x22, 0x2bb44 <_ZN22ChiFeature2RealTimeMCX18CheckAndAddZSLPortEPKN15ChiFeature2Base18ChiFeaturePortDataE+0x2cc>
   2bb1c: 8c 00 00 b4  	cbz	x12, 0x2bb2c <_ZN22ChiFeature2RealTimeMCX18CheckAndAddZSLPortEPKN15ChiFeature2Base18ChiFeaturePortDataE+0x2b4>
   2bb28: 02 00 00 14  	b	0x2bb30 <_ZN22ChiFeature2RealTimeMCX18CheckAndAddZSLPortEPKN15ChiFeature2Base18ChiFeaturePortDataE+0x2b8>
   2bb4c: 20 01 00 54  	b.eq	0x2bb70 <_ZN22ChiFeature2RealTimeMCX18CheckAndAddZSLPortEPKN15ChiFeature2Base18ChiFeaturePortDataE+0x2f8>
   2bb6c: 37 00 00 14  	b	0x2bc48 <_ZN22ChiFeature2RealTimeMCX18CheckAndAddZSLPortEPKN15ChiFeature2Base18ChiFeaturePortDataE+0x3d0>
   2bba0: e2 08 00 54  	b.hs	0x2bcbc <_ZN22ChiFeature2RealTimeMCX18CheckAndAddZSLPortEPKN15ChiFeature2Base18ChiFeaturePortDataE+0x444>
   2bbd4: 19 01 00 b4  	cbz	x25, 0x2bbf4 <_ZN22ChiFeature2RealTimeMCX18CheckAndAddZSLPortEPKN15ChiFeature2Base18ChiFeaturePortDataE+0x37c>
   2bbdc: 22 07 00 54  	b.hs	0x2bcc0 <_ZN22ChiFeature2RealTimeMCX18CheckAndAddZSLPortEPKN15ChiFeature2Base18ChiFeaturePortDataE+0x448>
   2bbf0: 02 00 00 14  	b	0x2bbf8 <_ZN22ChiFeature2RealTimeMCX18CheckAndAddZSLPortEPKN15ChiFeature2Base18ChiFeaturePortDataE+0x380>
   2bc20: ab 00 00 54  	b.lt	0x2bc34 <_ZN22ChiFeature2RealTimeMCX18CheckAndAddZSLPortEPKN15ChiFeature2Base18ChiFeaturePortDataE+0x3bc>
   2bc40: 40 00 00 b4  	cbz	x0, 0x2bc48 <_ZN22ChiFeature2RealTimeMCX18CheckAndAddZSLPortEPKN15ChiFeature2Base18ChiFeaturePortDataE+0x3d0>
   2bc94: 9b af 00 94  	bl	0x57b00 <_ZNSt3__15mutex6unlockEv@plt>
   2bcbc: b9 af 00 94  	bl	0x57ba0 <_ZNKSt3__120__vector_base_commonILb1EE20__throw_length_errorEv@plt>
000000000002bcc8 <_ZNK22ChiFeature2RealTimeMCX18OnSelectSensorModeEP24ChiFeature2RequestObjectPN15ChiFeature2Base22ChiFeaturePipelineDataEP17DesiredSensorMode>:
   2bd08: 03 02 00 b4  	cbz	x3, 0x2bd48 <_ZNK22ChiFeature2RealTimeMCX18OnSelectSensorModeEP24ChiFeature2RequestObjectPN15ChiFeature2Base22ChiFeaturePipelineDataEP17DesiredSensorMode+0x80>
   2bd10: 68 00 00 b4  	cbz	x8, 0x2bd1c <_ZNK22ChiFeature2RealTimeMCX18OnSelectSensorModeEP24ChiFeature2RequestObjectPN15ChiFeature2Base22ChiFeaturePipelineDataEP17DesiredSensorMode+0x54>
   2bd18: 69 02 28 37  	tbnz	w9, #5, 0x2bd64 <_ZNK22ChiFeature2RealTimeMCX18OnSelectSensorModeEP24ChiFeature2RequestObjectPN15ChiFeature2Base22ChiFeaturePipelineDataEP17DesiredSensorMode+0x9c>
   2bd24: 3f b0 00 94  	bl	0x57e20 <_ZN16ChiFeature2Utils37CheckModeChangeRequireForInSensorZoomEP27ChiFeature2InSensorZoomInfoP17DesiredSensorMode@plt>
   2bd2c: 61 02 00 54  	b.ne	0x2bd78 <_ZNK22ChiFeature2RealTimeMCX18OnSelectSensorModeEP24ChiFeature2RequestObjectPN15ChiFeature2Base22ChiFeaturePipelineDataEP17DesiredSensorMode+0xb0>
   2bd40: 3c b0 00 94  	bl	0x57e30 <_ZNK15ChiFeature2Base18OnSelectSensorModeEP24ChiFeature2RequestObjectPNS_22ChiFeaturePipelineDataEP17DesiredSensorMode@plt>
   2bd44: 0e 00 00 14  	b	0x2bd7c <_ZNK22ChiFeature2RealTimeMCX18OnSelectSensorModeEP24ChiFeature2RequestObjectPN15ChiFeature2Base22ChiFeaturePipelineDataEP17DesiredSensorMode+0xb4>
   2bd58: 3a b0 00 94  	bl	0x57e40 <_ZNK15ChiFeature2Base28FillDefaultDesiredSensorModeEPNS_22ChiFeaturePipelineDataEP17DesiredSensorMode@plt>
   2bd5c: 00 01 00 35  	cbnz	w0, 0x2bd7c <_ZNK22ChiFeature2RealTimeMCX18OnSelectSensorModeEP24ChiFeature2RequestObjectPN15ChiFeature2Base22ChiFeaturePipelineDataEP17DesiredSensorMode+0xb4>
   2bd60: eb ff ff 17  	b	0x2bd0c <_ZNK22ChiFeature2RealTimeMCX18OnSelectSensorModeEP24ChiFeature2RequestObjectPN15ChiFeature2Base22ChiFeaturePipelineDataEP17DesiredSensorMode+0x44>
   2bd6c: 2d b0 00 94  	bl	0x57e20 <_ZN16ChiFeature2Utils37CheckModeChangeRequireForInSensorZoomEP27ChiFeature2InSensorZoomInfoP17DesiredSensorMode@plt>
   2bd74: e0 fd ff 54  	b.eq	0x2bd30 <_ZNK22ChiFeature2RealTimeMCX18OnSelectSensorModeEP24ChiFeature2RequestObjectPN15ChiFeature2Base22ChiFeaturePipelineDataEP17DesiredSensorMode+0x68>
   2bd88: e1 00 00 54  	b.ne	0x2bda4 <_ZNK22ChiFeature2RealTimeMCX18OnSelectSensorModeEP24ChiFeature2RequestObjectPN15ChiFeature2Base22ChiFeaturePipelineDataEP17DesiredSensorMode+0xdc>
000000000002bda8 <_ZN22ChiFeature2RealTimeMCX16OnPipelineCreateEP21ChiFeature2Identifier>:
   2bdd8: 61 02 00 b4  	cbz	x1, 0x2be24 <_ZN22ChiFeature2RealTimeMCX16OnPipelineCreateEP21ChiFeature2Identifier+0x7c>
   2bdec: c2 01 00 54  	b.hs	0x2be24 <_ZN22ChiFeature2RealTimeMCX16OnPipelineCreateEP21ChiFeature2Identifier+0x7c>
   2bdf4: 8e 01 00 b4  	cbz	x14, 0x2be24 <_ZN22ChiFeature2RealTimeMCX16OnPipelineCreateEP21ChiFeature2Identifier+0x7c>
   2be08: e2 00 00 54  	b.hs	0x2be24 <_ZN22ChiFeature2RealTimeMCX16OnPipelineCreateEP21ChiFeature2Identifier+0x7c>
   2be1c: f8 00 00 b5  	cbnz	x24, 0x2be38 <_ZN22ChiFeature2RealTimeMCX16OnPipelineCreateEP21ChiFeature2Identifier+0x90>
   2be20: 03 01 00 14  	b	0x2c22c <_ZN22ChiFeature2RealTimeMCX16OnPipelineCreateEP21ChiFeature2Identifier+0x484>
   2be34: d8 1f 00 b4  	cbz	x24, 0x2c22c <_ZN22ChiFeature2RealTimeMCX16OnPipelineCreateEP21ChiFeature2Identifier+0x484>
   2be3c: ad 1f 00 b4  	cbz	x13, 0x2c230 <_ZN22ChiFeature2RealTimeMCX16OnPipelineCreateEP21ChiFeature2Identifier+0x488>
   2be44: 69 1f 00 b4  	cbz	x9, 0x2c230 <_ZN22ChiFeature2RealTimeMCX16OnPipelineCreateEP21ChiFeature2Identifier+0x488>
   2be48: a0 01 00 b0  	adrp	x0, 0x60000 <_ZN22ChiFeature2RealTimeMCX16OnPipelineCreateEP21ChiFeature2Identifier+0x174>
   2be60: 6a 05 28 36  	tbz	w10, #5, 0x2bf0c <_ZN22ChiFeature2RealTimeMCX16OnPipelineCreateEP21ChiFeature2Identifier+0x164>
   2be64: a2 01 00 b0  	adrp	x2, 0x60000 <_ZN22ChiFeature2RealTimeMCX16OnPipelineCreateEP21ChiFeature2Identifier+0x190>
   2be68: 16 ff ff d0  	adrp	x22, 0xd000 <_ZN22ChiFeature2RealTimeMCX16OnPipelineCreateEP21ChiFeature2Identifier+0x48>
   2be7c: 41 02 00 54  	b.ne	0x2bec4 <_ZN22ChiFeature2RealTimeMCX16OnPipelineCreateEP21ChiFeature2Identifier+0x11c>
   2be94: 61 ff ff 90  	adrp	x1, 0x17000 <_ZN22ChiFeature2RealTimeMCX16OnPipelineCreateEP21ChiFeature2Identifier+0x9c>
   2be98: 02 ff ff f0  	adrp	x2, 0xe000 <_ZN22ChiFeature2RealTimeMCX16OnPipelineCreateEP21ChiFeature2Identifier+0x7c>
   2be9c: 25 ff ff d0  	adrp	x5, 0x11000 <_ZN22ChiFeature2RealTimeMCX16OnPipelineCreateEP21ChiFeature2Identifier+0x8c>
   2bed8: 41 ff ff 90  	adrp	x1, 0x13000 <_ZN22ChiFeature2RealTimeMCX16OnPipelineCreateEP21ChiFeature2Identifier+0xd0>
   2bee0: 60 ff ff 90  	adrp	x0, 0x17000 <_ZN22ChiFeature2RealTimeMCX16OnPipelineCreateEP21ChiFeature2Identifier+0xe8>
   2bee4: 23 ff ff d0  	adrp	x3, 0x11000 <_ZN22ChiFeature2RealTimeMCX16OnPipelineCreateEP21ChiFeature2Identifier+0xd4>
   2bee8: 25 ff ff b0  	adrp	x5, 0x10000 <_ZN22ChiFeature2RealTimeMCX16OnPipelineCreateEP21ChiFeature2Identifier+0xd4>
   2bf08: b6 ae 00 94  	bl	0x579e0 <_ZN6ChiLog9LogSystemEPKcS1_S1_S1_iS1_z@plt>
   2bf14: e0 02 00 54  	b.eq	0x2bf70 <_ZN22ChiFeature2RealTimeMCX16OnPipelineCreateEP21ChiFeature2Identifier+0x1c8>
   2bf68: c8 fe ff 54  	b.hi	0x2bf40 <_ZN22ChiFeature2RealTimeMCX16OnPipelineCreateEP21ChiFeature2Identifier+0x198>
   2bf70: 04 af 00 94  	bl	0x57b80 <_ZN15ExtensionModule11GetInstanceEv@plt>
   2bf80: c1 0c 00 54  	b.ne	0x2c118 <_ZN22ChiFeature2RealTimeMCX16OnPipelineCreateEP21ChiFeature2Identifier+0x370>
   2bf84: ff ae 00 94  	bl	0x57b80 <_ZN15ExtensionModule11GetInstanceEv@plt>
   2bf94: 1b af 00 94  	bl	0x57c00 <_ZN15ExtensionModule28GetPhysicalCameraSensorModesEjPjPP17ChiSensorModeInfo@plt>
   2bf98: c0 14 00 35  	cbnz	w0, 0x2c230 <_ZN22ChiFeature2RealTimeMCX16OnPipelineCreateEP21ChiFeature2Identifier+0x488>
   2bfa0: 68 14 00 34  	cbz	w8, 0x2c22c <_ZN22ChiFeature2RealTimeMCX16OnPipelineCreateEP21ChiFeature2Identifier+0x484>
   2bfb4: 06 00 00 14  	b	0x2bfcc <_ZN22ChiFeature2RealTimeMCX16OnPipelineCreateEP21ChiFeature2Identifier+0x224>
   2bfc8: 40 13 00 54  	b.eq	0x2c230 <_ZN22ChiFeature2RealTimeMCX16OnPipelineCreateEP21ChiFeature2Identifier+0x488>
   2bfd4: 21 ff ff 54  	b.ne	0x2bfb8 <_ZN22ChiFeature2RealTimeMCX16OnPipelineCreateEP21ChiFeature2Identifier+0x210>
   2bfdc: f1 fe 07 36  	tbz	w17, #0, 0x2bfb8 <_ZN22ChiFeature2RealTimeMCX16OnPipelineCreateEP21ChiFeature2Identifier+0x210>
   2bfec: 06 00 00 14  	b	0x2c004 <_ZN22ChiFeature2RealTimeMCX16OnPipelineCreateEP21ChiFeature2Identifier+0x25c>
   2c000: 80 11 00 54  	b.eq	0x2c230 <_ZN22ChiFeature2RealTimeMCX16OnPipelineCreateEP21ChiFeature2Identifier+0x488>
   2c008: 4d ff 0f 36  	tbz	w13, #1, 0x2bff0 <_ZN22ChiFeature2RealTimeMCX16OnPipelineCreateEP21ChiFeature2Identifier+0x248>
   2c018: c1 fe ff 54  	b.ne	0x2bff0 <_ZN22ChiFeature2RealTimeMCX16OnPipelineCreateEP21ChiFeature2Identifier+0x248>
   2c028: 41 fe ff 54  	b.ne	0x2bff0 <_ZN22ChiFeature2RealTimeMCX16OnPipelineCreateEP21ChiFeature2Identifier+0x248>
   2c02c: a1 01 00 90  	adrp	x1, 0x60000 <_ZN22ChiFeature2RealTimeMCX16OnPipelineCreateEP21ChiFeature2Identifier+0x354>
   2c03c: e7 05 f8 36  	tbz	w7, #31, 0x2c0f8 <_ZN22ChiFeature2RealTimeMCX16OnPipelineCreateEP21ChiFeature2Identifier+0x350>
   2c040: a5 01 00 90  	adrp	x5, 0x60000 <_ZN22ChiFeature2RealTimeMCX16OnPipelineCreateEP21ChiFeature2Identifier+0x368>
   2c050: a1 02 00 54  	b.ne	0x2c0a4 <_ZN22ChiFeature2RealTimeMCX16OnPipelineCreateEP21ChiFeature2Identifier+0x2fc>
   2c054: 19 ff ff b0  	adrp	x25, 0xd000 <_ZN22ChiFeature2RealTimeMCX16OnPipelineCreateEP21ChiFeature2Identifier+0x230>
   2c070: 41 ff ff f0  	adrp	x1, 0x17000 <_ZN22ChiFeature2RealTimeMCX16OnPipelineCreateEP21ChiFeature2Identifier+0x274>
   2c074: 22 ff ff f0  	adrp	x2, 0x13000 <_ZN22ChiFeature2RealTimeMCX16OnPipelineCreateEP21ChiFeature2Identifier+0x268>
   2c078: 25 ff ff b0  	adrp	x5, 0x11000 <_ZN22ChiFeature2RealTimeMCX16OnPipelineCreateEP21ChiFeature2Identifier+0x264>
   2c0a4: 13 ff ff b0  	adrp	x19, 0xd000 <_ZN22ChiFeature2RealTimeMCX16OnPipelineCreateEP21ChiFeature2Identifier+0x280>
   2c0c0: 21 ff ff d0  	adrp	x1, 0x12000 <_ZN22ChiFeature2RealTimeMCX16OnPipelineCreateEP21ChiFeature2Identifier+0x2b0>
   2c0c8: 20 ff ff f0  	adrp	x0, 0x13000 <_ZN22ChiFeature2RealTimeMCX16OnPipelineCreateEP21ChiFeature2Identifier+0x2bc>
   2c0cc: 23 ff ff b0  	adrp	x3, 0x11000 <_ZN22ChiFeature2RealTimeMCX16OnPipelineCreateEP21ChiFeature2Identifier+0x2b8>
   2c0d0: 25 ff ff d0  	adrp	x5, 0x12000 <_ZN22ChiFeature2RealTimeMCX16OnPipelineCreateEP21ChiFeature2Identifier+0x2c0>
   2c0f4: 3b ae 00 94  	bl	0x579e0 <_ZN6ChiLog9LogSystemEPKcS1_S1_S1_iS1_z@plt>
   2c104: 40 09 00 54  	b.eq	0x2c22c <_ZN22ChiFeature2RealTimeMCX16OnPipelineCreateEP21ChiFeature2Identifier+0x484>
   2c114: 5c 00 00 14  	b	0x2c284 <_ZN22ChiFeature2RealTimeMCX16OnPipelineCreateEP21ChiFeature2Identifier+0x4dc>
   2c124: 40 08 00 54  	b.eq	0x2c22c <_ZN22ChiFeature2RealTimeMCX16OnPipelineCreateEP21ChiFeature2Identifier+0x484>
   2c128: aa 01 00 90  	adrp	x10, 0x60000 <_ZN22ChiFeature2RealTimeMCX16OnPipelineCreateEP21ChiFeature2Identifier+0x450>
   2c12c: 16 ff ff b0  	adrp	x22, 0xd000 <_ZN22ChiFeature2RealTimeMCX16OnPipelineCreateEP21ChiFeature2Identifier+0x308>
   2c130: 39 ff ff b0  	adrp	x25, 0x11000 <_ZN22ChiFeature2RealTimeMCX16OnPipelineCreateEP21ChiFeature2Identifier+0x31c>
   2c148: 1a 00 00 14  	b	0x2c1b0 <_ZN22ChiFeature2RealTimeMCX16OnPipelineCreateEP21ChiFeature2Identifier+0x408>
   2c160: 21 ff ff d0  	adrp	x1, 0x12000 <_ZN22ChiFeature2RealTimeMCX16OnPipelineCreateEP21ChiFeature2Identifier+0x350>
   2c168: 20 ff ff f0  	adrp	x0, 0x13000 <_ZN22ChiFeature2RealTimeMCX16OnPipelineCreateEP21ChiFeature2Identifier+0x35c>
   2c16c: 25 ff ff d0  	adrp	x5, 0x12000 <_ZN22ChiFeature2RealTimeMCX16OnPipelineCreateEP21ChiFeature2Identifier+0x35c>
   2c190: 14 ae 00 94  	bl	0x579e0 <_ZN6ChiLog9LogSystemEPKcS1_S1_S1_iS1_z@plt>
   2c194: aa 01 00 90  	adrp	x10, 0x60000 <_ZN22ChiFeature2RealTimeMCX16OnPipelineCreateEP21ChiFeature2Identifier+0x4bc>
   2c1ac: 00 04 00 54  	b.eq	0x2c22c <_ZN22ChiFeature2RealTimeMCX16OnPipelineCreateEP21ChiFeature2Identifier+0x484>
   2c1b8: 61 ff ff 54  	b.ne	0x2c1a4 <_ZN22ChiFeature2RealTimeMCX16OnPipelineCreateEP21ChiFeature2Identifier+0x3fc>
   2c1c0: e1 fe ff 35  	cbnz	w1, 0x2c19c <_ZN22ChiFeature2RealTimeMCX16OnPipelineCreateEP21ChiFeature2Identifier+0x3f4>
   2c1cc: 84 fe ff 36  	tbz	w4, #31, 0x2c19c <_ZN22ChiFeature2RealTimeMCX16OnPipelineCreateEP21ChiFeature2Identifier+0x3f4>
   2c1d0: a8 01 00 90  	adrp	x8, 0x60000 <_ZN22ChiFeature2RealTimeMCX16OnPipelineCreateEP21ChiFeature2Identifier+0x4f8>
   2c1e0: 61 fb ff 54  	b.ne	0x2c14c <_ZN22ChiFeature2RealTimeMCX16OnPipelineCreateEP21ChiFeature2Identifier+0x3a4>
   2c1f8: 41 ff ff f0  	adrp	x1, 0x17000 <_ZN22ChiFeature2RealTimeMCX16OnPipelineCreateEP21ChiFeature2Identifier+0x3fc>
   2c1fc: 22 ff ff f0  	adrp	x2, 0x13000 <_ZN22ChiFeature2RealTimeMCX16OnPipelineCreateEP21ChiFeature2Identifier+0x3f0>
   2c228: c9 ff ff 17  	b	0x2c14c <_ZN22ChiFeature2RealTimeMCX16OnPipelineCreateEP21ChiFeature2Identifier+0x3a4>
   2c23c: 61 03 00 54  	b.ne	0x2c2a8 <_ZN22ChiFeature2RealTimeMCX16OnPipelineCreateEP21ChiFeature2Identifier+0x500>
   2c280: 80 fd ff 54  	b.eq	0x2c230 <_ZN22ChiFeature2RealTimeMCX16OnPipelineCreateEP21ChiFeature2Identifier+0x488>
   2c28c: 21 ff ff 54  	b.ne	0x2c270 <_ZN22ChiFeature2RealTimeMCX16OnPipelineCreateEP21ChiFeature2Identifier+0x4c8>
   2c298: 40 fe ff 54  	b.eq	0x2c260 <_ZN22ChiFeature2RealTimeMCX16OnPipelineCreateEP21ChiFeature2Identifier+0x4b8>
   2c29c: 4e fe ff 35  	cbnz	w14, 0x2c264 <_ZN22ChiFeature2RealTimeMCX16OnPipelineCreateEP21ChiFeature2Identifier+0x4bc>
   2c2a4: f0 ff ff 17  	b	0x2c264 <_ZN22ChiFeature2RealTimeMCX16OnPipelineCreateEP21ChiFeature2Identifier+0x4bc>
000000000002c2b0 <_ZNK22ChiFeature2RealTimeMCX20AdjustMCBufferNumberEPK24Feature2ControllerResultP17LogicalCameraInfoP11ChiMetadata>:
   2c2e0: 89 03 00 34  	cbz	w9, 0x2c350 <_ZNK22ChiFeature2RealTimeMCX20AdjustMCBufferNumberEPK24Feature2ControllerResultP17LogicalCameraInfoP11ChiMetadata+0xa0>
   2c318: 41 ff ff 54  	b.ne	0x2c300 <_ZNK22ChiFeature2RealTimeMCX20AdjustMCBufferNumberEPK24Feature2ControllerResultP17LogicalCameraInfoP11ChiMetadata+0x50>
   2c320: 80 01 00 54  	b.eq	0x2c350 <_ZNK22ChiFeature2RealTimeMCX20AdjustMCBufferNumberEPK24Feature2ControllerResultP17LogicalCameraInfoP11ChiMetadata+0xa0>
   2c32c: 60 00 00 54  	b.eq	0x2c338 <_ZNK22ChiFeature2RealTimeMCX20AdjustMCBufferNumberEPK24Feature2ControllerResultP17LogicalCameraInfoP11ChiMetadata+0x88>
   2c334: e1 06 00 54  	b.ne	0x2c410 <_ZNK22ChiFeature2RealTimeMCX20AdjustMCBufferNumberEPK24Feature2ControllerResultP17LogicalCameraInfoP11ChiMetadata+0x160>
   2c34c: 33 00 00 14  	b	0x2c418 <_ZNK22ChiFeature2RealTimeMCX20AdjustMCBufferNumberEPK24Feature2ControllerResultP17LogicalCameraInfoP11ChiMetadata+0x168>
   2c350: b1 01 00 90  	adrp	x17, 0x60000 <_ZNK22ChiFeature2RealTimeMCX20AdjustMCBufferNumberEPK24Feature2ControllerResultP17LogicalCameraInfoP11ChiMetadata+0x170>
   2c35c: 69 00 00 37  	tbnz	w9, #0, 0x2c368 <_ZNK22ChiFeature2RealTimeMCX20AdjustMCBufferNumberEPK24Feature2ControllerResultP17LogicalCameraInfoP11ChiMetadata+0xb8>
   2c364: 80 01 00 14  	b	0x2c964 <_ZNK22ChiFeature2RealTimeMCX20AdjustMCBufferNumberEPK24Feature2ControllerResultP17LogicalCameraInfoP11ChiMetadata+0x6b4>
   2c368: a1 01 00 90  	adrp	x1, 0x60000 <_ZNK22ChiFeature2RealTimeMCX20AdjustMCBufferNumberEPK24Feature2ControllerResultP17LogicalCameraInfoP11ChiMetadata+0x188>
   2c378: 41 02 00 54  	b.ne	0x2c3c0 <_ZNK22ChiFeature2RealTimeMCX20AdjustMCBufferNumberEPK24Feature2ControllerResultP17LogicalCameraInfoP11ChiMetadata+0x110>
   2c37c: 18 ff ff b0  	adrp	x24, 0xd000 <_ZNK22ChiFeature2RealTimeMCX20AdjustMCBufferNumberEPK24Feature2ControllerResultP17LogicalCameraInfoP11ChiMetadata+0x50>
   2c398: 41 ff ff f0  	adrp	x1, 0x17000 <_ZNK22ChiFeature2RealTimeMCX20AdjustMCBufferNumberEPK24Feature2ControllerResultP17LogicalCameraInfoP11ChiMetadata+0x94>
   2c39c: 22 ff ff f0  	adrp	x2, 0x13000 <_ZNK22ChiFeature2RealTimeMCX20AdjustMCBufferNumberEPK24Feature2ControllerResultP17LogicalCameraInfoP11ChiMetadata+0x88>
   2c3a0: 25 ff ff f0  	adrp	x5, 0x13000 <_ZNK22ChiFeature2RealTimeMCX20AdjustMCBufferNumberEPK24Feature2ControllerResultP17LogicalCameraInfoP11ChiMetadata+0x8c>
   2c3c0: 19 ff ff b0  	adrp	x25, 0xd000 <_ZNK22ChiFeature2RealTimeMCX20AdjustMCBufferNumberEPK24Feature2ControllerResultP17LogicalCameraInfoP11ChiMetadata+0x94>
   2c3dc: 41 ff ff f0  	adrp	x1, 0x17000 <_ZNK22ChiFeature2RealTimeMCX20AdjustMCBufferNumberEPK24Feature2ControllerResultP17LogicalCameraInfoP11ChiMetadata+0xd8>
   2c3e4: 00 ff ff b0  	adrp	x0, 0xd000 <_ZNK22ChiFeature2RealTimeMCX20AdjustMCBufferNumberEPK24Feature2ControllerResultP17LogicalCameraInfoP11ChiMetadata+0xb8>
   2c3e8: 23 ff ff f0  	adrp	x3, 0x13000 <_ZNK22ChiFeature2RealTimeMCX20AdjustMCBufferNumberEPK24Feature2ControllerResultP17LogicalCameraInfoP11ChiMetadata+0xd4>
   2c3ec: 05 ff ff f0  	adrp	x5, 0xf000 <_ZNK22ChiFeature2RealTimeMCX20AdjustMCBufferNumberEPK24Feature2ControllerResultP17LogicalCameraInfoP11ChiMetadata+0xc8>
   2c404: 77 ad 00 94  	bl	0x579e0 <_ZN6ChiLog9LogSystemEPKcS1_S1_S1_iS1_z@plt>
   2c40c: 56 01 00 14  	b	0x2c964 <_ZNK22ChiFeature2RealTimeMCX20AdjustMCBufferNumberEPK24Feature2ControllerResultP17LogicalCameraInfoP11ChiMetadata+0x6b4>
   2c418: da ad 00 94  	bl	0x57b80 <_ZN15ExtensionModule11GetInstanceEv@plt>
   2c43c: 6f 00 00 b4  	cbz	x15, 0x2c448 <_ZNK22ChiFeature2RealTimeMCX20AdjustMCBufferNumberEPK24Feature2ControllerResultP17LogicalCameraInfoP11ChiMetadata+0x198>
   2c444: 02 00 00 14  	b	0x2c44c <_ZNK22ChiFeature2RealTimeMCX20AdjustMCBufferNumberEPK24Feature2ControllerResultP17LogicalCameraInfoP11ChiMetadata+0x19c>
   2c44c: a8 01 00 d0  	adrp	x8, 0x62000 <_ZNK22ChiFeature2RealTimeMCX20AdjustMCBufferNumberEPK24Feature2ControllerResultP17LogicalCameraInfoP11ChiMetadata+0x274>
   2c450: c9 01 00 90  	adrp	x9, 0x64000 <_ZNK22ChiFeature2RealTimeMCX20AdjustMCBufferNumberEPK24Feature2ControllerResultP17LogicalCameraInfoP11ChiMetadata+0x280>
   2c460: c1 00 00 54  	b.ne	0x2c478 <_ZNK22ChiFeature2RealTimeMCX20AdjustMCBufferNumberEPK24Feature2ControllerResultP17LogicalCameraInfoP11ChiMetadata+0x1c8>
   2c470: 61 00 00 54  	b.ne	0x2c47c <_ZNK22ChiFeature2RealTimeMCX20AdjustMCBufferNumberEPK24Feature2ControllerResultP17LogicalCameraInfoP11ChiMetadata+0x1cc>
   2c474: 3b 00 00 14  	b	0x2c560 <_ZNK22ChiFeature2RealTimeMCX20AdjustMCBufferNumberEPK24Feature2ControllerResultP17LogicalCameraInfoP11ChiMetadata+0x2b0>
   2c47c: a3 01 00 90  	adrp	x3, 0x60000 <_ZNK22ChiFeature2RealTimeMCX20AdjustMCBufferNumberEPK24Feature2ControllerResultP17LogicalCameraInfoP11ChiMetadata+0x29c>
   2c494: 62 06 28 36  	tbz	w2, #5, 0x2c560 <_ZNK22ChiFeature2RealTimeMCX20AdjustMCBufferNumberEPK24Feature2ControllerResultP17LogicalCameraInfoP11ChiMetadata+0x2b0>
   2c498: a4 01 00 90  	adrp	x4, 0x60000 <_ZNK22ChiFeature2RealTimeMCX20AdjustMCBufferNumberEPK24Feature2ControllerResultP17LogicalCameraInfoP11ChiMetadata+0x2b8>
   2c49c: 17 ff ff b0  	adrp	x23, 0xd000 <_ZNK22ChiFeature2RealTimeMCX20AdjustMCBufferNumberEPK24Feature2ControllerResultP17LogicalCameraInfoP11ChiMetadata+0x170>
   2c4b0: c1 02 00 54  	b.ne	0x2c508 <_ZNK22ChiFeature2RealTimeMCX20AdjustMCBufferNumberEPK24Feature2ControllerResultP17LogicalCameraInfoP11ChiMetadata+0x258>
   2c4cc: 41 ff ff f0  	adrp	x1, 0x17000 <_ZNK22ChiFeature2RealTimeMCX20AdjustMCBufferNumberEPK24Feature2ControllerResultP17LogicalCameraInfoP11ChiMetadata+0x1c8>
   2c4d0: 02 ff ff b0  	adrp	x2, 0xd000 <_ZNK22ChiFeature2RealTimeMCX20AdjustMCBufferNumberEPK24Feature2ControllerResultP17LogicalCameraInfoP11ChiMetadata+0x1a4>
   2c4d4: 25 ff ff f0  	adrp	x5, 0x13000 <_ZNK22ChiFeature2RealTimeMCX20AdjustMCBufferNumberEPK24Feature2ControllerResultP17LogicalCameraInfoP11ChiMetadata+0x1c0>
   2c524: 40 ff ff f0  	adrp	x0, 0x17000 <_ZNK22ChiFeature2RealTimeMCX20AdjustMCBufferNumberEPK24Feature2ControllerResultP17LogicalCameraInfoP11ChiMetadata+0x220>
   2c528: 21 ff ff f0  	adrp	x1, 0x13000 <_ZNK22ChiFeature2RealTimeMCX20AdjustMCBufferNumberEPK24Feature2ControllerResultP17LogicalCameraInfoP11ChiMetadata+0x214>
   2c52c: 23 ff ff f0  	adrp	x3, 0x13000 <_ZNK22ChiFeature2RealTimeMCX20AdjustMCBufferNumberEPK24Feature2ControllerResultP17LogicalCameraInfoP11ChiMetadata+0x218>
   2c530: 25 ff ff f0  	adrp	x5, 0x13000 <_ZNK22ChiFeature2RealTimeMCX20AdjustMCBufferNumberEPK24Feature2ControllerResultP17LogicalCameraInfoP11ChiMetadata+0x21c>
   2c55c: 21 ad 00 94  	bl	0x579e0 <_ZN6ChiLog9LogSystemEPKcS1_S1_S1_iS1_z@plt>
   2c564: 1c 20 00 34  	cbz	w28, 0x2c964 <_ZNK22ChiFeature2RealTimeMCX20AdjustMCBufferNumberEPK24Feature2ControllerResultP17LogicalCameraInfoP11ChiMetadata+0x6b4>
   2c568: cd 01 00 90  	adrp	x13, 0x64000 <_ZNK22ChiFeature2RealTimeMCX20AdjustMCBufferNumberEPK24Feature2ControllerResultP17LogicalCameraInfoP11ChiMetadata+0x398>
   2c574: 8b 1f 00 54  	b.lt	0x2c964 <_ZNK22ChiFeature2RealTimeMCX20AdjustMCBufferNumberEPK24Feature2ControllerResultP17LogicalCameraInfoP11ChiMetadata+0x6b4>
   2c584: eb 1e 00 54  	b.lt	0x2c960 <_ZNK22ChiFeature2RealTimeMCX20AdjustMCBufferNumberEPK24Feature2ControllerResultP17LogicalCameraInfoP11ChiMetadata+0x6b0>
   2c594: 61 00 00 54  	b.ne	0x2c5a0 <_ZNK22ChiFeature2RealTimeMCX20AdjustMCBufferNumberEPK24Feature2ControllerResultP17LogicalCameraInfoP11ChiMetadata+0x2f0>
   2c59c: 02 00 00 14  	b	0x2c5a4 <_ZNK22ChiFeature2RealTimeMCX20AdjustMCBufferNumberEPK24Feature2ControllerResultP17LogicalCameraInfoP11ChiMetadata+0x2f4>
   2c5b4: 60 1d 00 54  	b.eq	0x2c960 <_ZNK22ChiFeature2RealTimeMCX20AdjustMCBufferNumberEPK24Feature2ControllerResultP17LogicalCameraInfoP11ChiMetadata+0x6b0>
   2c5c0: d0 1e 00 b5  	cbnz	x16, 0x2c998 <_ZNK22ChiFeature2RealTimeMCX20AdjustMCBufferNumberEPK24Feature2ControllerResultP17LogicalCameraInfoP11ChiMetadata+0x6e8>
   2c5ec: 2b 1b 00 54  	b.lt	0x2c950 <_ZNK22ChiFeature2RealTimeMCX20AdjustMCBufferNumberEPK24Feature2ControllerResultP17LogicalCameraInfoP11ChiMetadata+0x6a0>
   2c608: 56 1a 00 b4  	cbz	x22, 0x2c950 <_ZNK22ChiFeature2RealTimeMCX20AdjustMCBufferNumberEPK24Feature2ControllerResultP17LogicalCameraInfoP11ChiMetadata+0x6a0>
   2c610: 59 ff ff 90  	adrp	x25, 0x14000 <_ZNK22ChiFeature2RealTimeMCX20AdjustMCBufferNumberEPK24Feature2ControllerResultP17LogicalCameraInfoP11ChiMetadata+0x300>
   2c638: 08 00 00 14  	b	0x2c658 <_ZNK22ChiFeature2RealTimeMCX20AdjustMCBufferNumberEPK24Feature2ControllerResultP17LogicalCameraInfoP11ChiMetadata+0x3a8>
   2c654: e9 17 00 54  	b.ls	0x2c950 <_ZNK22ChiFeature2RealTimeMCX20AdjustMCBufferNumberEPK24Feature2ControllerResultP17LogicalCameraInfoP11ChiMetadata+0x6a0>
   2c668: a0 fe ff 54  	b.eq	0x2c63c <_ZNK22ChiFeature2RealTimeMCX20AdjustMCBufferNumberEPK24Feature2ControllerResultP17LogicalCameraInfoP11ChiMetadata+0x38c>
   2c67c: 2c 00 00 14  	b	0x2c72c <_ZNK22ChiFeature2RealTimeMCX20AdjustMCBufferNumberEPK24Feature2ControllerResultP17LogicalCameraInfoP11ChiMetadata+0x47c>
   2c680: 19 ff ff b0  	adrp	x25, 0xd000 <_ZNK22ChiFeature2RealTimeMCX20AdjustMCBufferNumberEPK24Feature2ControllerResultP17LogicalCameraInfoP11ChiMetadata+0x354>
   2c6ac: 40 ff ff f0  	adrp	x0, 0x17000 <_ZNK22ChiFeature2RealTimeMCX20AdjustMCBufferNumberEPK24Feature2ControllerResultP17LogicalCameraInfoP11ChiMetadata+0x3a8>
   2c6b4: 21 ff ff f0  	adrp	x1, 0x13000 <_ZNK22ChiFeature2RealTimeMCX20AdjustMCBufferNumberEPK24Feature2ControllerResultP17LogicalCameraInfoP11ChiMetadata+0x3a0>
   2c6bc: 23 ff ff f0  	adrp	x3, 0x13000 <_ZNK22ChiFeature2RealTimeMCX20AdjustMCBufferNumberEPK24Feature2ControllerResultP17LogicalCameraInfoP11ChiMetadata+0x3a8>
   2c6cc: 65 ff ff 90  	adrp	x5, 0x18000 <_ZNK22ChiFeature2RealTimeMCX20AdjustMCBufferNumberEPK24Feature2ControllerResultP17LogicalCameraInfoP11ChiMetadata+0x3cc>
   2c6f4: bb ac 00 94  	bl	0x579e0 <_ZN6ChiLog9LogSystemEPKcS1_S1_S1_iS1_z@plt>
   2c6fc: 59 ff ff 90  	adrp	x25, 0x14000 <_ZNK22ChiFeature2RealTimeMCX20AdjustMCBufferNumberEPK24Feature2ControllerResultP17LogicalCameraInfoP11ChiMetadata+0x3ec>
   2c728: a9 f8 ff 54  	b.ls	0x2c63c <_ZNK22ChiFeature2RealTimeMCX20AdjustMCBufferNumberEPK24Feature2ControllerResultP17LogicalCameraInfoP11ChiMetadata+0x38c>
   2c734: d5 fe ff b4  	cbz	x21, 0x2c70c <_ZNK22ChiFeature2RealTimeMCX20AdjustMCBufferNumberEPK24Feature2ControllerResultP17LogicalCameraInfoP11ChiMetadata+0x45c>
   2c73c: 41 ff ff b0  	adrp	x1, 0x15000 <_ZNK22ChiFeature2RealTimeMCX20AdjustMCBufferNumberEPK24Feature2ControllerResultP17LogicalCameraInfoP11ChiMetadata+0x430>
   2c74c: a0 00 00 34  	cbz	w0, 0x2c760 <_ZNK22ChiFeature2RealTimeMCX20AdjustMCBufferNumberEPK24Feature2ControllerResultP17LogicalCameraInfoP11ChiMetadata+0x4b0>
   2c75c: 80 fd ff 35  	cbnz	w0, 0x2c70c <_ZNK22ChiFeature2RealTimeMCX20AdjustMCBufferNumberEPK24Feature2ControllerResultP17LogicalCameraInfoP11ChiMetadata+0x45c>
   2c768: 21 05 00 54  	b.ne	0x2c80c <_ZNK22ChiFeature2RealTimeMCX20AdjustMCBufferNumberEPK24Feature2ControllerResultP17LogicalCameraInfoP11ChiMetadata+0x55c>
   2c76c: a0 01 00 90  	adrp	x0, 0x60000 <_ZNK22ChiFeature2RealTimeMCX20AdjustMCBufferNumberEPK24Feature2ControllerResultP17LogicalCameraInfoP11ChiMetadata+0x58c>
   2c778: 63 fc 2f 36  	tbz	w3, #5, 0x2c704 <_ZNK22ChiFeature2RealTimeMCX20AdjustMCBufferNumberEPK24Feature2ControllerResultP17LogicalCameraInfoP11ChiMetadata+0x454>
   2c77c: a9 01 00 90  	adrp	x9, 0x60000 <_ZNK22ChiFeature2RealTimeMCX20AdjustMCBufferNumberEPK24Feature2ControllerResultP17LogicalCameraInfoP11ChiMetadata+0x59c>
   2c790: 81 f7 ff 54  	b.ne	0x2c680 <_ZNK22ChiFeature2RealTimeMCX20AdjustMCBufferNumberEPK24Feature2ControllerResultP17LogicalCameraInfoP11ChiMetadata+0x3d0>
   2c794: 19 ff ff b0  	adrp	x25, 0xd000 <_ZNK22ChiFeature2RealTimeMCX20AdjustMCBufferNumberEPK24Feature2ControllerResultP17LogicalCameraInfoP11ChiMetadata+0x468>
   2c7b8: 22 ff ff d0  	adrp	x2, 0x12000 <_ZNK22ChiFeature2RealTimeMCX20AdjustMCBufferNumberEPK24Feature2ControllerResultP17LogicalCameraInfoP11ChiMetadata+0x4a0>
   2c7e0: 41 ff ff f0  	adrp	x1, 0x17000 <_ZNK22ChiFeature2RealTimeMCX20AdjustMCBufferNumberEPK24Feature2ControllerResultP17LogicalCameraInfoP11ChiMetadata+0x4dc>
   2c7f0: 25 ff ff f0  	adrp	x5, 0x13000 <_ZNK22ChiFeature2RealTimeMCX20AdjustMCBufferNumberEPK24Feature2ControllerResultP17LogicalCameraInfoP11ChiMetadata+0x4dc>
   2c808: 9e ff ff 17  	b	0x2c680 <_ZNK22ChiFeature2RealTimeMCX20AdjustMCBufferNumberEPK24Feature2ControllerResultP17LogicalCameraInfoP11ChiMetadata+0x3d0>
   2c814: c1 f7 ff 54  	b.ne	0x2c70c <_ZNK22ChiFeature2RealTimeMCX20AdjustMCBufferNumberEPK24Feature2ControllerResultP17LogicalCameraInfoP11ChiMetadata+0x45c>
   2c818: ab 01 00 90  	adrp	x11, 0x60000 <_ZNK22ChiFeature2RealTimeMCX20AdjustMCBufferNumberEPK24Feature2ControllerResultP17LogicalCameraInfoP11ChiMetadata+0x638>
   2c824: c6 08 28 36  	tbz	w6, #5, 0x2c93c <_ZNK22ChiFeature2RealTimeMCX20AdjustMCBufferNumberEPK24Feature2ControllerResultP17LogicalCameraInfoP11ChiMetadata+0x68c>
   2c828: ac 01 00 90  	adrp	x12, 0x60000 <_ZNK22ChiFeature2RealTimeMCX20AdjustMCBufferNumberEPK24Feature2ControllerResultP17LogicalCameraInfoP11ChiMetadata+0x648>
   2c838: e1 03 00 54  	b.ne	0x2c8b4 <_ZNK22ChiFeature2RealTimeMCX20AdjustMCBufferNumberEPK24Feature2ControllerResultP17LogicalCameraInfoP11ChiMetadata+0x604>
   2c83c: 19 ff ff b0  	adrp	x25, 0xd000 <_ZNK22ChiFeature2RealTimeMCX20AdjustMCBufferNumberEPK24Feature2ControllerResultP17LogicalCameraInfoP11ChiMetadata+0x510>
   2c860: 25 ff ff f0  	adrp	x5, 0x13000 <_ZNK22ChiFeature2RealTimeMCX20AdjustMCBufferNumberEPK24Feature2ControllerResultP17LogicalCameraInfoP11ChiMetadata+0x54c>
   2c888: 62 ff ff 90  	adrp	x2, 0x18000 <_ZNK22ChiFeature2RealTimeMCX20AdjustMCBufferNumberEPK24Feature2ControllerResultP17LogicalCameraInfoP11ChiMetadata+0x588>
   2c898: 41 ff ff f0  	adrp	x1, 0x17000 <_ZNK22ChiFeature2RealTimeMCX20AdjustMCBufferNumberEPK24Feature2ControllerResultP17LogicalCameraInfoP11ChiMetadata+0x594>
   2c8b4: 19 ff ff b0  	adrp	x25, 0xd000 <_ZNK22ChiFeature2RealTimeMCX20AdjustMCBufferNumberEPK24Feature2ControllerResultP17LogicalCameraInfoP11ChiMetadata+0x588>
   2c8d8: 21 ff ff f0  	adrp	x1, 0x13000 <_ZNK22ChiFeature2RealTimeMCX20AdjustMCBufferNumberEPK24Feature2ControllerResultP17LogicalCameraInfoP11ChiMetadata+0x5c4>
   2c8e0: 25 ff ff 90  	adrp	x5, 0x10000 <_ZNK22ChiFeature2RealTimeMCX20AdjustMCBufferNumberEPK24Feature2ControllerResultP17LogicalCameraInfoP11ChiMetadata+0x5c0>
   2c8f8: 40 ff ff f0  	adrp	x0, 0x17000 <_ZNK22ChiFeature2RealTimeMCX20AdjustMCBufferNumberEPK24Feature2ControllerResultP17LogicalCameraInfoP11ChiMetadata+0x5f4>
   2c900: 23 ff ff f0  	adrp	x3, 0x13000 <_ZNK22ChiFeature2RealTimeMCX20AdjustMCBufferNumberEPK24Feature2ControllerResultP17LogicalCameraInfoP11ChiMetadata+0x5ec>
   2c92c: 2d ac 00 94  	bl	0x579e0 <_ZN6ChiLog9LogSystemEPKcS1_S1_S1_iS1_z@plt>
   2c934: 59 ff ff 90  	adrp	x25, 0x14000 <_ZNK22ChiFeature2RealTimeMCX20AdjustMCBufferNumberEPK24Feature2ControllerResultP17LogicalCameraInfoP11ChiMetadata+0x624>
   2c948: 42 ad 00 94  	bl	0x57e50 <_ZN22CHITargetBufferManager40DeepRecycleTargetBuffersFromConsumerListEv@plt>
   2c94c: 70 ff ff 17  	b	0x2c70c <_ZNK22ChiFeature2RealTimeMCX20AdjustMCBufferNumberEPK24Feature2ControllerResultP17LogicalCameraInfoP11ChiMetadata+0x45c>
   2c970: 21 01 00 54  	b.ne	0x2c994 <_ZNK22ChiFeature2RealTimeMCX20AdjustMCBufferNumberEPK24Feature2ControllerResultP17LogicalCameraInfoP11ChiMetadata+0x6e4>
   2c99c: 81 ac 00 94  	bl	0x57ba0 <_ZNKSt3__120__vector_base_commonILb1EE20__throw_length_errorEv@plt>
000000000002c9a0 <_ZNK22ChiFeature2RealTimeMCX31OnPopulateConfigurationSettingsEP24ChiFeature2RequestObjectPK21ChiFeature2IdentifierP11ChiMetadata>:
   2c9d8: 61 03 00 b4  	cbz	x1, 0x2ca44 <_ZNK22ChiFeature2RealTimeMCX31OnPopulateConfigurationSettingsEP24ChiFeature2RequestObjectPK21ChiFeature2IdentifierP11ChiMetadata+0xa4>
   2c9dc: 57 03 00 b4  	cbz	x23, 0x2ca44 <_ZNK22ChiFeature2RealTimeMCX31OnPopulateConfigurationSettingsEP24ChiFeature2RequestObjectPK21ChiFeature2IdentifierP11ChiMetadata+0xa4>
   2c9e0: 3a 03 00 b4  	cbz	x26, 0x2ca44 <_ZNK22ChiFeature2RealTimeMCX31OnPopulateConfigurationSettingsEP24ChiFeature2RequestObjectPK21ChiFeature2IdentifierP11ChiMetadata+0xa4>
   2c9f0: a8 ac 00 94  	bl	0x57c90 <_ZNK24ChiFeature2RequestObject23GetUsecaseRequestObjectEv@plt>
   2ca04: a3 ac 00 94  	bl	0x57c90 <_ZNK24ChiFeature2RequestObject23GetUsecaseRequestObjectEv@plt>
   2ca1c: 82 02 00 54  	b.hs	0x2ca6c <_ZNK22ChiFeature2RealTimeMCX31OnPopulateConfigurationSettingsEP24ChiFeature2RequestObjectPK21ChiFeature2IdentifierP11ChiMetadata+0xcc>
   2ca24: 54 02 00 b4  	cbz	x20, 0x2ca6c <_ZNK22ChiFeature2RealTimeMCX31OnPopulateConfigurationSettingsEP24ChiFeature2RequestObjectPK21ChiFeature2IdentifierP11ChiMetadata+0xcc>
   2ca38: a2 01 00 54  	b.hs	0x2ca6c <_ZNK22ChiFeature2RealTimeMCX31OnPopulateConfigurationSettingsEP24ChiFeature2RequestObjectPK21ChiFeature2IdentifierP11ChiMetadata+0xcc>
   2ca40: 0c 00 00 14  	b	0x2ca70 <_ZNK22ChiFeature2RealTimeMCX31OnPopulateConfigurationSettingsEP24ChiFeature2RequestObjectPK21ChiFeature2IdentifierP11ChiMetadata+0xd0>
   2ca44: b5 01 00 90  	adrp	x21, 0x60000 <_ZNK22ChiFeature2RealTimeMCX31OnPopulateConfigurationSettingsEP24ChiFeature2RequestObjectPK21ChiFeature2IdentifierP11ChiMetadata+0x174>
   2ca50: 53 13 00 37  	tbnz	w19, #0, 0x2ccb8 <_ZNK22ChiFeature2RealTimeMCX31OnPopulateConfigurationSettingsEP24ChiFeature2RequestObjectPK21ChiFeature2IdentifierP11ChiMetadata+0x318>
   2ca64: 80 11 00 54  	b.eq	0x2cc94 <_ZNK22ChiFeature2RealTimeMCX31OnPopulateConfigurationSettingsEP24ChiFeature2RequestObjectPK21ChiFeature2IdentifierP11ChiMetadata+0x2f4>
   2ca68: c7 00 00 14  	b	0x2cd84 <_ZNK22ChiFeature2RealTimeMCX31OnPopulateConfigurationSettingsEP24ChiFeature2RequestObjectPK21ChiFeature2IdentifierP11ChiMetadata+0x3e4>
   2ca90: 80 ac 00 94  	bl	0x57c90 <_ZNK24ChiFeature2RequestObject23GetUsecaseRequestObjectEv@plt>
   2caa8: 5c 07 00 b4  	cbz	x28, 0x2cb90 <_ZNK22ChiFeature2RealTimeMCX31OnPopulateConfigurationSettingsEP24ChiFeature2RequestObjectPK21ChiFeature2IdentifierP11ChiMetadata+0x1f0>
   2caac: 34 07 00 b4  	cbz	x20, 0x2cb90 <_ZNK22ChiFeature2RealTimeMCX31OnPopulateConfigurationSettingsEP24ChiFeature2RequestObjectPK21ChiFeature2IdentifierP11ChiMetadata+0x1f0>
   2cab4: e2 06 00 b4  	cbz	x2, 0x2cb90 <_ZNK22ChiFeature2RealTimeMCX31OnPopulateConfigurationSettingsEP24ChiFeature2RequestObjectPK21ChiFeature2IdentifierP11ChiMetadata+0x1f0>
   2cac8: 02 16 00 54  	b.hs	0x2cd88 <_ZNK22ChiFeature2RealTimeMCX31OnPopulateConfigurationSettingsEP24ChiFeature2RequestObjectPK21ChiFeature2IdentifierP11ChiMetadata+0x3e8>
   2caec: 40 0b 00 35  	cbnz	w0, 0x2cc54 <_ZNK22ChiFeature2RealTimeMCX31OnPopulateConfigurationSettingsEP24ChiFeature2RequestObjectPK21ChiFeature2IdentifierP11ChiMetadata+0x2b4>
   2cb0c: d5 ac 00 94  	bl	0x57e60 <_ZNK15ChiFeature2Base16UpdateSensorModeEP11ChiMetadataP17ChiSensorModeInfo@plt>
   2cb14: 00 0a 00 35  	cbnz	w0, 0x2cc54 <_ZNK22ChiFeature2RealTimeMCX31OnPopulateConfigurationSettingsEP24ChiFeature2RequestObjectPK21ChiFeature2IdentifierP11ChiMetadata+0x2b4>
   2cb4c: 51 ac 00 94  	bl	0x57c90 <_ZNK24ChiFeature2RequestObject23GetUsecaseRequestObjectEv@plt>
   2cb64: e1 17 00 54  	b.ne	0x2ce60 <_ZNK22ChiFeature2RealTimeMCX31OnPopulateConfigurationSettingsEP24ChiFeature2RequestObjectPK21ChiFeature2IdentifierP11ChiMetadata+0x4c0>
   2cb6c: ad 17 00 b4  	cbz	x13, 0x2ce60 <_ZNK22ChiFeature2RealTimeMCX31OnPopulateConfigurationSettingsEP24ChiFeature2RequestObjectPK21ChiFeature2IdentifierP11ChiMetadata+0x4c0>
   2cb80: 48 ac 00 94  	bl	0x57ca0 <_ZNK24ChiFeature2RequestObject19GetSequencePrivDataE24ChiFeature2SequenceOrderh@plt>
   2cb84: 20 32 00 b4  	cbz	x0, 0x2d1c8 <_ZNK22ChiFeature2RealTimeMCX31OnPopulateConfigurationSettingsEP24ChiFeature2RequestObjectPK21ChiFeature2IdentifierP11ChiMetadata+0x828>
   2cb8c: 94 01 00 14  	b	0x2d1dc <_ZNK22ChiFeature2RealTimeMCX31OnPopulateConfigurationSettingsEP24ChiFeature2RequestObjectPK21ChiFeature2IdentifierP11ChiMetadata+0x83c>
   2cb90: b6 01 00 90  	adrp	x22, 0x60000 <_ZNK22ChiFeature2RealTimeMCX31OnPopulateConfigurationSettingsEP24ChiFeature2RequestObjectPK21ChiFeature2IdentifierP11ChiMetadata+0x2c0>
   2cb9c: a6 05 00 36  	tbz	w6, #0, 0x2cc50 <_ZNK22ChiFeature2RealTimeMCX31OnPopulateConfigurationSettingsEP24ChiFeature2RequestObjectPK21ChiFeature2IdentifierP11ChiMetadata+0x2b0>
   2cba0: ba 01 00 90  	adrp	x26, 0x60000 <_ZNK22ChiFeature2RealTimeMCX31OnPopulateConfigurationSettingsEP24ChiFeature2RequestObjectPK21ChiFeature2IdentifierP11ChiMetadata+0x2d0>
   2cbb0: 81 02 00 54  	b.ne	0x2cc00 <_ZNK22ChiFeature2RealTimeMCX31OnPopulateConfigurationSettingsEP24ChiFeature2RequestObjectPK21ChiFeature2IdentifierP11ChiMetadata+0x260>
   2cbb4: 19 ff ff b0  	adrp	x25, 0xd000 <_ZNK22ChiFeature2RealTimeMCX31OnPopulateConfigurationSettingsEP24ChiFeature2RequestObjectPK21ChiFeature2IdentifierP11ChiMetadata+0x198>
   2cbd0: 41 ff ff f0  	adrp	x1, 0x17000 <_ZNK22ChiFeature2RealTimeMCX31OnPopulateConfigurationSettingsEP24ChiFeature2RequestObjectPK21ChiFeature2IdentifierP11ChiMetadata+0x1dc>
   2cbd4: 42 ff ff 90  	adrp	x2, 0x14000 <_ZNK22ChiFeature2RealTimeMCX31OnPopulateConfigurationSettingsEP24ChiFeature2RequestObjectPK21ChiFeature2IdentifierP11ChiMetadata+0x1d4>
   2cbd8: 45 ff ff b0  	adrp	x5, 0x15000 <_ZNK22ChiFeature2RealTimeMCX31OnPopulateConfigurationSettingsEP24ChiFeature2RequestObjectPK21ChiFeature2IdentifierP11ChiMetadata+0x1dc>
   2cc00: 1b ff ff b0  	adrp	x27, 0xd000 <_ZNK22ChiFeature2RealTimeMCX31OnPopulateConfigurationSettingsEP24ChiFeature2RequestObjectPK21ChiFeature2IdentifierP11ChiMetadata+0x1e4>
   2cc1c: 41 ff ff f0  	adrp	x1, 0x17000 <_ZNK22ChiFeature2RealTimeMCX31OnPopulateConfigurationSettingsEP24ChiFeature2RequestObjectPK21ChiFeature2IdentifierP11ChiMetadata+0x228>
   2cc24: 00 ff ff b0  	adrp	x0, 0xd000 <_ZNK22ChiFeature2RealTimeMCX31OnPopulateConfigurationSettingsEP24ChiFeature2RequestObjectPK21ChiFeature2IdentifierP11ChiMetadata+0x208>
   2cc28: 43 ff ff b0  	adrp	x3, 0x15000 <_ZNK22ChiFeature2RealTimeMCX31OnPopulateConfigurationSettingsEP24ChiFeature2RequestObjectPK21ChiFeature2IdentifierP11ChiMetadata+0x22c>
   2cc2c: 05 ff ff 90  	adrp	x5, 0xc000 <_ZNK22ChiFeature2RealTimeMCX31OnPopulateConfigurationSettingsEP24ChiFeature2RequestObjectPK21ChiFeature2IdentifierP11ChiMetadata+0x20c>
   2cc4c: 65 ab 00 94  	bl	0x579e0 <_ZN6ChiLog9LogSystemEPKcS1_S1_S1_iS1_z@plt>
   2cc58: 62 00 00 36  	tbz	w2, #0, 0x2cc64 <_ZNK22ChiFeature2RealTimeMCX31OnPopulateConfigurationSettingsEP24ChiFeature2RequestObjectPK21ChiFeature2IdentifierP11ChiMetadata+0x2c4>
   2cc68: 60 00 00 b4  	cbz	x0, 0x2cc74 <_ZNK22ChiFeature2RealTimeMCX31OnPopulateConfigurationSettingsEP24ChiFeature2RequestObjectPK21ChiFeature2IdentifierP11ChiMetadata+0x2d4>
   2cc78: 60 00 00 b4  	cbz	x0, 0x2cc84 <_ZNK22ChiFeature2RealTimeMCX31OnPopulateConfigurationSettingsEP24ChiFeature2RequestObjectPK21ChiFeature2IdentifierP11ChiMetadata+0x2e4>
   2cc90: a1 07 00 54  	b.ne	0x2cd84 <_ZNK22ChiFeature2RealTimeMCX31OnPopulateConfigurationSettingsEP24ChiFeature2RequestObjectPK21ChiFeature2IdentifierP11ChiMetadata+0x3e4>
   2ccb8: ac 01 00 90  	adrp	x12, 0x60000 <_ZNK22ChiFeature2RealTimeMCX31OnPopulateConfigurationSettingsEP24ChiFeature2RequestObjectPK21ChiFeature2IdentifierP11ChiMetadata+0x3e8>
   2ccc8: a1 02 00 54  	b.ne	0x2cd1c <_ZNK22ChiFeature2RealTimeMCX31OnPopulateConfigurationSettingsEP24ChiFeature2RequestObjectPK21ChiFeature2IdentifierP11ChiMetadata+0x37c>
   2cccc: 13 ff ff b0  	adrp	x19, 0xd000 <_ZNK22ChiFeature2RealTimeMCX31OnPopulateConfigurationSettingsEP24ChiFeature2RequestObjectPK21ChiFeature2IdentifierP11ChiMetadata+0x2b0>
   2cce8: 41 ff ff f0  	adrp	x1, 0x17000 <_ZNK22ChiFeature2RealTimeMCX31OnPopulateConfigurationSettingsEP24ChiFeature2RequestObjectPK21ChiFeature2IdentifierP11ChiMetadata+0x2f4>
   2ccec: 02 ff ff d0  	adrp	x2, 0xe000 <_ZNK22ChiFeature2RealTimeMCX31OnPopulateConfigurationSettingsEP24ChiFeature2RequestObjectPK21ChiFeature2IdentifierP11ChiMetadata+0x2d4>
   2ccf0: 45 ff ff b0  	adrp	x5, 0x15000 <_ZNK22ChiFeature2RealTimeMCX31OnPopulateConfigurationSettingsEP24ChiFeature2RequestObjectPK21ChiFeature2IdentifierP11ChiMetadata+0x2f4>
   2cd1c: 1c ff ff b0  	adrp	x28, 0xd000 <_ZNK22ChiFeature2RealTimeMCX31OnPopulateConfigurationSettingsEP24ChiFeature2RequestObjectPK21ChiFeature2IdentifierP11ChiMetadata+0x300>
   2cd38: 41 ff ff f0  	adrp	x1, 0x17000 <_ZNK22ChiFeature2RealTimeMCX31OnPopulateConfigurationSettingsEP24ChiFeature2RequestObjectPK21ChiFeature2IdentifierP11ChiMetadata+0x344>
   2cd40: 00 ff ff b0  	adrp	x0, 0xd000 <_ZNK22ChiFeature2RealTimeMCX31OnPopulateConfigurationSettingsEP24ChiFeature2RequestObjectPK21ChiFeature2IdentifierP11ChiMetadata+0x324>
   2cd44: 43 ff ff b0  	adrp	x3, 0x15000 <_ZNK22ChiFeature2RealTimeMCX31OnPopulateConfigurationSettingsEP24ChiFeature2RequestObjectPK21ChiFeature2IdentifierP11ChiMetadata+0x348>
   2cd48: 25 ff ff f0  	adrp	x5, 0x13000 <_ZNK22ChiFeature2RealTimeMCX31OnPopulateConfigurationSettingsEP24ChiFeature2RequestObjectPK21ChiFeature2IdentifierP11ChiMetadata+0x344>
   2cd6c: 1d ab 00 94  	bl	0x579e0 <_ZN6ChiLog9LogSystemEPKcS1_S1_S1_iS1_z@plt>
   2cd80: a0 f8 ff 54  	b.eq	0x2cc94 <_ZNK22ChiFeature2RealTimeMCX31OnPopulateConfigurationSettingsEP24ChiFeature2RequestObjectPK21ChiFeature2IdentifierP11ChiMetadata+0x2f4>
   2cd88: ad 01 00 90  	adrp	x13, 0x60000 <_ZNK22ChiFeature2RealTimeMCX31OnPopulateConfigurationSettingsEP24ChiFeature2RequestObjectPK21ChiFeature2IdentifierP11ChiMetadata+0x4b8>
   2cd94: 60 00 00 37  	tbnz	w0, #0, 0x2cda0 <_ZNK22ChiFeature2RealTimeMCX31OnPopulateConfigurationSettingsEP24ChiFeature2RequestObjectPK21ChiFeature2IdentifierP11ChiMetadata+0x400>
   2cd9c: ae ff ff 17  	b	0x2cc54 <_ZNK22ChiFeature2RealTimeMCX31OnPopulateConfigurationSettingsEP24ChiFeature2RequestObjectPK21ChiFeature2IdentifierP11ChiMetadata+0x2b4>
   2cda0: ae 01 00 90  	adrp	x14, 0x60000 <_ZNK22ChiFeature2RealTimeMCX31OnPopulateConfigurationSettingsEP24ChiFeature2RequestObjectPK21ChiFeature2IdentifierP11ChiMetadata+0x4d0>
   2cda4: 19 ff ff b0  	adrp	x25, 0xd000 <_ZNK22ChiFeature2RealTimeMCX31OnPopulateConfigurationSettingsEP24ChiFeature2RequestObjectPK21ChiFeature2IdentifierP11ChiMetadata+0x388>
   2cdb8: 81 02 00 54  	b.ne	0x2ce08 <_ZNK22ChiFeature2RealTimeMCX31OnPopulateConfigurationSettingsEP24ChiFeature2RequestObjectPK21ChiFeature2IdentifierP11ChiMetadata+0x468>
   2cdd4: 41 ff ff f0  	adrp	x1, 0x17000 <_ZNK22ChiFeature2RealTimeMCX31OnPopulateConfigurationSettingsEP24ChiFeature2RequestObjectPK21ChiFeature2IdentifierP11ChiMetadata+0x3e0>
   2cddc: 42 ff ff 90  	adrp	x2, 0x14000 <_ZNK22ChiFeature2RealTimeMCX31OnPopulateConfigurationSettingsEP24ChiFeature2RequestObjectPK21ChiFeature2IdentifierP11ChiMetadata+0x3dc>
   2cde0: 45 ff ff b0  	adrp	x5, 0x15000 <_ZNK22ChiFeature2RealTimeMCX31OnPopulateConfigurationSettingsEP24ChiFeature2RequestObjectPK21ChiFeature2IdentifierP11ChiMetadata+0x3e4>
   2ce20: 41 ff ff f0  	adrp	x1, 0x17000 <_ZNK22ChiFeature2RealTimeMCX31OnPopulateConfigurationSettingsEP24ChiFeature2RequestObjectPK21ChiFeature2IdentifierP11ChiMetadata+0x42c>
   2ce2c: 00 ff ff b0  	adrp	x0, 0xd000 <_ZNK22ChiFeature2RealTimeMCX31OnPopulateConfigurationSettingsEP24ChiFeature2RequestObjectPK21ChiFeature2IdentifierP11ChiMetadata+0x410>
   2ce30: 43 ff ff b0  	adrp	x3, 0x15000 <_ZNK22ChiFeature2RealTimeMCX31OnPopulateConfigurationSettingsEP24ChiFeature2RequestObjectPK21ChiFeature2IdentifierP11ChiMetadata+0x434>
   2ce34: 45 ff ff 90  	adrp	x5, 0x14000 <_ZNK22ChiFeature2RealTimeMCX31OnPopulateConfigurationSettingsEP24ChiFeature2RequestObjectPK21ChiFeature2IdentifierP11ChiMetadata+0x434>
   2ce54: e3 aa 00 94  	bl	0x579e0 <_ZN6ChiLog9LogSystemEPKcS1_S1_S1_iS1_z@plt>
   2ce5c: 7e ff ff 17  	b	0x2cc54 <_ZNK22ChiFeature2RealTimeMCX31OnPopulateConfigurationSettingsEP24ChiFeature2RequestObjectPK21ChiFeature2IdentifierP11ChiMetadata+0x2b4>
   2ce68: 01 10 00 54  	b.ne	0x2d068 <_ZNK22ChiFeature2RealTimeMCX31OnPopulateConfigurationSettingsEP24ChiFeature2RequestObjectPK21ChiFeature2IdentifierP11ChiMetadata+0x6c8>
   2ce78: 88 0f 00 b4  	cbz	x8, 0x2d068 <_ZNK22ChiFeature2RealTimeMCX31OnPopulateConfigurationSettingsEP24ChiFeature2RequestObjectPK21ChiFeature2IdentifierP11ChiMetadata+0x6c8>
   2ce88: 01 0f 00 54  	b.ne	0x2d068 <_ZNK22ChiFeature2RealTimeMCX31OnPopulateConfigurationSettingsEP24ChiFeature2RequestObjectPK21ChiFeature2IdentifierP11ChiMetadata+0x6c8>
   2cea4: 21 0e 00 54  	b.ne	0x2d068 <_ZNK22ChiFeature2RealTimeMCX31OnPopulateConfigurationSettingsEP24ChiFeature2RequestObjectPK21ChiFeature2IdentifierP11ChiMetadata+0x6c8>
   2ceb4: a1 0d 00 54  	b.ne	0x2d068 <_ZNK22ChiFeature2RealTimeMCX31OnPopulateConfigurationSettingsEP24ChiFeature2RequestObjectPK21ChiFeature2IdentifierP11ChiMetadata+0x6c8>
   2cec4: 21 0d 00 54  	b.ne	0x2d068 <_ZNK22ChiFeature2RealTimeMCX31OnPopulateConfigurationSettingsEP24ChiFeature2RequestObjectPK21ChiFeature2IdentifierP11ChiMetadata+0x6c8>
   2ced4: a1 0c 00 54  	b.ne	0x2d068 <_ZNK22ChiFeature2RealTimeMCX31OnPopulateConfigurationSettingsEP24ChiFeature2RequestObjectPK21ChiFeature2IdentifierP11ChiMetadata+0x6c8>
   2cee8: 01 0c 00 54  	b.ne	0x2d068 <_ZNK22ChiFeature2RealTimeMCX31OnPopulateConfigurationSettingsEP24ChiFeature2RequestObjectPK21ChiFeature2IdentifierP11ChiMetadata+0x6c8>
   2cf1c: d5 ab 00 94  	bl	0x57e70 <_ZN8ChxUtils25FillDefaultTuningMetadataEP11ChiMetadata25ChiModeUsecaseSubModeTypej@plt>
   2cf20: a8 01 00 90  	adrp	x8, 0x60000 <_ZNK22ChiFeature2RealTimeMCX31OnPopulateConfigurationSettingsEP24ChiFeature2RequestObjectPK21ChiFeature2IdentifierP11ChiMetadata+0x650>
   2cf2c: e8 09 18 36  	tbz	w8, #3, 0x2d068 <_ZNK22ChiFeature2RealTimeMCX31OnPopulateConfigurationSettingsEP24ChiFeature2RequestObjectPK21ChiFeature2IdentifierP11ChiMetadata+0x6c8>
   2cf30: aa 01 00 90  	adrp	x10, 0x60000 <_ZNK22ChiFeature2RealTimeMCX31OnPopulateConfigurationSettingsEP24ChiFeature2RequestObjectPK21ChiFeature2IdentifierP11ChiMetadata+0x660>
   2cf40: a1 04 00 54  	b.ne	0x2cfd4 <_ZNK22ChiFeature2RealTimeMCX31OnPopulateConfigurationSettingsEP24ChiFeature2RequestObjectPK21ChiFeature2IdentifierP11ChiMetadata+0x634>
   2cf44: 1b ff ff b0  	adrp	x27, 0xd000 <_ZNK22ChiFeature2RealTimeMCX31OnPopulateConfigurationSettingsEP24ChiFeature2RequestObjectPK21ChiFeature2IdentifierP11ChiMetadata+0x528>
   2cf70: 45 ff ff b0  	adrp	x5, 0x15000 <_ZNK22ChiFeature2RealTimeMCX31OnPopulateConfigurationSettingsEP24ChiFeature2RequestObjectPK21ChiFeature2IdentifierP11ChiMetadata+0x574>
   2cfa8: 22 ff ff f0  	adrp	x2, 0x13000 <_ZNK22ChiFeature2RealTimeMCX31OnPopulateConfigurationSettingsEP24ChiFeature2RequestObjectPK21ChiFeature2IdentifierP11ChiMetadata+0x5a4>
   2cfb0: 41 ff ff f0  	adrp	x1, 0x17000 <_ZNK22ChiFeature2RealTimeMCX31OnPopulateConfigurationSettingsEP24ChiFeature2RequestObjectPK21ChiFeature2IdentifierP11ChiMetadata+0x5bc>
   2cfd4: 1c ff ff b0  	adrp	x28, 0xd000 <_ZNK22ChiFeature2RealTimeMCX31OnPopulateConfigurationSettingsEP24ChiFeature2RequestObjectPK21ChiFeature2IdentifierP11ChiMetadata+0x5b8>
   2d008: 40 ff ff f0  	adrp	x0, 0x18000 <_ZNK22ChiFeature2RealTimeMCX31OnPopulateConfigurationSettingsEP24ChiFeature2RequestObjectPK21ChiFeature2IdentifierP11ChiMetadata+0x614>
   2d018: 21 ff ff b0  	adrp	x1, 0x12000 <_ZNK22ChiFeature2RealTimeMCX31OnPopulateConfigurationSettingsEP24ChiFeature2RequestObjectPK21ChiFeature2IdentifierP11ChiMetadata+0x60c>
   2d01c: 43 ff ff 90  	adrp	x3, 0x15000 <_ZNK22ChiFeature2RealTimeMCX31OnPopulateConfigurationSettingsEP24ChiFeature2RequestObjectPK21ChiFeature2IdentifierP11ChiMetadata+0x61c>
   2d044: 45 ff ff 90  	adrp	x5, 0x15000 <_ZNK22ChiFeature2RealTimeMCX31OnPopulateConfigurationSettingsEP24ChiFeature2RequestObjectPK21ChiFeature2IdentifierP11ChiMetadata+0x644>
   2d064: 5f aa 00 94  	bl	0x579e0 <_ZN6ChiLog9LogSystemEPKcS1_S1_S1_iS1_z@plt>
   2d078: f3 de ff 35  	cbnz	w19, 0x2cc54 <_ZNK22ChiFeature2RealTimeMCX31OnPopulateConfigurationSettingsEP24ChiFeature2RequestObjectPK21ChiFeature2IdentifierP11ChiMetadata+0x2b4>
   2d084: 93 aa 00 94  	bl	0x57ad0 <_ZNK15ChiFeature2Base21GetFeaturePrivContextEP24ChiFeature2RequestObject@plt>
   2d088: 60 51 00 b4  	cbz	x0, 0x2dab4 <_ZNK22ChiFeature2RealTimeMCX31OnPopulateConfigurationSettingsEP24ChiFeature2RequestObjectPK21ChiFeature2IdentifierP11ChiMetadata+0x1114>
   2d094: 01 51 00 54  	b.ne	0x2dab4 <_ZNK22ChiFeature2RealTimeMCX31OnPopulateConfigurationSettingsEP24ChiFeature2RequestObjectPK21ChiFeature2IdentifierP11ChiMetadata+0x1114>
   2d098: 9c 01 00 f0  	adrp	x28, 0x60000 <_ZNK22ChiFeature2RealTimeMCX31OnPopulateConfigurationSettingsEP24ChiFeature2RequestObjectPK21ChiFeature2IdentifierP11ChiMetadata+0x7c4>
   2d0a4: b3 05 28 36  	tbz	w19, #5, 0x2d158 <_ZNK22ChiFeature2RealTimeMCX31OnPopulateConfigurationSettingsEP24ChiFeature2RequestObjectPK21ChiFeature2IdentifierP11ChiMetadata+0x7b8>
   2d0a8: 9c 01 00 f0  	adrp	x28, 0x60000 <_ZNK22ChiFeature2RealTimeMCX31OnPopulateConfigurationSettingsEP24ChiFeature2RequestObjectPK21ChiFeature2IdentifierP11ChiMetadata+0x7d4>
   2d0b8: 81 02 00 54  	b.ne	0x2d108 <_ZNK22ChiFeature2RealTimeMCX31OnPopulateConfigurationSettingsEP24ChiFeature2RequestObjectPK21ChiFeature2IdentifierP11ChiMetadata+0x768>
   2d0bc: 13 ff ff 90  	adrp	x19, 0xd000 <_ZNK22ChiFeature2RealTimeMCX31OnPopulateConfigurationSettingsEP24ChiFeature2RequestObjectPK21ChiFeature2IdentifierP11ChiMetadata+0x69c>
   2d0dc: 41 ff ff d0  	adrp	x1, 0x17000 <_ZNK22ChiFeature2RealTimeMCX31OnPopulateConfigurationSettingsEP24ChiFeature2RequestObjectPK21ChiFeature2IdentifierP11ChiMetadata+0x6e4>
   2d0e0: 22 ff ff 90  	adrp	x2, 0x11000 <_ZNK22ChiFeature2RealTimeMCX31OnPopulateConfigurationSettingsEP24ChiFeature2RequestObjectPK21ChiFeature2IdentifierP11ChiMetadata+0x6d0>
   2d0e4: 25 ff ff d0  	adrp	x5, 0x13000 <_ZNK22ChiFeature2RealTimeMCX31OnPopulateConfigurationSettingsEP24ChiFeature2RequestObjectPK21ChiFeature2IdentifierP11ChiMetadata+0x6dc>
   2d108: 1b ff ff 90  	adrp	x27, 0xd000 <_ZNK22ChiFeature2RealTimeMCX31OnPopulateConfigurationSettingsEP24ChiFeature2RequestObjectPK21ChiFeature2IdentifierP11ChiMetadata+0x6e8>
   2d12c: 40 ff ff d0  	adrp	x0, 0x17000 <_ZNK22ChiFeature2RealTimeMCX31OnPopulateConfigurationSettingsEP24ChiFeature2RequestObjectPK21ChiFeature2IdentifierP11ChiMetadata+0x734>
   2d130: 21 ff ff d0  	adrp	x1, 0x13000 <_ZNK22ChiFeature2RealTimeMCX31OnPopulateConfigurationSettingsEP24ChiFeature2RequestObjectPK21ChiFeature2IdentifierP11ChiMetadata+0x728>
   2d134: 23 ff ff d0  	adrp	x3, 0x13000 <_ZNK22ChiFeature2RealTimeMCX31OnPopulateConfigurationSettingsEP24ChiFeature2RequestObjectPK21ChiFeature2IdentifierP11ChiMetadata+0x72c>
   2d138: 25 ff ff 90  	adrp	x5, 0x11000 <_ZNK22ChiFeature2RealTimeMCX31OnPopulateConfigurationSettingsEP24ChiFeature2RequestObjectPK21ChiFeature2IdentifierP11ChiMetadata+0x728>
   2d154: 23 aa 00 94  	bl	0x579e0 <_ZN6ChiLog9LogSystemEPKcS1_S1_S1_iS1_z@plt>
   2d16c: 45 ab 00 94  	bl	0x57e80 <_ZNK15ChiFeature2Base19GetCurrentStageInfoEP24ChiFeature2RequestObjectP20ChiFeature2StageInfo@plt>
   2d174: e0 37 00 35  	cbnz	w0, 0x2d870 <_ZNK22ChiFeature2RealTimeMCX31OnPopulateConfigurationSettingsEP24ChiFeature2RequestObjectPK21ChiFeature2IdentifierP11ChiMetadata+0xed0>
   2d190: 49 28 00 54  	b.ls	0x2d698 <_ZNK22ChiFeature2RealTimeMCX31OnPopulateConfigurationSettingsEP24ChiFeature2RequestObjectPK21ChiFeature2IdentifierP11ChiMetadata+0xcf8>
   2d198: bc 36 00 b4  	cbz	x28, 0x2d86c <_ZNK22ChiFeature2RealTimeMCX31OnPopulateConfigurationSettingsEP24ChiFeature2RequestObjectPK21ChiFeature2IdentifierP11ChiMetadata+0xecc>
   2d1c4: ab 01 00 14  	b	0x2d870 <_ZNK22ChiFeature2RealTimeMCX31OnPopulateConfigurationSettingsEP24ChiFeature2RequestObjectPK21ChiFeature2IdentifierP11ChiMetadata+0xed0>
   2d210: 18 ab 00 94  	bl	0x57e70 <_ZN8ChxUtils25FillDefaultTuningMetadataEP11ChiMetadata25ChiModeUsecaseSubModeTypej@plt>
   2d224: e2 1e 00 54  	b.hs	0x2d600 <_ZNK22ChiFeature2RealTimeMCX31OnPopulateConfigurationSettingsEP24ChiFeature2RequestObjectPK21ChiFeature2IdentifierP11ChiMetadata+0xc60>
   2d238: 62 1e 00 54  	b.hs	0x2d604 <_ZNK22ChiFeature2RealTimeMCX31OnPopulateConfigurationSettingsEP24ChiFeature2RequestObjectPK21ChiFeature2IdentifierP11ChiMetadata+0xc64>
   2d248: e1 1d 00 54  	b.ne	0x2d604 <_ZNK22ChiFeature2RealTimeMCX31OnPopulateConfigurationSettingsEP24ChiFeature2RequestObjectPK21ChiFeature2IdentifierP11ChiMetadata+0xc64>
   2d264: 02 0d 00 35  	cbnz	w2, 0x2d404 <_ZNK22ChiFeature2RealTimeMCX31OnPopulateConfigurationSettingsEP24ChiFeature2RequestObjectPK21ChiFeature2IdentifierP11ChiMetadata+0xa64>
   2d2a0: 60 01 00 34  	cbz	w0, 0x2d2cc <_ZNK22ChiFeature2RealTimeMCX31OnPopulateConfigurationSettingsEP24ChiFeature2RequestObjectPK21ChiFeature2IdentifierP11ChiMetadata+0x92c>
   2d2cc: 94 01 00 f0  	adrp	x20, 0x60000 <_ZNK22ChiFeature2RealTimeMCX31OnPopulateConfigurationSettingsEP24ChiFeature2RequestObjectPK21ChiFeature2IdentifierP11ChiMetadata+0x9f8>
   2d2d8: 49 09 18 36  	tbz	w9, #3, 0x2d400 <_ZNK22ChiFeature2RealTimeMCX31OnPopulateConfigurationSettingsEP24ChiFeature2RequestObjectPK21ChiFeature2IdentifierP11ChiMetadata+0xa60>
   2d2dc: 88 01 00 f0  	adrp	x8, 0x60000 <_ZNK22ChiFeature2RealTimeMCX31OnPopulateConfigurationSettingsEP24ChiFeature2RequestObjectPK21ChiFeature2IdentifierP11ChiMetadata+0xa08>
   2d2f0: 41 04 00 54  	b.ne	0x2d378 <_ZNK22ChiFeature2RealTimeMCX31OnPopulateConfigurationSettingsEP24ChiFeature2RequestObjectPK21ChiFeature2IdentifierP11ChiMetadata+0x9d8>
   2d2f4: 1c ff ff 90  	adrp	x28, 0xd000 <_ZNK22ChiFeature2RealTimeMCX31OnPopulateConfigurationSettingsEP24ChiFeature2RequestObjectPK21ChiFeature2IdentifierP11ChiMetadata+0x8d4>
   2d318: 41 ff ff d0  	adrp	x1, 0x17000 <_ZNK22ChiFeature2RealTimeMCX31OnPopulateConfigurationSettingsEP24ChiFeature2RequestObjectPK21ChiFeature2IdentifierP11ChiMetadata+0x920>
   2d320: 42 ff ff b0  	adrp	x2, 0x16000 <_ZNK22ChiFeature2RealTimeMCX31OnPopulateConfigurationSettingsEP24ChiFeature2RequestObjectPK21ChiFeature2IdentifierP11ChiMetadata+0x924>
   2d328: 45 ff ff 90  	adrp	x5, 0x15000 <_ZNK22ChiFeature2RealTimeMCX31OnPopulateConfigurationSettingsEP24ChiFeature2RequestObjectPK21ChiFeature2IdentifierP11ChiMetadata+0x928>
   2d378: 1c ff ff 90  	adrp	x28, 0xd000 <_ZNK22ChiFeature2RealTimeMCX31OnPopulateConfigurationSettingsEP24ChiFeature2RequestObjectPK21ChiFeature2IdentifierP11ChiMetadata+0x958>
   2d3a4: 40 ff ff f0  	adrp	x0, 0x18000 <_ZNK22ChiFeature2RealTimeMCX31OnPopulateConfigurationSettingsEP24ChiFeature2RequestObjectPK21ChiFeature2IdentifierP11ChiMetadata+0x9b0>
   2d3ac: 21 ff ff b0  	adrp	x1, 0x12000 <_ZNK22ChiFeature2RealTimeMCX31OnPopulateConfigurationSettingsEP24ChiFeature2RequestObjectPK21ChiFeature2IdentifierP11ChiMetadata+0x9a0>
   2d3cc: 43 ff ff 90  	adrp	x3, 0x15000 <_ZNK22ChiFeature2RealTimeMCX31OnPopulateConfigurationSettingsEP24ChiFeature2RequestObjectPK21ChiFeature2IdentifierP11ChiMetadata+0x9cc>
   2d3d4: 25 ff ff d0  	adrp	x5, 0x13000 <_ZNK22ChiFeature2RealTimeMCX31OnPopulateConfigurationSettingsEP24ChiFeature2RequestObjectPK21ChiFeature2IdentifierP11ChiMetadata+0x9cc>
   2d3fc: 79 a9 00 94  	bl	0x579e0 <_ZN6ChiLog9LogSystemEPKcS1_S1_S1_iS1_z@plt>
   2d410: 41 08 00 54  	b.ne	0x2d518 <_ZNK22ChiFeature2RealTimeMCX31OnPopulateConfigurationSettingsEP24ChiFeature2RequestObjectPK21ChiFeature2IdentifierP11ChiMetadata+0xb78>
   2d418: 1c 08 00 35  	cbnz	w28, 0x2d518 <_ZNK22ChiFeature2RealTimeMCX31OnPopulateConfigurationSettingsEP24ChiFeature2RequestObjectPK21ChiFeature2IdentifierP11ChiMetadata+0xb78>
   2d434: 97 aa 00 94  	bl	0x57e90 <_ZNK15ChiFeature2Base18UpdateLastZSLFrameEP24ChiFeature2RequestObjectj@plt>
   2d448: 8b 01 00 f0  	adrp	x11, 0x60000 <_ZNK22ChiFeature2RealTimeMCX31OnPopulateConfigurationSettingsEP24ChiFeature2RequestObjectPK21ChiFeature2IdentifierP11ChiMetadata+0xb74>
   2d458: 00 06 18 36  	tbz	w0, #3, 0x2d518 <_ZNK22ChiFeature2RealTimeMCX31OnPopulateConfigurationSettingsEP24ChiFeature2RequestObjectPK21ChiFeature2IdentifierP11ChiMetadata+0xb78>
   2d45c: 9c 01 00 f0  	adrp	x28, 0x60000 <_ZNK22ChiFeature2RealTimeMCX31OnPopulateConfigurationSettingsEP24ChiFeature2RequestObjectPK21ChiFeature2IdentifierP11ChiMetadata+0xb88>
   2d46c: a1 02 00 54  	b.ne	0x2d4c0 <_ZNK22ChiFeature2RealTimeMCX31OnPopulateConfigurationSettingsEP24ChiFeature2RequestObjectPK21ChiFeature2IdentifierP11ChiMetadata+0xb20>
   2d470: 1c ff ff 90  	adrp	x28, 0xd000 <_ZNK22ChiFeature2RealTimeMCX31OnPopulateConfigurationSettingsEP24ChiFeature2RequestObjectPK21ChiFeature2IdentifierP11ChiMetadata+0xa50>
   2d490: 42 ff ff f0  	adrp	x2, 0x18000 <_ZNK22ChiFeature2RealTimeMCX31OnPopulateConfigurationSettingsEP24ChiFeature2RequestObjectPK21ChiFeature2IdentifierP11ChiMetadata+0xa9c>
   2d494: 45 ff ff 90  	adrp	x5, 0x15000 <_ZNK22ChiFeature2RealTimeMCX31OnPopulateConfigurationSettingsEP24ChiFeature2RequestObjectPK21ChiFeature2IdentifierP11ChiMetadata+0xa94>
   2d4b4: 41 ff ff d0  	adrp	x1, 0x17000 <_ZNK22ChiFeature2RealTimeMCX31OnPopulateConfigurationSettingsEP24ChiFeature2RequestObjectPK21ChiFeature2IdentifierP11ChiMetadata+0xabc>
   2d4c0: 1c ff ff 90  	adrp	x28, 0xd000 <_ZNK22ChiFeature2RealTimeMCX31OnPopulateConfigurationSettingsEP24ChiFeature2RequestObjectPK21ChiFeature2IdentifierP11ChiMetadata+0xaa0>
   2d4e4: 40 ff ff f0  	adrp	x0, 0x18000 <_ZNK22ChiFeature2RealTimeMCX31OnPopulateConfigurationSettingsEP24ChiFeature2RequestObjectPK21ChiFeature2IdentifierP11ChiMetadata+0xaf0>
   2d4e8: 21 ff ff b0  	adrp	x1, 0x12000 <_ZNK22ChiFeature2RealTimeMCX31OnPopulateConfigurationSettingsEP24ChiFeature2RequestObjectPK21ChiFeature2IdentifierP11ChiMetadata+0xadc>
   2d4ec: 43 ff ff 90  	adrp	x3, 0x15000 <_ZNK22ChiFeature2RealTimeMCX31OnPopulateConfigurationSettingsEP24ChiFeature2RequestObjectPK21ChiFeature2IdentifierP11ChiMetadata+0xaec>
   2d4f0: 45 ff ff 90  	adrp	x5, 0x15000 <_ZNK22ChiFeature2RealTimeMCX31OnPopulateConfigurationSettingsEP24ChiFeature2RequestObjectPK21ChiFeature2IdentifierP11ChiMetadata+0xaf0>
   2d510: 34 a9 00 94  	bl	0x579e0 <_ZN6ChiLog9LogSystemEPKcS1_S1_S1_iS1_z@plt>
   2d524: b4 00 00 b4  	cbz	x20, 0x2d538 <_ZNK22ChiFeature2RealTimeMCX31OnPopulateConfigurationSettingsEP24ChiFeature2RequestObjectPK21ChiFeature2IdentifierP11ChiMetadata+0xb98>
   2d534: 22 11 00 54  	b.hs	0x2d758 <_ZNK22ChiFeature2RealTimeMCX31OnPopulateConfigurationSettingsEP24ChiFeature2RequestObjectPK21ChiFeature2IdentifierP11ChiMetadata+0xdb8>
   2d538: 82 01 00 f0  	adrp	x2, 0x60000 <_ZNK22ChiFeature2RealTimeMCX31OnPopulateConfigurationSettingsEP24ChiFeature2RequestObjectPK21ChiFeature2IdentifierP11ChiMetadata+0xc64>
