	ldr	d4, 0x2b454 <_ZN24ChiFeature2MCReprocessRT22UpdateStreamCropEnableEP11ChiMetadataPK24ChiFeature2InstanceProps+0x18c>
0x2861c <_ZNK24ChiFeature2MCReprocessRT31OnPopulateConfigurationSettingsEP24ChiFeature2RequestObjectPK21ChiFeature2IdentifierP11ChiMetadata+0x7f4>
0x386a4 <_ZN9Semaphore7DestroyEv+0x79cc>
0x2864c <_ZNK24ChiFeature2MCReprocessRT31OnPopulateConfigurationSettingsEP24ChiFeature2RequestObjectPK21ChiFeature2IdentifierP11ChiMetadata+0x824>
0x28704 <_ZNK24ChiFeature2MCReprocessRT31OnPopulateConfigurationSettingsEP24ChiFeature2RequestObjectPK21ChiFeature2IdentifierP11ChiMetadata+0x8dc>
0x3878c <_ZN11ChiMetadata10InitializeEPKjji+0xac>
0x287ac <_ZNK24ChiFeature2MCReprocessRT31OnPopulateConfigurationSettingsEP24ChiFeature2RequestObjectPK21ChiFeature2IdentifierP11ChiMetadata+0x984>
0x38834 <_ZN11ChiMetadata10InitializeEPKjji+0x154>
0x287dc <_ZNK24ChiFeature2MCReprocessRT31OnPopulateConfigurationSettingsEP24ChiFeature2RequestObjectPK21ChiFeature2IdentifierP11ChiMetadata+0x9b4>
0x2886c <_ZNK24ChiFeature2MCReprocessRT31OnPopulateConfigurationSettingsEP24ChiFeature2RequestObjectPK21ChiFeature2IdentifierP11ChiMetadata+0xa44>
0x388f4 <_ZN11ChiMetadata10InitializeEPKjji+0x214>
0x2889c <_ZNK24ChiFeature2MCReprocessRT31OnPopulateConfigurationSettingsEP24ChiFeature2RequestObjectPK21ChiFeature2IdentifierP11ChiMetadata+0xa74>
0x38924 <_ZN11ChiMetadata10InitializeEPKjji+0x244>
0x288cc <_ZNK24ChiFeature2MCReprocessRT31OnPopulateConfigurationSettingsEP24ChiFeature2RequestObjectPK21ChiFeature2IdentifierP11ChiMetadata+0xaa4>
0x38954 <_ZN11ChiMetadata10InitializeEPKjji+0x274>
0x288fc <_ZNK24ChiFeature2MCReprocessRT31OnPopulateConfigurationSettingsEP24ChiFeature2RequestObjectPK21ChiFeature2IdentifierP11ChiMetadata+0xad4>
0x38984 <_ZN11ChiMetadata10InitializeEPKjji+0x2a4>
0x2892c <_ZNK24ChiFeature2MCReprocessRT31OnPopulateConfigurationSettingsEP24ChiFeature2RequestObjectPK21ChiFeature2IdentifierP11ChiMetadata+0xb04>
0x389b4 <_ZN11ChiMetadata10InitializeEPKjji+0x2d4>
0x2897c <_ZNK24ChiFeature2MCReprocessRT31OnPopulateConfigurationSettingsEP24ChiFeature2RequestObjectPK21ChiFeature2IdentifierP11ChiMetadata+0xb54>
0x38a04 <_ZN11ChiMetadata10InitializeEPKjji+0x324>
0x289ac <_ZNK24ChiFeature2MCReprocessRT31OnPopulateConfigurationSettingsEP24ChiFeature2RequestObjectPK21ChiFeature2IdentifierP11ChiMetadata+0xb84>
0x38a34 <_ZN11ChiMetadata10InitializeEPKjji+0x354>
0x289f4 <_ZNK24ChiFeature2MCReprocessRT31OnPopulateConfigurationSettingsEP24ChiFeature2RequestObjectPK21ChiFeature2IdentifierP11ChiMetadata+0xbcc>
0x38a7c <_ZN11ChiMetadata10InitializeEPKjji+0x39c>
0x28a24 <_ZNK24ChiFeature2MCReprocessRT31OnPopulateConfigurationSettingsEP24ChiFeature2RequestObjectPK21ChiFeature2IdentifierP11ChiMetadata+0xbfc>
0x38aac <_ZN11ChiMetadata10InitializeEPKjji+0x3cc>
0x28aac <_ZNK24ChiFeature2MCReprocessRT31OnPopulateConfigurationSettingsEP24ChiFeature2RequestObjectPK21ChiFeature2IdentifierP11ChiMetadata+0xc84>
0x28adc <_ZNK24ChiFeature2MCReprocessRT31OnPopulateConfigurationSettingsEP24ChiFeature2RequestObjectPK21ChiFeature2IdentifierP11ChiMetadata+0xcb4>
0x38b64 <_ZN11ChiMetadata10InitializeEPKjji+0x484>
0x28b0c <_ZNK24ChiFeature2MCReprocessRT31OnPopulateConfigurationSettingsEP24ChiFeature2RequestObjectPK21ChiFeature2IdentifierP11ChiMetadata+0xce4>
0x38b94 <_ZN11ChiMetadata10InitializeEPKjji+0x4b4>
0x28ba4 <_ZNK24ChiFeature2MCReprocessRT31OnPopulateConfigurationSettingsEP24ChiFeature2RequestObjectPK21ChiFeature2IdentifierP11ChiMetadata+0xd7c>
0x38c2c <_ZN11ChiMetadata10InitializeEPKjji+0x54c>
0x28bec <_ZNK24ChiFeature2MCReprocessRT31OnPopulateConfigurationSettingsEP24ChiFeature2RequestObjectPK21ChiFeature2IdentifierP11ChiMetadata+0xdc4>
0x38c74 <_ZN11ChiMetadata19ParseAndSetMetadataERNSt3__16vectorIhNS0_9allocatorIhEEEE+0x34>
0x28c1c <_ZNK24ChiFeature2MCReprocessRT31OnPopulateConfigurationSettingsEP24ChiFeature2RequestObjectPK21ChiFeature2IdentifierP11ChiMetadata+0xdf4>
0x38ca4 <_ZN11ChiMetadata19ParseAndSetMetadataERNSt3__16vectorIhNS0_9allocatorIhEEEE+0x64>
0x28c4c <_ZNK24ChiFeature2MCReprocessRT31OnPopulateConfigurationSettingsEP24ChiFeature2RequestObjectPK21ChiFeature2IdentifierP11ChiMetadata+0xe24>
0x28c74 <_ZNK24ChiFeature2MCReprocessRT31OnPopulateConfigurationSettingsEP24ChiFeature2RequestObjectPK21ChiFeature2IdentifierP11ChiMetadata+0xe4c>
0x38cfc <_ZN11ChiMetadata19ParseAndSetMetadataERNSt3__16vectorIhNS0_9allocatorIhEEEE+0xbc>
0x28ca4 <_ZNK24ChiFeature2MCReprocessRT31OnPopulateConfigurationSettingsEP24ChiFeature2RequestObjectPK21ChiFeature2IdentifierP11ChiMetadata+0xe7c>
0x38d2c <_ZN11ChiMetadata19ParseAndSetMetadataERNSt3__16vectorIhNS0_9allocatorIhEEEE+0xec>
0x28d4c <_ZNK24ChiFeature2MCReprocessRT31OnPopulateConfigurationSettingsEP24ChiFeature2RequestObjectPK21ChiFeature2IdentifierP11ChiMetadata+0xf24>
0x28df4 <_ZNK24ChiFeature2MCReprocessRT31OnPopulateConfigurationSettingsEP24ChiFeature2RequestObjectPK21ChiFeature2IdentifierP11ChiMetadata+0xfcc>
0x38e7c <_ZN11ChiMetadata19ParseAndSetMetadataERNSt3__16vectorIhNS0_9allocatorIhEEEE+0x23c>
0x28e8c <_ZNK24ChiFeature2MCReprocessRT31OnPopulateConfigurationSettingsEP24ChiFeature2RequestObjectPK21ChiFeature2IdentifierP11ChiMetadata+0x1064>
0x38f14 <_ZN11ChiMetadata19ParseAndSetMetadataERNSt3__16vectorIhNS0_9allocatorIhEEEE+0x2d4>
0x28fc4 <_ZNK24ChiFeature2MCReprocessRT31OnPopulateConfigurationSettingsEP24ChiFeature2RequestObjectPK21ChiFeature2IdentifierP11ChiMetadata+0x119c>
0x2923c <_ZNK24ChiFeature2MCReprocessRT31OnPopulateConfigurationSettingsEP24ChiFeature2RequestObjectPK21ChiFeature2IdentifierP11ChiMetadata+0x1414>
0x392c4 <_ZN11ChiMetadata6SetTagEjPKvjj+0x22c>
0x2965c <_ZNK24ChiFeature2MCReprocessRT31OnPopulateConfigurationSettingsEP24ChiFeature2RequestObjectPK21ChiFeature2IdentifierP11ChiMetadata+0x1834>
0x396e4 <_ZN11ChiMetadata6GetTagEjj+0x34>
0x296a4 <_ZNK24ChiFeature2MCReprocessRT31OnPopulateConfigurationSettingsEP24ChiFeature2RequestObjectPK21ChiFeature2IdentifierP11ChiMetadata+0x187c>
0x2979c <_ZNK24ChiFeature2MCReprocessRT31OnPopulateConfigurationSettingsEP24ChiFeature2RequestObjectPK21ChiFeature2IdentifierP11ChiMetadata+0x1974>
0x29a5c <_ZNK24ChiFeature2MCReprocessRT31OnPopulateConfigurationSettingsEP24ChiFeature2RequestObjectPK21ChiFeature2IdentifierP11ChiMetadata+0x1c34>
0x29a8c <_ZNK24ChiFeature2MCReprocessRT31OnPopulateConfigurationSettingsEP24ChiFeature2RequestObjectPK21ChiFeature2IdentifierP11ChiMetadata+0x1c64>
0x29b64 <_ZNK24ChiFeature2MCReprocessRT29RemoveInvalidImageBufferPortsEPK24ChiFeature2RequestObjectP21ChiFeature2PortIdListRNSt3__16vectorI21ChiFeature2IdentifierNS5_9allocatorIS7_EEEE+0xd4>
0x29c04 <_ZNK24ChiFeature2MCReprocessRT29RemoveInvalidImageBufferPortsEPK24ChiFeature2RequestObjectP21ChiFeature2PortIdListRNSt3__16vectorI21ChiFeature2IdentifierNS5_9allocatorIS7_EEEE+0x174>
0x29cc4 <_ZNK24ChiFeature2MCReprocessRT29RemoveInvalidImageBufferPortsEPK24ChiFeature2RequestObjectP21ChiFeature2PortIdListRNSt3__16vectorI21ChiFeature2IdentifierNS5_9allocatorIS7_EEEE+0x234>
0x29d94 <_ZNK24ChiFeature2MCReprocessRT29RemoveInvalidImageBufferPortsEPK24ChiFeature2RequestObjectP21ChiFeature2PortIdListRNSt3__16vectorI21ChiFeature2IdentifierNS5_9allocatorIS7_EEEE+0x304>
0x29e0c <_ZNK24ChiFeature2MCReprocessRT29RemoveInvalidImageBufferPortsEPK24ChiFeature2RequestObjectP21ChiFeature2PortIdListRNSt3__16vectorI21ChiFeature2IdentifierNS5_9allocatorIS7_EEEE+0x37c>
0x29e34 <_ZNK24ChiFeature2MCReprocessRT29RemoveInvalidImageBufferPortsEPK24ChiFeature2RequestObjectP21ChiFeature2PortIdListRNSt3__16vectorI21ChiFeature2IdentifierNS5_9allocatorIS7_EEEE+0x3a4>
0x29e84 <_ZNK24ChiFeature2MCReprocessRT29RemoveInvalidImageBufferPortsEPK24ChiFeature2RequestObjectP21ChiFeature2PortIdListRNSt3__16vectorI21ChiFeature2IdentifierNS5_9allocatorIS7_EEEE+0x3f4>
0x29f1c <_ZNK24ChiFeature2MCReprocessRT29RemoveInvalidImageBufferPortsEPK24ChiFeature2RequestObjectP21ChiFeature2PortIdListRNSt3__16vectorI21ChiFeature2IdentifierNS5_9allocatorIS7_EEEE+0x48c>
0x29f8c <_ZNK24ChiFeature2MCReprocessRT29RemoveInvalidImageBufferPortsEPK24ChiFeature2RequestObjectP21ChiFeature2PortIdListRNSt3__16vectorI21ChiFeature2IdentifierNS5_9allocatorIS7_EEEE+0x4fc>
0x2a054 <_ZNK24ChiFeature2MCReprocessRT29RemoveInvalidImageBufferPortsEPK24ChiFeature2RequestObjectP21ChiFeature2PortIdListRNSt3__16vectorI21ChiFeature2IdentifierNS5_9allocatorIS7_EEEE+0x5c4>
0x3a0dc <_ZN11ChiMetadata17DumpDetailsToFileEPKc+0xc>
0x2a154 <_ZNK24ChiFeature2MCReprocessRT29RemoveInvalidImageBufferPortsEPK24ChiFeature2RequestObjectP21ChiFeature2PortIdListRNSt3__16vectorI21ChiFeature2IdentifierNS5_9allocatorIS7_EEEE+0x6c4>
0x2a1c4 <_ZNK24ChiFeature2MCReprocessRT29RemoveInvalidImageBufferPortsEPK24ChiFeature2RequestObjectP21ChiFeature2PortIdListRNSt3__16vectorI21ChiFeature2IdentifierNS5_9allocatorIS7_EEEE+0x734>
0x2a274 <_ZNK24ChiFeature2MCReprocessRT29RemoveInvalidImageBufferPortsEPK24ChiFeature2RequestObjectP21ChiFeature2PortIdListRNSt3__16vectorI21ChiFeature2IdentifierNS5_9allocatorIS7_EEEE+0x7e4>
0x2a2e4 <_ZNK24ChiFeature2MCReprocessRT29RemoveInvalidImageBufferPortsEPK24ChiFeature2RequestObjectP21ChiFeature2PortIdListRNSt3__16vectorI21ChiFeature2IdentifierNS5_9allocatorIS7_EEEE+0x854>
0x3a36c <_ZN11ChiMetadata12AddReferenceEPKc+0xbc>
0x2a314 <_ZNK24ChiFeature2MCReprocessRT29RemoveInvalidImageBufferPortsEPK24ChiFeature2RequestObjectP21ChiFeature2PortIdListRNSt3__16vectorI21ChiFeature2IdentifierNS5_9allocatorIS7_EEEE+0x884>
0x2a524 <_ZNK24ChiFeature2MCReprocessRT29RemoveInvalidImageBufferPortsEPK24ChiFeature2RequestObjectP21ChiFeature2PortIdListRNSt3__16vectorI21ChiFeature2IdentifierNS5_9allocatorIS7_EEEE+0xa94>
0x2a584 <_ZNK24ChiFeature2MCReprocessRT29RemoveInvalidImageBufferPortsEPK24ChiFeature2RequestObjectP21ChiFeature2PortIdListRNSt3__16vectorI21ChiFeature2IdentifierNS5_9allocatorIS7_EEEE+0xaf4>
0x3a60c <_ZN11ChiMetadata16ReleaseReferenceEPKc+0x1c>
0x2a5b4 <_ZNK24ChiFeature2MCReprocessRT29RemoveInvalidImageBufferPortsEPK24ChiFeature2RequestObjectP21ChiFeature2PortIdListRNSt3__16vectorI21ChiFeature2IdentifierNS5_9allocatorIS7_EEEE+0xb24>
0x3a63c <_ZN11ChiMetadata16ReleaseReferenceEPKc+0x4c>
0x2a5fc <_ZNK24ChiFeature2MCReprocessRT29RemoveInvalidImageBufferPortsEPK24ChiFeature2RequestObjectP21ChiFeature2PortIdListRNSt3__16vectorI21ChiFeature2IdentifierNS5_9allocatorIS7_EEEE+0xb6c>
0x3a684 <_ZN11ChiMetadata16ReleaseReferenceEPKc+0x94>
0x2a6a4 <_ZNK24ChiFeature2MCReprocessRT29RemoveInvalidImageBufferPortsEPK24ChiFeature2RequestObjectP21ChiFeature2PortIdListRNSt3__16vectorI21ChiFeature2IdentifierNS5_9allocatorIS7_EEEE+0xc14>
0x3a72c <_ZN11ChiMetadata16ReleaseReferenceEPKc+0x13c>
0x2a6d4 <_ZNK24ChiFeature2MCReprocessRT29RemoveInvalidImageBufferPortsEPK24ChiFeature2RequestObjectP21ChiFeature2PortIdListRNSt3__16vectorI21ChiFeature2IdentifierNS5_9allocatorIS7_EEEE+0xc44>
0x3a75c <_ZN11ChiMetadata16ReleaseReferenceEPKc+0x16c>
0x2a704 <_ZNK24ChiFeature2MCReprocessRT29RemoveInvalidImageBufferPortsEPK24ChiFeature2RequestObjectP21ChiFeature2PortIdListRNSt3__16vectorI21ChiFeature2IdentifierNS5_9allocatorIS7_EEEE+0xc74>
0x3a78c <_ZN11ChiMetadata16ReleaseReferenceEPKc+0x19c>
0x2a754 <_ZNK24ChiFeature2MCReprocessRT29RemoveInvalidImageBufferPortsEPK24ChiFeature2RequestObjectP21ChiFeature2PortIdListRNSt3__16vectorI21ChiFeature2IdentifierNS5_9allocatorIS7_EEEE+0xcc4>
0x3a7dc <_ZN11ChiMetadata16ReleaseReferenceEPKc+0x1ec>
0x2a7a4 <_ZNK24ChiFeature2MCReprocessRT29RemoveInvalidImageBufferPortsEPK24ChiFeature2RequestObjectP21ChiFeature2PortIdListRNSt3__16vectorI21ChiFeature2IdentifierNS5_9allocatorIS7_EEEE+0xd14>
0x3a82c <_ZN11ChiMetadata16ReleaseReferenceEPKc+0x23c>
0x2a7d4 <_ZNK24ChiFeature2MCReprocessRT29RemoveInvalidImageBufferPortsEPK24ChiFeature2RequestObjectP21ChiFeature2PortIdListRNSt3__16vectorI21ChiFeature2IdentifierNS5_9allocatorIS7_EEEE+0xd44>
0x2a7fc <_ZNK24ChiFeature2MCReprocessRT29RemoveInvalidImageBufferPortsEPK24ChiFeature2RequestObjectP21ChiFeature2PortIdListRNSt3__16vectorI21ChiFeature2IdentifierNS5_9allocatorIS7_EEEE+0xd6c>
0x2a82c <_ZNK24ChiFeature2MCReprocessRT29RemoveInvalidImageBufferPortsEPK24ChiFeature2RequestObjectP21ChiFeature2PortIdListRNSt3__16vectorI21ChiFeature2IdentifierNS5_9allocatorIS7_EEEE+0xd9c>
0x3a8b4 <_ZN11ChiMetadata16ReleaseReferenceEPKc+0x2c4>
0x2a954 <_ZN24ChiFeature2MCReprocessRT32SetMultiCameraInputConfigurationEP11ChiMetadataPK10ChiUsecasePKN15ChiFeature2Base22ChiFeaturePipelineDataEPK17LogicalCameraInfo22ImageStabilizationMode+0x64>
0x3a9dc <_ZN11ChiMetadata20ReleaseAllReferencesEi+0x4c>
0x2a9ac <_ZN24ChiFeature2MCReprocessRT32SetMultiCameraInputConfigurationEP11ChiMetadataPK10ChiUsecasePKN15ChiFeature2Base22ChiFeaturePipelineDataEPK17LogicalCameraInfo22ImageStabilizationMode+0xbc>
0x3aa34 <_ZN11ChiMetadata8IteratorC2ERS_+0x4c>
0x2a9dc <_ZN24ChiFeature2MCReprocessRT32SetMultiCameraInputConfigurationEP11ChiMetadataPK10ChiUsecasePKN15ChiFeature2Base22ChiFeaturePipelineDataEPK17LogicalCameraInfo22ImageStabilizationMode+0xec>
0x2aa04 <_ZN24ChiFeature2MCReprocessRT32SetMultiCameraInputConfigurationEP11ChiMetadataPK10ChiUsecasePKN15ChiFeature2Base22ChiFeaturePipelineDataEPK17LogicalCameraInfo22ImageStabilizationMode+0x114>
0x2aa34 <_ZN24ChiFeature2MCReprocessRT32SetMultiCameraInputConfigurationEP11ChiMetadataPK10ChiUsecasePKN15ChiFeature2Base22ChiFeaturePipelineDataEPK17LogicalCameraInfo22ImageStabilizationMode+0x144>
0x3aabc <_ZN11ChiMetadata8Iterator5BeginEv+0x24>
0x2aa64 <_ZN24ChiFeature2MCReprocessRT32SetMultiCameraInputConfigurationEP11ChiMetadataPK10ChiUsecasePKN15ChiFeature2Base22ChiFeaturePipelineDataEPK17LogicalCameraInfo22ImageStabilizationMode+0x174>
0x3aaec <_ZN11ChiMetadata8Iterator5BeginEv+0x54>
0x2aab4 <_ZN24ChiFeature2MCReprocessRT32SetMultiCameraInputConfigurationEP11ChiMetadataPK10ChiUsecasePKN15ChiFeature2Base22ChiFeaturePipelineDataEPK17LogicalCameraInfo22ImageStabilizationMode+0x1c4>
0x3ab3c <_ZN11ChiMetadata8Iterator4NextEv+0x3c>
0x2ab04 <_ZN24ChiFeature2MCReprocessRT32SetMultiCameraInputConfigurationEP11ChiMetadataPK10ChiUsecasePKN15ChiFeature2Base22ChiFeaturePipelineDataEPK17LogicalCameraInfo22ImageStabilizationMode+0x214>
0x3ab8c <_ZN11ChiMetadata8Iterator3GetER16ChiMetadataEntry+0x24>
0x2ab34 <_ZN24ChiFeature2MCReprocessRT32SetMultiCameraInputConfigurationEP11ChiMetadataPK10ChiUsecasePKN15ChiFeature2Base22ChiFeaturePipelineDataEPK17LogicalCameraInfo22ImageStabilizationMode+0x244>
0x3abbc <_ZN11ChiMetadata8Iterator3GetER16ChiMetadataEntry+0x54>
0x2ab8c <_ZN24ChiFeature2MCReprocessRT32SetMultiCameraInputConfigurationEP11ChiMetadataPK10ChiUsecasePKN15ChiFeature2Base22ChiFeaturePipelineDataEPK17LogicalCameraInfo22ImageStabilizationMode+0x29c>
0x3ac14 <_ZN11ChiMetadata8Iterator3GetER16ChiMetadataEntry+0xac>
<_ZN7android8hardware11hidl_stringC1EPKc@plt>
<_ZN7android8hardware11hidl_stringC1EPKc@plt>
<_ZN7android8hardware11hidl_stringC1EPKc@plt>
<_ZN7android8hardware11hidl_stringC1EPKc@plt>
<_ZN7android8hardware11hidl_stringC1EPKc@plt>
<_ZN7android8hardware11hidl_stringC1EPKc@plt>
<_ZN7android8hardware11hidl_stringC1EPKc@plt>
<_ZN7android8hardware11hidl_stringC1EPKc@plt>
<_ZN7android8hardware11hidl_stringC1EPKc@plt>
<_ZN7android8hardware11hidl_stringC1EPKc@plt>
<_ZN7android8hardware11hidl_stringC1EPKc@plt>
<_ZN7android8hardware11hidl_stringC1EPKc@plt>
<_ZN7android8hardware11hidl_stringC1EPKc@plt>
<_ZN7android8hardware11hidl_stringC1EPKc@plt>
<_ZN7android8hardware11hidl_stringC1EPKc@plt>
<_ZN7android8hardware11hidl_stringC1EPKc@plt>
<_ZN7android8hardware11hidl_stringC1EPKc@plt>
<_ZN7android8hardware11hidl_stringC1EPKc@plt>
<_ZN7android8hardware11hidl_stringC1EPKc@plt>
<_ZN7android8hardware11hidl_stringC1EPKc@plt>
<_ZN7android8hardware11hidl_stringC1EPKc@plt>
<_ZN7android8hardware11hidl_stringC1ERKNSt3__112basic_stringIcNS2_11char_traitsIcEENS2_9allocatorIcEEEE@plt>
<_ZN7android8hardware11hidl_stringC1ERKNSt3__112basic_stringIcNS2_11char_traitsIcEENS2_9allocatorIcEEEE@plt>
<_ZN7android8hardware11hidl_stringC1ERKNSt3__112basic_stringIcNS2_11char_traitsIcEENS2_9allocatorIcEEEE@plt>
<_ZN7android8hardware11hidl_stringC1ERKNSt3__112basic_stringIcNS2_11char_traitsIcEENS2_9allocatorIcEEEE@plt>
<_ZN7android8hardware11hidl_stringC1ERKNSt3__112basic_stringIcNS2_11char_traitsIcEENS2_9allocatorIcEEEE@plt>
<_ZN7android8hardware11hidl_stringC1ERKNSt3__112basic_stringIcNS2_11char_traitsIcEENS2_9allocatorIcEEEE@plt>
<_ZN7android8hardware11hidl_stringC1ERKNSt3__112basic_stringIcNS2_11char_traitsIcEENS2_9allocatorIcEEEE@plt>
<_ZN7android8hardware11hidl_stringC1ERKNSt3__112basic_stringIcNS2_11char_traitsIcEENS2_9allocatorIcEEEE@plt>
<_ZN7android8hardware11hidl_stringC1ERKNSt3__112basic_stringIcNS2_11char_traitsIcEENS2_9allocatorIcEEEE@plt>
<_ZN7android8hardware11hidl_stringC1ERKNSt3__112basic_stringIcNS2_11char_traitsIcEENS2_9allocatorIcEEEE@plt>
<_ZN7android8hardware11hidl_stringC1ERKNSt3__112basic_stringIcNS2_11char_traitsIcEENS2_9allocatorIcEEEE@plt>
<_ZN7android8hardware11hidl_stringC1ERKNSt3__112basic_stringIcNS2_11char_traitsIcEENS2_9allocatorIcEEEE@plt>
<_ZN7android8hardware11hidl_stringC1ERKNSt3__112basic_stringIcNS2_11char_traitsIcEENS2_9allocatorIcEEEE@plt>
<_ZN7android8hardware11hidl_stringC1ERKNSt3__112basic_stringIcNS2_11char_traitsIcEENS2_9allocatorIcEEEE@plt>
<_ZN7android8hardware11hidl_stringC1ERKNSt3__112basic_stringIcNS2_11char_traitsIcEENS2_9allocatorIcEEEE@plt>
<_ZN7android8hardware11hidl_stringC1ERKNSt3__112basic_stringIcNS2_11char_traitsIcEENS2_9allocatorIcEEEE@plt>
<_ZN7android8hardware11hidl_stringC1ERKNSt3__112basic_stringIcNS2_11char_traitsIcEENS2_9allocatorIcEEEE@plt>
<_ZN7android8hardware11hidl_stringC1ERKNSt3__112basic_stringIcNS2_11char_traitsIcEENS2_9allocatorIcEEEE@plt>
<_ZN7android8hardware11hidl_stringC1ERKNSt3__112basic_stringIcNS2_11char_traitsIcEENS2_9allocatorIcEEEE@plt>
<_ZN7android8hardware11hidl_stringC1ERKNSt3__112basic_stringIcNS2_11char_traitsIcEENS2_9allocatorIcEEEE@plt>
<_ZN7android8hardware11hidl_stringC1ERKNSt3__112basic_stringIcNS2_11char_traitsIcEENS2_9allocatorIcEEEE@plt>
<_ZN7android8hardware11hidl_stringC1ERKNSt3__112basic_stringIcNS2_11char_traitsIcEENS2_9allocatorIcEEEE@plt>
<_ZN7android8hardware11hidl_stringC1ERKNSt3__112basic_stringIcNS2_11char_traitsIcEENS2_9allocatorIcEEEE@plt>
<_ZN7android8hardware11hidl_stringC1ERKNSt3__112basic_stringIcNS2_11char_traitsIcEENS2_9allocatorIcEEEE@plt>
<_ZN7android8hardware11hidl_stringC1ERKNSt3__112basic_stringIcNS2_11char_traitsIcEENS2_9allocatorIcEEEE@plt>
<_ZN7android8hardware11hidl_stringC1ERKNSt3__112basic_stringIcNS2_11char_traitsIcEENS2_9allocatorIcEEEE@plt>
<_ZNSt3__112basic_stringIcNS_11char_traitsIcEENS_9allocatorIcEEEC1ERKS5_@plt>
<_ZNSt3__112basic_stringIcNS_11char_traitsIcEENS_9allocatorIcEEEC1ERKS5_@plt>
<_ZNSt3__112basic_stringIcNS_11char_traitsIcEENS_9allocatorIcEEEC1ERKS5_@plt>
<_ZNSt3__112basic_stringIcNS_11char_traitsIcEENS_9allocatorIcEEEC1ERKS5_@plt>
<_ZN7android8hardware11hidl_stringC1EPKc@plt>
<_ZN7android8hardware11hidl_stringC1EPKc@plt>
<_ZN7android8hardware11hidl_stringC1EPKc@plt>
<_ZN7android8hardware11hidl_stringC1EPKc@plt>
<_ZN7android8hardware11hidl_stringC1EPKc@plt>
<_ZN7android8hardware11hidl_stringC1EPKc@plt>
<_ZN7android8hardware11hidl_stringC1EPKc@plt>
<_ZN7android8hardware11hidl_stringC1EPKc@plt>
<_ZN7android8hardware11hidl_stringC1EPKc@plt>
<_ZN7android8hardware11hidl_stringC1EPKc@plt>
<_ZN7android8hardware11hidl_stringC1EPKc@plt>
<_ZN7android8hardware11hidl_stringC1EPKc@plt>
<_ZN7android8hardware11hidl_stringC1EPKc@plt>
<_ZN7android8hardware11hidl_stringC1EPKc@plt>
<_ZN7android8hardware11hidl_stringC1EPKc@plt>
<_ZN7android8hardware11hidl_stringC1EPKc@plt>
<_ZN7android8hardware11hidl_stringC1EPKc@plt>
<_ZN7android8hardware11hidl_stringC1EPKc@plt>
<_ZN7android8hardware11hidl_stringC1EPKc@plt>
<_ZN7android8hardware11hidl_stringC1EPKc@plt>
<_ZN7android8hardware11hidl_stringC1EPKc@plt>
<_ZN7android8hardware11hidl_stringC1ERKNSt3__112basic_stringIcNS2_11char_traitsIcEENS2_9allocatorIcEEEE@plt>
<_ZN7android8hardware11hidl_stringC1ERKNSt3__112basic_stringIcNS2_11char_traitsIcEENS2_9allocatorIcEEEE@plt>
<_ZN7android8hardware11hidl_stringC1ERKNSt3__112basic_stringIcNS2_11char_traitsIcEENS2_9allocatorIcEEEE@plt>
<_ZN7android8hardware11hidl_stringC1ERKNSt3__112basic_stringIcNS2_11char_traitsIcEENS2_9allocatorIcEEEE@plt>
<_ZN7android8hardware11hidl_stringC1ERKNSt3__112basic_stringIcNS2_11char_traitsIcEENS2_9allocatorIcEEEE@plt>
<_ZN7android8hardware11hidl_stringC1ERKNSt3__112basic_stringIcNS2_11char_traitsIcEENS2_9allocatorIcEEEE@plt>
<_ZN7android8hardware11hidl_stringC1ERKNSt3__112basic_stringIcNS2_11char_traitsIcEENS2_9allocatorIcEEEE@plt>
<_ZN7android8hardware11hidl_stringC1ERKNSt3__112basic_stringIcNS2_11char_traitsIcEENS2_9allocatorIcEEEE@plt>
<_ZN7android8hardware11hidl_stringC1ERKNSt3__112basic_stringIcNS2_11char_traitsIcEENS2_9allocatorIcEEEE@plt>
<_ZN7android8hardware11hidl_stringC1ERKNSt3__112basic_stringIcNS2_11char_traitsIcEENS2_9allocatorIcEEEE@plt>
<_ZN7android8hardware11hidl_stringC1ERKNSt3__112basic_stringIcNS2_11char_traitsIcEENS2_9allocatorIcEEEE@plt>
<_ZN7android8hardware11hidl_stringC1ERKNSt3__112basic_stringIcNS2_11char_traitsIcEENS2_9allocatorIcEEEE@plt>
<_ZN7android8hardware11hidl_stringC1ERKNSt3__112basic_stringIcNS2_11char_traitsIcEENS2_9allocatorIcEEEE@plt>
<_ZN7android8hardware11hidl_stringC1ERKNSt3__112basic_stringIcNS2_11char_traitsIcEENS2_9allocatorIcEEEE@plt>
<_ZN7android8hardware11hidl_stringC1ERKNSt3__112basic_stringIcNS2_11char_traitsIcEENS2_9allocatorIcEEEE@plt>
<_ZN7android8hardware11hidl_stringC1ERKNSt3__112basic_stringIcNS2_11char_traitsIcEENS2_9allocatorIcEEEE@plt>
<_ZN7android8hardware11hidl_stringC1ERKNSt3__112basic_stringIcNS2_11char_traitsIcEENS2_9allocatorIcEEEE@plt>
<_ZN7android8hardware11hidl_stringC1ERKNSt3__112basic_stringIcNS2_11char_traitsIcEENS2_9allocatorIcEEEE@plt>
<_ZN7android8hardware11hidl_stringC1ERKNSt3__112basic_stringIcNS2_11char_traitsIcEENS2_9allocatorIcEEEE@plt>
<_ZN7android8hardware11hidl_stringC1ERKNSt3__112basic_stringIcNS2_11char_traitsIcEENS2_9allocatorIcEEEE@plt>
<_ZN7android8hardware11hidl_stringC1ERKNSt3__112basic_stringIcNS2_11char_traitsIcEENS2_9allocatorIcEEEE@plt>
<_ZN7android8hardware11hidl_stringC1ERKNSt3__112basic_stringIcNS2_11char_traitsIcEENS2_9allocatorIcEEEE@plt>
<_ZN7android8hardware11hidl_stringC1ERKNSt3__112basic_stringIcNS2_11char_traitsIcEENS2_9allocatorIcEEEE@plt>
<_ZN7android8hardware11hidl_stringC1ERKNSt3__112basic_stringIcNS2_11char_traitsIcEENS2_9allocatorIcEEEE@plt>
<_ZN7android8hardware11hidl_stringC1ERKNSt3__112basic_stringIcNS2_11char_traitsIcEENS2_9allocatorIcEEEE@plt>
<_ZN7android8hardware11hidl_stringC1ERKNSt3__112basic_stringIcNS2_11char_traitsIcEENS2_9allocatorIcEEEE@plt>
<_ZNSt3__112basic_stringIcNS_11char_traitsIcEENS_9allocatorIcEEEC1ERKS5_@plt>
<_ZNSt3__112basic_stringIcNS_11char_traitsIcEENS_9allocatorIcEEEC1ERKS5_@plt>
<_ZNSt3__112basic_stringIcNS_11char_traitsIcEENS_9allocatorIcEEEC1ERKS5_@plt>
<_ZNSt3__112basic_stringIcNS_11char_traitsIcEENS_9allocatorIcEEEC1ERKS5_@plt>
<_ZN7android8hardware11hidl_stringC1EPKc@plt>
<_ZN7android8hardware11hidl_stringC1EPKc@plt>
<_ZN7android8hardware11hidl_stringC1EPKc@plt>
<_ZN7android8hardware11hidl_stringC1EPKc@plt>
<_ZN7android8hardware11hidl_stringC1EPKc@plt>
<_ZN7android8hardware11hidl_stringC1EPKc@plt>
<_ZN7android8hardware11hidl_stringC1EPKc@plt>
<_ZN7android8hardware11hidl_stringC1EPKc@plt>
<_ZN7android8hardware11hidl_stringC1EPKc@plt>
<_ZN7android8hardware11hidl_stringC1EPKc@plt>
<_ZN7android8hardware11hidl_stringC1EPKc@plt>
<_ZN7android8hardware11hidl_stringC1EPKc@plt>
<_ZN7android8hardware11hidl_stringC1EPKc@plt>
<_ZN7android8hardware11hidl_stringC1EPKc@plt>
<_ZN7android8hardware11hidl_stringC1EPKc@plt>
<_ZN7android8hardware11hidl_stringC1EPKc@plt>
<_ZN7android8hardware11hidl_stringC1EPKc@plt>
<_ZN7android8hardware11hidl_stringC1EPKc@plt>
<_ZN7android8hardware11hidl_stringC1EPKc@plt>
<_ZN7android8hardware11hidl_stringC1EPKc@plt>
<_ZN7android8hardware11hidl_stringC1EPKc@plt>
<_ZN7android8hardware11hidl_stringC1ERKNSt3__112basic_stringIcNS2_11char_traitsIcEENS2_9allocatorIcEEEE@plt>
<_ZN7android8hardware11hidl_stringC1ERKNSt3__112basic_stringIcNS2_11char_traitsIcEENS2_9allocatorIcEEEE@plt>
<_ZN7android8hardware11hidl_stringC1ERKNSt3__112basic_stringIcNS2_11char_traitsIcEENS2_9allocatorIcEEEE@plt>
<_ZN7android8hardware11hidl_stringC1ERKNSt3__112basic_stringIcNS2_11char_traitsIcEENS2_9allocatorIcEEEE@plt>
<_ZN7android8hardware11hidl_stringC1ERKNSt3__112basic_stringIcNS2_11char_traitsIcEENS2_9allocatorIcEEEE@plt>
<_ZN7android8hardware11hidl_stringC1ERKNSt3__112basic_stringIcNS2_11char_traitsIcEENS2_9allocatorIcEEEE@plt>
<_ZN7android8hardware11hidl_stringC1ERKNSt3__112basic_stringIcNS2_11char_traitsIcEENS2_9allocatorIcEEEE@plt>
<_ZN7android8hardware11hidl_stringC1ERKNSt3__112basic_stringIcNS2_11char_traitsIcEENS2_9allocatorIcEEEE@plt>
<_ZN7android8hardware11hidl_stringC1ERKNSt3__112basic_stringIcNS2_11char_traitsIcEENS2_9allocatorIcEEEE@plt>
<_ZN7android8hardware11hidl_stringC1ERKNSt3__112basic_stringIcNS2_11char_traitsIcEENS2_9allocatorIcEEEE@plt>
<_ZN7android8hardware11hidl_stringC1ERKNSt3__112basic_stringIcNS2_11char_traitsIcEENS2_9allocatorIcEEEE@plt>
<_ZN7android8hardware11hidl_stringC1ERKNSt3__112basic_stringIcNS2_11char_traitsIcEENS2_9allocatorIcEEEE@plt>
<_ZN7android8hardware11hidl_stringC1ERKNSt3__112basic_stringIcNS2_11char_traitsIcEENS2_9allocatorIcEEEE@plt>
<_ZN7android8hardware11hidl_stringC1ERKNSt3__112basic_stringIcNS2_11char_traitsIcEENS2_9allocatorIcEEEE@plt>
<_ZN7android8hardware11hidl_stringC1ERKNSt3__112basic_stringIcNS2_11char_traitsIcEENS2_9allocatorIcEEEE@plt>
<_ZN7android8hardware11hidl_stringC1ERKNSt3__112basic_stringIcNS2_11char_traitsIcEENS2_9allocatorIcEEEE@plt>
<_ZN7android8hardware11hidl_stringC1ERKNSt3__112basic_stringIcNS2_11char_traitsIcEENS2_9allocatorIcEEEE@plt>
<_ZN7android8hardware11hidl_stringC1ERKNSt3__112basic_stringIcNS2_11char_traitsIcEENS2_9allocatorIcEEEE@plt>
<_ZN7android8hardware11hidl_stringC1ERKNSt3__112basic_stringIcNS2_11char_traitsIcEENS2_9allocatorIcEEEE@plt>
<_ZN7android8hardware11hidl_stringC1ERKNSt3__112basic_stringIcNS2_11char_traitsIcEENS2_9allocatorIcEEEE@plt>
<_ZN7android8hardware11hidl_stringC1ERKNSt3__112basic_stringIcNS2_11char_traitsIcEENS2_9allocatorIcEEEE@plt>
<_ZN7android8hardware11hidl_stringC1ERKNSt3__112basic_stringIcNS2_11char_traitsIcEENS2_9allocatorIcEEEE@plt>
<_ZN7android8hardware11hidl_stringC1ERKNSt3__112basic_stringIcNS2_11char_traitsIcEENS2_9allocatorIcEEEE@plt>
<_ZN7android8hardware11hidl_stringC1ERKNSt3__112basic_stringIcNS2_11char_traitsIcEENS2_9allocatorIcEEEE@plt>
<_ZN7android8hardware11hidl_stringC1ERKNSt3__112basic_stringIcNS2_11char_traitsIcEENS2_9allocatorIcEEEE@plt>
<_ZN7android8hardware11hidl_stringC1ERKNSt3__112basic_stringIcNS2_11char_traitsIcEENS2_9allocatorIcEEEE@plt>
<_ZNSt3__112basic_stringIcNS_11char_traitsIcEENS_9allocatorIcEEEC1ERKS5_@plt>
<_ZNSt3__112basic_stringIcNS_11char_traitsIcEENS_9allocatorIcEEEC1ERKS5_@plt>
<_ZNSt3__112basic_stringIcNS_11char_traitsIcEENS_9allocatorIcEEEC1ERKS5_@plt>
<_ZNSt3__112basic_stringIcNS_11char_traitsIcEENS_9allocatorIcEEEC1ERKS5_@plt>
<_ZN7android8hardware11hidl_stringC1EPKc@plt>
<_ZN7android8hardware11hidl_stringC1EPKc@plt>
<_ZN7android8hardware11hidl_stringC1EPKc@plt>
<_ZN7android8hardware11hidl_stringC1EPKc@plt>
<_ZN7android8hardware11hidl_stringC1EPKc@plt>
<_ZN7android8hardware11hidl_stringC1EPKc@plt>
<_ZN7android8hardware11hidl_stringC1EPKc@plt>
<_ZN7android8hardware11hidl_stringC1EPKc@plt>
<_ZN7android8hardware11hidl_stringC1EPKc@plt>
<_ZN7android8hardware11hidl_stringC1EPKc@plt>
<_ZN7android8hardware11hidl_stringC1EPKc@plt>
<_ZN7android8hardware11hidl_stringC1EPKc@plt>
<_ZN7android8hardware11hidl_stringC1EPKc@plt>
<_ZN7android8hardware11hidl_stringC1EPKc@plt>
<_ZN7android8hardware11hidl_stringC1EPKc@plt>
<_ZN7android8hardware11hidl_stringC1EPKc@plt>
<_ZN7android8hardware11hidl_stringC1EPKc@plt>
<_ZN7android8hardware11hidl_stringC1EPKc@plt>
<_ZN7android8hardware11hidl_stringC1EPKc@plt>
<_ZN7android8hardware11hidl_stringC1EPKc@plt>
<_ZN7android8hardware11hidl_stringC1EPKc@plt>
<_ZN7android8hardware11hidl_stringC1ERKNSt3__112basic_stringIcNS2_11char_traitsIcEENS2_9allocatorIcEEEE@plt>
<_ZN7android8hardware11hidl_stringC1ERKNSt3__112basic_stringIcNS2_11char_traitsIcEENS2_9allocatorIcEEEE@plt>
<_ZN7android8hardware11hidl_stringC1ERKNSt3__112basic_stringIcNS2_11char_traitsIcEENS2_9allocatorIcEEEE@plt>
<_ZN7android8hardware11hidl_stringC1ERKNSt3__112basic_stringIcNS2_11char_traitsIcEENS2_9allocatorIcEEEE@plt>
<_ZN7android8hardware11hidl_stringC1ERKNSt3__112basic_stringIcNS2_11char_traitsIcEENS2_9allocatorIcEEEE@plt>
<_ZN7android8hardware11hidl_stringC1ERKNSt3__112basic_stringIcNS2_11char_traitsIcEENS2_9allocatorIcEEEE@plt>
<_ZN7android8hardware11hidl_stringC1ERKNSt3__112basic_stringIcNS2_11char_traitsIcEENS2_9allocatorIcEEEE@plt>
<_ZN7android8hardware11hidl_stringC1ERKNSt3__112basic_stringIcNS2_11char_traitsIcEENS2_9allocatorIcEEEE@plt>
<_ZN7android8hardware11hidl_stringC1ERKNSt3__112basic_stringIcNS2_11char_traitsIcEENS2_9allocatorIcEEEE@plt>
<_ZN7android8hardware11hidl_stringC1ERKNSt3__112basic_stringIcNS2_11char_traitsIcEENS2_9allocatorIcEEEE@plt>
<_ZN7android8hardware11hidl_stringC1ERKNSt3__112basic_stringIcNS2_11char_traitsIcEENS2_9allocatorIcEEEE@plt>
<_ZN7android8hardware11hidl_stringC1ERKNSt3__112basic_stringIcNS2_11char_traitsIcEENS2_9allocatorIcEEEE@plt>
<_ZN7android8hardware11hidl_stringC1ERKNSt3__112basic_stringIcNS2_11char_traitsIcEENS2_9allocatorIcEEEE@plt>
<_ZN7android8hardware11hidl_stringC1ERKNSt3__112basic_stringIcNS2_11char_traitsIcEENS2_9allocatorIcEEEE@plt>
<_ZN7android8hardware11hidl_stringC1ERKNSt3__112basic_stringIcNS2_11char_traitsIcEENS2_9allocatorIcEEEE@plt>
<_ZN7android8hardware11hidl_stringC1ERKNSt3__112basic_stringIcNS2_11char_traitsIcEENS2_9allocatorIcEEEE@plt>
<_ZN7android8hardware11hidl_stringC1ERKNSt3__112basic_stringIcNS2_11char_traitsIcEENS2_9allocatorIcEEEE@plt>
<_ZN7android8hardware11hidl_stringC1ERKNSt3__112basic_stringIcNS2_11char_traitsIcEENS2_9allocatorIcEEEE@plt>
<_ZN7android8hardware11hidl_stringC1ERKNSt3__112basic_stringIcNS2_11char_traitsIcEENS2_9allocatorIcEEEE@plt>
<_ZN7android8hardware11hidl_stringC1ERKNSt3__112basic_stringIcNS2_11char_traitsIcEENS2_9allocatorIcEEEE@plt>
<_ZN7android8hardware11hidl_stringC1ERKNSt3__112basic_stringIcNS2_11char_traitsIcEENS2_9allocatorIcEEEE@plt>
<_ZN7android8hardware11hidl_stringC1ERKNSt3__112basic_stringIcNS2_11char_traitsIcEENS2_9allocatorIcEEEE@plt>
<_ZN7android8hardware11hidl_stringC1ERKNSt3__112basic_stringIcNS2_11char_traitsIcEENS2_9allocatorIcEEEE@plt>
<_ZN7android8hardware11hidl_stringC1ERKNSt3__112basic_stringIcNS2_11char_traitsIcEENS2_9allocatorIcEEEE@plt>
<_ZN7android8hardware11hidl_stringC1ERKNSt3__112basic_stringIcNS2_11char_traitsIcEENS2_9allocatorIcEEEE@plt>
<_ZN7android8hardware11hidl_stringC1ERKNSt3__112basic_stringIcNS2_11char_traitsIcEENS2_9allocatorIcEEEE@plt>
<_ZNSt3__112basic_stringIcNS_11char_traitsIcEENS_9allocatorIcEEEC1ERKS5_@plt>
<_ZNSt3__112basic_stringIcNS_11char_traitsIcEENS_9allocatorIcEEEC1ERKS5_@plt>
<_ZNSt3__112basic_stringIcNS_11char_traitsIcEENS_9allocatorIcEEEC1ERKS5_@plt>
<_ZNSt3__112basic_stringIcNS_11char_traitsIcEENS_9allocatorIcEEEC1ERKS5_@plt>
<_ZN7android8hardware11hidl_stringD1Ev@plt>
<_ZN15ChiFeature2Base10InitializeEP26ChiFeature2CreateInputInfo@plt>
<_ZN6ChiLog9LogSystemEPKcS1_S1_S1_iS1_z@plt>
<_ZN6ChiLog9LogSystemEPKcS1_S1_S1_iS1_z@plt>
<_ZN8ChxUtils15AndroidMetadata12GetBokehModeEPKv@plt>
<_ZN6ChiLog9LogSystemEPKcS1_S1_S1_iS1_z@plt>
<_ZNKSt3__120__vector_base_commonILb1EE20__throw_length_errorEv@plt>

0x45000 <_ZN24ChiFeature2MCReprocessRT7DestroyEv+0x14>

0x21450 <_ZN24ChiFeature2MCReprocessRT7DestroyEv+0x38>
0x44000 <_ZNK24ChiFeature2MCReprocessRT16OnPrepareRequestEP24ChiFeature2RequestObject+0x30>
<_ZN24ChiFeature2MCReprocessRT7DestroyEv+0x3c>
<_ZN24ChiFeature2MCReprocessRT7DestroyEv+0x28>


0x214e4 <_ZNK24ChiFeature2MCReprocessRT16OnPrepareRequestEP24ChiFeature2RequestObject+0x5c>
0x2159c <_ZNK24ChiFeature2MCReprocessRT16OnPrepareRequestEP24ChiFeature2RequestObject+0x114>
0x44000 <_ZNK24ChiFeature2MCReprocessRT16OnPrepareRequestEP24ChiFeature2RequestObject+0xbc>
<_ZNK24ChiFeature2MCReprocessRT16OnPrepareRequestEP24ChiFeature2RequestObject+0x1d0>
<_ZNK15ChiFeature2Base21SetFeaturePrivContextEP24ChiFeature2RequestObjectPv@plt>
<_ZNK24ChiFeature2MCReprocessRT16OnPrepareRequestEP24ChiFeature2RequestObject+0x1c0>
0x45000 <_ZNK24ChiFeature2MCReprocessRT16OnPrepareRequestEP24ChiFeature2RequestObject+0xec>
#0, 0x21594 <_ZNK24ChiFeature2MCReprocessRT16OnPrepareRequestEP24ChiFeature2RequestObject+0x10c>
0x45000 <_ZNK24ChiFeature2MCReprocessRT16OnPrepareRequestEP24ChiFeature2RequestObject+0xfc>
<_ZNK24ChiFeature2MCReprocessRT16OnPrepareRequestEP24ChiFeature2RequestObject+0xc4>
0x11000 <_ZNK24ChiFeature2MCReprocessRT16OnPrepareRequestEP24ChiFeature2RequestObject+0x40>
0x11000 <_ZNK24ChiFeature2MCReprocessRT16OnPrepareRequestEP24ChiFeature2RequestObject+0x5c>
0xc000 <_ZNK24ChiFeature2MCReprocessRT16OnPrepareRequestEP24ChiFeature2RequestObject+0x4c>
0xe000 <_ZNK24ChiFeature2MCReprocessRT16OnPrepareRequestEP24ChiFeature2RequestObject+0x58>
0x11000 <_ZNK24ChiFeature2MCReprocessRT16OnPrepareRequestEP24ChiFeature2RequestObject+0x84>
0x11000 <_ZNK24ChiFeature2MCReprocessRT16OnPrepareRequestEP24ChiFeature2RequestObject+0xa0>
0xb000 <_ZNK24ChiFeature2MCReprocessRT16OnPrepareRequestEP24ChiFeature2RequestObject+0x90>
0xe000 <_ZNK24ChiFeature2MCReprocessRT16OnPrepareRequestEP24ChiFeature2RequestObject+0xa0>
0x10000 <_ZNK24ChiFeature2MCReprocessRT16OnPrepareRequestEP24ChiFeature2RequestObject+0xac>
<_ZN6ChiLog9LogSystemEPKcS1_S1_S1_iS1_z@plt>
<_ZNK24ChiFeature2MCReprocessRT16OnPrepareRequestEP24ChiFeature2RequestObject+0x1c0>
0x45000 <_ZNK24ChiFeature2MCReprocessRT16OnPrepareRequestEP24ChiFeature2RequestObject+0x1a4>
#0, 0x21644 <_ZNK24ChiFeature2MCReprocessRT16OnPrepareRequestEP24ChiFeature2RequestObject+0x1bc>
0x45000 <_ZNK24ChiFeature2MCReprocessRT16OnPrepareRequestEP24ChiFeature2RequestObject+0x1b4>
0x11000 <_ZNK24ChiFeature2MCReprocessRT16OnPrepareRequestEP24ChiFeature2RequestObject+0xe8>
<_ZNK24ChiFeature2MCReprocessRT16OnPrepareRequestEP24ChiFeature2RequestObject+0x17c>
0x11000 <_ZNK24ChiFeature2MCReprocessRT16OnPrepareRequestEP24ChiFeature2RequestObject+0x114>
0xe000 <_ZNK24ChiFeature2MCReprocessRT16OnPrepareRequestEP24ChiFeature2RequestObject+0x10c>
0xe000 <_ZNK24ChiFeature2MCReprocessRT16OnPrepareRequestEP24ChiFeature2RequestObject+0x110>
0x11000 <_ZNK24ChiFeature2MCReprocessRT16OnPrepareRequestEP24ChiFeature2RequestObject+0x150>
0xb000 <_ZNK24ChiFeature2MCReprocessRT16OnPrepareRequestEP24ChiFeature2RequestObject+0x140>
0xe000 <_ZNK24ChiFeature2MCReprocessRT16OnPrepareRequestEP24ChiFeature2RequestObject+0x150>
0xf000 <_ZNK24ChiFeature2MCReprocessRT16OnPrepareRequestEP24ChiFeature2RequestObject+0x158>
<_ZN6ChiLog9LogSystemEPKcS1_S1_S1_iS1_z@plt>
<_ZNK24ChiFeature2MCReprocessRT16OnPrepareRequestEP24ChiFeature2RequestObject+0x48>

0x44000 <_ZNK24ChiFeature2MCReprocessRT16OnMetadataResultEP24ChiFeature2RequestObjecthP20ChiFeature2StageInfoP21ChiFeature2IdentifierP11ChiMetadatajPv+0xb8>
<_ZNK24ChiFeature2MCReprocessRT16OnMetadataResultEP24ChiFeature2RequestObjecthP20ChiFeature2StageInfoP21ChiFeature2IdentifierP11ChiMetadatajPv+0xf50>
<_ZN15ExtensionModule11GetInstanceEv@plt>
<_ZNK24ChiFeature2MCReprocessRT16OnMetadataResultEP24ChiFeature2RequestObjecthP20ChiFeature2StageInfoP21ChiFeature2IdentifierP11ChiMetadatajPv+0x88>
0x22518 <_ZNK24ChiFeature2MCReprocessRT16OnMetadataResultEP24ChiFeature2RequestObjecthP20ChiFeature2StageInfoP21ChiFeature2IdentifierP11ChiMetadatajPv+0xea0>
<_ZNK24ChiFeature2MCReprocessRT16OnMetadataResultEP24ChiFeature2RequestObjecthP20ChiFeature2StageInfoP21ChiFeature2IdentifierP11ChiMetadatajPv+0xea0>
0x44000 <_ZNK24ChiFeature2MCReprocessRT16OnMetadataResultEP24ChiFeature2RequestObjecthP20ChiFeature2StageInfoP21ChiFeature2IdentifierP11ChiMetadatajPv+0x118>
<_ZNK24ChiFeature2MCReprocessRT16OnMetadataResultEP24ChiFeature2RequestObjecthP20ChiFeature2StageInfoP21ChiFeature2IdentifierP11ChiMetadatajPv+0xf80>
0xc000 <_ZNK24ChiFeature2MCReprocessRT16OnMetadataResultEP24ChiFeature2RequestObjecthP20ChiFeature2StageInfoP21ChiFeature2IdentifierP11ChiMetadatajPv+0x8c>
0x11000 <_ZNK24ChiFeature2MCReprocessRT16OnMetadataResultEP24ChiFeature2RequestObjecthP20ChiFeature2StageInfoP21ChiFeature2IdentifierP11ChiMetadatajPv+0xa4>
0xf000 <_ZNK24ChiFeature2MCReprocessRT16OnMetadataResultEP24ChiFeature2RequestObjecthP20ChiFeature2StageInfoP21ChiFeature2IdentifierP11ChiMetadatajPv+0xd0>
0x10000 <_ZNK24ChiFeature2MCReprocessRT16OnMetadataResultEP24ChiFeature2RequestObjecthP20ChiFeature2StageInfoP21ChiFeature2IdentifierP11ChiMetadatajPv+0xd8>
0x218b4 <_ZNK24ChiFeature2MCReprocessRT16OnMetadataResultEP24ChiFeature2RequestObjecthP20ChiFeature2StageInfoP21ChiFeature2IdentifierP11ChiMetadatajPv+0x23c>
0x21988 <_ZNK24ChiFeature2MCReprocessRT16OnMetadataResultEP24ChiFeature2RequestObjecthP20ChiFeature2StageInfoP21ChiFeature2IdentifierP11ChiMetadatajPv+0x310>
0xe000 <_ZNK24ChiFeature2MCReprocessRT16OnMetadataResultEP24ChiFeature2RequestObjecthP20ChiFeature2StageInfoP21ChiFeature2IdentifierP11ChiMetadatajPv+0x108>
0xe000 <_ZNK24ChiFeature2MCReprocessRT16OnMetadataResultEP24ChiFeature2RequestObjecthP20ChiFeature2StageInfoP21ChiFeature2IdentifierP11ChiMetadatajPv+0x10c>
<_ZN19ChiFeature2DataPool6SetTagEPKcS1_PKvjj@plt>
0x21988 <_ZNK24ChiFeature2MCReprocessRT16OnMetadataResultEP24ChiFeature2RequestObjecthP20ChiFeature2StageInfoP21ChiFeature2IdentifierP11ChiMetadatajPv+0x310>
0x45000 <_ZNK24ChiFeature2MCReprocessRT16OnMetadataResultEP24ChiFeature2RequestObjecthP20ChiFeature2StageInfoP21ChiFeature2IdentifierP11ChiMetadatajPv+0x20c>
#0, 0x21988 <_ZNK24ChiFeature2MCReprocessRT16OnMetadataResultEP24ChiFeature2RequestObjecthP20ChiFeature2StageInfoP21ChiFeature2IdentifierP11ChiMetadatajPv+0x310>
0x45000 <_ZNK24ChiFeature2MCReprocessRT16OnMetadataResultEP24ChiFeature2RequestObjecthP20ChiFeature2StageInfoP21ChiFeature2IdentifierP11ChiMetadatajPv+0x21c>
0x11000 <_ZNK24ChiFeature2MCReprocessRT16OnMetadataResultEP24ChiFeature2RequestObjecthP20ChiFeature2StageInfoP21ChiFeature2IdentifierP11ChiMetadatajPv+0x158>
<_ZNK24ChiFeature2MCReprocessRT16OnMetadataResultEP24ChiFeature2RequestObjecthP20ChiFeature2StageInfoP21ChiFeature2IdentifierP11ChiMetadatajPv+0x1ec>
0x11000 <_ZNK24ChiFeature2MCReprocessRT16OnMetadataResultEP24ChiFeature2RequestObjecthP20ChiFeature2StageInfoP21ChiFeature2IdentifierP11ChiMetadatajPv+0x184>
0xc000 <_ZNK24ChiFeature2MCReprocessRT16OnMetadataResultEP24ChiFeature2RequestObjecthP20ChiFeature2StageInfoP21ChiFeature2IdentifierP11ChiMetadatajPv+0x174>
0xc000 <_ZNK24ChiFeature2MCReprocessRT16OnMetadataResultEP24ChiFeature2RequestObjecthP20ChiFeature2StageInfoP21ChiFeature2IdentifierP11ChiMetadatajPv+0x178>
0x11000 <_ZNK24ChiFeature2MCReprocessRT16OnMetadataResultEP24ChiFeature2RequestObjecthP20ChiFeature2StageInfoP21ChiFeature2IdentifierP11ChiMetadatajPv+0x1c0>
0xb000 <_ZNK24ChiFeature2MCReprocessRT16OnMetadataResultEP24ChiFeature2RequestObjecthP20ChiFeature2StageInfoP21ChiFeature2IdentifierP11ChiMetadatajPv+0x1b0>
0xc000 <_ZNK24ChiFeature2MCReprocessRT16OnMetadataResultEP24ChiFeature2RequestObjecthP20ChiFeature2StageInfoP21ChiFeature2IdentifierP11ChiMetadatajPv+0x1b8>
0xe000 <_ZNK24ChiFeature2MCReprocessRT16OnMetadataResultEP24ChiFeature2RequestObjecthP20ChiFeature2StageInfoP21ChiFeature2IdentifierP11ChiMetadatajPv+0x1c4>
<_ZN6ChiLog9LogSystemEPKcS1_S1_S1_iS1_z@plt>
<_ZNK24ChiFeature2MCReprocessRT16OnMetadataResultEP24ChiFeature2RequestObjecthP20ChiFeature2StageInfoP21ChiFeature2IdentifierP11ChiMetadatajPv+0x310>
0x45000 <_ZNK24ChiFeature2MCReprocessRT16OnMetadataResultEP24ChiFeature2RequestObjecthP20ChiFeature2StageInfoP21ChiFeature2IdentifierP11ChiMetadatajPv+0x2cc>
#0, 0x21988 <_ZNK24ChiFeature2MCReprocessRT16OnMetadataResultEP24ChiFeature2RequestObjecthP20ChiFeature2StageInfoP21ChiFeature2IdentifierP11ChiMetadatajPv+0x310>
0x45000 <_ZNK24ChiFeature2MCReprocessRT16OnMetadataResultEP24ChiFeature2RequestObjecthP20ChiFeature2StageInfoP21ChiFeature2IdentifierP11ChiMetadatajPv+0x2e8>
<_ZNK24ChiFeature2MCReprocessRT16OnMetadataResultEP24ChiFeature2RequestObjecthP20ChiFeature2StageInfoP21ChiFeature2IdentifierP11ChiMetadatajPv+0x2c0>
0x11000 <_ZNK24ChiFeature2MCReprocessRT16OnMetadataResultEP24ChiFeature2RequestObjecthP20ChiFeature2StageInfoP21ChiFeature2IdentifierP11ChiMetadatajPv+0x238>
0x11000 <_ZNK24ChiFeature2MCReprocessRT16OnMetadataResultEP24ChiFeature2RequestObjecthP20ChiFeature2StageInfoP21ChiFeature2IdentifierP11ChiMetadatajPv+0x254>
0xb000 <_ZNK24ChiFeature2MCReprocessRT16OnMetadataResultEP24ChiFeature2RequestObjecthP20ChiFeature2StageInfoP21ChiFeature2IdentifierP11ChiMetadatajPv+0x240>
0xc000 <_ZNK24ChiFeature2MCReprocessRT16OnMetadataResultEP24ChiFeature2RequestObjecthP20ChiFeature2StageInfoP21ChiFeature2IdentifierP11ChiMetadatajPv+0x248>
0x11000 <_ZNK24ChiFeature2MCReprocessRT16OnMetadataResultEP24ChiFeature2RequestObjecthP20ChiFeature2StageInfoP21ChiFeature2IdentifierP11ChiMetadatajPv+0x280>
0x11000 <_ZNK24ChiFeature2MCReprocessRT16OnMetadataResultEP24ChiFeature2RequestObjecthP20ChiFeature2StageInfoP21ChiFeature2IdentifierP11ChiMetadatajPv+0x29c>
0xb000 <_ZNK24ChiFeature2MCReprocessRT16OnMetadataResultEP24ChiFeature2RequestObjecthP20ChiFeature2StageInfoP21ChiFeature2IdentifierP11ChiMetadatajPv+0x28c>
0xc000 <_ZNK24ChiFeature2MCReprocessRT16OnMetadataResultEP24ChiFeature2RequestObjecthP20ChiFeature2StageInfoP21ChiFeature2IdentifierP11ChiMetadatajPv+0x294>
0xd000 <_ZNK24ChiFeature2MCReprocessRT16OnMetadataResultEP24ChiFeature2RequestObjecthP20ChiFeature2StageInfoP21ChiFeature2IdentifierP11ChiMetadatajPv+0x29c>
<_ZN6ChiLog9LogSystemEPKcS1_S1_S1_iS1_z@plt>
<_ZN15ExtensionModule11GetInstanceEv@plt>
0x224b0 <_ZNK24ChiFeature2MCReprocessRT16OnMetadataResultEP24ChiFeature2RequestObjecthP20ChiFeature2StageInfoP21ChiFeature2IdentifierP11ChiMetadatajPv+0xe38>
<_ZNK24ChiFeature2MCReprocessRT16OnMetadataResultEP24ChiFeature2RequestObjecthP20ChiFeature2StageInfoP21ChiFeature2IdentifierP11ChiMetadatajPv+0xe38>
0x224b0 <_ZNK24ChiFeature2MCReprocessRT16OnMetadataResultEP24ChiFeature2RequestObjecthP20ChiFeature2StageInfoP21ChiFeature2IdentifierP11ChiMetadatajPv+0xe38>
0xe000 <_ZNK24ChiFeature2MCReprocessRT16OnMetadataResultEP24ChiFeature2RequestObjecthP20ChiFeature2StageInfoP21ChiFeature2IdentifierP11ChiMetadatajPv+0x30c>
0xf000 <_ZNK24ChiFeature2MCReprocessRT16OnMetadataResultEP24ChiFeature2RequestObjecthP20ChiFeature2StageInfoP21ChiFeature2IdentifierP11ChiMetadatajPv+0x314>
0x21ba4 <_ZNK24ChiFeature2MCReprocessRT16OnMetadataResultEP24ChiFeature2RequestObjecthP20ChiFeature2StageInfoP21ChiFeature2IdentifierP11ChiMetadatajPv+0x52c>
0x21ba4 <_ZNK24ChiFeature2MCReprocessRT16OnMetadataResultEP24ChiFeature2RequestObjecthP20ChiFeature2StageInfoP21ChiFeature2IdentifierP11ChiMetadatajPv+0x52c>
0xe000 <_ZNK24ChiFeature2MCReprocessRT16OnMetadataResultEP24ChiFeature2RequestObjecthP20ChiFeature2StageInfoP21ChiFeature2IdentifierP11ChiMetadatajPv+0x338>
0xf000 <_ZNK24ChiFeature2MCReprocessRT16OnMetadataResultEP24ChiFeature2RequestObjecthP20ChiFeature2StageInfoP21ChiFeature2IdentifierP11ChiMetadatajPv+0x340>
<_ZN19ChiFeature2DataPool6SetTagEPKcS1_PKvjj@plt>
0x21adc <_ZNK24ChiFeature2MCReprocessRT16OnMetadataResultEP24ChiFeature2RequestObjecthP20ChiFeature2StageInfoP21ChiFeature2IdentifierP11ChiMetadatajPv+0x464>
0x45000 <_ZNK24ChiFeature2MCReprocessRT16OnMetadataResultEP24ChiFeature2RequestObjecthP20ChiFeature2StageInfoP21ChiFeature2IdentifierP11ChiMetadatajPv+0x43c>
#0, 0x21adc <_ZNK24ChiFeature2MCReprocessRT16OnMetadataResultEP24ChiFeature2RequestObjecthP20ChiFeature2StageInfoP21ChiFeature2IdentifierP11ChiMetadatajPv+0x464>
0x45000 <_ZNK24ChiFeature2MCReprocessRT16OnMetadataResultEP24ChiFeature2RequestObjecthP20ChiFeature2StageInfoP21ChiFeature2IdentifierP11ChiMetadatajPv+0x44c>
<_ZNK24ChiFeature2MCReprocessRT16OnMetadataResultEP24ChiFeature2RequestObjecthP20ChiFeature2StageInfoP21ChiFeature2IdentifierP11ChiMetadatajPv+0x418>
0x11000 <_ZNK24ChiFeature2MCReprocessRT16OnMetadataResultEP24ChiFeature2RequestObjecthP20ChiFeature2StageInfoP21ChiFeature2IdentifierP11ChiMetadatajPv+0x394>
0x11000 <_ZNK24ChiFeature2MCReprocessRT16OnMetadataResultEP24ChiFeature2RequestObjecthP20ChiFeature2StageInfoP21ChiFeature2IdentifierP11ChiMetadatajPv+0x3b0>
0x11000 <_ZNK24ChiFeature2MCReprocessRT16OnMetadataResultEP24ChiFeature2RequestObjecthP20ChiFeature2StageInfoP21ChiFeature2IdentifierP11ChiMetadatajPv+0x3b4>
0xc000 <_ZNK24ChiFeature2MCReprocessRT16OnMetadataResultEP24ChiFeature2RequestObjecthP20ChiFeature2StageInfoP21ChiFeature2IdentifierP11ChiMetadatajPv+0x3a4>
0x11000 <_ZNK24ChiFeature2MCReprocessRT16OnMetadataResultEP24ChiFeature2RequestObjecthP20ChiFeature2StageInfoP21ChiFeature2IdentifierP11ChiMetadatajPv+0x3d8>
0x11000 <_ZNK24ChiFeature2MCReprocessRT16OnMetadataResultEP24ChiFeature2RequestObjecthP20ChiFeature2StageInfoP21ChiFeature2IdentifierP11ChiMetadatajPv+0x3f4>
0xb000 <_ZNK24ChiFeature2MCReprocessRT16OnMetadataResultEP24ChiFeature2RequestObjecthP20ChiFeature2StageInfoP21ChiFeature2IdentifierP11ChiMetadatajPv+0x3e4>
0xc000 <_ZNK24ChiFeature2MCReprocessRT16OnMetadataResultEP24ChiFeature2RequestObjecthP20ChiFeature2StageInfoP21ChiFeature2IdentifierP11ChiMetadatajPv+0x3ec>
0xb000 <_ZNK24ChiFeature2MCReprocessRT16OnMetadataResultEP24ChiFeature2RequestObjecthP20ChiFeature2StageInfoP21ChiFeature2IdentifierP11ChiMetadatajPv+0x3ec>
<_ZN6ChiLog9LogSystemEPKcS1_S1_S1_iS1_z@plt>
0x45000 <_ZNK24ChiFeature2MCReprocessRT16OnMetadataResultEP24ChiFeature2RequestObjecthP20ChiFeature2StageInfoP21ChiFeature2IdentifierP11ChiMetadatajPv+0x4f4>
#5, 0x21ba4 <_ZNK24ChiFeature2MCReprocessRT16OnMetadataResultEP24ChiFeature2RequestObjecthP20ChiFeature2StageInfoP21ChiFeature2IdentifierP11ChiMetadatajPv+0x52c>
0x45000 <_ZNK24ChiFeature2MCReprocessRT16OnMetadataResultEP24ChiFeature2RequestObjecthP20ChiFeature2StageInfoP21ChiFeature2IdentifierP11ChiMetadatajPv+0x504>
<_ZNK24ChiFeature2MCReprocessRT16OnMetadataResultEP24ChiFeature2RequestObjecthP20ChiFeature2StageInfoP21ChiFeature2IdentifierP11ChiMetadatajPv+0x4dc>
0x11000 <_ZNK24ChiFeature2MCReprocessRT16OnMetadataResultEP24ChiFeature2RequestObjecthP20ChiFeature2StageInfoP21ChiFeature2IdentifierP11ChiMetadatajPv+0x44c>
0x11000 <_ZNK24ChiFeature2MCReprocessRT16OnMetadataResultEP24ChiFeature2RequestObjecthP20ChiFeature2StageInfoP21ChiFeature2IdentifierP11ChiMetadatajPv+0x46c>
0xc000 <_ZNK24ChiFeature2MCReprocessRT16OnMetadataResultEP24ChiFeature2RequestObjecthP20ChiFeature2StageInfoP21ChiFeature2IdentifierP11ChiMetadatajPv+0x45c>
0xc000 <_ZNK24ChiFeature2MCReprocessRT16OnMetadataResultEP24ChiFeature2RequestObjecthP20ChiFeature2StageInfoP21ChiFeature2IdentifierP11ChiMetadatajPv+0x460>
0x11000 <_ZNK24ChiFeature2MCReprocessRT16OnMetadataResultEP24ChiFeature2RequestObjecthP20ChiFeature2StageInfoP21ChiFeature2IdentifierP11ChiMetadatajPv+0x49c>
0x10000 <_ZNK24ChiFeature2MCReprocessRT16OnMetadataResultEP24ChiFeature2RequestObjecthP20ChiFeature2StageInfoP21ChiFeature2IdentifierP11ChiMetadatajPv+0x4bc>
0xf000 <_ZNK24ChiFeature2MCReprocessRT16OnMetadataResultEP24ChiFeature2RequestObjecthP20ChiFeature2StageInfoP21ChiFeature2IdentifierP11ChiMetadatajPv+0x4bc>
0xc000 <_ZNK24ChiFeature2MCReprocessRT16OnMetadataResultEP24ChiFeature2RequestObjecthP20ChiFeature2StageInfoP21ChiFeature2IdentifierP11ChiMetadatajPv+0x4b4>
0x10000 <_ZNK24ChiFeature2MCReprocessRT16OnMetadataResultEP24ChiFeature2RequestObjecthP20ChiFeature2StageInfoP21ChiFeature2IdentifierP11ChiMetadatajPv+0x4c8>
<_ZN6ChiLog9LogSystemEPKcS1_S1_S1_iS1_z@plt>
0xe000 <_ZNK24ChiFeature2MCReprocessRT16OnMetadataResultEP24ChiFeature2RequestObjecthP20ChiFeature2StageInfoP21ChiFeature2IdentifierP11ChiMetadatajPv+0x510>
0xe000 <_ZNK24ChiFeature2MCReprocessRT16OnMetadataResultEP24ChiFeature2RequestObjecthP20ChiFeature2StageInfoP21ChiFeature2IdentifierP11ChiMetadatajPv+0x514>
0x21e40 <_ZNK24ChiFeature2MCReprocessRT16OnMetadataResultEP24ChiFeature2RequestObjecthP20ChiFeature2StageInfoP21ChiFeature2IdentifierP11ChiMetadatajPv+0x7c8>
0x21e40 <_ZNK24ChiFeature2MCReprocessRT16OnMetadataResultEP24ChiFeature2RequestObjecthP20ChiFeature2StageInfoP21ChiFeature2IdentifierP11ChiMetadatajPv+0x7c8>
0x45000 <_ZNK24ChiFeature2MCReprocessRT16OnMetadataResultEP24ChiFeature2RequestObjecthP20ChiFeature2StageInfoP21ChiFeature2IdentifierP11ChiMetadatajPv+0x618>
0x11000 <_ZNK24ChiFeature2MCReprocessRT16OnMetadataResultEP24ChiFeature2RequestObjecthP20ChiFeature2StageInfoP21ChiFeature2IdentifierP11ChiMetadatajPv+0x54c>
<_ZNK24ChiFeature2MCReprocessRT16OnMetadataResultEP24ChiFeature2RequestObjecthP20ChiFeature2StageInfoP21ChiFeature2IdentifierP11ChiMetadatajPv+0x638>
<_ZNK24ChiFeature2MCReprocessRT16OnMetadataResultEP24ChiFeature2RequestObjecthP20ChiFeature2StageInfoP21ChiFeature2IdentifierP11ChiMetadatajPv+0xfb8>
0x10000 <_ZNK24ChiFeature2MCReprocessRT16OnMetadataResultEP24ChiFeature2RequestObjecthP20ChiFeature2StageInfoP21ChiFeature2IdentifierP11ChiMetadatajPv+0x580>
0xf000 <_ZNK24ChiFeature2MCReprocessRT16OnMetadataResultEP24ChiFeature2RequestObjecthP20ChiFeature2StageInfoP21ChiFeature2IdentifierP11ChiMetadatajPv+0x584>
0xf000 <_ZNK24ChiFeature2MCReprocessRT16OnMetadataResultEP24ChiFeature2RequestObjecthP20ChiFeature2StageInfoP21ChiFeature2IdentifierP11ChiMetadatajPv+0x58c>
0xc000 <_ZNK24ChiFeature2MCReprocessRT16OnMetadataResultEP24ChiFeature2RequestObjecthP20ChiFeature2StageInfoP21ChiFeature2IdentifierP11ChiMetadatajPv+0x5a4>
<_ZN6ChiLog9LogSystemEPKcS1_S1_S1_iS1_z@plt>
<_ZNK24ChiFeature2MCReprocessRT16OnMetadataResultEP24ChiFeature2RequestObjecthP20ChiFeature2StageInfoP21ChiFeature2IdentifierP11ChiMetadatajPv+0xfb4>
<_ZNK24ChiFeature2MCReprocessRT16OnMetadataResultEP24ChiFeature2RequestObjecthP20ChiFeature2StageInfoP21ChiFeature2IdentifierP11ChiMetadatajPv+0x6f8>
#5, 0x21c9c <_ZNK24ChiFeature2MCReprocessRT16OnMetadataResultEP24ChiFeature2RequestObjecthP20ChiFeature2StageInfoP21ChiFeature2IdentifierP11ChiMetadatajPv+0x624>
0x45000 <_ZNK24ChiFeature2MCReprocessRT16OnMetadataResultEP24ChiFeature2RequestObjecthP20ChiFeature2StageInfoP21ChiFeature2IdentifierP11ChiMetadatajPv+0x6dc>
<_ZNK24ChiFeature2MCReprocessRT16OnMetadataResultEP24ChiFeature2RequestObjecthP20ChiFeature2StageInfoP21ChiFeature2IdentifierP11ChiMetadatajPv+0x5ac>
<_ZNK24ChiFeature2MCReprocessRT16OnMetadataResultEP24ChiFeature2RequestObjecthP20ChiFeature2StageInfoP21ChiFeature2IdentifierP11ChiMetadatajPv+0xfb8>
0x11000 <_ZNK24ChiFeature2MCReprocessRT16OnMetadataResultEP24ChiFeature2RequestObjecthP20ChiFeature2StageInfoP21ChiFeature2IdentifierP11ChiMetadatajPv+0x668>
0xc000 <_ZNK24ChiFeature2MCReprocessRT16OnMetadataResultEP24ChiFeature2RequestObjecthP20ChiFeature2StageInfoP21ChiFeature2IdentifierP11ChiMetadatajPv+0x65c>
0xc000 <_ZNK24ChiFeature2MCReprocessRT16OnMetadataResultEP24ChiFeature2RequestObjecthP20ChiFeature2StageInfoP21ChiFeature2IdentifierP11ChiMetadatajPv+0x664>
<_ZNK24ChiFeature2MCReprocessRT16OnMetadataResultEP24ChiFeature2RequestObjecthP20ChiFeature2StageInfoP21ChiFeature2IdentifierP11ChiMetadatajPv+0x5b4>
0xe000 <_ZNK24ChiFeature2MCReprocessRT16OnMetadataResultEP24ChiFeature2RequestObjecthP20ChiFeature2StageInfoP21ChiFeature2IdentifierP11ChiMetadatajPv+0x6ac>
0xe000 <_ZNK24ChiFeature2MCReprocessRT16OnMetadataResultEP24ChiFeature2RequestObjecthP20ChiFeature2StageInfoP21ChiFeature2IdentifierP11ChiMetadatajPv+0x6b0>
<_ZN19ChiFeature2DataPool6SetTagEPKcS1_PKvjj@plt>
0x21e40 <_ZNK24ChiFeature2MCReprocessRT16OnMetadataResultEP24ChiFeature2RequestObjecthP20ChiFeature2StageInfoP21ChiFeature2IdentifierP11ChiMetadatajPv+0x7c8>
#0, 0x21e40 <_ZNK24ChiFeature2MCReprocessRT16OnMetadataResultEP24ChiFeature2RequestObjecthP20ChiFeature2StageInfoP21ChiFeature2IdentifierP11ChiMetadatajPv+0x7c8>
0x45000 <_ZNK24ChiFeature2MCReprocessRT16OnMetadataResultEP24ChiFeature2RequestObjecthP20ChiFeature2StageInfoP21ChiFeature2IdentifierP11ChiMetadatajPv+0x7c8>
<_ZNK24ChiFeature2MCReprocessRT16OnMetadataResultEP24ChiFeature2RequestObjecthP20ChiFeature2StageInfoP21ChiFeature2IdentifierP11ChiMetadatajPv+0x788>
0x11000 <_ZNK24ChiFeature2MCReprocessRT16OnMetadataResultEP24ChiFeature2RequestObjecthP20ChiFeature2StageInfoP21ChiFeature2IdentifierP11ChiMetadatajPv+0x720>
0xb000 <_ZNK24ChiFeature2MCReprocessRT16OnMetadataResultEP24ChiFeature2RequestObjecthP20ChiFeature2StageInfoP21ChiFeature2IdentifierP11ChiMetadatajPv+0x70c>
0xc000 <_ZNK24ChiFeature2MCReprocessRT16OnMetadataResultEP24ChiFeature2RequestObjecthP20ChiFeature2StageInfoP21ChiFeature2IdentifierP11ChiMetadatajPv+0x714>
0x11000 <_ZNK24ChiFeature2MCReprocessRT16OnMetadataResultEP24ChiFeature2RequestObjecthP20ChiFeature2StageInfoP21ChiFeature2IdentifierP11ChiMetadatajPv+0x75c>
0xb000 <_ZNK24ChiFeature2MCReprocessRT16OnMetadataResultEP24ChiFeature2RequestObjecthP20ChiFeature2StageInfoP21ChiFeature2IdentifierP11ChiMetadatajPv+0x74c>
0xc000 <_ZNK24ChiFeature2MCReprocessRT16OnMetadataResultEP24ChiFeature2RequestObjecthP20ChiFeature2StageInfoP21ChiFeature2IdentifierP11ChiMetadatajPv+0x754>
0xc000 <_ZNK24ChiFeature2MCReprocessRT16OnMetadataResultEP24ChiFeature2RequestObjecthP20ChiFeature2StageInfoP21ChiFeature2IdentifierP11ChiMetadatajPv+0x758>
<_ZN6ChiLog9LogSystemEPKcS1_S1_S1_iS1_z@plt>
0xd000 <_ZNK24ChiFeature2MCReprocessRT16OnMetadataResultEP24ChiFeature2RequestObjecthP20ChiFeature2StageInfoP21ChiFeature2IdentifierP11ChiMetadatajPv+0x790>
0xc000 <_ZNK24ChiFeature2MCReprocessRT16OnMetadataResultEP24ChiFeature2RequestObjecthP20ChiFeature2StageInfoP21ChiFeature2IdentifierP11ChiMetadatajPv+0x790>
0x21f70 <_ZNK24ChiFeature2MCReprocessRT16OnMetadataResultEP24ChiFeature2RequestObjecthP20ChiFeature2StageInfoP21ChiFeature2IdentifierP11ChiMetadatajPv+0x8f8>
0x21f70 <_ZNK24ChiFeature2MCReprocessRT16OnMetadataResultEP24ChiFeature2RequestObjecthP20ChiFeature2StageInfoP21ChiFeature2IdentifierP11ChiMetadatajPv+0x8f8>
0xd000 <_ZNK24ChiFeature2MCReprocessRT16OnMetadataResultEP24ChiFeature2RequestObjecthP20ChiFeature2StageInfoP21ChiFeature2IdentifierP11ChiMetadatajPv+0x7c0>
0xc000 <_ZNK24ChiFeature2MCReprocessRT16OnMetadataResultEP24ChiFeature2RequestObjecthP20ChiFeature2StageInfoP21ChiFeature2IdentifierP11ChiMetadatajPv+0x7c0>
<_ZN19ChiFeature2DataPool6SetTagEPKcS1_PKvjj@plt>
0x22038 <_ZNK24ChiFeature2MCReprocessRT16OnMetadataResultEP24ChiFeature2RequestObjecthP20ChiFeature2StageInfoP21ChiFeature2IdentifierP11ChiMetadatajPv+0x9c0>
0x45000 <_ZNK24ChiFeature2MCReprocessRT16OnMetadataResultEP24ChiFeature2RequestObjecthP20ChiFeature2StageInfoP21ChiFeature2IdentifierP11ChiMetadatajPv+0x8d0>
#0, 0x22038 <_ZNK24ChiFeature2MCReprocessRT16OnMetadataResultEP24ChiFeature2RequestObjecthP20ChiFeature2StageInfoP21ChiFeature2IdentifierP11ChiMetadatajPv+0x9c0>
0x45000 <_ZNK24ChiFeature2MCReprocessRT16OnMetadataResultEP24ChiFeature2RequestObjecthP20ChiFeature2StageInfoP21ChiFeature2IdentifierP11ChiMetadatajPv+0x8e0>
<_ZNK24ChiFeature2MCReprocessRT16OnMetadataResultEP24ChiFeature2RequestObjecthP20ChiFeature2StageInfoP21ChiFeature2IdentifierP11ChiMetadatajPv+0x8a8>
0x11000 <_ZNK24ChiFeature2MCReprocessRT16OnMetadataResultEP24ChiFeature2RequestObjecthP20ChiFeature2StageInfoP21ChiFeature2IdentifierP11ChiMetadatajPv+0x824>
0x11000 <_ZNK24ChiFeature2MCReprocessRT16OnMetadataResultEP24ChiFeature2RequestObjecthP20ChiFeature2StageInfoP21ChiFeature2IdentifierP11ChiMetadatajPv+0x840>
0xf000 <_ZNK24ChiFeature2MCReprocessRT16OnMetadataResultEP24ChiFeature2RequestObjecthP20ChiFeature2StageInfoP21ChiFeature2IdentifierP11ChiMetadatajPv+0x83c>
0xc000 <_ZNK24ChiFeature2MCReprocessRT16OnMetadataResultEP24ChiFeature2RequestObjecthP20ChiFeature2StageInfoP21ChiFeature2IdentifierP11ChiMetadatajPv+0x834>
0x11000 <_ZNK24ChiFeature2MCReprocessRT16OnMetadataResultEP24ChiFeature2RequestObjecthP20ChiFeature2StageInfoP21ChiFeature2IdentifierP11ChiMetadatajPv+0x868>
0x11000 <_ZNK24ChiFeature2MCReprocessRT16OnMetadataResultEP24ChiFeature2RequestObjecthP20ChiFeature2StageInfoP21ChiFeature2IdentifierP11ChiMetadatajPv+0x884>
0xb000 <_ZNK24ChiFeature2MCReprocessRT16OnMetadataResultEP24ChiFeature2RequestObjecthP20ChiFeature2StageInfoP21ChiFeature2IdentifierP11ChiMetadatajPv+0x874>
0xc000 <_ZNK24ChiFeature2MCReprocessRT16OnMetadataResultEP24ChiFeature2RequestObjecthP20ChiFeature2StageInfoP21ChiFeature2IdentifierP11ChiMetadatajPv+0x87c>
0xb000 <_ZNK24ChiFeature2MCReprocessRT16OnMetadataResultEP24ChiFeature2RequestObjecthP20ChiFeature2StageInfoP21ChiFeature2IdentifierP11ChiMetadatajPv+0x87c>
<_ZN6ChiLog9LogSystemEPKcS1_S1_S1_iS1_z@plt>
<_ZNK24ChiFeature2MCReprocessRT16OnMetadataResultEP24ChiFeature2RequestObjecthP20ChiFeature2StageInfoP21ChiFeature2IdentifierP11ChiMetadatajPv+0x9c0>
0x45000 <_ZNK24ChiFeature2MCReprocessRT16OnMetadataResultEP24ChiFeature2RequestObjecthP20ChiFeature2StageInfoP21ChiFeature2IdentifierP11ChiMetadatajPv+0x988>
#1, 0x22038 <_ZNK24ChiFeature2MCReprocessRT16OnMetadataResultEP24ChiFeature2RequestObjecthP20ChiFeature2StageInfoP21ChiFeature2IdentifierP11ChiMetadatajPv+0x9c0>
0x45000 <_ZNK24ChiFeature2MCReprocessRT16OnMetadataResultEP24ChiFeature2RequestObjecthP20ChiFeature2StageInfoP21ChiFeature2IdentifierP11ChiMetadatajPv+0x9a0>
<_ZNK24ChiFeature2MCReprocessRT16OnMetadataResultEP24ChiFeature2RequestObjecthP20ChiFeature2StageInfoP21ChiFeature2IdentifierP11ChiMetadatajPv+0x970>
0x11000 <_ZNK24ChiFeature2MCReprocessRT16OnMetadataResultEP24ChiFeature2RequestObjecthP20ChiFeature2StageInfoP21ChiFeature2IdentifierP11ChiMetadatajPv+0x8e4>
0x11000 <_ZNK24ChiFeature2MCReprocessRT16OnMetadataResultEP24ChiFeature2RequestObjecthP20ChiFeature2StageInfoP21ChiFeature2IdentifierP11ChiMetadatajPv+0x900>
0xc000 <_ZNK24ChiFeature2MCReprocessRT16OnMetadataResultEP24ChiFeature2RequestObjecthP20ChiFeature2StageInfoP21ChiFeature2IdentifierP11ChiMetadatajPv+0x8f0>
0xc000 <_ZNK24ChiFeature2MCReprocessRT16OnMetadataResultEP24ChiFeature2RequestObjecthP20ChiFeature2StageInfoP21ChiFeature2IdentifierP11ChiMetadatajPv+0x8f4>
0x11000 <_ZNK24ChiFeature2MCReprocessRT16OnMetadataResultEP24ChiFeature2RequestObjecthP20ChiFeature2StageInfoP21ChiFeature2IdentifierP11ChiMetadatajPv+0x930>
0xc000 <_ZNK24ChiFeature2MCReprocessRT16OnMetadataResultEP24ChiFeature2RequestObjecthP20ChiFeature2StageInfoP21ChiFeature2IdentifierP11ChiMetadatajPv+0x934>
0xf000 <_ZNK24ChiFeature2MCReprocessRT16OnMetadataResultEP24ChiFeature2RequestObjecthP20ChiFeature2StageInfoP21ChiFeature2IdentifierP11ChiMetadatajPv+0x948>
0xc000 <_ZNK24ChiFeature2MCReprocessRT16OnMetadataResultEP24ChiFeature2RequestObjecthP20ChiFeature2StageInfoP21ChiFeature2IdentifierP11ChiMetadatajPv+0x940>
0xc000 <_ZNK24ChiFeature2MCReprocessRT16OnMetadataResultEP24ChiFeature2RequestObjecthP20ChiFeature2StageInfoP21ChiFeature2IdentifierP11ChiMetadatajPv+0x944>
<_ZN6ChiLog9LogSystemEPKcS1_S1_S1_iS1_z@plt>
0xd000 <_ZNK24ChiFeature2MCReprocessRT16OnMetadataResultEP24ChiFeature2RequestObjecthP20ChiFeature2StageInfoP21ChiFeature2IdentifierP11ChiMetadatajPv+0x984>
0xc000 <_ZNK24ChiFeature2MCReprocessRT16OnMetadataResultEP24ChiFeature2RequestObjecthP20ChiFeature2StageInfoP21ChiFeature2IdentifierP11ChiMetadatajPv+0x984>
0x22154 <_ZNK24ChiFeature2MCReprocessRT16OnMetadataResultEP24ChiFeature2RequestObjecthP20ChiFeature2StageInfoP21ChiFeature2IdentifierP11ChiMetadatajPv+0xadc>
0x22154 <_ZNK24ChiFeature2MCReprocessRT16OnMetadataResultEP24ChiFeature2RequestObjecthP20ChiFeature2StageInfoP21ChiFeature2IdentifierP11ChiMetadatajPv+0xadc>
0xd000 <_ZNK24ChiFeature2MCReprocessRT16OnMetadataResultEP24ChiFeature2RequestObjecthP20ChiFeature2StageInfoP21ChiFeature2IdentifierP11ChiMetadatajPv+0x9ac>
0xc000 <_ZNK24ChiFeature2MCReprocessRT16OnMetadataResultEP24ChiFeature2RequestObjecthP20ChiFeature2StageInfoP21ChiFeature2IdentifierP11ChiMetadatajPv+0x9ac>
<_ZN19ChiFeature2DataPool6SetTagEPKcS1_PKvjj@plt>
0x22214 <_ZNK24ChiFeature2MCReprocessRT16OnMetadataResultEP24ChiFeature2RequestObjecthP20ChiFeature2StageInfoP21ChiFeature2IdentifierP11ChiMetadatajPv+0xb9c>
0x45000 <_ZNK24ChiFeature2MCReprocessRT16OnMetadataResultEP24ChiFeature2RequestObjecthP20ChiFeature2StageInfoP21ChiFeature2IdentifierP11ChiMetadatajPv+0xab4>
#0, 0x22214 <_ZNK24ChiFeature2MCReprocessRT16OnMetadataResultEP24ChiFeature2RequestObjecthP20ChiFeature2StageInfoP21ChiFeature2IdentifierP11ChiMetadatajPv+0xb9c>
0x45000 <_ZNK24ChiFeature2MCReprocessRT16OnMetadataResultEP24ChiFeature2RequestObjecthP20ChiFeature2StageInfoP21ChiFeature2IdentifierP11ChiMetadatajPv+0xac4>
<_ZNK24ChiFeature2MCReprocessRT16OnMetadataResultEP24ChiFeature2RequestObjecthP20ChiFeature2StageInfoP21ChiFeature2IdentifierP11ChiMetadatajPv+0xa90>
0x11000 <_ZNK24ChiFeature2MCReprocessRT16OnMetadataResultEP24ChiFeature2RequestObjecthP20ChiFeature2StageInfoP21ChiFeature2IdentifierP11ChiMetadatajPv+0xa08>
0x11000 <_ZNK24ChiFeature2MCReprocessRT16OnMetadataResultEP24ChiFeature2RequestObjecthP20ChiFeature2StageInfoP21ChiFeature2IdentifierP11ChiMetadatajPv+0xa24>
0x10000 <_ZNK24ChiFeature2MCReprocessRT16OnMetadataResultEP24ChiFeature2RequestObjecthP20ChiFeature2StageInfoP21ChiFeature2IdentifierP11ChiMetadatajPv+0xa24>
0xc000 <_ZNK24ChiFeature2MCReprocessRT16OnMetadataResultEP24ChiFeature2RequestObjecthP20ChiFeature2StageInfoP21ChiFeature2IdentifierP11ChiMetadatajPv+0xa18>
0x11000 <_ZNK24ChiFeature2MCReprocessRT16OnMetadataResultEP24ChiFeature2RequestObjecthP20ChiFeature2StageInfoP21ChiFeature2IdentifierP11ChiMetadatajPv+0xa4c>
0x11000 <_ZNK24ChiFeature2MCReprocessRT16OnMetadataResultEP24ChiFeature2RequestObjecthP20ChiFeature2StageInfoP21ChiFeature2IdentifierP11ChiMetadatajPv+0xa68>
0xb000 <_ZNK24ChiFeature2MCReprocessRT16OnMetadataResultEP24ChiFeature2RequestObjecthP20ChiFeature2StageInfoP21ChiFeature2IdentifierP11ChiMetadatajPv+0xa58>
0xc000 <_ZNK24ChiFeature2MCReprocessRT16OnMetadataResultEP24ChiFeature2RequestObjecthP20ChiFeature2StageInfoP21ChiFeature2IdentifierP11ChiMetadatajPv+0xa60>
0xd000 <_ZNK24ChiFeature2MCReprocessRT16OnMetadataResultEP24ChiFeature2RequestObjecthP20ChiFeature2StageInfoP21ChiFeature2IdentifierP11ChiMetadatajPv+0xa68>
<_ZN6ChiLog9LogSystemEPKcS1_S1_S1_iS1_z@plt>
<_ZNK24ChiFeature2MCReprocessRT16OnMetadataResultEP24ChiFeature2RequestObjecthP20ChiFeature2StageInfoP21ChiFeature2IdentifierP11ChiMetadatajPv+0xb9c>
0x45000 <_ZNK24ChiFeature2MCReprocessRT16OnMetadataResultEP24ChiFeature2RequestObjecthP20ChiFeature2StageInfoP21ChiFeature2IdentifierP11ChiMetadatajPv+0xb68>
#1, 0x22214 <_ZNK24ChiFeature2MCReprocessRT16OnMetadataResultEP24ChiFeature2RequestObjecthP20ChiFeature2StageInfoP21ChiFeature2IdentifierP11ChiMetadatajPv+0xb9c>
0x45000 <_ZNK24ChiFeature2MCReprocessRT16OnMetadataResultEP24ChiFeature2RequestObjecthP20ChiFeature2StageInfoP21ChiFeature2IdentifierP11ChiMetadatajPv+0xb78>
<_ZNK24ChiFeature2MCReprocessRT16OnMetadataResultEP24ChiFeature2RequestObjecthP20ChiFeature2StageInfoP21ChiFeature2IdentifierP11ChiMetadatajPv+0xb4c>
0x11000 <_ZNK24ChiFeature2MCReprocessRT16OnMetadataResultEP24ChiFeature2RequestObjecthP20ChiFeature2StageInfoP21ChiFeature2IdentifierP11ChiMetadatajPv+0xabc>
0x11000 <_ZNK24ChiFeature2MCReprocessRT16OnMetadataResultEP24ChiFeature2RequestObjecthP20ChiFeature2StageInfoP21ChiFeature2IdentifierP11ChiMetadatajPv+0xad8>
0xb000 <_ZNK24ChiFeature2MCReprocessRT16OnMetadataResultEP24ChiFeature2RequestObjecthP20ChiFeature2StageInfoP21ChiFeature2IdentifierP11ChiMetadatajPv+0xac4>
0xc000 <_ZNK24ChiFeature2MCReprocessRT16OnMetadataResultEP24ChiFeature2RequestObjecthP20ChiFeature2StageInfoP21ChiFeature2IdentifierP11ChiMetadatajPv+0xacc>
0x11000 <_ZNK24ChiFeature2MCReprocessRT16OnMetadataResultEP24ChiFeature2RequestObjecthP20ChiFeature2StageInfoP21ChiFeature2IdentifierP11ChiMetadatajPv+0xb08>
0xc000 <_ZNK24ChiFeature2MCReprocessRT16OnMetadataResultEP24ChiFeature2RequestObjecthP20ChiFeature2StageInfoP21ChiFeature2IdentifierP11ChiMetadatajPv+0xb10>
0xf000 <_ZNK24ChiFeature2MCReprocessRT16OnMetadataResultEP24ChiFeature2RequestObjecthP20ChiFeature2StageInfoP21ChiFeature2IdentifierP11ChiMetadatajPv+0xb24>
0xc000 <_ZNK24ChiFeature2MCReprocessRT16OnMetadataResultEP24ChiFeature2RequestObjecthP20ChiFeature2StageInfoP21ChiFeature2IdentifierP11ChiMetadatajPv+0xb1c>
0xe000 <_ZNK24ChiFeature2MCReprocessRT16OnMetadataResultEP24ChiFeature2RequestObjecthP20ChiFeature2StageInfoP21ChiFeature2IdentifierP11ChiMetadatajPv+0xb28>
<_ZN6ChiLog9LogSystemEPKcS1_S1_S1_iS1_z@plt>
<_ZN15ExtensionModule11GetInstanceEv@plt>
<_ZN15ExtensionModule15GetVendorTagOpsEP16ChiVendorTagsOps@plt>
0xc000 <_ZNK24ChiFeature2MCReprocessRT16OnMetadataResultEP24ChiFeature2RequestObjecthP20ChiFeature2StageInfoP21ChiFeature2IdentifierP11ChiMetadatajPv+0xb84>
0xb000 <_ZNK24ChiFeature2MCReprocessRT16OnMetadataResultEP24ChiFeature2RequestObjecthP20ChiFeature2StageInfoP21ChiFeature2IdentifierP11ChiMetadatajPv+0xb84>
0x45000 <_ZNK24ChiFeature2MCReprocessRT16OnMetadataResultEP24ChiFeature2RequestObjecthP20ChiFeature2StageInfoP21ChiFeature2IdentifierP11ChiMetadatajPv+0xcf8>
#5, 0x223c8 <_ZNK24ChiFeature2MCReprocessRT16OnMetadataResultEP24ChiFeature2RequestObjecthP20ChiFeature2StageInfoP21ChiFeature2IdentifierP11ChiMetadatajPv+0xd50>
0x45000 <_ZNK24ChiFeature2MCReprocessRT16OnMetadataResultEP24ChiFeature2RequestObjecthP20ChiFeature2StageInfoP21ChiFeature2IdentifierP11ChiMetadatajPv+0xd14>
<_ZNK24ChiFeature2MCReprocessRT16OnMetadataResultEP24ChiFeature2RequestObjecthP20ChiFeature2StageInfoP21ChiFeature2IdentifierP11ChiMetadatajPv+0xcf4>
0x11000 <_ZNK24ChiFeature2MCReprocessRT16OnMetadataResultEP24ChiFeature2RequestObjecthP20ChiFeature2StageInfoP21ChiFeature2IdentifierP11ChiMetadatajPv+0xc58>
0x11000 <_ZNK24ChiFeature2MCReprocessRT16OnMetadataResultEP24ChiFeature2RequestObjecthP20ChiFeature2StageInfoP21ChiFeature2IdentifierP11ChiMetadatajPv+0xc78>
0xe000 <_ZNK24ChiFeature2MCReprocessRT16OnMetadataResultEP24ChiFeature2RequestObjecthP20ChiFeature2StageInfoP21ChiFeature2IdentifierP11ChiMetadatajPv+0xc70>
0xc000 <_ZNK24ChiFeature2MCReprocessRT16OnMetadataResultEP24ChiFeature2RequestObjecthP20ChiFeature2StageInfoP21ChiFeature2IdentifierP11ChiMetadatajPv+0xc6c>
0x11000 <_ZNK24ChiFeature2MCReprocessRT16OnMetadataResultEP24ChiFeature2RequestObjecthP20ChiFeature2StageInfoP21ChiFeature2IdentifierP11ChiMetadatajPv+0xcb0>
0x10000 <_ZNK24ChiFeature2MCReprocessRT16OnMetadataResultEP24ChiFeature2RequestObjecthP20ChiFeature2StageInfoP21ChiFeature2IdentifierP11ChiMetadatajPv+0xcd0>
0xf000 <_ZNK24ChiFeature2MCReprocessRT16OnMetadataResultEP24ChiFeature2RequestObjecthP20ChiFeature2StageInfoP21ChiFeature2IdentifierP11ChiMetadatajPv+0xcd0>
0xc000 <_ZNK24ChiFeature2MCReprocessRT16OnMetadataResultEP24ChiFeature2RequestObjecthP20ChiFeature2StageInfoP21ChiFeature2IdentifierP11ChiMetadatajPv+0xcc8>
0xe000 <_ZNK24ChiFeature2MCReprocessRT16OnMetadataResultEP24ChiFeature2RequestObjecthP20ChiFeature2StageInfoP21ChiFeature2IdentifierP11ChiMetadatajPv+0xcd4>
<_ZN6ChiLog9LogSystemEPKcS1_S1_S1_iS1_z@plt>
0x224a8 <_ZNK24ChiFeature2MCReprocessRT16OnMetadataResultEP24ChiFeature2RequestObjecthP20ChiFeature2StageInfoP21ChiFeature2IdentifierP11ChiMetadatajPv+0xe30>
0x224a8 <_ZNK24ChiFeature2MCReprocessRT16OnMetadataResultEP24ChiFeature2RequestObjecthP20ChiFeature2StageInfoP21ChiFeature2IdentifierP11ChiMetadatajPv+0xe30>
0xc000 <_ZNK24ChiFeature2MCReprocessRT16OnMetadataResultEP24ChiFeature2RequestObjecthP20ChiFeature2StageInfoP21ChiFeature2IdentifierP11ChiMetadatajPv+0xd08>
0xb000 <_ZNK24ChiFeature2MCReprocessRT16OnMetadataResultEP24ChiFeature2RequestObjecthP20ChiFeature2StageInfoP21ChiFeature2IdentifierP11ChiMetadatajPv+0xd08>
<_ZN19ChiFeature2DataPool6SetTagEPKcS1_PKvjj@plt>
0x224a8 <_ZNK24ChiFeature2MCReprocessRT16OnMetadataResultEP24ChiFeature2RequestObjecthP20ChiFeature2StageInfoP21ChiFeature2IdentifierP11ChiMetadatajPv+0xe30>
#0, 0x224a8 <_ZNK24ChiFeature2MCReprocessRT16OnMetadataResultEP24ChiFeature2RequestObjecthP20ChiFeature2StageInfoP21ChiFeature2IdentifierP11ChiMetadatajPv+0xe30>
0x45000 <_ZNK24ChiFeature2MCReprocessRT16OnMetadataResultEP24ChiFeature2RequestObjecthP20ChiFeature2StageInfoP21ChiFeature2IdentifierP11ChiMetadatajPv+0xe1c>
<_ZNK24ChiFeature2MCReprocessRT16OnMetadataResultEP24ChiFeature2RequestObjecthP20ChiFeature2StageInfoP21ChiFeature2IdentifierP11ChiMetadatajPv+0xde8>
0x11000 <_ZNK24ChiFeature2MCReprocessRT16OnMetadataResultEP24ChiFeature2RequestObjecthP20ChiFeature2StageInfoP21ChiFeature2IdentifierP11ChiMetadatajPv+0xd60>
0x11000 <_ZNK24ChiFeature2MCReprocessRT16OnMetadataResultEP24ChiFeature2RequestObjecthP20ChiFeature2StageInfoP21ChiFeature2IdentifierP11ChiMetadatajPv+0xd7c>
0xd000 <_ZNK24ChiFeature2MCReprocessRT16OnMetadataResultEP24ChiFeature2RequestObjecthP20ChiFeature2StageInfoP21ChiFeature2IdentifierP11ChiMetadatajPv+0xd70>
0xc000 <_ZNK24ChiFeature2MCReprocessRT16OnMetadataResultEP24ChiFeature2RequestObjecthP20ChiFeature2StageInfoP21ChiFeature2IdentifierP11ChiMetadatajPv+0xd70>
0x11000 <_ZNK24ChiFeature2MCReprocessRT16OnMetadataResultEP24ChiFeature2RequestObjecthP20ChiFeature2StageInfoP21ChiFeature2IdentifierP11ChiMetadatajPv+0xda4>
0x11000 <_ZNK24ChiFeature2MCReprocessRT16OnMetadataResultEP24ChiFeature2RequestObjecthP20ChiFeature2StageInfoP21ChiFeature2IdentifierP11ChiMetadatajPv+0xdc0>
0xb000 <_ZNK24ChiFeature2MCReprocessRT16OnMetadataResultEP24ChiFeature2RequestObjecthP20ChiFeature2StageInfoP21ChiFeature2IdentifierP11ChiMetadatajPv+0xdb0>
0xc000 <_ZNK24ChiFeature2MCReprocessRT16OnMetadataResultEP24ChiFeature2RequestObjecthP20ChiFeature2StageInfoP21ChiFeature2IdentifierP11ChiMetadatajPv+0xdb8>
0xd000 <_ZNK24ChiFeature2MCReprocessRT16OnMetadataResultEP24ChiFeature2RequestObjecthP20ChiFeature2StageInfoP21ChiFeature2IdentifierP11ChiMetadatajPv+0xdc0>
<_ZN6ChiLog9LogSystemEPKcS1_S1_S1_iS1_z@plt>
0x22510 <_ZNK24ChiFeature2MCReprocessRT16OnMetadataResultEP24ChiFeature2RequestObjecthP20ChiFeature2StageInfoP21ChiFeature2IdentifierP11ChiMetadatajPv+0xe98>
0xe000 <_ZNK24ChiFeature2MCReprocessRT16OnMetadataResultEP24ChiFeature2RequestObjecthP20ChiFeature2StageInfoP21ChiFeature2IdentifierP11ChiMetadatajPv+0xe24>
0xf000 <_ZNK24ChiFeature2MCReprocessRT16OnMetadataResultEP24ChiFeature2RequestObjecthP20ChiFeature2StageInfoP21ChiFeature2IdentifierP11ChiMetadatajPv+0xe2c>
<_ZNK24ChiFeature2MCReprocessRT16OnMetadataResultEP24ChiFeature2RequestObjecthP20ChiFeature2StageInfoP21ChiFeature2IdentifierP11ChiMetadatajPv+0xee4>
0x44000 <_ZNK24ChiFeature2MCReprocessRT16OnMetadataResultEP24ChiFeature2RequestObjecthP20ChiFeature2StageInfoP21ChiFeature2IdentifierP11ChiMetadatajPv+0xf3c>
<_ZNK24ChiFeature2MCReprocessRT16OnMetadataResultEP24ChiFeature2RequestObjecthP20ChiFeature2StageInfoP21ChiFeature2IdentifierP11ChiMetadatajPv+0xf98>
<_ZNK15ChiFeature2Base16ProcessDebugDataEP24ChiFeature2RequestObjectPK20ChiFeature2StageInfoPK21ChiFeature2IdentifierP11ChiMetadataj@plt>
0x44000 <_ZNK24ChiFeature2MCReprocessRT16OnMetadataResultEP24ChiFeature2RequestObjecthP20ChiFeature2StageInfoP21ChiFeature2IdentifierP11ChiMetadatajPv+0xf70>
<_ZNK24ChiFeature2MCReprocessRT16OnMetadataResultEP24ChiFeature2RequestObjecthP20ChiFeature2StageInfoP21ChiFeature2IdentifierP11ChiMetadatajPv+0xf68>
<_ZNK15ChiFeature2Base16OnMetadataResultEP24ChiFeature2RequestObjecthP20ChiFeature2StageInfoP21ChiFeature2IdentifierP11ChiMetadatajPv@plt>
<_ZNK24ChiFeature2MCReprocessRT16OnMetadataResultEP24ChiFeature2RequestObjecthP20ChiFeature2StageInfoP21ChiFeature2IdentifierP11ChiMetadatajPv+0xfb0>
<_ZNK24ChiFeature2MCReprocessRT16OnMetadataResultEP24ChiFeature2RequestObjecthP20ChiFeature2StageInfoP21ChiFeature2IdentifierP11ChiMetadatajPv+0x64>
<_ZNK24ChiFeature2MCReprocessRT16OnMetadataResultEP24ChiFeature2RequestObjecthP20ChiFeature2StageInfoP21ChiFeature2IdentifierP11ChiMetadatajPv+0xefc>
<_ZNK24ChiFeature2MCReprocessRT16OnMetadataResultEP24ChiFeature2RequestObjecthP20ChiFeature2StageInfoP21ChiFeature2IdentifierP11ChiMetadatajPv+0xb0>
<_ZNK24ChiFeature2MCReprocessRT16OnMetadataResultEP24ChiFeature2RequestObjecthP20ChiFeature2StageInfoP21ChiFeature2IdentifierP11ChiMetadatajPv+0xec8>

<_ZNK24ChiFeature2RequestObject35IsStageOutputsGeneratedForRequestIdEhP20ChiFeature2StageInfo@plt>
<_ZNK24ChiFeature2MCReprocessRT21OnReleaseDependenciesEPK21ChiFeature2IdentifierhhP20ChiFeature2StageInfoP24ChiFeature2RequestObject+0x38>
<_ZNK24ChiFeature2MCReprocessRT21OnReleaseDependenciesEPK21ChiFeature2IdentifierhhP20ChiFeature2StageInfoP24ChiFeature2RequestObject+0x40>
<_ZNK24ChiFeature2MCReprocessRT21OnReleaseDependenciesEPK21ChiFeature2IdentifierhhP20ChiFeature2StageInfoP24ChiFeature2RequestObject+0x44>

0x226f8 <_ZNK24ChiFeature2MCReprocessRT16DoCleanupRequestEP24ChiFeature2RequestObject+0x70>
0x44000 <_ZNK24ChiFeature2MCReprocessRT16DoCleanupRequestEP24ChiFeature2RequestObject+0xa4>
<_ZNK24ChiFeature2MCReprocessRT16DoCleanupRequestEP24ChiFeature2RequestObject+0x84>
<_ZNK15ChiFeature2Base21GetFeaturePrivContextEP24ChiFeature2RequestObject@plt>
0x226f8 <_ZNK24ChiFeature2MCReprocessRT16DoCleanupRequestEP24ChiFeature2RequestObject+0x70>
<_ZNK24ChiFeature2MCReprocessRT16DoCleanupRequestEP24ChiFeature2RequestObject+0x9c>
<_ZNK15ChiFeature2Base21SetFeaturePrivContextEP24ChiFeature2RequestObjectPv@plt>
<_ZNK24ChiFeature2MCReprocessRT16DoCleanupRequestEP24ChiFeature2RequestObject+0x34>
<_ZNK24ChiFeature2MCReprocessRT16DoCleanupRequestEP24ChiFeature2RequestObject+0x58>



0x44000 <_ZNK24ChiFeature2MCReprocessRT20OnPopulateDependencyEP24ChiFeature2RequestObject+0xb4>
<_ZNK24ChiFeature2MCReprocessRT20OnPopulateDependencyEP24ChiFeature2RequestObject+0x760>
<_ZNK24ChiFeature2MCReprocessRT20OnPopulateDependencyEP24ChiFeature2RequestObject+0x6c>
0x2286c <_ZNK24ChiFeature2MCReprocessRT20OnPopulateDependencyEP24ChiFeature2RequestObject+0x11c>
<_ZNK24ChiFeature2MCReprocessRT20OnPopulateDependencyEP24ChiFeature2RequestObject+0x11c>
<_ZNK24ChiFeature2RequestObject16GetNextStageInfoEP20ChiFeature2StageInfoh@plt>
<_ZNK24ChiFeature2MCReprocessRT20OnPopulateDependencyEP24ChiFeature2RequestObject+0x6c0>
0x44000 <_ZNK24ChiFeature2MCReprocessRT20OnPopulateDependencyEP24ChiFeature2RequestObject+0x12c>
<_ZNK24ChiFeature2MCReprocessRT20OnPopulateDependencyEP24ChiFeature2RequestObject+0x798>
<_ZNK24ChiFeature2MCReprocessRT31OnPopulateConfigurationSettingsEP24ChiFeature2RequestObjectPK21ChiFeature2IdentifierP11ChiMetadata+0x19e0>
<_ZNK24ChiFeature2MCReprocessRT20OnPopulateDependencyEP24ChiFeature2RequestObject+0x1a0>
0x22890 <_ZNK24ChiFeature2MCReprocessRT20OnPopulateDependencyEP24ChiFeature2RequestObject+0x140>
<_ZNK24ChiFeature2MCReprocessRT20OnPopulateDependencyEP24ChiFeature2RequestObject+0x144>
<_ZNK24ChiFeature2MCReprocessRT20OnPopulateDependencyEP24ChiFeature2RequestObject+0x780>
<_ZNK15ChiFeature2Base20OnPopulateDependencyEP24ChiFeature2RequestObject@plt>
<_ZNK24ChiFeature2MCReprocessRT20OnPopulateDependencyEP24ChiFeature2RequestObject+0x72c>
<_ZNK24ChiFeature2MCReprocessRT20OnPopulateDependencyEP24ChiFeature2RequestObject+0x174>
<_ZNK24ChiFeature2MCReprocessRT20OnPopulateDependencyEP24ChiFeature2RequestObject+0x7ec>
0x228f0 <_ZNK24ChiFeature2MCReprocessRT20OnPopulateDependencyEP24ChiFeature2RequestObject+0x1a0>
0x22f3c <_ZNK24ChiFeature2MCReprocessRT20OnPopulateDependencyEP24ChiFeature2RequestObject+0x7ec>
0x44000 <_ZNK24ChiFeature2MCReprocessRT20OnPopulateDependencyEP24ChiFeature2RequestObject+0x228>
0x22910 <_ZNK24ChiFeature2MCReprocessRT20OnPopulateDependencyEP24ChiFeature2RequestObject+0x1c0>
0x22e1c <_ZNK24ChiFeature2MCReprocessRT20OnPopulateDependencyEP24ChiFeature2RequestObject+0x6cc>
0x22e50 <_ZNK24ChiFeature2MCReprocessRT20OnPopulateDependencyEP24ChiFeature2RequestObject+0x700>
<_ZNK24ChiFeature2MCReprocessRT20OnPopulateDependencyEP24ChiFeature2RequestObject+0x72c>
<_ZNK24ChiFeature2MCReprocessRT20OnPopulateDependencyEP24ChiFeature2RequestObject+0x7b8>
<_ZNK24ChiFeature2MCReprocessRT26FilterPortsBasedOnExposureEP21ChiFeature2PortIdListRNSt3__16vectorI21ChiFeature2IdentifierNS2_9allocatorIS4_EEEE@plt>
<_ZNK24ChiFeature2MCReprocessRT20OnPopulateDependencyEP24ChiFeature2RequestObject+0x6c0>
<_ZNK24ChiFeature2MCReprocessRT20OnPopulateDependencyEP24ChiFeature2RequestObject+0x2bc>
0x22998 <_ZNK24ChiFeature2MCReprocessRT20OnPopulateDependencyEP24ChiFeature2RequestObject+0x248>
<_ZNK24ChiFeature2MCReprocessRT20OnPopulateDependencyEP24ChiFeature2RequestObject+0x7fc>
<_ZNK24ChiFeature2MCReprocessRT20OnPopulateDependencyEP24ChiFeature2RequestObject+0x24c>
<_ZNK24ChiFeature2MCReprocessRT20OnPopulateDependencyEP24ChiFeature2RequestObject+0x28c>
<_ZNK24ChiFeature2MCReprocessRT20OnPopulateDependencyEP24ChiFeature2RequestObject+0x7ec>
0x22a0c <_ZNK24ChiFeature2MCReprocessRT20OnPopulateDependencyEP24ChiFeature2RequestObject+0x2bc>
0x22f3c <_ZNK24ChiFeature2MCReprocessRT20OnPopulateDependencyEP24ChiFeature2RequestObject+0x7ec>
0x44000 <_ZNK24ChiFeature2MCReprocessRT20OnPopulateDependencyEP24ChiFeature2RequestObject+0x344>
<_ZNK24ChiFeature2MCReprocessRT20OnPopulateDependencyEP24ChiFeature2RequestObject+0x678>
<_ZNK24ChiFeature2MCReprocessRT20OnPopulateDependencyEP24ChiFeature2RequestObject+0x32c>
<_ZNK24ChiFeature2MCReprocessRT20OnPopulateDependencyEP24ChiFeature2RequestObject+0x678>
<_ZNK24ChiFeature2MCReprocessRT20OnPopulateDependencyEP24ChiFeature2RequestObject+0x5a4>
<_ZNK24ChiFeature2MCReprocessRT20OnPopulateDependencyEP24ChiFeature2RequestObject+0x5ec>
<_ZNK24ChiFeature2MCReprocessRT20OnPopulateDependencyEP24ChiFeature2RequestObject+0x634>
<_ZNK24ChiFeature2MCReprocessRT20OnPopulateDependencyEP24ChiFeature2RequestObject+0x320>
0x22a70 <_ZNK24ChiFeature2MCReprocessRT20OnPopulateDependencyEP24ChiFeature2RequestObject+0x320>
<_ZNK24ChiFeature2MCReprocessRT20OnPopulateDependencyEP24ChiFeature2RequestObject+0x320>
0x22a70 <_ZNK24ChiFeature2MCReprocessRT20OnPopulateDependencyEP24ChiFeature2RequestObject+0x320>
<_ZNK24ChiFeature2MCReprocessRT20OnPopulateDependencyEP24ChiFeature2RequestObject+0x3c0>
<_ZNK24ChiFeature2MCReprocessRT20OnPopulateDependencyEP24ChiFeature2RequestObject+0x320>
<_ZNK24ChiFeature2MCReprocessRT20OnPopulateDependencyEP24ChiFeature2RequestObject+0x3dc>
<_ZNK24ChiFeature2MCReprocessRT20OnPopulateDependencyEP24ChiFeature2RequestObject+0x320>
0x22a70 <_ZNK24ChiFeature2MCReprocessRT20OnPopulateDependencyEP24ChiFeature2RequestObject+0x320>
<_ZNK24ChiFeature2MCReprocessRT20OnPopulateDependencyEP24ChiFeature2RequestObject+0x2f4>
<_ZNK24ChiFeature2MCReprocessRT20OnPopulateDependencyEP24ChiFeature2RequestObject+0x7f0>
<_ZNK24ChiFeature2MCReprocessRT20OnPopulateDependencyEP24ChiFeature2RequestObject+0x7f4>
<_ZNK24ChiFeature2MCReprocessRT20OnPopulateDependencyEP24ChiFeature2RequestObject+0x470>
0x22ce8 <_ZNK24ChiFeature2MCReprocessRT20OnPopulateDependencyEP24ChiFeature2RequestObject+0x598>
0x44000 <_ZNK24ChiFeature2MCReprocessRT20OnPopulateDependencyEP24ChiFeature2RequestObject+0x530>
<_ZNK24ChiFeature2MCReprocessRT20OnPopulateDependencyEP24ChiFeature2RequestObject+0x520>
<_ZNK24ChiFeature2MCReprocessRT20OnPopulateDependencyEP24ChiFeature2RequestObject+0x7ec>
0x44000 <_ZNK24ChiFeature2MCReprocessRT20OnPopulateDependencyEP24ChiFeature2RequestObject+0x590>
0x22a70 <_ZNK24ChiFeature2MCReprocessRT20OnPopulateDependencyEP24ChiFeature2RequestObject+0x320>
0x22f3c <_ZNK24ChiFeature2MCReprocessRT20OnPopulateDependencyEP24ChiFeature2RequestObject+0x7ec>
0x44000 <_ZNK24ChiFeature2MCReprocessRT20OnPopulateDependencyEP24ChiFeature2RequestObject+0x600>
<_ZNK24ChiFeature2MCReprocessRT20OnPopulateDependencyEP24ChiFeature2RequestObject+0x320>
<_ZNK24ChiFeature2MCReprocessRT20OnPopulateDependencyEP24ChiFeature2RequestObject+0x4a0>
0x44000 <_ZNK24ChiFeature2MCReprocessRT20OnPopulateDependencyEP24ChiFeature2RequestObject+0x658>
<_ZNK24ChiFeature2MCReprocessRT20OnPopulateDependencyEP24ChiFeature2RequestObject+0x354>
0x44000 <_ZNK24ChiFeature2MCReprocessRT20OnPopulateDependencyEP24ChiFeature2RequestObject+0x69c>
<_ZNK24ChiFeature2MCReprocessRT20OnPopulateDependencyEP24ChiFeature2RequestObject+0x368>
0x44000 <_ZNK24ChiFeature2MCReprocessRT20OnPopulateDependencyEP24ChiFeature2RequestObject+0x6e8>
<_ZNK24ChiFeature2MCReprocessRT20OnPopulateDependencyEP24ChiFeature2RequestObject+0x368>
<_ZNK24ChiFeature2MCReprocessRT20OnPopulateDependencyEP24ChiFeature2RequestObject+0x7d0>
<_ZNK15ChiFeature2Base23PopulateDependencyPortsEP24ChiFeature2RequestObjecthPK26ChiFeature2InputDependency@plt>
0x22904 <_ZNK24ChiFeature2MCReprocessRT20OnPopulateDependencyEP24ChiFeature2RequestObject+0x1b4>
0x22f3c <_ZNK24ChiFeature2MCReprocessRT20OnPopulateDependencyEP24ChiFeature2RequestObject+0x7ec>
0x22e7c <_ZNK24ChiFeature2MCReprocessRT20OnPopulateDependencyEP24ChiFeature2RequestObject+0x72c>
0x22f3c <_ZNK24ChiFeature2MCReprocessRT20OnPopulateDependencyEP24ChiFeature2RequestObject+0x7ec>
<_ZNK24ChiFeature2MCReprocessRT20OnPopulateDependencyEP24ChiFeature2RequestObject+0x7e8>
<_ZNK24ChiFeature2MCReprocessRT20OnPopulateDependencyEP24ChiFeature2RequestObject+0x4c>
<_ZNK24ChiFeature2MCReprocessRT20OnPopulateDependencyEP24ChiFeature2RequestObject+0x12c>
<_ZNK24ChiFeature2MCReprocessRT20OnPopulateDependencyEP24ChiFeature2RequestObject+0xbc>
<_ZNK24ChiFeature2MCReprocessRT20OnPopulateDependencyEP24ChiFeature2RequestObject+0x1d0>
<_ZNK24ChiFeature2MCReprocessRT20OnPopulateDependencyEP24ChiFeature2RequestObject+0x6ac>
<_ZNKSt3__120__vector_base_commonILb1EE20__throw_length_errorEv@plt>

<_ZNK24ChiFeature2RequestObject23GetUsecaseRequestObjectEv@plt>
0x23208 <_ZNK24ChiFeature2MCReprocessRT19IsPortInActiveStateEP24ChiFeature2RequestObjectPN15ChiFeature2Base18ChiFeaturePortDataE+0x2b8>
0x44000 <_ZNK24ChiFeature2MCReprocessRT19IsPortInActiveStateEP24ChiFeature2RequestObjectPN15ChiFeature2Base18ChiFeaturePortDataE+0xe4>
<_ZNK24ChiFeature2MCReprocessRT19IsPortInActiveStateEP24ChiFeature2RequestObjectPN15ChiFeature2Base18ChiFeaturePortDataE+0x56c>
<_ZNK24ChiFeature2MCReprocessRT19IsPortInActiveStateEP24ChiFeature2RequestObjectPN15ChiFeature2Base18ChiFeaturePortDataE+0x90>
0x232bc <_ZNK24ChiFeature2MCReprocessRT19IsPortInActiveStateEP24ChiFeature2RequestObjectPN15ChiFeature2Base18ChiFeaturePortDataE+0x36c>
<_ZNK24ChiFeature2MCReprocessRT19IsPortInActiveStateEP24ChiFeature2RequestObjectPN15ChiFeature2Base18ChiFeaturePortDataE+0x36c>
<_ZNK24ChiFeature2MCReprocessRT19IsPortInActiveStateEP24ChiFeature2RequestObjectPN15ChiFeature2Base18ChiFeaturePortDataE+0x3a8>
0x232f8 <_ZNK24ChiFeature2MCReprocessRT19IsPortInActiveStateEP24ChiFeature2RequestObjectPN15ChiFeature2Base18ChiFeaturePortDataE+0x3a8>
0x45000 <_ZNK24ChiFeature2MCReprocessRT19IsPortInActiveStateEP24ChiFeature2RequestObjectPN15ChiFeature2Base18ChiFeaturePortDataE+0x130>
#5, 0x231a4 <_ZNK24ChiFeature2MCReprocessRT19IsPortInActiveStateEP24ChiFeature2RequestObjectPN15ChiFeature2Base18ChiFeaturePortDataE+0x254>
0x45000 <_ZNK24ChiFeature2MCReprocessRT19IsPortInActiveStateEP24ChiFeature2RequestObjectPN15ChiFeature2Base18ChiFeaturePortDataE+0x150>
0x11000 <_ZNK24ChiFeature2MCReprocessRT19IsPortInActiveStateEP24ChiFeature2RequestObjectPN15ChiFeature2Base18ChiFeaturePortDataE+0x84>
<_ZNK24ChiFeature2MCReprocessRT19IsPortInActiveStateEP24ChiFeature2RequestObjectPN15ChiFeature2Base18ChiFeaturePortDataE+0x198>
<_ZNK24ChiFeature2MCReprocessRT19IsPortInActiveStateEP24ChiFeature2RequestObjectPN15ChiFeature2Base18ChiFeaturePortDataE+0x640>
<_ZNK24ChiFeature2MCReprocessRT19IsPortInActiveStateEP24ChiFeature2RequestObjectPN15ChiFeature2Base18ChiFeaturePortDataE+0x66c>
<_ZNK24ChiFeature2MCReprocessRT19IsPortInActiveStateEP24ChiFeature2RequestObjectPN15ChiFeature2Base18ChiFeaturePortDataE+0x698>
0xf000 <_ZNK24ChiFeature2MCReprocessRT19IsPortInActiveStateEP24ChiFeature2RequestObjectPN15ChiFeature2Base18ChiFeaturePortDataE+0xe4>
0xb000 <_ZNK24ChiFeature2MCReprocessRT19IsPortInActiveStateEP24ChiFeature2RequestObjectPN15ChiFeature2Base18ChiFeaturePortDataE+0xdc>
0x11000 <_ZNK24ChiFeature2MCReprocessRT19IsPortInActiveStateEP24ChiFeature2RequestObjectPN15ChiFeature2Base18ChiFeaturePortDataE+0x120>
<_ZNK24ChiFeature2MCReprocessRT19IsPortInActiveStateEP24ChiFeature2RequestObjectPN15ChiFeature2Base18ChiFeaturePortDataE+0x5b4>
<_ZNK24ChiFeature2MCReprocessRT19IsPortInActiveStateEP24ChiFeature2RequestObjectPN15ChiFeature2Base18ChiFeaturePortDataE+0x5d8>
<_ZNK24ChiFeature2MCReprocessRT19IsPortInActiveStateEP24ChiFeature2RequestObjectPN15ChiFeature2Base18ChiFeaturePortDataE+0x5fc>
0xf000 <_ZNK24ChiFeature2MCReprocessRT19IsPortInActiveStateEP24ChiFeature2RequestObjectPN15ChiFeature2Base18ChiFeaturePortDataE+0x198>
0x10000 <_ZNK24ChiFeature2MCReprocessRT19IsPortInActiveStateEP24ChiFeature2RequestObjectPN15ChiFeature2Base18ChiFeaturePortDataE+0x1a4>
0xb000 <_ZNK24ChiFeature2MCReprocessRT19IsPortInActiveStateEP24ChiFeature2RequestObjectPN15ChiFeature2Base18ChiFeaturePortDataE+0x1bc>
0x10000 <_ZNK24ChiFeature2MCReprocessRT19IsPortInActiveStateEP24ChiFeature2RequestObjectPN15ChiFeature2Base18ChiFeaturePortDataE+0x1d8>
<_ZN6ChiLog9LogSystemEPKcS1_S1_S1_iS1_z@plt>
<_ZNK24ChiFeature2MCReprocessRT19IsPortInActiveStateEP24ChiFeature2RequestObjectPN15ChiFeature2Base18ChiFeaturePortDataE+0x4ec>
<_ZN15ExtensionModule11GetInstanceEv@plt>
<_ZNK24ChiFeature2MCReprocessRT19IsPortInActiveStateEP24ChiFeature2RequestObjectPN15ChiFeature2Base18ChiFeaturePortDataE+0x520>
<_ZNK24ChiFeature2MCReprocessRT19IsPortInActiveStateEP24ChiFeature2RequestObjectPN15ChiFeature2Base18ChiFeaturePortDataE+0x520>
0x23470 <_ZNK24ChiFeature2MCReprocessRT19IsPortInActiveStateEP24ChiFeature2RequestObjectPN15ChiFeature2Base18ChiFeaturePortDataE+0x520>
<_ZNK24ChiFeature2MCReprocessRT19IsPortInActiveStateEP24ChiFeature2RequestObjectPN15ChiFeature2Base18ChiFeaturePortDataE+0x520>
0x45000 <_ZNK24ChiFeature2MCReprocessRT19IsPortInActiveStateEP24ChiFeature2RequestObjectPN15ChiFeature2Base18ChiFeaturePortDataE+0x340>
#0, 0x23494 <_ZNK24ChiFeature2MCReprocessRT19IsPortInActiveStateEP24ChiFeature2RequestObjectPN15ChiFeature2Base18ChiFeaturePortDataE+0x544>
0x45000 <_ZNK24ChiFeature2MCReprocessRT19IsPortInActiveStateEP24ChiFeature2RequestObjectPN15ChiFeature2Base18ChiFeaturePortDataE+0x350>
<_ZNK24ChiFeature2MCReprocessRT19IsPortInActiveStateEP24ChiFeature2RequestObjectPN15ChiFeature2Base18ChiFeaturePortDataE+0x320>
0x11000 <_ZNK24ChiFeature2MCReprocessRT19IsPortInActiveStateEP24ChiFeature2RequestObjectPN15ChiFeature2Base18ChiFeaturePortDataE+0x294>
0x11000 <_ZNK24ChiFeature2MCReprocessRT19IsPortInActiveStateEP24ChiFeature2RequestObjectPN15ChiFeature2Base18ChiFeaturePortDataE+0x2b0>
0xf000 <_ZNK24ChiFeature2MCReprocessRT19IsPortInActiveStateEP24ChiFeature2RequestObjectPN15ChiFeature2Base18ChiFeaturePortDataE+0x2ac>
0xb000 <_ZNK24ChiFeature2MCReprocessRT19IsPortInActiveStateEP24ChiFeature2RequestObjectPN15ChiFeature2Base18ChiFeaturePortDataE+0x2a0>
0x11000 <_ZNK24ChiFeature2MCReprocessRT19IsPortInActiveStateEP24ChiFeature2RequestObjectPN15ChiFeature2Base18ChiFeaturePortDataE+0x2d8>
0x11000 <_ZNK24ChiFeature2MCReprocessRT19IsPortInActiveStateEP24ChiFeature2RequestObjectPN15ChiFeature2Base18ChiFeaturePortDataE+0x2f4>
0xb000 <_ZNK24ChiFeature2MCReprocessRT19IsPortInActiveStateEP24ChiFeature2RequestObjectPN15ChiFeature2Base18ChiFeaturePortDataE+0x2e4>
0xb000 <_ZNK24ChiFeature2MCReprocessRT19IsPortInActiveStateEP24ChiFeature2RequestObjectPN15ChiFeature2Base18ChiFeaturePortDataE+0x2e8>
0x10000 <_ZNK24ChiFeature2MCReprocessRT19IsPortInActiveStateEP24ChiFeature2RequestObjectPN15ChiFeature2Base18ChiFeaturePortDataE+0x300>
<_ZN6ChiLog9LogSystemEPKcS1_S1_S1_iS1_z@plt>
<_ZNK24ChiFeature2MCReprocessRT19IsPortInActiveStateEP24ChiFeature2RequestObjectPN15ChiFeature2Base18ChiFeaturePortDataE+0x544>
<_ZNK24ChiFeature2MCReprocessRT19IsPortInActiveStateEP24ChiFeature2RequestObjectPN15ChiFeature2Base18ChiFeaturePortDataE+0x584>
<_ZNK15ChiFeature2Base19IsPortInActiveStateEP24ChiFeature2RequestObjectPNS_18ChiFeaturePortDataE@plt>
0x45000 <_ZNK24ChiFeature2MCReprocessRT19IsPortInActiveStateEP24ChiFeature2RequestObjectPN15ChiFeature2Base18ChiFeaturePortDataE+0x430>
#5, 0x23494 <_ZNK24ChiFeature2MCReprocessRT19IsPortInActiveStateEP24ChiFeature2RequestObjectPN15ChiFeature2Base18ChiFeaturePortDataE+0x544>
0x45000 <_ZNK24ChiFeature2MCReprocessRT19IsPortInActiveStateEP24ChiFeature2RequestObjectPN15ChiFeature2Base18ChiFeaturePortDataE+0x440>
<_ZNK24ChiFeature2MCReprocessRT19IsPortInActiveStateEP24ChiFeature2RequestObjectPN15ChiFeature2Base18ChiFeaturePortDataE+0x458>
0x11000 <_ZNK24ChiFeature2MCReprocessRT19IsPortInActiveStateEP24ChiFeature2RequestObjectPN15ChiFeature2Base18ChiFeaturePortDataE+0x384>
<_ZNK24ChiFeature2MCReprocessRT19IsPortInActiveStateEP24ChiFeature2RequestObjectPN15ChiFeature2Base18ChiFeaturePortDataE+0x628>
0x11000 <_ZNK24ChiFeature2MCReprocessRT19IsPortInActiveStateEP24ChiFeature2RequestObjectPN15ChiFeature2Base18ChiFeaturePortDataE+0x3b8>
0x10000 <_ZNK24ChiFeature2MCReprocessRT19IsPortInActiveStateEP24ChiFeature2RequestObjectPN15ChiFeature2Base18ChiFeaturePortDataE+0x3bc>
0xb000 <_ZNK24ChiFeature2MCReprocessRT19IsPortInActiveStateEP24ChiFeature2RequestObjectPN15ChiFeature2Base18ChiFeaturePortDataE+0x3b0>
0x11000 <_ZNK24ChiFeature2MCReprocessRT19IsPortInActiveStateEP24ChiFeature2RequestObjectPN15ChiFeature2Base18ChiFeaturePortDataE+0x410>
<_ZNK24ChiFeature2MCReprocessRT19IsPortInActiveStateEP24ChiFeature2RequestObjectPN15ChiFeature2Base18ChiFeaturePortDataE+0x59c>
0xf000 <_ZNK24ChiFeature2MCReprocessRT19IsPortInActiveStateEP24ChiFeature2RequestObjectPN15ChiFeature2Base18ChiFeaturePortDataE+0x43c>
0xb000 <_ZNK24ChiFeature2MCReprocessRT19IsPortInActiveStateEP24ChiFeature2RequestObjectPN15ChiFeature2Base18ChiFeaturePortDataE+0x434>
0xf000 <_ZNK24ChiFeature2MCReprocessRT19IsPortInActiveStateEP24ChiFeature2RequestObjectPN15ChiFeature2Base18ChiFeaturePortDataE+0x44c>
0x10000 <_ZNK24ChiFeature2MCReprocessRT19IsPortInActiveStateEP24ChiFeature2RequestObjectPN15ChiFeature2Base18ChiFeaturePortDataE+0x47c>
<_ZN6ChiLog9LogSystemEPKcS1_S1_S1_iS1_z@plt>
<_ZNK24ChiFeature2MCReprocessRT19IsPortInActiveStateEP24ChiFeature2RequestObjectPN15ChiFeature2Base18ChiFeaturePortDataE+0x544>
<_ZNK24ChiFeature2MCReprocessRT19IsPortInActiveStateEP24ChiFeature2RequestObjectPN15ChiFeature2Base18ChiFeaturePortDataE+0x520>
<_ZNK24ChiFeature2MCReprocessRT19IsPortInActiveStateEP24ChiFeature2RequestObjectPN15ChiFeature2Base18ChiFeaturePortDataE+0x544>
0x23498 <_ZNK24ChiFeature2MCReprocessRT19IsPortInActiveStateEP24ChiFeature2RequestObjectPN15ChiFeature2Base18ChiFeaturePortDataE+0x548>
<_ZNK24ChiFeature2MCReprocessRT19IsPortInActiveStateEP24ChiFeature2RequestObjectPN15ChiFeature2Base18ChiFeaturePortDataE+0x548>
<_ZNK24ChiFeature2MCReprocessRT19IsPortInActiveStateEP24ChiFeature2RequestObjectPN15ChiFeature2Base18ChiFeaturePortDataE+0x70>
<_ZNK24ChiFeature2MCReprocessRT19IsPortInActiveStateEP24ChiFeature2RequestObjectPN15ChiFeature2Base18ChiFeaturePortDataE+0x37c>
<_ZNK24ChiFeature2MCReprocessRT19IsPortInActiveStateEP24ChiFeature2RequestObjectPN15ChiFeature2Base18ChiFeaturePortDataE+0x488>
<_ZNK24ChiFeature2MCReprocessRT19IsPortInActiveStateEP24ChiFeature2RequestObjectPN15ChiFeature2Base18ChiFeaturePortDataE+0x1c0>
<_ZNK24ChiFeature2MCReprocessRT19IsPortInActiveStateEP24ChiFeature2RequestObjectPN15ChiFeature2Base18ChiFeaturePortDataE+0x1d0>
<_ZNK24ChiFeature2MCReprocessRT19IsPortInActiveStateEP24ChiFeature2RequestObjectPN15ChiFeature2Base18ChiFeaturePortDataE+0x1e4>
<_ZNK24ChiFeature2MCReprocessRT19IsPortInActiveStateEP24ChiFeature2RequestObjectPN15ChiFeature2Base18ChiFeaturePortDataE+0x3fc>
<_ZNK24ChiFeature2MCReprocessRT19IsPortInActiveStateEP24ChiFeature2RequestObjectPN15ChiFeature2Base18ChiFeaturePortDataE+0x10c>
<_ZNK24ChiFeature2MCReprocessRT19IsPortInActiveStateEP24ChiFeature2RequestObjectPN15ChiFeature2Base18ChiFeaturePortDataE+0x11c>
<_ZNK24ChiFeature2MCReprocessRT19IsPortInActiveStateEP24ChiFeature2RequestObjectPN15ChiFeature2Base18ChiFeaturePortDataE+0x130>

0x45000 <_ZN24ChiFeature2MCReprocessRT12OnInitializeEP26ChiFeature2CreateInputInfo+0x34>
0x23664 <_ZN24ChiFeature2MCReprocessRTD0Ev+0x44>
0x2367c <_ZN24ChiFeature2MCReprocessRTD0Ev+0x5c>
<_ZN15ChiFeature2BaseD2Ev@plt>

0x236a8 <_ZN24ChiFeature2MCReprocessRT12OnInitializeEP26ChiFeature2CreateInputInfo+0x28>
<_ZN24ChiFeature2MCReprocessRT12OnInitializeEP26ChiFeature2CreateInputInfo+0xd4>
0x45000 <_ZN24ChiFeature2MCReprocessRT12OnInitializeEP26ChiFeature2CreateInputInfo+0xb0>
#0, 0x23750 <_ZN24ChiFeature2MCReprocessRT12OnInitializeEP26ChiFeature2CreateInputInfo+0xd0>
0x45000 <_ZN24ChiFeature2MCReprocessRT12OnInitializeEP26ChiFeature2CreateInputInfo+0xc0>
0x11000 <_ZN24ChiFeature2MCReprocessRTD0Ev+0x54>
<_ZN24ChiFeature2MCReprocessRT12OnInitializeEP26ChiFeature2CreateInputInfo+0x90>
0x11000 <_ZN24ChiFeature2MCReprocessRT12OnInitializeEP26ChiFeature2CreateInputInfo+0x20>
0xd000 <_ZN24ChiFeature2MCReprocessRT12OnInitializeEP26ChiFeature2CreateInputInfo+0x14>
0x10000 <_ZN24ChiFeature2MCReprocessRT12OnInitializeEP26ChiFeature2CreateInputInfo+0x24>
0x11000 <_ZN24ChiFeature2MCReprocessRT12OnInitializeEP26ChiFeature2CreateInputInfo+0x5c>
0xb000 <_ZN24ChiFeature2MCReprocessRT12OnInitializeEP26ChiFeature2CreateInputInfo+0x4c>
0x10000 <_ZN24ChiFeature2MCReprocessRT12OnInitializeEP26ChiFeature2CreateInputInfo+0x64>
0x10000 <_ZN24ChiFeature2MCReprocessRT12OnInitializeEP26ChiFeature2CreateInputInfo+0x68>
<_ZN6ChiLog9LogSystemEPKcS1_S1_S1_iS1_z@plt>

0x44000 <_ZN24ChiFeature2MCReprocessRT19OnConfigurePipelineERN15ChiFeature2Base22ChiFeaturePipelineDataE+0x94>
<_ZN24ChiFeature2MCReprocessRT19OnConfigurePipelineERN15ChiFeature2Base22ChiFeaturePipelineDataE+0x30>
<_ZN15ChiFeature2Base14CreatePipelineEPK21ChiFeature2Identifier@plt>
<_ZN24ChiFeature2MCReprocessRT19OnConfigurePipelineERN15ChiFeature2Base22ChiFeaturePipelineDataE+0x24>
<_ZN24ChiFeature2MCReprocessRT19OnConfigurePipelineERN15ChiFeature2Base22ChiFeaturePipelineDataE+0x448>
<_ZN24ChiFeature2MCReprocessRT19OnConfigurePipelineERN15ChiFeature2Base22ChiFeaturePipelineDataE+0x5f4>
<_ZN24ChiFeature2MCReprocessRT19OnConfigurePipelineERN15ChiFeature2Base22ChiFeaturePipelineDataE+0x45c>
<_ZN24ChiFeature2MCReprocessRT19OnConfigurePipelineERN15ChiFeature2Base22ChiFeaturePipelineDataE+0x140>
<_ZN24ChiFeature2MCReprocessRT19OnConfigurePipelineERN15ChiFeature2Base22ChiFeaturePipelineDataE+0x438>
<_ZN24ChiFeature2MCReprocessRT19OnConfigurePipelineERN15ChiFeature2Base22ChiFeaturePipelineDataE+0x35c>
<_ZN24ChiFeature2MCReprocessRT19OnConfigurePipelineERN15ChiFeature2Base22ChiFeaturePipelineDataE+0x270>
0x23920 <_ZN24ChiFeature2MCReprocessRT19OnConfigurePipelineERN15ChiFeature2Base22ChiFeaturePipelineDataE+0x1b8>
0x23910 <_ZN24ChiFeature2MCReprocessRT19OnConfigurePipelineERN15ChiFeature2Base22ChiFeaturePipelineDataE+0x1a8>
<_ZN24ChiFeature2MCReprocessRT19OnConfigurePipelineERN15ChiFeature2Base22ChiFeaturePipelineDataE+0x1cc>
<_ZN24ChiFeature2MCReprocessRT19OnConfigurePipelineERN15ChiFeature2Base22ChiFeaturePipelineDataE+0x1b8>
<_ZN24ChiFeature2MCReprocessRT35GetMappedInputPortIndexByTargetNameEPKcPKN15ChiFeature2Base22ChiFeaturePipelineDataERNSt3__13mapIS1_NS6_13unordered_mapIjNS6_3setIjNS6_4lessIjEENS6_9allocatorIjEEEENS6_4hashIjEENS6_8equal_toIjEENSC_INS6_4pairIKjSE_EEEEEE21ChiNameLessComparatorNSC_INSJ_IKS1_SN_EEEEEE+0xf00>
#0, 0x239dc <_ZN24ChiFeature2MCReprocessRT19OnConfigurePipelineERN15ChiFeature2Base22ChiFeaturePipelineDataE+0x274>
0x239f8 <_ZN24ChiFeature2MCReprocessRT19OnConfigurePipelineERN15ChiFeature2Base22ChiFeaturePipelineDataE+0x290>
<_ZN24ChiFeature2MCReprocessRT35GetMappedInputPortIndexByTargetNameEPKcPKN15ChiFeature2Base22ChiFeaturePipelineDataERNSt3__13mapIS1_NS6_13unordered_mapIjNS6_3setIjNS6_4lessIjEENS6_9allocatorIjEEEENS6_4hashIjEENS6_8equal_toIjEENSC_INS6_4pairIKjSE_EEEEEE21ChiNameLessComparatorNSC_INSJ_IKS1_SN_EEEEEE+0xf00>
#0, 0x23998 <_ZN24ChiFeature2MCReprocessRT19OnConfigurePipelineERN15ChiFeature2Base22ChiFeaturePipelineDataE+0x230>
0x23958 <_ZN24ChiFeature2MCReprocessRT19OnConfigurePipelineERN15ChiFeature2Base22ChiFeaturePipelineDataE+0x1f0>
<_ZN24ChiFeature2MCReprocessRT19OnConfigurePipelineERN15ChiFeature2Base22ChiFeaturePipelineDataE+0x29c>
<_ZN24ChiFeature2MCReprocessRT35GetMappedInputPortIndexByTargetNameEPKcPKN15ChiFeature2Base22ChiFeaturePipelineDataERNSt3__13mapIS1_NS6_13unordered_mapIjNS6_3setIjNS6_4lessIjEENS6_9allocatorIjEEEENS6_4hashIjEENS6_8equal_toIjEENSC_INS6_4pairIKjSE_EEEEEE21ChiNameLessComparatorNSC_INSJ_IKS1_SN_EEEEEE+0xf00>
#0, 0x239ec <_ZN24ChiFeature2MCReprocessRT19OnConfigurePipelineERN15ChiFeature2Base22ChiFeaturePipelineDataE+0x284>
0x23958 <_ZN24ChiFeature2MCReprocessRT19OnConfigurePipelineERN15ChiFeature2Base22ChiFeaturePipelineDataE+0x1f0>
<_ZN24ChiFeature2MCReprocessRT19OnConfigurePipelineERN15ChiFeature2Base22ChiFeaturePipelineDataE+0x2a0>
0x239f8 <_ZN24ChiFeature2MCReprocessRT19OnConfigurePipelineERN15ChiFeature2Base22ChiFeaturePipelineDataE+0x290>
0x23a08 <_ZN24ChiFeature2MCReprocessRT19OnConfigurePipelineERN15ChiFeature2Base22ChiFeaturePipelineDataE+0x2a0>
0x23a70 <_ZN24ChiFeature2MCReprocessRT19OnConfigurePipelineERN15ChiFeature2Base22ChiFeaturePipelineDataE+0x308>
<_ZN24ChiFeature2MCReprocessRT19OnConfigurePipelineERN15ChiFeature2Base22ChiFeaturePipelineDataE+0x318>
<_ZN24ChiFeature2MCReprocessRT19OnConfigurePipelineERN15ChiFeature2Base22ChiFeaturePipelineDataE+0x2a0>
0x23a4c <_ZN24ChiFeature2MCReprocessRT19OnConfigurePipelineERN15ChiFeature2Base22ChiFeaturePipelineDataE+0x2e4>
<_ZN24ChiFeature2MCReprocessRT19OnConfigurePipelineERN15ChiFeature2Base22ChiFeaturePipelineDataE+0x2e8>
<_ZN24ChiFeature2MCReprocessRT35GetMappedInputPortIndexByTargetNameEPKcPKN15ChiFeature2Base22ChiFeaturePipelineDataERNSt3__13mapIS1_NS6_13unordered_mapIjNS6_3setIjNS6_4lessIjEENS6_9allocatorIjEEEENS6_4hashIjEENS6_8equal_toIjEENSC_INS6_4pairIKjSE_EEEEEE21ChiNameLessComparatorNSC_INSJ_IKS1_SN_EEEEEE+0x7d0>
<_ZN24ChiFeature2MCReprocessRT19OnConfigurePipelineERN15ChiFeature2Base22ChiFeaturePipelineDataE+0x5e8>
0x23a80 <_ZN24ChiFeature2MCReprocessRT19OnConfigurePipelineERN15ChiFeature2Base22ChiFeaturePipelineDataE+0x318>
0x23a70 <_ZN24ChiFeature2MCReprocessRT19OnConfigurePipelineERN15ChiFeature2Base22ChiFeaturePipelineDataE+0x308>
<_ZN24ChiFeature2MCReprocessRT19OnConfigurePipelineERN15ChiFeature2Base22ChiFeaturePipelineDataE+0x344>
<_ZN24ChiFeature2MCReprocessRT19OnConfigurePipelineERN15ChiFeature2Base22ChiFeaturePipelineDataE+0x344>
<_ZN24ChiFeature2MCReprocessRT19OnConfigurePipelineERN15ChiFeature2Base22ChiFeaturePipelineDataE+0x32c>
<_ZN24ChiFeature2MCReprocessRT19OnConfigurePipelineERN15ChiFeature2Base22ChiFeaturePipelineDataE+0x35c>
<_ZN24ChiFeature2MCReprocessRT19OnConfigurePipelineERN15ChiFeature2Base22ChiFeaturePipelineDataE+0x190>
<_ZN24ChiFeature2MCReprocessRT19OnConfigurePipelineERN15ChiFeature2Base22ChiFeaturePipelineDataE+0x3e0>
0x23d54 <_ZN24ChiFeature2MCReprocessRT19OnConfigurePipelineERN15ChiFeature2Base22ChiFeaturePipelineDataE+0x5ec>
<_ZN24ChiFeature2MCReprocessRT19OnConfigurePipelineERN15ChiFeature2Base22ChiFeaturePipelineDataE+0x3e0>
<_ZN24ChiFeature2MCReprocessRT19OnConfigurePipelineERN15ChiFeature2Base22ChiFeaturePipelineDataE+0x434>
<_ZN24ChiFeature2MCReprocessRT19OnConfigurePipelineERN15ChiFeature2Base22ChiFeaturePipelineDataE+0x114>
0x23d54 <_ZN24ChiFeature2MCReprocessRT19OnConfigurePipelineERN15ChiFeature2Base22ChiFeaturePipelineDataE+0x5ec>
<_ZN24ChiFeature2MCReprocessRT19OnConfigurePipelineERN15ChiFeature2Base22ChiFeaturePipelineDataE+0x114>
<_ZN24ChiFeature2MCReprocessRT19OnConfigurePipelineERN15ChiFeature2Base22ChiFeaturePipelineDataE+0x100>
<_ZN24ChiFeature2MCReprocessRT19OnConfigurePipelineERN15ChiFeature2Base22ChiFeaturePipelineDataE+0x468>
<_ZN24ChiFeature2MCReprocessRT19OnConfigurePipelineERN15ChiFeature2Base22ChiFeaturePipelineDataE+0x4fc>
<_ZN24ChiFeature2MCReprocessRT19OnConfigurePipelineERN15ChiFeature2Base22ChiFeaturePipelineDataE+0x468>
<_ZN24ChiFeature2MCReprocessRT19OnConfigurePipelineERN15ChiFeature2Base22ChiFeaturePipelineDataE+0x4fc>
<_ZN24ChiFeature2MCReprocessRT19OnConfigurePipelineERN15ChiFeature2Base22ChiFeaturePipelineDataE+0x4fc>
<_ZN24ChiFeature2MCReprocessRT19OnConfigurePipelineERN15ChiFeature2Base22ChiFeaturePipelineDataE+0x47c>
<_ZN24ChiFeature2MCReprocessRT19OnConfigurePipelineERN15ChiFeature2Base22ChiFeaturePipelineDataE+0x4fc>
<_ZN24ChiFeature2MCReprocessRT19OnConfigurePipelineERN15ChiFeature2Base22ChiFeaturePipelineDataE+0x470>
0x23bd8 <_ZN24ChiFeature2MCReprocessRT19OnConfigurePipelineERN15ChiFeature2Base22ChiFeaturePipelineDataE+0x470>
0x23bd8 <_ZN24ChiFeature2MCReprocessRT19OnConfigurePipelineERN15ChiFeature2Base22ChiFeaturePipelineDataE+0x470>
<_ZN24ChiFeature2MCReprocessRT19OnConfigurePipelineERN15ChiFeature2Base22ChiFeaturePipelineDataE+0x4b0>
<_ZN24ChiFeature2MCReprocessRT19OnConfigurePipelineERN15ChiFeature2Base22ChiFeaturePipelineDataE+0x4e0>
<_ZN24ChiFeature2MCReprocessRT19OnConfigurePipelineERN15ChiFeature2Base22ChiFeaturePipelineDataE+0x4a4>
0x23c0c <_ZN24ChiFeature2MCReprocessRT19OnConfigurePipelineERN15ChiFeature2Base22ChiFeaturePipelineDataE+0x4a4>
<_ZN24ChiFeature2MCReprocessRT19OnConfigurePipelineERN15ChiFeature2Base22ChiFeaturePipelineDataE+0x4a4>
<_ZN24ChiFeature2MCReprocessRT19OnConfigurePipelineERN15ChiFeature2Base22ChiFeaturePipelineDataE+0x4ec>
<_ZN24ChiFeature2MCReprocessRT19OnConfigurePipelineERN15ChiFeature2Base22ChiFeaturePipelineDataE+0x470>
<_ZN24ChiFeature2MCReprocessRT19OnConfigurePipelineERN15ChiFeature2Base22ChiFeaturePipelineDataE+0x470>
<_ZN24ChiFeature2MCReprocessRT19OnConfigurePipelineERN15ChiFeature2Base22ChiFeaturePipelineDataE+0x470>
0x23d18 <_ZN24ChiFeature2MCReprocessRT19OnConfigurePipelineERN15ChiFeature2Base22ChiFeaturePipelineDataE+0x5b0>
<_ZN24ChiFeature2MCReprocessRT19OnConfigurePipelineERN15ChiFeature2Base22ChiFeaturePipelineDataE+0x578>
<_ZN24ChiFeature2MCReprocessRT19OnConfigurePipelineERN15ChiFeature2Base22ChiFeaturePipelineDataE+0x52c>
<_ZN24ChiFeature2MCReprocessRT35GetMappedInputPortIndexByTargetNameEPKcPKN15ChiFeature2Base22ChiFeaturePipelineDataERNSt3__13mapIS1_NS6_13unordered_mapIjNS6_3setIjNS6_4lessIjEENS6_9allocatorIjEEEENS6_4hashIjEENS6_8equal_toIjEENSC_INS6_4pairIKjSE_EEEEEE21ChiNameLessComparatorNSC_INSJ_IKS1_SN_EEEEEE+0xec8>
<_ZN24ChiFeature2MCReprocessRT19OnConfigurePipelineERN15ChiFeature2Base22ChiFeaturePipelineDataE+0x578>
0x23cb8 <_ZN24ChiFeature2MCReprocessRT19OnConfigurePipelineERN15ChiFeature2Base22ChiFeaturePipelineDataE+0x550>
0x23b9c <_ZN24ChiFeature2MCReprocessRT19OnConfigurePipelineERN15ChiFeature2Base22ChiFeaturePipelineDataE+0x434>
0x23c7c <_ZN24ChiFeature2MCReprocessRT19OnConfigurePipelineERN15ChiFeature2Base22ChiFeaturePipelineDataE+0x514>
0x23b9c <_ZN24ChiFeature2MCReprocessRT19OnConfigurePipelineERN15ChiFeature2Base22ChiFeaturePipelineDataE+0x434>
<_ZN24ChiFeature2MCReprocessRT19OnConfigurePipelineERN15ChiFeature2Base22ChiFeaturePipelineDataE+0x514>
0x23b9c <_ZN24ChiFeature2MCReprocessRT19OnConfigurePipelineERN15ChiFeature2Base22ChiFeaturePipelineDataE+0x434>
<_ZN24ChiFeature2MCReprocessRT19OnConfigurePipelineERN15ChiFeature2Base22ChiFeaturePipelineDataE+0x5f0>
<_ZNKSt3__120__vector_base_commonILb1EE20__throw_length_errorEv@plt>
<_ZNKSt3__120__vector_base_commonILb1EE20__throw_length_errorEv@plt>

0x2406c <_ZN24ChiFeature2MCReprocessRT15OnSessionCreateEP21ChiFeature2Identifier+0x304>
0x44000 <_ZN24ChiFeature2MCReprocessRT15OnSessionCreateEP21ChiFeature2Identifier+0xbc>
<_ZN24ChiFeature2MCReprocessRT15OnSessionCreateEP21ChiFeature2Identifier+0x2d0>
<_ZN24ChiFeature2MCReprocessRT15OnSessionCreateEP21ChiFeature2Identifier+0x6c>
<_ZN24ChiFeature2MCReprocessRT15OnSessionCreateEP21ChiFeature2Identifier+0x70>
<_ZN24ChiFeature2MCReprocessRT15OnSessionCreateEP21ChiFeature2Identifier+0x2e8>
0x2406c <_ZN24ChiFeature2MCReprocessRT15OnSessionCreateEP21ChiFeature2Identifier+0x304>
0x2406c <_ZN24ChiFeature2MCReprocessRT15OnSessionCreateEP21ChiFeature2Identifier+0x304>
<_ZN24ChiFeature2MCReprocessRT15OnSessionCreateEP21ChiFeature2Identifier+0xc4>
<_ZN24ChiFeature2MCReprocessRT15OnSessionCreateEP21ChiFeature2Identifier+0x32c>
<_ZN24ChiFeature2MCReprocessRT15OnSessionCreateEP21ChiFeature2Identifier+0x304>
0x23e1c <_ZN24ChiFeature2MCReprocessRT15OnSessionCreateEP21ChiFeature2Identifier+0xb4>
0x23e98 <_ZN24ChiFeature2MCReprocessRT15OnSessionCreateEP21ChiFeature2Identifier+0x130>
<_ZN18ChiMetadataManager14RegisterClientEiPjjjj16ChiMetadataUsage@plt>
<_ZN24ChiFeature2MCReprocessRT15OnSessionCreateEP21ChiFeature2Identifier+0x2b0>
0x23e98 <_ZN24ChiFeature2MCReprocessRT15OnSessionCreateEP21ChiFeature2Identifier+0x130>
<_ZN24ChiFeature2MCReprocessRT15OnSessionCreateEP21ChiFeature2Identifier+0x150>
<_ZN24ChiFeature2MCReprocessRT15OnSessionCreateEP21ChiFeature2Identifier+0x32c>
<_ZN24ChiFeature2MCReprocessRT15OnSessionCreateEP21ChiFeature2Identifier+0xb4>
<_ZN24ChiFeature2MCReprocessRT15OnSessionCreateEP21ChiFeature2Identifier+0x24c>
<_ZN24ChiFeature2MCReprocessRT15OnSessionCreateEP21ChiFeature2Identifier+0x270>
<_ZN24ChiFeature2MCReprocessRT15OnSessionCreateEP21ChiFeature2Identifier+0x294>
<_ZN24ChiFeature2MCReprocessRT15OnSessionCreateEP21ChiFeature2Identifier+0x13c>
0x23ea4 <_ZN24ChiFeature2MCReprocessRT15OnSessionCreateEP21ChiFeature2Identifier+0x13c>
<_ZN24ChiFeature2MCReprocessRT15OnSessionCreateEP21ChiFeature2Identifier+0x13c>
0x23ea4 <_ZN24ChiFeature2MCReprocessRT15OnSessionCreateEP21ChiFeature2Identifier+0x13c>
<_ZN24ChiFeature2MCReprocessRT15OnSessionCreateEP21ChiFeature2Identifier+0x1f4>
<_ZN24ChiFeature2MCReprocessRT15OnSessionCreateEP21ChiFeature2Identifier+0x13c>
<_ZN24ChiFeature2MCReprocessRT15OnSessionCreateEP21ChiFeature2Identifier+0x210>
<_ZN24ChiFeature2MCReprocessRT15OnSessionCreateEP21ChiFeature2Identifier+0x13c>
0x23ea4 <_ZN24ChiFeature2MCReprocessRT15OnSessionCreateEP21ChiFeature2Identifier+0x13c>
0x23ea4 <_ZN24ChiFeature2MCReprocessRT15OnSessionCreateEP21ChiFeature2Identifier+0x13c>
<_ZN24ChiFeature2MCReprocessRT15OnSessionCreateEP21ChiFeature2Identifier+0x13c>
<_ZN24ChiFeature2MCReprocessRT15OnSessionCreateEP21ChiFeature2Identifier+0x174>
<_ZN24ChiFeature2MCReprocessRT15OnSessionCreateEP21ChiFeature2Identifier+0x188>
<_ZN24ChiFeature2MCReprocessRT15OnSessionCreateEP21ChiFeature2Identifier+0x188>
<_ZN24ChiFeature2MCReprocessRT15OnSessionCreateEP21ChiFeature2Identifier+0x11c>
<_ZN24ChiFeature2MCReprocessRT15OnSessionCreateEP21ChiFeature2Identifier+0x50>
0x23df0 <_ZN24ChiFeature2MCReprocessRT15OnSessionCreateEP21ChiFeature2Identifier+0x88>

0x24124 <_ZNK24ChiFeature2MCReprocessRT16OnPipelineSelectEPKcPK26ChiFeature2CreateInputInfoh+0x8c>
0x24124 <_ZNK24ChiFeature2MCReprocessRT16OnPipelineSelectEPKcPK26ChiFeature2CreateInputInfoh+0x8c>
0x24124 <_ZNK24ChiFeature2MCReprocessRT16OnPipelineSelectEPKcPK26ChiFeature2CreateInputInfoh+0x8c>
0x24124 <_ZNK24ChiFeature2MCReprocessRT16OnPipelineSelectEPKcPK26ChiFeature2CreateInputInfoh+0x8c>
0x24124 <_ZNK24ChiFeature2MCReprocessRT16OnPipelineSelectEPKcPK26ChiFeature2CreateInputInfoh+0x8c>
0x24234 <_ZNK24ChiFeature2MCReprocessRT16OnPipelineSelectEPKcPK26ChiFeature2CreateInputInfoh+0x19c>
0xb000 <_ZN24ChiFeature2MCReprocessRT15OnSessionCreateEP21ChiFeature2Identifier+0x324>
0x241f8 <_ZNK24ChiFeature2MCReprocessRT16OnPipelineSelectEPKcPK26ChiFeature2CreateInputInfoh+0x160>
<_ZNK24ChiFeature2MCReprocessRT16OnPipelineSelectEPKcPK26ChiFeature2CreateInputInfoh+0x68>
<_ZNK24ChiFeature2MCReprocessRT16OnPipelineSelectEPKcPK26ChiFeature2CreateInputInfoh+0x19c>
0x45000 <_ZNK24ChiFeature2MCReprocessRT16OnPipelineSelectEPKcPK26ChiFeature2CreateInputInfoh+0x110>
#0, 0x241d4 <_ZNK24ChiFeature2MCReprocessRT16OnPipelineSelectEPKcPK26ChiFeature2CreateInputInfoh+0x13c>
0x45000 <_ZNK24ChiFeature2MCReprocessRT16OnPipelineSelectEPKcPK26ChiFeature2CreateInputInfoh+0x120>
<_ZNK24ChiFeature2MCReprocessRT16OnPipelineSelectEPKcPK26ChiFeature2CreateInputInfoh+0xf4>
0x11000 <_ZNK24ChiFeature2MCReprocessRT16OnPipelineSelectEPKcPK26ChiFeature2CreateInputInfoh+0x64>
0x11000 <_ZNK24ChiFeature2MCReprocessRT16OnPipelineSelectEPKcPK26ChiFeature2CreateInputInfoh+0x80>
0xf000 <_ZNK24ChiFeature2MCReprocessRT16OnPipelineSelectEPKcPK26ChiFeature2CreateInputInfoh+0x7c>
0xe000 <_ZNK24ChiFeature2MCReprocessRT16OnPipelineSelectEPKcPK26ChiFeature2CreateInputInfoh+0x7c>
0x11000 <_ZNK24ChiFeature2MCReprocessRT16OnPipelineSelectEPKcPK26ChiFeature2CreateInputInfoh+0xa8>
0x11000 <_ZNK24ChiFeature2MCReprocessRT16OnPipelineSelectEPKcPK26ChiFeature2CreateInputInfoh+0xc4>
0xb000 <_ZNK24ChiFeature2MCReprocessRT16OnPipelineSelectEPKcPK26ChiFeature2CreateInputInfoh+0xb4>
0xe000 <_ZNK24ChiFeature2MCReprocessRT16OnPipelineSelectEPKcPK26ChiFeature2CreateInputInfoh+0xc4>
0xf000 <_ZNK24ChiFeature2MCReprocessRT16OnPipelineSelectEPKcPK26ChiFeature2CreateInputInfoh+0xcc>
<_ZN6ChiLog9LogSystemEPKcS1_S1_S1_iS1_z@plt>
<_ZNK24ChiFeature2MCReprocessRT16OnPipelineSelectEPKcPK26ChiFeature2CreateInputInfoh+0x19c>
0x24434 <_ZNK24ChiFeature2MCReprocessRT16OnPipelineSelectEPKcPK26ChiFeature2CreateInputInfoh+0x39c>
<_ZNK24ChiFeature2MCReprocessRT16OnPipelineSelectEPKcPK26ChiFeature2CreateInputInfoh+0x2b0>
0x243d8 <_ZNK24ChiFeature2MCReprocessRT16OnPipelineSelectEPKcPK26ChiFeature2CreateInputInfoh+0x340>
0x11000 <_ZNK24ChiFeature2MCReprocessRT16OnPipelineSelectEPKcPK26ChiFeature2CreateInputInfoh+0x158>
0x241d4 <_ZNK24ChiFeature2MCReprocessRT16OnPipelineSelectEPKcPK26ChiFeature2CreateInputInfoh+0x13c>
0x45000 <_ZNK24ChiFeature2MCReprocessRT16OnPipelineSelectEPKcPK26ChiFeature2CreateInputInfoh+0x23c>
#3, 0x24320 <_ZNK24ChiFeature2MCReprocessRT16OnPipelineSelectEPKcPK26ChiFeature2CreateInputInfoh+0x288>
0x45000 <_ZNK24ChiFeature2MCReprocessRT16OnPipelineSelectEPKcPK26ChiFeature2CreateInputInfoh+0x24c>
0x11000 <_ZNK24ChiFeature2MCReprocessRT16OnPipelineSelectEPKcPK26ChiFeature2CreateInputInfoh+0x180>
<_ZNK24ChiFeature2MCReprocessRT16OnPipelineSelectEPKcPK26ChiFeature2CreateInputInfoh+0x234>
0x11000 <_ZNK24ChiFeature2MCReprocessRT16OnPipelineSelectEPKcPK26ChiFeature2CreateInputInfoh+0x1b4>
0x10000 <_ZNK24ChiFeature2MCReprocessRT16OnPipelineSelectEPKcPK26ChiFeature2CreateInputInfoh+0x1b4>
0xe000 <_ZNK24ChiFeature2MCReprocessRT16OnPipelineSelectEPKcPK26ChiFeature2CreateInputInfoh+0x1b0>
0x11000 <_ZNK24ChiFeature2MCReprocessRT16OnPipelineSelectEPKcPK26ChiFeature2CreateInputInfoh+0x208>
0xe000 <_ZNK24ChiFeature2MCReprocessRT16OnPipelineSelectEPKcPK26ChiFeature2CreateInputInfoh+0x200>
0xe000 <_ZNK24ChiFeature2MCReprocessRT16OnPipelineSelectEPKcPK26ChiFeature2CreateInputInfoh+0x204>
0x10000 <_ZNK24ChiFeature2MCReprocessRT16OnPipelineSelectEPKcPK26ChiFeature2CreateInputInfoh+0x210>
<_ZN6ChiLog9LogSystemEPKcS1_S1_S1_iS1_z@plt>
<_ZNK24ChiFeature2MCReprocessRT16OnPipelineSelectEPKcPK26ChiFeature2CreateInputInfoh+0x140>
<_ZNK24ChiFeature2MCReprocessRT16OnPipelineSelectEPKcPK26ChiFeature2CreateInputInfoh+0x5d8>
<_ZNK24ChiFeature2MCReprocessRT16OnPipelineSelectEPKcPK26ChiFeature2CreateInputInfoh+0x3b4>
<_ZNK24ChiFeature2MCReprocessRT16OnPipelineSelectEPKcPK26ChiFeature2CreateInputInfoh+0x2cc>
#0, 0x2438c <_ZNK24ChiFeature2MCReprocessRT16OnPipelineSelectEPKcPK26ChiFeature2CreateInputInfoh+0x2f4>
<_ZN15UsecaseSelector11IsYUVStreamEPK14camera3_stream@plt>
0x24338 <_ZNK24ChiFeature2MCReprocessRT16OnPipelineSelectEPKcPK26ChiFeature2CreateInputInfoh+0x2a0>
<_ZNK24ChiFeature2MCReprocessRT16OnPipelineSelectEPKcPK26ChiFeature2CreateInputInfoh+0x290>
0x24330 <_ZNK24ChiFeature2MCReprocessRT16OnPipelineSelectEPKcPK26ChiFeature2CreateInputInfoh+0x298>
<_ZNK24ChiFeature2MCReprocessRT16OnPipelineSelectEPKcPK26ChiFeature2CreateInputInfoh+0x298>
<_ZNK24ChiFeature2MCReprocessRT16OnPipelineSelectEPKcPK26ChiFeature2CreateInputInfoh+0x5dc>
<_ZN15ExtensionModule11GetInstanceEv@plt>
<_ZNK24ChiFeature2MCReprocessRT16OnPipelineSelectEPKcPK26ChiFeature2CreateInputInfoh+0x2a0>
<_ZNK24ChiFeature2MCReprocessRT16OnPipelineSelectEPKcPK26ChiFeature2CreateInputInfoh+0x2a0>
0x44000 <_ZNK24ChiFeature2MCReprocessRT16OnPipelineSelectEPKcPK26ChiFeature2CreateInputInfoh+0x3c4>
<_ZNK24ChiFeature2MCReprocessRT16OnPipelineSelectEPKcPK26ChiFeature2CreateInputInfoh+0x490>
<_ZNK24ChiFeature2MCReprocessRT16OnPipelineSelectEPKcPK26ChiFeature2CreateInputInfoh+0x4b0>
0x2442c <_ZNK24ChiFeature2MCReprocessRT16OnPipelineSelectEPKcPK26ChiFeature2CreateInputInfoh+0x394>
<_ZNK24ChiFeature2MCReprocessRT16OnPipelineSelectEPKcPK26ChiFeature2CreateInputInfoh+0x4d0>
#6, 0x245ac <_ZNK24ChiFeature2MCReprocessRT16OnPipelineSelectEPKcPK26ChiFeature2CreateInputInfoh+0x514>
<_ZNK24ChiFeature2MCReprocessRT16OnPipelineSelectEPKcPK26ChiFeature2CreateInputInfoh+0x4f4>
#5, 0x245ac <_ZNK24ChiFeature2MCReprocessRT16OnPipelineSelectEPKcPK26ChiFeature2CreateInputInfoh+0x514>
<_ZNK24ChiFeature2MCReprocessRT16OnPipelineSelectEPKcPK26ChiFeature2CreateInputInfoh+0x530>
<_ZNK24ChiFeature2MCReprocessRT16OnPipelineSelectEPKcPK26ChiFeature2CreateInputInfoh+0x5dc>
<_ZNK24ChiFeature2MCReprocessRT16OnPipelineSelectEPKcPK26ChiFeature2CreateInputInfoh+0x5dc>
0x244ac <_ZNK24ChiFeature2MCReprocessRT16OnPipelineSelectEPKcPK26ChiFeature2CreateInputInfoh+0x414>
<_ZNK24ChiFeature2MCReprocessRT16OnPipelineSelectEPKcPK26ChiFeature2CreateInputInfoh+0x5dc>
<_ZNK24ChiFeature2MCReprocessRT16OnPipelineSelectEPKcPK26ChiFeature2CreateInputInfoh+0x1a4>
0x11000 <_ZNK24ChiFeature2MCReprocessRT16OnPipelineSelectEPKcPK26ChiFeature2CreateInputInfoh+0x3b0>
0x241d4 <_ZNK24ChiFeature2MCReprocessRT16OnPipelineSelectEPKcPK26ChiFeature2CreateInputInfoh+0x13c>
<_ZNK24ChiFeature2MCReprocessRT16OnPipelineSelectEPKcPK26ChiFeature2CreateInputInfoh+0x1b8>
<_ZN15ExtensionModule11GetInstanceEv@plt>
0x244e4 <_ZNK24ChiFeature2MCReprocessRT16OnPipelineSelectEPKcPK26ChiFeature2CreateInputInfoh+0x44c>
<_ZNK24ChiFeature2MCReprocessRT16OnPipelineSelectEPKcPK26ChiFeature2CreateInputInfoh+0x44c>
<_ZNK24ChiFeature2MCReprocessRT16OnPipelineSelectEPKcPK26ChiFeature2CreateInputInfoh+0x478>
0x11000 <_ZNK24ChiFeature2MCReprocessRT16OnPipelineSelectEPKcPK26ChiFeature2CreateInputInfoh+0x3e8>
0x241d4 <_ZNK24ChiFeature2MCReprocessRT16OnPipelineSelectEPKcPK26ChiFeature2CreateInputInfoh+0x13c>
<_ZNK24ChiFeature2MCReprocessRT16OnPipelineSelectEPKcPK26ChiFeature2CreateInputInfoh+0x1b8>
<_ZNK24ChiFeature2MCReprocessRT16OnPipelineSelectEPKcPK26ChiFeature2CreateInputInfoh+0x5dc>
<_ZNK24ChiFeature2MCReprocessRT16OnPipelineSelectEPKcPK26ChiFeature2CreateInputInfoh+0x58c>
0x11000 <_ZNK24ChiFeature2MCReprocessRT16OnPipelineSelectEPKcPK26ChiFeature2CreateInputInfoh+0x414>
0x241d4 <_ZNK24ChiFeature2MCReprocessRT16OnPipelineSelectEPKcPK26ChiFeature2CreateInputInfoh+0x13c>
<_ZNK24ChiFeature2MCReprocessRT16OnPipelineSelectEPKcPK26ChiFeature2CreateInputInfoh+0x1b8>
0x11000 <_ZNK24ChiFeature2MCReprocessRT16OnPipelineSelectEPKcPK26ChiFeature2CreateInputInfoh+0x42c>
0x241d4 <_ZNK24ChiFeature2MCReprocessRT16OnPipelineSelectEPKcPK26ChiFeature2CreateInputInfoh+0x13c>
<_ZNK24ChiFeature2MCReprocessRT16OnPipelineSelectEPKcPK26ChiFeature2CreateInputInfoh+0x1b8>
<_ZNK24ChiFeature2MCReprocessRT16OnPipelineSelectEPKcPK26ChiFeature2CreateInputInfoh+0x360>
0x24400 <_ZNK24ChiFeature2MCReprocessRT16OnPipelineSelectEPKcPK26ChiFeature2CreateInputInfoh+0x368>
<_ZNK24ChiFeature2MCReprocessRT16OnPipelineSelectEPKcPK26ChiFeature2CreateInputInfoh+0x394>
#6, 0x24418 <_ZNK24ChiFeature2MCReprocessRT16OnPipelineSelectEPKcPK26ChiFeature2CreateInputInfoh+0x380>
<_ZNK24ChiFeature2MCReprocessRT16OnPipelineSelectEPKcPK26ChiFeature2CreateInputInfoh+0x514>
#5, 0x2442c <_ZNK24ChiFeature2MCReprocessRT16OnPipelineSelectEPKcPK26ChiFeature2CreateInputInfoh+0x394>
<_ZNK24ChiFeature2MCReprocessRT16OnPipelineSelectEPKcPK26ChiFeature2CreateInputInfoh+0x5bc>
<_ZN15ExtensionModule11GetInstanceEv@plt>
0x24600 <_ZNK24ChiFeature2MCReprocessRT16OnPipelineSelectEPKcPK26ChiFeature2CreateInputInfoh+0x568>
0x24608 <_ZNK24ChiFeature2MCReprocessRT16OnPipelineSelectEPKcPK26ChiFeature2CreateInputInfoh+0x570>
0x2463c <_ZNK24ChiFeature2MCReprocessRT16OnPipelineSelectEPKcPK26ChiFeature2CreateInputInfoh+0x5a4>
0x11000 <_ZNK24ChiFeature2MCReprocessRT16OnPipelineSelectEPKcPK26ChiFeature2CreateInputInfoh+0x504>
0x241d4 <_ZNK24ChiFeature2MCReprocessRT16OnPipelineSelectEPKcPK26ChiFeature2CreateInputInfoh+0x13c>
<_ZNK24ChiFeature2MCReprocessRT16OnPipelineSelectEPKcPK26ChiFeature2CreateInputInfoh+0x1b8>
0x245e4 <_ZNK24ChiFeature2MCReprocessRT16OnPipelineSelectEPKcPK26ChiFeature2CreateInputInfoh+0x54c>
0x24624 <_ZNK24ChiFeature2MCReprocessRT16OnPipelineSelectEPKcPK26ChiFeature2CreateInputInfoh+0x58c>
0x11000 <_ZNK24ChiFeature2MCReprocessRT16OnPipelineSelectEPKcPK26ChiFeature2CreateInputInfoh+0x528>
0x241d4 <_ZNK24ChiFeature2MCReprocessRT16OnPipelineSelectEPKcPK26ChiFeature2CreateInputInfoh+0x13c>
<_ZNK24ChiFeature2MCReprocessRT16OnPipelineSelectEPKcPK26ChiFeature2CreateInputInfoh+0x1b8>
0x11000 <_ZNK24ChiFeature2MCReprocessRT16OnPipelineSelectEPKcPK26ChiFeature2CreateInputInfoh+0x540>
0x241d4 <_ZNK24ChiFeature2MCReprocessRT16OnPipelineSelectEPKcPK26ChiFeature2CreateInputInfoh+0x13c>
<_ZNK24ChiFeature2MCReprocessRT16OnPipelineSelectEPKcPK26ChiFeature2CreateInputInfoh+0x1b8>
0x11000 <_ZNK24ChiFeature2MCReprocessRT16OnPipelineSelectEPKcPK26ChiFeature2CreateInputInfoh+0x558>
0x241d4 <_ZNK24ChiFeature2MCReprocessRT16OnPipelineSelectEPKcPK26ChiFeature2CreateInputInfoh+0x13c>
<_ZNK24ChiFeature2MCReprocessRT16OnPipelineSelectEPKcPK26ChiFeature2CreateInputInfoh+0x1b8>
<_ZNK24ChiFeature2MCReprocessRT16OnPipelineSelectEPKcPK26ChiFeature2CreateInputInfoh+0x524>

0x24704 <_ZNK24ChiFeature2MCReprocessRT24OnPruneUsecaseDescriptorEPK26ChiFeature2CreateInputInfoRNSt3__16vectorI12PruneVariantNS3_9allocatorIS5_EEEE+0x8c>
0x2470c <_ZNK24ChiFeature2MCReprocessRT24OnPruneUsecaseDescriptorEPK26ChiFeature2CreateInputInfoRNSt3__16vectorI12PruneVariantNS3_9allocatorIS5_EEEE+0x94>
0x24718 <_ZNK24ChiFeature2MCReprocessRT24OnPruneUsecaseDescriptorEPK26ChiFeature2CreateInputInfoRNSt3__16vectorI12PruneVariantNS3_9allocatorIS5_EEEE+0xa0>
0xb000 <_ZNK24ChiFeature2MCReprocessRT16OnPipelineSelectEPKcPK26ChiFeature2CreateInputInfoh+0x5cc>
0x24720 <_ZNK24ChiFeature2MCReprocessRT24OnPruneUsecaseDescriptorEPK26ChiFeature2CreateInputInfoRNSt3__16vectorI12PruneVariantNS3_9allocatorIS5_EEEE+0xa8>
<_ZNK24ChiFeature2MCReprocessRT24OnPruneUsecaseDescriptorEPK26ChiFeature2CreateInputInfoRNSt3__16vectorI12PruneVariantNS3_9allocatorIS5_EEEE+0x68>
<_ZNK24ChiFeature2MCReprocessRT24OnPruneUsecaseDescriptorEPK26ChiFeature2CreateInputInfoRNSt3__16vectorI12PruneVariantNS3_9allocatorIS5_EEEE+0x494>
<_ZNK24ChiFeature2MCReprocessRT24OnPruneUsecaseDescriptorEPK26ChiFeature2CreateInputInfoRNSt3__16vectorI12PruneVariantNS3_9allocatorIS5_EEEE+0x9d4>
<_ZNK24ChiFeature2MCReprocessRT24OnPruneUsecaseDescriptorEPK26ChiFeature2CreateInputInfoRNSt3__16vectorI12PruneVariantNS3_9allocatorIS5_EEEE+0x4b4>
<_ZNK24ChiFeature2MCReprocessRT24OnPruneUsecaseDescriptorEPK26ChiFeature2CreateInputInfoRNSt3__16vectorI12PruneVariantNS3_9allocatorIS5_EEEE+0x4a0>
0x24b0c <_ZNK24ChiFeature2MCReprocessRT24OnPruneUsecaseDescriptorEPK26ChiFeature2CreateInputInfoRNSt3__16vectorI12PruneVariantNS3_9allocatorIS5_EEEE+0x494>
<_ZNK24ChiFeature2MCReprocessRT24OnPruneUsecaseDescriptorEPK26ChiFeature2CreateInputInfoRNSt3__16vectorI12PruneVariantNS3_9allocatorIS5_EEEE+0x494>
0xe000 <_ZNK24ChiFeature2MCReprocessRT24OnPruneUsecaseDescriptorEPK26ChiFeature2CreateInputInfoRNSt3__16vectorI12PruneVariantNS3_9allocatorIS5_EEEE+0x68>
0xf000 <_ZNK24ChiFeature2MCReprocessRT24OnPruneUsecaseDescriptorEPK26ChiFeature2CreateInputInfoRNSt3__16vectorI12PruneVariantNS3_9allocatorIS5_EEEE+0x70>
<_ZNK24ChiFeature2MCReprocessRT24OnPruneUsecaseDescriptorEPK26ChiFeature2CreateInputInfoRNSt3__16vectorI12PruneVariantNS3_9allocatorIS5_EEEE+0xf4>
<_ZNK24ChiFeature2MCReprocessRT24OnPruneUsecaseDescriptorEPK26ChiFeature2CreateInputInfoRNSt3__16vectorI12PruneVariantNS3_9allocatorIS5_EEEE+0x12c>
0x24788 <_ZNK24ChiFeature2MCReprocessRT24OnPruneUsecaseDescriptorEPK26ChiFeature2CreateInputInfoRNSt3__16vectorI12PruneVariantNS3_9allocatorIS5_EEEE+0x110>
0x2475c <_ZNK24ChiFeature2MCReprocessRT24OnPruneUsecaseDescriptorEPK26ChiFeature2CreateInputInfoRNSt3__16vectorI12PruneVariantNS3_9allocatorIS5_EEEE+0xe4>
<_ZNK24ChiFeature2MCReprocessRT24OnPruneUsecaseDescriptorEPK26ChiFeature2CreateInputInfoRNSt3__16vectorI12PruneVariantNS3_9allocatorIS5_EEEE+0xe4>
0x24880 <_ZNK24ChiFeature2MCReprocessRT24OnPruneUsecaseDescriptorEPK26ChiFeature2CreateInputInfoRNSt3__16vectorI12PruneVariantNS3_9allocatorIS5_EEEE+0x208>
<_ZNK24ChiFeature2MCReprocessRT24OnPruneUsecaseDescriptorEPK26ChiFeature2CreateInputInfoRNSt3__16vectorI12PruneVariantNS3_9allocatorIS5_EEEE+0x180>
<_ZN15UsecaseSelector15IsPreviewStreamEPK14camera3_stream@plt>
0x24834 <_ZNK24ChiFeature2MCReprocessRT24OnPruneUsecaseDescriptorEPK26ChiFeature2CreateInputInfoRNSt3__16vectorI12PruneVariantNS3_9allocatorIS5_EEEE+0x1bc>
<_ZNK24ChiFeature2MCReprocessRT24OnPruneUsecaseDescriptorEPK26ChiFeature2CreateInputInfoRNSt3__16vectorI12PruneVariantNS3_9allocatorIS5_EEEE+0x1d4>
#0, 0x247d0 <_ZNK24ChiFeature2MCReprocessRT24OnPruneUsecaseDescriptorEPK26ChiFeature2CreateInputInfoRNSt3__16vectorI12PruneVariantNS3_9allocatorIS5_EEEE+0x158>
#0, 0x247d0 <_ZNK24ChiFeature2MCReprocessRT24OnPruneUsecaseDescriptorEPK26ChiFeature2CreateInputInfoRNSt3__16vectorI12PruneVariantNS3_9allocatorIS5_EEEE+0x158>
<_ZNK24ChiFeature2MCReprocessRT24OnPruneUsecaseDescriptorEPK26ChiFeature2CreateInputInfoRNSt3__16vectorI12PruneVariantNS3_9allocatorIS5_EEEE+0x158>
<_ZNK24ChiFeature2MCReprocessRT24OnPruneUsecaseDescriptorEPK26ChiFeature2CreateInputInfoRNSt3__16vectorI12PruneVariantNS3_9allocatorIS5_EEEE+0x170>
<_ZN15UsecaseSelector11IsYUVStreamEPK14camera3_stream@plt>
0x247e8 <_ZNK24ChiFeature2MCReprocessRT24OnPruneUsecaseDescriptorEPK26ChiFeature2CreateInputInfoRNSt3__16vectorI12PruneVariantNS3_9allocatorIS5_EEEE+0x170>
<_ZNK24ChiFeature2MCReprocessRT24OnPruneUsecaseDescriptorEPK26ChiFeature2CreateInputInfoRNSt3__16vectorI12PruneVariantNS3_9allocatorIS5_EEEE+0x170>
<_ZNK24ChiFeature2MCReprocessRT24OnPruneUsecaseDescriptorEPK26ChiFeature2CreateInputInfoRNSt3__16vectorI12PruneVariantNS3_9allocatorIS5_EEEE+0x220>
<_ZNK24ChiFeature2MCReprocessRT24OnPruneUsecaseDescriptorEPK26ChiFeature2CreateInputInfoRNSt3__16vectorI12PruneVariantNS3_9allocatorIS5_EEEE+0xa04>
<_ZNK24ChiFeature2MCReprocessRT24OnPruneUsecaseDescriptorEPK26ChiFeature2CreateInputInfoRNSt3__16vectorI12PruneVariantNS3_9allocatorIS5_EEEE+0xa04>
<_ZNK24ChiFeature2MCReprocessRT24OnPruneUsecaseDescriptorEPK26ChiFeature2CreateInputInfoRNSt3__16vectorI12PruneVariantNS3_9allocatorIS5_EEEE+0x224>
<_ZNK24ChiFeature2MCReprocessRT24OnPruneUsecaseDescriptorEPK26ChiFeature2CreateInputInfoRNSt3__16vectorI12PruneVariantNS3_9allocatorIS5_EEEE+0x284>
<_ZNK24ChiFeature2MCReprocessRT24OnPruneUsecaseDescriptorEPK26ChiFeature2CreateInputInfoRNSt3__16vectorI12PruneVariantNS3_9allocatorIS5_EEEE+0x250>
<_ZNK24ChiFeature2MCReprocessRT24OnPruneUsecaseDescriptorEPK26ChiFeature2CreateInputInfoRNSt3__16vectorI12PruneVariantNS3_9allocatorIS5_EEEE+0xa04>
<_ZNK24ChiFeature2MCReprocessRT24OnPruneUsecaseDescriptorEPK26ChiFeature2CreateInputInfoRNSt3__16vectorI12PruneVariantNS3_9allocatorIS5_EEEE+0xa04>
<_ZNK24ChiFeature2MCReprocessRT24OnPruneUsecaseDescriptorEPK26ChiFeature2CreateInputInfoRNSt3__16vectorI12PruneVariantNS3_9allocatorIS5_EEEE+0x284>
<_ZNK24ChiFeature2MCReprocessRT24OnPruneUsecaseDescriptorEPK26ChiFeature2CreateInputInfoRNSt3__16vectorI12PruneVariantNS3_9allocatorIS5_EEEE+0xa04>
<_ZNK24ChiFeature2MCReprocessRT24OnPruneUsecaseDescriptorEPK26ChiFeature2CreateInputInfoRNSt3__16vectorI12PruneVariantNS3_9allocatorIS5_EEEE+0xa04>
<_ZNK24ChiFeature2MCReprocessRT24OnPruneUsecaseDescriptorEPK26ChiFeature2CreateInputInfoRNSt3__16vectorI12PruneVariantNS3_9allocatorIS5_EEEE+0x288>
<_ZN24ChiFeature2MCReprocessRT35GetMappedInputPortIndexByTargetNameEPKcPKN15ChiFeature2Base22ChiFeaturePipelineDataERNSt3__13mapIS1_NS6_13unordered_mapIjNS6_3setIjNS6_4lessIjEENS6_9allocatorIjEEEENS6_4hashIjEENS6_8equal_toIjEENSC_INS6_4pairIKjSE_EEEEEE21ChiNameLessComparatorNSC_INSJ_IKS1_SN_EEEEEE+0xd80>
<_ZN24ChiFeature2MCReprocessRT22UpdateStreamCropEnableEP11ChiMetadataPK24ChiFeature2InstanceProps+0x260>
0x249a0 <_ZNK24ChiFeature2MCReprocessRT24OnPruneUsecaseDescriptorEPK26ChiFeature2CreateInputInfoRNSt3__16vectorI12PruneVariantNS3_9allocatorIS5_EEEE+0x328>
<_ZN24ChiFeature2MCReprocessRT22UpdateStreamCropEnableEP11ChiMetadataPK24ChiFeature2InstanceProps+0x260>
<_ZNK24ChiFeature2MCReprocessRT24OnPruneUsecaseDescriptorEPK26ChiFeature2CreateInputInfoRNSt3__16vectorI12PruneVariantNS3_9allocatorIS5_EEEE+0xa04>
<_ZNK24ChiFeature2MCReprocessRT24OnPruneUsecaseDescriptorEPK26ChiFeature2CreateInputInfoRNSt3__16vectorI12PruneVariantNS3_9allocatorIS5_EEEE+0xa04>
<_ZNK24ChiFeature2MCReprocessRT24OnPruneUsecaseDescriptorEPK26ChiFeature2CreateInputInfoRNSt3__16vectorI12PruneVariantNS3_9allocatorIS5_EEEE+0x2d0>
<_ZNK24ChiFeature2MCReprocessRT24OnPruneUsecaseDescriptorEPK26ChiFeature2CreateInputInfoRNSt3__16vectorI12PruneVariantNS3_9allocatorIS5_EEEE+0x360>
<_ZNK24ChiFeature2MCReprocessRT24OnPruneUsecaseDescriptorEPK26ChiFeature2CreateInputInfoRNSt3__16vectorI12PruneVariantNS3_9allocatorIS5_EEEE+0x364>
<_ZNK24ChiFeature2MCReprocessRT24OnPruneUsecaseDescriptorEPK26ChiFeature2CreateInputInfoRNSt3__16vectorI12PruneVariantNS3_9allocatorIS5_EEEE+0x364>
0x11000 <_ZNK24ChiFeature2MCReprocessRT24OnPruneUsecaseDescriptorEPK26ChiFeature2CreateInputInfoRNSt3__16vectorI12PruneVariantNS3_9allocatorIS5_EEEE+0x318>
<_ZN15UsecaseSelector15GetVariantGroupEPKc@plt>
0xe000 <_ZNK24ChiFeature2MCReprocessRT24OnPruneUsecaseDescriptorEPK26ChiFeature2CreateInputInfoRNSt3__16vectorI12PruneVariantNS3_9allocatorIS5_EEEE+0x318>
0xd000 <_ZNK24ChiFeature2MCReprocessRT24OnPruneUsecaseDescriptorEPK26ChiFeature2CreateInputInfoRNSt3__16vectorI12PruneVariantNS3_9allocatorIS5_EEEE+0x318>
<_ZN15UsecaseSelector14GetVariantTypeEPKc@plt>
<_ZN24ChiFeature2MCReprocessRT35GetMappedInputPortIndexByTargetNameEPKcPKN15ChiFeature2Base22ChiFeaturePipelineDataERNSt3__13mapIS1_NS6_13unordered_mapIjNS6_3setIjNS6_4lessIjEENS6_9allocatorIjEEEENS6_4hashIjEENS6_8equal_toIjEENSC_INS6_4pairIKjSE_EEEEEE21ChiNameLessComparatorNSC_INSJ_IKS1_SN_EEEEEE+0xc58>
0xb000 <_ZNK24ChiFeature2MCReprocessRT24OnPruneUsecaseDescriptorEPK26ChiFeature2CreateInputInfoRNSt3__16vectorI12PruneVariantNS3_9allocatorIS5_EEEE+0x344>
<_ZN15UsecaseSelector15GetVariantGroupEPKc@plt>
<_ZN15UsecaseSelector14GetVariantTypeEPKc@plt>
<_ZN24ChiFeature2MCReprocessRT35GetMappedInputPortIndexByTargetNameEPKcPKN15ChiFeature2Base22ChiFeaturePipelineDataERNSt3__13mapIS1_NS6_13unordered_mapIjNS6_3setIjNS6_4lessIjEENS6_9allocatorIjEEEENS6_4hashIjEENS6_8equal_toIjEENSC_INS6_4pairIKjSE_EEEEEE21ChiNameLessComparatorNSC_INSJ_IKS1_SN_EEEEEE+0xc58>
0x45000 <_ZNK24ChiFeature2MCReprocessRT24OnPruneUsecaseDescriptorEPK26ChiFeature2CreateInputInfoRNSt3__16vectorI12PruneVariantNS3_9allocatorIS5_EEEE+0x45c>
#3, 0x24b08 <_ZNK24ChiFeature2MCReprocessRT24OnPruneUsecaseDescriptorEPK26ChiFeature2CreateInputInfoRNSt3__16vectorI12PruneVariantNS3_9allocatorIS5_EEEE+0x490>
0x45000 <_ZNK24ChiFeature2MCReprocessRT24OnPruneUsecaseDescriptorEPK26ChiFeature2CreateInputInfoRNSt3__16vectorI12PruneVariantNS3_9allocatorIS5_EEEE+0x46c>
0x11000 <_ZNK24ChiFeature2MCReprocessRT24OnPruneUsecaseDescriptorEPK26ChiFeature2CreateInputInfoRNSt3__16vectorI12PruneVariantNS3_9allocatorIS5_EEEE+0x3a0>
<_ZNK24ChiFeature2MCReprocessRT24OnPruneUsecaseDescriptorEPK26ChiFeature2CreateInputInfoRNSt3__16vectorI12PruneVariantNS3_9allocatorIS5_EEEE+0x448>
0x11000 <_ZNK24ChiFeature2MCReprocessRT24OnPruneUsecaseDescriptorEPK26ChiFeature2CreateInputInfoRNSt3__16vectorI12PruneVariantNS3_9allocatorIS5_EEEE+0x3cc>
0x11000 <_ZNK24ChiFeature2MCReprocessRT24OnPruneUsecaseDescriptorEPK26ChiFeature2CreateInputInfoRNSt3__16vectorI12PruneVariantNS3_9allocatorIS5_EEEE+0x3d0>
0x10000 <_ZNK24ChiFeature2MCReprocessRT24OnPruneUsecaseDescriptorEPK26ChiFeature2CreateInputInfoRNSt3__16vectorI12PruneVariantNS3_9allocatorIS5_EEEE+0x3d0>
0xe000 <_ZNK24ChiFeature2MCReprocessRT24OnPruneUsecaseDescriptorEPK26ChiFeature2CreateInputInfoRNSt3__16vectorI12PruneVariantNS3_9allocatorIS5_EEEE+0x404>
0x11000 <_ZNK24ChiFeature2MCReprocessRT24OnPruneUsecaseDescriptorEPK26ChiFeature2CreateInputInfoRNSt3__16vectorI12PruneVariantNS3_9allocatorIS5_EEEE+0x418>
0x10000 <_ZNK24ChiFeature2MCReprocessRT24OnPruneUsecaseDescriptorEPK26ChiFeature2CreateInputInfoRNSt3__16vectorI12PruneVariantNS3_9allocatorIS5_EEEE+0x418>
0xf000 <_ZNK24ChiFeature2MCReprocessRT24OnPruneUsecaseDescriptorEPK26ChiFeature2CreateInputInfoRNSt3__16vectorI12PruneVariantNS3_9allocatorIS5_EEEE+0x418>
<_ZN6ChiLog9LogSystemEPKcS1_S1_S1_iS1_z@plt>
0x24b28 <_ZNK24ChiFeature2MCReprocessRT24OnPruneUsecaseDescriptorEPK26ChiFeature2CreateInputInfoRNSt3__16vectorI12PruneVariantNS3_9allocatorIS5_EEEE+0x4b0>
<_ZNK24ChiFeature2MCReprocessRT24OnPruneUsecaseDescriptorEPK26ChiFeature2CreateInputInfoRNSt3__16vectorI12PruneVariantNS3_9allocatorIS5_EEEE+0x4b4>
0x44000 <_ZNK24ChiFeature2MCReprocessRT24OnPruneUsecaseDescriptorEPK26ChiFeature2CreateInputInfoRNSt3__16vectorI12PruneVariantNS3_9allocatorIS5_EEEE+0x538>
<_ZNK24ChiFeature2MCReprocessRT24OnPruneUsecaseDescriptorEPK26ChiFeature2CreateInputInfoRNSt3__16vectorI12PruneVariantNS3_9allocatorIS5_EEEE+0x5e8>
<_ZNK24ChiFeature2MCReprocessRT24OnPruneUsecaseDescriptorEPK26ChiFeature2CreateInputInfoRNSt3__16vectorI12PruneVariantNS3_9allocatorIS5_EEEE+0x608>
0x24d08 <_ZNK24ChiFeature2MCReprocessRT24OnPruneUsecaseDescriptorEPK26ChiFeature2CreateInputInfoRNSt3__16vectorI12PruneVariantNS3_9allocatorIS5_EEEE+0x690>
<_ZNK24ChiFeature2MCReprocessRT24OnPruneUsecaseDescriptorEPK26ChiFeature2CreateInputInfoRNSt3__16vectorI12PruneVariantNS3_9allocatorIS5_EEEE+0x628>
#6, 0x24b80 <_ZNK24ChiFeature2MCReprocessRT24OnPruneUsecaseDescriptorEPK26ChiFeature2CreateInputInfoRNSt3__16vectorI12PruneVariantNS3_9allocatorIS5_EEEE+0x508>
<_ZNK24ChiFeature2MCReprocessRT24OnPruneUsecaseDescriptorEPK26ChiFeature2CreateInputInfoRNSt3__16vectorI12PruneVariantNS3_9allocatorIS5_EEEE+0x670>
#5, 0x24d08 <_ZNK24ChiFeature2MCReprocessRT24OnPruneUsecaseDescriptorEPK26ChiFeature2CreateInputInfoRNSt3__16vectorI12PruneVariantNS3_9allocatorIS5_EEEE+0x690>
<_ZNK24ChiFeature2MCReprocessRT24OnPruneUsecaseDescriptorEPK26ChiFeature2CreateInputInfoRNSt3__16vectorI12PruneVariantNS3_9allocatorIS5_EEEE+0x64c>
<_ZNK24ChiFeature2MCReprocessRT24OnPruneUsecaseDescriptorEPK26ChiFeature2CreateInputInfoRNSt3__16vectorI12PruneVariantNS3_9allocatorIS5_EEEE+0x690>
#0, 0x24d08 <_ZNK24ChiFeature2MCReprocessRT24OnPruneUsecaseDescriptorEPK26ChiFeature2CreateInputInfoRNSt3__16vectorI12PruneVariantNS3_9allocatorIS5_EEEE+0x690>
0x45000 <_ZNK24ChiFeature2MCReprocessRT24OnPruneUsecaseDescriptorEPK26ChiFeature2CreateInputInfoRNSt3__16vectorI12PruneVariantNS3_9allocatorIS5_EEEE+0x5ac>
#0, 0x24bb8 <_ZNK24ChiFeature2MCReprocessRT24OnPruneUsecaseDescriptorEPK26ChiFeature2CreateInputInfoRNSt3__16vectorI12PruneVariantNS3_9allocatorIS5_EEEE+0x540>
<_ZNK24ChiFeature2MCReprocessRT24OnPruneUsecaseDescriptorEPK26ChiFeature2CreateInputInfoRNSt3__16vectorI12PruneVariantNS3_9allocatorIS5_EEEE+0x9d4>
0x45000 <_ZNK24ChiFeature2MCReprocessRT24OnPruneUsecaseDescriptorEPK26ChiFeature2CreateInputInfoRNSt3__16vectorI12PruneVariantNS3_9allocatorIS5_EEEE+0x5c4>
<_ZNK24ChiFeature2MCReprocessRT24OnPruneUsecaseDescriptorEPK26ChiFeature2CreateInputInfoRNSt3__16vectorI12PruneVariantNS3_9allocatorIS5_EEEE+0x598>
0x11000 <_ZNK24ChiFeature2MCReprocessRT24OnPruneUsecaseDescriptorEPK26ChiFeature2CreateInputInfoRNSt3__16vectorI12PruneVariantNS3_9allocatorIS5_EEEE+0x508>
0x11000 <_ZNK24ChiFeature2MCReprocessRT24OnPruneUsecaseDescriptorEPK26ChiFeature2CreateInputInfoRNSt3__16vectorI12PruneVariantNS3_9allocatorIS5_EEEE+0x524>
0xf000 <_ZNK24ChiFeature2MCReprocessRT24OnPruneUsecaseDescriptorEPK26ChiFeature2CreateInputInfoRNSt3__16vectorI12PruneVariantNS3_9allocatorIS5_EEEE+0x520>
0x10000 <_ZNK24ChiFeature2MCReprocessRT24OnPruneUsecaseDescriptorEPK26ChiFeature2CreateInputInfoRNSt3__16vectorI12PruneVariantNS3_9allocatorIS5_EEEE+0x528>
0x11000 <_ZNK24ChiFeature2MCReprocessRT24OnPruneUsecaseDescriptorEPK26ChiFeature2CreateInputInfoRNSt3__16vectorI12PruneVariantNS3_9allocatorIS5_EEEE+0x54c>
0x11000 <_ZNK24ChiFeature2MCReprocessRT24OnPruneUsecaseDescriptorEPK26ChiFeature2CreateInputInfoRNSt3__16vectorI12PruneVariantNS3_9allocatorIS5_EEEE+0x568>
0xb000 <_ZNK24ChiFeature2MCReprocessRT24OnPruneUsecaseDescriptorEPK26ChiFeature2CreateInputInfoRNSt3__16vectorI12PruneVariantNS3_9allocatorIS5_EEEE+0x558>
0x10000 <_ZNK24ChiFeature2MCReprocessRT24OnPruneUsecaseDescriptorEPK26ChiFeature2CreateInputInfoRNSt3__16vectorI12PruneVariantNS3_9allocatorIS5_EEEE+0x570>
0x11000 <_ZNK24ChiFeature2MCReprocessRT24OnPruneUsecaseDescriptorEPK26ChiFeature2CreateInputInfoRNSt3__16vectorI12PruneVariantNS3_9allocatorIS5_EEEE+0x578>
<_ZN6ChiLog9LogSystemEPKcS1_S1_S1_iS1_z@plt>
<_ZNK24ChiFeature2MCReprocessRT24OnPruneUsecaseDescriptorEPK26ChiFeature2CreateInputInfoRNSt3__16vectorI12PruneVariantNS3_9allocatorIS5_EEEE+0x9d4>
<_ZNK24ChiFeature2MCReprocessRT24OnPruneUsecaseDescriptorEPK26ChiFeature2CreateInputInfoRNSt3__16vectorI12PruneVariantNS3_9allocatorIS5_EEEE+0x4d4>
0x24b54 <_ZNK24ChiFeature2MCReprocessRT24OnPruneUsecaseDescriptorEPK26ChiFeature2CreateInputInfoRNSt3__16vectorI12PruneVariantNS3_9allocatorIS5_EEEE+0x4dc>
<_ZNK24ChiFeature2MCReprocessRT24OnPruneUsecaseDescriptorEPK26ChiFeature2CreateInputInfoRNSt3__16vectorI12PruneVariantNS3_9allocatorIS5_EEEE+0x690>
#6, 0x24b6c <_ZNK24ChiFeature2MCReprocessRT24OnPruneUsecaseDescriptorEPK26ChiFeature2CreateInputInfoRNSt3__16vectorI12PruneVariantNS3_9allocatorIS5_EEEE+0x4f4>
<_ZNK24ChiFeature2MCReprocessRT24OnPruneUsecaseDescriptorEPK26ChiFeature2CreateInputInfoRNSt3__16vectorI12PruneVariantNS3_9allocatorIS5_EEEE+0x508>
<_ZNK24ChiFeature2MCReprocessRT24OnPruneUsecaseDescriptorEPK26ChiFeature2CreateInputInfoRNSt3__16vectorI12PruneVariantNS3_9allocatorIS5_EEEE+0x520>
<_ZNK24ChiFeature2MCReprocessRT24OnPruneUsecaseDescriptorEPK26ChiFeature2CreateInputInfoRNSt3__16vectorI12PruneVariantNS3_9allocatorIS5_EEEE+0x690>
#5, 0x24b80 <_ZNK24ChiFeature2MCReprocessRT24OnPruneUsecaseDescriptorEPK26ChiFeature2CreateInputInfoRNSt3__16vectorI12PruneVariantNS3_9allocatorIS5_EEEE+0x508>
0x24d50 <_ZNK24ChiFeature2MCReprocessRT24OnPruneUsecaseDescriptorEPK26ChiFeature2CreateInputInfoRNSt3__16vectorI12PruneVariantNS3_9allocatorIS5_EEEE+0x6d8>
0xc000 <_ZNK24ChiFeature2MCReprocessRT24OnPruneUsecaseDescriptorEPK26ChiFeature2CreateInputInfoRNSt3__16vectorI12PruneVariantNS3_9allocatorIS5_EEEE+0x634>
<_ZN15UsecaseSelector15GetVariantGroupEPKc@plt>
0xe000 <_ZNK24ChiFeature2MCReprocessRT24OnPruneUsecaseDescriptorEPK26ChiFeature2CreateInputInfoRNSt3__16vectorI12PruneVariantNS3_9allocatorIS5_EEEE+0x650>
<_ZN15UsecaseSelector14GetVariantTypeEPKc@plt>
<_ZNK24ChiFeature2MCReprocessRT24OnPruneUsecaseDescriptorEPK26ChiFeature2CreateInputInfoRNSt3__16vectorI12PruneVariantNS3_9allocatorIS5_EEEE+0x800>
<_ZNK24ChiFeature2MCReprocessRT24OnPruneUsecaseDescriptorEPK26ChiFeature2CreateInputInfoRNSt3__16vectorI12PruneVariantNS3_9allocatorIS5_EEEE+0x80c>
<_ZNK24ChiFeature2MCReprocessRT24OnPruneUsecaseDescriptorEPK26ChiFeature2CreateInputInfoRNSt3__16vectorI12PruneVariantNS3_9allocatorIS5_EEEE+0x818>
0x10000 <_ZNK24ChiFeature2MCReprocessRT24OnPruneUsecaseDescriptorEPK26ChiFeature2CreateInputInfoRNSt3__16vectorI12PruneVariantNS3_9allocatorIS5_EEEE+0x67c>
<_ZNK24ChiFeature2MCReprocessRT24OnPruneUsecaseDescriptorEPK26ChiFeature2CreateInputInfoRNSt3__16vectorI12PruneVariantNS3_9allocatorIS5_EEEE+0x820>
<_ZN15ExtensionModule11GetInstanceEv@plt>
<_ZNK24ChiFeature2MCReprocessRT24OnPruneUsecaseDescriptorEPK26ChiFeature2CreateInputInfoRNSt3__16vectorI12PruneVariantNS3_9allocatorIS5_EEEE+0x7d4>
0x45000 <_ZNK24ChiFeature2MCReprocessRT24OnPruneUsecaseDescriptorEPK26ChiFeature2CreateInputInfoRNSt3__16vectorI12PruneVariantNS3_9allocatorIS5_EEEE+0x770>
#3, 0x24e1c <_ZNK24ChiFeature2MCReprocessRT24OnPruneUsecaseDescriptorEPK26ChiFeature2CreateInputInfoRNSt3__16vectorI12PruneVariantNS3_9allocatorIS5_EEEE+0x7a4>
0x45000 <_ZNK24ChiFeature2MCReprocessRT24OnPruneUsecaseDescriptorEPK26ChiFeature2CreateInputInfoRNSt3__16vectorI12PruneVariantNS3_9allocatorIS5_EEEE+0x788>
<_ZNK24ChiFeature2MCReprocessRT24OnPruneUsecaseDescriptorEPK26ChiFeature2CreateInputInfoRNSt3__16vectorI12PruneVariantNS3_9allocatorIS5_EEEE+0x75c>
0x11000 <_ZNK24ChiFeature2MCReprocessRT24OnPruneUsecaseDescriptorEPK26ChiFeature2CreateInputInfoRNSt3__16vectorI12PruneVariantNS3_9allocatorIS5_EEEE+0x6cc>
0x11000 <_ZNK24ChiFeature2MCReprocessRT24OnPruneUsecaseDescriptorEPK26ChiFeature2CreateInputInfoRNSt3__16vectorI12PruneVariantNS3_9allocatorIS5_EEEE+0x6e8>
0xf000 <_ZNK24ChiFeature2MCReprocessRT24OnPruneUsecaseDescriptorEPK26ChiFeature2CreateInputInfoRNSt3__16vectorI12PruneVariantNS3_9allocatorIS5_EEEE+0x6e4>
0x10000 <_ZNK24ChiFeature2MCReprocessRT24OnPruneUsecaseDescriptorEPK26ChiFeature2CreateInputInfoRNSt3__16vectorI12PruneVariantNS3_9allocatorIS5_EEEE+0x6ec>
0x11000 <_ZNK24ChiFeature2MCReprocessRT24OnPruneUsecaseDescriptorEPK26ChiFeature2CreateInputInfoRNSt3__16vectorI12PruneVariantNS3_9allocatorIS5_EEEE+0x710>
0xe000 <_ZNK24ChiFeature2MCReprocessRT24OnPruneUsecaseDescriptorEPK26ChiFeature2CreateInputInfoRNSt3__16vectorI12PruneVariantNS3_9allocatorIS5_EEEE+0x720>
0x11000 <_ZNK24ChiFeature2MCReprocessRT24OnPruneUsecaseDescriptorEPK26ChiFeature2CreateInputInfoRNSt3__16vectorI12PruneVariantNS3_9allocatorIS5_EEEE+0x734>
0x10000 <_ZNK24ChiFeature2MCReprocessRT24OnPruneUsecaseDescriptorEPK26ChiFeature2CreateInputInfoRNSt3__16vectorI12PruneVariantNS3_9allocatorIS5_EEEE+0x734>
0xc000 <_ZNK24ChiFeature2MCReprocessRT24OnPruneUsecaseDescriptorEPK26ChiFeature2CreateInputInfoRNSt3__16vectorI12PruneVariantNS3_9allocatorIS5_EEEE+0x728>
<_ZN6ChiLog9LogSystemEPKcS1_S1_S1_iS1_z@plt>
0xc000 <_ZNK24ChiFeature2MCReprocessRT24OnPruneUsecaseDescriptorEPK26ChiFeature2CreateInputInfoRNSt3__16vectorI12PruneVariantNS3_9allocatorIS5_EEEE+0x744>
<_ZN15UsecaseSelector15GetVariantGroupEPKc@plt>
0xe000 <_ZNK24ChiFeature2MCReprocessRT24OnPruneUsecaseDescriptorEPK26ChiFeature2CreateInputInfoRNSt3__16vectorI12PruneVariantNS3_9allocatorIS5_EEEE+0x760>
<_ZN15UsecaseSelector14GetVariantTypeEPKc@plt>
0xf000 <_ZNK24ChiFeature2MCReprocessRT24OnPruneUsecaseDescriptorEPK26ChiFeature2CreateInputInfoRNSt3__16vectorI12PruneVariantNS3_9allocatorIS5_EEEE+0x770>
<_ZNK24ChiFeature2MCReprocessRT24OnPruneUsecaseDescriptorEPK26ChiFeature2CreateInputInfoRNSt3__16vectorI12PruneVariantNS3_9allocatorIS5_EEEE+0x820>
0xc000 <_ZNK24ChiFeature2MCReprocessRT24OnPruneUsecaseDescriptorEPK26ChiFeature2CreateInputInfoRNSt3__16vectorI12PruneVariantNS3_9allocatorIS5_EEEE+0x774>
<_ZN15UsecaseSelector15GetVariantGroupEPKc@plt>
0xe000 <_ZNK24ChiFeature2MCReprocessRT24OnPruneUsecaseDescriptorEPK26ChiFeature2CreateInputInfoRNSt3__16vectorI12PruneVariantNS3_9allocatorIS5_EEEE+0x78c>
<_ZN15UsecaseSelector14GetVariantTypeEPKc@plt>
<_ZNK24ChiFeature2MCReprocessRT24OnPruneUsecaseDescriptorEPK26ChiFeature2CreateInputInfoRNSt3__16vectorI12PruneVariantNS3_9allocatorIS5_EEEE+0x820>
0xf000 <_ZNK24ChiFeature2MCReprocessRT24OnPruneUsecaseDescriptorEPK26ChiFeature2CreateInputInfoRNSt3__16vectorI12PruneVariantNS3_9allocatorIS5_EEEE+0x7ac>
<_ZNK24ChiFeature2MCReprocessRT24OnPruneUsecaseDescriptorEPK26ChiFeature2CreateInputInfoRNSt3__16vectorI12PruneVariantNS3_9allocatorIS5_EEEE+0x820>
0x10000 <_ZNK24ChiFeature2MCReprocessRT24OnPruneUsecaseDescriptorEPK26ChiFeature2CreateInputInfoRNSt3__16vectorI12PruneVariantNS3_9allocatorIS5_EEEE+0x7bc>
<_ZNK24ChiFeature2MCReprocessRT24OnPruneUsecaseDescriptorEPK26ChiFeature2CreateInputInfoRNSt3__16vectorI12PruneVariantNS3_9allocatorIS5_EEEE+0x820>
0xe000 <_ZNK24ChiFeature2MCReprocessRT24OnPruneUsecaseDescriptorEPK26ChiFeature2CreateInputInfoRNSt3__16vectorI12PruneVariantNS3_9allocatorIS5_EEEE+0x7c0>
<_ZN15UsecaseSelector14GetVariantTypeEPKc@plt>
0x45000 <_ZNK24ChiFeature2MCReprocessRT24OnPruneUsecaseDescriptorEPK26ChiFeature2CreateInputInfoRNSt3__16vectorI12PruneVariantNS3_9allocatorIS5_EEEE+0x8ac>
#3, 0x24f58 <_ZNK24ChiFeature2MCReprocessRT24OnPruneUsecaseDescriptorEPK26ChiFeature2CreateInputInfoRNSt3__16vectorI12PruneVariantNS3_9allocatorIS5_EEEE+0x8e0>
0x45000 <_ZNK24ChiFeature2MCReprocessRT24OnPruneUsecaseDescriptorEPK26ChiFeature2CreateInputInfoRNSt3__16vectorI12PruneVariantNS3_9allocatorIS5_EEEE+0x8c0>
0xb000 <_ZNK24ChiFeature2MCReprocessRT24OnPruneUsecaseDescriptorEPK26ChiFeature2CreateInputInfoRNSt3__16vectorI12PruneVariantNS3_9allocatorIS5_EEEE+0x7dc>
<_ZNK24ChiFeature2MCReprocessRT24OnPruneUsecaseDescriptorEPK26ChiFeature2CreateInputInfoRNSt3__16vectorI12PruneVariantNS3_9allocatorIS5_EEEE+0x898>
0x11000 <_ZNK24ChiFeature2MCReprocessRT24OnPruneUsecaseDescriptorEPK26ChiFeature2CreateInputInfoRNSt3__16vectorI12PruneVariantNS3_9allocatorIS5_EEEE+0x820>
0xc000 <_ZNK24ChiFeature2MCReprocessRT24OnPruneUsecaseDescriptorEPK26ChiFeature2CreateInputInfoRNSt3__16vectorI12PruneVariantNS3_9allocatorIS5_EEEE+0x810>
0xd000 <_ZNK24ChiFeature2MCReprocessRT24OnPruneUsecaseDescriptorEPK26ChiFeature2CreateInputInfoRNSt3__16vectorI12PruneVariantNS3_9allocatorIS5_EEEE+0x818>
0xe000 <_ZNK24ChiFeature2MCReprocessRT24OnPruneUsecaseDescriptorEPK26ChiFeature2CreateInputInfoRNSt3__16vectorI12PruneVariantNS3_9allocatorIS5_EEEE+0x854>
0x11000 <_ZNK24ChiFeature2MCReprocessRT24OnPruneUsecaseDescriptorEPK26ChiFeature2CreateInputInfoRNSt3__16vectorI12PruneVariantNS3_9allocatorIS5_EEEE+0x868>
0xd000 <_ZNK24ChiFeature2MCReprocessRT24OnPruneUsecaseDescriptorEPK26ChiFeature2CreateInputInfoRNSt3__16vectorI12PruneVariantNS3_9allocatorIS5_EEEE+0x85c>
0xe000 <_ZNK24ChiFeature2MCReprocessRT24OnPruneUsecaseDescriptorEPK26ChiFeature2CreateInputInfoRNSt3__16vectorI12PruneVariantNS3_9allocatorIS5_EEEE+0x864>
<_ZN6ChiLog9LogSystemEPKcS1_S1_S1_iS1_z@plt>
#3, 0x25010 <_ZNK24ChiFeature2MCReprocessRT24OnPruneUsecaseDescriptorEPK26ChiFeature2CreateInputInfoRNSt3__16vectorI12PruneVariantNS3_9allocatorIS5_EEEE+0x998>
0x45000 <_ZNK24ChiFeature2MCReprocessRT24OnPruneUsecaseDescriptorEPK26ChiFeature2CreateInputInfoRNSt3__16vectorI12PruneVariantNS3_9allocatorIS5_EEEE+0x96c>
<_ZNK24ChiFeature2MCReprocessRT24OnPruneUsecaseDescriptorEPK26ChiFeature2CreateInputInfoRNSt3__16vectorI12PruneVariantNS3_9allocatorIS5_EEEE+0x948>
0x11000 <_ZNK24ChiFeature2MCReprocessRT24OnPruneUsecaseDescriptorEPK26ChiFeature2CreateInputInfoRNSt3__16vectorI12PruneVariantNS3_9allocatorIS5_EEEE+0x8b0>
0x11000 <_ZNK24ChiFeature2MCReprocessRT24OnPruneUsecaseDescriptorEPK26ChiFeature2CreateInputInfoRNSt3__16vectorI12PruneVariantNS3_9allocatorIS5_EEEE+0x8cc>
0xb000 <_ZNK24ChiFeature2MCReprocessRT24OnPruneUsecaseDescriptorEPK26ChiFeature2CreateInputInfoRNSt3__16vectorI12PruneVariantNS3_9allocatorIS5_EEEE+0x8b8>
0x10000 <_ZNK24ChiFeature2MCReprocessRT24OnPruneUsecaseDescriptorEPK26ChiFeature2CreateInputInfoRNSt3__16vectorI12PruneVariantNS3_9allocatorIS5_EEEE+0x8d0>
0x11000 <_ZNK24ChiFeature2MCReprocessRT24OnPruneUsecaseDescriptorEPK26ChiFeature2CreateInputInfoRNSt3__16vectorI12PruneVariantNS3_9allocatorIS5_EEEE+0x8fc>
0xe000 <_ZNK24ChiFeature2MCReprocessRT24OnPruneUsecaseDescriptorEPK26ChiFeature2CreateInputInfoRNSt3__16vectorI12PruneVariantNS3_9allocatorIS5_EEEE+0x90c>
0x11000 <_ZNK24ChiFeature2MCReprocessRT24OnPruneUsecaseDescriptorEPK26ChiFeature2CreateInputInfoRNSt3__16vectorI12PruneVariantNS3_9allocatorIS5_EEEE+0x920>
0x10000 <_ZNK24ChiFeature2MCReprocessRT24OnPruneUsecaseDescriptorEPK26ChiFeature2CreateInputInfoRNSt3__16vectorI12PruneVariantNS3_9allocatorIS5_EEEE+0x920>
0xd000 <_ZNK24ChiFeature2MCReprocessRT24OnPruneUsecaseDescriptorEPK26ChiFeature2CreateInputInfoRNSt3__16vectorI12PruneVariantNS3_9allocatorIS5_EEEE+0x918>
<_ZN6ChiLog9LogSystemEPKcS1_S1_S1_iS1_z@plt>
<_ZN24ChiFeature2MCReprocessRT35GetMappedInputPortIndexByTargetNameEPKcPKN15ChiFeature2Base22ChiFeaturePipelineDataERNSt3__13mapIS1_NS6_13unordered_mapIjNS6_3setIjNS6_4lessIjEENS6_9allocatorIjEEEENS6_4hashIjEENS6_8equal_toIjEENSC_INS6_4pairIKjSE_EEEEEE21ChiNameLessComparatorNSC_INSJ_IKS1_SN_EEEEEE+0xc58>
0xd000 <_ZNK24ChiFeature2MCReprocessRT24OnPruneUsecaseDescriptorEPK26ChiFeature2CreateInputInfoRNSt3__16vectorI12PruneVariantNS3_9allocatorIS5_EEEE+0x944>
<_ZN15UsecaseSelector15GetVariantGroupEPKc@plt>
0xd000 <_ZNK24ChiFeature2MCReprocessRT24OnPruneUsecaseDescriptorEPK26ChiFeature2CreateInputInfoRNSt3__16vectorI12PruneVariantNS3_9allocatorIS5_EEEE+0x954>
<_ZN15UsecaseSelector14GetVariantTypeEPKc@plt>
<_ZN24ChiFeature2MCReprocessRT35GetMappedInputPortIndexByTargetNameEPKcPKN15ChiFeature2Base22ChiFeaturePipelineDataERNSt3__13mapIS1_NS6_13unordered_mapIjNS6_3setIjNS6_4lessIjEENS6_9allocatorIjEEEENS6_4hashIjEENS6_8equal_toIjEENSC_INS6_4pairIKjSE_EEEEEE21ChiNameLessComparatorNSC_INSJ_IKS1_SN_EEEEEE+0xc58>
<_ZNK24ChiFeature2MCReprocessRT24OnPruneUsecaseDescriptorEPK26ChiFeature2CreateInputInfoRNSt3__16vectorI12PruneVariantNS3_9allocatorIS5_EEEE+0xa08>

0x44000 <_ZN24ChiFeature2MCReprocessRT23OnPreparePipelineCreateEP21ChiFeature2Identifier+0xa8>
<_ZN24ChiFeature2MCReprocessRT23OnPreparePipelineCreateEP21ChiFeature2Identifier+0xb0>
<_ZN15ChiFeature2Base23OnPreparePipelineCreateEP21ChiFeature2Identifier@plt>
<_ZN24ChiFeature2MCReprocessRT23OnPreparePipelineCreateEP21ChiFeature2Identifier+0xc8>
<_ZN24ChiFeature2MCReprocessRT23OnPreparePipelineCreateEP21ChiFeature2Identifier+0xe4>
0x25184 <_ZN24ChiFeature2MCReprocessRT23OnPreparePipelineCreateEP21ChiFeature2Identifier+0xfc>
<_ZN24ChiFeature2MCReprocessRT23OnPreparePipelineCreateEP21ChiFeature2Identifier+0xfc>
0x25184 <_ZN24ChiFeature2MCReprocessRT23OnPreparePipelineCreateEP21ChiFeature2Identifier+0xfc>
<_ZN24ChiFeature2MCReprocessRT23OnPreparePipelineCreateEP21ChiFeature2Identifier+0xfc>
<_ZN24ChiFeature2MCReprocessRT23OnPreparePipelineCreateEP21ChiFeature2Identifier+0x100>
<_ZN24ChiFeature2MCReprocessRT23OnPreparePipelineCreateEP21ChiFeature2Identifier+0x4c>
<_ZN24ChiFeature2MCReprocessRT23OnPreparePipelineCreateEP21ChiFeature2Identifier+0x68>
0x25100 <_ZN24ChiFeature2MCReprocessRT23OnPreparePipelineCreateEP21ChiFeature2Identifier+0x78>
<_ZN24ChiFeature2MCReprocessRT23OnPreparePipelineCreateEP21ChiFeature2Identifier+0x818>
0x45000 <_ZN24ChiFeature2MCReprocessRT23OnPreparePipelineCreateEP21ChiFeature2Identifier+0x190>
0x2520c <_ZN24ChiFeature2MCReprocessRT23OnPreparePipelineCreateEP21ChiFeature2Identifier+0x184>
0x2520c <_ZN24ChiFeature2MCReprocessRT23OnPreparePipelineCreateEP21ChiFeature2Identifier+0x184>
0x2521c <_ZN24ChiFeature2MCReprocessRT23OnPreparePipelineCreateEP21ChiFeature2Identifier+0x194>
0x2521c <_ZN24ChiFeature2MCReprocessRT23OnPreparePipelineCreateEP21ChiFeature2Identifier+0x194>
<_ZN24ChiFeature2MCReprocessRT23OnPreparePipelineCreateEP21ChiFeature2Identifier+0x86c>
<_ZN15ExtensionModule11GetInstanceEv@plt>
0x25438 <_ZN24ChiFeature2MCReprocessRT23OnPreparePipelineCreateEP21ChiFeature2Identifier+0x3b0>
<_ZN24ChiFeature2MCReprocessRT23OnPreparePipelineCreateEP21ChiFeature2Identifier+0x4dc>
#0, 0x25228 <_ZN24ChiFeature2MCReprocessRT23OnPreparePipelineCreateEP21ChiFeature2Identifier+0x1a0>
#0, 0x252e8 <_ZN24ChiFeature2MCReprocessRT23OnPreparePipelineCreateEP21ChiFeature2Identifier+0x260>
<_ZN24ChiFeature2MCReprocessRT23OnPreparePipelineCreateEP21ChiFeature2Identifier+0x310>
0x45000 <_ZN24ChiFeature2MCReprocessRT23OnPreparePipelineCreateEP21ChiFeature2Identifier+0x220>
<_ZN24ChiFeature2MCReprocessRT23OnPreparePipelineCreateEP21ChiFeature2Identifier+0x200>
0x11000 <_ZN24ChiFeature2MCReprocessRT23OnPreparePipelineCreateEP21ChiFeature2Identifier+0x168>
0x11000 <_ZN24ChiFeature2MCReprocessRT23OnPreparePipelineCreateEP21ChiFeature2Identifier+0x184>
0xe000 <_ZN24ChiFeature2MCReprocessRT23OnPreparePipelineCreateEP21ChiFeature2Identifier+0x17c>
0xd000 <_ZN24ChiFeature2MCReprocessRT23OnPreparePipelineCreateEP21ChiFeature2Identifier+0x17c>
0x11000 <_ZN24ChiFeature2MCReprocessRT23OnPreparePipelineCreateEP21ChiFeature2Identifier+0x1b0>
0x11000 <_ZN24ChiFeature2MCReprocessRT23OnPreparePipelineCreateEP21ChiFeature2Identifier+0x1cc>
0xb000 <_ZN24ChiFeature2MCReprocessRT23OnPreparePipelineCreateEP21ChiFeature2Identifier+0x1bc>
0xd000 <_ZN24ChiFeature2MCReprocessRT23OnPreparePipelineCreateEP21ChiFeature2Identifier+0x1c8>
0x11000 <_ZN24ChiFeature2MCReprocessRT23OnPreparePipelineCreateEP21ChiFeature2Identifier+0x1dc>
<_ZN6ChiLog9LogSystemEPKcS1_S1_S1_iS1_z@plt>
#0, 0x25398 <_ZN24ChiFeature2MCReprocessRT23OnPreparePipelineCreateEP21ChiFeature2Identifier+0x310>
0x45000 <_ZN24ChiFeature2MCReprocessRT23OnPreparePipelineCreateEP21ChiFeature2Identifier+0x2e0>
<_ZN24ChiFeature2MCReprocessRT23OnPreparePipelineCreateEP21ChiFeature2Identifier+0x2c0>
0x11000 <_ZN24ChiFeature2MCReprocessRT23OnPreparePipelineCreateEP21ChiFeature2Identifier+0x224>
0x11000 <_ZN24ChiFeature2MCReprocessRT23OnPreparePipelineCreateEP21ChiFeature2Identifier+0x240>
0xd000 <_ZN24ChiFeature2MCReprocessRT23OnPreparePipelineCreateEP21ChiFeature2Identifier+0x234>
0xd000 <_ZN24ChiFeature2MCReprocessRT23OnPreparePipelineCreateEP21ChiFeature2Identifier+0x238>
0x11000 <_ZN24ChiFeature2MCReprocessRT23OnPreparePipelineCreateEP21ChiFeature2Identifier+0x270>
0x11000 <_ZN24ChiFeature2MCReprocessRT23OnPreparePipelineCreateEP21ChiFeature2Identifier+0x28c>
0xb000 <_ZN24ChiFeature2MCReprocessRT23OnPreparePipelineCreateEP21ChiFeature2Identifier+0x27c>
0xd000 <_ZN24ChiFeature2MCReprocessRT23OnPreparePipelineCreateEP21ChiFeature2Identifier+0x288>
0xb000 <_ZN24ChiFeature2MCReprocessRT23OnPreparePipelineCreateEP21ChiFeature2Identifier+0x284>
<_ZN6ChiLog9LogSystemEPKcS1_S1_S1_iS1_z@plt>
#3, 0x25ae4 <_ZN24ChiFeature2MCReprocessRT23OnPreparePipelineCreateEP21ChiFeature2Identifier+0xa5c>
0x45000 <_ZN24ChiFeature2MCReprocessRT23OnPreparePipelineCreateEP21ChiFeature2Identifier+0x39c>
<_ZN24ChiFeature2MCReprocessRT23OnPreparePipelineCreateEP21ChiFeature2Identifier+0x910>
0x11000 <_ZN24ChiFeature2MCReprocessRT23OnPreparePipelineCreateEP21ChiFeature2Identifier+0x2e4>
<_ZN24ChiFeature2MCReprocessRT23OnPreparePipelineCreateEP21ChiFeature2Identifier+0x830>
<_ZN24ChiFeature2MCReprocessRT23OnPreparePipelineCreateEP21ChiFeature2Identifier+0x84c>
0x25430 <_ZN24ChiFeature2MCReprocessRT23OnPreparePipelineCreateEP21ChiFeature2Identifier+0x3a8>
<_ZN24ChiFeature2MCReprocessRT23OnPreparePipelineCreateEP21ChiFeature2Identifier+0x884>
#6, 0x25950 <_ZN24ChiFeature2MCReprocessRT23OnPreparePipelineCreateEP21ChiFeature2Identifier+0x8c8>
<_ZN24ChiFeature2MCReprocessRT23OnPreparePipelineCreateEP21ChiFeature2Identifier+0x8a8>
#5, 0x25950 <_ZN24ChiFeature2MCReprocessRT23OnPreparePipelineCreateEP21ChiFeature2Identifier+0x8c8>
<_ZN24ChiFeature2MCReprocessRT23OnPreparePipelineCreateEP21ChiFeature2Identifier+0x8e4>
0x254a4 <_ZN24ChiFeature2MCReprocessRT23OnPreparePipelineCreateEP21ChiFeature2Identifier+0x41c>
0xb000 <_ZN24ChiFeature2MCReprocessRT23OnPreparePipelineCreateEP21ChiFeature2Identifier+0x37c>
0xf000 <_ZN24ChiFeature2MCReprocessRT23OnPreparePipelineCreateEP21ChiFeature2Identifier+0x390>
0x2549c <_ZN24ChiFeature2MCReprocessRT23OnPreparePipelineCreateEP21ChiFeature2Identifier+0x414>
#0, 0x254ac <_ZN24ChiFeature2MCReprocessRT23OnPreparePipelineCreateEP21ChiFeature2Identifier+0x424>
<_ZN24ChiFeature2MCReprocessRT23OnPreparePipelineCreateEP21ChiFeature2Identifier+0x4c8>
<_ZN24ChiFeature2MCReprocessRT23OnPreparePipelineCreateEP21ChiFeature2Identifier+0x4c8>
0x45000 <_ZN24ChiFeature2MCReprocessRT23OnPreparePipelineCreateEP21ChiFeature2Identifier+0x4a4>
<_ZN24ChiFeature2MCReprocessRT23OnPreparePipelineCreateEP21ChiFeature2Identifier+0x480>
0x11000 <_ZN24ChiFeature2MCReprocessRT23OnPreparePipelineCreateEP21ChiFeature2Identifier+0x3ec>
0x11000 <_ZN24ChiFeature2MCReprocessRT23OnPreparePipelineCreateEP21ChiFeature2Identifier+0x408>
0xf000 <_ZN24ChiFeature2MCReprocessRT23OnPreparePipelineCreateEP21ChiFeature2Identifier+0x404>
0xd000 <_ZN24ChiFeature2MCReprocessRT23OnPreparePipelineCreateEP21ChiFeature2Identifier+0x400>
0x11000 <_ZN24ChiFeature2MCReprocessRT23OnPreparePipelineCreateEP21ChiFeature2Identifier+0x430>
0x11000 <_ZN24ChiFeature2MCReprocessRT23OnPreparePipelineCreateEP21ChiFeature2Identifier+0x44c>
0xb000 <_ZN24ChiFeature2MCReprocessRT23OnPreparePipelineCreateEP21ChiFeature2Identifier+0x43c>
0xd000 <_ZN24ChiFeature2MCReprocessRT23OnPreparePipelineCreateEP21ChiFeature2Identifier+0x448>
0xd000 <_ZN24ChiFeature2MCReprocessRT23OnPreparePipelineCreateEP21ChiFeature2Identifier+0x44c>
<_ZN6ChiLog9LogSystemEPKcS1_S1_S1_iS1_z@plt>
<_ZN15ExtensionModule11GetInstanceEv@plt>
0x2561c <_ZN24ChiFeature2MCReprocessRT23OnPreparePipelineCreateEP21ChiFeature2Identifier+0x594>
<_ZN24ChiFeature2MCReprocessRT23OnPreparePipelineCreateEP21ChiFeature2Identifier+0x524>
0x255bc <_ZN24ChiFeature2MCReprocessRT23OnPreparePipelineCreateEP21ChiFeature2Identifier+0x534>
<_ZN24ChiFeature2MCReprocessRT23OnPreparePipelineCreateEP21ChiFeature2Identifier+0x534>
0x25724 <_ZN24ChiFeature2MCReprocessRT23OnPreparePipelineCreateEP21ChiFeature2Identifier+0x69c>
0x26130 <_ZN24ChiFeature2MCReprocessRT23OnPreparePipelineCreateEP21ChiFeature2Identifier+0x10a8>
<_ZN24ChiFeature2MCReprocessRT23OnPreparePipelineCreateEP21ChiFeature2Identifier+0x6c8>
<_ZN15UsecaseSelector17GetSensorModeInfoEjPK28camera3_stream_configurationjjPK17LogicalCameraInfo@plt>
0x25788 <_ZN24ChiFeature2MCReprocessRT23OnPreparePipelineCreateEP21ChiFeature2Identifier+0x700>
0xb000 <_ZN24ChiFeature2MCReprocessRT23OnPreparePipelineCreateEP21ChiFeature2Identifier+0x500>
0xc000 <_ZN24ChiFeature2MCReprocessRT23OnPreparePipelineCreateEP21ChiFeature2Identifier+0x508>
<_ZN24ChiFeature2MCReprocessRT23OnPreparePipelineCreateEP21ChiFeature2Identifier+0x1118>
0x25588 <_ZN24ChiFeature2MCReprocessRT23OnPreparePipelineCreateEP21ChiFeature2Identifier+0x500>
0xb000 <_ZN24ChiFeature2MCReprocessRT23OnPreparePipelineCreateEP21ChiFeature2Identifier+0x54c>
0x10000 <_ZN24ChiFeature2MCReprocessRT23OnPreparePipelineCreateEP21ChiFeature2Identifier+0x564>
0x25584 <_ZN24ChiFeature2MCReprocessRT23OnPreparePipelineCreateEP21ChiFeature2Identifier+0x4fc>
#0, 0x25584 <_ZN24ChiFeature2MCReprocessRT23OnPreparePipelineCreateEP21ChiFeature2Identifier+0x4fc>
0x45000 <_ZN24ChiFeature2MCReprocessRT23OnPreparePipelineCreateEP21ChiFeature2Identifier+0x664>
<_ZN24ChiFeature2MCReprocessRT23OnPreparePipelineCreateEP21ChiFeature2Identifier+0x64c>
0x11000 <_ZN24ChiFeature2MCReprocessRT23OnPreparePipelineCreateEP21ChiFeature2Identifier+0x5b4>
0x11000 <_ZN24ChiFeature2MCReprocessRT23OnPreparePipelineCreateEP21ChiFeature2Identifier+0x5d0>
0xd000 <_ZN24ChiFeature2MCReprocessRT23OnPreparePipelineCreateEP21ChiFeature2Identifier+0x5c4>
0xd000 <_ZN24ChiFeature2MCReprocessRT23OnPreparePipelineCreateEP21ChiFeature2Identifier+0x5c8>
0x11000 <_ZN24ChiFeature2MCReprocessRT23OnPreparePipelineCreateEP21ChiFeature2Identifier+0x5fc>
0x11000 <_ZN24ChiFeature2MCReprocessRT23OnPreparePipelineCreateEP21ChiFeature2Identifier+0x618>
0xb000 <_ZN24ChiFeature2MCReprocessRT23OnPreparePipelineCreateEP21ChiFeature2Identifier+0x608>
0xd000 <_ZN24ChiFeature2MCReprocessRT23OnPreparePipelineCreateEP21ChiFeature2Identifier+0x614>
0xc000 <_ZN24ChiFeature2MCReprocessRT23OnPreparePipelineCreateEP21ChiFeature2Identifier+0x614>
<_ZN6ChiLog9LogSystemEPKcS1_S1_S1_iS1_z@plt>
<_ZN24ChiFeature2MCReprocessRT23OnPreparePipelineCreateEP21ChiFeature2Identifier+0x500>
<_ZN24ChiFeature2MCReprocessRT23OnPreparePipelineCreateEP21ChiFeature2Identifier+0xb24>
<_ZN24ChiFeature2MCReprocessRT32SetMultiCameraInputConfigurationEP11ChiMetadataPK10ChiUsecasePKN15ChiFeature2Base22ChiFeaturePipelineDataEPK17LogicalCameraInfo22ImageStabilizationMode@plt>
0x25780 <_ZN24ChiFeature2MCReprocessRT23OnPreparePipelineCreateEP21ChiFeature2Identifier+0x6f8>
<_ZN24ChiFeature2MCReprocessRT23OnPreparePipelineCreateEP21ChiFeature2Identifier+0x710>
<_ZN24ChiFeature2MCReprocessRT23OnPreparePipelineCreateEP21ChiFeature2Identifier+0x6d8>
<_ZN24ChiFeature2MCReprocessRT23OnPreparePipelineCreateEP21ChiFeature2Identifier+0x714>
#0, 0x257f8 <_ZN24ChiFeature2MCReprocessRT23OnPreparePipelineCreateEP21ChiFeature2Identifier+0x770>
<_ZN24ChiFeature2MCReprocessRT23OnPreparePipelineCreateEP21ChiFeature2Identifier+0x1118>
<_ZN24ChiFeature2MCReprocessRT23OnPreparePipelineCreateEP21ChiFeature2Identifier+0xac8>
<_ZN24ChiFeature2MCReprocessRT23OnPreparePipelineCreateEP21ChiFeature2Identifier+0xae8>
0x45000 <_ZN24ChiFeature2MCReprocessRT23OnPreparePipelineCreateEP21ChiFeature2Identifier+0x7ac>
0x25c00 <_ZN24ChiFeature2MCReprocessRT23OnPreparePipelineCreateEP21ChiFeature2Identifier+0xb78>
<_ZN24ChiFeature2MCReprocessRT23OnPreparePipelineCreateEP21ChiFeature2Identifier+0xb00>
#6, 0x25be4 <_ZN24ChiFeature2MCReprocessRT23OnPreparePipelineCreateEP21ChiFeature2Identifier+0xb5c>
<_ZN24ChiFeature2MCReprocessRT23OnPreparePipelineCreateEP21ChiFeature2Identifier+0xb3c>
#5, 0x25be4 <_ZN24ChiFeature2MCReprocessRT23OnPreparePipelineCreateEP21ChiFeature2Identifier+0xb5c>
<_ZN24ChiFeature2MCReprocessRT23OnPreparePipelineCreateEP21ChiFeature2Identifier+0xb78>
0x45000 <_ZN24ChiFeature2MCReprocessRT23OnPreparePipelineCreateEP21ChiFeature2Identifier+0x7f0>
0x11000 <_ZN24ChiFeature2MCReprocessRT23OnPreparePipelineCreateEP21ChiFeature2Identifier+0x728>
<_ZN24ChiFeature2MCReprocessRT23OnPreparePipelineCreateEP21ChiFeature2Identifier+0x7cc>
0x11000 <_ZN24ChiFeature2MCReprocessRT23OnPreparePipelineCreateEP21ChiFeature2Identifier+0x754>
0xc000 <_ZN24ChiFeature2MCReprocessRT23OnPreparePipelineCreateEP21ChiFeature2Identifier+0x744>
0xd000 <_ZN24ChiFeature2MCReprocessRT23OnPreparePipelineCreateEP21ChiFeature2Identifier+0x74c>
0x11000 <_ZN24ChiFeature2MCReprocessRT23OnPreparePipelineCreateEP21ChiFeature2Identifier+0x790>
0xb000 <_ZN24ChiFeature2MCReprocessRT23OnPreparePipelineCreateEP21ChiFeature2Identifier+0x780>
0xd000 <_ZN24ChiFeature2MCReprocessRT23OnPreparePipelineCreateEP21ChiFeature2Identifier+0x78c>
0x10000 <_ZN24ChiFeature2MCReprocessRT23OnPreparePipelineCreateEP21ChiFeature2Identifier+0x79c>
<_ZN6ChiLog9LogSystemEPKcS1_S1_S1_iS1_z@plt>
<_ZN24ChiFeature2MCReprocessRT23OnPreparePipelineCreateEP21ChiFeature2Identifier+0x1118>
<_ZN24ChiFeature2MCReprocessRT23OnPreparePipelineCreateEP21ChiFeature2Identifier+0x110>
<_ZN24ChiFeature2MCReprocessRT23OnPreparePipelineCreateEP21ChiFeature2Identifier+0x368>
0x25404 <_ZN24ChiFeature2MCReprocessRT23OnPreparePipelineCreateEP21ChiFeature2Identifier+0x37c>
<_ZN24ChiFeature2MCReprocessRT23OnPreparePipelineCreateEP21ChiFeature2Identifier+0x3a8>
<_ZN24ChiFeature2MCReprocessRT23OnPreparePipelineCreateEP21ChiFeature2Identifier+0x148>
#6, 0x2541c <_ZN24ChiFeature2MCReprocessRT23OnPreparePipelineCreateEP21ChiFeature2Identifier+0x394>
<_ZN24ChiFeature2MCReprocessRT23OnPreparePipelineCreateEP21ChiFeature2Identifier+0x8c8>
#5, 0x25430 <_ZN24ChiFeature2MCReprocessRT23OnPreparePipelineCreateEP21ChiFeature2Identifier+0x3a8>
<_ZN24ChiFeature2MCReprocessRT23OnPreparePipelineCreateEP21ChiFeature2Identifier+0xaac>
0x11000 <_ZN24ChiFeature2MCReprocessRT23OnPreparePipelineCreateEP21ChiFeature2Identifier+0x894>
0xb000 <_ZN24ChiFeature2MCReprocessRT23OnPreparePipelineCreateEP21ChiFeature2Identifier+0x880>
0xd000 <_ZN24ChiFeature2MCReprocessRT23OnPreparePipelineCreateEP21ChiFeature2Identifier+0x88c>
0x11000 <_ZN24ChiFeature2MCReprocessRT23OnPreparePipelineCreateEP21ChiFeature2Identifier+0x8c4>
<_ZN24ChiFeature2MCReprocessRT23OnPreparePipelineCreateEP21ChiFeature2Identifier+0x98c>
<_ZN24ChiFeature2MCReprocessRT23OnPreparePipelineCreateEP21ChiFeature2Identifier+0x9ac>
0x25a0c <_ZN24ChiFeature2MCReprocessRT23OnPreparePipelineCreateEP21ChiFeature2Identifier+0x984>
<_ZN24ChiFeature2MCReprocessRT23OnPreparePipelineCreateEP21ChiFeature2Identifier+0x9cc>
#6, 0x25a98 <_ZN24ChiFeature2MCReprocessRT23OnPreparePipelineCreateEP21ChiFeature2Identifier+0xa10>
<_ZN24ChiFeature2MCReprocessRT23OnPreparePipelineCreateEP21ChiFeature2Identifier+0x9f0>
#5, 0x25a98 <_ZN24ChiFeature2MCReprocessRT23OnPreparePipelineCreateEP21ChiFeature2Identifier+0xa10>
<_ZN24ChiFeature2MCReprocessRT23OnPreparePipelineCreateEP21ChiFeature2Identifier+0xa2c>
<_ZN24ChiFeature2MCReprocessRT23OnPreparePipelineCreateEP21ChiFeature2Identifier+0x950>
0x259e0 <_ZN24ChiFeature2MCReprocessRT23OnPreparePipelineCreateEP21ChiFeature2Identifier+0x958>
<_ZN24ChiFeature2MCReprocessRT23OnPreparePipelineCreateEP21ChiFeature2Identifier+0x984>
#6, 0x259f8 <_ZN24ChiFeature2MCReprocessRT23OnPreparePipelineCreateEP21ChiFeature2Identifier+0x970>
<_ZN24ChiFeature2MCReprocessRT23OnPreparePipelineCreateEP21ChiFeature2Identifier+0xa10>
#5, 0x25a0c <_ZN24ChiFeature2MCReprocessRT23OnPreparePipelineCreateEP21ChiFeature2Identifier+0x984>
<_ZN24ChiFeature2MCReprocessRT23OnPreparePipelineCreateEP21ChiFeature2Identifier+0xa90>
0x11000 <_ZN24ChiFeature2MCReprocessRT23OnPreparePipelineCreateEP21ChiFeature2Identifier+0x9dc>
0xe000 <_ZN24ChiFeature2MCReprocessRT23OnPreparePipelineCreateEP21ChiFeature2Identifier+0x9d4>
0xd000 <_ZN24ChiFeature2MCReprocessRT23OnPreparePipelineCreateEP21ChiFeature2Identifier+0x9d4>
0xe000 <_ZN24ChiFeature2MCReprocessRT23OnPreparePipelineCreateEP21ChiFeature2Identifier+0x9dc>
<_ZN6ChiLog9LogSystemEPKcS1_S1_S1_iS1_z@plt>
<_ZN24ChiFeature2MCReprocessRT23OnPreparePipelineCreateEP21ChiFeature2Identifier+0x11dc>
<_ZN24ChiFeature2MCReprocessRT23OnPreparePipelineCreateEP21ChiFeature2Identifier+0xa20>
<_ZN24ChiFeature2MCReprocessRT23OnPreparePipelineCreateEP21ChiFeature2Identifier+0x8d8>
<_ZN24ChiFeature2MCReprocessRT23OnPreparePipelineCreateEP21ChiFeature2Identifier+0x72c>
<_ZN24ChiFeature2MCReprocessRT23OnPreparePipelineCreateEP21ChiFeature2Identifier+0x72c>
#6, 0x257dc <_ZN24ChiFeature2MCReprocessRT23OnPreparePipelineCreateEP21ChiFeature2Identifier+0x754>
<_ZN24ChiFeature2MCReprocessRT23OnPreparePipelineCreateEP21ChiFeature2Identifier+0xb5c>
<_ZN24ChiFeature2MCReprocessRT23OnPreparePipelineCreateEP21ChiFeature2Identifier+0x6ac>
#5, 0x257f0 <_ZN24ChiFeature2MCReprocessRT23OnPreparePipelineCreateEP21ChiFeature2Identifier+0x768>
<_ZN24ChiFeature2MCReprocessRT23OnPreparePipelineCreateEP21ChiFeature2Identifier+0x11a4>
0x25c18 <_ZN24ChiFeature2MCReprocessRT23OnPreparePipelineCreateEP21ChiFeature2Identifier+0xb90>
0x25c18 <_ZN24ChiFeature2MCReprocessRT23OnPreparePipelineCreateEP21ChiFeature2Identifier+0xb90>
<_ZN24ChiFeature2MCReprocessRT23OnPreparePipelineCreateEP21ChiFeature2Identifier+0xc48>
#3, 0x25c28 <_ZN24ChiFeature2MCReprocessRT23OnPreparePipelineCreateEP21ChiFeature2Identifier+0xba0>
<_ZN24ChiFeature2MCReprocessRT23OnPreparePipelineCreateEP21ChiFeature2Identifier+0xc44>
0x45000 <_ZN24ChiFeature2MCReprocessRT23OnPreparePipelineCreateEP21ChiFeature2Identifier+0xc20>
<_ZN24ChiFeature2MCReprocessRT23OnPreparePipelineCreateEP21ChiFeature2Identifier+0xbfc>
0x11000 <_ZN24ChiFeature2MCReprocessRT23OnPreparePipelineCreateEP21ChiFeature2Identifier+0xb68>
0x11000 <_ZN24ChiFeature2MCReprocessRT23OnPreparePipelineCreateEP21ChiFeature2Identifier+0xb84>
0x10000 <_ZN24ChiFeature2MCReprocessRT23OnPreparePipelineCreateEP21ChiFeature2Identifier+0xb84>
0xd000 <_ZN24ChiFeature2MCReprocessRT23OnPreparePipelineCreateEP21ChiFeature2Identifier+0xb7c>
0x11000 <_ZN24ChiFeature2MCReprocessRT23OnPreparePipelineCreateEP21ChiFeature2Identifier+0xbac>
0xe000 <_ZN24ChiFeature2MCReprocessRT23OnPreparePipelineCreateEP21ChiFeature2Identifier+0xbbc>
0x11000 <_ZN24ChiFeature2MCReprocessRT23OnPreparePipelineCreateEP21ChiFeature2Identifier+0xbd0>
0xd000 <_ZN24ChiFeature2MCReprocessRT23OnPreparePipelineCreateEP21ChiFeature2Identifier+0xbc4>
0xc000 <_ZN24ChiFeature2MCReprocessRT23OnPreparePipelineCreateEP21ChiFeature2Identifier+0xbc4>
<_ZN6ChiLog9LogSystemEPKcS1_S1_S1_iS1_z@plt>
<_ZN24ChiFeature2MCReprocessRT23OnPreparePipelineCreateEP21ChiFeature2Identifier+0x118c>
0x25dc8 <_ZN24ChiFeature2MCReprocessRT23OnPreparePipelineCreateEP21ChiFeature2Identifier+0xd40>
<_ZN24ChiFeature2MCReprocessRT23OnPreparePipelineCreateEP21ChiFeature2Identifier+0xcfc>
<_ZN24ChiFeature2MCReprocessRT23OnPreparePipelineCreateEP21ChiFeature2Identifier+0xd40>
<_ZN24ChiFeature2MCReprocessRT23OnPreparePipelineCreateEP21ChiFeature2Identifier+0x11d8>
<_ZN15UsecaseSelector17GetSensorModeInfoEjPK28camera3_stream_configurationjjPK17LogicalCameraInfo@plt>
0x25d24 <_ZN24ChiFeature2MCReprocessRT23OnPreparePipelineCreateEP21ChiFeature2Identifier+0xc9c>
<_ZN24ChiFeature2MCReprocessRT23OnPreparePipelineCreateEP21ChiFeature2Identifier+0xc9c>
0x11000 <_ZN24ChiFeature2MCReprocessRT23OnPreparePipelineCreateEP21ChiFeature2Identifier+0xd1c>
0xc000 <_ZN24ChiFeature2MCReprocessRT23OnPreparePipelineCreateEP21ChiFeature2Identifier+0xd0c>
0x44000 <_ZN24ChiFeature2MCReprocessRT23OnPreparePipelineCreateEP21ChiFeature2Identifier+0xe10>
0x26130 <_ZN24ChiFeature2MCReprocessRT23OnPreparePipelineCreateEP21ChiFeature2Identifier+0x10a8>
<_ZN24ChiFeature2MCReprocessRT23OnPreparePipelineCreateEP21ChiFeature2Identifier+0x11c0>
<_ZN24ChiFeature2MCReprocessRT22UpdateStreamCropEnableEP11ChiMetadataPK24ChiFeature2InstanceProps+0x260>
0x25ebc <_ZN24ChiFeature2MCReprocessRT23OnPreparePipelineCreateEP21ChiFeature2Identifier+0xe34>
<_ZN24ChiFeature2MCReprocessRT23OnPreparePipelineCreateEP21ChiFeature2Identifier+0x11d8>
<_ZN24ChiFeature2MCReprocessRT23OnPreparePipelineCreateEP21ChiFeature2Identifier+0xe10>
0x26024 <_ZN24ChiFeature2MCReprocessRT23OnPreparePipelineCreateEP21ChiFeature2Identifier+0xf9c>
0x26024 <_ZN24ChiFeature2MCReprocessRT23OnPreparePipelineCreateEP21ChiFeature2Identifier+0xf9c>
<_ZN24ChiFeature2MCReprocessRT23OnPreparePipelineCreateEP21ChiFeature2Identifier+0xe6c>
<_ZN24ChiFeature2MCReprocessRT23OnPreparePipelineCreateEP21ChiFeature2Identifier+0x11e0>
<_ZN24ChiFeature2MCReprocessRT23OnPreparePipelineCreateEP21ChiFeature2Identifier+0x104c>
<_ZN24ChiFeature2MCReprocessRT22UpdateStreamCropEnableEP11ChiMetadataPK24ChiFeature2InstanceProps+0x260>
<_ZN24ChiFeature2MCReprocessRT23OnPreparePipelineCreateEP21ChiFeature2Identifier+0xe54>
<_ZN24ChiFeature2MCReprocessRT23OnPreparePipelineCreateEP21ChiFeature2Identifier+0x11d8>
0x45000 <_ZN24ChiFeature2MCReprocessRT23OnPreparePipelineCreateEP21ChiFeature2Identifier+0xf34>
#3, 0x25ee8 <_ZN24ChiFeature2MCReprocessRT23OnPreparePipelineCreateEP21ChiFeature2Identifier+0xe60>
0x45000 <_ZN24ChiFeature2MCReprocessRT23OnPreparePipelineCreateEP21ChiFeature2Identifier+0xf4c>
<_ZN24ChiFeature2MCReprocessRT23OnPreparePipelineCreateEP21ChiFeature2Identifier+0xf38>
0x11000 <_ZN24ChiFeature2MCReprocessRT23OnPreparePipelineCreateEP21ChiFeature2Identifier+0xe90>
0x11000 <_ZN24ChiFeature2MCReprocessRT23OnPreparePipelineCreateEP21ChiFeature2Identifier+0xeac>
0x10000 <_ZN24ChiFeature2MCReprocessRT23OnPreparePipelineCreateEP21ChiFeature2Identifier+0xeac>
0x11000 <_ZN24ChiFeature2MCReprocessRT23OnPreparePipelineCreateEP21ChiFeature2Identifier+0xeb4>
0x11000 <_ZN24ChiFeature2MCReprocessRT23OnPreparePipelineCreateEP21ChiFeature2Identifier+0xee8>
0xe000 <_ZN24ChiFeature2MCReprocessRT23OnPreparePipelineCreateEP21ChiFeature2Identifier+0xef8>
0x11000 <_ZN24ChiFeature2MCReprocessRT23OnPreparePipelineCreateEP21ChiFeature2Identifier+0xf0c>
0x11000 <_ZN24ChiFeature2MCReprocessRT23OnPreparePipelineCreateEP21ChiFeature2Identifier+0xf10>
0xe000 <_ZN24ChiFeature2MCReprocessRT23OnPreparePipelineCreateEP21ChiFeature2Identifier+0xf08>
<_ZN6ChiLog9LogSystemEPKcS1_S1_S1_iS1_z@plt>
<_ZN24ChiFeature2MCReprocessRT23OnPreparePipelineCreateEP21ChiFeature2Identifier+0xe60>
0x45000 <_ZN24ChiFeature2MCReprocessRT23OnPreparePipelineCreateEP21ChiFeature2Identifier+0x1018>
#0, 0x260d4 <_ZN24ChiFeature2MCReprocessRT23OnPreparePipelineCreateEP21ChiFeature2Identifier+0x104c>
0x45000 <_ZN24ChiFeature2MCReprocessRT23OnPreparePipelineCreateEP21ChiFeature2Identifier+0x1028>
<_ZN24ChiFeature2MCReprocessRT23OnPreparePipelineCreateEP21ChiFeature2Identifier+0x1004>
0x11000 <_ZN24ChiFeature2MCReprocessRT23OnPreparePipelineCreateEP21ChiFeature2Identifier+0xf6c>
0x11000 <_ZN24ChiFeature2MCReprocessRT23OnPreparePipelineCreateEP21ChiFeature2Identifier+0xf88>
0xd000 <_ZN24ChiFeature2MCReprocessRT23OnPreparePipelineCreateEP21ChiFeature2Identifier+0xf7c>
0x11000 <_ZN24ChiFeature2MCReprocessRT23OnPreparePipelineCreateEP21ChiFeature2Identifier+0xf90>
0x11000 <_ZN24ChiFeature2MCReprocessRT23OnPreparePipelineCreateEP21ChiFeature2Identifier+0xfb0>
0x11000 <_ZN24ChiFeature2MCReprocessRT23OnPreparePipelineCreateEP21ChiFeature2Identifier+0xfcc>
0xb000 <_ZN24ChiFeature2MCReprocessRT23OnPreparePipelineCreateEP21ChiFeature2Identifier+0xfbc>
0x11000 <_ZN24ChiFeature2MCReprocessRT23OnPreparePipelineCreateEP21ChiFeature2Identifier+0xfd8>
0xe000 <_ZN24ChiFeature2MCReprocessRT23OnPreparePipelineCreateEP21ChiFeature2Identifier+0xfd0>
<_ZN6ChiLog9LogSystemEPKcS1_S1_S1_iS1_z@plt>
0x11000 <_ZN24ChiFeature2MCReprocessRT23OnPreparePipelineCreateEP21ChiFeature2Identifier+0x1020>
0xc000 <_ZN24ChiFeature2MCReprocessRT23OnPreparePipelineCreateEP21ChiFeature2Identifier+0x1010>
0x44000 <_ZN24ChiFeature2MCReprocessRT23OnPreparePipelineCreateEP21ChiFeature2Identifier+0x1110>
<_ZN15ExtensionModule11GetInstanceEv@plt>
0x26198 <_ZN24ChiFeature2MCReprocessRT23OnPreparePipelineCreateEP21ChiFeature2Identifier+0x1110>
<_ZN24ChiFeature2MCReprocessRT23OnPreparePipelineCreateEP21ChiFeature2Identifier+0x1110>
0x45000 <_ZN24ChiFeature2MCReprocessRT23OnPreparePipelineCreateEP21ChiFeature2Identifier+0x113c>
0x261a0 <_ZN24ChiFeature2MCReprocessRT23OnPreparePipelineCreateEP21ChiFeature2Identifier+0x1118>
0xd000 <_ZN24ChiFeature2MCReprocessRT23OnPreparePipelineCreateEP21ChiFeature2Identifier+0x1088>
0xd000 <_ZN24ChiFeature2MCReprocessRT23OnPreparePipelineCreateEP21ChiFeature2Identifier+0x108c>
<_ZN24ChiFeature2MCReprocessRT23OnPreparePipelineCreateEP21ChiFeature2Identifier+0x1118>
0x45000 <_ZN24ChiFeature2MCReprocessRT23OnPreparePipelineCreateEP21ChiFeature2Identifier+0x118c>
<_ZN24ChiFeature2MCReprocessRT23OnPreparePipelineCreateEP21ChiFeature2Identifier+0x115c>
<_ZN24ChiFeature2MCReprocessRT19SetStreamDimensionsEP11ChiMetadata@plt>
<_ZN24ChiFeature2MCReprocessRT23OnPreparePipelineCreateEP21ChiFeature2Identifier+0x1174>
<_ZN24ChiFeature2MCReprocessRT22UpdateStreamCropEnableEP11ChiMetadataPK24ChiFeature2InstanceProps@plt>
#3, 0x253a4 <_ZN24ChiFeature2MCReprocessRT23OnPreparePipelineCreateEP21ChiFeature2Identifier+0x31c>
<_ZN24ChiFeature2MCReprocessRT23OnPreparePipelineCreateEP21ChiFeature2Identifier+0xa5c>
<_ZN24ChiFeature2MCReprocessRT23OnPreparePipelineCreateEP21ChiFeature2Identifier+0x1128>
<_ZN24ChiFeature2MCReprocessRT23OnPreparePipelineCreateEP21ChiFeature2Identifier+0x1140>
<_ZN24ChiFeature2MCReprocessRT23OnPreparePipelineCreateEP21ChiFeature2Identifier+0xc58>
<_ZN24ChiFeature2MCReprocessRT23OnPreparePipelineCreateEP21ChiFeature2Identifier+0xb6c>
<_ZN24ChiFeature2MCReprocessRT23OnPreparePipelineCreateEP21ChiFeature2Identifier+0xdb8>

0x44000 <_ZN24ChiFeature2MCReprocessRT12OnPortCreateEP21ChiFeature2Identifier+0x94>
<_ZN24ChiFeature2MCReprocessRT12OnPortCreateEP21ChiFeature2Identifier+0x21c>
<_ZN15ChiFeature2Base12OnPortCreateEP21ChiFeature2Identifier@plt>
0x26350 <_ZN24ChiFeature2MCReprocessRT12OnPortCreateEP21ChiFeature2Identifier+0xe0>
<_ZN24ChiFeature2MCReprocessRT12OnPortCreateEP21ChiFeature2Identifier+0x234>
<_ZN24ChiFeature2MCReprocessRT12OnPortCreateEP21ChiFeature2Identifier+0x268>
<_ZN24ChiFeature2MCReprocessRT12OnPortCreateEP21ChiFeature2Identifier+0x290>
<_ZN24ChiFeature2MCReprocessRT12OnPortCreateEP21ChiFeature2Identifier+0x18c>
0x263fc <_ZN24ChiFeature2MCReprocessRT12OnPortCreateEP21ChiFeature2Identifier+0x18c>
<_ZN24ChiFeature2MCReprocessRT12OnPortCreateEP21ChiFeature2Identifier+0x18c>
0x263fc <_ZN24ChiFeature2MCReprocessRT12OnPortCreateEP21ChiFeature2Identifier+0x18c>
<_ZN24ChiFeature2MCReprocessRT12OnPortCreateEP21ChiFeature2Identifier+0x1a0>
<_ZN24ChiFeature2MCReprocessRT12OnPortCreateEP21ChiFeature2Identifier+0x18c>
<_ZN24ChiFeature2MCReprocessRT12OnPortCreateEP21ChiFeature2Identifier+0x1cc>
0x45000 <_ZN24ChiFeature2MCReprocessRT12OnPortCreateEP21ChiFeature2Identifier+0x15c>
#0, 0x263f8 <_ZN24ChiFeature2MCReprocessRT12OnPortCreateEP21ChiFeature2Identifier+0x188>
0x45000 <_ZN24ChiFeature2MCReprocessRT12OnPortCreateEP21ChiFeature2Identifier+0x16c>
0x11000 <_ZN24ChiFeature2MCReprocessRT12OnPortCreateEP21ChiFeature2Identifier+0xa0>
<_ZN24ChiFeature2MCReprocessRT12OnPortCreateEP21ChiFeature2Identifier+0x148>
0x11000 <_ZN24ChiFeature2MCReprocessRT12OnPortCreateEP21ChiFeature2Identifier+0xcc>
0xe000 <_ZN24ChiFeature2MCReprocessRT12OnPortCreateEP21ChiFeature2Identifier+0xc4>
0xe000 <_ZN24ChiFeature2MCReprocessRT12OnPortCreateEP21ChiFeature2Identifier+0xc8>
0x11000 <_ZN24ChiFeature2MCReprocessRT12OnPortCreateEP21ChiFeature2Identifier+0x108>
0xb000 <_ZN24ChiFeature2MCReprocessRT12OnPortCreateEP21ChiFeature2Identifier+0xf8>
0xe000 <_ZN24ChiFeature2MCReprocessRT12OnPortCreateEP21ChiFeature2Identifier+0x108>
0xc000 <_ZN24ChiFeature2MCReprocessRT12OnPortCreateEP21ChiFeature2Identifier+0x104>
<_ZN6ChiLog9LogSystemEPKcS1_S1_S1_iS1_z@plt>
<_ZN24ChiFeature2MCReprocessRT12OnPortCreateEP21ChiFeature2Identifier+0x18c>
0x263fc <_ZN24ChiFeature2MCReprocessRT12OnPortCreateEP21ChiFeature2Identifier+0x18c>
<_ZN24ChiFeature2MCReprocessRT12OnPortCreateEP21ChiFeature2Identifier+0x1f8>
<_ZN24ChiFeature2MCReprocessRT12OnPortCreateEP21ChiFeature2Identifier+0x18c>
<_ZN24ChiFeature2MCReprocessRT12OnPortCreateEP21ChiFeature2Identifier+0x18c>
<_ZN24ChiFeature2MCReprocessRT12OnPortCreateEP21ChiFeature2Identifier+0x18c>
<_ZN24ChiFeature2MCReprocessRT12OnPortCreateEP21ChiFeature2Identifier+0x34>
<_ZN24ChiFeature2MCReprocessRT12OnPortCreateEP21ChiFeature2Identifier+0x5c>
<_ZN24ChiFeature2MCReprocessRT12OnPortCreateEP21ChiFeature2Identifier+0x5c>
<_ZN24ChiFeature2MCReprocessRT12OnPortCreateEP21ChiFeature2Identifier+0x68>

<_ZN24ChiFeature2MCReprocessRT18OnInitializeStreamEPK23ChiTargetPortDescriptorPK25ChiFeature2PortDescriptorPN15ChiFeature2Base20ChiFeatureStreamDataE+0x58>
0x26740 <_ZN24ChiFeature2MCReprocessRT18OnInitializeStreamEPK23ChiTargetPortDescriptorPK25ChiFeature2PortDescriptorPN15ChiFeature2Base20ChiFeatureStreamDataE+0x218>
<_ZN24ChiFeature2MCReprocessRT18OnInitializeStreamEPK23ChiTargetPortDescriptorPK25ChiFeature2PortDescriptorPN15ChiFeature2Base20ChiFeatureStreamDataE+0x218>
0x26974 <_ZN24ChiFeature2MCReprocessRT18OnInitializeStreamEPK23ChiTargetPortDescriptorPK25ChiFeature2PortDescriptorPN15ChiFeature2Base20ChiFeatureStreamDataE+0x44c>
0x26974 <_ZN24ChiFeature2MCReprocessRT18OnInitializeStreamEPK23ChiTargetPortDescriptorPK25ChiFeature2PortDescriptorPN15ChiFeature2Base20ChiFeatureStreamDataE+0x44c>
0x26974 <_ZN24ChiFeature2MCReprocessRT18OnInitializeStreamEPK23ChiTargetPortDescriptorPK25ChiFeature2PortDescriptorPN15ChiFeature2Base20ChiFeatureStreamDataE+0x44c>
0x26974 <_ZN24ChiFeature2MCReprocessRT18OnInitializeStreamEPK23ChiTargetPortDescriptorPK25ChiFeature2PortDescriptorPN15ChiFeature2Base20ChiFeatureStreamDataE+0x44c>
0x45000 <_ZN24ChiFeature2MCReprocessRT18OnInitializeStreamEPK23ChiTargetPortDescriptorPK25ChiFeature2PortDescriptorPN15ChiFeature2Base20ChiFeatureStreamDataE+0xe8>
#5, 0x266d8 <_ZN24ChiFeature2MCReprocessRT18OnInitializeStreamEPK23ChiTargetPortDescriptorPK25ChiFeature2PortDescriptorPN15ChiFeature2Base20ChiFeatureStreamDataE+0x1b0>
0x45000 <_ZN24ChiFeature2MCReprocessRT18OnInitializeStreamEPK23ChiTargetPortDescriptorPK25ChiFeature2PortDescriptorPN15ChiFeature2Base20ChiFeatureStreamDataE+0x110>
<_ZN24ChiFeature2MCReprocessRT18OnInitializeStreamEPK23ChiTargetPortDescriptorPK25ChiFeature2PortDescriptorPN15ChiFeature2Base20ChiFeatureStreamDataE+0x12c>
0x11000 <_ZN24ChiFeature2MCReprocessRT18OnInitializeStreamEPK23ChiTargetPortDescriptorPK25ChiFeature2PortDescriptorPN15ChiFeature2Base20ChiFeatureStreamDataE+0x58>
0x11000 <_ZN24ChiFeature2MCReprocessRT18OnInitializeStreamEPK23ChiTargetPortDescriptorPK25ChiFeature2PortDescriptorPN15ChiFeature2Base20ChiFeatureStreamDataE+0x78>
0xb000 <_ZN24ChiFeature2MCReprocessRT18OnInitializeStreamEPK23ChiTargetPortDescriptorPK25ChiFeature2PortDescriptorPN15ChiFeature2Base20ChiFeatureStreamDataE+0x78>
0xf000 <_ZN24ChiFeature2MCReprocessRT18OnInitializeStreamEPK23ChiTargetPortDescriptorPK25ChiFeature2PortDescriptorPN15ChiFeature2Base20ChiFeatureStreamDataE+0x90>
0x11000 <_ZN24ChiFeature2MCReprocessRT18OnInitializeStreamEPK23ChiTargetPortDescriptorPK25ChiFeature2PortDescriptorPN15ChiFeature2Base20ChiFeatureStreamDataE+0xd8>
0x10000 <_ZN24ChiFeature2MCReprocessRT18OnInitializeStreamEPK23ChiTargetPortDescriptorPK25ChiFeature2PortDescriptorPN15ChiFeature2Base20ChiFeatureStreamDataE+0x104>
0xf000 <_ZN24ChiFeature2MCReprocessRT18OnInitializeStreamEPK23ChiTargetPortDescriptorPK25ChiFeature2PortDescriptorPN15ChiFeature2Base20ChiFeatureStreamDataE+0x118>
0xf000 <_ZN24ChiFeature2MCReprocessRT18OnInitializeStreamEPK23ChiTargetPortDescriptorPK25ChiFeature2PortDescriptorPN15ChiFeature2Base20ChiFeatureStreamDataE+0x120>
0x10000 <_ZN24ChiFeature2MCReprocessRT18OnInitializeStreamEPK23ChiTargetPortDescriptorPK25ChiFeature2PortDescriptorPN15ChiFeature2Base20ChiFeatureStreamDataE+0x128>
<_ZN6ChiLog9LogSystemEPKcS1_S1_S1_iS1_z@plt>
0x26a58 <_ZN24ChiFeature2MCReprocessRT18OnInitializeStreamEPK23ChiTargetPortDescriptorPK25ChiFeature2PortDescriptorPN15ChiFeature2Base20ChiFeatureStreamDataE+0x530>
0x26a58 <_ZN24ChiFeature2MCReprocessRT18OnInitializeStreamEPK23ChiTargetPortDescriptorPK25ChiFeature2PortDescriptorPN15ChiFeature2Base20ChiFeatureStreamDataE+0x530>
0xb000 <_ZN24ChiFeature2MCReprocessRT18OnInitializeStreamEPK23ChiTargetPortDescriptorPK25ChiFeature2PortDescriptorPN15ChiFeature2Base20ChiFeatureStreamDataE+0x16c>
0x26b1c <_ZN24ChiFeature2MCReprocessRT18OnInitializeStreamEPK23ChiTargetPortDescriptorPK25ChiFeature2PortDescriptorPN15ChiFeature2Base20ChiFeatureStreamDataE+0x5f4>
<_ZN24ChiFeature2MCReprocessRT18OnInitializeStreamEPK23ChiTargetPortDescriptorPK25ChiFeature2PortDescriptorPN15ChiFeature2Base20ChiFeatureStreamDataE+0x1ec>
<_ZN24ChiFeature2MCReprocessRT18OnInitializeStreamEPK23ChiTargetPortDescriptorPK25ChiFeature2PortDescriptorPN15ChiFeature2Base20ChiFeatureStreamDataE+0x5fc>
0x44000 <_ZN24ChiFeature2MCReprocessRT18OnInitializeStreamEPK23ChiTargetPortDescriptorPK25ChiFeature2PortDescriptorPN15ChiFeature2Base20ChiFeatureStreamDataE+0x294>
<_ZN24ChiFeature2MCReprocessRT18OnInitializeStreamEPK23ChiTargetPortDescriptorPK25ChiFeature2PortDescriptorPN15ChiFeature2Base20ChiFeatureStreamDataE+0xf90>
<_ZN24ChiFeature2MCReprocessRT18OnInitializeStreamEPK23ChiTargetPortDescriptorPK25ChiFeature2PortDescriptorPN15ChiFeature2Base20ChiFeatureStreamDataE+0xfb0>
0x27560 <_ZN24ChiFeature2MCReprocessRT18OnInitializeStreamEPK23ChiTargetPortDescriptorPK25ChiFeature2PortDescriptorPN15ChiFeature2Base20ChiFeatureStreamDataE+0x1038>
<_ZN24ChiFeature2MCReprocessRT18OnInitializeStreamEPK23ChiTargetPortDescriptorPK25ChiFeature2PortDescriptorPN15ChiFeature2Base20ChiFeatureStreamDataE+0xfd0>
#6, 0x26794 <_ZN24ChiFeature2MCReprocessRT18OnInitializeStreamEPK23ChiTargetPortDescriptorPK25ChiFeature2PortDescriptorPN15ChiFeature2Base20ChiFeatureStreamDataE+0x26c>
<_ZN24ChiFeature2MCReprocessRT18OnInitializeStreamEPK23ChiTargetPortDescriptorPK25ChiFeature2PortDescriptorPN15ChiFeature2Base20ChiFeatureStreamDataE+0x1018>
#5, 0x27560 <_ZN24ChiFeature2MCReprocessRT18OnInitializeStreamEPK23ChiTargetPortDescriptorPK25ChiFeature2PortDescriptorPN15ChiFeature2Base20ChiFeatureStreamDataE+0x1038>
<_ZN24ChiFeature2MCReprocessRT18OnInitializeStreamEPK23ChiTargetPortDescriptorPK25ChiFeature2PortDescriptorPN15ChiFeature2Base20ChiFeatureStreamDataE+0xff4>
#0, 0x27560 <_ZN24ChiFeature2MCReprocessRT18OnInitializeStreamEPK23ChiTargetPortDescriptorPK25ChiFeature2PortDescriptorPN15ChiFeature2Base20ChiFeatureStreamDataE+0x1038>
0x26a60 <_ZN24ChiFeature2MCReprocessRT18OnInitializeStreamEPK23ChiTargetPortDescriptorPK25ChiFeature2PortDescriptorPN15ChiFeature2Base20ChiFeatureStreamDataE+0x538>
0x26a60 <_ZN24ChiFeature2MCReprocessRT18OnInitializeStreamEPK23ChiTargetPortDescriptorPK25ChiFeature2PortDescriptorPN15ChiFeature2Base20ChiFeatureStreamDataE+0x538>
0x26a60 <_ZN24ChiFeature2MCReprocessRT18OnInitializeStreamEPK23ChiTargetPortDescriptorPK25ChiFeature2PortDescriptorPN15ChiFeature2Base20ChiFeatureStreamDataE+0x538>
0x26a60 <_ZN24ChiFeature2MCReprocessRT18OnInitializeStreamEPK23ChiTargetPortDescriptorPK25ChiFeature2PortDescriptorPN15ChiFeature2Base20ChiFeatureStreamDataE+0x538>
0x45000 <_ZN24ChiFeature2MCReprocessRT18OnInitializeStreamEPK23ChiTargetPortDescriptorPK25ChiFeature2PortDescriptorPN15ChiFeature2Base20ChiFeatureStreamDataE+0x318>
#5, 0x26928 <_ZN24ChiFeature2MCReprocessRT18OnInitializeStreamEPK23ChiTargetPortDescriptorPK25ChiFeature2PortDescriptorPN15ChiFeature2Base20ChiFeatureStreamDataE+0x400>
0x45000 <_ZN24ChiFeature2MCReprocessRT18OnInitializeStreamEPK23ChiTargetPortDescriptorPK25ChiFeature2PortDescriptorPN15ChiFeature2Base20ChiFeatureStreamDataE+0x350>
0x11000 <_ZN24ChiFeature2MCReprocessRT18OnInitializeStreamEPK23ChiTargetPortDescriptorPK25ChiFeature2PortDescriptorPN15ChiFeature2Base20ChiFeatureStreamDataE+0x284>
<_ZN24ChiFeature2MCReprocessRT18OnInitializeStreamEPK23ChiTargetPortDescriptorPK25ChiFeature2PortDescriptorPN15ChiFeature2Base20ChiFeatureStreamDataE+0x384>
0x11000 <_ZN24ChiFeature2MCReprocessRT18OnInitializeStreamEPK23ChiTargetPortDescriptorPK25ChiFeature2PortDescriptorPN15ChiFeature2Base20ChiFeatureStreamDataE+0x2d0>
0xb000 <_ZN24ChiFeature2MCReprocessRT18OnInitializeStreamEPK23ChiTargetPortDescriptorPK25ChiFeature2PortDescriptorPN15ChiFeature2Base20ChiFeatureStreamDataE+0x2c0>
0xf000 <_ZN24ChiFeature2MCReprocessRT18OnInitializeStreamEPK23ChiTargetPortDescriptorPK25ChiFeature2PortDescriptorPN15ChiFeature2Base20ChiFeatureStreamDataE+0x2dc>
0xf000 <_ZN24ChiFeature2MCReprocessRT18OnInitializeStreamEPK23ChiTargetPortDescriptorPK25ChiFeature2PortDescriptorPN15ChiFeature2Base20ChiFeatureStreamDataE+0x340>
0x10000 <_ZN24ChiFeature2MCReprocessRT18OnInitializeStreamEPK23ChiTargetPortDescriptorPK25ChiFeature2PortDescriptorPN15ChiFeature2Base20ChiFeatureStreamDataE+0x354>
0xf000 <_ZN24ChiFeature2MCReprocessRT18OnInitializeStreamEPK23ChiTargetPortDescriptorPK25ChiFeature2PortDescriptorPN15ChiFeature2Base20ChiFeatureStreamDataE+0x358>
0x10000 <_ZN24ChiFeature2MCReprocessRT18OnInitializeStreamEPK23ChiTargetPortDescriptorPK25ChiFeature2PortDescriptorPN15ChiFeature2Base20ChiFeatureStreamDataE+0x364>
<_ZN6ChiLog9LogSystemEPKcS1_S1_S1_iS1_z@plt>
<_ZN24ChiFeature2MCReprocessRT18OnInitializeStreamEPK23ChiTargetPortDescriptorPK25ChiFeature2PortDescriptorPN15ChiFeature2Base20ChiFeatureStreamDataE+0x954>
<_ZN24ChiFeature2MCReprocessRT18OnInitializeStreamEPK23ChiTargetPortDescriptorPK25ChiFeature2PortDescriptorPN15ChiFeature2Base20ChiFeatureStreamDataE+0x954>
<_ZN24ChiFeature2MCReprocessRT18OnInitializeStreamEPK23ChiTargetPortDescriptorPK25ChiFeature2PortDescriptorPN15ChiFeature2Base20ChiFeatureStreamDataE+0x954>
<_ZN15ExtensionModule11GetInstanceEv@plt>
<_ZN24ChiFeature2MCReprocessRT18OnInitializeStreamEPK23ChiTargetPortDescriptorPK25ChiFeature2PortDescriptorPN15ChiFeature2Base20ChiFeatureStreamDataE+0x8d0>
<_ZN24ChiFeature2MCReprocessRT18OnInitializeStreamEPK23ChiTargetPortDescriptorPK25ChiFeature2PortDescriptorPN15ChiFeature2Base20ChiFeatureStreamDataE+0x900>
0x45000 <_ZN24ChiFeature2MCReprocessRT18OnInitializeStreamEPK23ChiTargetPortDescriptorPK25ChiFeature2PortDescriptorPN15ChiFeature2Base20ChiFeatureStreamDataE+0x4c8>
#0, 0x26a3c <_ZN24ChiFeature2MCReprocessRT18OnInitializeStreamEPK23ChiTargetPortDescriptorPK25ChiFeature2PortDescriptorPN15ChiFeature2Base20ChiFeatureStreamDataE+0x514>
0x45000 <_ZN24ChiFeature2MCReprocessRT18OnInitializeStreamEPK23ChiTargetPortDescriptorPK25ChiFeature2PortDescriptorPN15ChiFeature2Base20ChiFeatureStreamDataE+0x4d8>
<_ZN24ChiFeature2MCReprocessRT18OnInitializeStreamEPK23ChiTargetPortDescriptorPK25ChiFeature2PortDescriptorPN15ChiFeature2Base20ChiFeatureStreamDataE+0x4c0>
0x11000 <_ZN24ChiFeature2MCReprocessRT18OnInitializeStreamEPK23ChiTargetPortDescriptorPK25ChiFeature2PortDescriptorPN15ChiFeature2Base20ChiFeatureStreamDataE+0x41c>
0x11000 <_ZN24ChiFeature2MCReprocessRT18OnInitializeStreamEPK23ChiTargetPortDescriptorPK25ChiFeature2PortDescriptorPN15ChiFeature2Base20ChiFeatureStreamDataE+0x438>
0xc000 <_ZN24ChiFeature2MCReprocessRT18OnInitializeStreamEPK23ChiTargetPortDescriptorPK25ChiFeature2PortDescriptorPN15ChiFeature2Base20ChiFeatureStreamDataE+0x428>
0xf000 <_ZN24ChiFeature2MCReprocessRT18OnInitializeStreamEPK23ChiTargetPortDescriptorPK25ChiFeature2PortDescriptorPN15ChiFeature2Base20ChiFeatureStreamDataE+0x438>
0x11000 <_ZN24ChiFeature2MCReprocessRT18OnInitializeStreamEPK23ChiTargetPortDescriptorPK25ChiFeature2PortDescriptorPN15ChiFeature2Base20ChiFeatureStreamDataE+0x46c>
0x11000 <_ZN24ChiFeature2MCReprocessRT18OnInitializeStreamEPK23ChiTargetPortDescriptorPK25ChiFeature2PortDescriptorPN15ChiFeature2Base20ChiFeatureStreamDataE+0x488>
0xb000 <_ZN24ChiFeature2MCReprocessRT18OnInitializeStreamEPK23ChiTargetPortDescriptorPK25ChiFeature2PortDescriptorPN15ChiFeature2Base20ChiFeatureStreamDataE+0x478>
0xf000 <_ZN24ChiFeature2MCReprocessRT18OnInitializeStreamEPK23ChiTargetPortDescriptorPK25ChiFeature2PortDescriptorPN15ChiFeature2Base20ChiFeatureStreamDataE+0x48c>
0x10000 <_ZN24ChiFeature2MCReprocessRT18OnInitializeStreamEPK23ChiTargetPortDescriptorPK25ChiFeature2PortDescriptorPN15ChiFeature2Base20ChiFeatureStreamDataE+0x494>
<_ZN6ChiLog9LogSystemEPKcS1_S1_S1_iS1_z@plt>
<_ZN24ChiFeature2MCReprocessRT18OnInitializeStreamEPK23ChiTargetPortDescriptorPK25ChiFeature2PortDescriptorPN15ChiFeature2Base20ChiFeatureStreamDataE+0x1114>
<_ZN24ChiFeature2MCReprocessRT18OnInitializeStreamEPK23ChiTargetPortDescriptorPK25ChiFeature2PortDescriptorPN15ChiFeature2Base20ChiFeatureStreamDataE+0x106c>
<_ZN24ChiFeature2MCReprocessRT18OnInitializeStreamEPK23ChiTargetPortDescriptorPK25ChiFeature2PortDescriptorPN15ChiFeature2Base20ChiFeatureStreamDataE+0x608>
0x45000 <_ZN24ChiFeature2MCReprocessRT18OnInitializeStreamEPK23ChiTargetPortDescriptorPK25ChiFeature2PortDescriptorPN15ChiFeature2Base20ChiFeatureStreamDataE+0x5b4>
#0, 0x26a3c <_ZN24ChiFeature2MCReprocessRT18OnInitializeStreamEPK23ChiTargetPortDescriptorPK25ChiFeature2PortDescriptorPN15ChiFeature2Base20ChiFeatureStreamDataE+0x514>
0x45000 <_ZN24ChiFeature2MCReprocessRT18OnInitializeStreamEPK23ChiTargetPortDescriptorPK25ChiFeature2PortDescriptorPN15ChiFeature2Base20ChiFeatureStreamDataE+0x5c4>
<_ZN24ChiFeature2MCReprocessRT18OnInitializeStreamEPK23ChiTargetPortDescriptorPK25ChiFeature2PortDescriptorPN15ChiFeature2Base20ChiFeatureStreamDataE+0x5ac>
0x11000 <_ZN24ChiFeature2MCReprocessRT18OnInitializeStreamEPK23ChiTargetPortDescriptorPK25ChiFeature2PortDescriptorPN15ChiFeature2Base20ChiFeatureStreamDataE+0x508>
0x11000 <_ZN24ChiFeature2MCReprocessRT18OnInitializeStreamEPK23ChiTargetPortDescriptorPK25ChiFeature2PortDescriptorPN15ChiFeature2Base20ChiFeatureStreamDataE+0x524>
0xc000 <_ZN24ChiFeature2MCReprocessRT18OnInitializeStreamEPK23ChiTargetPortDescriptorPK25ChiFeature2PortDescriptorPN15ChiFeature2Base20ChiFeatureStreamDataE+0x514>
0xf000 <_ZN24ChiFeature2MCReprocessRT18OnInitializeStreamEPK23ChiTargetPortDescriptorPK25ChiFeature2PortDescriptorPN15ChiFeature2Base20ChiFeatureStreamDataE+0x524>
0x11000 <_ZN24ChiFeature2MCReprocessRT18OnInitializeStreamEPK23ChiTargetPortDescriptorPK25ChiFeature2PortDescriptorPN15ChiFeature2Base20ChiFeatureStreamDataE+0x558>
0x11000 <_ZN24ChiFeature2MCReprocessRT18OnInitializeStreamEPK23ChiTargetPortDescriptorPK25ChiFeature2PortDescriptorPN15ChiFeature2Base20ChiFeatureStreamDataE+0x574>
0xb000 <_ZN24ChiFeature2MCReprocessRT18OnInitializeStreamEPK23ChiTargetPortDescriptorPK25ChiFeature2PortDescriptorPN15ChiFeature2Base20ChiFeatureStreamDataE+0x564>
0xf000 <_ZN24ChiFeature2MCReprocessRT18OnInitializeStreamEPK23ChiTargetPortDescriptorPK25ChiFeature2PortDescriptorPN15ChiFeature2Base20ChiFeatureStreamDataE+0x578>
0x10000 <_ZN24ChiFeature2MCReprocessRT18OnInitializeStreamEPK23ChiTargetPortDescriptorPK25ChiFeature2PortDescriptorPN15ChiFeature2Base20ChiFeatureStreamDataE+0x580>
<_ZN24ChiFeature2MCReprocessRT18OnInitializeStreamEPK23ChiTargetPortDescriptorPK25ChiFeature2PortDescriptorPN15ChiFeature2Base20ChiFeatureStreamDataE+0x504>
<_ZN15ExtensionModule11GetInstanceEv@plt>
0x26b44 <_ZN24ChiFeature2MCReprocessRT18OnInitializeStreamEPK23ChiTargetPortDescriptorPK25ChiFeature2PortDescriptorPN15ChiFeature2Base20ChiFeatureStreamDataE+0x61c>
<_ZN24ChiFeature2MCReprocessRT18OnInitializeStreamEPK23ChiTargetPortDescriptorPK25ChiFeature2PortDescriptorPN15ChiFeature2Base20ChiFeatureStreamDataE+0x620>
<_ZN24ChiFeature2MCReprocessRT18OnInitializeStreamEPK23ChiTargetPortDescriptorPK25ChiFeature2PortDescriptorPN15ChiFeature2Base20ChiFeatureStreamDataE+0xcf8>
<_ZN24ChiFeature2MCReprocessRT18OnInitializeStreamEPK23ChiTargetPortDescriptorPK25ChiFeature2PortDescriptorPN15ChiFeature2Base20ChiFeatureStreamDataE+0xcf8>
<_ZN24ChiFeature2MCReprocessRT18OnInitializeStreamEPK23ChiTargetPortDescriptorPK25ChiFeature2PortDescriptorPN15ChiFeature2Base20ChiFeatureStreamDataE+0xc24>
0x26c90 <_ZN24ChiFeature2MCReprocessRT18OnInitializeStreamEPK23ChiTargetPortDescriptorPK25ChiFeature2PortDescriptorPN15ChiFeature2Base20ChiFeatureStreamDataE+0x768>
<_ZN24ChiFeature2MCReprocessRT18OnInitializeStreamEPK23ChiTargetPortDescriptorPK25ChiFeature2PortDescriptorPN15ChiFeature2Base20ChiFeatureStreamDataE+0x6f4>
<_ZN24ChiFeature2MCReprocessRT18OnInitializeStreamEPK23ChiTargetPortDescriptorPK25ChiFeature2PortDescriptorPN15ChiFeature2Base20ChiFeatureStreamDataE+0x7d4>
<_ZN24ChiFeature2MCReprocessRT18OnInitializeStreamEPK23ChiTargetPortDescriptorPK25ChiFeature2PortDescriptorPN15ChiFeature2Base20ChiFeatureStreamDataE+0x69c>
<_ZN24ChiFeature2MCReprocessRT18OnInitializeStreamEPK23ChiTargetPortDescriptorPK25ChiFeature2PortDescriptorPN15ChiFeature2Base20ChiFeatureStreamDataE+0xc1c>
<_ZN24ChiFeature2MCReprocessRT18OnInitializeStreamEPK23ChiTargetPortDescriptorPK25ChiFeature2PortDescriptorPN15ChiFeature2Base20ChiFeatureStreamDataE+0x690>
0x26bb8 <_ZN24ChiFeature2MCReprocessRT18OnInitializeStreamEPK23ChiTargetPortDescriptorPK25ChiFeature2PortDescriptorPN15ChiFeature2Base20ChiFeatureStreamDataE+0x690>
0x26bb8 <_ZN24ChiFeature2MCReprocessRT18OnInitializeStreamEPK23ChiTargetPortDescriptorPK25ChiFeature2PortDescriptorPN15ChiFeature2Base20ChiFeatureStreamDataE+0x690>
0x26bb8 <_ZN24ChiFeature2MCReprocessRT18OnInitializeStreamEPK23ChiTargetPortDescriptorPK25ChiFeature2PortDescriptorPN15ChiFeature2Base20ChiFeatureStreamDataE+0x690>
<_ZN24ChiFeature2MCReprocessRT18OnInitializeStreamEPK23ChiTargetPortDescriptorPK25ChiFeature2PortDescriptorPN15ChiFeature2Base20ChiFeatureStreamDataE+0x690>
#0, 0x26bb8 <_ZN24ChiFeature2MCReprocessRT18OnInitializeStreamEPK23ChiTargetPortDescriptorPK25ChiFeature2PortDescriptorPN15ChiFeature2Base20ChiFeatureStreamDataE+0x690>
<_ZN24ChiFeature2MCReprocessRT18OnInitializeStreamEPK23ChiTargetPortDescriptorPK25ChiFeature2PortDescriptorPN15ChiFeature2Base20ChiFeatureStreamDataE+0xc14>
<_ZN24ChiFeature2MCReprocessRT18OnInitializeStreamEPK23ChiTargetPortDescriptorPK25ChiFeature2PortDescriptorPN15ChiFeature2Base20ChiFeatureStreamDataE+0x710>
<_ZN24ChiFeature2MCReprocessRT18OnInitializeStreamEPK23ChiTargetPortDescriptorPK25ChiFeature2PortDescriptorPN15ChiFeature2Base20ChiFeatureStreamDataE+0xc1c>
<_ZN24ChiFeature2MCReprocessRT18OnInitializeStreamEPK23ChiTargetPortDescriptorPK25ChiFeature2PortDescriptorPN15ChiFeature2Base20ChiFeatureStreamDataE+0x704>
0x26c2c <_ZN24ChiFeature2MCReprocessRT18OnInitializeStreamEPK23ChiTargetPortDescriptorPK25ChiFeature2PortDescriptorPN15ChiFeature2Base20ChiFeatureStreamDataE+0x704>
0x26c2c <_ZN24ChiFeature2MCReprocessRT18OnInitializeStreamEPK23ChiTargetPortDescriptorPK25ChiFeature2PortDescriptorPN15ChiFeature2Base20ChiFeatureStreamDataE+0x704>
0x26c2c <_ZN24ChiFeature2MCReprocessRT18OnInitializeStreamEPK23ChiTargetPortDescriptorPK25ChiFeature2PortDescriptorPN15ChiFeature2Base20ChiFeatureStreamDataE+0x704>
<_ZN24ChiFeature2MCReprocessRT18OnInitializeStreamEPK23ChiTargetPortDescriptorPK25ChiFeature2PortDescriptorPN15ChiFeature2Base20ChiFeatureStreamDataE+0x704>
#0, 0x26c2c <_ZN24ChiFeature2MCReprocessRT18OnInitializeStreamEPK23ChiTargetPortDescriptorPK25ChiFeature2PortDescriptorPN15ChiFeature2Base20ChiFeatureStreamDataE+0x704>
<_ZN24ChiFeature2MCReprocessRT18OnInitializeStreamEPK23ChiTargetPortDescriptorPK25ChiFeature2PortDescriptorPN15ChiFeature2Base20ChiFeatureStreamDataE+0xc14>
<_ZN24ChiFeature2MCReprocessRT18OnInitializeStreamEPK23ChiTargetPortDescriptorPK25ChiFeature2PortDescriptorPN15ChiFeature2Base20ChiFeatureStreamDataE+0xbc0>
<_ZN24ChiFeature2MCReprocessRT18OnInitializeStreamEPK23ChiTargetPortDescriptorPK25ChiFeature2PortDescriptorPN15ChiFeature2Base20ChiFeatureStreamDataE+0x784>
<_ZN24ChiFeature2MCReprocessRT18OnInitializeStreamEPK23ChiTargetPortDescriptorPK25ChiFeature2PortDescriptorPN15ChiFeature2Base20ChiFeatureStreamDataE+0xc1c>
<_ZN24ChiFeature2MCReprocessRT18OnInitializeStreamEPK23ChiTargetPortDescriptorPK25ChiFeature2PortDescriptorPN15ChiFeature2Base20ChiFeatureStreamDataE+0x778>
0x26ca0 <_ZN24ChiFeature2MCReprocessRT18OnInitializeStreamEPK23ChiTargetPortDescriptorPK25ChiFeature2PortDescriptorPN15ChiFeature2Base20ChiFeatureStreamDataE+0x778>
0x26ca0 <_ZN24ChiFeature2MCReprocessRT18OnInitializeStreamEPK23ChiTargetPortDescriptorPK25ChiFeature2PortDescriptorPN15ChiFeature2Base20ChiFeatureStreamDataE+0x778>
0x26ca0 <_ZN24ChiFeature2MCReprocessRT18OnInitializeStreamEPK23ChiTargetPortDescriptorPK25ChiFeature2PortDescriptorPN15ChiFeature2Base20ChiFeatureStreamDataE+0x778>
<_ZN24ChiFeature2MCReprocessRT18OnInitializeStreamEPK23ChiTargetPortDescriptorPK25ChiFeature2PortDescriptorPN15ChiFeature2Base20ChiFeatureStreamDataE+0x778>
<_ZN24ChiFeature2MCReprocessRT18OnInitializeStreamEPK23ChiTargetPortDescriptorPK25ChiFeature2PortDescriptorPN15ChiFeature2Base20ChiFeatureStreamDataE+0x778>
<_ZN24ChiFeature2MCReprocessRT18OnInitializeStreamEPK23ChiTargetPortDescriptorPK25ChiFeature2PortDescriptorPN15ChiFeature2Base20ChiFeatureStreamDataE+0xc14>
<_ZN24ChiFeature2MCReprocessRT18OnInitializeStreamEPK23ChiTargetPortDescriptorPK25ChiFeature2PortDescriptorPN15ChiFeature2Base20ChiFeatureStreamDataE+0x7f4>
<_ZN24ChiFeature2MCReprocessRT18OnInitializeStreamEPK23ChiTargetPortDescriptorPK25ChiFeature2PortDescriptorPN15ChiFeature2Base20ChiFeatureStreamDataE+0xc20>
<_ZN24ChiFeature2MCReprocessRT18OnInitializeStreamEPK23ChiTargetPortDescriptorPK25ChiFeature2PortDescriptorPN15ChiFeature2Base20ChiFeatureStreamDataE+0x8c0>
<_ZN24ChiFeature2MCReprocessRT18OnInitializeStreamEPK23ChiTargetPortDescriptorPK25ChiFeature2PortDescriptorPN15ChiFeature2Base20ChiFeatureStreamDataE+0x834>
<_ZN24ChiFeature2MCReprocessRT18OnInitializeStreamEPK23ChiTargetPortDescriptorPK25ChiFeature2PortDescriptorPN15ChiFeature2Base20ChiFeatureStreamDataE+0x83c>
<_ZN24ChiFeature2MCReprocessRT18OnInitializeStreamEPK23ChiTargetPortDescriptorPK25ChiFeature2PortDescriptorPN15ChiFeature2Base20ChiFeatureStreamDataE+0x83c>
<_ZN24ChiFeature2MCReprocessRT18OnInitializeStreamEPK23ChiTargetPortDescriptorPK25ChiFeature2PortDescriptorPN15ChiFeature2Base20ChiFeatureStreamDataE+0x840>
<_ZN24ChiFeature2MCReprocessRT18OnInitializeStreamEPK23ChiTargetPortDescriptorPK25ChiFeature2PortDescriptorPN15ChiFeature2Base20ChiFeatureStreamDataE+0x8c0>
<_ZN24ChiFeature2MCReprocessRT18OnInitializeStreamEPK23ChiTargetPortDescriptorPK25ChiFeature2PortDescriptorPN15ChiFeature2Base20ChiFeatureStreamDataE+0x7e4>
0x26d0c <_ZN24ChiFeature2MCReprocessRT18OnInitializeStreamEPK23ChiTargetPortDescriptorPK25ChiFeature2PortDescriptorPN15ChiFeature2Base20ChiFeatureStreamDataE+0x7e4>
0x26d0c <_ZN24ChiFeature2MCReprocessRT18OnInitializeStreamEPK23ChiTargetPortDescriptorPK25ChiFeature2PortDescriptorPN15ChiFeature2Base20ChiFeatureStreamDataE+0x7e4>
0x26d0c <_ZN24ChiFeature2MCReprocessRT18OnInitializeStreamEPK23ChiTargetPortDescriptorPK25ChiFeature2PortDescriptorPN15ChiFeature2Base20ChiFeatureStreamDataE+0x7e4>
<_ZN24ChiFeature2MCReprocessRT18OnInitializeStreamEPK23ChiTargetPortDescriptorPK25ChiFeature2PortDescriptorPN15ChiFeature2Base20ChiFeatureStreamDataE+0x7e4>
<_ZN24ChiFeature2MCReprocessRT18OnInitializeStreamEPK23ChiTargetPortDescriptorPK25ChiFeature2PortDescriptorPN15ChiFeature2Base20ChiFeatureStreamDataE+0xc14>
0x2713c <_ZN24ChiFeature2MCReprocessRT18OnInitializeStreamEPK23ChiTargetPortDescriptorPK25ChiFeature2PortDescriptorPN15ChiFeature2Base20ChiFeatureStreamDataE+0xc14>
<_ZN24ChiFeature2MCReprocessRT18OnInitializeStreamEPK23ChiTargetPortDescriptorPK25ChiFeature2PortDescriptorPN15ChiFeature2Base20ChiFeatureStreamDataE+0x7e4>
<_ZN24ChiFeature2MCReprocessRT18OnInitializeStreamEPK23ChiTargetPortDescriptorPK25ChiFeature2PortDescriptorPN15ChiFeature2Base20ChiFeatureStreamDataE+0xc14>
<_ZN24ChiFeature2MCReprocessRT18OnInitializeStreamEPK23ChiTargetPortDescriptorPK25ChiFeature2PortDescriptorPN15ChiFeature2Base20ChiFeatureStreamDataE+0x820>
<_ZN24ChiFeature2MCReprocessRT18OnInitializeStreamEPK23ChiTargetPortDescriptorPK25ChiFeature2PortDescriptorPN15ChiFeature2Base20ChiFeatureStreamDataE+0x83c>
<_ZN24ChiFeature2MCReprocessRT18OnInitializeStreamEPK23ChiTargetPortDescriptorPK25ChiFeature2PortDescriptorPN15ChiFeature2Base20ChiFeatureStreamDataE+0x438>
<_ZN24ChiFeature2MCReprocessRT18OnInitializeStreamEPK23ChiTargetPortDescriptorPK25ChiFeature2PortDescriptorPN15ChiFeature2Base20ChiFeatureStreamDataE+0x438>
<_ZNK24ChiFeature2MCReprocessRT29RemoveInvalidImageBufferPortsEPK24ChiFeature2RequestObjectP21ChiFeature2PortIdListRNSt3__16vectorI21ChiFeature2IdentifierNS5_9allocatorIS7_EEEE+0xb08>
0x26e7c <_ZN24ChiFeature2MCReprocessRT18OnInitializeStreamEPK23ChiTargetPortDescriptorPK25ChiFeature2PortDescriptorPN15ChiFeature2Base20ChiFeatureStreamDataE+0x954>
<_ZN24ChiFeature2MCReprocessRT18OnInitializeStreamEPK23ChiTargetPortDescriptorPK25ChiFeature2PortDescriptorPN15ChiFeature2Base20ChiFeatureStreamDataE+0x924>
#0, 0x27418 <_ZN24ChiFeature2MCReprocessRT18OnInitializeStreamEPK23ChiTargetPortDescriptorPK25ChiFeature2PortDescriptorPN15ChiFeature2Base20ChiFeatureStreamDataE+0xef0>
<_ZN24ChiFeature2MCReprocessRT18OnInitializeStreamEPK23ChiTargetPortDescriptorPK25ChiFeature2PortDescriptorPN15ChiFeature2Base20ChiFeatureStreamDataE+0xed8>
<_ZN24ChiFeature2MCReprocessRT18OnInitializeStreamEPK23ChiTargetPortDescriptorPK25ChiFeature2PortDescriptorPN15ChiFeature2Base20ChiFeatureStreamDataE+0x518>
<_ZN24ChiFeature2MCReprocessRT18OnInitializeStreamEPK23ChiTargetPortDescriptorPK25ChiFeature2PortDescriptorPN15ChiFeature2Base20ChiFeatureStreamDataE+0xaa0>
0x44000 <_ZN24ChiFeature2MCReprocessRT18OnInitializeStreamEPK23ChiTargetPortDescriptorPK25ChiFeature2PortDescriptorPN15ChiFeature2Base20ChiFeatureStreamDataE+0x9f4>
<_ZN24ChiFeature2MCReprocessRT18OnInitializeStreamEPK23ChiTargetPortDescriptorPK25ChiFeature2PortDescriptorPN15ChiFeature2Base20ChiFeatureStreamDataE+0x10fc>
<_ZN15ChiFeature2Base18OnInitializeStreamEPK23ChiTargetPortDescriptorPK25ChiFeature2PortDescriptorPNS_20ChiFeatureStreamDataE@plt>
0x26f9c <_ZN24ChiFeature2MCReprocessRT18OnInitializeStreamEPK23ChiTargetPortDescriptorPK25ChiFeature2PortDescriptorPN15ChiFeature2Base20ChiFeatureStreamDataE+0xa74>
0x45000 <_ZN24ChiFeature2MCReprocessRT18OnInitializeStreamEPK23ChiTargetPortDescriptorPK25ChiFeature2PortDescriptorPN15ChiFeature2Base20ChiFeatureStreamDataE+0xa2c>
#0, 0x26f9c <_ZN24ChiFeature2MCReprocessRT18OnInitializeStreamEPK23ChiTargetPortDescriptorPK25ChiFeature2PortDescriptorPN15ChiFeature2Base20ChiFeatureStreamDataE+0xa74>
0x45000 <_ZN24ChiFeature2MCReprocessRT18OnInitializeStreamEPK23ChiTargetPortDescriptorPK25ChiFeature2PortDescriptorPN15ChiFeature2Base20ChiFeatureStreamDataE+0xa3c>
<_ZN24ChiFeature2MCReprocessRT18OnInitializeStreamEPK23ChiTargetPortDescriptorPK25ChiFeature2PortDescriptorPN15ChiFeature2Base20ChiFeatureStreamDataE+0xa24>
0x11000 <_ZN24ChiFeature2MCReprocessRT18OnInitializeStreamEPK23ChiTargetPortDescriptorPK25ChiFeature2PortDescriptorPN15ChiFeature2Base20ChiFeatureStreamDataE+0x984>
0x11000 <_ZN24ChiFeature2MCReprocessRT18OnInitializeStreamEPK23ChiTargetPortDescriptorPK25ChiFeature2PortDescriptorPN15ChiFeature2Base20ChiFeatureStreamDataE+0x9a4>
0xe000 <_ZN24ChiFeature2MCReprocessRT18OnInitializeStreamEPK23ChiTargetPortDescriptorPK25ChiFeature2PortDescriptorPN15ChiFeature2Base20ChiFeatureStreamDataE+0x99c>
0xf000 <_ZN24ChiFeature2MCReprocessRT18OnInitializeStreamEPK23ChiTargetPortDescriptorPK25ChiFeature2PortDescriptorPN15ChiFeature2Base20ChiFeatureStreamDataE+0x9a4>
0x11000 <_ZN24ChiFeature2MCReprocessRT18OnInitializeStreamEPK23ChiTargetPortDescriptorPK25ChiFeature2PortDescriptorPN15ChiFeature2Base20ChiFeatureStreamDataE+0x9d0>
0xb000 <_ZN24ChiFeature2MCReprocessRT18OnInitializeStreamEPK23ChiTargetPortDescriptorPK25ChiFeature2PortDescriptorPN15ChiFeature2Base20ChiFeatureStreamDataE+0x9dc>
0x11000 <_ZN24ChiFeature2MCReprocessRT18OnInitializeStreamEPK23ChiTargetPortDescriptorPK25ChiFeature2PortDescriptorPN15ChiFeature2Base20ChiFeatureStreamDataE+0x9f8>
0xf000 <_ZN24ChiFeature2MCReprocessRT18OnInitializeStreamEPK23ChiTargetPortDescriptorPK25ChiFeature2PortDescriptorPN15ChiFeature2Base20ChiFeatureStreamDataE+0x9f4>
0xd000 <_ZN24ChiFeature2MCReprocessRT18OnInitializeStreamEPK23ChiTargetPortDescriptorPK25ChiFeature2PortDescriptorPN15ChiFeature2Base20ChiFeatureStreamDataE+0x9f0>
<_ZN6ChiLog9LogSystemEPKcS1_S1_S1_iS1_z@plt>
0x26a40 <_ZN24ChiFeature2MCReprocessRT18OnInitializeStreamEPK23ChiTargetPortDescriptorPK25ChiFeature2PortDescriptorPN15ChiFeature2Base20ChiFeatureStreamDataE+0x518>
0x27640 <_ZN24ChiFeature2MCReprocessRT18OnInitializeStreamEPK23ChiTargetPortDescriptorPK25ChiFeature2PortDescriptorPN15ChiFeature2Base20ChiFeatureStreamDataE+0x1118>
<_ZN24ChiFeature2MCReprocessRT18OnInitializeStreamEPK23ChiTargetPortDescriptorPK25ChiFeature2PortDescriptorPN15ChiFeature2Base20ChiFeatureStreamDataE+0x518>
<_ZN24ChiFeature2MCReprocessRT18OnInitializeStreamEPK23ChiTargetPortDescriptorPK25ChiFeature2PortDescriptorPN15ChiFeature2Base20ChiFeatureStreamDataE+0xae4>
<_ZN24ChiFeature2MCReprocessRT18OnInitializeStreamEPK23ChiTargetPortDescriptorPK25ChiFeature2PortDescriptorPN15ChiFeature2Base20ChiFeatureStreamDataE+0x978>
<_ZN24ChiFeature2MCReprocessRT18OnInitializeStreamEPK23ChiTargetPortDescriptorPK25ChiFeature2PortDescriptorPN15ChiFeature2Base20ChiFeatureStreamDataE+0xac0>
<_ZN24ChiFeature2MCReprocessRT18OnInitializeStreamEPK23ChiTargetPortDescriptorPK25ChiFeature2PortDescriptorPN15ChiFeature2Base20ChiFeatureStreamDataE+0x111c>
0x27648 <_ZN24ChiFeature2MCReprocessRT18OnInitializeStreamEPK23ChiTargetPortDescriptorPK25ChiFeature2PortDescriptorPN15ChiFeature2Base20ChiFeatureStreamDataE+0x1120>
<_ZN24ChiFeature2MCReprocessRT18OnInitializeStreamEPK23ChiTargetPortDescriptorPK25ChiFeature2PortDescriptorPN15ChiFeature2Base20ChiFeatureStreamDataE+0xb30>
0x2705c <_ZN24ChiFeature2MCReprocessRT18OnInitializeStreamEPK23ChiTargetPortDescriptorPK25ChiFeature2PortDescriptorPN15ChiFeature2Base20ChiFeatureStreamDataE+0xb34>
<_ZN24ChiFeature2MCReprocessRT18OnInitializeStreamEPK23ChiTargetPortDescriptorPK25ChiFeature2PortDescriptorPN15ChiFeature2Base20ChiFeatureStreamDataE+0xb44>
<_ZN24ChiFeature2MCReprocessRT18OnInitializeStreamEPK23ChiTargetPortDescriptorPK25ChiFeature2PortDescriptorPN15ChiFeature2Base20ChiFeatureStreamDataE+0xb7c>
<_ZN24ChiFeature2MCReprocessRT18OnInitializeStreamEPK23ChiTargetPortDescriptorPK25ChiFeature2PortDescriptorPN15ChiFeature2Base20ChiFeatureStreamDataE+0x1118>
0x270d4 <_ZN24ChiFeature2MCReprocessRT18OnInitializeStreamEPK23ChiTargetPortDescriptorPK25ChiFeature2PortDescriptorPN15ChiFeature2Base20ChiFeatureStreamDataE+0xbac>
0x27640 <_ZN24ChiFeature2MCReprocessRT18OnInitializeStreamEPK23ChiTargetPortDescriptorPK25ChiFeature2PortDescriptorPN15ChiFeature2Base20ChiFeatureStreamDataE+0x1118>
<_ZN24ChiFeature2MCReprocessRT18OnInitializeStreamEPK23ChiTargetPortDescriptorPK25ChiFeature2PortDescriptorPN15ChiFeature2Base20ChiFeatureStreamDataE+0xbb0>
<_ZN24ChiFeature2MCReprocessRT18OnInitializeStreamEPK23ChiTargetPortDescriptorPK25ChiFeature2PortDescriptorPN15ChiFeature2Base20ChiFeatureStreamDataE+0xacc>
<_ZN24ChiFeature2MCReprocessRT18OnInitializeStreamEPK23ChiTargetPortDescriptorPK25ChiFeature2PortDescriptorPN15ChiFeature2Base20ChiFeatureStreamDataE+0xbd4>
<_ZN24ChiFeature2MCReprocessRT18OnInitializeStreamEPK23ChiTargetPortDescriptorPK25ChiFeature2PortDescriptorPN15ChiFeature2Base20ChiFeatureStreamDataE+0xc1c>
<_ZN24ChiFeature2MCReprocessRT18OnInitializeStreamEPK23ChiTargetPortDescriptorPK25ChiFeature2PortDescriptorPN15ChiFeature2Base20ChiFeatureStreamDataE+0xbc8>
0x270f0 <_ZN24ChiFeature2MCReprocessRT18OnInitializeStreamEPK23ChiTargetPortDescriptorPK25ChiFeature2PortDescriptorPN15ChiFeature2Base20ChiFeatureStreamDataE+0xbc8>
0x270f0 <_ZN24ChiFeature2MCReprocessRT18OnInitializeStreamEPK23ChiTargetPortDescriptorPK25ChiFeature2PortDescriptorPN15ChiFeature2Base20ChiFeatureStreamDataE+0xbc8>
0x270f0 <_ZN24ChiFeature2MCReprocessRT18OnInitializeStreamEPK23ChiTargetPortDescriptorPK25ChiFeature2PortDescriptorPN15ChiFeature2Base20ChiFeatureStreamDataE+0xbc8>
<_ZN24ChiFeature2MCReprocessRT18OnInitializeStreamEPK23ChiTargetPortDescriptorPK25ChiFeature2PortDescriptorPN15ChiFeature2Base20ChiFeatureStreamDataE+0xbc8>
<_ZN24ChiFeature2MCReprocessRT18OnInitializeStreamEPK23ChiTargetPortDescriptorPK25ChiFeature2PortDescriptorPN15ChiFeature2Base20ChiFeatureStreamDataE+0xc24>
<_ZN24ChiFeature2MCReprocessRT18OnInitializeStreamEPK23ChiTargetPortDescriptorPK25ChiFeature2PortDescriptorPN15ChiFeature2Base20ChiFeatureStreamDataE+0xcf8>
0x27220 <_ZN24ChiFeature2MCReprocessRT18OnInitializeStreamEPK23ChiTargetPortDescriptorPK25ChiFeature2PortDescriptorPN15ChiFeature2Base20ChiFeatureStreamDataE+0xcf8>
<_ZN24ChiFeature2MCReprocessRT18OnInitializeStreamEPK23ChiTargetPortDescriptorPK25ChiFeature2PortDescriptorPN15ChiFeature2Base20ChiFeatureStreamDataE+0xe90>
0x271c8 <_ZN24ChiFeature2MCReprocessRT18OnInitializeStreamEPK23ChiTargetPortDescriptorPK25ChiFeature2PortDescriptorPN15ChiFeature2Base20ChiFeatureStreamDataE+0xca0>
<_ZN24ChiFeature2MCReprocessRT18OnInitializeStreamEPK23ChiTargetPortDescriptorPK25ChiFeature2PortDescriptorPN15ChiFeature2Base20ChiFeatureStreamDataE+0x1128>
<_ZN24ChiFeature2MCReprocessRT18OnInitializeStreamEPK23ChiTargetPortDescriptorPK25ChiFeature2PortDescriptorPN15ChiFeature2Base20ChiFeatureStreamDataE+0x111c>
0x27200 <_ZN24ChiFeature2MCReprocessRT18OnInitializeStreamEPK23ChiTargetPortDescriptorPK25ChiFeature2PortDescriptorPN15ChiFeature2Base20ChiFeatureStreamDataE+0xcd8>
<_ZN24ChiFeature2MCReprocessRT18OnInitializeStreamEPK23ChiTargetPortDescriptorPK25ChiFeature2PortDescriptorPN15ChiFeature2Base20ChiFeatureStreamDataE+0x1128>
<_ZN24ChiFeature2MCReprocessRT18OnInitializeStreamEPK23ChiTargetPortDescriptorPK25ChiFeature2PortDescriptorPN15ChiFeature2Base20ChiFeatureStreamDataE+0x111c>
<_ZN24ChiFeature2MCReprocessRT18OnInitializeStreamEPK23ChiTargetPortDescriptorPK25ChiFeature2PortDescriptorPN15ChiFeature2Base20ChiFeatureStreamDataE+0x518>
0x44000 <_ZN24ChiFeature2MCReprocessRT18OnInitializeStreamEPK23ChiTargetPortDescriptorPK25ChiFeature2PortDescriptorPN15ChiFeature2Base20ChiFeatureStreamDataE+0xd70>
<_ZN24ChiFeature2MCReprocessRT18OnInitializeStreamEPK23ChiTargetPortDescriptorPK25ChiFeature2PortDescriptorPN15ChiFeature2Base20ChiFeatureStreamDataE+0x10a4>
<_ZN24ChiFeature2MCReprocessRT18OnInitializeStreamEPK23ChiTargetPortDescriptorPK25ChiFeature2PortDescriptorPN15ChiFeature2Base20ChiFeatureStreamDataE+0x10c0>
0xb000 <_ZN24ChiFeature2MCReprocessRT18OnInitializeStreamEPK23ChiTargetPortDescriptorPK25ChiFeature2PortDescriptorPN15ChiFeature2Base20ChiFeatureStreamDataE+0xcd0>
<_ZN16ChiFeature2Utils15GetTargetStreamEPK17LogicalCameraInfoPK23ChiTargetPortDescriptorPP9ChiStreamjS8_S7_RNSt3__16vectorIiNS9_9allocatorIiEEEERNSA_IS7_NSB_IS7_EEEEPKci@plt>
0x273b0 <_ZN24ChiFeature2MCReprocessRT18OnInitializeStreamEPK23ChiTargetPortDescriptorPK25ChiFeature2PortDescriptorPN15ChiFeature2Base20ChiFeatureStreamDataE+0xe88>
0x45000 <_ZN24ChiFeature2MCReprocessRT18OnInitializeStreamEPK23ChiTargetPortDescriptorPK25ChiFeature2PortDescriptorPN15ChiFeature2Base20ChiFeatureStreamDataE+0xe30>
#0, 0x26a40 <_ZN24ChiFeature2MCReprocessRT18OnInitializeStreamEPK23ChiTargetPortDescriptorPK25ChiFeature2PortDescriptorPN15ChiFeature2Base20ChiFeatureStreamDataE+0x518>
0x45000 <_ZN24ChiFeature2MCReprocessRT18OnInitializeStreamEPK23ChiTargetPortDescriptorPK25ChiFeature2PortDescriptorPN15ChiFeature2Base20ChiFeatureStreamDataE+0xe44>
<_ZN24ChiFeature2MCReprocessRT18OnInitializeStreamEPK23ChiTargetPortDescriptorPK25ChiFeature2PortDescriptorPN15ChiFeature2Base20ChiFeatureStreamDataE+0xe34>
0x11000 <_ZN24ChiFeature2MCReprocessRT18OnInitializeStreamEPK23ChiTargetPortDescriptorPK25ChiFeature2PortDescriptorPN15ChiFeature2Base20ChiFeatureStreamDataE+0xd90>
0x11000 <_ZN24ChiFeature2MCReprocessRT18OnInitializeStreamEPK23ChiTargetPortDescriptorPK25ChiFeature2PortDescriptorPN15ChiFeature2Base20ChiFeatureStreamDataE+0xdb0>
0xe000 <_ZN24ChiFeature2MCReprocessRT18OnInitializeStreamEPK23ChiTargetPortDescriptorPK25ChiFeature2PortDescriptorPN15ChiFeature2Base20ChiFeatureStreamDataE+0xda8>
0xf000 <_ZN24ChiFeature2MCReprocessRT18OnInitializeStreamEPK23ChiTargetPortDescriptorPK25ChiFeature2PortDescriptorPN15ChiFeature2Base20ChiFeatureStreamDataE+0xdb0>
0x11000 <_ZN24ChiFeature2MCReprocessRT18OnInitializeStreamEPK23ChiTargetPortDescriptorPK25ChiFeature2PortDescriptorPN15ChiFeature2Base20ChiFeatureStreamDataE+0xddc>
0xb000 <_ZN24ChiFeature2MCReprocessRT18OnInitializeStreamEPK23ChiTargetPortDescriptorPK25ChiFeature2PortDescriptorPN15ChiFeature2Base20ChiFeatureStreamDataE+0xde8>
0x11000 <_ZN24ChiFeature2MCReprocessRT18OnInitializeStreamEPK23ChiTargetPortDescriptorPK25ChiFeature2PortDescriptorPN15ChiFeature2Base20ChiFeatureStreamDataE+0xe04>
0xf000 <_ZN24ChiFeature2MCReprocessRT18OnInitializeStreamEPK23ChiTargetPortDescriptorPK25ChiFeature2PortDescriptorPN15ChiFeature2Base20ChiFeatureStreamDataE+0xe00>
0xd000 <_ZN24ChiFeature2MCReprocessRT18OnInitializeStreamEPK23ChiTargetPortDescriptorPK25ChiFeature2PortDescriptorPN15ChiFeature2Base20ChiFeatureStreamDataE+0xdfc>
<_ZN6ChiLog9LogSystemEPKcS1_S1_S1_iS1_z@plt>
<_ZN24ChiFeature2MCReprocessRT18OnInitializeStreamEPK23ChiTargetPortDescriptorPK25ChiFeature2PortDescriptorPN15ChiFeature2Base20ChiFeatureStreamDataE+0x518>
<_ZN24ChiFeature2MCReprocessRT18OnInitializeStreamEPK23ChiTargetPortDescriptorPK25ChiFeature2PortDescriptorPN15ChiFeature2Base20ChiFeatureStreamDataE+0x518>
<_ZN24ChiFeature2MCReprocessRT18OnInitializeStreamEPK23ChiTargetPortDescriptorPK25ChiFeature2PortDescriptorPN15ChiFeature2Base20ChiFeatureStreamDataE+0xeb0>
#0, 0x27408 <_ZN24ChiFeature2MCReprocessRT18OnInitializeStreamEPK23ChiTargetPortDescriptorPK25ChiFeature2PortDescriptorPN15ChiFeature2Base20ChiFeatureStreamDataE+0xee0>
<_ZN24ChiFeature2MCReprocessRT18OnInitializeStreamEPK23ChiTargetPortDescriptorPK25ChiFeature2PortDescriptorPN15ChiFeature2Base20ChiFeatureStreamDataE+0x518>
<_ZN24ChiFeature2MCReprocessRT18OnInitializeStreamEPK23ChiTargetPortDescriptorPK25ChiFeature2PortDescriptorPN15ChiFeature2Base20ChiFeatureStreamDataE+0xef4>
0x11000 <_ZN24ChiFeature2MCReprocessRT18OnInitializeStreamEPK23ChiTargetPortDescriptorPK25ChiFeature2PortDescriptorPN15ChiFeature2Base20ChiFeatureStreamDataE+0xe88>
<_ZN24ChiFeature2MCReprocessRT18OnInitializeStreamEPK23ChiTargetPortDescriptorPK25ChiFeature2PortDescriptorPN15ChiFeature2Base20ChiFeatureStreamDataE+0xc50>
0x27460 <_ZN24ChiFeature2MCReprocessRT18OnInitializeStreamEPK23ChiTargetPortDescriptorPK25ChiFeature2PortDescriptorPN15ChiFeature2Base20ChiFeatureStreamDataE+0xf38>
<_ZN24ChiFeature2MCReprocessRT18OnInitializeStreamEPK23ChiTargetPortDescriptorPK25ChiFeature2PortDescriptorPN15ChiFeature2Base20ChiFeatureStreamDataE+0x1128>
<_ZN24ChiFeature2MCReprocessRT18OnInitializeStreamEPK23ChiTargetPortDescriptorPK25ChiFeature2PortDescriptorPN15ChiFeature2Base20ChiFeatureStreamDataE+0x111c>
0x27498 <_ZN24ChiFeature2MCReprocessRT18OnInitializeStreamEPK23ChiTargetPortDescriptorPK25ChiFeature2PortDescriptorPN15ChiFeature2Base20ChiFeatureStreamDataE+0xf70>
<_ZN24ChiFeature2MCReprocessRT18OnInitializeStreamEPK23ChiTargetPortDescriptorPK25ChiFeature2PortDescriptorPN15ChiFeature2Base20ChiFeatureStreamDataE+0x1128>
<_ZN24ChiFeature2MCReprocessRT18OnInitializeStreamEPK23ChiTargetPortDescriptorPK25ChiFeature2PortDescriptorPN15ChiFeature2Base20ChiFeatureStreamDataE+0x111c>
<_ZN24ChiFeature2MCReprocessRT18OnInitializeStreamEPK23ChiTargetPortDescriptorPK25ChiFeature2PortDescriptorPN15ChiFeature2Base20ChiFeatureStreamDataE+0x518>
<_ZN24ChiFeature2MCReprocessRT18OnInitializeStreamEPK23ChiTargetPortDescriptorPK25ChiFeature2PortDescriptorPN15ChiFeature2Base20ChiFeatureStreamDataE+0x238>
0x26768 <_ZN24ChiFeature2MCReprocessRT18OnInitializeStreamEPK23ChiTargetPortDescriptorPK25ChiFeature2PortDescriptorPN15ChiFeature2Base20ChiFeatureStreamDataE+0x240>
<_ZN24ChiFeature2MCReprocessRT18OnInitializeStreamEPK23ChiTargetPortDescriptorPK25ChiFeature2PortDescriptorPN15ChiFeature2Base20ChiFeatureStreamDataE+0x1038>
#6, 0x26780 <_ZN24ChiFeature2MCReprocessRT18OnInitializeStreamEPK23ChiTargetPortDescriptorPK25ChiFeature2PortDescriptorPN15ChiFeature2Base20ChiFeatureStreamDataE+0x258>
<_ZN24ChiFeature2MCReprocessRT18OnInitializeStreamEPK23ChiTargetPortDescriptorPK25ChiFeature2PortDescriptorPN15ChiFeature2Base20ChiFeatureStreamDataE+0x26c>
#0, 0x267ac <_ZN24ChiFeature2MCReprocessRT18OnInitializeStreamEPK23ChiTargetPortDescriptorPK25ChiFeature2PortDescriptorPN15ChiFeature2Base20ChiFeatureStreamDataE+0x284>
<_ZN24ChiFeature2MCReprocessRT18OnInitializeStreamEPK23ChiTargetPortDescriptorPK25ChiFeature2PortDescriptorPN15ChiFeature2Base20ChiFeatureStreamDataE+0x1038>
#5, 0x26794 <_ZN24ChiFeature2MCReprocessRT18OnInitializeStreamEPK23ChiTargetPortDescriptorPK25ChiFeature2PortDescriptorPN15ChiFeature2Base20ChiFeatureStreamDataE+0x26c>
<_ZN24ChiFeature2MCReprocessRT18OnInitializeStreamEPK23ChiTargetPortDescriptorPK25ChiFeature2PortDescriptorPN15ChiFeature2Base20ChiFeatureStreamDataE+0x108c>
<_ZN15ChiFeature2Base18OnInitializeStreamEPK23ChiTargetPortDescriptorPK25ChiFeature2PortDescriptorPNS_20ChiFeatureStreamDataE@plt>
<_ZN24ChiFeature2MCReprocessRT18OnInitializeStreamEPK23ChiTargetPortDescriptorPK25ChiFeature2PortDescriptorPN15ChiFeature2Base20ChiFeatureStreamDataE+0x1114>
<_ZN24ChiFeature2MCReprocessRT18OnInitializeStreamEPK23ChiTargetPortDescriptorPK25ChiFeature2PortDescriptorPN15ChiFeature2Base20ChiFeatureStreamDataE+0x1048>
<_ZN24ChiFeature2MCReprocessRT18OnInitializeStreamEPK23ChiTargetPortDescriptorPK25ChiFeature2PortDescriptorPN15ChiFeature2Base20ChiFeatureStreamDataE+0xd14>
<_ZN24ChiFeature2MCReprocessRT18OnInitializeStreamEPK23ChiTargetPortDescriptorPK25ChiFeature2PortDescriptorPN15ChiFeature2Base20ChiFeatureStreamDataE+0xd3c>
<_ZN24ChiFeature2MCReprocessRT18OnInitializeStreamEPK23ChiTargetPortDescriptorPK25ChiFeature2PortDescriptorPN15ChiFeature2Base20ChiFeatureStreamDataE+0x990>
<_ZNKSt3__120__vector_base_commonILb1EE20__throw_length_errorEv@plt>

<_ZNK24ChiFeature2RequestObject19GetCurrentStageInfoEP20ChiFeature2StageInfoh@plt>
<_ZNK24ChiFeature2RequestObject24GetExternalRequestOutputEPhPPK28ChiFeature2RequestOutputInfoh@plt>
<_ZNK24ChiFeature2MCReprocessRT23OnPopulateConfigurationEP24ChiFeature2RequestObject+0x16c>
0x44000 <_ZNK24ChiFeature2MCReprocessRT23OnPopulateConfigurationEP24ChiFeature2RequestObject+0xec>
<_ZNK24ChiFeature2MCReprocessRT23OnPopulateConfigurationEP24ChiFeature2RequestObject+0x724>
<_ZNK24ChiFeature2MCReprocessRT31OnPopulateConfigurationSettingsEP24ChiFeature2RequestObjectPK21ChiFeature2IdentifierP11ChiMetadata+0x19e0>
0x27ce0 <_ZNK24ChiFeature2MCReprocessRT23OnPopulateConfigurationEP24ChiFeature2RequestObject+0x688>
<_ZNK24ChiFeature2MCReprocessRT23OnPopulateConfigurationEP24ChiFeature2RequestObject+0x744>
<_ZNK15ChiFeature2Base24BuildActiveInputPortListEP24ChiFeature2RequestObjecthP21ChiFeature2PortIdListRNSt3__16vectorI21ChiFeature2IdentifierNS4_9allocatorIS6_EEEE@plt>
0x27ce0 <_ZNK24ChiFeature2MCReprocessRT23OnPopulateConfigurationEP24ChiFeature2RequestObject+0x688>
<_ZNK24ChiFeature2MCReprocessRT23OnPopulateConfigurationEP24ChiFeature2RequestObject+0x75c>
<_ZNK24ChiFeature2MCReprocessRT29RemoveInvalidImageBufferPortsEPK24ChiFeature2RequestObjectP21ChiFeature2PortIdListRNSt3__16vectorI21ChiFeature2IdentifierNS5_9allocatorIS7_EEEE@plt>
<_ZNK24ChiFeature2MCReprocessRT23OnPopulateConfigurationEP24ChiFeature2RequestObject+0x774>
<_ZNK24ChiFeature2MCReprocessRT23OnPopulateConfigurationEP24ChiFeature2RequestObject+0x790>
<_ZNK24ChiFeature2MCReprocessRT23OnPopulateConfigurationEP24ChiFeature2RequestObject+0x174>
0x27894 <_ZNK24ChiFeature2MCReprocessRT23OnPopulateConfigurationEP24ChiFeature2RequestObject+0x23c>
<_ZNK24ChiFeature2MCReprocessRT23OnPopulateConfigurationEP24ChiFeature2RequestObject+0x240>
<_ZNK24ChiFeature2MCReprocessRT23OnPopulateConfigurationEP24ChiFeature2RequestObject+0x6f0>
0x45000 <_ZNK24ChiFeature2MCReprocessRT23OnPopulateConfigurationEP24ChiFeature2RequestObject+0x1ec>
#0, 0x277e4 <_ZNK24ChiFeature2MCReprocessRT23OnPopulateConfigurationEP24ChiFeature2RequestObject+0x18c>
<_ZNK24ChiFeature2MCReprocessRT23OnPopulateConfigurationEP24ChiFeature2RequestObject+0x688>
0x45000 <_ZNK24ChiFeature2MCReprocessRT23OnPopulateConfigurationEP24ChiFeature2RequestObject+0x204>
0xf000 <_ZNK24ChiFeature2MCReprocessRT23OnPopulateConfigurationEP24ChiFeature2RequestObject+0x130>
<_ZNK24ChiFeature2MCReprocessRT23OnPopulateConfigurationEP24ChiFeature2RequestObject+0x1ec>
0x11000 <_ZNK24ChiFeature2MCReprocessRT23OnPopulateConfigurationEP24ChiFeature2RequestObject+0x164>
0xf000 <_ZNK24ChiFeature2MCReprocessRT23OnPopulateConfigurationEP24ChiFeature2RequestObject+0x160>
0xd000 <_ZNK24ChiFeature2MCReprocessRT23OnPopulateConfigurationEP24ChiFeature2RequestObject+0x15c>
0x11000 <_ZNK24ChiFeature2MCReprocessRT23OnPopulateConfigurationEP24ChiFeature2RequestObject+0x1a8>
0xb000 <_ZNK24ChiFeature2MCReprocessRT23OnPopulateConfigurationEP24ChiFeature2RequestObject+0x198>
0xd000 <_ZNK24ChiFeature2MCReprocessRT23OnPopulateConfigurationEP24ChiFeature2RequestObject+0x1a4>
0xe000 <_ZNK24ChiFeature2MCReprocessRT23OnPopulateConfigurationEP24ChiFeature2RequestObject+0x1ac>
<_ZN6ChiLog9LogSystemEPKcS1_S1_S1_iS1_z@plt>
<_ZNK24ChiFeature2MCReprocessRT23OnPopulateConfigurationEP24ChiFeature2RequestObject+0x688>
<_ZNK24ChiFeature2MCReprocessRT23OnPopulateConfigurationEP24ChiFeature2RequestObject+0x63c>
<_ZNK24ChiFeature2MCReprocessRT23OnPopulateConfigurationEP24ChiFeature2RequestObject+0x2c8>
0x11000 <_ZNK24ChiFeature2MCReprocessRT23OnPopulateConfigurationEP24ChiFeature2RequestObject+0x208>
0xc000 <_ZNK24ChiFeature2MCReprocessRT23OnPopulateConfigurationEP24ChiFeature2RequestObject+0x210>
0xf000 <_ZNK24ChiFeature2MCReprocessRT23OnPopulateConfigurationEP24ChiFeature2RequestObject+0x224>
0x11000 <_ZNK24ChiFeature2MCReprocessRT23OnPopulateConfigurationEP24ChiFeature2RequestObject+0x230>
0xd000 <_ZNK24ChiFeature2MCReprocessRT23OnPopulateConfigurationEP24ChiFeature2RequestObject+0x224>
<_ZN6ChiLog9LogSystemEPKcS1_S1_S1_iS1_z@plt>
<_ZNK24ChiFeature2MCReprocessRT23OnPopulateConfigurationEP24ChiFeature2RequestObject+0x63c>
<_ZNK24ChiFeature2MCReprocessRT23OnPopulateConfigurationEP24ChiFeature2RequestObject+0x548>
<_ZNK24ChiFeature2MCReprocessRT23OnPopulateConfigurationEP24ChiFeature2RequestObject+0x568>
<_ZNK24ChiFeature2MCReprocessRT23OnPopulateConfigurationEP24ChiFeature2RequestObject+0x58c>
0x27c00 <_ZNK24ChiFeature2MCReprocessRT23OnPopulateConfigurationEP24ChiFeature2RequestObject+0x5a8>
<_ZNK24ChiFeature2MCReprocessRT23OnPopulateConfigurationEP24ChiFeature2RequestObject+0x5a8>
0x27c00 <_ZNK24ChiFeature2MCReprocessRT23OnPopulateConfigurationEP24ChiFeature2RequestObject+0x5a8>
<_ZNK24ChiFeature2MCReprocessRT23OnPopulateConfigurationEP24ChiFeature2RequestObject+0x5a8>
0x27c00 <_ZNK24ChiFeature2MCReprocessRT23OnPopulateConfigurationEP24ChiFeature2RequestObject+0x5a8>
<_ZNK24ChiFeature2MCReprocessRT23OnPopulateConfigurationEP24ChiFeature2RequestObject+0x36c>
<_ZNK24ChiFeature2MCReprocessRT23OnPopulateConfigurationEP24ChiFeature2RequestObject+0x398>
<_ZNK24ChiFeature2MCReprocessRT23OnPopulateConfigurationEP24ChiFeature2RequestObject+0x5a8>
<_ZNK24ChiFeature2MCReprocessRT23OnPopulateConfigurationEP24ChiFeature2RequestObject+0x5a8>
0x27c00 <_ZNK24ChiFeature2MCReprocessRT23OnPopulateConfigurationEP24ChiFeature2RequestObject+0x5a8>
<_ZNK24ChiFeature2MCReprocessRT23OnPopulateConfigurationEP24ChiFeature2RequestObject+0x61c>
<_ZNK15ChiFeature2Base26IsPortEnabledInFinalOutputEPK24ChiFeature2RequestObject21ChiFeature2Identifierh@plt>
<_ZNK24ChiFeature2MCReprocessRT23OnPopulateConfigurationEP24ChiFeature2RequestObject+0x400>
<_ZNK24ChiFeature2MCReprocessRT23OnPopulateConfigurationEP24ChiFeature2RequestObject+0x414>
<_ZNK24ChiFeature2MCReprocessRT29RemoveInvalidImageBufferPortsEPK24ChiFeature2RequestObjectP21ChiFeature2PortIdListRNSt3__16vectorI21ChiFeature2IdentifierNS5_9allocatorIS7_EEEE+0x5d8>
<_ZNK24ChiFeature2MCReprocessRT23OnPopulateConfigurationEP24ChiFeature2RequestObject+0x2b0>
0x45000 <_ZNK24ChiFeature2MCReprocessRT23OnPopulateConfigurationEP24ChiFeature2RequestObject+0x490>
#5, 0x27908 <_ZNK24ChiFeature2MCReprocessRT23OnPopulateConfigurationEP24ChiFeature2RequestObject+0x2b0>
0x45000 <_ZNK24ChiFeature2MCReprocessRT23OnPopulateConfigurationEP24ChiFeature2RequestObject+0x4a4>
<_ZNK24ChiFeature2MCReprocessRT23OnPopulateConfigurationEP24ChiFeature2RequestObject+0x4bc>
0x11000 <_ZNK24ChiFeature2MCReprocessRT23OnPopulateConfigurationEP24ChiFeature2RequestObject+0x3e8>
0x11000 <_ZNK24ChiFeature2MCReprocessRT23OnPopulateConfigurationEP24ChiFeature2RequestObject+0x410>
0xc000 <_ZNK24ChiFeature2MCReprocessRT23OnPopulateConfigurationEP24ChiFeature2RequestObject+0x400>
0x11000 <_ZNK24ChiFeature2MCReprocessRT23OnPopulateConfigurationEP24ChiFeature2RequestObject+0x44c>
0x11000 <_ZNK24ChiFeature2MCReprocessRT23OnPopulateConfigurationEP24ChiFeature2RequestObject+0x464>
0x10000 <_ZNK24ChiFeature2MCReprocessRT23OnPopulateConfigurationEP24ChiFeature2RequestObject+0x48c>
0xf000 <_ZNK24ChiFeature2MCReprocessRT23OnPopulateConfigurationEP24ChiFeature2RequestObject+0x48c>
0xd000 <_ZNK24ChiFeature2MCReprocessRT23OnPopulateConfigurationEP24ChiFeature2RequestObject+0x48c>
0x11000 <_ZNK24ChiFeature2MCReprocessRT23OnPopulateConfigurationEP24ChiFeature2RequestObject+0x4d0>
<_ZN6ChiLog9LogSystemEPKcS1_S1_S1_iS1_z@plt>
<_ZNK24ChiFeature2MCReprocessRT23OnPopulateConfigurationEP24ChiFeature2RequestObject+0x2b4>
<_ZNK24ChiFeature2MCReprocessRT23OnPopulateConfigurationEP24ChiFeature2RequestObject+0x2d4>
<_ZNK24ChiFeature2MCReprocessRT23OnPopulateConfigurationEP24ChiFeature2RequestObject+0x2ec>
0x27948 <_ZNK24ChiFeature2MCReprocessRT23OnPopulateConfigurationEP24ChiFeature2RequestObject+0x2f0>
0x45000 <_ZNK24ChiFeature2MCReprocessRT23OnPopulateConfigurationEP24ChiFeature2RequestObject+0x620>
#1, 0x2790c <_ZNK24ChiFeature2MCReprocessRT23OnPopulateConfigurationEP24ChiFeature2RequestObject+0x2b4>
0x45000 <_ZNK24ChiFeature2MCReprocessRT23OnPopulateConfigurationEP24ChiFeature2RequestObject+0x630>
<_ZNK24ChiFeature2MCReprocessRT23OnPopulateConfigurationEP24ChiFeature2RequestObject+0x260>
0x11000 <_ZNK24ChiFeature2MCReprocessRT23OnPopulateConfigurationEP24ChiFeature2RequestObject+0x574>
0x11000 <_ZNK24ChiFeature2MCReprocessRT23OnPopulateConfigurationEP24ChiFeature2RequestObject+0x590>
0xb000 <_ZNK24ChiFeature2MCReprocessRT23OnPopulateConfigurationEP24ChiFeature2RequestObject+0x57c>
0x11000 <_ZNK24ChiFeature2MCReprocessRT23OnPopulateConfigurationEP24ChiFeature2RequestObject+0x598>
<_ZNK24ChiFeature2MCReprocessRT23OnPopulateConfigurationEP24ChiFeature2RequestObject+0x260>
<_ZNK24ChiFeature2MCReprocessRT23OnPopulateConfigurationEP24ChiFeature2RequestObject+0x3bc>
<_ZNK24ChiFeature2MCReprocessRT23OnPopulateConfigurationEP24ChiFeature2RequestObject+0x7a8>
<_ZNK15ChiFeature2Base25PopulatePortConfigurationEP24ChiFeature2RequestObjectPK21ChiFeature2PortIdListS4_@plt>
0x27d14 <_ZNK24ChiFeature2MCReprocessRT23OnPopulateConfigurationEP24ChiFeature2RequestObject+0x6bc>
0x27e1c <_ZNK24ChiFeature2MCReprocessRT23OnPopulateConfigurationEP24ChiFeature2RequestObject+0x7c4>
0x27d48 <_ZNK24ChiFeature2MCReprocessRT23OnPopulateConfigurationEP24ChiFeature2RequestObject+0x6f0>
0x27e1c <_ZNK24ChiFeature2MCReprocessRT23OnPopulateConfigurationEP24ChiFeature2RequestObject+0x7c4>
<_ZNK24ChiFeature2MCReprocessRT23OnPopulateConfigurationEP24ChiFeature2RequestObject+0x7c0>
<_ZNK24ChiFeature2MCReprocessRT23OnPopulateConfigurationEP24ChiFeature2RequestObject+0xa4>
<_ZNK24ChiFeature2MCReprocessRT23OnPopulateConfigurationEP24ChiFeature2RequestObject+0xc8>
<_ZNK24ChiFeature2MCReprocessRT23OnPopulateConfigurationEP24ChiFeature2RequestObject+0xf8>
<_ZNK24ChiFeature2MCReprocessRT23OnPopulateConfigurationEP24ChiFeature2RequestObject+0x118>
<_ZNK24ChiFeature2MCReprocessRT23OnPopulateConfigurationEP24ChiFeature2RequestObject+0x128>
<_ZNK24ChiFeature2MCReprocessRT23OnPopulateConfigurationEP24ChiFeature2RequestObject+0x670>


0x44000 <_ZNK24ChiFeature2MCReprocessRT31OnPopulateConfigurationSettingsEP24ChiFeature2RequestObjectPK21ChiFeature2IdentifierP11ChiMetadata+0xa4>
<_ZNK24ChiFeature2MCReprocessRT31OnPopulateConfigurationSettingsEP24ChiFeature2RequestObjectPK21ChiFeature2IdentifierP11ChiMetadata+0xd60>
<_ZNK24ChiFeature2MCReprocessRT31OnPopulateConfigurationSettingsEP24ChiFeature2RequestObjectPK21ChiFeature2IdentifierP11ChiMetadata+0x168>
0x27ec4 <_ZNK24ChiFeature2MCReprocessRT31OnPopulateConfigurationSettingsEP24ChiFeature2RequestObjectPK21ChiFeature2IdentifierP11ChiMetadata+0x9c>
<_ZNK24ChiFeature2MCReprocessRT31OnPopulateConfigurationSettingsEP24ChiFeature2RequestObjectPK21ChiFeature2IdentifierP11ChiMetadata+0x168>
<_ZN15ExtensionModule11GetInstanceEv@plt>
<_ZNK24ChiFeature2MCReprocessRT31OnPopulateConfigurationSettingsEP24ChiFeature2RequestObjectPK21ChiFeature2IdentifierP11ChiMetadata+0x3e4>
<_ZNK24ChiFeature2MCReprocessRT31OnPopulateConfigurationSettingsEP24ChiFeature2RequestObjectPK21ChiFeature2IdentifierP11ChiMetadata+0x3e4>
<_ZNK24ChiFeature2MCReprocessRT31OnPopulateConfigurationSettingsEP24ChiFeature2RequestObjectPK21ChiFeature2IdentifierP11ChiMetadata+0xd90>
<_ZNK15ChiFeature2Base25GetExternalOutputSettingsEP24ChiFeature2RequestObjectPK21ChiFeature2Identifierhh@plt>
0x2805c <_ZNK24ChiFeature2MCReprocessRT31OnPopulateConfigurationSettingsEP24ChiFeature2RequestObjectPK21ChiFeature2IdentifierP11ChiMetadata+0x234>
<_ZNSt3__16chrono12steady_clock3nowEv@plt>
<_ZNK24ChiFeature2MCReprocessRT31OnPopulateConfigurationSettingsEP24ChiFeature2RequestObjectPK21ChiFeature2IdentifierP11ChiMetadata+0x14c>
<_ZNK24ChiFeature2MCReprocessRT31OnPopulateConfigurationSettingsEP24ChiFeature2RequestObjectPK21ChiFeature2IdentifierP11ChiMetadata+0x23c>
<_ZNK24ChiFeature2MCReprocessRT31OnPopulateConfigurationSettingsEP24ChiFeature2RequestObjectPK21ChiFeature2IdentifierP11ChiMetadata+0x23c>
<_ZNK24ChiFeature2RequestObject23GetUsecaseRequestObjectEv@plt>
<_ZNK24ChiFeature2MCReprocessRT31OnPopulateConfigurationSettingsEP24ChiFeature2RequestObjectPK21ChiFeature2IdentifierP11ChiMetadata+0xd78>
<_ZNK15ChiFeature2Base19GetCurrentStageInfoEP24ChiFeature2RequestObjectP20ChiFeature2StageInfo@plt>
0x28fe0 <_ZNK24ChiFeature2MCReprocessRT31OnPopulateConfigurationSettingsEP24ChiFeature2RequestObjectPK21ChiFeature2IdentifierP11ChiMetadata+0x11b8>
<_ZNK24ChiFeature2MCReprocessRT31OnPopulateConfigurationSettingsEP24ChiFeature2RequestObjectPK21ChiFeature2IdentifierP11ChiMetadata+0xdd8>
<_ZNK24ChiFeature2MCReprocessRT31OnPopulateConfigurationSettingsEP24ChiFeature2RequestObjectPK21ChiFeature2IdentifierP11ChiMetadata+0x19e0>
0x28fe0 <_ZNK24ChiFeature2MCReprocessRT31OnPopulateConfigurationSettingsEP24ChiFeature2RequestObjectPK21ChiFeature2IdentifierP11ChiMetadata+0x11b8>
0x2899c <_ZNK24ChiFeature2MCReprocessRT31OnPopulateConfigurationSettingsEP24ChiFeature2RequestObjectPK21ChiFeature2IdentifierP11ChiMetadata+0xb74>
<_ZNK24ChiFeature2MCReprocessRT31OnPopulateConfigurationSettingsEP24ChiFeature2RequestObjectPK21ChiFeature2IdentifierP11ChiMetadata+0x4ec>
0x290c4 <_ZNK24ChiFeature2MCReprocessRT31OnPopulateConfigurationSettingsEP24ChiFeature2RequestObjectPK21ChiFeature2IdentifierP11ChiMetadata+0x129c>
<_ZNK24ChiFeature2MCReprocessRT31OnPopulateConfigurationSettingsEP24ChiFeature2RequestObjectPK21ChiFeature2IdentifierP11ChiMetadata+0xda8>
<_ZNK15ChiFeature2Base18GetSensorModeIndexEPK21ChiFeature2IdentifierP11ChiMetadata@plt>
<_ZNK24ChiFeature2RequestObject23GetUsecaseRequestObjectEv@plt>
<_ZNK24ChiFeature2MCReprocessRT31OnPopulateConfigurationSettingsEP24ChiFeature2RequestObjectPK21ChiFeature2IdentifierP11ChiMetadata+0xdc0>
0x10000 <_ZNK24ChiFeature2MCReprocessRT31OnPopulateConfigurationSettingsEP24ChiFeature2RequestObjectPK21ChiFeature2IdentifierP11ChiMetadata+0x270>
0xe000 <_ZNK24ChiFeature2MCReprocessRT31OnPopulateConfigurationSettingsEP24ChiFeature2RequestObjectPK21ChiFeature2IdentifierP11ChiMetadata+0x26c>
<_ZN15ExtensionModule11GetInstanceEv@plt>
<_ZNK24ChiFeature2MCReprocessRT31OnPopulateConfigurationSettingsEP24ChiFeature2RequestObjectPK21ChiFeature2IdentifierP11ChiMetadata+0x308>
<_ZNK24ChiFeature2MCReprocessRT31OnPopulateConfigurationSettingsEP24ChiFeature2RequestObjectPK21ChiFeature2IdentifierP11ChiMetadata+0x384>
0x281ac <_ZNK24ChiFeature2MCReprocessRT31OnPopulateConfigurationSettingsEP24ChiFeature2RequestObjectPK21ChiFeature2IdentifierP11ChiMetadata+0x384>
<_ZNK24ChiFeature2MCReprocessRT31OnPopulateConfigurationSettingsEP24ChiFeature2RequestObjectPK21ChiFeature2IdentifierP11ChiMetadata+0xdf0>
<_ZNK24ChiFeature2MCReprocessRT31OnPopulateConfigurationSettingsEP24ChiFeature2RequestObjectPK21ChiFeature2IdentifierP11ChiMetadata+0xe10>
0x281ac <_ZNK24ChiFeature2MCReprocessRT31OnPopulateConfigurationSettingsEP24ChiFeature2RequestObjectPK21ChiFeature2IdentifierP11ChiMetadata+0x384>
<_ZNK24ChiFeature2MCReprocessRT31OnPopulateConfigurationSettingsEP24ChiFeature2RequestObjectPK21ChiFeature2IdentifierP11ChiMetadata+0xe48>
#6, 0x2818c <_ZNK24ChiFeature2MCReprocessRT31OnPopulateConfigurationSettingsEP24ChiFeature2RequestObjectPK21ChiFeature2IdentifierP11ChiMetadata+0x364>
<_ZNK24ChiFeature2MCReprocessRT31OnPopulateConfigurationSettingsEP24ChiFeature2RequestObjectPK21ChiFeature2IdentifierP11ChiMetadata+0xe88>
#5, 0x281ac <_ZNK24ChiFeature2MCReprocessRT31OnPopulateConfigurationSettingsEP24ChiFeature2RequestObjectPK21ChiFeature2IdentifierP11ChiMetadata+0x384>
<_ZNK24ChiFeature2MCReprocessRT31OnPopulateConfigurationSettingsEP24ChiFeature2RequestObjectPK21ChiFeature2IdentifierP11ChiMetadata+0xe6c>
<_ZN8ChxUtils18FillTuningModeDataEP11ChiMetadata25ChiModeUsecaseSubModeTypejPjS3_S3_S3_@plt>
0x11000 <_ZNK24ChiFeature2MCReprocessRT31OnPopulateConfigurationSettingsEP24ChiFeature2RequestObjectPK21ChiFeature2IdentifierP11ChiMetadata+0x35c>
0xb000 <_ZNK24ChiFeature2MCReprocessRT31OnPopulateConfigurationSettingsEP24ChiFeature2RequestObjectPK21ChiFeature2IdentifierP11ChiMetadata+0x348>
<_ZNK24ChiFeature2MCReprocessRT31OnPopulateConfigurationSettingsEP24ChiFeature2RequestObjectPK21ChiFeature2IdentifierP11ChiMetadata+0x11bc>
<_ZNK24ChiFeature2MCReprocessRT31OnPopulateConfigurationSettingsEP24ChiFeature2RequestObjectPK21ChiFeature2IdentifierP11ChiMetadata+0xe30>
<_ZNK15ChiFeature2Base31OnPopulateConfigurationSettingsEP24ChiFeature2RequestObjectPK21ChiFeature2IdentifierP11ChiMetadata@plt>
0x28060 <_ZNK24ChiFeature2MCReprocessRT31OnPopulateConfigurationSettingsEP24ChiFeature2RequestObjectPK21ChiFeature2IdentifierP11ChiMetadata+0x238>
0x45000 <_ZNK24ChiFeature2MCReprocessRT31OnPopulateConfigurationSettingsEP24ChiFeature2RequestObjectPK21ChiFeature2IdentifierP11ChiMetadata+0x484>
#0, 0x28060 <_ZNK24ChiFeature2MCReprocessRT31OnPopulateConfigurationSettingsEP24ChiFeature2RequestObjectPK21ChiFeature2IdentifierP11ChiMetadata+0x238>
0x45000 <_ZNK24ChiFeature2MCReprocessRT31OnPopulateConfigurationSettingsEP24ChiFeature2RequestObjectPK21ChiFeature2IdentifierP11ChiMetadata+0x494>
0x11000 <_ZNK24ChiFeature2MCReprocessRT31OnPopulateConfigurationSettingsEP24ChiFeature2RequestObjectPK21ChiFeature2IdentifierP11ChiMetadata+0x3cc>
<_ZNK24ChiFeature2MCReprocessRT31OnPopulateConfigurationSettingsEP24ChiFeature2RequestObjectPK21ChiFeature2IdentifierP11ChiMetadata+0x480>
0x11000 <_ZNK24ChiFeature2MCReprocessRT31OnPopulateConfigurationSettingsEP24ChiFeature2RequestObjectPK21ChiFeature2IdentifierP11ChiMetadata+0x3f8>
0xc000 <_ZNK24ChiFeature2MCReprocessRT31OnPopulateConfigurationSettingsEP24ChiFeature2RequestObjectPK21ChiFeature2IdentifierP11ChiMetadata+0x3e8>
0xf000 <_ZNK24ChiFeature2MCReprocessRT31OnPopulateConfigurationSettingsEP24ChiFeature2RequestObjectPK21ChiFeature2IdentifierP11ChiMetadata+0x3f8>
0x11000 <_ZNK24ChiFeature2MCReprocessRT31OnPopulateConfigurationSettingsEP24ChiFeature2RequestObjectPK21ChiFeature2IdentifierP11ChiMetadata+0x438>
0xb000 <_ZNK24ChiFeature2MCReprocessRT31OnPopulateConfigurationSettingsEP24ChiFeature2RequestObjectPK21ChiFeature2IdentifierP11ChiMetadata+0x428>
0xf000 <_ZNK24ChiFeature2MCReprocessRT31OnPopulateConfigurationSettingsEP24ChiFeature2RequestObjectPK21ChiFeature2IdentifierP11ChiMetadata+0x43c>
0xc000 <_ZNK24ChiFeature2MCReprocessRT31OnPopulateConfigurationSettingsEP24ChiFeature2RequestObjectPK21ChiFeature2IdentifierP11ChiMetadata+0x434>
<_ZN6ChiLog9LogSystemEPKcS1_S1_S1_iS1_z@plt>
<_ZNK24ChiFeature2MCReprocessRT31OnPopulateConfigurationSettingsEP24ChiFeature2RequestObjectPK21ChiFeature2IdentifierP11ChiMetadata+0x238>
0x44000 <_ZNK24ChiFeature2MCReprocessRT31OnPopulateConfigurationSettingsEP24ChiFeature2RequestObjectPK21ChiFeature2IdentifierP11ChiMetadata+0x540>
<_ZNK24ChiFeature2MCReprocessRT31OnPopulateConfigurationSettingsEP24ChiFeature2RequestObjectPK21ChiFeature2IdentifierP11ChiMetadata+0xb50>
<_ZNK24ChiFeature2MCReprocessRT31OnPopulateConfigurationSettingsEP24ChiFeature2RequestObjectPK21ChiFeature2IdentifierP11ChiMetadata+0x4dc>
<_ZNK24ChiFeature2RequestObject13GetBufferInfoE31ChiFeature2RequestObjectOpsTypePK21ChiFeature2IdentifierPPvPmhh@plt>
0x28300 <_ZNK24ChiFeature2MCReprocessRT31OnPopulateConfigurationSettingsEP24ChiFeature2RequestObjectPK21ChiFeature2IdentifierP11ChiMetadata+0x4d8>
<_ZN22CHITargetBufferManager22GetTargetBufferManagerEPv@plt>
0x283cc <_ZNK24ChiFeature2MCReprocessRT31OnPopulateConfigurationSettingsEP24ChiFeature2RequestObjectPK21ChiFeature2IdentifierP11ChiMetadata+0x5a4>
<_ZN22CHITargetBufferManager9GetTargetEPvm@plt>
0x28484 <_ZNK24ChiFeature2MCReprocessRT31OnPopulateConfigurationSettingsEP24ChiFeature2RequestObjectPK21ChiFeature2IdentifierP11ChiMetadata+0x65c>
0x28548 <_ZNK24ChiFeature2MCReprocessRT31OnPopulateConfigurationSettingsEP24ChiFeature2RequestObjectPK21ChiFeature2IdentifierP11ChiMetadata+0x720>
<_ZNK24ChiFeature2MCReprocessRT31OnPopulateConfigurationSettingsEP24ChiFeature2RequestObjectPK21ChiFeature2IdentifierP11ChiMetadata+0xb38>
<_ZN18ChiMetadataManager21GetMetadataFromHandleEPv@plt>
0x282f4 <_ZNK24ChiFeature2MCReprocessRT31OnPopulateConfigurationSettingsEP24ChiFeature2RequestObjectPK21ChiFeature2IdentifierP11ChiMetadata+0x4cc>
<_ZNK24ChiFeature2MCReprocessRT31OnPopulateConfigurationSettingsEP24ChiFeature2RequestObjectPK21ChiFeature2IdentifierP11ChiMetadata+0x7dc>
<_ZNK24ChiFeature2MCReprocessRT31OnPopulateConfigurationSettingsEP24ChiFeature2RequestObjectPK21ChiFeature2IdentifierP11ChiMetadata+0x89c>
0x45000 <_ZNK24ChiFeature2MCReprocessRT31OnPopulateConfigurationSettingsEP24ChiFeature2RequestObjectPK21ChiFeature2IdentifierP11ChiMetadata+0x618>
#0, 0x28300 <_ZNK24ChiFeature2MCReprocessRT31OnPopulateConfigurationSettingsEP24ChiFeature2RequestObjectPK21ChiFeature2IdentifierP11ChiMetadata+0x4d8>
0x45000 <_ZNK24ChiFeature2MCReprocessRT31OnPopulateConfigurationSettingsEP24ChiFeature2RequestObjectPK21ChiFeature2IdentifierP11ChiMetadata+0x62c>
<_ZNK24ChiFeature2MCReprocessRT31OnPopulateConfigurationSettingsEP24ChiFeature2RequestObjectPK21ChiFeature2IdentifierP11ChiMetadata+0x614>
0xb000 <_ZNK24ChiFeature2MCReprocessRT31OnPopulateConfigurationSettingsEP24ChiFeature2RequestObjectPK21ChiFeature2IdentifierP11ChiMetadata+0x558>
0x11000 <_ZNK24ChiFeature2MCReprocessRT31OnPopulateConfigurationSettingsEP24ChiFeature2RequestObjectPK21ChiFeature2IdentifierP11ChiMetadata+0x58c>
0x11000 <_ZNK24ChiFeature2MCReprocessRT31OnPopulateConfigurationSettingsEP24ChiFeature2RequestObjectPK21ChiFeature2IdentifierP11ChiMetadata+0x590>
0x10000 <_ZNK24ChiFeature2MCReprocessRT31OnPopulateConfigurationSettingsEP24ChiFeature2RequestObjectPK21ChiFeature2IdentifierP11ChiMetadata+0x590>
0xb000 <_ZNK24ChiFeature2MCReprocessRT31OnPopulateConfigurationSettingsEP24ChiFeature2RequestObjectPK21ChiFeature2IdentifierP11ChiMetadata+0x5a0>
0x11000 <_ZNK24ChiFeature2MCReprocessRT31OnPopulateConfigurationSettingsEP24ChiFeature2RequestObjectPK21ChiFeature2IdentifierP11ChiMetadata+0x5d4>
0xb000 <_ZNK24ChiFeature2MCReprocessRT31OnPopulateConfigurationSettingsEP24ChiFeature2RequestObjectPK21ChiFeature2IdentifierP11ChiMetadata+0x5c4>
0x10000 <_ZNK24ChiFeature2MCReprocessRT31OnPopulateConfigurationSettingsEP24ChiFeature2RequestObjectPK21ChiFeature2IdentifierP11ChiMetadata+0x5dc>
0xd000 <_ZNK24ChiFeature2MCReprocessRT31OnPopulateConfigurationSettingsEP24ChiFeature2RequestObjectPK21ChiFeature2IdentifierP11ChiMetadata+0x5d4>
<_ZNK24ChiFeature2MCReprocessRT31OnPopulateConfigurationSettingsEP24ChiFeature2RequestObjectPK21ChiFeature2IdentifierP11ChiMetadata+0x710>
0x45000 <_ZNK24ChiFeature2MCReprocessRT31OnPopulateConfigurationSettingsEP24ChiFeature2RequestObjectPK21ChiFeature2IdentifierP11ChiMetadata+0x6d0>
#0, 0x28300 <_ZNK24ChiFeature2MCReprocessRT31OnPopulateConfigurationSettingsEP24ChiFeature2RequestObjectPK21ChiFeature2IdentifierP11ChiMetadata+0x4d8>
0x45000 <_ZNK24ChiFeature2MCReprocessRT31OnPopulateConfigurationSettingsEP24ChiFeature2RequestObjectPK21ChiFeature2IdentifierP11ChiMetadata+0x6e4>
<_ZNK24ChiFeature2MCReprocessRT31OnPopulateConfigurationSettingsEP24ChiFeature2RequestObjectPK21ChiFeature2IdentifierP11ChiMetadata+0x6cc>
0xb000 <_ZNK24ChiFeature2MCReprocessRT31OnPopulateConfigurationSettingsEP24ChiFeature2RequestObjectPK21ChiFeature2IdentifierP11ChiMetadata+0x610>
0x11000 <_ZNK24ChiFeature2MCReprocessRT31OnPopulateConfigurationSettingsEP24ChiFeature2RequestObjectPK21ChiFeature2IdentifierP11ChiMetadata+0x644>
0xf000 <_ZNK24ChiFeature2MCReprocessRT31OnPopulateConfigurationSettingsEP24ChiFeature2RequestObjectPK21ChiFeature2IdentifierP11ChiMetadata+0x640>
0x10000 <_ZNK24ChiFeature2MCReprocessRT31OnPopulateConfigurationSettingsEP24ChiFeature2RequestObjectPK21ChiFeature2IdentifierP11ChiMetadata+0x648>
0xb000 <_ZNK24ChiFeature2MCReprocessRT31OnPopulateConfigurationSettingsEP24ChiFeature2RequestObjectPK21ChiFeature2IdentifierP11ChiMetadata+0x658>
0x11000 <_ZNK24ChiFeature2MCReprocessRT31OnPopulateConfigurationSettingsEP24ChiFeature2RequestObjectPK21ChiFeature2IdentifierP11ChiMetadata+0x68c>
0xb000 <_ZNK24ChiFeature2MCReprocessRT31OnPopulateConfigurationSettingsEP24ChiFeature2RequestObjectPK21ChiFeature2IdentifierP11ChiMetadata+0x67c>
0x10000 <_ZNK24ChiFeature2MCReprocessRT31OnPopulateConfigurationSettingsEP24ChiFeature2RequestObjectPK21ChiFeature2IdentifierP11ChiMetadata+0x694>
0xd000 <_ZNK24ChiFeature2MCReprocessRT31OnPopulateConfigurationSettingsEP24ChiFeature2RequestObjectPK21ChiFeature2IdentifierP11ChiMetadata+0x68c>
<_ZN6ChiLog9LogSystemEPKcS1_S1_S1_iS1_z@plt>
<_ZNK24ChiFeature2MCReprocessRT31OnPopulateConfigurationSettingsEP24ChiFeature2RequestObjectPK21ChiFeature2IdentifierP11ChiMetadata+0x4d8>
0x45000 <_ZNK24ChiFeature2MCReprocessRT31OnPopulateConfigurationSettingsEP24ChiFeature2RequestObjectPK21ChiFeature2IdentifierP11ChiMetadata+0x794>
#0, 0x28300 <_ZNK24ChiFeature2MCReprocessRT31OnPopulateConfigurationSettingsEP24ChiFeature2RequestObjectPK21ChiFeature2IdentifierP11ChiMetadata+0x4d8>
0x45000 <_ZNK24ChiFeature2MCReprocessRT31OnPopulateConfigurationSettingsEP24ChiFeature2RequestObjectPK21ChiFeature2IdentifierP11ChiMetadata+0x7a8>
<_ZNK24ChiFeature2MCReprocessRT31OnPopulateConfigurationSettingsEP24ChiFeature2RequestObjectPK21ChiFeature2IdentifierP11ChiMetadata+0x78c>
0xb000 <_ZNK24ChiFeature2MCReprocessRT31OnPopulateConfigurationSettingsEP24ChiFeature2RequestObjectPK21ChiFeature2IdentifierP11ChiMetadata+0x6d4>
0x11000 <_ZNK24ChiFeature2MCReprocessRT31OnPopulateConfigurationSettingsEP24ChiFeature2RequestObjectPK21ChiFeature2IdentifierP11ChiMetadata+0x708>
0xe000 <_ZNK24ChiFeature2MCReprocessRT31OnPopulateConfigurationSettingsEP24ChiFeature2RequestObjectPK21ChiFeature2IdentifierP11ChiMetadata+0x700>
0x10000 <_ZNK24ChiFeature2MCReprocessRT31OnPopulateConfigurationSettingsEP24ChiFeature2RequestObjectPK21ChiFeature2IdentifierP11ChiMetadata+0x70c>
0xb000 <_ZNK24ChiFeature2MCReprocessRT31OnPopulateConfigurationSettingsEP24ChiFeature2RequestObjectPK21ChiFeature2IdentifierP11ChiMetadata+0x718>
0x11000 <_ZNK24ChiFeature2MCReprocessRT31OnPopulateConfigurationSettingsEP24ChiFeature2RequestObjectPK21ChiFeature2IdentifierP11ChiMetadata+0x74c>
0xb000 <_ZNK24ChiFeature2MCReprocessRT31OnPopulateConfigurationSettingsEP24ChiFeature2RequestObjectPK21ChiFeature2IdentifierP11ChiMetadata+0x73c>
0x10000 <_ZNK24ChiFeature2MCReprocessRT31OnPopulateConfigurationSettingsEP24ChiFeature2RequestObjectPK21ChiFeature2IdentifierP11ChiMetadata+0x754>
0xb000 <_ZNK24ChiFeature2MCReprocessRT31OnPopulateConfigurationSettingsEP24ChiFeature2RequestObjectPK21ChiFeature2IdentifierP11ChiMetadata+0x744>
<_ZN6ChiLog9LogSystemEPKcS1_S1_S1_iS1_z@plt>
<_ZNK24ChiFeature2MCReprocessRT31OnPopulateConfigurationSettingsEP24ChiFeature2RequestObjectPK21ChiFeature2IdentifierP11ChiMetadata+0x4d8>
<_ZNK24ChiFeature2MCReprocessRT31OnPopulateConfigurationSettingsEP24ChiFeature2RequestObjectPK21ChiFeature2IdentifierP11ChiMetadata+0x14c0>
0x292e0 <_ZNK24ChiFeature2MCReprocessRT31OnPopulateConfigurationSettingsEP24ChiFeature2RequestObjectPK21ChiFeature2IdentifierP11ChiMetadata+0x14b8>
<_ZNK24ChiFeature2MCReprocessRT31OnPopulateConfigurationSettingsEP24ChiFeature2RequestObjectPK21ChiFeature2IdentifierP11ChiMetadata+0x830>
0x2865c <_ZNK24ChiFeature2MCReprocessRT31OnPopulateConfigurationSettingsEP24ChiFeature2RequestObjectPK21ChiFeature2IdentifierP11ChiMetadata+0x834>
<_ZNK24ChiFeature2MCReprocessRT31OnPopulateConfigurationSettingsEP24ChiFeature2RequestObjectPK21ChiFeature2IdentifierP11ChiMetadata+0x848>
<_ZNK24ChiFeature2MCReprocessRT31OnPopulateConfigurationSettingsEP24ChiFeature2RequestObjectPK21ChiFeature2IdentifierP11ChiMetadata+0x874>
<_ZNK24ChiFeature2MCReprocessRT31OnPopulateConfigurationSettingsEP24ChiFeature2RequestObjectPK21ChiFeature2IdentifierP11ChiMetadata+0x14b4>
0x286c4 <_ZNK24ChiFeature2MCReprocessRT31OnPopulateConfigurationSettingsEP24ChiFeature2RequestObjectPK21ChiFeature2IdentifierP11ChiMetadata+0x89c>
0x292dc <_ZNK24ChiFeature2MCReprocessRT31OnPopulateConfigurationSettingsEP24ChiFeature2RequestObjectPK21ChiFeature2IdentifierP11ChiMetadata+0x14b4>
0xf000 <_ZNK24ChiFeature2MCReprocessRT31OnPopulateConfigurationSettingsEP24ChiFeature2RequestObjectPK21ChiFeature2IdentifierP11ChiMetadata+0x85c>
0x10000 <_ZNK24ChiFeature2MCReprocessRT31OnPopulateConfigurationSettingsEP24ChiFeature2RequestObjectPK21ChiFeature2IdentifierP11ChiMetadata+0x864>
0x28790 <_ZNK24ChiFeature2MCReprocessRT31OnPopulateConfigurationSettingsEP24ChiFeature2RequestObjectPK21ChiFeature2IdentifierP11ChiMetadata+0x968>
<_ZNK24ChiFeature2MCReprocessRT31OnPopulateConfigurationSettingsEP24ChiFeature2RequestObjectPK21ChiFeature2IdentifierP11ChiMetadata+0x1b50>
<_ZNK24ChiFeature2MCReprocessRT31OnPopulateConfigurationSettingsEP24ChiFeature2RequestObjectPK21ChiFeature2IdentifierP11ChiMetadata+0x904>
0xe000 <_ZNK24ChiFeature2MCReprocessRT31OnPopulateConfigurationSettingsEP24ChiFeature2RequestObjectPK21ChiFeature2IdentifierP11ChiMetadata+0x8c0>
0xf000 <_ZNK24ChiFeature2MCReprocessRT31OnPopulateConfigurationSettingsEP24ChiFeature2RequestObjectPK21ChiFeature2IdentifierP11ChiMetadata+0x8c8>
0x28878 <_ZNK24ChiFeature2MCReprocessRT31OnPopulateConfigurationSettingsEP24ChiFeature2RequestObjectPK21ChiFeature2IdentifierP11ChiMetadata+0xa50>
<_ZNK24ChiFeature2MCReprocessRT31OnPopulateConfigurationSettingsEP24ChiFeature2RequestObjectPK21ChiFeature2IdentifierP11ChiMetadata+0x4cc>
<_ZNK24ChiFeature2MCReprocessRT31OnPopulateConfigurationSettingsEP24ChiFeature2RequestObjectPK21ChiFeature2IdentifierP11ChiMetadata+0x4d0>
0x45000 <_ZNK24ChiFeature2MCReprocessRT31OnPopulateConfigurationSettingsEP24ChiFeature2RequestObjectPK21ChiFeature2IdentifierP11ChiMetadata+0x9dc>
#0, 0x28958 <_ZNK24ChiFeature2MCReprocessRT31OnPopulateConfigurationSettingsEP24ChiFeature2RequestObjectPK21ChiFeature2IdentifierP11ChiMetadata+0xb30>
0x45000 <_ZNK24ChiFeature2MCReprocessRT31OnPopulateConfigurationSettingsEP24ChiFeature2RequestObjectPK21ChiFeature2IdentifierP11ChiMetadata+0x9ec>
<_ZNK24ChiFeature2MCReprocessRT31OnPopulateConfigurationSettingsEP24ChiFeature2RequestObjectPK21ChiFeature2IdentifierP11ChiMetadata+0x9f0>
0x11000 <_ZNK24ChiFeature2MCReprocessRT31OnPopulateConfigurationSettingsEP24ChiFeature2RequestObjectPK21ChiFeature2IdentifierP11ChiMetadata+0x930>
0x11000 <_ZNK24ChiFeature2MCReprocessRT31OnPopulateConfigurationSettingsEP24ChiFeature2RequestObjectPK21ChiFeature2IdentifierP11ChiMetadata+0x95c>
0xc000 <_ZNK24ChiFeature2MCReprocessRT31OnPopulateConfigurationSettingsEP24ChiFeature2RequestObjectPK21ChiFeature2IdentifierP11ChiMetadata+0x94c>
0xf000 <_ZNK24ChiFeature2MCReprocessRT31OnPopulateConfigurationSettingsEP24ChiFeature2RequestObjectPK21ChiFeature2IdentifierP11ChiMetadata+0x95c>
0x11000 <_ZNK24ChiFeature2MCReprocessRT31OnPopulateConfigurationSettingsEP24ChiFeature2RequestObjectPK21ChiFeature2IdentifierP11ChiMetadata+0x994>
0xb000 <_ZNK24ChiFeature2MCReprocessRT31OnPopulateConfigurationSettingsEP24ChiFeature2RequestObjectPK21ChiFeature2IdentifierP11ChiMetadata+0x9a8>
0x11000 <_ZNK24ChiFeature2MCReprocessRT31OnPopulateConfigurationSettingsEP24ChiFeature2RequestObjectPK21ChiFeature2IdentifierP11ChiMetadata+0x9c4>
0xf000 <_ZNK24ChiFeature2MCReprocessRT31OnPopulateConfigurationSettingsEP24ChiFeature2RequestObjectPK21ChiFeature2IdentifierP11ChiMetadata+0x9c0>
0xd000 <_ZNK24ChiFeature2MCReprocessRT31OnPopulateConfigurationSettingsEP24ChiFeature2RequestObjectPK21ChiFeature2IdentifierP11ChiMetadata+0x9bc>
<_ZNK24ChiFeature2MCReprocessRT31OnPopulateConfigurationSettingsEP24ChiFeature2RequestObjectPK21ChiFeature2IdentifierP11ChiMetadata+0xb2c>
0x45000 <_ZNK24ChiFeature2MCReprocessRT31OnPopulateConfigurationSettingsEP24ChiFeature2RequestObjectPK21ChiFeature2IdentifierP11ChiMetadata+0xac4>
#0, 0x28958 <_ZNK24ChiFeature2MCReprocessRT31OnPopulateConfigurationSettingsEP24ChiFeature2RequestObjectPK21ChiFeature2IdentifierP11ChiMetadata+0xb30>
0x45000 <_ZNK24ChiFeature2MCReprocessRT31OnPopulateConfigurationSettingsEP24ChiFeature2RequestObjectPK21ChiFeature2IdentifierP11ChiMetadata+0xad4>
<_ZNK24ChiFeature2MCReprocessRT31OnPopulateConfigurationSettingsEP24ChiFeature2RequestObjectPK21ChiFeature2IdentifierP11ChiMetadata+0xad0>
0x11000 <_ZNK24ChiFeature2MCReprocessRT31OnPopulateConfigurationSettingsEP24ChiFeature2RequestObjectPK21ChiFeature2IdentifierP11ChiMetadata+0xa18>
0x11000 <_ZNK24ChiFeature2MCReprocessRT31OnPopulateConfigurationSettingsEP24ChiFeature2RequestObjectPK21ChiFeature2IdentifierP11ChiMetadata+0xa3c>
0xf000 <_ZNK24ChiFeature2MCReprocessRT31OnPopulateConfigurationSettingsEP24ChiFeature2RequestObjectPK21ChiFeature2IdentifierP11ChiMetadata+0xa3c>
0xf000 <_ZNK24ChiFeature2MCReprocessRT31OnPopulateConfigurationSettingsEP24ChiFeature2RequestObjectPK21ChiFeature2IdentifierP11ChiMetadata+0xa40>
0x11000 <_ZNK24ChiFeature2MCReprocessRT31OnPopulateConfigurationSettingsEP24ChiFeature2RequestObjectPK21ChiFeature2IdentifierP11ChiMetadata+0xa74>
0xb000 <_ZNK24ChiFeature2MCReprocessRT31OnPopulateConfigurationSettingsEP24ChiFeature2RequestObjectPK21ChiFeature2IdentifierP11ChiMetadata+0xa88>
0x11000 <_ZNK24ChiFeature2MCReprocessRT31OnPopulateConfigurationSettingsEP24ChiFeature2RequestObjectPK21ChiFeature2IdentifierP11ChiMetadata+0xaa4>
0xf000 <_ZNK24ChiFeature2MCReprocessRT31OnPopulateConfigurationSettingsEP24ChiFeature2RequestObjectPK21ChiFeature2IdentifierP11ChiMetadata+0xaa0>
0xf000 <_ZNK24ChiFeature2MCReprocessRT31OnPopulateConfigurationSettingsEP24ChiFeature2RequestObjectPK21ChiFeature2IdentifierP11ChiMetadata+0xaa4>
<_ZN6ChiLog9LogSystemEPKcS1_S1_S1_iS1_z@plt>
<_ZNK24ChiFeature2MCReprocessRT31OnPopulateConfigurationSettingsEP24ChiFeature2RequestObjectPK21ChiFeature2IdentifierP11ChiMetadata+0x4d0>
<_ZNK24ChiFeature2MCReprocessRT31OnPopulateConfigurationSettingsEP24ChiFeature2RequestObjectPK21ChiFeature2IdentifierP11ChiMetadata+0x570>
0x289b4 <_ZNK24ChiFeature2MCReprocessRT31OnPopulateConfigurationSettingsEP24ChiFeature2RequestObjectPK21ChiFeature2IdentifierP11ChiMetadata+0xb8c>
<_ZNK24ChiFeature2MCReprocessRT31OnPopulateConfigurationSettingsEP24ChiFeature2RequestObjectPK21ChiFeature2IdentifierP11ChiMetadata+0xc6c>
0x28a94 <_ZNK24ChiFeature2MCReprocessRT31OnPopulateConfigurationSettingsEP24ChiFeature2RequestObjectPK21ChiFeature2IdentifierP11ChiMetadata+0xc6c>
<_ZNK24ChiFeature2MCReprocessRT31OnPopulateConfigurationSettingsEP24ChiFeature2RequestObjectPK21ChiFeature2IdentifierP11ChiMetadata+0xc6c>
<_ZNK24ChiFeature2MCReprocessRT31OnPopulateConfigurationSettingsEP24ChiFeature2RequestObjectPK21ChiFeature2IdentifierP11ChiMetadata+0xc6c>
0x28a20 <_ZNK24ChiFeature2MCReprocessRT31OnPopulateConfigurationSettingsEP24ChiFeature2RequestObjectPK21ChiFeature2IdentifierP11ChiMetadata+0xbf8>
<_ZN18ChiMcxStaticPolicy25UpdateRecommendedSettingsEjRNSt3__16vectorIP11ChiMetadataNS0_9allocatorIS3_EEEERNS1_IjNS4_IjEEEERS2_Rj@plt>
<_ZN11ChiMetadata24MergeMultiCameraMetadataEjPPS_Pjj@plt>
<_ZNK24ChiFeature2MCReprocessRT31OnPopulateConfigurationSettingsEP24ChiFeature2RequestObjectPK21ChiFeature2IdentifierP11ChiMetadata+0xeac>
<_ZNK24ChiFeature2MCReprocessRT31OnPopulateConfigurationSettingsEP24ChiFeature2RequestObjectPK21ChiFeature2IdentifierP11ChiMetadata+0xecc>
0x28e0c <_ZNK24ChiFeature2MCReprocessRT31OnPopulateConfigurationSettingsEP24ChiFeature2RequestObjectPK21ChiFeature2IdentifierP11ChiMetadata+0xfe4>
<_ZNK24ChiFeature2MCReprocessRT31OnPopulateConfigurationSettingsEP24ChiFeature2RequestObjectPK21ChiFeature2IdentifierP11ChiMetadata+0xee4>
#6, 0x28d2c <_ZNK24ChiFeature2MCReprocessRT31OnPopulateConfigurationSettingsEP24ChiFeature2RequestObjectPK21ChiFeature2IdentifierP11ChiMetadata+0xf04>
<_ZNK24ChiFeature2MCReprocessRT31OnPopulateConfigurationSettingsEP24ChiFeature2RequestObjectPK21ChiFeature2IdentifierP11ChiMetadata+0x1458>
#5, 0x28d30 <_ZNK24ChiFeature2MCReprocessRT31OnPopulateConfigurationSettingsEP24ChiFeature2RequestObjectPK21ChiFeature2IdentifierP11ChiMetadata+0xf08>
<_ZNK24ChiFeature2MCReprocessRT31OnPopulateConfigurationSettingsEP24ChiFeature2RequestObjectPK21ChiFeature2IdentifierP11ChiMetadata+0xfe4>
0x45000 <_ZNK24ChiFeature2MCReprocessRT31OnPopulateConfigurationSettingsEP24ChiFeature2RequestObjectPK21ChiFeature2IdentifierP11ChiMetadata+0xce0>
#0, 0x28f98 <_ZNK24ChiFeature2MCReprocessRT31OnPopulateConfigurationSettingsEP24ChiFeature2RequestObjectPK21ChiFeature2IdentifierP11ChiMetadata+0x1170>
0x45000 <_ZNK24ChiFeature2MCReprocessRT31OnPopulateConfigurationSettingsEP24ChiFeature2RequestObjectPK21ChiFeature2IdentifierP11ChiMetadata+0xcf0>
<_ZNK24ChiFeature2MCReprocessRT31OnPopulateConfigurationSettingsEP24ChiFeature2RequestObjectPK21ChiFeature2IdentifierP11ChiMetadata+0xcf4>
0x11000 <_ZNK24ChiFeature2MCReprocessRT31OnPopulateConfigurationSettingsEP24ChiFeature2RequestObjectPK21ChiFeature2IdentifierP11ChiMetadata+0xc38>
0x11000 <_ZNK24ChiFeature2MCReprocessRT31OnPopulateConfigurationSettingsEP24ChiFeature2RequestObjectPK21ChiFeature2IdentifierP11ChiMetadata+0xc58>
0xb000 <_ZNK24ChiFeature2MCReprocessRT31OnPopulateConfigurationSettingsEP24ChiFeature2RequestObjectPK21ChiFeature2IdentifierP11ChiMetadata+0xc48>
0xf000 <_ZNK24ChiFeature2MCReprocessRT31OnPopulateConfigurationSettingsEP24ChiFeature2RequestObjectPK21ChiFeature2IdentifierP11ChiMetadata+0xc5c>
0x11000 <_ZNK24ChiFeature2MCReprocessRT31OnPopulateConfigurationSettingsEP24ChiFeature2RequestObjectPK21ChiFeature2IdentifierP11ChiMetadata+0xc98>
0x11000 <_ZNK24ChiFeature2MCReprocessRT31OnPopulateConfigurationSettingsEP24ChiFeature2RequestObjectPK21ChiFeature2IdentifierP11ChiMetadata+0xcb8>
0xb000 <_ZNK24ChiFeature2MCReprocessRT31OnPopulateConfigurationSettingsEP24ChiFeature2RequestObjectPK21ChiFeature2IdentifierP11ChiMetadata+0xcac>
0xf000 <_ZNK24ChiFeature2MCReprocessRT31OnPopulateConfigurationSettingsEP24ChiFeature2RequestObjectPK21ChiFeature2IdentifierP11ChiMetadata+0xcc4>
0x10000 <_ZNK24ChiFeature2MCReprocessRT31OnPopulateConfigurationSettingsEP24ChiFeature2RequestObjectPK21ChiFeature2IdentifierP11ChiMetadata+0xccc>
<_ZN6ChiLog9LogSystemEPKcS1_S1_S1_iS1_z@plt>
0x28fa0 <_ZNK24ChiFeature2MCReprocessRT31OnPopulateConfigurationSettingsEP24ChiFeature2RequestObjectPK21ChiFeature2IdentifierP11ChiMetadata+0x1178>
<_ZNK24ChiFeature2MCReprocessRT31OnPopulateConfigurationSettingsEP24ChiFeature2RequestObjectPK21ChiFeature2IdentifierP11ChiMetadata+0x1194>
<_ZNK24ChiFeature2MCReprocessRT31OnPopulateConfigurationSettingsEP24ChiFeature2RequestObjectPK21ChiFeature2IdentifierP11ChiMetadata+0x6c>
<_ZNK24ChiFeature2MCReprocessRT31OnPopulateConfigurationSettingsEP24ChiFeature2RequestObjectPK21ChiFeature2IdentifierP11ChiMetadata+0x1a8>
<_ZNK24ChiFeature2MCReprocessRT31OnPopulateConfigurationSettingsEP24ChiFeature2RequestObjectPK21ChiFeature2IdentifierP11ChiMetadata+0xe0>
<_ZNK24ChiFeature2MCReprocessRT31OnPopulateConfigurationSettingsEP24ChiFeature2RequestObjectPK21ChiFeature2IdentifierP11ChiMetadata+0x250>
<_ZNK24ChiFeature2MCReprocessRT31OnPopulateConfigurationSettingsEP24ChiFeature2RequestObjectPK21ChiFeature2IdentifierP11ChiMetadata+0x2b4>
<_ZNK24ChiFeature2MCReprocessRT31OnPopulateConfigurationSettingsEP24ChiFeature2RequestObjectPK21ChiFeature2IdentifierP11ChiMetadata+0x1e0>
<_ZNK24ChiFeature2MCReprocessRT31OnPopulateConfigurationSettingsEP24ChiFeature2RequestObjectPK21ChiFeature2IdentifierP11ChiMetadata+0x330>
0x28160 <_ZNK24ChiFeature2MCReprocessRT31OnPopulateConfigurationSettingsEP24ChiFeature2RequestObjectPK21ChiFeature2IdentifierP11ChiMetadata+0x338>
<_ZNK24ChiFeature2MCReprocessRT31OnPopulateConfigurationSettingsEP24ChiFeature2RequestObjectPK21ChiFeature2IdentifierP11ChiMetadata+0x384>
<_ZNK24ChiFeature2MCReprocessRT31OnPopulateConfigurationSettingsEP24ChiFeature2RequestObjectPK21ChiFeature2IdentifierP11ChiMetadata+0x3f4>
#6, 0x28178 <_ZNK24ChiFeature2MCReprocessRT31OnPopulateConfigurationSettingsEP24ChiFeature2RequestObjectPK21ChiFeature2IdentifierP11ChiMetadata+0x350>
<_ZNK24ChiFeature2MCReprocessRT31OnPopulateConfigurationSettingsEP24ChiFeature2RequestObjectPK21ChiFeature2IdentifierP11ChiMetadata+0x364>
<_ZNK24ChiFeature2MCReprocessRT31OnPopulateConfigurationSettingsEP24ChiFeature2RequestObjectPK21ChiFeature2IdentifierP11ChiMetadata+0x374>
#5, 0x2818c <_ZNK24ChiFeature2MCReprocessRT31OnPopulateConfigurationSettingsEP24ChiFeature2RequestObjectPK21ChiFeature2IdentifierP11ChiMetadata+0x364>
<_ZNK24ChiFeature2MCReprocessRT31OnPopulateConfigurationSettingsEP24ChiFeature2RequestObjectPK21ChiFeature2IdentifierP11ChiMetadata+0x384>
<_ZNK24ChiFeature2MCReprocessRT31OnPopulateConfigurationSettingsEP24ChiFeature2RequestObjectPK21ChiFeature2IdentifierP11ChiMetadata+0xc24>
<_ZNK24ChiFeature2MCReprocessRT31OnPopulateConfigurationSettingsEP24ChiFeature2RequestObjectPK21ChiFeature2IdentifierP11ChiMetadata+0xc24>
#6, 0x28a74 <_ZNK24ChiFeature2MCReprocessRT31OnPopulateConfigurationSettingsEP24ChiFeature2RequestObjectPK21ChiFeature2IdentifierP11ChiMetadata+0xc4c>
<_ZNK24ChiFeature2MCReprocessRT31OnPopulateConfigurationSettingsEP24ChiFeature2RequestObjectPK21ChiFeature2IdentifierP11ChiMetadata+0x1434>
#0, 0x28e0c <_ZNK24ChiFeature2MCReprocessRT31OnPopulateConfigurationSettingsEP24ChiFeature2RequestObjectPK21ChiFeature2IdentifierP11ChiMetadata+0xfe4>
<_ZNK24ChiFeature2RequestObject23GetUsecaseRequestObjectEv@plt>
<_ZNK24ChiFeature2MCReprocessRT31OnPopulateConfigurationSettingsEP24ChiFeature2RequestObjectPK21ChiFeature2IdentifierP11ChiMetadata+0x1480>
<_ZNK15ChiFeature2Base18GetSensorModeIndexEPK21ChiFeature2IdentifierP11ChiMetadata@plt>
0x10000 <_ZNK24ChiFeature2MCReprocessRT31OnPopulateConfigurationSettingsEP24ChiFeature2RequestObjectPK21ChiFeature2IdentifierP11ChiMetadata+0xf44>
0xe000 <_ZNK24ChiFeature2MCReprocessRT31OnPopulateConfigurationSettingsEP24ChiFeature2RequestObjectPK21ChiFeature2IdentifierP11ChiMetadata+0xf40>
<_ZN8ChxUtils18FillTuningModeDataEP11ChiMetadata25ChiModeUsecaseSubModeTypejPjS3_S3_S3_@plt>
<_ZNK24ChiFeature2RequestObject23GetUsecaseRequestObjectEv@plt>
<_ZN16ChiFeature2Utils21FillInputZoomMetadataERK17LogicalCameraInfoRNSt3__16vectorIP11ChiMetadataNS3_9allocatorIS6_EEEER24InputMetadataOpticalZoom@plt>
<_ZNK24ChiFeature2MCReprocessRT31OnPopulateConfigurationSettingsEP24ChiFeature2RequestObjectPK21ChiFeature2IdentifierP11ChiMetadata+0x141c>
0x28f88 <_ZNK24ChiFeature2MCReprocessRT31OnPopulateConfigurationSettingsEP24ChiFeature2RequestObjectPK21ChiFeature2IdentifierP11ChiMetadata+0x1160>
0x28f08 <_ZNK24ChiFeature2MCReprocessRT31OnPopulateConfigurationSettingsEP24ChiFeature2RequestObjectPK21ChiFeature2IdentifierP11ChiMetadata+0x10e0>
0xd000 <_ZNK24ChiFeature2MCReprocessRT31OnPopulateConfigurationSettingsEP24ChiFeature2RequestObjectPK21ChiFeature2IdentifierP11ChiMetadata+0x1050>
0xe000 <_ZNK24ChiFeature2MCReprocessRT31OnPopulateConfigurationSettingsEP24ChiFeature2RequestObjectPK21ChiFeature2IdentifierP11ChiMetadata+0x1058>
<_ZNK24ChiFeature2MCReprocessRT31OnPopulateConfigurationSettingsEP24ChiFeature2RequestObjectPK21ChiFeature2IdentifierP11ChiMetadata+0x1128>
0xd000 <_ZNK24ChiFeature2MCReprocessRT31OnPopulateConfigurationSettingsEP24ChiFeature2RequestObjectPK21ChiFeature2IdentifierP11ChiMetadata+0x1098>
0xc000 <_ZNK24ChiFeature2MCReprocessRT31OnPopulateConfigurationSettingsEP24ChiFeature2RequestObjectPK21ChiFeature2IdentifierP11ChiMetadata+0x1098>
0x28f88 <_ZNK24ChiFeature2MCReprocessRT31OnPopulateConfigurationSettingsEP24ChiFeature2RequestObjectPK21ChiFeature2IdentifierP11ChiMetadata+0x1160>
0x29178 <_ZNK24ChiFeature2MCReprocessRT31OnPopulateConfigurationSettingsEP24ChiFeature2RequestObjectPK21ChiFeature2IdentifierP11ChiMetadata+0x1350>
<_ZNK24ChiFeature2MCReprocessRT31OnPopulateConfigurationSettingsEP24ChiFeature2RequestObjectPK21ChiFeature2IdentifierP11ChiMetadata+0x1498>
<_ZN16ChiFeature2Utils27TranslateZoomRatioToRegionsEP24ChiFeature2RequestObjectP11ChiMetadataPK17LogicalCameraInfoP19ChiMcxRoiTranslator@plt>
0x28fbc <_ZNK24ChiFeature2MCReprocessRT31OnPopulateConfigurationSettingsEP24ChiFeature2RequestObjectPK21ChiFeature2IdentifierP11ChiMetadata+0x1194>
0x292dc <_ZNK24ChiFeature2MCReprocessRT31OnPopulateConfigurationSettingsEP24ChiFeature2RequestObjectPK21ChiFeature2IdentifierP11ChiMetadata+0x14b4>
0x28fe0 <_ZNK24ChiFeature2MCReprocessRT31OnPopulateConfigurationSettingsEP24ChiFeature2RequestObjectPK21ChiFeature2IdentifierP11ChiMetadata+0x11b8>
0x292dc <_ZNK24ChiFeature2MCReprocessRT31OnPopulateConfigurationSettingsEP24ChiFeature2RequestObjectPK21ChiFeature2IdentifierP11ChiMetadata+0x14b4>
0x290c4 <_ZNK24ChiFeature2MCReprocessRT31OnPopulateConfigurationSettingsEP24ChiFeature2RequestObjectPK21ChiFeature2IdentifierP11ChiMetadata+0x129c>
<_ZNK24ChiFeature2MCReprocessRT31OnPopulateConfigurationSettingsEP24ChiFeature2RequestObjectPK21ChiFeature2IdentifierP11ChiMetadata+0x1370>
<_ZNK24ChiFeature2MCReprocessRT31OnPopulateConfigurationSettingsEP24ChiFeature2RequestObjectPK21ChiFeature2IdentifierP11ChiMetadata+0x1390>
0x29058 <_ZNK24ChiFeature2MCReprocessRT31OnPopulateConfigurationSettingsEP24ChiFeature2RequestObjectPK21ChiFeature2IdentifierP11ChiMetadata+0x1230>
<_ZNK24ChiFeature2MCReprocessRT31OnPopulateConfigurationSettingsEP24ChiFeature2RequestObjectPK21ChiFeature2IdentifierP11ChiMetadata+0x13b0>
#6, 0x29030 <_ZNK24ChiFeature2MCReprocessRT31OnPopulateConfigurationSettingsEP24ChiFeature2RequestObjectPK21ChiFeature2IdentifierP11ChiMetadata+0x1208>
<_ZNK24ChiFeature2MCReprocessRT31OnPopulateConfigurationSettingsEP24ChiFeature2RequestObjectPK21ChiFeature2IdentifierP11ChiMetadata+0x13f8>
#5, 0x29058 <_ZNK24ChiFeature2MCReprocessRT31OnPopulateConfigurationSettingsEP24ChiFeature2RequestObjectPK21ChiFeature2IdentifierP11ChiMetadata+0x1230>
<_ZNK24ChiFeature2MCReprocessRT31OnPopulateConfigurationSettingsEP24ChiFeature2RequestObjectPK21ChiFeature2IdentifierP11ChiMetadata+0x13d4>
#0, 0x29058 <_ZNK24ChiFeature2MCReprocessRT31OnPopulateConfigurationSettingsEP24ChiFeature2RequestObjectPK21ChiFeature2IdentifierP11ChiMetadata+0x1230>
0x11000 <_ZNK24ChiFeature2MCReprocessRT31OnPopulateConfigurationSettingsEP24ChiFeature2RequestObjectPK21ChiFeature2IdentifierP11ChiMetadata+0x11e4>
0xb000 <_ZNK24ChiFeature2MCReprocessRT31OnPopulateConfigurationSettingsEP24ChiFeature2RequestObjectPK21ChiFeature2IdentifierP11ChiMetadata+0x11d0>
<_ZNK24ChiFeature2MCReprocessRT31OnPopulateConfigurationSettingsEP24ChiFeature2RequestObjectPK21ChiFeature2IdentifierP11ChiMetadata+0x14b0>
0x45000 <_ZNK24ChiFeature2MCReprocessRT31OnPopulateConfigurationSettingsEP24ChiFeature2RequestObjectPK21ChiFeature2IdentifierP11ChiMetadata+0x130c>
#0, 0x2908c <_ZNK24ChiFeature2MCReprocessRT31OnPopulateConfigurationSettingsEP24ChiFeature2RequestObjectPK21ChiFeature2IdentifierP11ChiMetadata+0x1264>
0x45000 <_ZNK24ChiFeature2MCReprocessRT31OnPopulateConfigurationSettingsEP24ChiFeature2RequestObjectPK21ChiFeature2IdentifierP11ChiMetadata+0x131c>
<_ZNK24ChiFeature2MCReprocessRT31OnPopulateConfigurationSettingsEP24ChiFeature2RequestObjectPK21ChiFeature2IdentifierP11ChiMetadata+0x1304>
0x11000 <_ZNK24ChiFeature2MCReprocessRT31OnPopulateConfigurationSettingsEP24ChiFeature2RequestObjectPK21ChiFeature2IdentifierP11ChiMetadata+0x1260>
0x11000 <_ZNK24ChiFeature2MCReprocessRT31OnPopulateConfigurationSettingsEP24ChiFeature2RequestObjectPK21ChiFeature2IdentifierP11ChiMetadata+0x127c>
0x10000 <_ZNK24ChiFeature2MCReprocessRT31OnPopulateConfigurationSettingsEP24ChiFeature2RequestObjectPK21ChiFeature2IdentifierP11ChiMetadata+0x127c>
0xf000 <_ZNK24ChiFeature2MCReprocessRT31OnPopulateConfigurationSettingsEP24ChiFeature2RequestObjectPK21ChiFeature2IdentifierP11ChiMetadata+0x127c>
0x11000 <_ZNK24ChiFeature2MCReprocessRT31OnPopulateConfigurationSettingsEP24ChiFeature2RequestObjectPK21ChiFeature2IdentifierP11ChiMetadata+0x12a4>
0x11000 <_ZNK24ChiFeature2MCReprocessRT31OnPopulateConfigurationSettingsEP24ChiFeature2RequestObjectPK21ChiFeature2IdentifierP11ChiMetadata+0x12c0>
0xb000 <_ZNK24ChiFeature2MCReprocessRT31OnPopulateConfigurationSettingsEP24ChiFeature2RequestObjectPK21ChiFeature2IdentifierP11ChiMetadata+0x12b0>
0xf000 <_ZNK24ChiFeature2MCReprocessRT31OnPopulateConfigurationSettingsEP24ChiFeature2RequestObjectPK21ChiFeature2IdentifierP11ChiMetadata+0x12c4>
0xd000 <_ZNK24ChiFeature2MCReprocessRT31OnPopulateConfigurationSettingsEP24ChiFeature2RequestObjectPK21ChiFeature2IdentifierP11ChiMetadata+0x12c0>
<_ZN6ChiLog9LogSystemEPKcS1_S1_S1_iS1_z@plt>
<_ZNK24ChiFeature2MCReprocessRT31OnPopulateConfigurationSettingsEP24ChiFeature2RequestObjectPK21ChiFeature2IdentifierP11ChiMetadata+0x1264>
0x28fa0 <_ZNK24ChiFeature2MCReprocessRT31OnPopulateConfigurationSettingsEP24ChiFeature2RequestObjectPK21ChiFeature2IdentifierP11ChiMetadata+0x1178>
<_ZNK24ChiFeature2MCReprocessRT31OnPopulateConfigurationSettingsEP24ChiFeature2RequestObjectPK21ChiFeature2IdentifierP11ChiMetadata+0x1194>
<_ZNK24ChiFeature2MCReprocessRT31OnPopulateConfigurationSettingsEP24ChiFeature2RequestObjectPK21ChiFeature2IdentifierP11ChiMetadata+0x11d4>
0x29004 <_ZNK24ChiFeature2MCReprocessRT31OnPopulateConfigurationSettingsEP24ChiFeature2RequestObjectPK21ChiFeature2IdentifierP11ChiMetadata+0x11dc>
<_ZNK24ChiFeature2MCReprocessRT31OnPopulateConfigurationSettingsEP24ChiFeature2RequestObjectPK21ChiFeature2IdentifierP11ChiMetadata+0x1230>
#6, 0x2901c <_ZNK24ChiFeature2MCReprocessRT31OnPopulateConfigurationSettingsEP24ChiFeature2RequestObjectPK21ChiFeature2IdentifierP11ChiMetadata+0x11f4>
<_ZNK24ChiFeature2MCReprocessRT31OnPopulateConfigurationSettingsEP24ChiFeature2RequestObjectPK21ChiFeature2IdentifierP11ChiMetadata+0x1208>
#0, 0x29048 <_ZNK24ChiFeature2MCReprocessRT31OnPopulateConfigurationSettingsEP24ChiFeature2RequestObjectPK21ChiFeature2IdentifierP11ChiMetadata+0x1220>
<_ZNK24ChiFeature2MCReprocessRT31OnPopulateConfigurationSettingsEP24ChiFeature2RequestObjectPK21ChiFeature2IdentifierP11ChiMetadata+0x1230>
#5, 0x29030 <_ZNK24ChiFeature2MCReprocessRT31OnPopulateConfigurationSettingsEP24ChiFeature2RequestObjectPK21ChiFeature2IdentifierP11ChiMetadata+0x1208>
<_ZNK24ChiFeature2MCReprocessRT31OnPopulateConfigurationSettingsEP24ChiFeature2RequestObjectPK21ChiFeature2IdentifierP11ChiMetadata+0x1230>
<_ZNK24ChiFeature2MCReprocessRT31OnPopulateConfigurationSettingsEP24ChiFeature2RequestObjectPK21ChiFeature2IdentifierP11ChiMetadata+0x104c>
#0, 0x28d4c <_ZNK24ChiFeature2MCReprocessRT31OnPopulateConfigurationSettingsEP24ChiFeature2RequestObjectPK21ChiFeature2IdentifierP11ChiMetadata+0xf24>
<_ZNK24ChiFeature2MCReprocessRT31OnPopulateConfigurationSettingsEP24ChiFeature2RequestObjectPK21ChiFeature2IdentifierP11ChiMetadata+0xfe4>
#5, 0x28d30 <_ZNK24ChiFeature2MCReprocessRT31OnPopulateConfigurationSettingsEP24ChiFeature2RequestObjectPK21ChiFeature2IdentifierP11ChiMetadata+0xf08>
<_ZNK24ChiFeature2MCReprocessRT31OnPopulateConfigurationSettingsEP24ChiFeature2RequestObjectPK21ChiFeature2IdentifierP11ChiMetadata+0xfe4>
<_ZNK24ChiFeature2MCReprocessRT31OnPopulateConfigurationSettingsEP24ChiFeature2RequestObjectPK21ChiFeature2IdentifierP11ChiMetadata+0xf70>
<_ZNK24ChiFeature2MCReprocessRT31OnPopulateConfigurationSettingsEP24ChiFeature2RequestObjectPK21ChiFeature2IdentifierP11ChiMetadata+0x1148>
<_ZNKSt3__120__vector_base_commonILb1EE20__throw_length_errorEv@plt>
<_ZNK24ChiFeature2RequestObject23GetUsecaseRequestObjectEv@plt>
<_ZNK24ChiFeature2MCReprocessRT31OnPopulateConfigurationSettingsEP24ChiFeature2RequestObjectPK21ChiFeature2IdentifierP11ChiMetadata+0x1850>
<_ZNK24ChiFeature2RequestObject19GetCurrentStageInfoEP20ChiFeature2StageInfoh@plt>
0x2967c <_ZNK24ChiFeature2MCReprocessRT31OnPopulateConfigurationSettingsEP24ChiFeature2RequestObjectPK21ChiFeature2IdentifierP11ChiMetadata+0x1854>
0x44000 <_ZNK24ChiFeature2MCReprocessRT31OnPopulateConfigurationSettingsEP24ChiFeature2RequestObjectPK21ChiFeature2IdentifierP11ChiMetadata+0x15c0>
<_ZNK24ChiFeature2MCReprocessRT31OnPopulateConfigurationSettingsEP24ChiFeature2RequestObjectPK21ChiFeature2IdentifierP11ChiMetadata+0x1888>
<_ZNK24ChiFeature2MCReprocessRT31OnPopulateConfigurationSettingsEP24ChiFeature2RequestObjectPK21ChiFeature2IdentifierP11ChiMetadata+0x19e0>
0x2967c <_ZNK24ChiFeature2MCReprocessRT31OnPopulateConfigurationSettingsEP24ChiFeature2RequestObjectPK21ChiFeature2IdentifierP11ChiMetadata+0x1854>
0x44000 <_ZNK24ChiFeature2MCReprocessRT31OnPopulateConfigurationSettingsEP24ChiFeature2RequestObjectPK21ChiFeature2IdentifierP11ChiMetadata+0x15f0>
0x2967c <_ZNK24ChiFeature2MCReprocessRT31OnPopulateConfigurationSettingsEP24ChiFeature2RequestObjectPK21ChiFeature2IdentifierP11ChiMetadata+0x1854>
<_ZNK24ChiFeature2MCReprocessRT31OnPopulateConfigurationSettingsEP24ChiFeature2RequestObjectPK21ChiFeature2IdentifierP11ChiMetadata+0x15ec>
0x44000 <_ZNK24ChiFeature2MCReprocessRT31OnPopulateConfigurationSettingsEP24ChiFeature2RequestObjectPK21ChiFeature2IdentifierP11ChiMetadata+0x162c>
<_ZNK24ChiFeature2MCReprocessRT31OnPopulateConfigurationSettingsEP24ChiFeature2RequestObjectPK21ChiFeature2IdentifierP11ChiMetadata+0x1854>
<_ZNK24ChiFeature2MCReprocessRT31OnPopulateConfigurationSettingsEP24ChiFeature2RequestObjectPK21ChiFeature2IdentifierP11ChiMetadata+0x1774>
<_ZNK24ChiFeature2MCReprocessRT31OnPopulateConfigurationSettingsEP24ChiFeature2RequestObjectPK21ChiFeature2IdentifierP11ChiMetadata+0x17a0>
<_ZNK24ChiFeature2MCReprocessRT31OnPopulateConfigurationSettingsEP24ChiFeature2RequestObjectPK21ChiFeature2IdentifierP11ChiMetadata+0x17d8>
0x29400 <_ZNK24ChiFeature2MCReprocessRT31OnPopulateConfigurationSettingsEP24ChiFeature2RequestObjectPK21ChiFeature2IdentifierP11ChiMetadata+0x15d8>
<_ZNK24ChiFeature2MCReprocessRT31OnPopulateConfigurationSettingsEP24ChiFeature2RequestObjectPK21ChiFeature2IdentifierP11ChiMetadata+0x15d8>
0x29400 <_ZNK24ChiFeature2MCReprocessRT31OnPopulateConfigurationSettingsEP24ChiFeature2RequestObjectPK21ChiFeature2IdentifierP11ChiMetadata+0x15d8>
<_ZNK24ChiFeature2MCReprocessRT31OnPopulateConfigurationSettingsEP24ChiFeature2RequestObjectPK21ChiFeature2IdentifierP11ChiMetadata+0x15d8>
0x29400 <_ZNK24ChiFeature2MCReprocessRT31OnPopulateConfigurationSettingsEP24ChiFeature2RequestObjectPK21ChiFeature2IdentifierP11ChiMetadata+0x15d8>
<_ZNK24ChiFeature2MCReprocessRT31OnPopulateConfigurationSettingsEP24ChiFeature2RequestObjectPK21ChiFeature2IdentifierP11ChiMetadata+0x1680>
<_ZNK24ChiFeature2MCReprocessRT31OnPopulateConfigurationSettingsEP24ChiFeature2RequestObjectPK21ChiFeature2IdentifierP11ChiMetadata+0x15d8>
<_ZNK24ChiFeature2MCReprocessRT31OnPopulateConfigurationSettingsEP24ChiFeature2RequestObjectPK21ChiFeature2IdentifierP11ChiMetadata+0x169c>
<_ZNK24ChiFeature2MCReprocessRT31OnPopulateConfigurationSettingsEP24ChiFeature2RequestObjectPK21ChiFeature2IdentifierP11ChiMetadata+0x15d8>
0x29400 <_ZNK24ChiFeature2MCReprocessRT31OnPopulateConfigurationSettingsEP24ChiFeature2RequestObjectPK21ChiFeature2IdentifierP11ChiMetadata+0x15d8>
<_ZNK24ChiFeature2MCReprocessRT31OnPopulateConfigurationSettingsEP24ChiFeature2RequestObjectPK21ChiFeature2IdentifierP11ChiMetadata+0x1804>
0x293e8 <_ZNK24ChiFeature2MCReprocessRT31OnPopulateConfigurationSettingsEP24ChiFeature2RequestObjectPK21ChiFeature2IdentifierP11ChiMetadata+0x15c0>
0x293e8 <_ZNK24ChiFeature2MCReprocessRT31OnPopulateConfigurationSettingsEP24ChiFeature2RequestObjectPK21ChiFeature2IdentifierP11ChiMetadata+0x15c0>
<_ZNK24ChiFeature2RequestObject13GetBufferInfoE31ChiFeature2RequestObjectOpsTypePK21ChiFeature2IdentifierPPvPmhh@plt>
0x44000 <_ZNK24ChiFeature2MCReprocessRT31OnPopulateConfigurationSettingsEP24ChiFeature2RequestObjectPK21ChiFeature2IdentifierP11ChiMetadata+0x178c>
0x293f0 <_ZNK24ChiFeature2MCReprocessRT31OnPopulateConfigurationSettingsEP24ChiFeature2RequestObjectPK21ChiFeature2IdentifierP11ChiMetadata+0x15c8>
<_ZNK24ChiFeature2MCReprocessRT31OnPopulateConfigurationSettingsEP24ChiFeature2RequestObjectPK21ChiFeature2IdentifierP11ChiMetadata+0x1830>
<_ZNK24ChiFeature2MCReprocessRT31OnPopulateConfigurationSettingsEP24ChiFeature2RequestObjectPK21ChiFeature2IdentifierP11ChiMetadata+0x1850>
<_ZNK24ChiFeature2MCReprocessRT31OnPopulateConfigurationSettingsEP24ChiFeature2RequestObjectPK21ChiFeature2IdentifierP11ChiMetadata+0x15c8>
0x44000 <_ZNK24ChiFeature2MCReprocessRT31OnPopulateConfigurationSettingsEP24ChiFeature2RequestObjectPK21ChiFeature2IdentifierP11ChiMetadata+0x17f8>
<_ZNK24ChiFeature2MCReprocessRT31OnPopulateConfigurationSettingsEP24ChiFeature2RequestObjectPK21ChiFeature2IdentifierP11ChiMetadata+0x15f8>
0x44000 <_ZNK24ChiFeature2MCReprocessRT31OnPopulateConfigurationSettingsEP24ChiFeature2RequestObjectPK21ChiFeature2IdentifierP11ChiMetadata+0x1824>
<_ZNK24ChiFeature2MCReprocessRT31OnPopulateConfigurationSettingsEP24ChiFeature2RequestObjectPK21ChiFeature2IdentifierP11ChiMetadata+0x1610>
0x44000 <_ZNK24ChiFeature2MCReprocessRT31OnPopulateConfigurationSettingsEP24ChiFeature2RequestObjectPK21ChiFeature2IdentifierP11ChiMetadata+0x185c>
0x2943c <_ZNK24ChiFeature2MCReprocessRT31OnPopulateConfigurationSettingsEP24ChiFeature2RequestObjectPK21ChiFeature2IdentifierP11ChiMetadata+0x1614>
<_ZNK24ChiFeature2MCReprocessRT31OnPopulateConfigurationSettingsEP24ChiFeature2RequestObjectPK21ChiFeature2IdentifierP11ChiMetadata+0x15d8>
<_ZNK24ChiFeature2MCReprocessRT31OnPopulateConfigurationSettingsEP24ChiFeature2RequestObjectPK21ChiFeature2IdentifierP11ChiMetadata+0x16c4>
0x44000 <_ZNK24ChiFeature2MCReprocessRT31OnPopulateConfigurationSettingsEP24ChiFeature2RequestObjectPK21ChiFeature2IdentifierP11ChiMetadata+0x18b0>
<_ZNK24ChiFeature2MCReprocessRT31OnPopulateConfigurationSettingsEP24ChiFeature2RequestObjectPK21ChiFeature2IdentifierP11ChiMetadata+0x173c>
<_ZNK24ChiFeature2MCReprocessRT31OnPopulateConfigurationSettingsEP24ChiFeature2RequestObjectPK21ChiFeature2IdentifierP11ChiMetadata+0x18a0>
<_ZNK24ChiFeature2MCReprocessRT31OnPopulateConfigurationSettingsEP24ChiFeature2RequestObjectPK21ChiFeature2IdentifierP11ChiMetadata+0x1568>
<_ZNK24ChiFeature2MCReprocessRT31OnPopulateConfigurationSettingsEP24ChiFeature2RequestObjectPK21ChiFeature2IdentifierP11ChiMetadata+0x18d4>
<_ZNK24ChiFeature2MCReprocessRT31OnPopulateConfigurationSettingsEP24ChiFeature2RequestObjectPK21ChiFeature2IdentifierP11ChiMetadata+0x19a4>
0x44000 <_ZNK24ChiFeature2MCReprocessRT31OnPopulateConfigurationSettingsEP24ChiFeature2RequestObjectPK21ChiFeature2IdentifierP11ChiMetadata+0x1944>
<_ZNK24ChiFeature2MCReprocessRT31OnPopulateConfigurationSettingsEP24ChiFeature2RequestObjectPK21ChiFeature2IdentifierP11ChiMetadata+0x1918>
<_ZNK24ChiFeature2MCReprocessRT31OnPopulateConfigurationSettingsEP24ChiFeature2RequestObjectPK21ChiFeature2IdentifierP11ChiMetadata+0x1958>
0x297b8 <_ZNK24ChiFeature2MCReprocessRT31OnPopulateConfigurationSettingsEP24ChiFeature2RequestObjectPK21ChiFeature2IdentifierP11ChiMetadata+0x1990>
<_ZNK24ChiFeature2MCReprocessRT31OnPopulateConfigurationSettingsEP24ChiFeature2RequestObjectPK21ChiFeature2IdentifierP11ChiMetadata+0x19b4>
<_ZNK24ChiFeature2MCReprocessRT31OnPopulateConfigurationSettingsEP24ChiFeature2RequestObjectPK21ChiFeature2IdentifierP11ChiMetadata+0x1994>
0x44000 <_ZNK24ChiFeature2MCReprocessRT31OnPopulateConfigurationSettingsEP24ChiFeature2RequestObjectPK21ChiFeature2IdentifierP11ChiMetadata+0x19ac>
<_ZNK24ChiFeature2MCReprocessRT31OnPopulateConfigurationSettingsEP24ChiFeature2RequestObjectPK21ChiFeature2IdentifierP11ChiMetadata+0x18f4>
0x44000 <_ZNK24ChiFeature2MCReprocessRT31OnPopulateConfigurationSettingsEP24ChiFeature2RequestObjectPK21ChiFeature2IdentifierP11ChiMetadata+0x19e4>
0x29724 <_ZNK24ChiFeature2MCReprocessRT31OnPopulateConfigurationSettingsEP24ChiFeature2RequestObjectPK21ChiFeature2IdentifierP11ChiMetadata+0x18fc>
<_ZNK24ChiFeature2MCReprocessRT31OnPopulateConfigurationSettingsEP24ChiFeature2RequestObjectPK21ChiFeature2IdentifierP11ChiMetadata+0x190c>
0x44000 <_ZNK24ChiFeature2MCReprocessRT31OnPopulateConfigurationSettingsEP24ChiFeature2RequestObjectPK21ChiFeature2IdentifierP11ChiMetadata+0x1a64>
<_ZNK24ChiFeature2MCReprocessRT31OnPopulateConfigurationSettingsEP24ChiFeature2RequestObjectPK21ChiFeature2IdentifierP11ChiMetadata+0x1b30>
<_ZNK24ChiFeature2MCReprocessRT31OnPopulateConfigurationSettingsEP24ChiFeature2RequestObjectPK21ChiFeature2IdentifierP11ChiMetadata+0x1a64>
0x29948 <_ZNK24ChiFeature2MCReprocessRT31OnPopulateConfigurationSettingsEP24ChiFeature2RequestObjectPK21ChiFeature2IdentifierP11ChiMetadata+0x1b20>
0x29948 <_ZNK24ChiFeature2MCReprocessRT31OnPopulateConfigurationSettingsEP24ChiFeature2RequestObjectPK21ChiFeature2IdentifierP11ChiMetadata+0x1b20>
<_ZNK24ChiFeature2MCReprocessRT31OnPopulateConfigurationSettingsEP24ChiFeature2RequestObjectPK21ChiFeature2IdentifierP11ChiMetadata+0x1b20>
0x45000 <_ZNK24ChiFeature2MCReprocessRT31OnPopulateConfigurationSettingsEP24ChiFeature2RequestObjectPK21ChiFeature2IdentifierP11ChiMetadata+0x1ad4>
#0, 0x29944 <_ZNK24ChiFeature2MCReprocessRT31OnPopulateConfigurationSettingsEP24ChiFeature2RequestObjectPK21ChiFeature2IdentifierP11ChiMetadata+0x1b1c>
0x45000 <_ZNK24ChiFeature2MCReprocessRT31OnPopulateConfigurationSettingsEP24ChiFeature2RequestObjectPK21ChiFeature2IdentifierP11ChiMetadata+0x1ae4>
0xf000 <_ZNK24ChiFeature2MCReprocessRT31OnPopulateConfigurationSettingsEP24ChiFeature2RequestObjectPK21ChiFeature2IdentifierP11ChiMetadata+0x1a10>
<_ZNK24ChiFeature2MCReprocessRT31OnPopulateConfigurationSettingsEP24ChiFeature2RequestObjectPK21ChiFeature2IdentifierP11ChiMetadata+0x1ad4>
0x11000 <_ZNK24ChiFeature2MCReprocessRT31OnPopulateConfigurationSettingsEP24ChiFeature2RequestObjectPK21ChiFeature2IdentifierP11ChiMetadata+0x1a44>
0xf000 <_ZNK24ChiFeature2MCReprocessRT31OnPopulateConfigurationSettingsEP24ChiFeature2RequestObjectPK21ChiFeature2IdentifierP11ChiMetadata+0x1a40>
0xf000 <_ZNK24ChiFeature2MCReprocessRT31OnPopulateConfigurationSettingsEP24ChiFeature2RequestObjectPK21ChiFeature2IdentifierP11ChiMetadata+0x1a44>
0x11000 <_ZNK24ChiFeature2MCReprocessRT31OnPopulateConfigurationSettingsEP24ChiFeature2RequestObjectPK21ChiFeature2IdentifierP11ChiMetadata+0x1a88>
0xb000 <_ZNK24ChiFeature2MCReprocessRT31OnPopulateConfigurationSettingsEP24ChiFeature2RequestObjectPK21ChiFeature2IdentifierP11ChiMetadata+0x1a78>
0xf000 <_ZNK24ChiFeature2MCReprocessRT31OnPopulateConfigurationSettingsEP24ChiFeature2RequestObjectPK21ChiFeature2IdentifierP11ChiMetadata+0x1a8c>
0xe000 <_ZNK24ChiFeature2MCReprocessRT31OnPopulateConfigurationSettingsEP24ChiFeature2RequestObjectPK21ChiFeature2IdentifierP11ChiMetadata+0x1a8c>
<_ZN6ChiLog9LogSystemEPKcS1_S1_S1_iS1_z@plt>
<_ZNK24ChiFeature2MCReprocessRT31OnPopulateConfigurationSettingsEP24ChiFeature2RequestObjectPK21ChiFeature2IdentifierP11ChiMetadata+0x1a10>
<_ZNK24ChiFeature2MCReprocessRT31OnPopulateConfigurationSettingsEP24ChiFeature2RequestObjectPK21ChiFeature2IdentifierP11ChiMetadata+0x1ba0>
<_ZNK24ChiFeature2MCReprocessRT31OnPopulateConfigurationSettingsEP24ChiFeature2RequestObjectPK21ChiFeature2IdentifierP11ChiMetadata+0x1c58>
0x29a84 <_ZNK24ChiFeature2MCReprocessRT31OnPopulateConfigurationSettingsEP24ChiFeature2RequestObjectPK21ChiFeature2IdentifierP11ChiMetadata+0x1c5c>
<_ZNK24ChiFeature2MCReprocessRT31OnPopulateConfigurationSettingsEP24ChiFeature2RequestObjectPK21ChiFeature2IdentifierP11ChiMetadata+0x1c20>
<_ZNK24ChiFeature2MCReprocessRT31OnPopulateConfigurationSettingsEP24ChiFeature2RequestObjectPK21ChiFeature2IdentifierP11ChiMetadata+0x1c54>
0x299b0 <_ZNK24ChiFeature2MCReprocessRT31OnPopulateConfigurationSettingsEP24ChiFeature2RequestObjectPK21ChiFeature2IdentifierP11ChiMetadata+0x1b88>
0x29a7c <_ZNK24ChiFeature2MCReprocessRT31OnPopulateConfigurationSettingsEP24ChiFeature2RequestObjectPK21ChiFeature2IdentifierP11ChiMetadata+0x1c54>
<_ZNKSt3__120__vector_base_commonILb1EE20__throw_length_errorEv@plt>

<_ZNK24ChiFeature2MCReprocessRT29RemoveInvalidImageBufferPortsEPK24ChiFeature2RequestObjectP21ChiFeature2PortIdListRNSt3__16vectorI21ChiFeature2IdentifierNS5_9allocatorIS7_EEEE+0x3a8>
<_ZNK24ChiFeature2MCReprocessRT29RemoveInvalidImageBufferPortsEPK24ChiFeature2RequestObjectP21ChiFeature2PortIdListRNSt3__16vectorI21ChiFeature2IdentifierNS5_9allocatorIS7_EEEE+0x7c>
<_ZNK24ChiFeature2MCReprocessRT29RemoveInvalidImageBufferPortsEPK24ChiFeature2RequestObjectP21ChiFeature2PortIdListRNSt3__16vectorI21ChiFeature2IdentifierNS5_9allocatorIS7_EEEE+0x170>
0x29b00 <_ZNK24ChiFeature2MCReprocessRT29RemoveInvalidImageBufferPortsEPK24ChiFeature2RequestObjectP21ChiFeature2PortIdListRNSt3__16vectorI21ChiFeature2IdentifierNS5_9allocatorIS7_EEEE+0x70>
<_ZNK24ChiFeature2RequestObject13GetBufferInfoE31ChiFeature2RequestObjectOpsTypePK21ChiFeature2IdentifierPPvPmhh@plt>
0x29b00 <_ZNK24ChiFeature2MCReprocessRT29RemoveInvalidImageBufferPortsEPK24ChiFeature2RequestObjectP21ChiFeature2PortIdListRNSt3__16vectorI21ChiFeature2IdentifierNS5_9allocatorIS7_EEEE+0x70>
0x44000 <_ZNK24ChiFeature2MCReprocessRT29RemoveInvalidImageBufferPortsEPK24ChiFeature2RequestObjectP21ChiFeature2PortIdListRNSt3__16vectorI21ChiFeature2IdentifierNS5_9allocatorIS7_EEEE+0x130>
<_ZNK24ChiFeature2MCReprocessRT29RemoveInvalidImageBufferPortsEPK24ChiFeature2RequestObjectP21ChiFeature2PortIdListRNSt3__16vectorI21ChiFeature2IdentifierNS5_9allocatorIS7_EEEE+0x57c>
<_ZNK24ChiFeature2MCReprocessRT29RemoveInvalidImageBufferPortsEPK24ChiFeature2RequestObjectP21ChiFeature2PortIdListRNSt3__16vectorI21ChiFeature2IdentifierNS5_9allocatorIS7_EEEE+0x59c>
0x44000 <_ZNK24ChiFeature2MCReprocessRT29RemoveInvalidImageBufferPortsEPK24ChiFeature2RequestObjectP21ChiFeature2PortIdListRNSt3__16vectorI21ChiFeature2IdentifierNS5_9allocatorIS7_EEEE+0x14c>
<_ZNK24ChiFeature2MCReprocessRT29RemoveInvalidImageBufferPortsEPK24ChiFeature2RequestObjectP21ChiFeature2PortIdListRNSt3__16vectorI21ChiFeature2IdentifierNS5_9allocatorIS7_EEEE+0x5b8>
<_ZNK24ChiFeature2MCReprocessRT29RemoveInvalidImageBufferPortsEPK24ChiFeature2RequestObjectP21ChiFeature2PortIdListRNSt3__16vectorI21ChiFeature2IdentifierNS5_9allocatorIS7_EEEE+0x1ac>
0x29c3c <_ZNK24ChiFeature2MCReprocessRT29RemoveInvalidImageBufferPortsEPK24ChiFeature2RequestObjectP21ChiFeature2PortIdListRNSt3__16vectorI21ChiFeature2IdentifierNS5_9allocatorIS7_EEEE+0x1ac>
<_ZNK24ChiFeature2MCReprocessRT29RemoveInvalidImageBufferPortsEPK24ChiFeature2RequestObjectP21ChiFeature2PortIdListRNSt3__16vectorI21ChiFeature2IdentifierNS5_9allocatorIS7_EEEE+0x1ac>
0x29c3c <_ZNK24ChiFeature2MCReprocessRT29RemoveInvalidImageBufferPortsEPK24ChiFeature2RequestObjectP21ChiFeature2PortIdListRNSt3__16vectorI21ChiFeature2IdentifierNS5_9allocatorIS7_EEEE+0x1ac>
<_ZNK24ChiFeature2MCReprocessRT29RemoveInvalidImageBufferPortsEPK24ChiFeature2RequestObjectP21ChiFeature2PortIdListRNSt3__16vectorI21ChiFeature2IdentifierNS5_9allocatorIS7_EEEE+0x178>
<_ZNK24ChiFeature2MCReprocessRT29RemoveInvalidImageBufferPortsEPK24ChiFeature2RequestObjectP21ChiFeature2PortIdListRNSt3__16vectorI21ChiFeature2IdentifierNS5_9allocatorIS7_EEEE+0x1ac>
<_ZNK24ChiFeature2MCReprocessRT29RemoveInvalidImageBufferPortsEPK24ChiFeature2RequestObjectP21ChiFeature2PortIdListRNSt3__16vectorI21ChiFeature2IdentifierNS5_9allocatorIS7_EEEE+0x1b0>
<_ZNK24ChiFeature2MCReprocessRT29RemoveInvalidImageBufferPortsEPK24ChiFeature2RequestObjectP21ChiFeature2PortIdListRNSt3__16vectorI21ChiFeature2IdentifierNS5_9allocatorIS7_EEEE+0x3ac>
<_ZNK24ChiFeature2MCReprocessRT29RemoveInvalidImageBufferPortsEPK24ChiFeature2RequestObjectP21ChiFeature2PortIdListRNSt3__16vectorI21ChiFeature2IdentifierNS5_9allocatorIS7_EEEE+0x1ac>
<_ZNK24ChiFeature2MCReprocessRT29RemoveInvalidImageBufferPortsEPK24ChiFeature2RequestObjectP21ChiFeature2PortIdListRNSt3__16vectorI21ChiFeature2IdentifierNS5_9allocatorIS7_EEEE+0x1b0>
<_ZNK24ChiFeature2MCReprocessRT31OnPopulateConfigurationSettingsEP24ChiFeature2RequestObjectPK21ChiFeature2IdentifierP11ChiMetadata+0x1b50>
<_ZNK24ChiFeature2MCReprocessRT29RemoveInvalidImageBufferPortsEPK24ChiFeature2RequestObjectP21ChiFeature2PortIdListRNSt3__16vectorI21ChiFeature2IdentifierNS5_9allocatorIS7_EEEE+0x3a8>
0x44000 <_ZNK24ChiFeature2MCReprocessRT29RemoveInvalidImageBufferPortsEPK24ChiFeature2RequestObjectP21ChiFeature2PortIdListRNSt3__16vectorI21ChiFeature2IdentifierNS5_9allocatorIS7_EEEE+0x238>
<_ZNK24ChiFeature2MCReprocessRT29RemoveInvalidImageBufferPortsEPK24ChiFeature2RequestObjectP21ChiFeature2PortIdListRNSt3__16vectorI21ChiFeature2IdentifierNS5_9allocatorIS7_EEEE+0x214>
<_ZNK24ChiFeature2MCReprocessRT29RemoveInvalidImageBufferPortsEPK24ChiFeature2RequestObjectP21ChiFeature2PortIdListRNSt3__16vectorI21ChiFeature2IdentifierNS5_9allocatorIS7_EEEE+0x3ac>
0x29c84 <_ZNK24ChiFeature2MCReprocessRT29RemoveInvalidImageBufferPortsEPK24ChiFeature2RequestObjectP21ChiFeature2PortIdListRNSt3__16vectorI21ChiFeature2IdentifierNS5_9allocatorIS7_EEEE+0x1f4>
<_ZNK24ChiFeature2RequestObject13GetBufferInfoE31ChiFeature2RequestObjectOpsTypePK21ChiFeature2IdentifierPPvPmhh@plt>
0x29c84 <_ZNK24ChiFeature2MCReprocessRT29RemoveInvalidImageBufferPortsEPK24ChiFeature2RequestObjectP21ChiFeature2PortIdListRNSt3__16vectorI21ChiFeature2IdentifierNS5_9allocatorIS7_EEEE+0x1f4>
<_ZNK24ChiFeature2MCReprocessRT29RemoveInvalidImageBufferPortsEPK24ChiFeature2RequestObjectP21ChiFeature2PortIdListRNSt3__16vectorI21ChiFeature2IdentifierNS5_9allocatorIS7_EEEE+0x354>
0x44000 <_ZNK24ChiFeature2MCReprocessRT29RemoveInvalidImageBufferPortsEPK24ChiFeature2RequestObjectP21ChiFeature2PortIdListRNSt3__16vectorI21ChiFeature2IdentifierNS5_9allocatorIS7_EEEE+0x2d8>
<_ZNK24ChiFeature2MCReprocessRT29RemoveInvalidImageBufferPortsEPK24ChiFeature2RequestObjectP21ChiFeature2PortIdListRNSt3__16vectorI21ChiFeature2IdentifierNS5_9allocatorIS7_EEEE+0x370>
<_ZNK24ChiFeature2MCReprocessRT29RemoveInvalidImageBufferPortsEPK24ChiFeature2RequestObjectP21ChiFeature2PortIdListRNSt3__16vectorI21ChiFeature2IdentifierNS5_9allocatorIS7_EEEE+0x390>
<_ZNK24ChiFeature2MCReprocessRT29RemoveInvalidImageBufferPortsEPK24ChiFeature2RequestObjectP21ChiFeature2PortIdListRNSt3__16vectorI21ChiFeature2IdentifierNS5_9allocatorIS7_EEEE+0x33c>
0x29dcc <_ZNK24ChiFeature2MCReprocessRT29RemoveInvalidImageBufferPortsEPK24ChiFeature2RequestObjectP21ChiFeature2PortIdListRNSt3__16vectorI21ChiFeature2IdentifierNS5_9allocatorIS7_EEEE+0x33c>
<_ZNK24ChiFeature2MCReprocessRT29RemoveInvalidImageBufferPortsEPK24ChiFeature2RequestObjectP21ChiFeature2PortIdListRNSt3__16vectorI21ChiFeature2IdentifierNS5_9allocatorIS7_EEEE+0x33c>
0x29dcc <_ZNK24ChiFeature2MCReprocessRT29RemoveInvalidImageBufferPortsEPK24ChiFeature2RequestObjectP21ChiFeature2PortIdListRNSt3__16vectorI21ChiFeature2IdentifierNS5_9allocatorIS7_EEEE+0x33c>
<_ZNK24ChiFeature2MCReprocessRT29RemoveInvalidImageBufferPortsEPK24ChiFeature2RequestObjectP21ChiFeature2PortIdListRNSt3__16vectorI21ChiFeature2IdentifierNS5_9allocatorIS7_EEEE+0x308>
<_ZNK24ChiFeature2MCReprocessRT29RemoveInvalidImageBufferPortsEPK24ChiFeature2RequestObjectP21ChiFeature2PortIdListRNSt3__16vectorI21ChiFeature2IdentifierNS5_9allocatorIS7_EEEE+0x33c>
<_ZNK24ChiFeature2MCReprocessRT29RemoveInvalidImageBufferPortsEPK24ChiFeature2RequestObjectP21ChiFeature2PortIdListRNSt3__16vectorI21ChiFeature2IdentifierNS5_9allocatorIS7_EEEE+0x340>
<_ZNK24ChiFeature2MCReprocessRT29RemoveInvalidImageBufferPortsEPK24ChiFeature2RequestObjectP21ChiFeature2PortIdListRNSt3__16vectorI21ChiFeature2IdentifierNS5_9allocatorIS7_EEEE+0x33c>
<_ZNK24ChiFeature2MCReprocessRT29RemoveInvalidImageBufferPortsEPK24ChiFeature2RequestObjectP21ChiFeature2PortIdListRNSt3__16vectorI21ChiFeature2IdentifierNS5_9allocatorIS7_EEEE+0x340>
<_ZNK24ChiFeature2MCReprocessRT31OnPopulateConfigurationSettingsEP24ChiFeature2RequestObjectPK21ChiFeature2IdentifierP11ChiMetadata+0x1b50>
<_ZNK24ChiFeature2MCReprocessRT29RemoveInvalidImageBufferPortsEPK24ChiFeature2RequestObjectP21ChiFeature2PortIdListRNSt3__16vectorI21ChiFeature2IdentifierNS5_9allocatorIS7_EEEE+0x204>
<_ZNK24ChiFeature2MCReprocessRT29RemoveInvalidImageBufferPortsEPK24ChiFeature2RequestObjectP21ChiFeature2PortIdListRNSt3__16vectorI21ChiFeature2IdentifierNS5_9allocatorIS7_EEEE+0x26c>
<_ZNK24ChiFeature2MCReprocessRT29RemoveInvalidImageBufferPortsEPK24ChiFeature2RequestObjectP21ChiFeature2PortIdListRNSt3__16vectorI21ChiFeature2IdentifierNS5_9allocatorIS7_EEEE+0x288>
<_ZNK24ChiFeature2MCReprocessRT29RemoveInvalidImageBufferPortsEPK24ChiFeature2RequestObjectP21ChiFeature2PortIdListRNSt3__16vectorI21ChiFeature2IdentifierNS5_9allocatorIS7_EEEE+0x288>
<_ZNK24ChiFeature2MCReprocessRT29RemoveInvalidImageBufferPortsEPK24ChiFeature2RequestObjectP21ChiFeature2PortIdListRNSt3__16vectorI21ChiFeature2IdentifierNS5_9allocatorIS7_EEEE+0x750>
<_ZNK24ChiFeature2MCReprocessRT29RemoveInvalidImageBufferPortsEPK24ChiFeature2RequestObjectP21ChiFeature2PortIdListRNSt3__16vectorI21ChiFeature2IdentifierNS5_9allocatorIS7_EEEE+0x7d0>
<_ZNK24ChiFeature2MCReprocessRT29RemoveInvalidImageBufferPortsEPK24ChiFeature2RequestObjectP21ChiFeature2PortIdListRNSt3__16vectorI21ChiFeature2IdentifierNS5_9allocatorIS7_EEEE+0x7d0>
<_ZNK24ChiFeature2MCReprocessRT29RemoveInvalidImageBufferPortsEPK24ChiFeature2RequestObjectP21ChiFeature2PortIdListRNSt3__16vectorI21ChiFeature2IdentifierNS5_9allocatorIS7_EEEE+0x4a4>
<_ZNK24ChiFeature2MCReprocessRT29RemoveInvalidImageBufferPortsEPK24ChiFeature2RequestObjectP21ChiFeature2PortIdListRNSt3__16vectorI21ChiFeature2IdentifierNS5_9allocatorIS7_EEEE+0x868>
0x29ee8 <_ZNK24ChiFeature2MCReprocessRT29RemoveInvalidImageBufferPortsEPK24ChiFeature2RequestObjectP21ChiFeature2PortIdListRNSt3__16vectorI21ChiFeature2IdentifierNS5_9allocatorIS7_EEEE+0x458>
<_ZNK24ChiFeature2MCReprocessRT29RemoveInvalidImageBufferPortsEPK24ChiFeature2RequestObjectP21ChiFeature2PortIdListRNSt3__16vectorI21ChiFeature2IdentifierNS5_9allocatorIS7_EEEE+0x41c>
<_ZNK24ChiFeature2MCReprocessRT29RemoveInvalidImageBufferPortsEPK24ChiFeature2RequestObjectP21ChiFeature2PortIdListRNSt3__16vectorI21ChiFeature2IdentifierNS5_9allocatorIS7_EEEE+0x4a4>
<_ZNK24ChiFeature2MCReprocessRT29RemoveInvalidImageBufferPortsEPK24ChiFeature2RequestObjectP21ChiFeature2PortIdListRNSt3__16vectorI21ChiFeature2IdentifierNS5_9allocatorIS7_EEEE+0x4a4>
<_ZNK24ChiFeature2MCReprocessRT29RemoveInvalidImageBufferPortsEPK24ChiFeature2RequestObjectP21ChiFeature2PortIdListRNSt3__16vectorI21ChiFeature2IdentifierNS5_9allocatorIS7_EEEE+0x470>
<_ZNK24ChiFeature2MCReprocessRT29RemoveInvalidImageBufferPortsEPK24ChiFeature2RequestObjectP21ChiFeature2PortIdListRNSt3__16vectorI21ChiFeature2IdentifierNS5_9allocatorIS7_EEEE+0x4a4>
<_ZNK24ChiFeature2MCReprocessRT29RemoveInvalidImageBufferPortsEPK24ChiFeature2RequestObjectP21ChiFeature2PortIdListRNSt3__16vectorI21ChiFeature2IdentifierNS5_9allocatorIS7_EEEE+0x868>
0x29ef4 <_ZNK24ChiFeature2MCReprocessRT29RemoveInvalidImageBufferPortsEPK24ChiFeature2RequestObjectP21ChiFeature2PortIdListRNSt3__16vectorI21ChiFeature2IdentifierNS5_9allocatorIS7_EEEE+0x464>
<_ZNK24ChiFeature2MCReprocessRT29RemoveInvalidImageBufferPortsEPK24ChiFeature2RequestObjectP21ChiFeature2PortIdListRNSt3__16vectorI21ChiFeature2IdentifierNS5_9allocatorIS7_EEEE+0x464>
0x29f58 <_ZNK24ChiFeature2MCReprocessRT29RemoveInvalidImageBufferPortsEPK24ChiFeature2RequestObjectP21ChiFeature2PortIdListRNSt3__16vectorI21ChiFeature2IdentifierNS5_9allocatorIS7_EEEE+0x4c8>
0x2a060 <_ZNK24ChiFeature2MCReprocessRT29RemoveInvalidImageBufferPortsEPK24ChiFeature2RequestObjectP21ChiFeature2PortIdListRNSt3__16vectorI21ChiFeature2IdentifierNS5_9allocatorIS7_EEEE+0x5d0>
<_ZNK24ChiFeature2MCReprocessRT29RemoveInvalidImageBufferPortsEPK24ChiFeature2RequestObjectP21ChiFeature2PortIdListRNSt3__16vectorI21ChiFeature2IdentifierNS5_9allocatorIS7_EEEE+0x750>
0x29fb4 <_ZNK24ChiFeature2MCReprocessRT29RemoveInvalidImageBufferPortsEPK24ChiFeature2RequestObjectP21ChiFeature2PortIdListRNSt3__16vectorI21ChiFeature2IdentifierNS5_9allocatorIS7_EEEE+0x524>
0x2a060 <_ZNK24ChiFeature2MCReprocessRT29RemoveInvalidImageBufferPortsEPK24ChiFeature2RequestObjectP21ChiFeature2PortIdListRNSt3__16vectorI21ChiFeature2IdentifierNS5_9allocatorIS7_EEEE+0x5d0>
0x29fd8 <_ZNK24ChiFeature2MCReprocessRT29RemoveInvalidImageBufferPortsEPK24ChiFeature2RequestObjectP21ChiFeature2PortIdListRNSt3__16vectorI21ChiFeature2IdentifierNS5_9allocatorIS7_EEEE+0x548>
0x2a060 <_ZNK24ChiFeature2MCReprocessRT29RemoveInvalidImageBufferPortsEPK24ChiFeature2RequestObjectP21ChiFeature2PortIdListRNSt3__16vectorI21ChiFeature2IdentifierNS5_9allocatorIS7_EEEE+0x5d0>
<_ZNK24ChiFeature2MCReprocessRT29RemoveInvalidImageBufferPortsEPK24ChiFeature2RequestObjectP21ChiFeature2PortIdListRNSt3__16vectorI21ChiFeature2IdentifierNS5_9allocatorIS7_EEEE+0x5d4>
<_ZNK24ChiFeature2MCReprocessRT29RemoveInvalidImageBufferPortsEPK24ChiFeature2RequestObjectP21ChiFeature2PortIdListRNSt3__16vectorI21ChiFeature2IdentifierNS5_9allocatorIS7_EEEE+0xe0>
<_ZNK24ChiFeature2MCReprocessRT29RemoveInvalidImageBufferPortsEPK24ChiFeature2RequestObjectP21ChiFeature2PortIdListRNSt3__16vectorI21ChiFeature2IdentifierNS5_9allocatorIS7_EEEE+0xe0>
<_ZNK24ChiFeature2MCReprocessRT29RemoveInvalidImageBufferPortsEPK24ChiFeature2RequestObjectP21ChiFeature2PortIdListRNSt3__16vectorI21ChiFeature2IdentifierNS5_9allocatorIS7_EEEE+0xf4>
<_ZNK24ChiFeature2MCReprocessRT29RemoveInvalidImageBufferPortsEPK24ChiFeature2RequestObjectP21ChiFeature2PortIdListRNSt3__16vectorI21ChiFeature2IdentifierNS5_9allocatorIS7_EEEE+0x640>
<_ZNK24ChiFeature2MCReprocessRT29RemoveInvalidImageBufferPortsEPK24ChiFeature2RequestObjectP21ChiFeature2PortIdListRNSt3__16vectorI21ChiFeature2IdentifierNS5_9allocatorIS7_EEEE+0x744>
<_ZNK24ChiFeature2MCReprocessRT29RemoveInvalidImageBufferPortsEPK24ChiFeature2RequestObjectP21ChiFeature2PortIdListRNSt3__16vectorI21ChiFeature2IdentifierNS5_9allocatorIS7_EEEE+0x748>
<_ZNK24ChiFeature2MCReprocessRT29RemoveInvalidImageBufferPortsEPK24ChiFeature2RequestObjectP21ChiFeature2PortIdListRNSt3__16vectorI21ChiFeature2IdentifierNS5_9allocatorIS7_EEEE+0x6a0>
0x2a1c8 <_ZNK24ChiFeature2MCReprocessRT29RemoveInvalidImageBufferPortsEPK24ChiFeature2RequestObjectP21ChiFeature2PortIdListRNSt3__16vectorI21ChiFeature2IdentifierNS5_9allocatorIS7_EEEE+0x738>
<_ZNK24ChiFeature2MCReprocessRT29RemoveInvalidImageBufferPortsEPK24ChiFeature2RequestObjectP21ChiFeature2PortIdListRNSt3__16vectorI21ChiFeature2IdentifierNS5_9allocatorIS7_EEEE+0x6f8>
<_ZNK24ChiFeature2MCReprocessRT29RemoveInvalidImageBufferPortsEPK24ChiFeature2RequestObjectP21ChiFeature2PortIdListRNSt3__16vectorI21ChiFeature2IdentifierNS5_9allocatorIS7_EEEE+0x740>
0x2a0b4 <_ZNK24ChiFeature2MCReprocessRT29RemoveInvalidImageBufferPortsEPK24ChiFeature2RequestObjectP21ChiFeature2PortIdListRNSt3__16vectorI21ChiFeature2IdentifierNS5_9allocatorIS7_EEEE+0x624>
0x2a1d0 <_ZNK24ChiFeature2MCReprocessRT29RemoveInvalidImageBufferPortsEPK24ChiFeature2RequestObjectP21ChiFeature2PortIdListRNSt3__16vectorI21ChiFeature2IdentifierNS5_9allocatorIS7_EEEE+0x740>
<_ZNK24ChiFeature2MCReprocessRT29RemoveInvalidImageBufferPortsEPK24ChiFeature2RequestObjectP21ChiFeature2PortIdListRNSt3__16vectorI21ChiFeature2IdentifierNS5_9allocatorIS7_EEEE+0x6b4>
<_ZNKSt3__120__vector_base_commonILb1EE20__throw_length_errorEv@plt>
<_ZNK24ChiFeature2MCReprocessRT29RemoveInvalidImageBufferPortsEPK24ChiFeature2RequestObjectP21ChiFeature2PortIdListRNSt3__16vectorI21ChiFeature2IdentifierNS5_9allocatorIS7_EEEE+0x7bc>
<_ZNK24ChiFeature2MCReprocessRT29RemoveInvalidImageBufferPortsEPK24ChiFeature2RequestObjectP21ChiFeature2PortIdListRNSt3__16vectorI21ChiFeature2IdentifierNS5_9allocatorIS7_EEEE+0x7b0>
<_ZNK24ChiFeature2MCReprocessRT29RemoveInvalidImageBufferPortsEPK24ChiFeature2RequestObjectP21ChiFeature2PortIdListRNSt3__16vectorI21ChiFeature2IdentifierNS5_9allocatorIS7_EEEE+0x7cc>
<_ZNK24ChiFeature2MCReprocessRT29RemoveInvalidImageBufferPortsEPK24ChiFeature2RequestObjectP21ChiFeature2PortIdListRNSt3__16vectorI21ChiFeature2IdentifierNS5_9allocatorIS7_EEEE+0x84c>
0x2a2ec <_ZNK24ChiFeature2MCReprocessRT29RemoveInvalidImageBufferPortsEPK24ChiFeature2RequestObjectP21ChiFeature2PortIdListRNSt3__16vectorI21ChiFeature2IdentifierNS5_9allocatorIS7_EEEE+0x85c>
<_ZNK24ChiFeature2MCReprocessRT29RemoveInvalidImageBufferPortsEPK24ChiFeature2RequestObjectP21ChiFeature2PortIdListRNSt3__16vectorI21ChiFeature2IdentifierNS5_9allocatorIS7_EEEE+0x84c>
<_ZNK24ChiFeature2MCReprocessRT29RemoveInvalidImageBufferPortsEPK24ChiFeature2RequestObjectP21ChiFeature2PortIdListRNSt3__16vectorI21ChiFeature2IdentifierNS5_9allocatorIS7_EEEE+0x864>
<_ZNKSt3__120__vector_base_commonILb1EE20__throw_length_errorEv@plt>
0x44000 <_ZNK24ChiFeature2MCReprocessRT29RemoveInvalidImageBufferPortsEPK24ChiFeature2RequestObjectP21ChiFeature2PortIdListRNSt3__16vectorI21ChiFeature2IdentifierNS5_9allocatorIS7_EEEE+0x8e8>
<_ZNK24ChiFeature2MCReprocessRT29RemoveInvalidImageBufferPortsEPK24ChiFeature2RequestObjectP21ChiFeature2PortIdListRNSt3__16vectorI21ChiFeature2IdentifierNS5_9allocatorIS7_EEEE+0xa64>
<_ZNK24ChiFeature2MCReprocessRT29RemoveInvalidImageBufferPortsEPK24ChiFeature2RequestObjectP21ChiFeature2PortIdListRNSt3__16vectorI21ChiFeature2IdentifierNS5_9allocatorIS7_EEEE+0xaa0>
<_ZNK24ChiFeature2MCReprocessRT29RemoveInvalidImageBufferPortsEPK24ChiFeature2RequestObjectP21ChiFeature2PortIdListRNSt3__16vectorI21ChiFeature2IdentifierNS5_9allocatorIS7_EEEE+0xad8>
<_ZNK24ChiFeature2MCReprocessRT29RemoveInvalidImageBufferPortsEPK24ChiFeature2RequestObjectP21ChiFeature2PortIdListRNSt3__16vectorI21ChiFeature2IdentifierNS5_9allocatorIS7_EEEE+0x96c>
0x2a3fc <_ZNK24ChiFeature2MCReprocessRT29RemoveInvalidImageBufferPortsEPK24ChiFeature2RequestObjectP21ChiFeature2PortIdListRNSt3__16vectorI21ChiFeature2IdentifierNS5_9allocatorIS7_EEEE+0x96c>
<_ZNK24ChiFeature2MCReprocessRT29RemoveInvalidImageBufferPortsEPK24ChiFeature2RequestObjectP21ChiFeature2PortIdListRNSt3__16vectorI21ChiFeature2IdentifierNS5_9allocatorIS7_EEEE+0x96c>
0x2a3fc <_ZNK24ChiFeature2MCReprocessRT29RemoveInvalidImageBufferPortsEPK24ChiFeature2RequestObjectP21ChiFeature2PortIdListRNSt3__16vectorI21ChiFeature2IdentifierNS5_9allocatorIS7_EEEE+0x96c>
<_ZNK24ChiFeature2MCReprocessRT29RemoveInvalidImageBufferPortsEPK24ChiFeature2RequestObjectP21ChiFeature2PortIdListRNSt3__16vectorI21ChiFeature2IdentifierNS5_9allocatorIS7_EEEE+0x924>
<_ZNK24ChiFeature2MCReprocessRT29RemoveInvalidImageBufferPortsEPK24ChiFeature2RequestObjectP21ChiFeature2PortIdListRNSt3__16vectorI21ChiFeature2IdentifierNS5_9allocatorIS7_EEEE+0x950>
<_ZNK24ChiFeature2MCReprocessRT29RemoveInvalidImageBufferPortsEPK24ChiFeature2RequestObjectP21ChiFeature2PortIdListRNSt3__16vectorI21ChiFeature2IdentifierNS5_9allocatorIS7_EEEE+0x96c>
<_ZNK24ChiFeature2MCReprocessRT29RemoveInvalidImageBufferPortsEPK24ChiFeature2RequestObjectP21ChiFeature2PortIdListRNSt3__16vectorI21ChiFeature2IdentifierNS5_9allocatorIS7_EEEE+0x96c>
0x2a3fc <_ZNK24ChiFeature2MCReprocessRT29RemoveInvalidImageBufferPortsEPK24ChiFeature2RequestObjectP21ChiFeature2PortIdListRNSt3__16vectorI21ChiFeature2IdentifierNS5_9allocatorIS7_EEEE+0x96c>
0x2a404 <_ZNK24ChiFeature2MCReprocessRT29RemoveInvalidImageBufferPortsEPK24ChiFeature2RequestObjectP21ChiFeature2PortIdListRNSt3__16vectorI21ChiFeature2IdentifierNS5_9allocatorIS7_EEEE+0x974>
<_ZNK24ChiFeature2MCReprocessRT29RemoveInvalidImageBufferPortsEPK24ChiFeature2RequestObjectP21ChiFeature2PortIdListRNSt3__16vectorI21ChiFeature2IdentifierNS5_9allocatorIS7_EEEE+0x988>
0x2a418 <_ZNK24ChiFeature2MCReprocessRT29RemoveInvalidImageBufferPortsEPK24ChiFeature2RequestObjectP21ChiFeature2PortIdListRNSt3__16vectorI21ChiFeature2IdentifierNS5_9allocatorIS7_EEEE+0x988>
<_ZNK24ChiFeature2MCReprocessRT29RemoveInvalidImageBufferPortsEPK24ChiFeature2RequestObjectP21ChiFeature2PortIdListRNSt3__16vectorI21ChiFeature2IdentifierNS5_9allocatorIS7_EEEE+0x974>
<_ZNK24ChiFeature2MCReprocessRT29RemoveInvalidImageBufferPortsEPK24ChiFeature2RequestObjectP21ChiFeature2PortIdListRNSt3__16vectorI21ChiFeature2IdentifierNS5_9allocatorIS7_EEEE+0x9ac>
<_ZNK24ChiFeature2MCReprocessRT29RemoveInvalidImageBufferPortsEPK24ChiFeature2RequestObjectP21ChiFeature2PortIdListRNSt3__16vectorI21ChiFeature2IdentifierNS5_9allocatorIS7_EEEE+0x994>
<_ZNK24ChiFeature2MCReprocessRT29RemoveInvalidImageBufferPortsEPK24ChiFeature2RequestObjectP21ChiFeature2PortIdListRNSt3__16vectorI21ChiFeature2IdentifierNS5_9allocatorIS7_EEEE+0x974>
0x45000 <_ZNK24ChiFeature2MCReprocessRT29RemoveInvalidImageBufferPortsEPK24ChiFeature2RequestObjectP21ChiFeature2PortIdListRNSt3__16vectorI21ChiFeature2IdentifierNS5_9allocatorIS7_EEEE+0xa18>
#3, 0x2a4ec <_ZNK24ChiFeature2MCReprocessRT29RemoveInvalidImageBufferPortsEPK24ChiFeature2RequestObjectP21ChiFeature2PortIdListRNSt3__16vectorI21ChiFeature2IdentifierNS5_9allocatorIS7_EEEE+0xa5c>
0x45000 <_ZNK24ChiFeature2MCReprocessRT29RemoveInvalidImageBufferPortsEPK24ChiFeature2RequestObjectP21ChiFeature2PortIdListRNSt3__16vectorI21ChiFeature2IdentifierNS5_9allocatorIS7_EEEE+0xa28>
0x11000 <_ZNK24ChiFeature2MCReprocessRT29RemoveInvalidImageBufferPortsEPK24ChiFeature2RequestObjectP21ChiFeature2PortIdListRNSt3__16vectorI21ChiFeature2IdentifierNS5_9allocatorIS7_EEEE+0x95c>
<_ZNK24ChiFeature2MCReprocessRT29RemoveInvalidImageBufferPortsEPK24ChiFeature2RequestObjectP21ChiFeature2PortIdListRNSt3__16vectorI21ChiFeature2IdentifierNS5_9allocatorIS7_EEEE+0xa18>
0x11000 <_ZNK24ChiFeature2MCReprocessRT29RemoveInvalidImageBufferPortsEPK24ChiFeature2RequestObjectP21ChiFeature2PortIdListRNSt3__16vectorI21ChiFeature2IdentifierNS5_9allocatorIS7_EEEE+0x988>
0xc000 <_ZNK24ChiFeature2MCReprocessRT29RemoveInvalidImageBufferPortsEPK24ChiFeature2RequestObjectP21ChiFeature2PortIdListRNSt3__16vectorI21ChiFeature2IdentifierNS5_9allocatorIS7_EEEE+0x978>
0xd000 <_ZNK24ChiFeature2MCReprocessRT29RemoveInvalidImageBufferPortsEPK24ChiFeature2RequestObjectP21ChiFeature2PortIdListRNSt3__16vectorI21ChiFeature2IdentifierNS5_9allocatorIS7_EEEE+0x980>
0xe000 <_ZNK24ChiFeature2MCReprocessRT29RemoveInvalidImageBufferPortsEPK24ChiFeature2RequestObjectP21ChiFeature2PortIdListRNSt3__16vectorI21ChiFeature2IdentifierNS5_9allocatorIS7_EEEE+0x9bc>
0x11000 <_ZNK24ChiFeature2MCReprocessRT29RemoveInvalidImageBufferPortsEPK24ChiFeature2RequestObjectP21ChiFeature2PortIdListRNSt3__16vectorI21ChiFeature2IdentifierNS5_9allocatorIS7_EEEE+0x9d0>
0xd000 <_ZNK24ChiFeature2MCReprocessRT29RemoveInvalidImageBufferPortsEPK24ChiFeature2RequestObjectP21ChiFeature2PortIdListRNSt3__16vectorI21ChiFeature2IdentifierNS5_9allocatorIS7_EEEE+0x9c4>
0xb000 <_ZNK24ChiFeature2MCReprocessRT29RemoveInvalidImageBufferPortsEPK24ChiFeature2RequestObjectP21ChiFeature2PortIdListRNSt3__16vectorI21ChiFeature2IdentifierNS5_9allocatorIS7_EEEE+0x9c0>
<_ZN6ChiLog9LogSystemEPKcS1_S1_S1_iS1_z@plt>
<_ZNK24ChiFeature2MCReprocessRT29RemoveInvalidImageBufferPortsEPK24ChiFeature2RequestObjectP21ChiFeature2PortIdListRNSt3__16vectorI21ChiFeature2IdentifierNS5_9allocatorIS7_EEEE+0x978>
0x44000 <_ZNK24ChiFeature2MCReprocessRT29RemoveInvalidImageBufferPortsEPK24ChiFeature2RequestObjectP21ChiFeature2PortIdListRNSt3__16vectorI21ChiFeature2IdentifierNS5_9allocatorIS7_EEEE+0xaf0>
<_ZNK24ChiFeature2MCReprocessRT29RemoveInvalidImageBufferPortsEPK24ChiFeature2RequestObjectP21ChiFeature2PortIdListRNSt3__16vectorI21ChiFeature2IdentifierNS5_9allocatorIS7_EEEE+0x8a0>
0x44000 <_ZNK24ChiFeature2MCReprocessRT29RemoveInvalidImageBufferPortsEPK24ChiFeature2RequestObjectP21ChiFeature2PortIdListRNSt3__16vectorI21ChiFeature2IdentifierNS5_9allocatorIS7_EEEE+0xb28>
<_ZNK24ChiFeature2MCReprocessRT29RemoveInvalidImageBufferPortsEPK24ChiFeature2RequestObjectP21ChiFeature2PortIdListRNSt3__16vectorI21ChiFeature2IdentifierNS5_9allocatorIS7_EEEE+0x8a0>
<_ZNK24ChiFeature2MCReprocessRT29RemoveInvalidImageBufferPortsEPK24ChiFeature2RequestObjectP21ChiFeature2PortIdListRNSt3__16vectorI21ChiFeature2IdentifierNS5_9allocatorIS7_EEEE+0x8ac>
<_ZNK24ChiFeature2MCReprocessRT29RemoveInvalidImageBufferPortsEPK24ChiFeature2RequestObjectP21ChiFeature2PortIdListRNSt3__16vectorI21ChiFeature2IdentifierNS5_9allocatorIS7_EEEE+0xe20>
0x2a690 <_ZNK24ChiFeature2MCReprocessRT29RemoveInvalidImageBufferPortsEPK24ChiFeature2RequestObjectP21ChiFeature2PortIdListRNSt3__16vectorI21ChiFeature2IdentifierNS5_9allocatorIS7_EEEE+0xc00>
<_ZNK24ChiFeature2MCReprocessRT29RemoveInvalidImageBufferPortsEPK24ChiFeature2RequestObjectP21ChiFeature2PortIdListRNSt3__16vectorI21ChiFeature2IdentifierNS5_9allocatorIS7_EEEE+0xca8>
<_ZNK24ChiFeature2MCReprocessRT29RemoveInvalidImageBufferPortsEPK24ChiFeature2RequestObjectP21ChiFeature2PortIdListRNSt3__16vectorI21ChiFeature2IdentifierNS5_9allocatorIS7_EEEE+0xb88>
<_ZNK24ChiFeature2MCReprocessRT29RemoveInvalidImageBufferPortsEPK24ChiFeature2RequestObjectP21ChiFeature2PortIdListRNSt3__16vectorI21ChiFeature2IdentifierNS5_9allocatorIS7_EEEE+0xe04>
<_ZN15UsecaseSelector13IsVideoStreamEPK14camera3_stream@plt>
<_ZN15ExtensionModule11GetInstanceEv@plt>
<_ZNK24ChiFeature2MCReprocessRT29RemoveInvalidImageBufferPortsEPK24ChiFeature2RequestObjectP21ChiFeature2PortIdListRNSt3__16vectorI21ChiFeature2IdentifierNS5_9allocatorIS7_EEEE+0xbf0>
<_ZNK24ChiFeature2MCReprocessRT29RemoveInvalidImageBufferPortsEPK24ChiFeature2RequestObjectP21ChiFeature2PortIdListRNSt3__16vectorI21ChiFeature2IdentifierNS5_9allocatorIS7_EEEE+0xbf0>
<_ZNK24ChiFeature2MCReprocessRT29RemoveInvalidImageBufferPortsEPK24ChiFeature2RequestObjectP21ChiFeature2PortIdListRNSt3__16vectorI21ChiFeature2IdentifierNS5_9allocatorIS7_EEEE+0xb7c>
0x2a60c <_ZNK24ChiFeature2MCReprocessRT29RemoveInvalidImageBufferPortsEPK24ChiFeature2RequestObjectP21ChiFeature2PortIdListRNSt3__16vectorI21ChiFeature2IdentifierNS5_9allocatorIS7_EEEE+0xb7c>
<_ZNK24ChiFeature2MCReprocessRT29RemoveInvalidImageBufferPortsEPK24ChiFeature2RequestObjectP21ChiFeature2PortIdListRNSt3__16vectorI21ChiFeature2IdentifierNS5_9allocatorIS7_EEEE+0xb7c>
#0, 0x2a60c <_ZNK24ChiFeature2MCReprocessRT29RemoveInvalidImageBufferPortsEPK24ChiFeature2RequestObjectP21ChiFeature2PortIdListRNSt3__16vectorI21ChiFeature2IdentifierNS5_9allocatorIS7_EEEE+0xb7c>
<_ZNK24ChiFeature2MCReprocessRT29RemoveInvalidImageBufferPortsEPK24ChiFeature2RequestObjectP21ChiFeature2PortIdListRNSt3__16vectorI21ChiFeature2IdentifierNS5_9allocatorIS7_EEEE+0xe20>
<_ZNK24ChiFeature2MCReprocessRT29RemoveInvalidImageBufferPortsEPK24ChiFeature2RequestObjectP21ChiFeature2PortIdListRNSt3__16vectorI21ChiFeature2IdentifierNS5_9allocatorIS7_EEEE+0xbb8>
<_ZN15ExtensionModule11GetInstanceEv@plt>
<_ZNK24ChiFeature2MCReprocessRT29RemoveInvalidImageBufferPortsEPK24ChiFeature2RequestObjectP21ChiFeature2PortIdListRNSt3__16vectorI21ChiFeature2IdentifierNS5_9allocatorIS7_EEEE+0xbb8>
<_ZNK24ChiFeature2MCReprocessRT29RemoveInvalidImageBufferPortsEPK24ChiFeature2RequestObjectP21ChiFeature2PortIdListRNSt3__16vectorI21ChiFeature2IdentifierNS5_9allocatorIS7_EEEE+0xc30>
<_ZNK24ChiFeature2MCReprocessRT29RemoveInvalidImageBufferPortsEPK24ChiFeature2RequestObjectP21ChiFeature2PortIdListRNSt3__16vectorI21ChiFeature2IdentifierNS5_9allocatorIS7_EEEE+0xe0c>
<_ZN15UsecaseSelector13IsVideoStreamEPK14camera3_stream@plt>
<_ZN15ExtensionModule11GetInstanceEv@plt>
<_ZNK24ChiFeature2MCReprocessRT29RemoveInvalidImageBufferPortsEPK24ChiFeature2RequestObjectP21ChiFeature2PortIdListRNSt3__16vectorI21ChiFeature2IdentifierNS5_9allocatorIS7_EEEE+0xc98>
<_ZNK24ChiFeature2MCReprocessRT29RemoveInvalidImageBufferPortsEPK24ChiFeature2RequestObjectP21ChiFeature2PortIdListRNSt3__16vectorI21ChiFeature2IdentifierNS5_9allocatorIS7_EEEE+0xc98>
<_ZNK24ChiFeature2MCReprocessRT29RemoveInvalidImageBufferPortsEPK24ChiFeature2RequestObjectP21ChiFeature2PortIdListRNSt3__16vectorI21ChiFeature2IdentifierNS5_9allocatorIS7_EEEE+0xc24>
0x2a6b4 <_ZNK24ChiFeature2MCReprocessRT29RemoveInvalidImageBufferPortsEPK24ChiFeature2RequestObjectP21ChiFeature2PortIdListRNSt3__16vectorI21ChiFeature2IdentifierNS5_9allocatorIS7_EEEE+0xc24>
<_ZNK24ChiFeature2MCReprocessRT29RemoveInvalidImageBufferPortsEPK24ChiFeature2RequestObjectP21ChiFeature2PortIdListRNSt3__16vectorI21ChiFeature2IdentifierNS5_9allocatorIS7_EEEE+0xc24>
#0, 0x2a6b4 <_ZNK24ChiFeature2MCReprocessRT29RemoveInvalidImageBufferPortsEPK24ChiFeature2RequestObjectP21ChiFeature2PortIdListRNSt3__16vectorI21ChiFeature2IdentifierNS5_9allocatorIS7_EEEE+0xc24>
<_ZNK24ChiFeature2MCReprocessRT29RemoveInvalidImageBufferPortsEPK24ChiFeature2RequestObjectP21ChiFeature2PortIdListRNSt3__16vectorI21ChiFeature2IdentifierNS5_9allocatorIS7_EEEE+0xe10>
<_ZNK24ChiFeature2MCReprocessRT29RemoveInvalidImageBufferPortsEPK24ChiFeature2RequestObjectP21ChiFeature2PortIdListRNSt3__16vectorI21ChiFeature2IdentifierNS5_9allocatorIS7_EEEE+0xc60>
<_ZN15ExtensionModule11GetInstanceEv@plt>
<_ZNK24ChiFeature2MCReprocessRT29RemoveInvalidImageBufferPortsEPK24ChiFeature2RequestObjectP21ChiFeature2PortIdListRNSt3__16vectorI21ChiFeature2IdentifierNS5_9allocatorIS7_EEEE+0xc60>
<_ZNK24ChiFeature2MCReprocessRT29RemoveInvalidImageBufferPortsEPK24ChiFeature2RequestObjectP21ChiFeature2PortIdListRNSt3__16vectorI21ChiFeature2IdentifierNS5_9allocatorIS7_EEEE+0xccc>
<_ZNK24ChiFeature2MCReprocessRT29RemoveInvalidImageBufferPortsEPK24ChiFeature2RequestObjectP21ChiFeature2PortIdListRNSt3__16vectorI21ChiFeature2IdentifierNS5_9allocatorIS7_EEEE+0xe18>
<_ZN15UsecaseSelector13IsVideoStreamEPK14camera3_stream@plt>
<_ZN15ExtensionModule11GetInstanceEv@plt>
<_ZNK24ChiFeature2MCReprocessRT29RemoveInvalidImageBufferPortsEPK24ChiFeature2RequestObjectP21ChiFeature2PortIdListRNSt3__16vectorI21ChiFeature2IdentifierNS5_9allocatorIS7_EEEE+0xd24>
<_ZNK24ChiFeature2MCReprocessRT29RemoveInvalidImageBufferPortsEPK24ChiFeature2RequestObjectP21ChiFeature2PortIdListRNSt3__16vectorI21ChiFeature2IdentifierNS5_9allocatorIS7_EEEE+0xd24>
<_ZNK24ChiFeature2MCReprocessRT29RemoveInvalidImageBufferPortsEPK24ChiFeature2RequestObjectP21ChiFeature2PortIdListRNSt3__16vectorI21ChiFeature2IdentifierNS5_9allocatorIS7_EEEE+0xd60>
<_ZNK24ChiFeature2MCReprocessRT29RemoveInvalidImageBufferPortsEPK24ChiFeature2RequestObjectP21ChiFeature2PortIdListRNSt3__16vectorI21ChiFeature2IdentifierNS5_9allocatorIS7_EEEE+0xd64>
<_ZNK24ChiFeature2MCReprocessRT29RemoveInvalidImageBufferPortsEPK24ChiFeature2RequestObjectP21ChiFeature2PortIdListRNSt3__16vectorI21ChiFeature2IdentifierNS5_9allocatorIS7_EEEE+0xd0c>
<_ZN15ExtensionModule11GetInstanceEv@plt>
<_ZNK24ChiFeature2MCReprocessRT29RemoveInvalidImageBufferPortsEPK24ChiFeature2RequestObjectP21ChiFeature2PortIdListRNSt3__16vectorI21ChiFeature2IdentifierNS5_9allocatorIS7_EEEE+0xd0c>
<_ZNK24ChiFeature2MCReprocessRT29RemoveInvalidImageBufferPortsEPK24ChiFeature2RequestObjectP21ChiFeature2PortIdListRNSt3__16vectorI21ChiFeature2IdentifierNS5_9allocatorIS7_EEEE+0xd60>
<_ZNK24ChiFeature2MCReprocessRT29RemoveInvalidImageBufferPortsEPK24ChiFeature2RequestObjectP21ChiFeature2PortIdListRNSt3__16vectorI21ChiFeature2IdentifierNS5_9allocatorIS7_EEEE+0xd64>
<_ZNK24ChiFeature2MCReprocessRT29RemoveInvalidImageBufferPortsEPK24ChiFeature2RequestObjectP21ChiFeature2PortIdListRNSt3__16vectorI21ChiFeature2IdentifierNS5_9allocatorIS7_EEEE+0xdfc>
<_ZNK24ChiFeature2MCReprocessRT29RemoveInvalidImageBufferPortsEPK24ChiFeature2RequestObjectP21ChiFeature2PortIdListRNSt3__16vectorI21ChiFeature2IdentifierNS5_9allocatorIS7_EEEE+0xd94>
<_ZNK24ChiFeature2MCReprocessRT29RemoveInvalidImageBufferPortsEPK24ChiFeature2RequestObjectP21ChiFeature2PortIdListRNSt3__16vectorI21ChiFeature2IdentifierNS5_9allocatorIS7_EEEE+0xd9c>
<_ZNK24ChiFeature2MCReprocessRT29RemoveInvalidImageBufferPortsEPK24ChiFeature2RequestObjectP21ChiFeature2PortIdListRNSt3__16vectorI21ChiFeature2IdentifierNS5_9allocatorIS7_EEEE+0xda0>
<_ZNK24ChiFeature2MCReprocessRT29RemoveInvalidImageBufferPortsEPK24ChiFeature2RequestObjectP21ChiFeature2PortIdListRNSt3__16vectorI21ChiFeature2IdentifierNS5_9allocatorIS7_EEEE+0xdfc>
<_ZNK24ChiFeature2MCReprocessRT29RemoveInvalidImageBufferPortsEPK24ChiFeature2RequestObjectP21ChiFeature2PortIdListRNSt3__16vectorI21ChiFeature2IdentifierNS5_9allocatorIS7_EEEE+0xcc0>
0x2a750 <_ZNK24ChiFeature2MCReprocessRT29RemoveInvalidImageBufferPortsEPK24ChiFeature2RequestObjectP21ChiFeature2PortIdListRNSt3__16vectorI21ChiFeature2IdentifierNS5_9allocatorIS7_EEEE+0xcc0>
<_ZNK24ChiFeature2MCReprocessRT29RemoveInvalidImageBufferPortsEPK24ChiFeature2RequestObjectP21ChiFeature2PortIdListRNSt3__16vectorI21ChiFeature2IdentifierNS5_9allocatorIS7_EEEE+0xcc0>
<_ZNK24ChiFeature2MCReprocessRT29RemoveInvalidImageBufferPortsEPK24ChiFeature2RequestObjectP21ChiFeature2PortIdListRNSt3__16vectorI21ChiFeature2IdentifierNS5_9allocatorIS7_EEEE+0xe1c>
0x2a8ac <_ZNK24ChiFeature2MCReprocessRT29RemoveInvalidImageBufferPortsEPK24ChiFeature2RequestObjectP21ChiFeature2PortIdListRNSt3__16vectorI21ChiFeature2IdentifierNS5_9allocatorIS7_EEEE+0xe1c>
<_ZNK24ChiFeature2MCReprocessRT29RemoveInvalidImageBufferPortsEPK24ChiFeature2RequestObjectP21ChiFeature2PortIdListRNSt3__16vectorI21ChiFeature2IdentifierNS5_9allocatorIS7_EEEE+0xcc0>
<_ZNK24ChiFeature2MCReprocessRT29RemoveInvalidImageBufferPortsEPK24ChiFeature2RequestObjectP21ChiFeature2PortIdListRNSt3__16vectorI21ChiFeature2IdentifierNS5_9allocatorIS7_EEEE+0xe1c>
<_ZNK24ChiFeature2MCReprocessRT29RemoveInvalidImageBufferPortsEPK24ChiFeature2RequestObjectP21ChiFeature2PortIdListRNSt3__16vectorI21ChiFeature2IdentifierNS5_9allocatorIS7_EEEE+0xd80>
<_ZNK24ChiFeature2MCReprocessRT29RemoveInvalidImageBufferPortsEPK24ChiFeature2RequestObjectP21ChiFeature2PortIdListRNSt3__16vectorI21ChiFeature2IdentifierNS5_9allocatorIS7_EEEE+0xe20>
<_ZNK24ChiFeature2MCReprocessRT29RemoveInvalidImageBufferPortsEPK24ChiFeature2RequestObjectP21ChiFeature2PortIdListRNSt3__16vectorI21ChiFeature2IdentifierNS5_9allocatorIS7_EEEE+0xe20>
<_ZNK24ChiFeature2MCReprocessRT29RemoveInvalidImageBufferPortsEPK24ChiFeature2RequestObjectP21ChiFeature2PortIdListRNSt3__16vectorI21ChiFeature2IdentifierNS5_9allocatorIS7_EEEE+0xe34>
<_ZNK24ChiFeature2MCReprocessRT29RemoveInvalidImageBufferPortsEPK24ChiFeature2RequestObjectP21ChiFeature2PortIdListRNSt3__16vectorI21ChiFeature2IdentifierNS5_9allocatorIS7_EEEE+0xe38>

0x2aec0 <_ZN24ChiFeature2MCReprocessRT32SetMultiCameraInputConfigurationEP11ChiMetadataPK10ChiUsecasePKN15ChiFeature2Base22ChiFeaturePipelineDataEPK17LogicalCameraInfo22ImageStabilizationMode+0x5d0>
0x44000 <_ZN24ChiFeature2MCReprocessRT32SetMultiCameraInputConfigurationEP11ChiMetadataPK10ChiUsecasePKN15ChiFeature2Base22ChiFeaturePipelineDataEPK17LogicalCameraInfo22ImageStabilizationMode+0xe0>
<_ZN24ChiFeature2MCReprocessRT32SetMultiCameraInputConfigurationEP11ChiMetadataPK10ChiUsecasePKN15ChiFeature2Base22ChiFeaturePipelineDataEPK17LogicalCameraInfo22ImageStabilizationMode+0xf0>
0x11000 <_ZN24ChiFeature2MCReprocessRT32SetMultiCameraInputConfigurationEP11ChiMetadataPK10ChiUsecasePKN15ChiFeature2Base22ChiFeaturePipelineDataEPK17LogicalCameraInfo22ImageStabilizationMode+0x28>
0xb000 <_ZN24ChiFeature2MCReprocessRT32SetMultiCameraInputConfigurationEP11ChiMetadataPK10ChiUsecasePKN15ChiFeature2Base22ChiFeaturePipelineDataEPK17LogicalCameraInfo22ImageStabilizationMode+0x34>
0x11000 <_ZN24ChiFeature2MCReprocessRT32SetMultiCameraInputConfigurationEP11ChiMetadataPK10ChiUsecasePKN15ChiFeature2Base22ChiFeaturePipelineDataEPK17LogicalCameraInfo22ImageStabilizationMode+0x50>
0xc000 <_ZN24ChiFeature2MCReprocessRT32SetMultiCameraInputConfigurationEP11ChiMetadataPK10ChiUsecasePKN15ChiFeature2Base22ChiFeaturePipelineDataEPK17LogicalCameraInfo22ImageStabilizationMode+0x40>
0xd000 <_ZN24ChiFeature2MCReprocessRT32SetMultiCameraInputConfigurationEP11ChiMetadataPK10ChiUsecasePKN15ChiFeature2Base22ChiFeaturePipelineDataEPK17LogicalCameraInfo22ImageStabilizationMode+0x48>
<_ZN6ChiLog9LogSystemEPKcS1_S1_S1_iS1_z@plt>
<_ZN24ChiFeature2MCReprocessRT32SetMultiCameraInputConfigurationEP11ChiMetadataPK10ChiUsecasePKN15ChiFeature2Base22ChiFeaturePipelineDataEPK17LogicalCameraInfo22ImageStabilizationMode+0x5d0>
<_ZN24ChiFeature2MCReprocessRT32SetMultiCameraInputConfigurationEP11ChiMetadataPK10ChiUsecasePKN15ChiFeature2Base22ChiFeaturePipelineDataEPK17LogicalCameraInfo22ImageStabilizationMode+0x5b8>
<_ZN24ChiFeature2MCReprocessRT35GetMappedInputPortIndexByTargetNameEPKcPKN15ChiFeature2Base22ChiFeaturePipelineDataERNSt3__13mapIS1_NS6_13unordered_mapIjNS6_3setIjNS6_4lessIjEENS6_9allocatorIjEEEENS6_4hashIjEENS6_8equal_toIjEENSC_INS6_4pairIKjSE_EEEEEE21ChiNameLessComparatorNSC_INSJ_IKS1_SN_EEEEEE@plt>
<_ZN24ChiFeature2MCReprocessRT32SetMultiCameraInputConfigurationEP11ChiMetadataPK10ChiUsecasePKN15ChiFeature2Base22ChiFeaturePipelineDataEPK17LogicalCameraInfo22ImageStabilizationMode+0x1f0>
<_ZN24ChiFeature2MCReprocessRT32SetMultiCameraInputConfigurationEP11ChiMetadataPK10ChiUsecasePKN15ChiFeature2Base22ChiFeaturePipelineDataEPK17LogicalCameraInfo22ImageStabilizationMode+0x1f0>
<_ZN24ChiFeature2MCReprocessRT32SetMultiCameraInputConfigurationEP11ChiMetadataPK10ChiUsecasePKN15ChiFeature2Base22ChiFeaturePipelineDataEPK17LogicalCameraInfo22ImageStabilizationMode+0x268>
<_ZN24ChiFeature2MCReprocessRT32SetMultiCameraInputConfigurationEP11ChiMetadataPK10ChiUsecasePKN15ChiFeature2Base22ChiFeaturePipelineDataEPK17LogicalCameraInfo22ImageStabilizationMode+0x658>
<_ZN24ChiFeature2MCReprocessRT32SetMultiCameraInputConfigurationEP11ChiMetadataPK10ChiUsecasePKN15ChiFeature2Base22ChiFeaturePipelineDataEPK17LogicalCameraInfo22ImageStabilizationMode+0x65c>
<_ZN24ChiFeature2MCReprocessRT32SetMultiCameraInputConfigurationEP11ChiMetadataPK10ChiUsecasePKN15ChiFeature2Base22ChiFeaturePipelineDataEPK17LogicalCameraInfo22ImageStabilizationMode+0x1e4>
0x2ac1c <_ZN24ChiFeature2MCReprocessRT32SetMultiCameraInputConfigurationEP11ChiMetadataPK10ChiUsecasePKN15ChiFeature2Base22ChiFeaturePipelineDataEPK17LogicalCameraInfo22ImageStabilizationMode+0x32c>
<_ZN24ChiFeature2MCReprocessRT32SetMultiCameraInputConfigurationEP11ChiMetadataPK10ChiUsecasePKN15ChiFeature2Base22ChiFeaturePipelineDataEPK17LogicalCameraInfo22ImageStabilizationMode+0x364>
0x45000 <_ZN24ChiFeature2MCReprocessRT32SetMultiCameraInputConfigurationEP11ChiMetadataPK10ChiUsecasePKN15ChiFeature2Base22ChiFeaturePipelineDataEPK17LogicalCameraInfo22ImageStabilizationMode+0x25c>
#0, 0x2a9d0 <_ZN24ChiFeature2MCReprocessRT32SetMultiCameraInputConfigurationEP11ChiMetadataPK10ChiUsecasePKN15ChiFeature2Base22ChiFeaturePipelineDataEPK17LogicalCameraInfo22ImageStabilizationMode+0xe0>
0x45000 <_ZN24ChiFeature2MCReprocessRT32SetMultiCameraInputConfigurationEP11ChiMetadataPK10ChiUsecasePKN15ChiFeature2Base22ChiFeaturePipelineDataEPK17LogicalCameraInfo22ImageStabilizationMode+0x26c>
<_ZN24ChiFeature2MCReprocessRT32SetMultiCameraInputConfigurationEP11ChiMetadataPK10ChiUsecasePKN15ChiFeature2Base22ChiFeaturePipelineDataEPK17LogicalCameraInfo22ImageStabilizationMode+0x8c>
0x11000 <_ZN24ChiFeature2MCReprocessRT32SetMultiCameraInputConfigurationEP11ChiMetadataPK10ChiUsecasePKN15ChiFeature2Base22ChiFeaturePipelineDataEPK17LogicalCameraInfo22ImageStabilizationMode+0x1b0>
0x11000 <_ZN24ChiFeature2MCReprocessRT32SetMultiCameraInputConfigurationEP11ChiMetadataPK10ChiUsecasePKN15ChiFeature2Base22ChiFeaturePipelineDataEPK17LogicalCameraInfo22ImageStabilizationMode+0x1d0>
0xb000 <_ZN24ChiFeature2MCReprocessRT32SetMultiCameraInputConfigurationEP11ChiMetadataPK10ChiUsecasePKN15ChiFeature2Base22ChiFeaturePipelineDataEPK17LogicalCameraInfo22ImageStabilizationMode+0x1bc>
0xc000 <_ZN24ChiFeature2MCReprocessRT32SetMultiCameraInputConfigurationEP11ChiMetadataPK10ChiUsecasePKN15ChiFeature2Base22ChiFeaturePipelineDataEPK17LogicalCameraInfo22ImageStabilizationMode+0x1c4>
<_ZN24ChiFeature2MCReprocessRT32SetMultiCameraInputConfigurationEP11ChiMetadataPK10ChiUsecasePKN15ChiFeature2Base22ChiFeaturePipelineDataEPK17LogicalCameraInfo22ImageStabilizationMode+0x8c>
0x45000 <_ZN24ChiFeature2MCReprocessRT32SetMultiCameraInputConfigurationEP11ChiMetadataPK10ChiUsecasePKN15ChiFeature2Base22ChiFeaturePipelineDataEPK17LogicalCameraInfo22ImageStabilizationMode+0x2d4>
#5, 0x2a9d0 <_ZN24ChiFeature2MCReprocessRT32SetMultiCameraInputConfigurationEP11ChiMetadataPK10ChiUsecasePKN15ChiFeature2Base22ChiFeaturePipelineDataEPK17LogicalCameraInfo22ImageStabilizationMode+0xe0>
0x45000 <_ZN24ChiFeature2MCReprocessRT32SetMultiCameraInputConfigurationEP11ChiMetadataPK10ChiUsecasePKN15ChiFeature2Base22ChiFeaturePipelineDataEPK17LogicalCameraInfo22ImageStabilizationMode+0x2e4>
<_ZN24ChiFeature2MCReprocessRT32SetMultiCameraInputConfigurationEP11ChiMetadataPK10ChiUsecasePKN15ChiFeature2Base22ChiFeaturePipelineDataEPK17LogicalCameraInfo22ImageStabilizationMode+0x2d8>
0x11000 <_ZN24ChiFeature2MCReprocessRT32SetMultiCameraInputConfigurationEP11ChiMetadataPK10ChiUsecasePKN15ChiFeature2Base22ChiFeaturePipelineDataEPK17LogicalCameraInfo22ImageStabilizationMode+0x228>
0x11000 <_ZN24ChiFeature2MCReprocessRT32SetMultiCameraInputConfigurationEP11ChiMetadataPK10ChiUsecasePKN15ChiFeature2Base22ChiFeaturePipelineDataEPK17LogicalCameraInfo22ImageStabilizationMode+0x244>
0xb000 <_ZN24ChiFeature2MCReprocessRT32SetMultiCameraInputConfigurationEP11ChiMetadataPK10ChiUsecasePKN15ChiFeature2Base22ChiFeaturePipelineDataEPK17LogicalCameraInfo22ImageStabilizationMode+0x230>
0xc000 <_ZN24ChiFeature2MCReprocessRT32SetMultiCameraInputConfigurationEP11ChiMetadataPK10ChiUsecasePKN15ChiFeature2Base22ChiFeaturePipelineDataEPK17LogicalCameraInfo22ImageStabilizationMode+0x238>
0x11000 <_ZN24ChiFeature2MCReprocessRT32SetMultiCameraInputConfigurationEP11ChiMetadataPK10ChiUsecasePKN15ChiFeature2Base22ChiFeaturePipelineDataEPK17LogicalCameraInfo22ImageStabilizationMode+0x274>
0xf000 <_ZN24ChiFeature2MCReprocessRT32SetMultiCameraInputConfigurationEP11ChiMetadataPK10ChiUsecasePKN15ChiFeature2Base22ChiFeaturePipelineDataEPK17LogicalCameraInfo22ImageStabilizationMode+0x288>
0x10000 <_ZN24ChiFeature2MCReprocessRT32SetMultiCameraInputConfigurationEP11ChiMetadataPK10ChiUsecasePKN15ChiFeature2Base22ChiFeaturePipelineDataEPK17LogicalCameraInfo22ImageStabilizationMode+0x294>
0xc000 <_ZN24ChiFeature2MCReprocessRT32SetMultiCameraInputConfigurationEP11ChiMetadataPK10ChiUsecasePKN15ChiFeature2Base22ChiFeaturePipelineDataEPK17LogicalCameraInfo22ImageStabilizationMode+0x288>
0xe000 <_ZN24ChiFeature2MCReprocessRT32SetMultiCameraInputConfigurationEP11ChiMetadataPK10ChiUsecasePKN15ChiFeature2Base22ChiFeaturePipelineDataEPK17LogicalCameraInfo22ImageStabilizationMode+0x294>
<_ZN6ChiLog9LogSystemEPKcS1_S1_S1_iS1_z@plt>
<_ZN24ChiFeature2MCReprocessRT32SetMultiCameraInputConfigurationEP11ChiMetadataPK10ChiUsecasePKN15ChiFeature2Base22ChiFeaturePipelineDataEPK17LogicalCameraInfo22ImageStabilizationMode+0xe0>
<_ZN24ChiFeature2MCReprocessRT32SetMultiCameraInputConfigurationEP11ChiMetadataPK10ChiUsecasePKN15ChiFeature2Base22ChiFeaturePipelineDataEPK17LogicalCameraInfo22ImageStabilizationMode+0x354>
<_ZN24ChiFeature2MCReprocessRT32SetMultiCameraInputConfigurationEP11ChiMetadataPK10ChiUsecasePKN15ChiFeature2Base22ChiFeaturePipelineDataEPK17LogicalCameraInfo22ImageStabilizationMode+0x4e8>
<_ZN24ChiFeature2MCReprocessRT32SetMultiCameraInputConfigurationEP11ChiMetadataPK10ChiUsecasePKN15ChiFeature2Base22ChiFeaturePipelineDataEPK17LogicalCameraInfo22ImageStabilizationMode+0x4ac>
<_ZN24ChiFeature2MCReprocessRT32SetMultiCameraInputConfigurationEP11ChiMetadataPK10ChiUsecasePKN15ChiFeature2Base22ChiFeaturePipelineDataEPK17LogicalCameraInfo22ImageStabilizationMode+0x4a4>
<_ZN24ChiFeature2MCReprocessRT32SetMultiCameraInputConfigurationEP11ChiMetadataPK10ChiUsecasePKN15ChiFeature2Base22ChiFeaturePipelineDataEPK17LogicalCameraInfo22ImageStabilizationMode+0x4a4>
0x45000 <_ZN24ChiFeature2MCReprocessRT32SetMultiCameraInputConfigurationEP11ChiMetadataPK10ChiUsecasePKN15ChiFeature2Base22ChiFeaturePipelineDataEPK17LogicalCameraInfo22ImageStabilizationMode+0x3f8>
#3, 0x2a9d0 <_ZN24ChiFeature2MCReprocessRT32SetMultiCameraInputConfigurationEP11ChiMetadataPK10ChiUsecasePKN15ChiFeature2Base22ChiFeaturePipelineDataEPK17LogicalCameraInfo22ImageStabilizationMode+0xe0>
0x45000 <_ZN24ChiFeature2MCReprocessRT32SetMultiCameraInputConfigurationEP11ChiMetadataPK10ChiUsecasePKN15ChiFeature2Base22ChiFeaturePipelineDataEPK17LogicalCameraInfo22ImageStabilizationMode+0x414>
<_ZN24ChiFeature2MCReprocessRT32SetMultiCameraInputConfigurationEP11ChiMetadataPK10ChiUsecasePKN15ChiFeature2Base22ChiFeaturePipelineDataEPK17LogicalCameraInfo22ImageStabilizationMode+0x42c>
0x11000 <_ZN24ChiFeature2MCReprocessRT32SetMultiCameraInputConfigurationEP11ChiMetadataPK10ChiUsecasePKN15ChiFeature2Base22ChiFeaturePipelineDataEPK17LogicalCameraInfo22ImageStabilizationMode+0x360>
0x11000 <_ZN24ChiFeature2MCReprocessRT32SetMultiCameraInputConfigurationEP11ChiMetadataPK10ChiUsecasePKN15ChiFeature2Base22ChiFeaturePipelineDataEPK17LogicalCameraInfo22ImageStabilizationMode+0x384>
0xe000 <_ZN24ChiFeature2MCReprocessRT32SetMultiCameraInputConfigurationEP11ChiMetadataPK10ChiUsecasePKN15ChiFeature2Base22ChiFeaturePipelineDataEPK17LogicalCameraInfo22ImageStabilizationMode+0x384>
0xc000 <_ZN24ChiFeature2MCReprocessRT32SetMultiCameraInputConfigurationEP11ChiMetadataPK10ChiUsecasePKN15ChiFeature2Base22ChiFeaturePipelineDataEPK17LogicalCameraInfo22ImageStabilizationMode+0x39c>
0x11000 <_ZN24ChiFeature2MCReprocessRT32SetMultiCameraInputConfigurationEP11ChiMetadataPK10ChiUsecasePKN15ChiFeature2Base22ChiFeaturePipelineDataEPK17LogicalCameraInfo22ImageStabilizationMode+0x3c8>
0x11000 <_ZN24ChiFeature2MCReprocessRT32SetMultiCameraInputConfigurationEP11ChiMetadataPK10ChiUsecasePKN15ChiFeature2Base22ChiFeaturePipelineDataEPK17LogicalCameraInfo22ImageStabilizationMode+0x400>
0xe000 <_ZN24ChiFeature2MCReprocessRT32SetMultiCameraInputConfigurationEP11ChiMetadataPK10ChiUsecasePKN15ChiFeature2Base22ChiFeaturePipelineDataEPK17LogicalCameraInfo22ImageStabilizationMode+0x3f8>
0xc000 <_ZN24ChiFeature2MCReprocessRT32SetMultiCameraInputConfigurationEP11ChiMetadataPK10ChiUsecasePKN15ChiFeature2Base22ChiFeaturePipelineDataEPK17LogicalCameraInfo22ImageStabilizationMode+0x3f4>
0xe000 <_ZN24ChiFeature2MCReprocessRT32SetMultiCameraInputConfigurationEP11ChiMetadataPK10ChiUsecasePKN15ChiFeature2Base22ChiFeaturePipelineDataEPK17LogicalCameraInfo22ImageStabilizationMode+0x400>
<_ZN6ChiLog9LogSystemEPKcS1_S1_S1_iS1_z@plt>
<_ZN24ChiFeature2MCReprocessRT32SetMultiCameraInputConfigurationEP11ChiMetadataPK10ChiUsecasePKN15ChiFeature2Base22ChiFeaturePipelineDataEPK17LogicalCameraInfo22ImageStabilizationMode+0xe0>
<_ZN24ChiFeature2MCReprocessRT32SetMultiCameraInputConfigurationEP11ChiMetadataPK10ChiUsecasePKN15ChiFeature2Base22ChiFeaturePipelineDataEPK17LogicalCameraInfo22ImageStabilizationMode+0x38c>
<_ZN24ChiFeature2MCReprocessRT32SetMultiCameraInputConfigurationEP11ChiMetadataPK10ChiUsecasePKN15ChiFeature2Base22ChiFeaturePipelineDataEPK17LogicalCameraInfo22ImageStabilizationMode+0x4c8>
<_ZN24ChiFeature2MCReprocessRT32SetMultiCameraInputConfigurationEP11ChiMetadataPK10ChiUsecasePKN15ChiFeature2Base22ChiFeaturePipelineDataEPK17LogicalCameraInfo22ImageStabilizationMode+0x364>
<_ZN24ChiFeature2MCReprocessRT32SetMultiCameraInputConfigurationEP11ChiMetadataPK10ChiUsecasePKN15ChiFeature2Base22ChiFeaturePipelineDataEPK17LogicalCameraInfo22ImageStabilizationMode+0x4e8>
<_ZN24ChiFeature2MCReprocessRT32SetMultiCameraInputConfigurationEP11ChiMetadataPK10ChiUsecasePKN15ChiFeature2Base22ChiFeaturePipelineDataEPK17LogicalCameraInfo22ImageStabilizationMode+0x38c>
0x45000 <_ZN24ChiFeature2MCReprocessRT32SetMultiCameraInputConfigurationEP11ChiMetadataPK10ChiUsecasePKN15ChiFeature2Base22ChiFeaturePipelineDataEPK17LogicalCameraInfo22ImageStabilizationMode+0x554>
#3, 0x2ac54 <_ZN24ChiFeature2MCReprocessRT32SetMultiCameraInputConfigurationEP11ChiMetadataPK10ChiUsecasePKN15ChiFeature2Base22ChiFeaturePipelineDataEPK17LogicalCameraInfo22ImageStabilizationMode+0x364>
0x45000 <_ZN24ChiFeature2MCReprocessRT32SetMultiCameraInputConfigurationEP11ChiMetadataPK10ChiUsecasePKN15ChiFeature2Base22ChiFeaturePipelineDataEPK17LogicalCameraInfo22ImageStabilizationMode+0x564>
<_ZN24ChiFeature2MCReprocessRT32SetMultiCameraInputConfigurationEP11ChiMetadataPK10ChiUsecasePKN15ChiFeature2Base22ChiFeaturePipelineDataEPK17LogicalCameraInfo22ImageStabilizationMode+0x55c>
0x11000 <_ZN24ChiFeature2MCReprocessRT32SetMultiCameraInputConfigurationEP11ChiMetadataPK10ChiUsecasePKN15ChiFeature2Base22ChiFeaturePipelineDataEPK17LogicalCameraInfo22ImageStabilizationMode+0x4a8>
0x11000 <_ZN24ChiFeature2MCReprocessRT32SetMultiCameraInputConfigurationEP11ChiMetadataPK10ChiUsecasePKN15ChiFeature2Base22ChiFeaturePipelineDataEPK17LogicalCameraInfo22ImageStabilizationMode+0x4c0>
0x11000 <_ZN24ChiFeature2MCReprocessRT32SetMultiCameraInputConfigurationEP11ChiMetadataPK10ChiUsecasePKN15ChiFeature2Base22ChiFeaturePipelineDataEPK17LogicalCameraInfo22ImageStabilizationMode+0x4cc>
0x10000 <_ZN24ChiFeature2MCReprocessRT32SetMultiCameraInputConfigurationEP11ChiMetadataPK10ChiUsecasePKN15ChiFeature2Base22ChiFeaturePipelineDataEPK17LogicalCameraInfo22ImageStabilizationMode+0x4cc>
0xc000 <_ZN24ChiFeature2MCReprocessRT32SetMultiCameraInputConfigurationEP11ChiMetadataPK10ChiUsecasePKN15ChiFeature2Base22ChiFeaturePipelineDataEPK17LogicalCameraInfo22ImageStabilizationMode+0x4c0>
0x11000 <_ZN24ChiFeature2MCReprocessRT32SetMultiCameraInputConfigurationEP11ChiMetadataPK10ChiUsecasePKN15ChiFeature2Base22ChiFeaturePipelineDataEPK17LogicalCameraInfo22ImageStabilizationMode+0x4f8>
0x11000 <_ZN24ChiFeature2MCReprocessRT32SetMultiCameraInputConfigurationEP11ChiMetadataPK10ChiUsecasePKN15ChiFeature2Base22ChiFeaturePipelineDataEPK17LogicalCameraInfo22ImageStabilizationMode+0x510>
0xe000 <_ZN24ChiFeature2MCReprocessRT32SetMultiCameraInputConfigurationEP11ChiMetadataPK10ChiUsecasePKN15ChiFeature2Base22ChiFeaturePipelineDataEPK17LogicalCameraInfo22ImageStabilizationMode+0x510>
0x11000 <_ZN24ChiFeature2MCReprocessRT32SetMultiCameraInputConfigurationEP11ChiMetadataPK10ChiUsecasePKN15ChiFeature2Base22ChiFeaturePipelineDataEPK17LogicalCameraInfo22ImageStabilizationMode+0x524>
0xc000 <_ZN24ChiFeature2MCReprocessRT32SetMultiCameraInputConfigurationEP11ChiMetadataPK10ChiUsecasePKN15ChiFeature2Base22ChiFeaturePipelineDataEPK17LogicalCameraInfo22ImageStabilizationMode+0x514>
0xb000 <_ZN24ChiFeature2MCReprocessRT32SetMultiCameraInputConfigurationEP11ChiMetadataPK10ChiUsecasePKN15ChiFeature2Base22ChiFeaturePipelineDataEPK17LogicalCameraInfo22ImageStabilizationMode+0x514>
<_ZN6ChiLog9LogSystemEPKcS1_S1_S1_iS1_z@plt>
<_ZN24ChiFeature2MCReprocessRT32SetMultiCameraInputConfigurationEP11ChiMetadataPK10ChiUsecasePKN15ChiFeature2Base22ChiFeaturePipelineDataEPK17LogicalCameraInfo22ImageStabilizationMode+0x364>
<_ZN24ChiFeature2MCReprocessRT32SetMultiCameraInputConfigurationEP11ChiMetadataPK10ChiUsecasePKN15ChiFeature2Base22ChiFeaturePipelineDataEPK17LogicalCameraInfo22ImageStabilizationMode+0xfc>
0x11000 <_ZN24ChiFeature2MCReprocessRT32SetMultiCameraInputConfigurationEP11ChiMetadataPK10ChiUsecasePKN15ChiFeature2Base22ChiFeaturePipelineDataEPK17LogicalCameraInfo22ImageStabilizationMode+0x590>
0xe000 <_ZN24ChiFeature2MCReprocessRT32SetMultiCameraInputConfigurationEP11ChiMetadataPK10ChiUsecasePKN15ChiFeature2Base22ChiFeaturePipelineDataEPK17LogicalCameraInfo22ImageStabilizationMode+0x588>
<_ZN24ChiFeature2MCReprocessRT35GetMappedInputPortIndexByTargetNameEPKcPKN15ChiFeature2Base22ChiFeaturePipelineDataERNSt3__13mapIS1_NS6_13unordered_mapIjNS6_3setIjNS6_4lessIjEENS6_9allocatorIjEEEENS6_4hashIjEENS6_8equal_toIjEENSC_INS6_4pairIKjSE_EEEEEE21ChiNameLessComparatorNSC_INSJ_IKS1_SN_EEEEEE+0x708>
<_ZN24ChiFeature2MCReprocessRT32SetMultiCameraInputConfigurationEP11ChiMetadataPK10ChiUsecasePKN15ChiFeature2Base22ChiFeaturePipelineDataEPK17LogicalCameraInfo22ImageStabilizationMode+0x660>

<_ZN24ChiFeature2MCReprocessRT19SetStreamDimensionsEP11ChiMetadata+0x334>
0x45000 <_ZN24ChiFeature2MCReprocessRT19SetStreamDimensionsEP11ChiMetadata+0xa8>
0x45000 <_ZN24ChiFeature2MCReprocessRT19SetStreamDimensionsEP11ChiMetadata+0xac>
0xb000 <_ZN24ChiFeature2MCReprocessRT32SetMultiCameraInputConfigurationEP11ChiMetadataPK10ChiUsecasePKN15ChiFeature2Base22ChiFeaturePipelineDataEPK17LogicalCameraInfo22ImageStabilizationMode+0x634>
0x11000 <_ZN24ChiFeature2MCReprocessRT32SetMultiCameraInputConfigurationEP11ChiMetadataPK10ChiUsecasePKN15ChiFeature2Base22ChiFeaturePipelineDataEPK17LogicalCameraInfo22ImageStabilizationMode+0x650>
0xe000 <_ZN24ChiFeature2MCReprocessRT32SetMultiCameraInputConfigurationEP11ChiMetadataPK10ChiUsecasePKN15ChiFeature2Base22ChiFeaturePipelineDataEPK17LogicalCameraInfo22ImageStabilizationMode+0x648>
<_ZN24ChiFeature2MCReprocessRT19SetStreamDimensionsEP11ChiMetadata+0xcc>
0x10000 <_ZN24ChiFeature2MCReprocessRT19SetStreamDimensionsEP11ChiMetadata+0x2c>
0xf000 <_ZN24ChiFeature2MCReprocessRT19SetStreamDimensionsEP11ChiMetadata+0x2c>
0xe000 <_ZN24ChiFeature2MCReprocessRT19SetStreamDimensionsEP11ChiMetadata+0x2c>
<_ZN6ChiLog9LogSystemEPKcS1_S1_S1_iS1_z@plt>
0x2b080 <_ZN24ChiFeature2MCReprocessRT19SetStreamDimensionsEP11ChiMetadata+0x128>
<_ZN24ChiFeature2MCReprocessRT19SetStreamDimensionsEP11ChiMetadata+0x334>
#5, 0x2b010 <_ZN24ChiFeature2MCReprocessRT19SetStreamDimensionsEP11ChiMetadata+0xb8>
<_ZN24ChiFeature2MCReprocessRT19SetStreamDimensionsEP11ChiMetadata+0x74>
0x11000 <_ZN24ChiFeature2MCReprocessRT19SetStreamDimensionsEP11ChiMetadata+0x98>
0xb000 <_ZN24ChiFeature2MCReprocessRT19SetStreamDimensionsEP11ChiMetadata+0x84>
<_ZN24ChiFeature2MCReprocessRT19SetStreamDimensionsEP11ChiMetadata+0x74>
<_ZN24ChiFeature2MCReprocessRT19SetStreamDimensionsEP11ChiMetadata+0x220>
<_ZN24ChiFeature2MCReprocessRT19SetStreamDimensionsEP11ChiMetadata+0xc0>
#5, 0x2b124 <_ZN24ChiFeature2MCReprocessRT19SetStreamDimensionsEP11ChiMetadata+0x1cc>
<_ZN24ChiFeature2MCReprocessRT19SetStreamDimensionsEP11ChiMetadata+0x18c>
0x11000 <_ZN24ChiFeature2MCReprocessRT19SetStreamDimensionsEP11ChiMetadata+0x100>
0xf000 <_ZN24ChiFeature2MCReprocessRT19SetStreamDimensionsEP11ChiMetadata+0xfc>
0xf000 <_ZN24ChiFeature2MCReprocessRT19SetStreamDimensionsEP11ChiMetadata+0x130>
0x10000 <_ZN24ChiFeature2MCReprocessRT19SetStreamDimensionsEP11ChiMetadata+0x140>
0x10000 <_ZN24ChiFeature2MCReprocessRT19SetStreamDimensionsEP11ChiMetadata+0x144>
<_ZN6ChiLog9LogSystemEPKcS1_S1_S1_iS1_z@plt>
0x2b018 <_ZN24ChiFeature2MCReprocessRT19SetStreamDimensionsEP11ChiMetadata+0xc0>
0xe000 <_ZN24ChiFeature2MCReprocessRT19SetStreamDimensionsEP11ChiMetadata+0x188>
<_ZN24ChiFeature2MCReprocessRT19SetStreamDimensionsEP11ChiMetadata+0xc0>
<_ZN24ChiFeature2MCReprocessRT19SetStreamDimensionsEP11ChiMetadata+0xc0>
<_ZN24ChiFeature2MCReprocessRT19SetStreamDimensionsEP11ChiMetadata+0xc0>
#5, 0x2b228 <_ZN24ChiFeature2MCReprocessRT19SetStreamDimensionsEP11ChiMetadata+0x2d0>
<_ZN24ChiFeature2MCReprocessRT19SetStreamDimensionsEP11ChiMetadata+0x290>
0x11000 <_ZN24ChiFeature2MCReprocessRT19SetStreamDimensionsEP11ChiMetadata+0x204>
0xf000 <_ZN24ChiFeature2MCReprocessRT19SetStreamDimensionsEP11ChiMetadata+0x200>
0xf000 <_ZN24ChiFeature2MCReprocessRT19SetStreamDimensionsEP11ChiMetadata+0x234>
0x10000 <_ZN24ChiFeature2MCReprocessRT19SetStreamDimensionsEP11ChiMetadata+0x244>
0xb000 <_ZN24ChiFeature2MCReprocessRT19SetStreamDimensionsEP11ChiMetadata+0x234>
<_ZN6ChiLog9LogSystemEPKcS1_S1_S1_iS1_z@plt>
0x2b280 <_ZN24ChiFeature2MCReprocessRT19SetStreamDimensionsEP11ChiMetadata+0x328>
0xc000 <_ZN24ChiFeature2MCReprocessRT19SetStreamDimensionsEP11ChiMetadata+0x284>
0x45000 <_ZN24ChiFeature2MCReprocessRT22UpdateStreamCropEnableEP11ChiMetadataPK24ChiFeature2InstanceProps+0x18>
<_ZN24ChiFeature2MCReprocessRT19SetStreamDimensionsEP11ChiMetadata+0xc0>
<_ZN24ChiFeature2MCReprocessRT19SetStreamDimensionsEP11ChiMetadata+0x36c>

0x2b368 <_ZN24ChiFeature2MCReprocessRT22UpdateStreamCropEnableEP11ChiMetadataPK24ChiFeature2InstanceProps+0xa0>
<_ZN15ExtensionModule11GetInstanceEv@plt>
0x2b328 <_ZN24ChiFeature2MCReprocessRT22UpdateStreamCropEnableEP11ChiMetadataPK24ChiFeature2InstanceProps+0x60>
<_ZN24ChiFeature2MCReprocessRT22UpdateStreamCropEnableEP11ChiMetadataPK24ChiFeature2InstanceProps+0x60>
0x2b394 <_ZN24ChiFeature2MCReprocessRT22UpdateStreamCropEnableEP11ChiMetadataPK24ChiFeature2InstanceProps+0xcc>
0xf000 <_ZN24ChiFeature2MCReprocessRT22UpdateStreamCropEnableEP11ChiMetadataPK24ChiFeature2InstanceProps+0x10>
0xc000 <_ZN24ChiFeature2MCReprocessRT22UpdateStreamCropEnableEP11ChiMetadataPK24ChiFeature2InstanceProps+0x8>
<_ZN24ChiFeature2MCReprocessRT22UpdateStreamCropEnableEP11ChiMetadataPK24ChiFeature2InstanceProps+0x25c>
0x44000 <_ZN24ChiFeature2MCReprocessRT22UpdateStreamCropEnableEP11ChiMetadataPK24ChiFeature2InstanceProps+0x134>
<_ZN24ChiFeature2MCReprocessRT22UpdateStreamCropEnableEP11ChiMetadataPK24ChiFeature2InstanceProps+0x190>
<_ZN24ChiFeature2MCReprocessRT22UpdateStreamCropEnableEP11ChiMetadataPK24ChiFeature2InstanceProps+0x1b8>
0x2b400 <_ZN24ChiFeature2MCReprocessRT22UpdateStreamCropEnableEP11ChiMetadataPK24ChiFeature2InstanceProps+0x138>
<_ZN24ChiFeature2MCReprocessRT22UpdateStreamCropEnableEP11ChiMetadataPK24ChiFeature2InstanceProps+0x1e0>
#6, 0x2b3e8 <_ZN24ChiFeature2MCReprocessRT22UpdateStreamCropEnableEP11ChiMetadataPK24ChiFeature2InstanceProps+0x120>
<_ZN24ChiFeature2MCReprocessRT22UpdateStreamCropEnableEP11ChiMetadataPK24ChiFeature2InstanceProps+0x230>
#5, 0x2b400 <_ZN24ChiFeature2MCReprocessRT22UpdateStreamCropEnableEP11ChiMetadataPK24ChiFeature2InstanceProps+0x138>
<_ZN24ChiFeature2MCReprocessRT22UpdateStreamCropEnableEP11ChiMetadataPK24ChiFeature2InstanceProps+0x20c>
#0, 0x2b320 <_ZN24ChiFeature2MCReprocessRT22UpdateStreamCropEnableEP11ChiMetadataPK24ChiFeature2InstanceProps+0x58>
0x2b328 <_ZN24ChiFeature2MCReprocessRT22UpdateStreamCropEnableEP11ChiMetadataPK24ChiFeature2InstanceProps+0x60>
0x2b328 <_ZN24ChiFeature2MCReprocessRT22UpdateStreamCropEnableEP11ChiMetadataPK24ChiFeature2InstanceProps+0x60>
0xb000 <_ZN24ChiFeature2MCReprocessRT22UpdateStreamCropEnableEP11ChiMetadataPK24ChiFeature2InstanceProps+0xc8>
0x2b444 <_ZN24ChiFeature2MCReprocessRT22UpdateStreamCropEnableEP11ChiMetadataPK24ChiFeature2InstanceProps+0x17c>
<_ZN24ChiFeature2MCReprocessRT22UpdateStreamCropEnableEP11ChiMetadataPK24ChiFeature2InstanceProps+0x158>
<_ZN24ChiFeature2MCReprocessRT22UpdateStreamCropEnableEP11ChiMetadataPK24ChiFeature2InstanceProps+0x60>
<_ZN24ChiFeature2MCReprocessRT22UpdateStreamCropEnableEP11ChiMetadataPK24ChiFeature2InstanceProps+0x58>
<_ZN24ChiFeature2MCReprocessRT22UpdateStreamCropEnableEP11ChiMetadataPK24ChiFeature2InstanceProps+0x60>
<_ZN24ChiFeature2MCReprocessRT22UpdateStreamCropEnableEP11ChiMetadataPK24ChiFeature2InstanceProps+0xec>
0x2b3bc <_ZN24ChiFeature2MCReprocessRT22UpdateStreamCropEnableEP11ChiMetadataPK24ChiFeature2InstanceProps+0xf4>
<_ZN24ChiFeature2MCReprocessRT22UpdateStreamCropEnableEP11ChiMetadataPK24ChiFeature2InstanceProps+0x138>
#6, 0x2b3d4 <_ZN24ChiFeature2MCReprocessRT22UpdateStreamCropEnableEP11ChiMetadataPK24ChiFeature2InstanceProps+0x10c>
<_ZN24ChiFeature2MCReprocessRT22UpdateStreamCropEnableEP11ChiMetadataPK24ChiFeature2InstanceProps+0x120>
#0, 0x2b320 <_ZN24ChiFeature2MCReprocessRT22UpdateStreamCropEnableEP11ChiMetadataPK24ChiFeature2InstanceProps+0x58>
<_ZN24ChiFeature2MCReprocessRT22UpdateStreamCropEnableEP11ChiMetadataPK24ChiFeature2InstanceProps+0x138>
#5, 0x2b3e8 <_ZN24ChiFeature2MCReprocessRT22UpdateStreamCropEnableEP11ChiMetadataPK24ChiFeature2InstanceProps+0x120>
<_ZN24ChiFeature2MCReprocessRT22UpdateStreamCropEnableEP11ChiMetadataPK24ChiFeature2InstanceProps+0x138>
0x2b640 <_ZN24ChiFeature2MCReprocessRT22UpdateStreamCropEnableEP11ChiMetadataPK24ChiFeature2InstanceProps+0x378>
<_ZN24ChiFeature2MCReprocessRT22UpdateStreamCropEnableEP11ChiMetadataPK24ChiFeature2InstanceProps+0x2b8>
<_ZN24ChiFeature2MCReprocessRT22UpdateStreamCropEnableEP11ChiMetadataPK24ChiFeature2InstanceProps+0x380>
0x2b5b0 <_ZN24ChiFeature2MCReprocessRT22UpdateStreamCropEnableEP11ChiMetadataPK24ChiFeature2InstanceProps+0x2e8>
0x2b5b0 <_ZN24ChiFeature2MCReprocessRT22UpdateStreamCropEnableEP11ChiMetadataPK24ChiFeature2InstanceProps+0x2e8>
0x2b5b0 <_ZN24ChiFeature2MCReprocessRT22UpdateStreamCropEnableEP11ChiMetadataPK24ChiFeature2InstanceProps+0x2e8>
<_ZN24ChiFeature2MCReprocessRT22UpdateStreamCropEnableEP11ChiMetadataPK24ChiFeature2InstanceProps+0x2ac>
<_ZN24ChiFeature2MCReprocessRT22UpdateStreamCropEnableEP11ChiMetadataPK24ChiFeature2InstanceProps+0x2f4>
<_ZN24ChiFeature2MCReprocessRT22UpdateStreamCropEnableEP11ChiMetadataPK24ChiFeature2InstanceProps+0x2ac>
<_ZN24ChiFeature2MCReprocessRT22UpdateStreamCropEnableEP11ChiMetadataPK24ChiFeature2InstanceProps+0x310>
0x2b5e4 <_ZN24ChiFeature2MCReprocessRT22UpdateStreamCropEnableEP11ChiMetadataPK24ChiFeature2InstanceProps+0x31c>
<_ZN24ChiFeature2MCReprocessRT22UpdateStreamCropEnableEP11ChiMetadataPK24ChiFeature2InstanceProps+0x31c>
<_ZN24ChiFeature2MCReprocessRT22UpdateStreamCropEnableEP11ChiMetadataPK24ChiFeature2InstanceProps+0x334>
<_ZN15UsecaseSelector15IsPreviewStreamEPK14camera3_stream@plt>
<_ZN15UsecaseSelector13IsVideoStreamEPK14camera3_stream@plt>
<_ZN24ChiFeature2MCReprocessRT22UpdateStreamCropEnableEP11ChiMetadataPK24ChiFeature2InstanceProps+0x350>
0x2b574 <_ZN24ChiFeature2MCReprocessRT22UpdateStreamCropEnableEP11ChiMetadataPK24ChiFeature2InstanceProps+0x2ac>
<_ZN24ChiFeature2MCReprocessRT22UpdateStreamCropEnableEP11ChiMetadataPK24ChiFeature2InstanceProps+0x2ac>
<_ZN24ChiFeature2MCReprocessRT22UpdateStreamCropEnableEP11ChiMetadataPK24ChiFeature2InstanceProps+0x2ac>
0x45000 <_ZN24ChiFeature2MCReprocessRT22UpdateStreamCropEnableEP11ChiMetadataPK24ChiFeature2InstanceProps+0x3e8>
#5, 0x2b70c <_ZN24ChiFeature2MCReprocessRT22UpdateStreamCropEnableEP11ChiMetadataPK24ChiFeature2InstanceProps+0x444>
0x45000 <_ZN24ChiFeature2MCReprocessRT22UpdateStreamCropEnableEP11ChiMetadataPK24ChiFeature2InstanceProps+0x3fc>
0xb000 <_ZN24ChiFeature2MCReprocessRT22UpdateStreamCropEnableEP11ChiMetadataPK24ChiFeature2InstanceProps+0x318>
<_ZN24ChiFeature2MCReprocessRT22UpdateStreamCropEnableEP11ChiMetadataPK24ChiFeature2InstanceProps+0x3f8>
0x11000 <_ZN24ChiFeature2MCReprocessRT22UpdateStreamCropEnableEP11ChiMetadataPK24ChiFeature2InstanceProps+0x35c>
0xf000 <_ZN24ChiFeature2MCReprocessRT22UpdateStreamCropEnableEP11ChiMetadataPK24ChiFeature2InstanceProps+0x358>
0xe000 <_ZN24ChiFeature2MCReprocessRT22UpdateStreamCropEnableEP11ChiMetadataPK24ChiFeature2InstanceProps+0x358>
0xf000 <_ZN24ChiFeature2MCReprocessRT22UpdateStreamCropEnableEP11ChiMetadataPK24ChiFeature2InstanceProps+0x39c>
0x10000 <_ZN24ChiFeature2MCReprocessRT22UpdateStreamCropEnableEP11ChiMetadataPK24ChiFeature2InstanceProps+0x3a8>
0xe000 <_ZN24ChiFeature2MCReprocessRT22UpdateStreamCropEnableEP11ChiMetadataPK24ChiFeature2InstanceProps+0x3a4>
0xb000 <_ZN24ChiFeature2MCReprocessRT22UpdateStreamCropEnableEP11ChiMetadataPK24ChiFeature2InstanceProps+0x39c>
<_ZN6ChiLog9LogSystemEPKcS1_S1_S1_iS1_z@plt>

0x2b7bc <_ZN24ChiFeature2MCReprocessRT35GetMappedInputPortIndexByTargetNameEPKcPKN15ChiFeature2Base22ChiFeaturePipelineDataERNSt3__13mapIS1_NS6_13unordered_mapIjNS6_3setIjNS6_4lessIjEENS6_9allocatorIjEEEENS6_4hashIjEENS6_8equal_toIjEENSC_INS6_4pairIKjSE_EEEEEE21ChiNameLessComparatorNSC_INSJ_IKS1_SN_EEEEEE+0x84>
#31, 0x2b798 <_ZN24ChiFeature2MCReprocessRT35GetMappedInputPortIndexByTargetNameEPKcPKN15ChiFeature2Base22ChiFeaturePipelineDataERNSt3__13mapIS1_NS6_13unordered_mapIjNS6_3setIjNS6_4lessIjEENS6_9allocatorIjEEEENS6_4hashIjEENS6_8equal_toIjEENSC_INS6_4pairIKjSE_EEEEEE21ChiNameLessComparatorNSC_INSJ_IKS1_SN_EEEEEE+0x60>
0x2b814 <_ZN24ChiFeature2MCReprocessRT35GetMappedInputPortIndexByTargetNameEPKcPKN15ChiFeature2Base22ChiFeaturePipelineDataERNSt3__13mapIS1_NS6_13unordered_mapIjNS6_3setIjNS6_4lessIjEENS6_9allocatorIjEEEENS6_4hashIjEENS6_8equal_toIjEENSC_INS6_4pairIKjSE_EEEEEE21ChiNameLessComparatorNSC_INSJ_IKS1_SN_EEEEEE+0xdc>
<_ZN24ChiFeature2MCReprocessRT35GetMappedInputPortIndexByTargetNameEPKcPKN15ChiFeature2Base22ChiFeaturePipelineDataERNSt3__13mapIS1_NS6_13unordered_mapIjNS6_3setIjNS6_4lessIjEENS6_9allocatorIjEEEENS6_4hashIjEENS6_8equal_toIjEENSC_INS6_4pairIKjSE_EEEEEE21ChiNameLessComparatorNSC_INSJ_IKS1_SN_EEEEEE+0x38>
#31, 0x2b7c0 <_ZN24ChiFeature2MCReprocessRT35GetMappedInputPortIndexByTargetNameEPKcPKN15ChiFeature2Base22ChiFeaturePipelineDataERNSt3__13mapIS1_NS6_13unordered_mapIjNS6_3setIjNS6_4lessIjEENS6_9allocatorIjEEEENS6_4hashIjEENS6_8equal_toIjEENSC_INS6_4pairIKjSE_EEEEEE21ChiNameLessComparatorNSC_INSJ_IKS1_SN_EEEEEE+0x88>
0x2b7c0 <_ZN24ChiFeature2MCReprocessRT35GetMappedInputPortIndexByTargetNameEPKcPKN15ChiFeature2Base22ChiFeaturePipelineDataERNSt3__13mapIS1_NS6_13unordered_mapIjNS6_3setIjNS6_4lessIjEENS6_9allocatorIjEEEENS6_4hashIjEENS6_8equal_toIjEENSC_INS6_4pairIKjSE_EEEEEE21ChiNameLessComparatorNSC_INSJ_IKS1_SN_EEEEEE+0x88>
<_ZN24ChiFeature2MCReprocessRT35GetMappedInputPortIndexByTargetNameEPKcPKN15ChiFeature2Base22ChiFeaturePipelineDataERNSt3__13mapIS1_NS6_13unordered_mapIjNS6_3setIjNS6_4lessIjEENS6_9allocatorIjEEEENS6_4hashIjEENS6_8equal_toIjEENSC_INS6_4pairIKjSE_EEEEEE21ChiNameLessComparatorNSC_INSJ_IKS1_SN_EEEEEE+0x38>
0x2b840 <_ZN24ChiFeature2MCReprocessRT35GetMappedInputPortIndexByTargetNameEPKcPKN15ChiFeature2Base22ChiFeaturePipelineDataERNSt3__13mapIS1_NS6_13unordered_mapIjNS6_3setIjNS6_4lessIjEENS6_9allocatorIjEEEENS6_4hashIjEENS6_8equal_toIjEENSC_INS6_4pairIKjSE_EEEEEE21ChiNameLessComparatorNSC_INSJ_IKS1_SN_EEEEEE+0x108>
0x2b824 <_ZN24ChiFeature2MCReprocessRT35GetMappedInputPortIndexByTargetNameEPKcPKN15ChiFeature2Base22ChiFeaturePipelineDataERNSt3__13mapIS1_NS6_13unordered_mapIjNS6_3setIjNS6_4lessIjEENS6_9allocatorIjEEEENS6_4hashIjEENS6_8equal_toIjEENSC_INS6_4pairIKjSE_EEEEEE21ChiNameLessComparatorNSC_INSJ_IKS1_SN_EEEEEE+0xec>
<_ZN24ChiFeature2MCReprocessRT35GetMappedInputPortIndexByTargetNameEPKcPKN15ChiFeature2Base22ChiFeaturePipelineDataERNSt3__13mapIS1_NS6_13unordered_mapIjNS6_3setIjNS6_4lessIjEENS6_9allocatorIjEEEENS6_4hashIjEENS6_8equal_toIjEENSC_INS6_4pairIKjSE_EEEEEE21ChiNameLessComparatorNSC_INSJ_IKS1_SN_EEEEEE+0xf0>
0x2b840 <_ZN24ChiFeature2MCReprocessRT35GetMappedInputPortIndexByTargetNameEPKcPKN15ChiFeature2Base22ChiFeaturePipelineDataERNSt3__13mapIS1_NS6_13unordered_mapIjNS6_3setIjNS6_4lessIjEENS6_9allocatorIjEEEENS6_4hashIjEENS6_8equal_toIjEENSC_INS6_4pairIKjSE_EEEEEE21ChiNameLessComparatorNSC_INSJ_IKS1_SN_EEEEEE+0x108>
<_ZN24ChiFeature2MCReprocessRT35GetMappedInputPortIndexByTargetNameEPKcPKN15ChiFeature2Base22ChiFeaturePipelineDataERNSt3__13mapIS1_NS6_13unordered_mapIjNS6_3setIjNS6_4lessIjEENS6_9allocatorIjEEEENS6_4hashIjEENS6_8equal_toIjEENSC_INS6_4pairIKjSE_EEEEEE21ChiNameLessComparatorNSC_INSJ_IKS1_SN_EEEEEE+0x90>
<_ZN24ChiFeature2MCReprocessRT35GetMappedInputPortIndexByTargetNameEPKcPKN15ChiFeature2Base22ChiFeaturePipelineDataERNSt3__13mapIS1_NS6_13unordered_mapIjNS6_3setIjNS6_4lessIjEENS6_9allocatorIjEEEENS6_4hashIjEENS6_8equal_toIjEENSC_INS6_4pairIKjSE_EEEEEE21ChiNameLessComparatorNSC_INSJ_IKS1_SN_EEEEEE+0x7d0>
<_ZN24ChiFeature2MCReprocessRT35GetMappedInputPortIndexByTargetNameEPKcPKN15ChiFeature2Base22ChiFeaturePipelineDataERNSt3__13mapIS1_NS6_13unordered_mapIjNS6_3setIjNS6_4lessIjEENS6_9allocatorIjEEEENS6_4hashIjEENS6_8equal_toIjEENSC_INS6_4pairIKjSE_EEEEEE21ChiNameLessComparatorNSC_INSJ_IKS1_SN_EEEEEE+0x6fc>
<_ZN24ChiFeature2MCReprocessRT35GetMappedInputPortIndexByTargetNameEPKcPKN15ChiFeature2Base22ChiFeaturePipelineDataERNSt3__13mapIS1_NS6_13unordered_mapIjNS6_3setIjNS6_4lessIjEENS6_9allocatorIjEEEENS6_4hashIjEENS6_8equal_toIjEENSC_INS6_4pairIKjSE_EEEEEE21ChiNameLessComparatorNSC_INSJ_IKS1_SN_EEEEEE+0x13c>
0x45000 <_ZN24ChiFeature2MCReprocessRT35GetMappedInputPortIndexByTargetNameEPKcPKN15ChiFeature2Base22ChiFeaturePipelineDataERNSt3__13mapIS1_NS6_13unordered_mapIjNS6_3setIjNS6_4lessIjEENS6_9allocatorIjEEEENS6_4hashIjEENS6_8equal_toIjEENSC_INS6_4pairIKjSE_EEEEEE21ChiNameLessComparatorNSC_INSJ_IKS1_SN_EEEEEE+0x1a8>
0x45000 <_ZN24ChiFeature2MCReprocessRT35GetMappedInputPortIndexByTargetNameEPKcPKN15ChiFeature2Base22ChiFeaturePipelineDataERNSt3__13mapIS1_NS6_13unordered_mapIjNS6_3setIjNS6_4lessIjEENS6_9allocatorIjEEEENS6_4hashIjEENS6_8equal_toIjEENSC_INS6_4pairIKjSE_EEEEEE21ChiNameLessComparatorNSC_INSJ_IKS1_SN_EEEEEE+0x1b0>
0x11000 <_ZN24ChiFeature2MCReprocessRT35GetMappedInputPortIndexByTargetNameEPKcPKN15ChiFeature2Base22ChiFeaturePipelineDataERNSt3__13mapIS1_NS6_13unordered_mapIjNS6_3setIjNS6_4lessIjEENS6_9allocatorIjEEEENS6_4hashIjEENS6_8equal_toIjEENSC_INS6_4pairIKjSE_EEEEEE21ChiNameLessComparatorNSC_INSJ_IKS1_SN_EEEEEE+0xe8>
<_ZN24ChiFeature2MCReprocessRT35GetMappedInputPortIndexByTargetNameEPKcPKN15ChiFeature2Base22ChiFeaturePipelineDataERNSt3__13mapIS1_NS6_13unordered_mapIjNS6_3setIjNS6_4lessIjEENS6_9allocatorIjEEEENS6_4hashIjEENS6_8equal_toIjEENSC_INS6_4pairIKjSE_EEEEEE21ChiNameLessComparatorNSC_INSJ_IKS1_SN_EEEEEE+0x1d8>
0x2bd18 <_ZN24ChiFeature2MCReprocessRT35GetMappedInputPortIndexByTargetNameEPKcPKN15ChiFeature2Base22ChiFeaturePipelineDataERNSt3__13mapIS1_NS6_13unordered_mapIjNS6_3setIjNS6_4lessIjEENS6_9allocatorIjEEEENS6_4hashIjEENS6_8equal_toIjEENSC_INS6_4pairIKjSE_EEEEEE21ChiNameLessComparatorNSC_INSJ_IKS1_SN_EEEEEE+0x5e0>
0x45000 <_ZN24ChiFeature2MCReprocessRT35GetMappedInputPortIndexByTargetNameEPKcPKN15ChiFeature2Base22ChiFeaturePipelineDataERNSt3__13mapIS1_NS6_13unordered_mapIjNS6_3setIjNS6_4lessIjEENS6_9allocatorIjEEEENS6_4hashIjEENS6_8equal_toIjEENSC_INS6_4pairIKjSE_EEEEEE21ChiNameLessComparatorNSC_INSJ_IKS1_SN_EEEEEE+0x1f4>
0x45000 <_ZN24ChiFeature2MCReprocessRT35GetMappedInputPortIndexByTargetNameEPKcPKN15ChiFeature2Base22ChiFeaturePipelineDataERNSt3__13mapIS1_NS6_13unordered_mapIjNS6_3setIjNS6_4lessIjEENS6_9allocatorIjEEEENS6_4hashIjEENS6_8equal_toIjEENSC_INS6_4pairIKjSE_EEEEEE21ChiNameLessComparatorNSC_INSJ_IKS1_SN_EEEEEE+0x1f8>
0x11000 <_ZN24ChiFeature2MCReprocessRT35GetMappedInputPortIndexByTargetNameEPKcPKN15ChiFeature2Base22ChiFeaturePipelineDataERNSt3__13mapIS1_NS6_13unordered_mapIjNS6_3setIjNS6_4lessIjEENS6_9allocatorIjEEEENS6_4hashIjEENS6_8equal_toIjEENSC_INS6_4pairIKjSE_EEEEEE21ChiNameLessComparatorNSC_INSJ_IKS1_SN_EEEEEE+0x138>
<_ZN24ChiFeature2MCReprocessRT35GetMappedInputPortIndexByTargetNameEPKcPKN15ChiFeature2Base22ChiFeaturePipelineDataERNSt3__13mapIS1_NS6_13unordered_mapIjNS6_3setIjNS6_4lessIjEENS6_9allocatorIjEEEENS6_4hashIjEENS6_8equal_toIjEENSC_INS6_4pairIKjSE_EEEEEE21ChiNameLessComparatorNSC_INSJ_IKS1_SN_EEEEEE+0x114>
#3, 0x2b9e4 <_ZN24ChiFeature2MCReprocessRT35GetMappedInputPortIndexByTargetNameEPKcPKN15ChiFeature2Base22ChiFeaturePipelineDataERNSt3__13mapIS1_NS6_13unordered_mapIjNS6_3setIjNS6_4lessIjEENS6_9allocatorIjEEEENS6_4hashIjEENS6_8equal_toIjEENSC_INS6_4pairIKjSE_EEEEEE21ChiNameLessComparatorNSC_INSJ_IKS1_SN_EEEEEE+0x2ac>
<_ZN24ChiFeature2MCReprocessRT35GetMappedInputPortIndexByTargetNameEPKcPKN15ChiFeature2Base22ChiFeaturePipelineDataERNSt3__13mapIS1_NS6_13unordered_mapIjNS6_3setIjNS6_4lessIjEENS6_9allocatorIjEEEENS6_4hashIjEENS6_8equal_toIjEENSC_INS6_4pairIKjSE_EEEEEE21ChiNameLessComparatorNSC_INSJ_IKS1_SN_EEEEEE+0x248>
0xc000 <_ZN24ChiFeature2MCReprocessRT35GetMappedInputPortIndexByTargetNameEPKcPKN15ChiFeature2Base22ChiFeaturePipelineDataERNSt3__13mapIS1_NS6_13unordered_mapIjNS6_3setIjNS6_4lessIjEENS6_9allocatorIjEEEENS6_4hashIjEENS6_8equal_toIjEENSC_INS6_4pairIKjSE_EEEEEE21ChiNameLessComparatorNSC_INSJ_IKS1_SN_EEEEEE+0x188>
0x10000 <_ZN24ChiFeature2MCReprocessRT35GetMappedInputPortIndexByTargetNameEPKcPKN15ChiFeature2Base22ChiFeaturePipelineDataERNSt3__13mapIS1_NS6_13unordered_mapIjNS6_3setIjNS6_4lessIjEENS6_9allocatorIjEEEENS6_4hashIjEENS6_8equal_toIjEENSC_INS6_4pairIKjSE_EEEEEE21ChiNameLessComparatorNSC_INSJ_IKS1_SN_EEEEEE+0x19c>
0x11000 <_ZN24ChiFeature2MCReprocessRT35GetMappedInputPortIndexByTargetNameEPKcPKN15ChiFeature2Base22ChiFeaturePipelineDataERNSt3__13mapIS1_NS6_13unordered_mapIjNS6_3setIjNS6_4lessIjEENS6_9allocatorIjEEEENS6_4hashIjEENS6_8equal_toIjEENSC_INS6_4pairIKjSE_EEEEEE21ChiNameLessComparatorNSC_INSJ_IKS1_SN_EEEEEE+0x1b8>
0x11000 <_ZN24ChiFeature2MCReprocessRT35GetMappedInputPortIndexByTargetNameEPKcPKN15ChiFeature2Base22ChiFeaturePipelineDataERNSt3__13mapIS1_NS6_13unordered_mapIjNS6_3setIjNS6_4lessIjEENS6_9allocatorIjEEEENS6_4hashIjEENS6_8equal_toIjEENSC_INS6_4pairIKjSE_EEEEEE21ChiNameLessComparatorNSC_INSJ_IKS1_SN_EEEEEE+0x1fc>
0xe000 <_ZN24ChiFeature2MCReprocessRT35GetMappedInputPortIndexByTargetNameEPKcPKN15ChiFeature2Base22ChiFeaturePipelineDataERNSt3__13mapIS1_NS6_13unordered_mapIjNS6_3setIjNS6_4lessIjEENS6_9allocatorIjEEEENS6_4hashIjEENS6_8equal_toIjEENSC_INS6_4pairIKjSE_EEEEEE21ChiNameLessComparatorNSC_INSJ_IKS1_SN_EEEEEE+0x1f4>
0xe000 <_ZN24ChiFeature2MCReprocessRT35GetMappedInputPortIndexByTargetNameEPKcPKN15ChiFeature2Base22ChiFeaturePipelineDataERNSt3__13mapIS1_NS6_13unordered_mapIjNS6_3setIjNS6_4lessIjEENS6_9allocatorIjEEEENS6_4hashIjEENS6_8equal_toIjEENSC_INS6_4pairIKjSE_EEEEEE21ChiNameLessComparatorNSC_INSJ_IKS1_SN_EEEEEE+0x1f8>
0x10000 <_ZN24ChiFeature2MCReprocessRT35GetMappedInputPortIndexByTargetNameEPKcPKN15ChiFeature2Base22ChiFeaturePipelineDataERNSt3__13mapIS1_NS6_13unordered_mapIjNS6_3setIjNS6_4lessIjEENS6_9allocatorIjEEEENS6_4hashIjEENS6_8equal_toIjEENSC_INS6_4pairIKjSE_EEEEEE21ChiNameLessComparatorNSC_INSJ_IKS1_SN_EEEEEE+0x210>
<_ZN6ChiLog9LogSystemEPKcS1_S1_S1_iS1_z@plt>
0x2b8f0 <_ZN24ChiFeature2MCReprocessRT35GetMappedInputPortIndexByTargetNameEPKcPKN15ChiFeature2Base22ChiFeaturePipelineDataERNSt3__13mapIS1_NS6_13unordered_mapIjNS6_3setIjNS6_4lessIjEENS6_9allocatorIjEEEENS6_4hashIjEENS6_8equal_toIjEENSC_INS6_4pairIKjSE_EEEEEE21ChiNameLessComparatorNSC_INSJ_IKS1_SN_EEEEEE+0x1b8>
0x2b8f0 <_ZN24ChiFeature2MCReprocessRT35GetMappedInputPortIndexByTargetNameEPKcPKN15ChiFeature2Base22ChiFeaturePipelineDataERNSt3__13mapIS1_NS6_13unordered_mapIjNS6_3setIjNS6_4lessIjEENS6_9allocatorIjEEEENS6_4hashIjEENS6_8equal_toIjEENSC_INS6_4pairIKjSE_EEEEEE21ChiNameLessComparatorNSC_INSJ_IKS1_SN_EEEEEE+0x1b8>
0x2ba38 <_ZN24ChiFeature2MCReprocessRT35GetMappedInputPortIndexByTargetNameEPKcPKN15ChiFeature2Base22ChiFeaturePipelineDataERNSt3__13mapIS1_NS6_13unordered_mapIjNS6_3setIjNS6_4lessIjEENS6_9allocatorIjEEEENS6_4hashIjEENS6_8equal_toIjEENSC_INS6_4pairIKjSE_EEEEEE21ChiNameLessComparatorNSC_INSJ_IKS1_SN_EEEEEE+0x300>
<_ZN24ChiFeature2MCReprocessRT35GetMappedInputPortIndexByTargetNameEPKcPKN15ChiFeature2Base22ChiFeaturePipelineDataERNSt3__13mapIS1_NS6_13unordered_mapIjNS6_3setIjNS6_4lessIjEENS6_9allocatorIjEEEENS6_4hashIjEENS6_8equal_toIjEENSC_INS6_4pairIKjSE_EEEEEE21ChiNameLessComparatorNSC_INSJ_IKS1_SN_EEEEEE+0x308>
<_ZN24ChiFeature2MCReprocessRT35GetMappedInputPortIndexByTargetNameEPKcPKN15ChiFeature2Base22ChiFeaturePipelineDataERNSt3__13mapIS1_NS6_13unordered_mapIjNS6_3setIjNS6_4lessIjEENS6_9allocatorIjEEEENS6_4hashIjEENS6_8equal_toIjEENSC_INS6_4pairIKjSE_EEEEEE21ChiNameLessComparatorNSC_INSJ_IKS1_SN_EEEEEE+0x31c>
<_ZN24ChiFeature2MCReprocessRT35GetMappedInputPortIndexByTargetNameEPKcPKN15ChiFeature2Base22ChiFeaturePipelineDataERNSt3__13mapIS1_NS6_13unordered_mapIjNS6_3setIjNS6_4lessIjEENS6_9allocatorIjEEEENS6_4hashIjEENS6_8equal_toIjEENSC_INS6_4pairIKjSE_EEEEEE21ChiNameLessComparatorNSC_INSJ_IKS1_SN_EEEEEE+0x39c>
<_ZN24ChiFeature2MCReprocessRT35GetMappedInputPortIndexByTargetNameEPKcPKN15ChiFeature2Base22ChiFeaturePipelineDataERNSt3__13mapIS1_NS6_13unordered_mapIjNS6_3setIjNS6_4lessIjEENS6_9allocatorIjEEEENS6_4hashIjEENS6_8equal_toIjEENSC_INS6_4pairIKjSE_EEEEEE21ChiNameLessComparatorNSC_INSJ_IKS1_SN_EEEEEE+0x31c>
0x2bad4 <_ZN24ChiFeature2MCReprocessRT35GetMappedInputPortIndexByTargetNameEPKcPKN15ChiFeature2Base22ChiFeaturePipelineDataERNSt3__13mapIS1_NS6_13unordered_mapIjNS6_3setIjNS6_4lessIjEENS6_9allocatorIjEEEENS6_4hashIjEENS6_8equal_toIjEENSC_INS6_4pairIKjSE_EEEEEE21ChiNameLessComparatorNSC_INSJ_IKS1_SN_EEEEEE+0x39c>
<_ZN24ChiFeature2MCReprocessRT35GetMappedInputPortIndexByTargetNameEPKcPKN15ChiFeature2Base22ChiFeaturePipelineDataERNSt3__13mapIS1_NS6_13unordered_mapIjNS6_3setIjNS6_4lessIjEENS6_9allocatorIjEEEENS6_4hashIjEENS6_8equal_toIjEENSC_INS6_4pairIKjSE_EEEEEE21ChiNameLessComparatorNSC_INSJ_IKS1_SN_EEEEEE+0x374>
0x2bad4 <_ZN24ChiFeature2MCReprocessRT35GetMappedInputPortIndexByTargetNameEPKcPKN15ChiFeature2Base22ChiFeaturePipelineDataERNSt3__13mapIS1_NS6_13unordered_mapIjNS6_3setIjNS6_4lessIjEENS6_9allocatorIjEEEENS6_4hashIjEENS6_8equal_toIjEENSC_INS6_4pairIKjSE_EEEEEE21ChiNameLessComparatorNSC_INSJ_IKS1_SN_EEEEEE+0x39c>
<_ZN24ChiFeature2MCReprocessRT35GetMappedInputPortIndexByTargetNameEPKcPKN15ChiFeature2Base22ChiFeaturePipelineDataERNSt3__13mapIS1_NS6_13unordered_mapIjNS6_3setIjNS6_4lessIjEENS6_9allocatorIjEEEENS6_4hashIjEENS6_8equal_toIjEENSC_INS6_4pairIKjSE_EEEEEE21ChiNameLessComparatorNSC_INSJ_IKS1_SN_EEEEEE+0x39c>
<_ZN24ChiFeature2MCReprocessRT35GetMappedInputPortIndexByTargetNameEPKcPKN15ChiFeature2Base22ChiFeaturePipelineDataERNSt3__13mapIS1_NS6_13unordered_mapIjNS6_3setIjNS6_4lessIjEENS6_9allocatorIjEEEENS6_4hashIjEENS6_8equal_toIjEENSC_INS6_4pairIKjSE_EEEEEE21ChiNameLessComparatorNSC_INSJ_IKS1_SN_EEEEEE+0x334>
<_ZN24ChiFeature2MCReprocessRT35GetMappedInputPortIndexByTargetNameEPKcPKN15ChiFeature2Base22ChiFeaturePipelineDataERNSt3__13mapIS1_NS6_13unordered_mapIjNS6_3setIjNS6_4lessIjEENS6_9allocatorIjEEEENS6_4hashIjEENS6_8equal_toIjEENSC_INS6_4pairIKjSE_EEEEEE21ChiNameLessComparatorNSC_INSJ_IKS1_SN_EEEEEE+0x590>
<_ZN24ChiFeature2MCReprocessRT35GetMappedInputPortIndexByTargetNameEPKcPKN15ChiFeature2Base22ChiFeaturePipelineDataERNSt3__13mapIS1_NS6_13unordered_mapIjNS6_3setIjNS6_4lessIjEENS6_9allocatorIjEEEENS6_4hashIjEENS6_8equal_toIjEENSC_INS6_4pairIKjSE_EEEEEE21ChiNameLessComparatorNSC_INSJ_IKS1_SN_EEEEEE+0x39c>
<_ZN24ChiFeature2MCReprocessRT35GetMappedInputPortIndexByTargetNameEPKcPKN15ChiFeature2Base22ChiFeaturePipelineDataERNSt3__13mapIS1_NS6_13unordered_mapIjNS6_3setIjNS6_4lessIjEENS6_9allocatorIjEEEENS6_4hashIjEENS6_8equal_toIjEENSC_INS6_4pairIKjSE_EEEEEE21ChiNameLessComparatorNSC_INSJ_IKS1_SN_EEEEEE+0x590>
0x2bad4 <_ZN24ChiFeature2MCReprocessRT35GetMappedInputPortIndexByTargetNameEPKcPKN15ChiFeature2Base22ChiFeaturePipelineDataERNSt3__13mapIS1_NS6_13unordered_mapIjNS6_3setIjNS6_4lessIjEENS6_9allocatorIjEEEENS6_4hashIjEENS6_8equal_toIjEENSC_INS6_4pairIKjSE_EEEEEE21ChiNameLessComparatorNSC_INSJ_IKS1_SN_EEEEEE+0x39c>
<_ZN24ChiFeature2MCReprocessRT35GetMappedInputPortIndexByTargetNameEPKcPKN15ChiFeature2Base22ChiFeaturePipelineDataERNSt3__13mapIS1_NS6_13unordered_mapIjNS6_3setIjNS6_4lessIjEENS6_9allocatorIjEEEENS6_4hashIjEENS6_8equal_toIjEENSC_INS6_4pairIKjSE_EEEEEE21ChiNameLessComparatorNSC_INSJ_IKS1_SN_EEEEEE+0x368>
<_ZN24ChiFeature2MCReprocessRT35GetMappedInputPortIndexByTargetNameEPKcPKN15ChiFeature2Base22ChiFeaturePipelineDataERNSt3__13mapIS1_NS6_13unordered_mapIjNS6_3setIjNS6_4lessIjEENS6_9allocatorIjEEEENS6_4hashIjEENS6_8equal_toIjEENSC_INS6_4pairIKjSE_EEEEEE21ChiNameLessComparatorNSC_INSJ_IKS1_SN_EEEEEE+0x360>
<_ZN24ChiFeature2MCReprocessRT35GetMappedInputPortIndexByTargetNameEPKcPKN15ChiFeature2Base22ChiFeaturePipelineDataERNSt3__13mapIS1_NS6_13unordered_mapIjNS6_3setIjNS6_4lessIjEENS6_9allocatorIjEEEENS6_4hashIjEENS6_8equal_toIjEENSC_INS6_4pairIKjSE_EEEEEE21ChiNameLessComparatorNSC_INSJ_IKS1_SN_EEEEEE+0x360>
<_ZN24ChiFeature2MCReprocessRT35GetMappedInputPortIndexByTargetNameEPKcPKN15ChiFeature2Base22ChiFeaturePipelineDataERNSt3__13mapIS1_NS6_13unordered_mapIjNS6_3setIjNS6_4lessIjEENS6_9allocatorIjEEEENS6_4hashIjEENS6_8equal_toIjEENSC_INS6_4pairIKjSE_EEEEEE21ChiNameLessComparatorNSC_INSJ_IKS1_SN_EEEEEE+0x6fc>
0x2bb28 <_ZN24ChiFeature2MCReprocessRT35GetMappedInputPortIndexByTargetNameEPKcPKN15ChiFeature2Base22ChiFeaturePipelineDataERNSt3__13mapIS1_NS6_13unordered_mapIjNS6_3setIjNS6_4lessIjEENS6_9allocatorIjEEEENS6_4hashIjEENS6_8equal_toIjEENSC_INS6_4pairIKjSE_EEEEEE21ChiNameLessComparatorNSC_INSJ_IKS1_SN_EEEEEE+0x3f0>
<_ZN24ChiFeature2MCReprocessRT35GetMappedInputPortIndexByTargetNameEPKcPKN15ChiFeature2Base22ChiFeaturePipelineDataERNSt3__13mapIS1_NS6_13unordered_mapIjNS6_3setIjNS6_4lessIjEENS6_9allocatorIjEEEENS6_4hashIjEENS6_8equal_toIjEENSC_INS6_4pairIKjSE_EEEEEE21ChiNameLessComparatorNSC_INSJ_IKS1_SN_EEEEEE+0x50c>
<_ZN24ChiFeature2MCReprocessRT35GetMappedInputPortIndexByTargetNameEPKcPKN15ChiFeature2Base22ChiFeaturePipelineDataERNSt3__13mapIS1_NS6_13unordered_mapIjNS6_3setIjNS6_4lessIjEENS6_9allocatorIjEEEENS6_4hashIjEENS6_8equal_toIjEENSC_INS6_4pairIKjSE_EEEEEE21ChiNameLessComparatorNSC_INSJ_IKS1_SN_EEEEEE+0x700>
<_ZN24ChiFeature2MCReprocessRT35GetMappedInputPortIndexByTargetNameEPKcPKN15ChiFeature2Base22ChiFeaturePipelineDataERNSt3__13mapIS1_NS6_13unordered_mapIjNS6_3setIjNS6_4lessIjEENS6_9allocatorIjEEEENS6_4hashIjEENS6_8equal_toIjEENSC_INS6_4pairIKjSE_EEEEEE21ChiNameLessComparatorNSC_INSJ_IKS1_SN_EEEEEE+0x434>
<_ZN24ChiFeature2MCReprocessRT35GetMappedInputPortIndexByTargetNameEPKcPKN15ChiFeature2Base22ChiFeaturePipelineDataERNSt3__13mapIS1_NS6_13unordered_mapIjNS6_3setIjNS6_4lessIjEENS6_9allocatorIjEEEENS6_4hashIjEENS6_8equal_toIjEENSC_INS6_4pairIKjSE_EEEEEE21ChiNameLessComparatorNSC_INSJ_IKS1_SN_EEEEEE+0x448>
<_ZN24ChiFeature2MCReprocessRT35GetMappedInputPortIndexByTargetNameEPKcPKN15ChiFeature2Base22ChiFeaturePipelineDataERNSt3__13mapIS1_NS6_13unordered_mapIjNS6_3setIjNS6_4lessIjEENS6_9allocatorIjEEEENS6_4hashIjEENS6_8equal_toIjEENSC_INS6_4pairIKjSE_EEEEEE21ChiNameLessComparatorNSC_INSJ_IKS1_SN_EEEEEE+0x448>
<_ZNSt3__112__next_primeEm@plt>
<_ZN24ChiFeature2MCReprocessRT35GetMappedInputPortIndexByTargetNameEPKcPKN15ChiFeature2Base22ChiFeaturePipelineDataERNSt3__13mapIS1_NS6_13unordered_mapIjNS6_3setIjNS6_4lessIjEENS6_9allocatorIjEEEENS6_4hashIjEENS6_8equal_toIjEENSC_INS6_4pairIKjSE_EEEEEE21ChiNameLessComparatorNSC_INSJ_IKS1_SN_EEEEEE+0x464>
<_ZN24ChiFeature2MCReprocessRT35GetMappedInputPortIndexByTargetNameEPKcPKN15ChiFeature2Base22ChiFeaturePipelineDataERNSt3__13mapIS1_NS6_13unordered_mapIjNS6_3setIjNS6_4lessIjEENS6_9allocatorIjEEEENS6_4hashIjEENS6_8equal_toIjEENSC_INS6_4pairIKjSE_EEEEEE21ChiNameLessComparatorNSC_INSJ_IKS1_SN_EEEEEE+0x9a8>
<_ZN24ChiFeature2MCReprocessRT35GetMappedInputPortIndexByTargetNameEPKcPKN15ChiFeature2Base22ChiFeaturePipelineDataERNSt3__13mapIS1_NS6_13unordered_mapIjNS6_3setIjNS6_4lessIjEENS6_9allocatorIjEEEENS6_4hashIjEENS6_8equal_toIjEENSC_INS6_4pairIKjSE_EEEEEE21ChiNameLessComparatorNSC_INSJ_IKS1_SN_EEEEEE+0x4d8>
<_ZN24ChiFeature2MCReprocessRT35GetMappedInputPortIndexByTargetNameEPKcPKN15ChiFeature2Base22ChiFeaturePipelineDataERNSt3__13mapIS1_NS6_13unordered_mapIjNS6_3setIjNS6_4lessIjEENS6_9allocatorIjEEEENS6_4hashIjEENS6_8equal_toIjEENSC_INS6_4pairIKjSE_EEEEEE21ChiNameLessComparatorNSC_INSJ_IKS1_SN_EEEEEE+0x4d8>
<_ZN24ChiFeature2MCReprocessRT35GetMappedInputPortIndexByTargetNameEPKcPKN15ChiFeature2Base22ChiFeaturePipelineDataERNSt3__13mapIS1_NS6_13unordered_mapIjNS6_3setIjNS6_4lessIjEENS6_9allocatorIjEEEENS6_4hashIjEENS6_8equal_toIjEENSC_INS6_4pairIKjSE_EEEEEE21ChiNameLessComparatorNSC_INSJ_IKS1_SN_EEEEEE+0x4bc>
<_ZN24ChiFeature2MCReprocessRT35GetMappedInputPortIndexByTargetNameEPKcPKN15ChiFeature2Base22ChiFeaturePipelineDataERNSt3__13mapIS1_NS6_13unordered_mapIjNS6_3setIjNS6_4lessIjEENS6_9allocatorIjEEEENS6_4hashIjEENS6_8equal_toIjEENSC_INS6_4pairIKjSE_EEEEEE21ChiNameLessComparatorNSC_INSJ_IKS1_SN_EEEEEE+0x4bc>
<_ZN24ChiFeature2MCReprocessRT35GetMappedInputPortIndexByTargetNameEPKcPKN15ChiFeature2Base22ChiFeaturePipelineDataERNSt3__13mapIS1_NS6_13unordered_mapIjNS6_3setIjNS6_4lessIjEENS6_9allocatorIjEEEENS6_4hashIjEENS6_8equal_toIjEENSC_INS6_4pairIKjSE_EEEEEE21ChiNameLessComparatorNSC_INSJ_IKS1_SN_EEEEEE+0x4c0>
<_ZN24ChiFeature2MCReprocessRT35GetMappedInputPortIndexByTargetNameEPKcPKN15ChiFeature2Base22ChiFeaturePipelineDataERNSt3__13mapIS1_NS6_13unordered_mapIjNS6_3setIjNS6_4lessIjEENS6_9allocatorIjEEEENS6_4hashIjEENS6_8equal_toIjEENSC_INS6_4pairIKjSE_EEEEEE21ChiNameLessComparatorNSC_INSJ_IKS1_SN_EEEEEE+0x4c0>
<_ZNSt3__112__next_primeEm@plt>
<_ZN24ChiFeature2MCReprocessRT35GetMappedInputPortIndexByTargetNameEPKcPKN15ChiFeature2Base22ChiFeaturePipelineDataERNSt3__13mapIS1_NS6_13unordered_mapIjNS6_3setIjNS6_4lessIjEENS6_9allocatorIjEEEENS6_4hashIjEENS6_8equal_toIjEENSC_INS6_4pairIKjSE_EEEEEE21ChiNameLessComparatorNSC_INSJ_IKS1_SN_EEEEEE+0x4d8>
<_ZN24ChiFeature2MCReprocessRT35GetMappedInputPortIndexByTargetNameEPKcPKN15ChiFeature2Base22ChiFeaturePipelineDataERNSt3__13mapIS1_NS6_13unordered_mapIjNS6_3setIjNS6_4lessIjEENS6_9allocatorIjEEEENS6_4hashIjEENS6_8equal_toIjEENSC_INS6_4pairIKjSE_EEEEEE21ChiNameLessComparatorNSC_INSJ_IKS1_SN_EEEEEE+0x45c>
<_ZN24ChiFeature2MCReprocessRT35GetMappedInputPortIndexByTargetNameEPKcPKN15ChiFeature2Base22ChiFeaturePipelineDataERNSt3__13mapIS1_NS6_13unordered_mapIjNS6_3setIjNS6_4lessIjEENS6_9allocatorIjEEEENS6_4hashIjEENS6_8equal_toIjEENSC_INS6_4pairIKjSE_EEEEEE21ChiNameLessComparatorNSC_INSJ_IKS1_SN_EEEEEE+0x704>
<_ZN24ChiFeature2MCReprocessRT35GetMappedInputPortIndexByTargetNameEPKcPKN15ChiFeature2Base22ChiFeaturePipelineDataERNSt3__13mapIS1_NS6_13unordered_mapIjNS6_3setIjNS6_4lessIjEENS6_9allocatorIjEEEENS6_4hashIjEENS6_8equal_toIjEENSC_INS6_4pairIKjSE_EEEEEE21ChiNameLessComparatorNSC_INSJ_IKS1_SN_EEEEEE+0x4fc>
<_ZN24ChiFeature2MCReprocessRT35GetMappedInputPortIndexByTargetNameEPKcPKN15ChiFeature2Base22ChiFeaturePipelineDataERNSt3__13mapIS1_NS6_13unordered_mapIjNS6_3setIjNS6_4lessIjEENS6_9allocatorIjEEEENS6_4hashIjEENS6_8equal_toIjEENSC_INS6_4pairIKjSE_EEEEEE21ChiNameLessComparatorNSC_INSJ_IKS1_SN_EEEEEE+0x504>
<_ZN24ChiFeature2MCReprocessRT35GetMappedInputPortIndexByTargetNameEPKcPKN15ChiFeature2Base22ChiFeaturePipelineDataERNSt3__13mapIS1_NS6_13unordered_mapIjNS6_3setIjNS6_4lessIjEENS6_9allocatorIjEEEENS6_4hashIjEENS6_8equal_toIjEENSC_INS6_4pairIKjSE_EEEEEE21ChiNameLessComparatorNSC_INSJ_IKS1_SN_EEEEEE+0x50c>
<_ZN24ChiFeature2MCReprocessRT35GetMappedInputPortIndexByTargetNameEPKcPKN15ChiFeature2Base22ChiFeaturePipelineDataERNSt3__13mapIS1_NS6_13unordered_mapIjNS6_3setIjNS6_4lessIjEENS6_9allocatorIjEEEENS6_4hashIjEENS6_8equal_toIjEENSC_INS6_4pairIKjSE_EEEEEE21ChiNameLessComparatorNSC_INSJ_IKS1_SN_EEEEEE+0x50c>
0x2bc64 <_ZN24ChiFeature2MCReprocessRT35GetMappedInputPortIndexByTargetNameEPKcPKN15ChiFeature2Base22ChiFeaturePipelineDataERNSt3__13mapIS1_NS6_13unordered_mapIjNS6_3setIjNS6_4lessIjEENS6_9allocatorIjEEEENS6_4hashIjEENS6_8equal_toIjEENSC_INS6_4pairIKjSE_EEEEEE21ChiNameLessComparatorNSC_INSJ_IKS1_SN_EEEEEE+0x52c>
<_ZN24ChiFeature2MCReprocessRT35GetMappedInputPortIndexByTargetNameEPKcPKN15ChiFeature2Base22ChiFeaturePipelineDataERNSt3__13mapIS1_NS6_13unordered_mapIjNS6_3setIjNS6_4lessIjEENS6_9allocatorIjEEEENS6_4hashIjEENS6_8equal_toIjEENSC_INS6_4pairIKjSE_EEEEEE21ChiNameLessComparatorNSC_INSJ_IKS1_SN_EEEEEE+0x580>
0x2bcb8 <_ZN24ChiFeature2MCReprocessRT35GetMappedInputPortIndexByTargetNameEPKcPKN15ChiFeature2Base22ChiFeaturePipelineDataERNSt3__13mapIS1_NS6_13unordered_mapIjNS6_3setIjNS6_4lessIjEENS6_9allocatorIjEEEENS6_4hashIjEENS6_8equal_toIjEENSC_INS6_4pairIKjSE_EEEEEE21ChiNameLessComparatorNSC_INSJ_IKS1_SN_EEEEEE+0x580>
<_ZN24ChiFeature2MCReprocessRT35GetMappedInputPortIndexByTargetNameEPKcPKN15ChiFeature2Base22ChiFeaturePipelineDataERNSt3__13mapIS1_NS6_13unordered_mapIjNS6_3setIjNS6_4lessIjEENS6_9allocatorIjEEEENS6_4hashIjEENS6_8equal_toIjEENSC_INS6_4pairIKjSE_EEEEEE21ChiNameLessComparatorNSC_INSJ_IKS1_SN_EEEEEE+0x568>
<_ZN24ChiFeature2MCReprocessRT35GetMappedInputPortIndexByTargetNameEPKcPKN15ChiFeature2Base22ChiFeaturePipelineDataERNSt3__13mapIS1_NS6_13unordered_mapIjNS6_3setIjNS6_4lessIjEENS6_9allocatorIjEEEENS6_4hashIjEENS6_8equal_toIjEENSC_INS6_4pairIKjSE_EEEEEE21ChiNameLessComparatorNSC_INSJ_IKS1_SN_EEEEEE+0x578>
<_ZN24ChiFeature2MCReprocessRT35GetMappedInputPortIndexByTargetNameEPKcPKN15ChiFeature2Base22ChiFeaturePipelineDataERNSt3__13mapIS1_NS6_13unordered_mapIjNS6_3setIjNS6_4lessIjEENS6_9allocatorIjEEEENS6_4hashIjEENS6_8equal_toIjEENSC_INS6_4pairIKjSE_EEEEEE21ChiNameLessComparatorNSC_INSJ_IKS1_SN_EEEEEE+0x578>
<_ZN24ChiFeature2MCReprocessRT35GetMappedInputPortIndexByTargetNameEPKcPKN15ChiFeature2Base22ChiFeaturePipelineDataERNSt3__13mapIS1_NS6_13unordered_mapIjNS6_3setIjNS6_4lessIjEENS6_9allocatorIjEEEENS6_4hashIjEENS6_8equal_toIjEENSC_INS6_4pairIKjSE_EEEEEE21ChiNameLessComparatorNSC_INSJ_IKS1_SN_EEEEEE+0x6fc>
0x2b8b8 <_ZN24ChiFeature2MCReprocessRT35GetMappedInputPortIndexByTargetNameEPKcPKN15ChiFeature2Base22ChiFeaturePipelineDataERNSt3__13mapIS1_NS6_13unordered_mapIjNS6_3setIjNS6_4lessIjEENS6_9allocatorIjEEEENS6_4hashIjEENS6_8equal_toIjEENSC_INS6_4pairIKjSE_EEEEEE21ChiNameLessComparatorNSC_INSJ_IKS1_SN_EEEEEE+0x180>
<_ZN24ChiFeature2MCReprocessRT35GetMappedInputPortIndexByTargetNameEPKcPKN15ChiFeature2Base22ChiFeaturePipelineDataERNSt3__13mapIS1_NS6_13unordered_mapIjNS6_3setIjNS6_4lessIjEENS6_9allocatorIjEEEENS6_4hashIjEENS6_8equal_toIjEENSC_INS6_4pairIKjSE_EEEEEE21ChiNameLessComparatorNSC_INSJ_IKS1_SN_EEEEEE+0x5c0>
0x2bd10 <_ZN24ChiFeature2MCReprocessRT35GetMappedInputPortIndexByTargetNameEPKcPKN15ChiFeature2Base22ChiFeaturePipelineDataERNSt3__13mapIS1_NS6_13unordered_mapIjNS6_3setIjNS6_4lessIjEENS6_9allocatorIjEEEENS6_4hashIjEENS6_8equal_toIjEENSC_INS6_4pairIKjSE_EEEEEE21ChiNameLessComparatorNSC_INSJ_IKS1_SN_EEEEEE+0x5d8>
<_ZN24ChiFeature2MCReprocessRT35GetMappedInputPortIndexByTargetNameEPKcPKN15ChiFeature2Base22ChiFeaturePipelineDataERNSt3__13mapIS1_NS6_13unordered_mapIjNS6_3setIjNS6_4lessIjEENS6_9allocatorIjEEEENS6_4hashIjEENS6_8equal_toIjEENSC_INS6_4pairIKjSE_EEEEEE21ChiNameLessComparatorNSC_INSJ_IKS1_SN_EEEEEE+0x5a0>
<_ZN24ChiFeature2MCReprocessRT35GetMappedInputPortIndexByTargetNameEPKcPKN15ChiFeature2Base22ChiFeaturePipelineDataERNSt3__13mapIS1_NS6_13unordered_mapIjNS6_3setIjNS6_4lessIjEENS6_9allocatorIjEEEENS6_4hashIjEENS6_8equal_toIjEENSC_INS6_4pairIKjSE_EEEEEE21ChiNameLessComparatorNSC_INSJ_IKS1_SN_EEEEEE+0x184>
0x2b8bc <_ZN24ChiFeature2MCReprocessRT35GetMappedInputPortIndexByTargetNameEPKcPKN15ChiFeature2Base22ChiFeaturePipelineDataERNSt3__13mapIS1_NS6_13unordered_mapIjNS6_3setIjNS6_4lessIjEENS6_9allocatorIjEEEENS6_4hashIjEENS6_8equal_toIjEENSC_INS6_4pairIKjSE_EEEEEE21ChiNameLessComparatorNSC_INSJ_IKS1_SN_EEEEEE+0x184>
<_ZN24ChiFeature2MCReprocessRT35GetMappedInputPortIndexByTargetNameEPKcPKN15ChiFeature2Base22ChiFeaturePipelineDataERNSt3__13mapIS1_NS6_13unordered_mapIjNS6_3setIjNS6_4lessIjEENS6_9allocatorIjEEEENS6_4hashIjEENS6_8equal_toIjEENSC_INS6_4pairIKjSE_EEEEEE21ChiNameLessComparatorNSC_INSJ_IKS1_SN_EEEEEE+0x5a0>
<_ZN24ChiFeature2MCReprocessRT35GetMappedInputPortIndexByTargetNameEPKcPKN15ChiFeature2Base22ChiFeaturePipelineDataERNSt3__13mapIS1_NS6_13unordered_mapIjNS6_3setIjNS6_4lessIjEENS6_9allocatorIjEEEENS6_4hashIjEENS6_8equal_toIjEENSC_INS6_4pairIKjSE_EEEEEE21ChiNameLessComparatorNSC_INSJ_IKS1_SN_EEEEEE+0x184>
0x2bd4c <_ZN24ChiFeature2MCReprocessRT35GetMappedInputPortIndexByTargetNameEPKcPKN15ChiFeature2Base22ChiFeaturePipelineDataERNSt3__13mapIS1_NS6_13unordered_mapIjNS6_3setIjNS6_4lessIjEENS6_9allocatorIjEEEENS6_4hashIjEENS6_8equal_toIjEENSC_INS6_4pairIKjSE_EEEEEE21ChiNameLessComparatorNSC_INSJ_IKS1_SN_EEEEEE+0x614>
<_ZN24ChiFeature2MCReprocessRT35GetMappedInputPortIndexByTargetNameEPKcPKN15ChiFeature2Base22ChiFeaturePipelineDataERNSt3__13mapIS1_NS6_13unordered_mapIjNS6_3setIjNS6_4lessIjEENS6_9allocatorIjEEEENS6_4hashIjEENS6_8equal_toIjEENSC_INS6_4pairIKjSE_EEEEEE21ChiNameLessComparatorNSC_INSJ_IKS1_SN_EEEEEE+0x618>
<_ZN24ChiFeature2MCReprocessRT35GetMappedInputPortIndexByTargetNameEPKcPKN15ChiFeature2Base22ChiFeaturePipelineDataERNSt3__13mapIS1_NS6_13unordered_mapIjNS6_3setIjNS6_4lessIjEENS6_9allocatorIjEEEENS6_4hashIjEENS6_8equal_toIjEENSC_INS6_4pairIKjSE_EEEEEE21ChiNameLessComparatorNSC_INSJ_IKS1_SN_EEEEEE+0x7d0>
<_ZN24ChiFeature2MCReprocessRT35GetMappedInputPortIndexByTargetNameEPKcPKN15ChiFeature2Base22ChiFeaturePipelineDataERNSt3__13mapIS1_NS6_13unordered_mapIjNS6_3setIjNS6_4lessIjEENS6_9allocatorIjEEEENS6_4hashIjEENS6_8equal_toIjEENSC_INS6_4pairIKjSE_EEEEEE21ChiNameLessComparatorNSC_INSJ_IKS1_SN_EEEEEE+0x6fc>
0x45000 <_ZN24ChiFeature2MCReprocessRT35GetMappedInputPortIndexByTargetNameEPKcPKN15ChiFeature2Base22ChiFeaturePipelineDataERNSt3__13mapIS1_NS6_13unordered_mapIjNS6_3setIjNS6_4lessIjEENS6_9allocatorIjEEEENS6_4hashIjEENS6_8equal_toIjEENSC_INS6_4pairIKjSE_EEEEEE21ChiNameLessComparatorNSC_INSJ_IKS1_SN_EEEEEE+0x694>
0x11000 <_ZN24ChiFeature2MCReprocessRT35GetMappedInputPortIndexByTargetNameEPKcPKN15ChiFeature2Base22ChiFeaturePipelineDataERNSt3__13mapIS1_NS6_13unordered_mapIjNS6_3setIjNS6_4lessIjEENS6_9allocatorIjEEEENS6_4hashIjEENS6_8equal_toIjEENSC_INS6_4pairIKjSE_EEEEEE21ChiNameLessComparatorNSC_INSJ_IKS1_SN_EEEEEE+0x5c8>
#3, 0x2b850 <_ZN24ChiFeature2MCReprocessRT35GetMappedInputPortIndexByTargetNameEPKcPKN15ChiFeature2Base22ChiFeaturePipelineDataERNSt3__13mapIS1_NS6_13unordered_mapIjNS6_3setIjNS6_4lessIjEENS6_9allocatorIjEEEENS6_4hashIjEENS6_8equal_toIjEENSC_INS6_4pairIKjSE_EEEEEE21ChiNameLessComparatorNSC_INSJ_IKS1_SN_EEEEEE+0x118>
0x45000 <_ZN24ChiFeature2MCReprocessRT35GetMappedInputPortIndexByTargetNameEPKcPKN15ChiFeature2Base22ChiFeaturePipelineDataERNSt3__13mapIS1_NS6_13unordered_mapIjNS6_3setIjNS6_4lessIjEENS6_9allocatorIjEEEENS6_4hashIjEENS6_8equal_toIjEENSC_INS6_4pairIKjSE_EEEEEE21ChiNameLessComparatorNSC_INSJ_IKS1_SN_EEEEEE+0x6b0>
<_ZN24ChiFeature2MCReprocessRT35GetMappedInputPortIndexByTargetNameEPKcPKN15ChiFeature2Base22ChiFeaturePipelineDataERNSt3__13mapIS1_NS6_13unordered_mapIjNS6_3setIjNS6_4lessIjEENS6_9allocatorIjEEEENS6_4hashIjEENS6_8equal_toIjEENSC_INS6_4pairIKjSE_EEEEEE21ChiNameLessComparatorNSC_INSJ_IKS1_SN_EEEEEE+0x6a8>
0x11000 <_ZN24ChiFeature2MCReprocessRT35GetMappedInputPortIndexByTargetNameEPKcPKN15ChiFeature2Base22ChiFeaturePipelineDataERNSt3__13mapIS1_NS6_13unordered_mapIjNS6_3setIjNS6_4lessIjEENS6_9allocatorIjEEEENS6_4hashIjEENS6_8equal_toIjEENSC_INS6_4pairIKjSE_EEEEEE21ChiNameLessComparatorNSC_INSJ_IKS1_SN_EEEEEE+0x610>
0xb000 <_ZN24ChiFeature2MCReprocessRT35GetMappedInputPortIndexByTargetNameEPKcPKN15ChiFeature2Base22ChiFeaturePipelineDataERNSt3__13mapIS1_NS6_13unordered_mapIjNS6_3setIjNS6_4lessIjEENS6_9allocatorIjEEEENS6_4hashIjEENS6_8equal_toIjEENSC_INS6_4pairIKjSE_EEEEEE21ChiNameLessComparatorNSC_INSJ_IKS1_SN_EEEEEE+0x5fc>
0x10000 <_ZN24ChiFeature2MCReprocessRT35GetMappedInputPortIndexByTargetNameEPKcPKN15ChiFeature2Base22ChiFeaturePipelineDataERNSt3__13mapIS1_NS6_13unordered_mapIjNS6_3setIjNS6_4lessIjEENS6_9allocatorIjEEEENS6_4hashIjEENS6_8equal_toIjEENSC_INS6_4pairIKjSE_EEEEEE21ChiNameLessComparatorNSC_INSJ_IKS1_SN_EEEEEE+0x614>
0xe000 <_ZN24ChiFeature2MCReprocessRT35GetMappedInputPortIndexByTargetNameEPKcPKN15ChiFeature2Base22ChiFeaturePipelineDataERNSt3__13mapIS1_NS6_13unordered_mapIjNS6_3setIjNS6_4lessIjEENS6_9allocatorIjEEEENS6_4hashIjEENS6_8equal_toIjEENSC_INS6_4pairIKjSE_EEEEEE21ChiNameLessComparatorNSC_INSJ_IKS1_SN_EEEEEE+0x650>
0x11000 <_ZN24ChiFeature2MCReprocessRT35GetMappedInputPortIndexByTargetNameEPKcPKN15ChiFeature2Base22ChiFeaturePipelineDataERNSt3__13mapIS1_NS6_13unordered_mapIjNS6_3setIjNS6_4lessIjEENS6_9allocatorIjEEEENS6_4hashIjEENS6_8equal_toIjEENSC_INS6_4pairIKjSE_EEEEEE21ChiNameLessComparatorNSC_INSJ_IKS1_SN_EEEEEE+0x664>
0x10000 <_ZN24ChiFeature2MCReprocessRT35GetMappedInputPortIndexByTargetNameEPKcPKN15ChiFeature2Base22ChiFeaturePipelineDataERNSt3__13mapIS1_NS6_13unordered_mapIjNS6_3setIjNS6_4lessIjEENS6_9allocatorIjEEEENS6_4hashIjEENS6_8equal_toIjEENSC_INS6_4pairIKjSE_EEEEEE21ChiNameLessComparatorNSC_INSJ_IKS1_SN_EEEEEE+0x664>
0xe000 <_ZN24ChiFeature2MCReprocessRT35GetMappedInputPortIndexByTargetNameEPKcPKN15ChiFeature2Base22ChiFeaturePipelineDataERNSt3__13mapIS1_NS6_13unordered_mapIjNS6_3setIjNS6_4lessIjEENS6_9allocatorIjEEEENS6_4hashIjEENS6_8equal_toIjEENSC_INS6_4pairIKjSE_EEEEEE21ChiNameLessComparatorNSC_INSJ_IKS1_SN_EEEEEE+0x660>
<_ZN6ChiLog9LogSystemEPKcS1_S1_S1_iS1_z@plt>
<_ZN24ChiFeature2MCReprocessRT35GetMappedInputPortIndexByTargetNameEPKcPKN15ChiFeature2Base22ChiFeaturePipelineDataERNSt3__13mapIS1_NS6_13unordered_mapIjNS6_3setIjNS6_4lessIjEENS6_9allocatorIjEEEENS6_4hashIjEENS6_8equal_toIjEENSC_INS6_4pairIKjSE_EEEEEE21ChiNameLessComparatorNSC_INSJ_IKS1_SN_EEEEEE+0x118>
0x2bebc <_ZN24ChiFeature2MCReprocessRT35GetMappedInputPortIndexByTargetNameEPKcPKN15ChiFeature2Base22ChiFeaturePipelineDataERNSt3__13mapIS1_NS6_13unordered_mapIjNS6_3setIjNS6_4lessIjEENS6_9allocatorIjEEEENS6_4hashIjEENS6_8equal_toIjEENSC_INS6_4pairIKjSE_EEEEEE21ChiNameLessComparatorNSC_INSJ_IKS1_SN_EEEEEE+0x784>
<_ZN24ChiFeature2MCReprocessRT35GetMappedInputPortIndexByTargetNameEPKcPKN15ChiFeature2Base22ChiFeaturePipelineDataERNSt3__13mapIS1_NS6_13unordered_mapIjNS6_3setIjNS6_4lessIjEENS6_9allocatorIjEEEENS6_4hashIjEENS6_8equal_toIjEENSC_INS6_4pairIKjSE_EEEEEE21ChiNameLessComparatorNSC_INSJ_IKS1_SN_EEEEEE+0x708>
<_ZN24ChiFeature2MCReprocessRT35GetMappedInputPortIndexByTargetNameEPKcPKN15ChiFeature2Base22ChiFeaturePipelineDataERNSt3__13mapIS1_NS6_13unordered_mapIjNS6_3setIjNS6_4lessIjEENS6_9allocatorIjEEEENS6_4hashIjEENS6_8equal_toIjEENSC_INS6_4pairIKjSE_EEEEEE21ChiNameLessComparatorNSC_INSJ_IKS1_SN_EEEEEE+0x708>
0x2be8c <_ZN24ChiFeature2MCReprocessRT35GetMappedInputPortIndexByTargetNameEPKcPKN15ChiFeature2Base22ChiFeaturePipelineDataERNSt3__13mapIS1_NS6_13unordered_mapIjNS6_3setIjNS6_4lessIjEENS6_9allocatorIjEEEENS6_4hashIjEENS6_8equal_toIjEENSC_INS6_4pairIKjSE_EEEEEE21ChiNameLessComparatorNSC_INSJ_IKS1_SN_EEEEEE+0x754>
<_ZN24ChiFeature2MCReprocessRT35GetMappedInputPortIndexByTargetNameEPKcPKN15ChiFeature2Base22ChiFeaturePipelineDataERNSt3__13mapIS1_NS6_13unordered_mapIjNS6_3setIjNS6_4lessIjEENS6_9allocatorIjEEEENS6_4hashIjEENS6_8equal_toIjEENSC_INS6_4pairIKjSE_EEEEEE21ChiNameLessComparatorNSC_INSJ_IKS1_SN_EEEEEE+0x798>
0x2be70 <_ZN24ChiFeature2MCReprocessRT35GetMappedInputPortIndexByTargetNameEPKcPKN15ChiFeature2Base22ChiFeaturePipelineDataERNSt3__13mapIS1_NS6_13unordered_mapIjNS6_3setIjNS6_4lessIjEENS6_9allocatorIjEEEENS6_4hashIjEENS6_8equal_toIjEENSC_INS6_4pairIKjSE_EEEEEE21ChiNameLessComparatorNSC_INSJ_IKS1_SN_EEEEEE+0x738>
0x2bea8 <_ZN24ChiFeature2MCReprocessRT35GetMappedInputPortIndexByTargetNameEPKcPKN15ChiFeature2Base22ChiFeaturePipelineDataERNSt3__13mapIS1_NS6_13unordered_mapIjNS6_3setIjNS6_4lessIjEENS6_9allocatorIjEEEENS6_4hashIjEENS6_8equal_toIjEENSC_INS6_4pairIKjSE_EEEEEE21ChiNameLessComparatorNSC_INSJ_IKS1_SN_EEEEEE+0x770>
0x2becc <_ZN24ChiFeature2MCReprocessRT35GetMappedInputPortIndexByTargetNameEPKcPKN15ChiFeature2Base22ChiFeaturePipelineDataERNSt3__13mapIS1_NS6_13unordered_mapIjNS6_3setIjNS6_4lessIjEENS6_9allocatorIjEEEENS6_4hashIjEENS6_8equal_toIjEENSC_INS6_4pairIKjSE_EEEEEE21ChiNameLessComparatorNSC_INSJ_IKS1_SN_EEEEEE+0x794>
0x2bf04 <_ZN24ChiFeature2MCReprocessRT35GetMappedInputPortIndexByTargetNameEPKcPKN15ChiFeature2Base22ChiFeaturePipelineDataERNSt3__13mapIS1_NS6_13unordered_mapIjNS6_3setIjNS6_4lessIjEENS6_9allocatorIjEEEENS6_4hashIjEENS6_8equal_toIjEENSC_INS6_4pairIKjSE_EEEEEE21ChiNameLessComparatorNSC_INSJ_IKS1_SN_EEEEEE+0x7cc>
<_ZN24ChiFeature2MCReprocessRT35GetMappedInputPortIndexByTargetNameEPKcPKN15ChiFeature2Base22ChiFeaturePipelineDataERNSt3__13mapIS1_NS6_13unordered_mapIjNS6_3setIjNS6_4lessIjEENS6_9allocatorIjEEEENS6_4hashIjEENS6_8equal_toIjEENSC_INS6_4pairIKjSE_EEEEEE21ChiNameLessComparatorNSC_INSJ_IKS1_SN_EEEEEE+0x798>
<_ZN24ChiFeature2MCReprocessRT35GetMappedInputPortIndexByTargetNameEPKcPKN15ChiFeature2Base22ChiFeaturePipelineDataERNSt3__13mapIS1_NS6_13unordered_mapIjNS6_3setIjNS6_4lessIjEENS6_9allocatorIjEEEENS6_4hashIjEENS6_8equal_toIjEENSC_INS6_4pairIKjSE_EEEEEE21ChiNameLessComparatorNSC_INSJ_IKS1_SN_EEEEEE+0x798>
<_ZN24ChiFeature2MCReprocessRT35GetMappedInputPortIndexByTargetNameEPKcPKN15ChiFeature2Base22ChiFeaturePipelineDataERNSt3__13mapIS1_NS6_13unordered_mapIjNS6_3setIjNS6_4lessIjEENS6_9allocatorIjEEEENS6_4hashIjEENS6_8equal_toIjEENSC_INS6_4pairIKjSE_EEEEEE21ChiNameLessComparatorNSC_INSJ_IKS1_SN_EEEEEE+0x9a4>
<_ZN24ChiFeature2MCReprocessRT35GetMappedInputPortIndexByTargetNameEPKcPKN15ChiFeature2Base22ChiFeaturePipelineDataERNSt3__13mapIS1_NS6_13unordered_mapIjNS6_3setIjNS6_4lessIjEENS6_9allocatorIjEEEENS6_4hashIjEENS6_8equal_toIjEENSC_INS6_4pairIKjSE_EEEEEE21ChiNameLessComparatorNSC_INSJ_IKS1_SN_EEEEEE+0x7f4>
<_ZN24ChiFeature2MCReprocessRT35GetMappedInputPortIndexByTargetNameEPKcPKN15ChiFeature2Base22ChiFeaturePipelineDataERNSt3__13mapIS1_NS6_13unordered_mapIjNS6_3setIjNS6_4lessIjEENS6_9allocatorIjEEEENS6_4hashIjEENS6_8equal_toIjEENSC_INS6_4pairIKjSE_EEEEEE21ChiNameLessComparatorNSC_INSJ_IKS1_SN_EEEEEE+0x9a4>
0x2c0dc <_ZN24ChiFeature2MCReprocessRT35GetMappedInputPortIndexByTargetNameEPKcPKN15ChiFeature2Base22ChiFeaturePipelineDataERNSt3__13mapIS1_NS6_13unordered_mapIjNS6_3setIjNS6_4lessIjEENS6_9allocatorIjEEEENS6_4hashIjEENS6_8equal_toIjEENSC_INS6_4pairIKjSE_EEEEEE21ChiNameLessComparatorNSC_INSJ_IKS1_SN_EEEEEE+0x9a4>
<_ZN24ChiFeature2MCReprocessRT35GetMappedInputPortIndexByTargetNameEPKcPKN15ChiFeature2Base22ChiFeaturePipelineDataERNSt3__13mapIS1_NS6_13unordered_mapIjNS6_3setIjNS6_4lessIjEENS6_9allocatorIjEEEENS6_4hashIjEENS6_8equal_toIjEENSC_INS6_4pairIKjSE_EEEEEE21ChiNameLessComparatorNSC_INSJ_IKS1_SN_EEEEEE+0x834>
0x2bf94 <_ZN24ChiFeature2MCReprocessRT35GetMappedInputPortIndexByTargetNameEPKcPKN15ChiFeature2Base22ChiFeaturePipelineDataERNSt3__13mapIS1_NS6_13unordered_mapIjNS6_3setIjNS6_4lessIjEENS6_9allocatorIjEEEENS6_4hashIjEENS6_8equal_toIjEENSC_INS6_4pairIKjSE_EEEEEE21ChiNameLessComparatorNSC_INSJ_IKS1_SN_EEEEEE+0x85c>
0x2bf94 <_ZN24ChiFeature2MCReprocessRT35GetMappedInputPortIndexByTargetNameEPKcPKN15ChiFeature2Base22ChiFeaturePipelineDataERNSt3__13mapIS1_NS6_13unordered_mapIjNS6_3setIjNS6_4lessIjEENS6_9allocatorIjEEEENS6_4hashIjEENS6_8equal_toIjEENSC_INS6_4pairIKjSE_EEEEEE21ChiNameLessComparatorNSC_INSJ_IKS1_SN_EEEEEE+0x85c>
<_ZN24ChiFeature2MCReprocessRT35GetMappedInputPortIndexByTargetNameEPKcPKN15ChiFeature2Base22ChiFeaturePipelineDataERNSt3__13mapIS1_NS6_13unordered_mapIjNS6_3setIjNS6_4lessIjEENS6_9allocatorIjEEEENS6_4hashIjEENS6_8equal_toIjEENSC_INS6_4pairIKjSE_EEEEEE21ChiNameLessComparatorNSC_INSJ_IKS1_SN_EEEEEE+0x7e8>
0x2bfa8 <_ZN24ChiFeature2MCReprocessRT35GetMappedInputPortIndexByTargetNameEPKcPKN15ChiFeature2Base22ChiFeaturePipelineDataERNSt3__13mapIS1_NS6_13unordered_mapIjNS6_3setIjNS6_4lessIjEENS6_9allocatorIjEEEENS6_4hashIjEENS6_8equal_toIjEENSC_INS6_4pairIKjSE_EEEEEE21ChiNameLessComparatorNSC_INSJ_IKS1_SN_EEEEEE+0x870>
0x2bfa8 <_ZN24ChiFeature2MCReprocessRT35GetMappedInputPortIndexByTargetNameEPKcPKN15ChiFeature2Base22ChiFeaturePipelineDataERNSt3__13mapIS1_NS6_13unordered_mapIjNS6_3setIjNS6_4lessIjEENS6_9allocatorIjEEEENS6_4hashIjEENS6_8equal_toIjEENSC_INS6_4pairIKjSE_EEEEEE21ChiNameLessComparatorNSC_INSJ_IKS1_SN_EEEEEE+0x870>
<_ZN24ChiFeature2MCReprocessRT35GetMappedInputPortIndexByTargetNameEPKcPKN15ChiFeature2Base22ChiFeaturePipelineDataERNSt3__13mapIS1_NS6_13unordered_mapIjNS6_3setIjNS6_4lessIjEENS6_9allocatorIjEEEENS6_4hashIjEENS6_8equal_toIjEENSC_INS6_4pairIKjSE_EEEEEE21ChiNameLessComparatorNSC_INSJ_IKS1_SN_EEEEEE+0x7e8>
<_ZN24ChiFeature2MCReprocessRT35GetMappedInputPortIndexByTargetNameEPKcPKN15ChiFeature2Base22ChiFeaturePipelineDataERNSt3__13mapIS1_NS6_13unordered_mapIjNS6_3setIjNS6_4lessIjEENS6_9allocatorIjEEEENS6_4hashIjEENS6_8equal_toIjEENSC_INS6_4pairIKjSE_EEEEEE21ChiNameLessComparatorNSC_INSJ_IKS1_SN_EEEEEE+0x8b0>
<_ZN24ChiFeature2MCReprocessRT35GetMappedInputPortIndexByTargetNameEPKcPKN15ChiFeature2Base22ChiFeaturePipelineDataERNSt3__13mapIS1_NS6_13unordered_mapIjNS6_3setIjNS6_4lessIjEENS6_9allocatorIjEEEENS6_4hashIjEENS6_8equal_toIjEENSC_INS6_4pairIKjSE_EEEEEE21ChiNameLessComparatorNSC_INSJ_IKS1_SN_EEEEEE+0x954>
<_ZN24ChiFeature2MCReprocessRT35GetMappedInputPortIndexByTargetNameEPKcPKN15ChiFeature2Base22ChiFeaturePipelineDataERNSt3__13mapIS1_NS6_13unordered_mapIjNS6_3setIjNS6_4lessIjEENS6_9allocatorIjEEEENS6_4hashIjEENS6_8equal_toIjEENSC_INS6_4pairIKjSE_EEEEEE21ChiNameLessComparatorNSC_INSJ_IKS1_SN_EEEEEE+0x8e0>
0x2bfcc <_ZN24ChiFeature2MCReprocessRT35GetMappedInputPortIndexByTargetNameEPKcPKN15ChiFeature2Base22ChiFeaturePipelineDataERNSt3__13mapIS1_NS6_13unordered_mapIjNS6_3setIjNS6_4lessIjEENS6_9allocatorIjEEEENS6_4hashIjEENS6_8equal_toIjEENSC_INS6_4pairIKjSE_EEEEEE21ChiNameLessComparatorNSC_INSJ_IKS1_SN_EEEEEE+0x894>
<_ZN24ChiFeature2MCReprocessRT35GetMappedInputPortIndexByTargetNameEPKcPKN15ChiFeature2Base22ChiFeaturePipelineDataERNSt3__13mapIS1_NS6_13unordered_mapIjNS6_3setIjNS6_4lessIjEENS6_9allocatorIjEEEENS6_4hashIjEENS6_8equal_toIjEENSC_INS6_4pairIKjSE_EEEEEE21ChiNameLessComparatorNSC_INSJ_IKS1_SN_EEEEEE+0x8e8>
<_ZN24ChiFeature2MCReprocessRT35GetMappedInputPortIndexByTargetNameEPKcPKN15ChiFeature2Base22ChiFeaturePipelineDataERNSt3__13mapIS1_NS6_13unordered_mapIjNS6_3setIjNS6_4lessIjEENS6_9allocatorIjEEEENS6_4hashIjEENS6_8equal_toIjEENSC_INS6_4pairIKjSE_EEEEEE21ChiNameLessComparatorNSC_INSJ_IKS1_SN_EEEEEE+0x8ec>
0x2bffc <_ZN24ChiFeature2MCReprocessRT35GetMappedInputPortIndexByTargetNameEPKcPKN15ChiFeature2Base22ChiFeaturePipelineDataERNSt3__13mapIS1_NS6_13unordered_mapIjNS6_3setIjNS6_4lessIjEENS6_9allocatorIjEEEENS6_4hashIjEENS6_8equal_toIjEENSC_INS6_4pairIKjSE_EEEEEE21ChiNameLessComparatorNSC_INSJ_IKS1_SN_EEEEEE+0x8c4>
<_ZN24ChiFeature2MCReprocessRT35GetMappedInputPortIndexByTargetNameEPKcPKN15ChiFeature2Base22ChiFeaturePipelineDataERNSt3__13mapIS1_NS6_13unordered_mapIjNS6_3setIjNS6_4lessIjEENS6_9allocatorIjEEEENS6_4hashIjEENS6_8equal_toIjEENSC_INS6_4pairIKjSE_EEEEEE21ChiNameLessComparatorNSC_INSJ_IKS1_SN_EEEEEE+0x948>
<_ZN24ChiFeature2MCReprocessRT35GetMappedInputPortIndexByTargetNameEPKcPKN15ChiFeature2Base22ChiFeaturePipelineDataERNSt3__13mapIS1_NS6_13unordered_mapIjNS6_3setIjNS6_4lessIjEENS6_9allocatorIjEEEENS6_4hashIjEENS6_8equal_toIjEENSC_INS6_4pairIKjSE_EEEEEE21ChiNameLessComparatorNSC_INSJ_IKS1_SN_EEEEEE+0x94c>
<_ZN24ChiFeature2MCReprocessRT35GetMappedInputPortIndexByTargetNameEPKcPKN15ChiFeature2Base22ChiFeaturePipelineDataERNSt3__13mapIS1_NS6_13unordered_mapIjNS6_3setIjNS6_4lessIjEENS6_9allocatorIjEEEENS6_4hashIjEENS6_8equal_toIjEENSC_INS6_4pairIKjSE_EEEEEE21ChiNameLessComparatorNSC_INSJ_IKS1_SN_EEEEEE+0x8f4>
0x2c050 <_ZN24ChiFeature2MCReprocessRT35GetMappedInputPortIndexByTargetNameEPKcPKN15ChiFeature2Base22ChiFeaturePipelineDataERNSt3__13mapIS1_NS6_13unordered_mapIjNS6_3setIjNS6_4lessIjEENS6_9allocatorIjEEEENS6_4hashIjEENS6_8equal_toIjEENSC_INS6_4pairIKjSE_EEEEEE21ChiNameLessComparatorNSC_INSJ_IKS1_SN_EEEEEE+0x918>
<_ZN24ChiFeature2MCReprocessRT35GetMappedInputPortIndexByTargetNameEPKcPKN15ChiFeature2Base22ChiFeaturePipelineDataERNSt3__13mapIS1_NS6_13unordered_mapIjNS6_3setIjNS6_4lessIjEENS6_9allocatorIjEEEENS6_4hashIjEENS6_8equal_toIjEENSC_INS6_4pairIKjSE_EEEEEE21ChiNameLessComparatorNSC_INSJ_IKS1_SN_EEEEEE+0x938>
<_ZN24ChiFeature2MCReprocessRT35GetMappedInputPortIndexByTargetNameEPKcPKN15ChiFeature2Base22ChiFeaturePipelineDataERNSt3__13mapIS1_NS6_13unordered_mapIjNS6_3setIjNS6_4lessIjEENS6_9allocatorIjEEEENS6_4hashIjEENS6_8equal_toIjEENSC_INS6_4pairIKjSE_EEEEEE21ChiNameLessComparatorNSC_INSJ_IKS1_SN_EEEEEE+0x93c>
0x2c0b0 <_ZN24ChiFeature2MCReprocessRT35GetMappedInputPortIndexByTargetNameEPKcPKN15ChiFeature2Base22ChiFeaturePipelineDataERNSt3__13mapIS1_NS6_13unordered_mapIjNS6_3setIjNS6_4lessIjEENS6_9allocatorIjEEEENS6_4hashIjEENS6_8equal_toIjEENSC_INS6_4pairIKjSE_EEEEEE21ChiNameLessComparatorNSC_INSJ_IKS1_SN_EEEEEE+0x978>
<_ZN24ChiFeature2MCReprocessRT35GetMappedInputPortIndexByTargetNameEPKcPKN15ChiFeature2Base22ChiFeaturePipelineDataERNSt3__13mapIS1_NS6_13unordered_mapIjNS6_3setIjNS6_4lessIjEENS6_9allocatorIjEEEENS6_4hashIjEENS6_8equal_toIjEENSC_INS6_4pairIKjSE_EEEEEE21ChiNameLessComparatorNSC_INSJ_IKS1_SN_EEEEEE+0x998>
<_ZN24ChiFeature2MCReprocessRT35GetMappedInputPortIndexByTargetNameEPKcPKN15ChiFeature2Base22ChiFeaturePipelineDataERNSt3__13mapIS1_NS6_13unordered_mapIjNS6_3setIjNS6_4lessIjEENS6_9allocatorIjEEEENS6_4hashIjEENS6_8equal_toIjEENSC_INS6_4pairIKjSE_EEEEEE21ChiNameLessComparatorNSC_INSJ_IKS1_SN_EEEEEE+0x99c>
0x2c114 <_ZN24ChiFeature2MCReprocessRT35GetMappedInputPortIndexByTargetNameEPKcPKN15ChiFeature2Base22ChiFeaturePipelineDataERNSt3__13mapIS1_NS6_13unordered_mapIjNS6_3setIjNS6_4lessIjEENS6_9allocatorIjEEEENS6_4hashIjEENS6_8equal_toIjEENSC_INS6_4pairIKjSE_EEEEEE21ChiNameLessComparatorNSC_INSJ_IKS1_SN_EEEEEE+0x9dc>
0x2c388 <_ZN24ChiFeature2MCReprocessRT35GetMappedInputPortIndexByTargetNameEPKcPKN15ChiFeature2Base22ChiFeaturePipelineDataERNSt3__13mapIS1_NS6_13unordered_mapIjNS6_3setIjNS6_4lessIjEENS6_9allocatorIjEEEENS6_4hashIjEENS6_8equal_toIjEENSC_INS6_4pairIKjSE_EEEEEE21ChiNameLessComparatorNSC_INSJ_IKS1_SN_EEEEEE+0xc50>
<_ZN24ChiFeature2MCReprocessRT35GetMappedInputPortIndexByTargetNameEPKcPKN15ChiFeature2Base22ChiFeaturePipelineDataERNSt3__13mapIS1_NS6_13unordered_mapIjNS6_3setIjNS6_4lessIjEENS6_9allocatorIjEEEENS6_4hashIjEENS6_8equal_toIjEENSC_INS6_4pairIKjSE_EEEEEE21ChiNameLessComparatorNSC_INSJ_IKS1_SN_EEEEEE+0x9e0>
0x2c134 <_ZN24ChiFeature2MCReprocessRT35GetMappedInputPortIndexByTargetNameEPKcPKN15ChiFeature2Base22ChiFeaturePipelineDataERNSt3__13mapIS1_NS6_13unordered_mapIjNS6_3setIjNS6_4lessIjEENS6_9allocatorIjEEEENS6_4hashIjEENS6_8equal_toIjEENSC_INS6_4pairIKjSE_EEEEEE21ChiNameLessComparatorNSC_INSJ_IKS1_SN_EEEEEE+0x9fc>
0x2c38c <_ZN24ChiFeature2MCReprocessRT35GetMappedInputPortIndexByTargetNameEPKcPKN15ChiFeature2Base22ChiFeaturePipelineDataERNSt3__13mapIS1_NS6_13unordered_mapIjNS6_3setIjNS6_4lessIjEENS6_9allocatorIjEEEENS6_4hashIjEENS6_8equal_toIjEENSC_INS6_4pairIKjSE_EEEEEE21ChiNameLessComparatorNSC_INSJ_IKS1_SN_EEEEEE+0xc54>
0x2c2ec <_ZN24ChiFeature2MCReprocessRT35GetMappedInputPortIndexByTargetNameEPKcPKN15ChiFeature2Base22ChiFeaturePipelineDataERNSt3__13mapIS1_NS6_13unordered_mapIjNS6_3setIjNS6_4lessIjEENS6_9allocatorIjEEEENS6_4hashIjEENS6_8equal_toIjEENSC_INS6_4pairIKjSE_EEEEEE21ChiNameLessComparatorNSC_INSJ_IKS1_SN_EEEEEE+0xbb4>
<_ZN24ChiFeature2MCReprocessRT35GetMappedInputPortIndexByTargetNameEPKcPKN15ChiFeature2Base22ChiFeaturePipelineDataERNSt3__13mapIS1_NS6_13unordered_mapIjNS6_3setIjNS6_4lessIjEENS6_9allocatorIjEEEENS6_4hashIjEENS6_8equal_toIjEENSC_INS6_4pairIKjSE_EEEEEE21ChiNameLessComparatorNSC_INSJ_IKS1_SN_EEEEEE+0xa28>
<_ZN24ChiFeature2MCReprocessRT35GetMappedInputPortIndexByTargetNameEPKcPKN15ChiFeature2Base22ChiFeaturePipelineDataERNSt3__13mapIS1_NS6_13unordered_mapIjNS6_3setIjNS6_4lessIjEENS6_9allocatorIjEEEENS6_4hashIjEENS6_8equal_toIjEENSC_INS6_4pairIKjSE_EEEEEE21ChiNameLessComparatorNSC_INSJ_IKS1_SN_EEEEEE+0xbc0>
<_ZN24ChiFeature2MCReprocessRT35GetMappedInputPortIndexByTargetNameEPKcPKN15ChiFeature2Base22ChiFeaturePipelineDataERNSt3__13mapIS1_NS6_13unordered_mapIjNS6_3setIjNS6_4lessIjEENS6_9allocatorIjEEEENS6_4hashIjEENS6_8equal_toIjEENSC_INS6_4pairIKjSE_EEEEEE21ChiNameLessComparatorNSC_INSJ_IKS1_SN_EEEEEE+0xbc0>
<_ZN24ChiFeature2MCReprocessRT35GetMappedInputPortIndexByTargetNameEPKcPKN15ChiFeature2Base22ChiFeaturePipelineDataERNSt3__13mapIS1_NS6_13unordered_mapIjNS6_3setIjNS6_4lessIjEENS6_9allocatorIjEEEENS6_4hashIjEENS6_8equal_toIjEENSC_INS6_4pairIKjSE_EEEEEE21ChiNameLessComparatorNSC_INSJ_IKS1_SN_EEEEEE+0xa30>
0x2c2ec <_ZN24ChiFeature2MCReprocessRT35GetMappedInputPortIndexByTargetNameEPKcPKN15ChiFeature2Base22ChiFeaturePipelineDataERNSt3__13mapIS1_NS6_13unordered_mapIjNS6_3setIjNS6_4lessIjEENS6_9allocatorIjEEEENS6_4hashIjEENS6_8equal_toIjEENSC_INS6_4pairIKjSE_EEEEEE21ChiNameLessComparatorNSC_INSJ_IKS1_SN_EEEEEE+0xbb4>
<_ZN24ChiFeature2MCReprocessRT35GetMappedInputPortIndexByTargetNameEPKcPKN15ChiFeature2Base22ChiFeaturePipelineDataERNSt3__13mapIS1_NS6_13unordered_mapIjNS6_3setIjNS6_4lessIjEENS6_9allocatorIjEEEENS6_4hashIjEENS6_8equal_toIjEENSC_INS6_4pairIKjSE_EEEEEE21ChiNameLessComparatorNSC_INSJ_IKS1_SN_EEEEEE+0xa7c>
<_ZN24ChiFeature2MCReprocessRT35GetMappedInputPortIndexByTargetNameEPKcPKN15ChiFeature2Base22ChiFeaturePipelineDataERNSt3__13mapIS1_NS6_13unordered_mapIjNS6_3setIjNS6_4lessIjEENS6_9allocatorIjEEEENS6_4hashIjEENS6_8equal_toIjEENSC_INS6_4pairIKjSE_EEEEEE21ChiNameLessComparatorNSC_INSJ_IKS1_SN_EEEEEE+0xa8c>
<_ZN24ChiFeature2MCReprocessRT35GetMappedInputPortIndexByTargetNameEPKcPKN15ChiFeature2Base22ChiFeaturePipelineDataERNSt3__13mapIS1_NS6_13unordered_mapIjNS6_3setIjNS6_4lessIjEENS6_9allocatorIjEEEENS6_4hashIjEENS6_8equal_toIjEENSC_INS6_4pairIKjSE_EEEEEE21ChiNameLessComparatorNSC_INSJ_IKS1_SN_EEEEEE+0xa8c>
0x2c2ec <_ZN24ChiFeature2MCReprocessRT35GetMappedInputPortIndexByTargetNameEPKcPKN15ChiFeature2Base22ChiFeaturePipelineDataERNSt3__13mapIS1_NS6_13unordered_mapIjNS6_3setIjNS6_4lessIjEENS6_9allocatorIjEEEENS6_4hashIjEENS6_8equal_toIjEENSC_INS6_4pairIKjSE_EEEEEE21ChiNameLessComparatorNSC_INSJ_IKS1_SN_EEEEEE+0xbb4>
<_ZN24ChiFeature2MCReprocessRT35GetMappedInputPortIndexByTargetNameEPKcPKN15ChiFeature2Base22ChiFeaturePipelineDataERNSt3__13mapIS1_NS6_13unordered_mapIjNS6_3setIjNS6_4lessIjEENS6_9allocatorIjEEEENS6_4hashIjEENS6_8equal_toIjEENSC_INS6_4pairIKjSE_EEEEEE21ChiNameLessComparatorNSC_INSJ_IKS1_SN_EEEEEE+0xb34>
<_ZN24ChiFeature2MCReprocessRT35GetMappedInputPortIndexByTargetNameEPKcPKN15ChiFeature2Base22ChiFeaturePipelineDataERNSt3__13mapIS1_NS6_13unordered_mapIjNS6_3setIjNS6_4lessIjEENS6_9allocatorIjEEEENS6_4hashIjEENS6_8equal_toIjEENSC_INS6_4pairIKjSE_EEEEEE21ChiNameLessComparatorNSC_INSJ_IKS1_SN_EEEEEE+0xab4>
0x2c2ec <_ZN24ChiFeature2MCReprocessRT35GetMappedInputPortIndexByTargetNameEPKcPKN15ChiFeature2Base22ChiFeaturePipelineDataERNSt3__13mapIS1_NS6_13unordered_mapIjNS6_3setIjNS6_4lessIjEENS6_9allocatorIjEEEENS6_4hashIjEENS6_8equal_toIjEENSC_INS6_4pairIKjSE_EEEEEE21ChiNameLessComparatorNSC_INSJ_IKS1_SN_EEEEEE+0xbb4>
<_ZN24ChiFeature2MCReprocessRT35GetMappedInputPortIndexByTargetNameEPKcPKN15ChiFeature2Base22ChiFeaturePipelineDataERNSt3__13mapIS1_NS6_13unordered_mapIjNS6_3setIjNS6_4lessIjEENS6_9allocatorIjEEEENS6_4hashIjEENS6_8equal_toIjEENSC_INS6_4pairIKjSE_EEEEEE21ChiNameLessComparatorNSC_INSJ_IKS1_SN_EEEEEE+0xaa8>
0x2c250 <_ZN24ChiFeature2MCReprocessRT35GetMappedInputPortIndexByTargetNameEPKcPKN15ChiFeature2Base22ChiFeaturePipelineDataERNSt3__13mapIS1_NS6_13unordered_mapIjNS6_3setIjNS6_4lessIjEENS6_9allocatorIjEEEENS6_4hashIjEENS6_8equal_toIjEENSC_INS6_4pairIKjSE_EEEEEE21ChiNameLessComparatorNSC_INSJ_IKS1_SN_EEEEEE+0xb18>
0x2c228 <_ZN24ChiFeature2MCReprocessRT35GetMappedInputPortIndexByTargetNameEPKcPKN15ChiFeature2Base22ChiFeaturePipelineDataERNSt3__13mapIS1_NS6_13unordered_mapIjNS6_3setIjNS6_4lessIjEENS6_9allocatorIjEEEENS6_4hashIjEENS6_8equal_toIjEENSC_INS6_4pairIKjSE_EEEEEE21ChiNameLessComparatorNSC_INSJ_IKS1_SN_EEEEEE+0xaf0>
<_ZN24ChiFeature2MCReprocessRT35GetMappedInputPortIndexByTargetNameEPKcPKN15ChiFeature2Base22ChiFeaturePipelineDataERNSt3__13mapIS1_NS6_13unordered_mapIjNS6_3setIjNS6_4lessIjEENS6_9allocatorIjEEEENS6_4hashIjEENS6_8equal_toIjEENSC_INS6_4pairIKjSE_EEEEEE21ChiNameLessComparatorNSC_INSJ_IKS1_SN_EEEEEE+0xad4>
<_ZN24ChiFeature2MCReprocessRT35GetMappedInputPortIndexByTargetNameEPKcPKN15ChiFeature2Base22ChiFeaturePipelineDataERNSt3__13mapIS1_NS6_13unordered_mapIjNS6_3setIjNS6_4lessIjEENS6_9allocatorIjEEEENS6_4hashIjEENS6_8equal_toIjEENSC_INS6_4pairIKjSE_EEEEEE21ChiNameLessComparatorNSC_INSJ_IKS1_SN_EEEEEE+0xaac>
<_ZN24ChiFeature2MCReprocessRT35GetMappedInputPortIndexByTargetNameEPKcPKN15ChiFeature2Base22ChiFeaturePipelineDataERNSt3__13mapIS1_NS6_13unordered_mapIjNS6_3setIjNS6_4lessIjEENS6_9allocatorIjEEEENS6_4hashIjEENS6_8equal_toIjEENSC_INS6_4pairIKjSE_EEEEEE21ChiNameLessComparatorNSC_INSJ_IKS1_SN_EEEEEE+0xaac>
0x2c2ec <_ZN24ChiFeature2MCReprocessRT35GetMappedInputPortIndexByTargetNameEPKcPKN15ChiFeature2Base22ChiFeaturePipelineDataERNSt3__13mapIS1_NS6_13unordered_mapIjNS6_3setIjNS6_4lessIjEENS6_9allocatorIjEEEENS6_4hashIjEENS6_8equal_toIjEENSC_INS6_4pairIKjSE_EEEEEE21ChiNameLessComparatorNSC_INSJ_IKS1_SN_EEEEEE+0xbb4>
<_ZN24ChiFeature2MCReprocessRT35GetMappedInputPortIndexByTargetNameEPKcPKN15ChiFeature2Base22ChiFeaturePipelineDataERNSt3__13mapIS1_NS6_13unordered_mapIjNS6_3setIjNS6_4lessIjEENS6_9allocatorIjEEEENS6_4hashIjEENS6_8equal_toIjEENSC_INS6_4pairIKjSE_EEEEEE21ChiNameLessComparatorNSC_INSJ_IKS1_SN_EEEEEE+0xb48>
<_ZN24ChiFeature2MCReprocessRT35GetMappedInputPortIndexByTargetNameEPKcPKN15ChiFeature2Base22ChiFeaturePipelineDataERNSt3__13mapIS1_NS6_13unordered_mapIjNS6_3setIjNS6_4lessIjEENS6_9allocatorIjEEEENS6_4hashIjEENS6_8equal_toIjEENSC_INS6_4pairIKjSE_EEEEEE21ChiNameLessComparatorNSC_INSJ_IKS1_SN_EEEEEE+0xb28>
0x2c2dc <_ZN24ChiFeature2MCReprocessRT35GetMappedInputPortIndexByTargetNameEPKcPKN15ChiFeature2Base22ChiFeaturePipelineDataERNSt3__13mapIS1_NS6_13unordered_mapIjNS6_3setIjNS6_4lessIjEENS6_9allocatorIjEEEENS6_4hashIjEENS6_8equal_toIjEENSC_INS6_4pairIKjSE_EEEEEE21ChiNameLessComparatorNSC_INSJ_IKS1_SN_EEEEEE+0xba4>
0x2c2b4 <_ZN24ChiFeature2MCReprocessRT35GetMappedInputPortIndexByTargetNameEPKcPKN15ChiFeature2Base22ChiFeaturePipelineDataERNSt3__13mapIS1_NS6_13unordered_mapIjNS6_3setIjNS6_4lessIjEENS6_9allocatorIjEEEENS6_4hashIjEENS6_8equal_toIjEENSC_INS6_4pairIKjSE_EEEEEE21ChiNameLessComparatorNSC_INSJ_IKS1_SN_EEEEEE+0xb7c>
<_ZN24ChiFeature2MCReprocessRT35GetMappedInputPortIndexByTargetNameEPKcPKN15ChiFeature2Base22ChiFeaturePipelineDataERNSt3__13mapIS1_NS6_13unordered_mapIjNS6_3setIjNS6_4lessIjEENS6_9allocatorIjEEEENS6_4hashIjEENS6_8equal_toIjEENSC_INS6_4pairIKjSE_EEEEEE21ChiNameLessComparatorNSC_INSJ_IKS1_SN_EEEEEE+0xb60>
<_ZN24ChiFeature2MCReprocessRT35GetMappedInputPortIndexByTargetNameEPKcPKN15ChiFeature2Base22ChiFeaturePipelineDataERNSt3__13mapIS1_NS6_13unordered_mapIjNS6_3setIjNS6_4lessIjEENS6_9allocatorIjEEEENS6_4hashIjEENS6_8equal_toIjEENSC_INS6_4pairIKjSE_EEEEEE21ChiNameLessComparatorNSC_INSJ_IKS1_SN_EEEEEE+0xb2c>
<_ZN24ChiFeature2MCReprocessRT35GetMappedInputPortIndexByTargetNameEPKcPKN15ChiFeature2Base22ChiFeaturePipelineDataERNSt3__13mapIS1_NS6_13unordered_mapIjNS6_3setIjNS6_4lessIjEENS6_9allocatorIjEEEENS6_4hashIjEENS6_8equal_toIjEENSC_INS6_4pairIKjSE_EEEEEE21ChiNameLessComparatorNSC_INSJ_IKS1_SN_EEEEEE+0xb2c>
<_ZN24ChiFeature2MCReprocessRT35GetMappedInputPortIndexByTargetNameEPKcPKN15ChiFeature2Base22ChiFeaturePipelineDataERNSt3__13mapIS1_NS6_13unordered_mapIjNS6_3setIjNS6_4lessIjEENS6_9allocatorIjEEEENS6_4hashIjEENS6_8equal_toIjEENSC_INS6_4pairIKjSE_EEEEEE21ChiNameLessComparatorNSC_INSJ_IKS1_SN_EEEEEE+0xbd4>
0x2c180 <_ZN24ChiFeature2MCReprocessRT35GetMappedInputPortIndexByTargetNameEPKcPKN15ChiFeature2Base22ChiFeaturePipelineDataERNSt3__13mapIS1_NS6_13unordered_mapIjNS6_3setIjNS6_4lessIjEENS6_9allocatorIjEEEENS6_4hashIjEENS6_8equal_toIjEENSC_INS6_4pairIKjSE_EEEEEE21ChiNameLessComparatorNSC_INSJ_IKS1_SN_EEEEEE+0xa48>
<_ZN24ChiFeature2MCReprocessRT35GetMappedInputPortIndexByTargetNameEPKcPKN15ChiFeature2Base22ChiFeaturePipelineDataERNSt3__13mapIS1_NS6_13unordered_mapIjNS6_3setIjNS6_4lessIjEENS6_9allocatorIjEEEENS6_4hashIjEENS6_8equal_toIjEENSC_INS6_4pairIKjSE_EEEEEE21ChiNameLessComparatorNSC_INSJ_IKS1_SN_EEEEEE+0xc18>
<_ZN24ChiFeature2MCReprocessRT35GetMappedInputPortIndexByTargetNameEPKcPKN15ChiFeature2Base22ChiFeaturePipelineDataERNSt3__13mapIS1_NS6_13unordered_mapIjNS6_3setIjNS6_4lessIjEENS6_9allocatorIjEEEENS6_4hashIjEENS6_8equal_toIjEENSC_INS6_4pairIKjSE_EEEEEE21ChiNameLessComparatorNSC_INSJ_IKS1_SN_EEEEEE+0xa48>
#2, 0x2c368 <_ZN24ChiFeature2MCReprocessRT35GetMappedInputPortIndexByTargetNameEPKcPKN15ChiFeature2Base22ChiFeaturePipelineDataERNSt3__13mapIS1_NS6_13unordered_mapIjNS6_3setIjNS6_4lessIjEENS6_9allocatorIjEEEENS6_4hashIjEENS6_8equal_toIjEENSC_INS6_4pairIKjSE_EEEEEE21ChiNameLessComparatorNSC_INSJ_IKS1_SN_EEEEEE+0xc30>
<_ZN24ChiFeature2MCReprocessRT35GetMappedInputPortIndexByTargetNameEPKcPKN15ChiFeature2Base22ChiFeaturePipelineDataERNSt3__13mapIS1_NS6_13unordered_mapIjNS6_3setIjNS6_4lessIjEENS6_9allocatorIjEEEENS6_4hashIjEENS6_8equal_toIjEENSC_INS6_4pairIKjSE_EEEEEE21ChiNameLessComparatorNSC_INSJ_IKS1_SN_EEEEEE+0xa48>
#1, 0x2c380 <_ZN24ChiFeature2MCReprocessRT35GetMappedInputPortIndexByTargetNameEPKcPKN15ChiFeature2Base22ChiFeaturePipelineDataERNSt3__13mapIS1_NS6_13unordered_mapIjNS6_3setIjNS6_4lessIjEENS6_9allocatorIjEEEENS6_4hashIjEENS6_8equal_toIjEENSC_INS6_4pairIKjSE_EEEEEE21ChiNameLessComparatorNSC_INSJ_IKS1_SN_EEEEEE+0xc48>
<_ZN24ChiFeature2MCReprocessRT35GetMappedInputPortIndexByTargetNameEPKcPKN15ChiFeature2Base22ChiFeaturePipelineDataERNSt3__13mapIS1_NS6_13unordered_mapIjNS6_3setIjNS6_4lessIjEENS6_9allocatorIjEEEENS6_4hashIjEENS6_8equal_toIjEENSC_INS6_4pairIKjSE_EEEEEE21ChiNameLessComparatorNSC_INSJ_IKS1_SN_EEEEEE+0xa48>
<_ZN24ChiFeature2MCReprocessRT35GetMappedInputPortIndexByTargetNameEPKcPKN15ChiFeature2Base22ChiFeaturePipelineDataERNSt3__13mapIS1_NS6_13unordered_mapIjNS6_3setIjNS6_4lessIjEENS6_9allocatorIjEEEENS6_4hashIjEENS6_8equal_toIjEENSC_INS6_4pairIKjSE_EEEEEE21ChiNameLessComparatorNSC_INSJ_IKS1_SN_EEEEEE+0xa48>
<_ZN24ChiFeature2MCReprocessRT35GetMappedInputPortIndexByTargetNameEPKcPKN15ChiFeature2Base22ChiFeaturePipelineDataERNSt3__13mapIS1_NS6_13unordered_mapIjNS6_3setIjNS6_4lessIjEENS6_9allocatorIjEEEENS6_4hashIjEENS6_8equal_toIjEENSC_INS6_4pairIKjSE_EEEEEE21ChiNameLessComparatorNSC_INSJ_IKS1_SN_EEEEEE+0xcb0>
<_ZN24ChiFeature2MCReprocessRT35GetMappedInputPortIndexByTargetNameEPKcPKN15ChiFeature2Base22ChiFeaturePipelineDataERNSt3__13mapIS1_NS6_13unordered_mapIjNS6_3setIjNS6_4lessIjEENS6_9allocatorIjEEEENS6_4hashIjEENS6_8equal_toIjEENSC_INS6_4pairIKjSE_EEEEEE21ChiNameLessComparatorNSC_INSJ_IKS1_SN_EEEEEE+0xd70>
0x2c4ac <_ZN24ChiFeature2MCReprocessRT35GetMappedInputPortIndexByTargetNameEPKcPKN15ChiFeature2Base22ChiFeaturePipelineDataERNSt3__13mapIS1_NS6_13unordered_mapIjNS6_3setIjNS6_4lessIjEENS6_9allocatorIjEEEENS6_4hashIjEENS6_8equal_toIjEENSC_INS6_4pairIKjSE_EEEEEE21ChiNameLessComparatorNSC_INSJ_IKS1_SN_EEEEEE+0xd74>
<_ZN24ChiFeature2MCReprocessRT35GetMappedInputPortIndexByTargetNameEPKcPKN15ChiFeature2Base22ChiFeaturePipelineDataERNSt3__13mapIS1_NS6_13unordered_mapIjNS6_3setIjNS6_4lessIjEENS6_9allocatorIjEEEENS6_4hashIjEENS6_8equal_toIjEENSC_INS6_4pairIKjSE_EEEEEE21ChiNameLessComparatorNSC_INSJ_IKS1_SN_EEEEEE+0xcf8>
0x2c434 <_ZN24ChiFeature2MCReprocessRT35GetMappedInputPortIndexByTargetNameEPKcPKN15ChiFeature2Base22ChiFeaturePipelineDataERNSt3__13mapIS1_NS6_13unordered_mapIjNS6_3setIjNS6_4lessIjEENS6_9allocatorIjEEEENS6_4hashIjEENS6_8equal_toIjEENSC_INS6_4pairIKjSE_EEEEEE21ChiNameLessComparatorNSC_INSJ_IKS1_SN_EEEEEE+0xcfc>
<_ZN24ChiFeature2MCReprocessRT35GetMappedInputPortIndexByTargetNameEPKcPKN15ChiFeature2Base22ChiFeaturePipelineDataERNSt3__13mapIS1_NS6_13unordered_mapIjNS6_3setIjNS6_4lessIjEENS6_9allocatorIjEEEENS6_4hashIjEENS6_8equal_toIjEENSC_INS6_4pairIKjSE_EEEEEE21ChiNameLessComparatorNSC_INSJ_IKS1_SN_EEEEEE+0xd0c>
<_ZN24ChiFeature2MCReprocessRT35GetMappedInputPortIndexByTargetNameEPKcPKN15ChiFeature2Base22ChiFeaturePipelineDataERNSt3__13mapIS1_NS6_13unordered_mapIjNS6_3setIjNS6_4lessIjEENS6_9allocatorIjEEEENS6_4hashIjEENS6_8equal_toIjEENSC_INS6_4pairIKjSE_EEEEEE21ChiNameLessComparatorNSC_INSJ_IKS1_SN_EEEEEE+0xd38>
<_ZN24ChiFeature2MCReprocessRT35GetMappedInputPortIndexByTargetNameEPKcPKN15ChiFeature2Base22ChiFeaturePipelineDataERNSt3__13mapIS1_NS6_13unordered_mapIjNS6_3setIjNS6_4lessIjEENS6_9allocatorIjEEEENS6_4hashIjEENS6_8equal_toIjEENSC_INS6_4pairIKjSE_EEEEEE21ChiNameLessComparatorNSC_INSJ_IKS1_SN_EEEEEE+0xd6c>
0x2c3d0 <_ZN24ChiFeature2MCReprocessRT35GetMappedInputPortIndexByTargetNameEPKcPKN15ChiFeature2Base22ChiFeaturePipelineDataERNSt3__13mapIS1_NS6_13unordered_mapIjNS6_3setIjNS6_4lessIjEENS6_9allocatorIjEEEENS6_4hashIjEENS6_8equal_toIjEENSC_INS6_4pairIKjSE_EEEEEE21ChiNameLessComparatorNSC_INSJ_IKS1_SN_EEEEEE+0xc98>
0x2c4a4 <_ZN24ChiFeature2MCReprocessRT35GetMappedInputPortIndexByTargetNameEPKcPKN15ChiFeature2Base22ChiFeaturePipelineDataERNSt3__13mapIS1_NS6_13unordered_mapIjNS6_3setIjNS6_4lessIjEENS6_9allocatorIjEEEENS6_4hashIjEENS6_8equal_toIjEENSC_INS6_4pairIKjSE_EEEEEE21ChiNameLessComparatorNSC_INSJ_IKS1_SN_EEEEEE+0xd6c>
<_ZNKSt3__120__vector_base_commonILb1EE20__throw_length_errorEv@plt>
0x2c4f4 <_ZN24ChiFeature2MCReprocessRT35GetMappedInputPortIndexByTargetNameEPKcPKN15ChiFeature2Base22ChiFeaturePipelineDataERNSt3__13mapIS1_NS6_13unordered_mapIjNS6_3setIjNS6_4lessIjEENS6_9allocatorIjEEEENS6_4hashIjEENS6_8equal_toIjEENSC_INS6_4pairIKjSE_EEEEEE21ChiNameLessComparatorNSC_INSJ_IKS1_SN_EEEEEE+0xdbc>
0x2c4f4 <_ZN24ChiFeature2MCReprocessRT35GetMappedInputPortIndexByTargetNameEPKcPKN15ChiFeature2Base22ChiFeaturePipelineDataERNSt3__13mapIS1_NS6_13unordered_mapIjNS6_3setIjNS6_4lessIjEENS6_9allocatorIjEEEENS6_4hashIjEENS6_8equal_toIjEENSC_INS6_4pairIKjSE_EEEEEE21ChiNameLessComparatorNSC_INSJ_IKS1_SN_EEEEEE+0xdbc>
#0, 0x2c5b8 <_ZN24ChiFeature2MCReprocessRT35GetMappedInputPortIndexByTargetNameEPKcPKN15ChiFeature2Base22ChiFeaturePipelineDataERNSt3__13mapIS1_NS6_13unordered_mapIjNS6_3setIjNS6_4lessIjEENS6_9allocatorIjEEEENS6_4hashIjEENS6_8equal_toIjEENSC_INS6_4pairIKjSE_EEEEEE21ChiNameLessComparatorNSC_INSJ_IKS1_SN_EEEEEE+0xe80>
<_ZN24ChiFeature2MCReprocessRT35GetMappedInputPortIndexByTargetNameEPKcPKN15ChiFeature2Base22ChiFeaturePipelineDataERNSt3__13mapIS1_NS6_13unordered_mapIjNS6_3setIjNS6_4lessIjEENS6_9allocatorIjEEEENS6_4hashIjEENS6_8equal_toIjEENSC_INS6_4pairIKjSE_EEEEEE21ChiNameLessComparatorNSC_INSJ_IKS1_SN_EEEEEE+0xda0>
0x45000 <_ZN24ChiFeature2MCReprocessRT35GetMappedInputPortIndexByTargetNameEPKcPKN15ChiFeature2Base22ChiFeaturePipelineDataERNSt3__13mapIS1_NS6_13unordered_mapIjNS6_3setIjNS6_4lessIjEENS6_9allocatorIjEEEENS6_4hashIjEENS6_8equal_toIjEENSC_INS6_4pairIKjSE_EEEEEE21ChiNameLessComparatorNSC_INSJ_IKS1_SN_EEEEEE+0xe24>
#3, 0x2c5a8 <_ZN24ChiFeature2MCReprocessRT35GetMappedInputPortIndexByTargetNameEPKcPKN15ChiFeature2Base22ChiFeaturePipelineDataERNSt3__13mapIS1_NS6_13unordered_mapIjNS6_3setIjNS6_4lessIjEENS6_9allocatorIjEEEENS6_4hashIjEENS6_8equal_toIjEENSC_INS6_4pairIKjSE_EEEEEE21ChiNameLessComparatorNSC_INSJ_IKS1_SN_EEEEEE+0xe70>
0x45000 <_ZN24ChiFeature2MCReprocessRT35GetMappedInputPortIndexByTargetNameEPKcPKN15ChiFeature2Base22ChiFeaturePipelineDataERNSt3__13mapIS1_NS6_13unordered_mapIjNS6_3setIjNS6_4lessIjEENS6_9allocatorIjEEEENS6_4hashIjEENS6_8equal_toIjEENSC_INS6_4pairIKjSE_EEEEEE21ChiNameLessComparatorNSC_INSJ_IKS1_SN_EEEEEE+0xe34>
0xb000 <_ZN24ChiFeature2MCReprocessRT35GetMappedInputPortIndexByTargetNameEPKcPKN15ChiFeature2Base22ChiFeaturePipelineDataERNSt3__13mapIS1_NS6_13unordered_mapIjNS6_3setIjNS6_4lessIjEENS6_9allocatorIjEEEENS6_4hashIjEENS6_8equal_toIjEENSC_INS6_4pairIKjSE_EEEEEE21ChiNameLessComparatorNSC_INSJ_IKS1_SN_EEEEEE+0xd50>
<_ZN24ChiFeature2MCReprocessRT35GetMappedInputPortIndexByTargetNameEPKcPKN15ChiFeature2Base22ChiFeaturePipelineDataERNSt3__13mapIS1_NS6_13unordered_mapIjNS6_3setIjNS6_4lessIjEENS6_9allocatorIjEEEENS6_4hashIjEENS6_8equal_toIjEENSC_INS6_4pairIKjSE_EEEEEE21ChiNameLessComparatorNSC_INSJ_IKS1_SN_EEEEEE+0xe2c>
0x11000 <_ZN24ChiFeature2MCReprocessRT35GetMappedInputPortIndexByTargetNameEPKcPKN15ChiFeature2Base22ChiFeaturePipelineDataERNSt3__13mapIS1_NS6_13unordered_mapIjNS6_3setIjNS6_4lessIjEENS6_9allocatorIjEEEENS6_4hashIjEENS6_8equal_toIjEENSC_INS6_4pairIKjSE_EEEEEE21ChiNameLessComparatorNSC_INSJ_IKS1_SN_EEEEEE+0xd94>
0xf000 <_ZN24ChiFeature2MCReprocessRT35GetMappedInputPortIndexByTargetNameEPKcPKN15ChiFeature2Base22ChiFeaturePipelineDataERNSt3__13mapIS1_NS6_13unordered_mapIjNS6_3setIjNS6_4lessIjEENS6_9allocatorIjEEEENS6_4hashIjEENS6_8equal_toIjEENSC_INS6_4pairIKjSE_EEEEEE21ChiNameLessComparatorNSC_INSJ_IKS1_SN_EEEEEE+0xd90>
0x11000 <_ZN24ChiFeature2MCReprocessRT35GetMappedInputPortIndexByTargetNameEPKcPKN15ChiFeature2Base22ChiFeaturePipelineDataERNSt3__13mapIS1_NS6_13unordered_mapIjNS6_3setIjNS6_4lessIjEENS6_9allocatorIjEEEENS6_4hashIjEENS6_8equal_toIjEENSC_INS6_4pairIKjSE_EEEEEE21ChiNameLessComparatorNSC_INSJ_IKS1_SN_EEEEEE+0xd9c>
0xe000 <_ZN24ChiFeature2MCReprocessRT35GetMappedInputPortIndexByTargetNameEPKcPKN15ChiFeature2Base22ChiFeaturePipelineDataERNSt3__13mapIS1_NS6_13unordered_mapIjNS6_3setIjNS6_4lessIjEENS6_9allocatorIjEEEENS6_4hashIjEENS6_8equal_toIjEENSC_INS6_4pairIKjSE_EEEEEE21ChiNameLessComparatorNSC_INSJ_IKS1_SN_EEEEEE+0xdc8>
0x11000 <_ZN24ChiFeature2MCReprocessRT35GetMappedInputPortIndexByTargetNameEPKcPKN15ChiFeature2Base22ChiFeaturePipelineDataERNSt3__13mapIS1_NS6_13unordered_mapIjNS6_3setIjNS6_4lessIjEENS6_9allocatorIjEEEENS6_4hashIjEENS6_8equal_toIjEENSC_INS6_4pairIKjSE_EEEEEE21ChiNameLessComparatorNSC_INSJ_IKS1_SN_EEEEEE+0xddc>
0x11000 <_ZN24ChiFeature2MCReprocessRT35GetMappedInputPortIndexByTargetNameEPKcPKN15ChiFeature2Base22ChiFeaturePipelineDataERNSt3__13mapIS1_NS6_13unordered_mapIjNS6_3setIjNS6_4lessIjEENS6_9allocatorIjEEEENS6_4hashIjEENS6_8equal_toIjEENSC_INS6_4pairIKjSE_EEEEEE21ChiNameLessComparatorNSC_INSJ_IKS1_SN_EEEEEE+0xde0>
0x10000 <_ZN24ChiFeature2MCReprocessRT35GetMappedInputPortIndexByTargetNameEPKcPKN15ChiFeature2Base22ChiFeaturePipelineDataERNSt3__13mapIS1_NS6_13unordered_mapIjNS6_3setIjNS6_4lessIjEENS6_9allocatorIjEEEENS6_4hashIjEENS6_8equal_toIjEENSC_INS6_4pairIKjSE_EEEEEE21ChiNameLessComparatorNSC_INSJ_IKS1_SN_EEEEEE+0xde0>
<_ZN6ChiLog9LogSystemEPKcS1_S1_S1_iS1_z@plt>
<_ZN24ChiFeature2MCReprocessRT35GetMappedInputPortIndexByTargetNameEPKcPKN15ChiFeature2Base22ChiFeaturePipelineDataERNSt3__13mapIS1_NS6_13unordered_mapIjNS6_3setIjNS6_4lessIjEENS6_9allocatorIjEEEENS6_4hashIjEENS6_8equal_toIjEENSC_INS6_4pairIKjSE_EEEEEE21ChiNameLessComparatorNSC_INSJ_IKS1_SN_EEEEEE+0xeb0>
<_ZN24ChiFeature2MCReprocessRT35GetMappedInputPortIndexByTargetNameEPKcPKN15ChiFeature2Base22ChiFeaturePipelineDataERNSt3__13mapIS1_NS6_13unordered_mapIjNS6_3setIjNS6_4lessIjEENS6_9allocatorIjEEEENS6_4hashIjEENS6_8equal_toIjEENSC_INS6_4pairIKjSE_EEEEEE21ChiNameLessComparatorNSC_INSJ_IKS1_SN_EEEEEE+0xec0>
<_ZN24ChiFeature2MCReprocessRT35GetMappedInputPortIndexByTargetNameEPKcPKN15ChiFeature2Base22ChiFeaturePipelineDataERNSt3__13mapIS1_NS6_13unordered_mapIjNS6_3setIjNS6_4lessIjEENS6_9allocatorIjEEEENS6_4hashIjEENS6_8equal_toIjEENSC_INS6_4pairIKjSE_EEEEEE21ChiNameLessComparatorNSC_INSJ_IKS1_SN_EEEEEE+0xec0>
<_ZN24ChiFeature2MCReprocessRT35GetMappedInputPortIndexByTargetNameEPKcPKN15ChiFeature2Base22ChiFeaturePipelineDataERNSt3__13mapIS1_NS6_13unordered_mapIjNS6_3setIjNS6_4lessIjEENS6_9allocatorIjEEEENS6_4hashIjEENS6_8equal_toIjEENSC_INS6_4pairIKjSE_EEEEEE21ChiNameLessComparatorNSC_INSJ_IKS1_SN_EEEEEE+0xdc0>
<_ZN24ChiFeature2MCReprocessRT35GetMappedInputPortIndexByTargetNameEPKcPKN15ChiFeature2Base22ChiFeaturePipelineDataERNSt3__13mapIS1_NS6_13unordered_mapIjNS6_3setIjNS6_4lessIjEENS6_9allocatorIjEEEENS6_4hashIjEENS6_8equal_toIjEENSC_INS6_4pairIKjSE_EEEEEE21ChiNameLessComparatorNSC_INSJ_IKS1_SN_EEEEEE+0xdc0>
<_ZN24ChiFeature2MCReprocessRT35GetMappedInputPortIndexByTargetNameEPKcPKN15ChiFeature2Base22ChiFeaturePipelineDataERNSt3__13mapIS1_NS6_13unordered_mapIjNS6_3setIjNS6_4lessIjEENS6_9allocatorIjEEEENS6_4hashIjEENS6_8equal_toIjEENSC_INS6_4pairIKjSE_EEEEEE21ChiNameLessComparatorNSC_INSJ_IKS1_SN_EEEEEE+0xdc0>
0x2c634 <_ZN24ChiFeature2MCReprocessRT35GetMappedInputPortIndexByTargetNameEPKcPKN15ChiFeature2Base22ChiFeaturePipelineDataERNSt3__13mapIS1_NS6_13unordered_mapIjNS6_3setIjNS6_4lessIjEENS6_9allocatorIjEEEENS6_4hashIjEENS6_8equal_toIjEENSC_INS6_4pairIKjSE_EEEEEE21ChiNameLessComparatorNSC_INSJ_IKS1_SN_EEEEEE+0xefc>
<_ZN24ChiFeature2MCReprocessRT35GetMappedInputPortIndexByTargetNameEPKcPKN15ChiFeature2Base22ChiFeaturePipelineDataERNSt3__13mapIS1_NS6_13unordered_mapIjNS6_3setIjNS6_4lessIjEENS6_9allocatorIjEEEENS6_4hashIjEENS6_8equal_toIjEENSC_INS6_4pairIKjSE_EEEEEE21ChiNameLessComparatorNSC_INSJ_IKS1_SN_EEEEEE+0xec8>
<_ZN24ChiFeature2MCReprocessRT35GetMappedInputPortIndexByTargetNameEPKcPKN15ChiFeature2Base22ChiFeaturePipelineDataERNSt3__13mapIS1_NS6_13unordered_mapIjNS6_3setIjNS6_4lessIjEENS6_9allocatorIjEEEENS6_4hashIjEENS6_8equal_toIjEENSC_INS6_4pairIKjSE_EEEEEE21ChiNameLessComparatorNSC_INSJ_IKS1_SN_EEEEEE+0xec8>
<_ZN24ChiFeature2MCReprocessRT35GetMappedInputPortIndexByTargetNameEPKcPKN15ChiFeature2Base22ChiFeaturePipelineDataERNSt3__13mapIS1_NS6_13unordered_mapIjNS6_3setIjNS6_4lessIjEENS6_9allocatorIjEEEENS6_4hashIjEENS6_8equal_toIjEENSC_INS6_4pairIKjSE_EEEEEE21ChiNameLessComparatorNSC_INSJ_IKS1_SN_EEEEEE+0xf18>
<_ZN24ChiFeature2MCReprocessRT35GetMappedInputPortIndexByTargetNameEPKcPKN15ChiFeature2Base22ChiFeaturePipelineDataERNSt3__13mapIS1_NS6_13unordered_mapIjNS6_3setIjNS6_4lessIjEENS6_9allocatorIjEEEENS6_4hashIjEENS6_8equal_toIjEENSC_INS6_4pairIKjSE_EEEEEE21ChiNameLessComparatorNSC_INSJ_IKS1_SN_EEEEEE+0xf3c>
<_ZN24ChiFeature2MCReprocessRT35GetMappedInputPortIndexByTargetNameEPKcPKN15ChiFeature2Base22ChiFeaturePipelineDataERNSt3__13mapIS1_NS6_13unordered_mapIjNS6_3setIjNS6_4lessIjEENS6_9allocatorIjEEEENS6_4hashIjEENS6_8equal_toIjEENSC_INS6_4pairIKjSE_EEEEEE21ChiNameLessComparatorNSC_INSJ_IKS1_SN_EEEEEE+0xf10>
<_ZN24ChiFeature2MCReprocessRT35GetMappedInputPortIndexByTargetNameEPKcPKN15ChiFeature2Base22ChiFeaturePipelineDataERNSt3__13mapIS1_NS6_13unordered_mapIjNS6_3setIjNS6_4lessIjEENS6_9allocatorIjEEEENS6_4hashIjEENS6_8equal_toIjEENSC_INS6_4pairIKjSE_EEEEEE21ChiNameLessComparatorNSC_INSJ_IKS1_SN_EEEEEE+0xf44>
<_ZN24ChiFeature2MCReprocessRT35GetMappedInputPortIndexByTargetNameEPKcPKN15ChiFeature2Base22ChiFeaturePipelineDataERNSt3__13mapIS1_NS6_13unordered_mapIjNS6_3setIjNS6_4lessIjEENS6_9allocatorIjEEEENS6_4hashIjEENS6_8equal_toIjEENSC_INS6_4pairIKjSE_EEEEEE21ChiNameLessComparatorNSC_INSJ_IKS1_SN_EEEEEE+0xf10>
<_ZN24ChiFeature2MCReprocessRT35GetMappedInputPortIndexByTargetNameEPKcPKN15ChiFeature2Base22ChiFeaturePipelineDataERNSt3__13mapIS1_NS6_13unordered_mapIjNS6_3setIjNS6_4lessIjEENS6_9allocatorIjEEEENS6_4hashIjEENS6_8equal_toIjEENSC_INS6_4pairIKjSE_EEEEEE21ChiNameLessComparatorNSC_INSJ_IKS1_SN_EEEEEE+0xf74>
0x2c648 <_ZN24ChiFeature2MCReprocessRT35GetMappedInputPortIndexByTargetNameEPKcPKN15ChiFeature2Base22ChiFeaturePipelineDataERNSt3__13mapIS1_NS6_13unordered_mapIjNS6_3setIjNS6_4lessIjEENS6_9allocatorIjEEEENS6_4hashIjEENS6_8equal_toIjEENSC_INS6_4pairIKjSE_EEEEEE21ChiNameLessComparatorNSC_INSJ_IKS1_SN_EEEEEE+0xf10>

0x45000 <_ZNK24ChiFeature2MCReprocessRT26FilterPortsBasedOnExposureEP21ChiFeature2PortIdListRNSt3__16vectorI21ChiFeature2IdentifierNS2_9allocatorIS4_EEEE+0x18>
0x2c714 <_ZN24ChiFeature2MCReprocessRTD2Ev+0x44>
0x2c724 <_ZN24ChiFeature2MCReprocessRTD2Ev+0x54>
<_ZN15ChiFeature2BaseD2Ev@plt>

0x2ca7c <_ZNK24ChiFeature2MCReprocessRT26FilterPortsBasedOnExposureEP21ChiFeature2PortIdListRNSt3__16vectorI21ChiFeature2IdentifierNS2_9allocatorIS4_EEEE+0x354>
0x44000 <_ZNK24ChiFeature2MCReprocessRT26FilterPortsBasedOnExposureEP21ChiFeature2PortIdListRNSt3__16vectorI21ChiFeature2IdentifierNS2_9allocatorIS4_EEEE+0x8c>
<_ZNK24ChiFeature2MCReprocessRT26FilterPortsBasedOnExposureEP21ChiFeature2PortIdListRNSt3__16vectorI21ChiFeature2IdentifierNS2_9allocatorIS4_EEEE+0x70>
<_ZNK24ChiFeature2MCReprocessRT26FilterPortsBasedOnExposureEP21ChiFeature2PortIdListRNSt3__16vectorI21ChiFeature2IdentifierNS2_9allocatorIS4_EEEE+0x354>
<_ZNK24ChiFeature2MCReprocessRT26FilterPortsBasedOnExposureEP21ChiFeature2PortIdListRNSt3__16vectorI21ChiFeature2IdentifierNS2_9allocatorIS4_EEEE+0x18c>
<_ZNK24ChiFeature2MCReprocessRT26FilterPortsBasedOnExposureEP21ChiFeature2PortIdListRNSt3__16vectorI21ChiFeature2IdentifierNS2_9allocatorIS4_EEEE+0x1b0>
<_ZNK24ChiFeature2MCReprocessRT26FilterPortsBasedOnExposureEP21ChiFeature2PortIdListRNSt3__16vectorI21ChiFeature2IdentifierNS2_9allocatorIS4_EEEE+0x1d8>
0x2c784 <_ZNK24ChiFeature2MCReprocessRT26FilterPortsBasedOnExposureEP21ChiFeature2PortIdListRNSt3__16vectorI21ChiFeature2IdentifierNS2_9allocatorIS4_EEEE+0x5c>
<_ZNK24ChiFeature2MCReprocessRT26FilterPortsBasedOnExposureEP21ChiFeature2PortIdListRNSt3__16vectorI21ChiFeature2IdentifierNS2_9allocatorIS4_EEEE+0x5c>
0x2c784 <_ZNK24ChiFeature2MCReprocessRT26FilterPortsBasedOnExposureEP21ChiFeature2PortIdListRNSt3__16vectorI21ChiFeature2IdentifierNS2_9allocatorIS4_EEEE+0x5c>
<_ZNK24ChiFeature2MCReprocessRT26FilterPortsBasedOnExposureEP21ChiFeature2PortIdListRNSt3__16vectorI21ChiFeature2IdentifierNS2_9allocatorIS4_EEEE+0x5c>
0x2c784 <_ZNK24ChiFeature2MCReprocessRT26FilterPortsBasedOnExposureEP21ChiFeature2PortIdListRNSt3__16vectorI21ChiFeature2IdentifierNS2_9allocatorIS4_EEEE+0x5c>
<_ZNK24ChiFeature2MCReprocessRT26FilterPortsBasedOnExposureEP21ChiFeature2PortIdListRNSt3__16vectorI21ChiFeature2IdentifierNS2_9allocatorIS4_EEEE+0x104>
<_ZNK24ChiFeature2MCReprocessRT26FilterPortsBasedOnExposureEP21ChiFeature2PortIdListRNSt3__16vectorI21ChiFeature2IdentifierNS2_9allocatorIS4_EEEE+0x5c>
<_ZNK24ChiFeature2MCReprocessRT26FilterPortsBasedOnExposureEP21ChiFeature2PortIdListRNSt3__16vectorI21ChiFeature2IdentifierNS2_9allocatorIS4_EEEE+0x120>
<_ZNK24ChiFeature2MCReprocessRT26FilterPortsBasedOnExposureEP21ChiFeature2PortIdListRNSt3__16vectorI21ChiFeature2IdentifierNS2_9allocatorIS4_EEEE+0x5c>
0x2c784 <_ZNK24ChiFeature2MCReprocessRT26FilterPortsBasedOnExposureEP21ChiFeature2PortIdListRNSt3__16vectorI21ChiFeature2IdentifierNS2_9allocatorIS4_EEEE+0x5c>
<_ZNK24ChiFeature2MCReprocessRT26FilterPortsBasedOnExposureEP21ChiFeature2PortIdListRNSt3__16vectorI21ChiFeature2IdentifierNS2_9allocatorIS4_EEEE+0x1fc>
<_ZNK24ChiFeature2MCReprocessRT26FilterPortsBasedOnExposureEP21ChiFeature2PortIdListRNSt3__16vectorI21ChiFeature2IdentifierNS2_9allocatorIS4_EEEE+0x22c>
0x2c8a4 <_ZNK24ChiFeature2MCReprocessRT26FilterPortsBasedOnExposureEP21ChiFeature2PortIdListRNSt3__16vectorI21ChiFeature2IdentifierNS2_9allocatorIS4_EEEE+0x17c>
<_ZNK24ChiFeature2MCReprocessRT26FilterPortsBasedOnExposureEP21ChiFeature2PortIdListRNSt3__16vectorI21ChiFeature2IdentifierNS2_9allocatorIS4_EEEE+0x260>
#6, 0x2c9f4 <_ZNK24ChiFeature2MCReprocessRT26FilterPortsBasedOnExposureEP21ChiFeature2PortIdListRNSt3__16vectorI21ChiFeature2IdentifierNS2_9allocatorIS4_EEEE+0x2cc>
<_ZNK24ChiFeature2MCReprocessRT26FilterPortsBasedOnExposureEP21ChiFeature2PortIdListRNSt3__16vectorI21ChiFeature2IdentifierNS2_9allocatorIS4_EEEE+0x298>
#5, 0x2c9f4 <_ZNK24ChiFeature2MCReprocessRT26FilterPortsBasedOnExposureEP21ChiFeature2PortIdListRNSt3__16vectorI21ChiFeature2IdentifierNS2_9allocatorIS4_EEEE+0x2cc>
<_ZNK24ChiFeature2MCReprocessRT26FilterPortsBasedOnExposureEP21ChiFeature2PortIdListRNSt3__16vectorI21ChiFeature2IdentifierNS2_9allocatorIS4_EEEE+0x30c>
<_ZNK24ChiFeature2MCReprocessRT26FilterPortsBasedOnExposureEP21ChiFeature2PortIdListRNSt3__16vectorI21ChiFeature2IdentifierNS2_9allocatorIS4_EEEE+0x7c>
<_ZNK24ChiFeature2MCReprocessRT26FilterPortsBasedOnExposureEP21ChiFeature2PortIdListRNSt3__16vectorI21ChiFeature2IdentifierNS2_9allocatorIS4_EEEE+0x94>
0x2c7c0 <_ZNK24ChiFeature2MCReprocessRT26FilterPortsBasedOnExposureEP21ChiFeature2PortIdListRNSt3__16vectorI21ChiFeature2IdentifierNS2_9allocatorIS4_EEEE+0x98>
<_ZNK24ChiFeature2MCReprocessRT26FilterPortsBasedOnExposureEP21ChiFeature2PortIdListRNSt3__16vectorI21ChiFeature2IdentifierNS2_9allocatorIS4_EEEE+0x5c>
<_ZNK24ChiFeature2MCReprocessRT26FilterPortsBasedOnExposureEP21ChiFeature2PortIdListRNSt3__16vectorI21ChiFeature2IdentifierNS2_9allocatorIS4_EEEE+0x138>
0x2c878 <_ZNK24ChiFeature2MCReprocessRT26FilterPortsBasedOnExposureEP21ChiFeature2PortIdListRNSt3__16vectorI21ChiFeature2IdentifierNS2_9allocatorIS4_EEEE+0x150>
<_ZNK24ChiFeature2MCReprocessRT26FilterPortsBasedOnExposureEP21ChiFeature2PortIdListRNSt3__16vectorI21ChiFeature2IdentifierNS2_9allocatorIS4_EEEE+0x17c>
#6, 0x2c890 <_ZNK24ChiFeature2MCReprocessRT26FilterPortsBasedOnExposureEP21ChiFeature2PortIdListRNSt3__16vectorI21ChiFeature2IdentifierNS2_9allocatorIS4_EEEE+0x168>
<_ZNK24ChiFeature2MCReprocessRT26FilterPortsBasedOnExposureEP21ChiFeature2PortIdListRNSt3__16vectorI21ChiFeature2IdentifierNS2_9allocatorIS4_EEEE+0x2cc>
#5, 0x2c8a4 <_ZNK24ChiFeature2MCReprocessRT26FilterPortsBasedOnExposureEP21ChiFeature2PortIdListRNSt3__16vectorI21ChiFeature2IdentifierNS2_9allocatorIS4_EEEE+0x17c>
<_ZNK24ChiFeature2MCReprocessRT26FilterPortsBasedOnExposureEP21ChiFeature2PortIdListRNSt3__16vectorI21ChiFeature2IdentifierNS2_9allocatorIS4_EEEE+0x324>
#0, 0x2ca34 <_ZNK24ChiFeature2MCReprocessRT26FilterPortsBasedOnExposureEP21ChiFeature2PortIdListRNSt3__16vectorI21ChiFeature2IdentifierNS2_9allocatorIS4_EEEE+0x30c>
<_ZNK24ChiFeature2MCReprocessRT26FilterPortsBasedOnExposureEP21ChiFeature2PortIdListRNSt3__16vectorI21ChiFeature2IdentifierNS2_9allocatorIS4_EEEE+0x5c>
<_ZNK24ChiFeature2MCReprocessRT29RemoveInvalidImageBufferPortsEPK24ChiFeature2RequestObjectP21ChiFeature2PortIdListRNSt3__16vectorI21ChiFeature2IdentifierNS5_9allocatorIS7_EEEE+0x5d8>
<_ZNK24ChiFeature2MCReprocessRT26FilterPortsBasedOnExposureEP21ChiFeature2PortIdListRNSt3__16vectorI21ChiFeature2IdentifierNS2_9allocatorIS4_EEEE+0x5c>
#8, 0x2c784 <_ZNK24ChiFeature2MCReprocessRT26FilterPortsBasedOnExposureEP21ChiFeature2PortIdListRNSt3__16vectorI21ChiFeature2IdentifierNS2_9allocatorIS4_EEEE+0x5c>
<_ZNK24ChiFeature2MCReprocessRT29RemoveInvalidImageBufferPortsEPK24ChiFeature2RequestObjectP21ChiFeature2PortIdListRNSt3__16vectorI21ChiFeature2IdentifierNS5_9allocatorIS7_EEEE+0x5d8>
<_ZNK24ChiFeature2MCReprocessRT26FilterPortsBasedOnExposureEP21ChiFeature2PortIdListRNSt3__16vectorI21ChiFeature2IdentifierNS2_9allocatorIS4_EEEE+0x5c>
<_ZNK24ChiFeature2MCReprocessRT26FilterPortsBasedOnExposureEP21ChiFeature2PortIdListRNSt3__16vectorI21ChiFeature2IdentifierNS2_9allocatorIS4_EEEE+0x2dc>
0x2cae0 <_ZNK24ChiFeature2MCReprocessRT26FilterPortsBasedOnExposureEP21ChiFeature2PortIdListRNSt3__16vectorI21ChiFeature2IdentifierNS2_9allocatorIS4_EEEE+0x3b8>
0xe000 <_ZNK24ChiFeature2MCReprocessRT26FilterPortsBasedOnExposureEP21ChiFeature2PortIdListRNSt3__16vectorI21ChiFeature2IdentifierNS2_9allocatorIS4_EEEE+0x308>
0x41000 <_ZNK24ChiFeature2MCReprocessRT26FilterPortsBasedOnExposureEP21ChiFeature2PortIdListRNSt3__16vectorI21ChiFeature2IdentifierNS2_9allocatorIS4_EEEE+0x3d8>
0x41000 <_ZNK24ChiFeature2MCReprocessRT26FilterPortsBasedOnExposureEP21ChiFeature2PortIdListRNSt3__16vectorI21ChiFeature2IdentifierNS2_9allocatorIS4_EEEE+0x3dc>
0x41000 <_ZNK24ChiFeature2MCReprocessRT26FilterPortsBasedOnExposureEP21ChiFeature2PortIdListRNSt3__16vectorI21ChiFeature2IdentifierNS2_9allocatorIS4_EEEE+0x3e0>
0x41000 <_ZNK24ChiFeature2MCReprocessRT26FilterPortsBasedOnExposureEP21ChiFeature2PortIdListRNSt3__16vectorI21ChiFeature2IdentifierNS2_9allocatorIS4_EEEE+0x3ec>
<_ZN24ChiFeature2MCReprocessRT6CreateEP26ChiFeature2CreateInputInfoP17ChiPolicySettings@plt>
0x2cb94 <_ZNK24ChiFeature2MCReprocessRT26FilterPortsBasedOnExposureEP21ChiFeature2PortIdListRNSt3__16vectorI21ChiFeature2IdentifierNS2_9allocatorIS4_EEEE+0x46c>
<_ZN15ExtensionModule11GetInstanceEv@plt>
<_ZNK24ChiFeature2MCReprocessRT26FilterPortsBasedOnExposureEP21ChiFeature2PortIdListRNSt3__16vectorI21ChiFeature2IdentifierNS2_9allocatorIS4_EEEE+0x400>
0x2cb70 <_ZNK24ChiFeature2MCReprocessRT26FilterPortsBasedOnExposureEP21ChiFeature2PortIdListRNSt3__16vectorI21ChiFeature2IdentifierNS2_9allocatorIS4_EEEE+0x448>
<_ZN15ExtensionModule11GetInstanceEv@plt>
<_ZNK24ChiFeature2MCReprocessRT26FilterPortsBasedOnExposureEP21ChiFeature2PortIdListRNSt3__16vectorI21ChiFeature2IdentifierNS2_9allocatorIS4_EEEE+0x474>
<_ZNK24ChiFeature2MCReprocessRT26FilterPortsBasedOnExposureEP21ChiFeature2PortIdListRNSt3__16vectorI21ChiFeature2IdentifierNS2_9allocatorIS4_EEEE+0x4a0>
<_ZNK24ChiFeature2MCReprocessRT26FilterPortsBasedOnExposureEP21ChiFeature2PortIdListRNSt3__16vectorI21ChiFeature2IdentifierNS2_9allocatorIS4_EEEE+0x438>
<_ZNK24ChiFeature2MCReprocessRT26FilterPortsBasedOnExposureEP21ChiFeature2PortIdListRNSt3__16vectorI21ChiFeature2IdentifierNS2_9allocatorIS4_EEEE+0x474>
<_ZNK24ChiFeature2MCReprocessRT26FilterPortsBasedOnExposureEP21ChiFeature2PortIdListRNSt3__16vectorI21ChiFeature2IdentifierNS2_9allocatorIS4_EEEE+0x474>
0x46000 <_ZNK24ChiFeature2MCReprocessRT26FilterPortsBasedOnExposureEP21ChiFeature2PortIdListRNSt3__16vectorI21ChiFeature2IdentifierNS2_9allocatorIS4_EEEE+0x4b0>
<_ZNK24ChiFeature2MCReprocessRT26FilterPortsBasedOnExposureEP21ChiFeature2PortIdListRNSt3__16vectorI21ChiFeature2IdentifierNS2_9allocatorIS4_EEEE+0x494>
<_ZNK24ChiFeature2MCReprocessRT26FilterPortsBasedOnExposureEP21ChiFeature2PortIdListRNSt3__16vectorI21ChiFeature2IdentifierNS2_9allocatorIS4_EEEE+0x494>
0x46000 <_ZNK24ChiFeature2MCReprocessRT26FilterPortsBasedOnExposureEP21ChiFeature2PortIdListRNSt3__16vectorI21ChiFeature2IdentifierNS2_9allocatorIS4_EEEE+0x4dc>
<_ZN8ChxUtils15AndroidMetadata12GetBokehModeEPKv@plt>
0x2cc74 <_ZNK24ChiFeature2MCReprocessRT26FilterPortsBasedOnExposureEP21ChiFeature2PortIdListRNSt3__16vectorI21ChiFeature2IdentifierNS2_9allocatorIS4_EEEE+0x54c>
0x2cc74 <_ZNK24ChiFeature2MCReprocessRT26FilterPortsBasedOnExposureEP21ChiFeature2PortIdListRNSt3__16vectorI21ChiFeature2IdentifierNS2_9allocatorIS4_EEEE+0x54c>
<_ZNK24ChiFeature2MCReprocessRT26FilterPortsBasedOnExposureEP21ChiFeature2PortIdListRNSt3__16vectorI21ChiFeature2IdentifierNS2_9allocatorIS4_EEEE+0x60c>
0x2cd40 <_ZNK24ChiFeature2MCReprocessRT26FilterPortsBasedOnExposureEP21ChiFeature2PortIdListRNSt3__16vectorI21ChiFeature2IdentifierNS2_9allocatorIS4_EEEE+0x618>
<_ZNK24ChiFeature2MCReprocessRT26FilterPortsBasedOnExposureEP21ChiFeature2PortIdListRNSt3__16vectorI21ChiFeature2IdentifierNS2_9allocatorIS4_EEEE+0x61c>
0x45000 <_ZNK24ChiFeature2MCReprocessRT26FilterPortsBasedOnExposureEP21ChiFeature2PortIdListRNSt3__16vectorI21ChiFeature2IdentifierNS2_9allocatorIS4_EEEE+0x5b0>
#0, 0x2cd2c <_ZNK24ChiFeature2MCReprocessRT26FilterPortsBasedOnExposureEP21ChiFeature2PortIdListRNSt3__16vectorI21ChiFeature2IdentifierNS2_9allocatorIS4_EEEE+0x604>
0x45000 <_ZNK24ChiFeature2MCReprocessRT26FilterPortsBasedOnExposureEP21ChiFeature2PortIdListRNSt3__16vectorI21ChiFeature2IdentifierNS2_9allocatorIS4_EEEE+0x5c0>
0x11000 <_ZNK24ChiFeature2MCReprocessRT26FilterPortsBasedOnExposureEP21ChiFeature2PortIdListRNSt3__16vectorI21ChiFeature2IdentifierNS2_9allocatorIS4_EEEE+0x4f4>
<_ZNK24ChiFeature2MCReprocessRT26FilterPortsBasedOnExposureEP21ChiFeature2PortIdListRNSt3__16vectorI21ChiFeature2IdentifierNS2_9allocatorIS4_EEEE+0x5bc>
0x11000 <_ZNK24ChiFeature2MCReprocessRT26FilterPortsBasedOnExposureEP21ChiFeature2PortIdListRNSt3__16vectorI21ChiFeature2IdentifierNS2_9allocatorIS4_EEEE+0x520>
0x10000 <_ZNK24ChiFeature2MCReprocessRT26FilterPortsBasedOnExposureEP21ChiFeature2PortIdListRNSt3__16vectorI21ChiFeature2IdentifierNS2_9allocatorIS4_EEEE+0x520>
0xf000 <_ZNK24ChiFeature2MCReprocessRT26FilterPortsBasedOnExposureEP21ChiFeature2PortIdListRNSt3__16vectorI21ChiFeature2IdentifierNS2_9allocatorIS4_EEEE+0x520>
0x11000 <_ZNK24ChiFeature2MCReprocessRT26FilterPortsBasedOnExposureEP21ChiFeature2PortIdListRNSt3__16vectorI21ChiFeature2IdentifierNS2_9allocatorIS4_EEEE+0x564>
0xb000 <_ZNK24ChiFeature2MCReprocessRT26FilterPortsBasedOnExposureEP21ChiFeature2PortIdListRNSt3__16vectorI21ChiFeature2IdentifierNS2_9allocatorIS4_EEEE+0x554>
0xf000 <_ZNK24ChiFeature2MCReprocessRT26FilterPortsBasedOnExposureEP21ChiFeature2PortIdListRNSt3__16vectorI21ChiFeature2IdentifierNS2_9allocatorIS4_EEEE+0x568>
0xd000 <_ZNK24ChiFeature2MCReprocessRT26FilterPortsBasedOnExposureEP21ChiFeature2PortIdListRNSt3__16vectorI21ChiFeature2IdentifierNS2_9allocatorIS4_EEEE+0x564>
<_ZN6ChiLog9LogSystemEPKcS1_S1_S1_iS1_z@plt>
<_ZNK24ChiFeature2MCReprocessRT26FilterPortsBasedOnExposureEP21ChiFeature2PortIdListRNSt3__16vectorI21ChiFeature2IdentifierNS2_9allocatorIS4_EEEE+0x1fe4>
<_ZNK24ChiFeature2MCReprocessRT26FilterPortsBasedOnExposureEP21ChiFeature2PortIdListRNSt3__16vectorI21ChiFeature2IdentifierNS2_9allocatorIS4_EEEE+0x61c>
<_ZN24ChiFeature2MCReprocessRT35GetMappedInputPortIndexByTargetNameEPKcPKN15ChiFeature2Base22ChiFeaturePipelineDataERNSt3__13mapIS1_NS6_13unordered_mapIjNS6_3setIjNS6_4lessIjEENS6_9allocatorIjEEEENS6_4hashIjEENS6_8equal_toIjEENSC_INS6_4pairIKjSE_EEEEEE21ChiNameLessComparatorNSC_INSJ_IKS1_SN_EEEEEE+0xd80>
<_ZN24ChiFeature2MCReprocessRT22UpdateStreamCropEnableEP11ChiMetadataPK24ChiFeature2InstanceProps+0x260>
0x2ce58 <_ZNK24ChiFeature2MCReprocessRT26FilterPortsBasedOnExposureEP21ChiFeature2PortIdListRNSt3__16vectorI21ChiFeature2IdentifierNS2_9allocatorIS4_EEEE+0x730>
0x2cf00 <_ZNK24ChiFeature2MCReprocessRT26FilterPortsBasedOnExposureEP21ChiFeature2PortIdListRNSt3__16vectorI21ChiFeature2IdentifierNS2_9allocatorIS4_EEEE+0x7d8>
0x2cf20 <_ZNK24ChiFeature2MCReprocessRT26FilterPortsBasedOnExposureEP21ChiFeature2PortIdListRNSt3__16vectorI21ChiFeature2IdentifierNS2_9allocatorIS4_EEEE+0x7f8>
0x2cdcc <_ZNK24ChiFeature2MCReprocessRT26FilterPortsBasedOnExposureEP21ChiFeature2PortIdListRNSt3__16vectorI21ChiFeature2IdentifierNS2_9allocatorIS4_EEEE+0x6a4>
0x2cdcc <_ZNK24ChiFeature2MCReprocessRT26FilterPortsBasedOnExposureEP21ChiFeature2PortIdListRNSt3__16vectorI21ChiFeature2IdentifierNS2_9allocatorIS4_EEEE+0x6a4>
0x2cdcc <_ZNK24ChiFeature2MCReprocessRT26FilterPortsBasedOnExposureEP21ChiFeature2PortIdListRNSt3__16vectorI21ChiFeature2IdentifierNS2_9allocatorIS4_EEEE+0x6a4>
<_ZNK24ChiFeature2MCReprocessRT26FilterPortsBasedOnExposureEP21ChiFeature2PortIdListRNSt3__16vectorI21ChiFeature2IdentifierNS2_9allocatorIS4_EEEE+0x714>
<_ZNK24ChiFeature2MCReprocessRT26FilterPortsBasedOnExposureEP21ChiFeature2PortIdListRNSt3__16vectorI21ChiFeature2IdentifierNS2_9allocatorIS4_EEEE+0x714>
0x2cdfc <_ZNK24ChiFeature2MCReprocessRT26FilterPortsBasedOnExposureEP21ChiFeature2PortIdListRNSt3__16vectorI21ChiFeature2IdentifierNS2_9allocatorIS4_EEEE+0x6d4>
0x2cdfc <_ZNK24ChiFeature2MCReprocessRT26FilterPortsBasedOnExposureEP21ChiFeature2PortIdListRNSt3__16vectorI21ChiFeature2IdentifierNS2_9allocatorIS4_EEEE+0x6d4>
<_ZNK24ChiFeature2MCReprocessRT26FilterPortsBasedOnExposureEP21ChiFeature2PortIdListRNSt3__16vectorI21ChiFeature2IdentifierNS2_9allocatorIS4_EEEE+0x714>
<_ZNK24ChiFeature2MCReprocessRT26FilterPortsBasedOnExposureEP21ChiFeature2PortIdListRNSt3__16vectorI21ChiFeature2IdentifierNS2_9allocatorIS4_EEEE+0x2018>
<_ZNK24ChiFeature2MCReprocessRT26FilterPortsBasedOnExposureEP21ChiFeature2PortIdListRNSt3__16vectorI21ChiFeature2IdentifierNS2_9allocatorIS4_EEEE+0x710>
<_ZNK24ChiFeature2MCReprocessRT26FilterPortsBasedOnExposureEP21ChiFeature2PortIdListRNSt3__16vectorI21ChiFeature2IdentifierNS2_9allocatorIS4_EEEE+0x710>
<_ZNK24ChiFeature2MCReprocessRT26FilterPortsBasedOnExposureEP21ChiFeature2PortIdListRNSt3__16vectorI21ChiFeature2IdentifierNS2_9allocatorIS4_EEEE+0x714>
<_ZNK24ChiFeature2MCReprocessRT26FilterPortsBasedOnExposureEP21ChiFeature2PortIdListRNSt3__16vectorI21ChiFeature2IdentifierNS2_9allocatorIS4_EEEE+0x2018>
<_ZNK24ChiFeature2MCReprocessRT26FilterPortsBasedOnExposureEP21ChiFeature2PortIdListRNSt3__16vectorI21ChiFeature2IdentifierNS2_9allocatorIS4_EEEE+0x674>
<_ZNK24ChiFeature2MCReprocessRT26FilterPortsBasedOnExposureEP21ChiFeature2PortIdListRNSt3__16vectorI21ChiFeature2IdentifierNS2_9allocatorIS4_EEEE+0x8c8>
0x45000 <_ZNK24ChiFeature2MCReprocessRT26FilterPortsBasedOnExposureEP21ChiFeature2PortIdListRNSt3__16vectorI21ChiFeature2IdentifierNS2_9allocatorIS4_EEEE+0x794>
#0, 0x2cf00 <_ZNK24ChiFeature2MCReprocessRT26FilterPortsBasedOnExposureEP21ChiFeature2PortIdListRNSt3__16vectorI21ChiFeature2IdentifierNS2_9allocatorIS4_EEEE+0x7d8>
0x45000 <_ZNK24ChiFeature2MCReprocessRT26FilterPortsBasedOnExposureEP21ChiFeature2PortIdListRNSt3__16vectorI21ChiFeature2IdentifierNS2_9allocatorIS4_EEEE+0x7a4>
0xb000 <_ZNK24ChiFeature2MCReprocessRT26FilterPortsBasedOnExposureEP21ChiFeature2PortIdListRNSt3__16vectorI21ChiFeature2IdentifierNS2_9allocatorIS4_EEEE+0x6c0>
<_ZNK24ChiFeature2MCReprocessRT26FilterPortsBasedOnExposureEP21ChiFeature2PortIdListRNSt3__16vectorI21ChiFeature2IdentifierNS2_9allocatorIS4_EEEE+0x798>
0x11000 <_ZNK24ChiFeature2MCReprocessRT26FilterPortsBasedOnExposureEP21ChiFeature2PortIdListRNSt3__16vectorI21ChiFeature2IdentifierNS2_9allocatorIS4_EEEE+0x704>
0x10000 <_ZNK24ChiFeature2MCReprocessRT26FilterPortsBasedOnExposureEP21ChiFeature2PortIdListRNSt3__16vectorI21ChiFeature2IdentifierNS2_9allocatorIS4_EEEE+0x704>
0xd000 <_ZNK24ChiFeature2MCReprocessRT26FilterPortsBasedOnExposureEP21ChiFeature2PortIdListRNSt3__16vectorI21ChiFeature2IdentifierNS2_9allocatorIS4_EEEE+0x6fc>
0x11000 <_ZNK24ChiFeature2MCReprocessRT26FilterPortsBasedOnExposureEP21ChiFeature2PortIdListRNSt3__16vectorI21ChiFeature2IdentifierNS2_9allocatorIS4_EEEE+0x740>
0xb000 <_ZNK24ChiFeature2MCReprocessRT26FilterPortsBasedOnExposureEP21ChiFeature2PortIdListRNSt3__16vectorI21ChiFeature2IdentifierNS2_9allocatorIS4_EEEE+0x730>
0xd000 <_ZNK24ChiFeature2MCReprocessRT26FilterPortsBasedOnExposureEP21ChiFeature2PortIdListRNSt3__16vectorI21ChiFeature2IdentifierNS2_9allocatorIS4_EEEE+0x73c>
0xe000 <_ZNK24ChiFeature2MCReprocessRT26FilterPortsBasedOnExposureEP21ChiFeature2PortIdListRNSt3__16vectorI21ChiFeature2IdentifierNS2_9allocatorIS4_EEEE+0x744>
<_ZN6ChiLog9LogSystemEPKcS1_S1_S1_iS1_z@plt>
<_ZNK24ChiFeature2MCReprocessRT26FilterPortsBasedOnExposureEP21ChiFeature2PortIdListRNSt3__16vectorI21ChiFeature2IdentifierNS2_9allocatorIS4_EEEE+0xa2c>
0x2cf60 <_ZNK24ChiFeature2MCReprocessRT26FilterPortsBasedOnExposureEP21ChiFeature2PortIdListRNSt3__16vectorI21ChiFeature2IdentifierNS2_9allocatorIS4_EEEE+0x838>
0x2cf60 <_ZNK24ChiFeature2MCReprocessRT26FilterPortsBasedOnExposureEP21ChiFeature2PortIdListRNSt3__16vectorI21ChiFeature2IdentifierNS2_9allocatorIS4_EEEE+0x838>
0x2cf60 <_ZNK24ChiFeature2MCReprocessRT26FilterPortsBasedOnExposureEP21ChiFeature2PortIdListRNSt3__16vectorI21ChiFeature2IdentifierNS2_9allocatorIS4_EEEE+0x838>
<_ZNK24ChiFeature2MCReprocessRT26FilterPortsBasedOnExposureEP21ChiFeature2PortIdListRNSt3__16vectorI21ChiFeature2IdentifierNS2_9allocatorIS4_EEEE+0x8b0>
<_ZN15UsecaseSelector15IsPreviewStreamEPK14camera3_stream@plt>
<_ZNK24ChiFeature2MCReprocessRT26FilterPortsBasedOnExposureEP21ChiFeature2PortIdListRNSt3__16vectorI21ChiFeature2IdentifierNS2_9allocatorIS4_EEEE+0x8b0>
0x2cf98 <_ZNK24ChiFeature2MCReprocessRT26FilterPortsBasedOnExposureEP21ChiFeature2PortIdListRNSt3__16vectorI21ChiFeature2IdentifierNS2_9allocatorIS4_EEEE+0x870>
0x2cf98 <_ZNK24ChiFeature2MCReprocessRT26FilterPortsBasedOnExposureEP21ChiFeature2PortIdListRNSt3__16vectorI21ChiFeature2IdentifierNS2_9allocatorIS4_EEEE+0x870>
0x2cf98 <_ZNK24ChiFeature2MCReprocessRT26FilterPortsBasedOnExposureEP21ChiFeature2PortIdListRNSt3__16vectorI21ChiFeature2IdentifierNS2_9allocatorIS4_EEEE+0x870>
<_ZNK24ChiFeature2MCReprocessRT26FilterPortsBasedOnExposureEP21ChiFeature2PortIdListRNSt3__16vectorI21ChiFeature2IdentifierNS2_9allocatorIS4_EEEE+0x8b0>
<_ZNK24ChiFeature2MCReprocessRT26FilterPortsBasedOnExposureEP21ChiFeature2PortIdListRNSt3__16vectorI21ChiFeature2IdentifierNS2_9allocatorIS4_EEEE+0x2018>
<_ZNK24ChiFeature2MCReprocessRT26FilterPortsBasedOnExposureEP21ChiFeature2PortIdListRNSt3__16vectorI21ChiFeature2IdentifierNS2_9allocatorIS4_EEEE+0x8ac>
<_ZNK24ChiFeature2MCReprocessRT26FilterPortsBasedOnExposureEP21ChiFeature2PortIdListRNSt3__16vectorI21ChiFeature2IdentifierNS2_9allocatorIS4_EEEE+0x8ac>
<_ZNK24ChiFeature2MCReprocessRT26FilterPortsBasedOnExposureEP21ChiFeature2PortIdListRNSt3__16vectorI21ChiFeature2IdentifierNS2_9allocatorIS4_EEEE+0x8b0>
<_ZNK24ChiFeature2MCReprocessRT26FilterPortsBasedOnExposureEP21ChiFeature2PortIdListRNSt3__16vectorI21ChiFeature2IdentifierNS2_9allocatorIS4_EEEE+0x2018>
<_ZNK24ChiFeature2MCReprocessRT26FilterPortsBasedOnExposureEP21ChiFeature2PortIdListRNSt3__16vectorI21ChiFeature2IdentifierNS2_9allocatorIS4_EEEE+0x80c>
<_ZNK24ChiFeature2MCReprocessRT26FilterPortsBasedOnExposureEP21ChiFeature2PortIdListRNSt3__16vectorI21ChiFeature2IdentifierNS2_9allocatorIS4_EEEE+0xa24>
0x2d058 <_ZNK24ChiFeature2MCReprocessRT26FilterPortsBasedOnExposureEP21ChiFeature2PortIdListRNSt3__16vectorI21ChiFeature2IdentifierNS2_9allocatorIS4_EEEE+0x930>
0x46000 <_ZNK24ChiFeature2MCReprocessRT26FilterPortsBasedOnExposureEP21ChiFeature2PortIdListRNSt3__16vectorI21ChiFeature2IdentifierNS2_9allocatorIS4_EEEE+0x994>
0x45000 <_ZNK24ChiFeature2MCReprocessRT26FilterPortsBasedOnExposureEP21ChiFeature2PortIdListRNSt3__16vectorI21ChiFeature2IdentifierNS2_9allocatorIS4_EEEE+0x9b0>
#3, 0x2d140 <_ZNK24ChiFeature2MCReprocessRT26FilterPortsBasedOnExposureEP21ChiFeature2PortIdListRNSt3__16vectorI21ChiFeature2IdentifierNS2_9allocatorIS4_EEEE+0xa18>
0x45000 <_ZNK24ChiFeature2MCReprocessRT26FilterPortsBasedOnExposureEP21ChiFeature2PortIdListRNSt3__16vectorI21ChiFeature2IdentifierNS2_9allocatorIS4_EEEE+0x9c0>
<_ZNK24ChiFeature2MCReprocessRT26FilterPortsBasedOnExposureEP21ChiFeature2PortIdListRNSt3__16vectorI21ChiFeature2IdentifierNS2_9allocatorIS4_EEEE+0x9c4>
0x11000 <_ZNK24ChiFeature2MCReprocessRT26FilterPortsBasedOnExposureEP21ChiFeature2PortIdListRNSt3__16vectorI21ChiFeature2IdentifierNS2_9allocatorIS4_EEEE+0x904>
0x11000 <_ZNK24ChiFeature2MCReprocessRT26FilterPortsBasedOnExposureEP21ChiFeature2PortIdListRNSt3__16vectorI21ChiFeature2IdentifierNS2_9allocatorIS4_EEEE+0x924>
0xc000 <_ZNK24ChiFeature2MCReprocessRT26FilterPortsBasedOnExposureEP21ChiFeature2PortIdListRNSt3__16vectorI21ChiFeature2IdentifierNS2_9allocatorIS4_EEEE+0x914>
0xf000 <_ZNK24ChiFeature2MCReprocessRT26FilterPortsBasedOnExposureEP21ChiFeature2PortIdListRNSt3__16vectorI21ChiFeature2IdentifierNS2_9allocatorIS4_EEEE+0x924>
0x11000 <_ZNK24ChiFeature2MCReprocessRT26FilterPortsBasedOnExposureEP21ChiFeature2PortIdListRNSt3__16vectorI21ChiFeature2IdentifierNS2_9allocatorIS4_EEEE+0x954>
0xe000 <_ZNK24ChiFeature2MCReprocessRT26FilterPortsBasedOnExposureEP21ChiFeature2PortIdListRNSt3__16vectorI21ChiFeature2IdentifierNS2_9allocatorIS4_EEEE+0x964>
0x11000 <_ZNK24ChiFeature2MCReprocessRT26FilterPortsBasedOnExposureEP21ChiFeature2PortIdListRNSt3__16vectorI21ChiFeature2IdentifierNS2_9allocatorIS4_EEEE+0x97c>
0xf000 <_ZNK24ChiFeature2MCReprocessRT26FilterPortsBasedOnExposureEP21ChiFeature2PortIdListRNSt3__16vectorI21ChiFeature2IdentifierNS2_9allocatorIS4_EEEE+0x978>
0xb000 <_ZNK24ChiFeature2MCReprocessRT26FilterPortsBasedOnExposureEP21ChiFeature2PortIdListRNSt3__16vectorI21ChiFeature2IdentifierNS2_9allocatorIS4_EEEE+0x96c>
<_ZN6ChiLog9LogSystemEPKcS1_S1_S1_iS1_z@plt>
<_ZNK24ChiFeature2MCReprocessRT26FilterPortsBasedOnExposureEP21ChiFeature2PortIdListRNSt3__16vectorI21ChiFeature2IdentifierNS2_9allocatorIS4_EEEE+0xa2c>
0x2e5ec <_ZNK24ChiFeature2MCReprocessRT26FilterPortsBasedOnExposureEP21ChiFeature2PortIdListRNSt3__16vectorI21ChiFeature2IdentifierNS2_9allocatorIS4_EEEE+0x1ec4>
<_ZNK24ChiFeature2MCReprocessRT26FilterPortsBasedOnExposureEP21ChiFeature2PortIdListRNSt3__16vectorI21ChiFeature2IdentifierNS2_9allocatorIS4_EEEE+0xadc>
<_ZNK24ChiFeature2MCReprocessRT26FilterPortsBasedOnExposureEP21ChiFeature2PortIdListRNSt3__16vectorI21ChiFeature2IdentifierNS2_9allocatorIS4_EEEE+0xe54>
<_ZNK24ChiFeature2MCReprocessRT26FilterPortsBasedOnExposureEP21ChiFeature2PortIdListRNSt3__16vectorI21ChiFeature2IdentifierNS2_9allocatorIS4_EEEE+0xb04>
<_ZNK24ChiFeature2MCReprocessRT26FilterPortsBasedOnExposureEP21ChiFeature2PortIdListRNSt3__16vectorI21ChiFeature2IdentifierNS2_9allocatorIS4_EEEE+0xbbc>
<_ZNK24ChiFeature2MCReprocessRT26FilterPortsBasedOnExposureEP21ChiFeature2PortIdListRNSt3__16vectorI21ChiFeature2IdentifierNS2_9allocatorIS4_EEEE+0x2018>
#63, 0x2e748 <_ZNK24ChiFeature2MCReprocessRT26FilterPortsBasedOnExposureEP21ChiFeature2PortIdListRNSt3__16vectorI21ChiFeature2IdentifierNS2_9allocatorIS4_EEEE+0x2020>
<_ZNK24ChiFeature2MCReprocessRT26FilterPortsBasedOnExposureEP21ChiFeature2PortIdListRNSt3__16vectorI21ChiFeature2IdentifierNS2_9allocatorIS4_EEEE+0xb40>
0x2d26c <_ZNK24ChiFeature2MCReprocessRT26FilterPortsBasedOnExposureEP21ChiFeature2PortIdListRNSt3__16vectorI21ChiFeature2IdentifierNS2_9allocatorIS4_EEEE+0xb44>
<_ZNK24ChiFeature2MCReprocessRT26FilterPortsBasedOnExposureEP21ChiFeature2PortIdListRNSt3__16vectorI21ChiFeature2IdentifierNS2_9allocatorIS4_EEEE+0xb54>
<_ZNK24ChiFeature2MCReprocessRT26FilterPortsBasedOnExposureEP21ChiFeature2PortIdListRNSt3__16vectorI21ChiFeature2IdentifierNS2_9allocatorIS4_EEEE+0xb90>
<_ZNK24ChiFeature2MCReprocessRT26FilterPortsBasedOnExposureEP21ChiFeature2PortIdListRNSt3__16vectorI21ChiFeature2IdentifierNS2_9allocatorIS4_EEEE+0x201c>
0x2d2e4 <_ZNK24ChiFeature2MCReprocessRT26FilterPortsBasedOnExposureEP21ChiFeature2PortIdListRNSt3__16vectorI21ChiFeature2IdentifierNS2_9allocatorIS4_EEEE+0xbbc>
<_ZNK24ChiFeature2MCReprocessRT26FilterPortsBasedOnExposureEP21ChiFeature2PortIdListRNSt3__16vectorI21ChiFeature2IdentifierNS2_9allocatorIS4_EEEE+0x201c>
<_ZNK24ChiFeature2MCReprocessRT26FilterPortsBasedOnExposureEP21ChiFeature2PortIdListRNSt3__16vectorI21ChiFeature2IdentifierNS2_9allocatorIS4_EEEE+0xbe8>
<_ZNK24ChiFeature2MCReprocessRT26FilterPortsBasedOnExposureEP21ChiFeature2PortIdListRNSt3__16vectorI21ChiFeature2IdentifierNS2_9allocatorIS4_EEEE+0xca0>
<_ZNK24ChiFeature2MCReprocessRT26FilterPortsBasedOnExposureEP21ChiFeature2PortIdListRNSt3__16vectorI21ChiFeature2IdentifierNS2_9allocatorIS4_EEEE+0x2018>
#63, 0x2e748 <_ZNK24ChiFeature2MCReprocessRT26FilterPortsBasedOnExposureEP21ChiFeature2PortIdListRNSt3__16vectorI21ChiFeature2IdentifierNS2_9allocatorIS4_EEEE+0x2020>
<_ZNK24ChiFeature2MCReprocessRT26FilterPortsBasedOnExposureEP21ChiFeature2PortIdListRNSt3__16vectorI21ChiFeature2IdentifierNS2_9allocatorIS4_EEEE+0xc24>
0x2d350 <_ZNK24ChiFeature2MCReprocessRT26FilterPortsBasedOnExposureEP21ChiFeature2PortIdListRNSt3__16vectorI21ChiFeature2IdentifierNS2_9allocatorIS4_EEEE+0xc28>
<_ZNK24ChiFeature2MCReprocessRT26FilterPortsBasedOnExposureEP21ChiFeature2PortIdListRNSt3__16vectorI21ChiFeature2IdentifierNS2_9allocatorIS4_EEEE+0xc38>
<_ZNK24ChiFeature2MCReprocessRT26FilterPortsBasedOnExposureEP21ChiFeature2PortIdListRNSt3__16vectorI21ChiFeature2IdentifierNS2_9allocatorIS4_EEEE+0xc74>
<_ZNK24ChiFeature2MCReprocessRT26FilterPortsBasedOnExposureEP21ChiFeature2PortIdListRNSt3__16vectorI21ChiFeature2IdentifierNS2_9allocatorIS4_EEEE+0x201c>
0x2d3c8 <_ZNK24ChiFeature2MCReprocessRT26FilterPortsBasedOnExposureEP21ChiFeature2PortIdListRNSt3__16vectorI21ChiFeature2IdentifierNS2_9allocatorIS4_EEEE+0xca0>
<_ZNK24ChiFeature2MCReprocessRT26FilterPortsBasedOnExposureEP21ChiFeature2PortIdListRNSt3__16vectorI21ChiFeature2IdentifierNS2_9allocatorIS4_EEEE+0x201c>
<_ZNK24ChiFeature2MCReprocessRT26FilterPortsBasedOnExposureEP21ChiFeature2PortIdListRNSt3__16vectorI21ChiFeature2IdentifierNS2_9allocatorIS4_EEEE+0xccc>
<_ZNK24ChiFeature2MCReprocessRT26FilterPortsBasedOnExposureEP21ChiFeature2PortIdListRNSt3__16vectorI21ChiFeature2IdentifierNS2_9allocatorIS4_EEEE+0xd84>
<_ZNK24ChiFeature2MCReprocessRT26FilterPortsBasedOnExposureEP21ChiFeature2PortIdListRNSt3__16vectorI21ChiFeature2IdentifierNS2_9allocatorIS4_EEEE+0x2018>
#63, 0x2e748 <_ZNK24ChiFeature2MCReprocessRT26FilterPortsBasedOnExposureEP21ChiFeature2PortIdListRNSt3__16vectorI21ChiFeature2IdentifierNS2_9allocatorIS4_EEEE+0x2020>
<_ZNK24ChiFeature2MCReprocessRT26FilterPortsBasedOnExposureEP21ChiFeature2PortIdListRNSt3__16vectorI21ChiFeature2IdentifierNS2_9allocatorIS4_EEEE+0xd08>
0x2d434 <_ZNK24ChiFeature2MCReprocessRT26FilterPortsBasedOnExposureEP21ChiFeature2PortIdListRNSt3__16vectorI21ChiFeature2IdentifierNS2_9allocatorIS4_EEEE+0xd0c>
<_ZNK24ChiFeature2MCReprocessRT26FilterPortsBasedOnExposureEP21ChiFeature2PortIdListRNSt3__16vectorI21ChiFeature2IdentifierNS2_9allocatorIS4_EEEE+0xd1c>
<_ZNK24ChiFeature2MCReprocessRT26FilterPortsBasedOnExposureEP21ChiFeature2PortIdListRNSt3__16vectorI21ChiFeature2IdentifierNS2_9allocatorIS4_EEEE+0xd58>
<_ZNK24ChiFeature2MCReprocessRT26FilterPortsBasedOnExposureEP21ChiFeature2PortIdListRNSt3__16vectorI21ChiFeature2IdentifierNS2_9allocatorIS4_EEEE+0x201c>
0x2d4ac <_ZNK24ChiFeature2MCReprocessRT26FilterPortsBasedOnExposureEP21ChiFeature2PortIdListRNSt3__16vectorI21ChiFeature2IdentifierNS2_9allocatorIS4_EEEE+0xd84>
<_ZNK24ChiFeature2MCReprocessRT26FilterPortsBasedOnExposureEP21ChiFeature2PortIdListRNSt3__16vectorI21ChiFeature2IdentifierNS2_9allocatorIS4_EEEE+0x201c>
<_ZNK24ChiFeature2MCReprocessRT26FilterPortsBasedOnExposureEP21ChiFeature2PortIdListRNSt3__16vectorI21ChiFeature2IdentifierNS2_9allocatorIS4_EEEE+0xab4>
<_ZNK24ChiFeature2MCReprocessRT26FilterPortsBasedOnExposureEP21ChiFeature2PortIdListRNSt3__16vectorI21ChiFeature2IdentifierNS2_9allocatorIS4_EEEE+0x2018>
#63, 0x2e748 <_ZNK24ChiFeature2MCReprocessRT26FilterPortsBasedOnExposureEP21ChiFeature2PortIdListRNSt3__16vectorI21ChiFeature2IdentifierNS2_9allocatorIS4_EEEE+0x2020>
<_ZNK24ChiFeature2MCReprocessRT26FilterPortsBasedOnExposureEP21ChiFeature2PortIdListRNSt3__16vectorI21ChiFeature2IdentifierNS2_9allocatorIS4_EEEE+0xdd4>
0x2d500 <_ZNK24ChiFeature2MCReprocessRT26FilterPortsBasedOnExposureEP21ChiFeature2PortIdListRNSt3__16vectorI21ChiFeature2IdentifierNS2_9allocatorIS4_EEEE+0xdd8>
<_ZNK24ChiFeature2MCReprocessRT26FilterPortsBasedOnExposureEP21ChiFeature2PortIdListRNSt3__16vectorI21ChiFeature2IdentifierNS2_9allocatorIS4_EEEE+0xde8>
<_ZNK24ChiFeature2MCReprocessRT26FilterPortsBasedOnExposureEP21ChiFeature2PortIdListRNSt3__16vectorI21ChiFeature2IdentifierNS2_9allocatorIS4_EEEE+0xe24>
<_ZNK24ChiFeature2MCReprocessRT26FilterPortsBasedOnExposureEP21ChiFeature2PortIdListRNSt3__16vectorI21ChiFeature2IdentifierNS2_9allocatorIS4_EEEE+0x201c>
0x2d1f0 <_ZNK24ChiFeature2MCReprocessRT26FilterPortsBasedOnExposureEP21ChiFeature2PortIdListRNSt3__16vectorI21ChiFeature2IdentifierNS2_9allocatorIS4_EEEE+0xac8>
<_ZNK24ChiFeature2MCReprocessRT26FilterPortsBasedOnExposureEP21ChiFeature2PortIdListRNSt3__16vectorI21ChiFeature2IdentifierNS2_9allocatorIS4_EEEE+0x201c>
<_ZNK24ChiFeature2MCReprocessRT26FilterPortsBasedOnExposureEP21ChiFeature2PortIdListRNSt3__16vectorI21ChiFeature2IdentifierNS2_9allocatorIS4_EEEE+0xac8>
0x11000 <_ZNK24ChiFeature2MCReprocessRT26FilterPortsBasedOnExposureEP21ChiFeature2PortIdListRNSt3__16vectorI21ChiFeature2IdentifierNS2_9allocatorIS4_EEEE+0xde8>
<_ZNK24ChiFeature2MCReprocessRT26FilterPortsBasedOnExposureEP21ChiFeature2PortIdListRNSt3__16vectorI21ChiFeature2IdentifierNS2_9allocatorIS4_EEEE+0xe84>
<_ZNK24ChiFeature2MCReprocessRT26FilterPortsBasedOnExposureEP21ChiFeature2PortIdListRNSt3__16vectorI21ChiFeature2IdentifierNS2_9allocatorIS4_EEEE+0x1130>
0x2d5e4 <_ZNK24ChiFeature2MCReprocessRT26FilterPortsBasedOnExposureEP21ChiFeature2PortIdListRNSt3__16vectorI21ChiFeature2IdentifierNS2_9allocatorIS4_EEEE+0xebc>
<_ZNK24ChiFeature2MCReprocessRT26FilterPortsBasedOnExposureEP21ChiFeature2PortIdListRNSt3__16vectorI21ChiFeature2IdentifierNS2_9allocatorIS4_EEEE+0xec4>
<_ZNK24ChiFeature2MCReprocessRT26FilterPortsBasedOnExposureEP21ChiFeature2PortIdListRNSt3__16vectorI21ChiFeature2IdentifierNS2_9allocatorIS4_EEEE+0xed8>
<_ZNK24ChiFeature2MCReprocessRT26FilterPortsBasedOnExposureEP21ChiFeature2PortIdListRNSt3__16vectorI21ChiFeature2IdentifierNS2_9allocatorIS4_EEEE+0xf54>
<_ZNK24ChiFeature2MCReprocessRT26FilterPortsBasedOnExposureEP21ChiFeature2PortIdListRNSt3__16vectorI21ChiFeature2IdentifierNS2_9allocatorIS4_EEEE+0xed8>
0x2d67c <_ZNK24ChiFeature2MCReprocessRT26FilterPortsBasedOnExposureEP21ChiFeature2PortIdListRNSt3__16vectorI21ChiFeature2IdentifierNS2_9allocatorIS4_EEEE+0xf54>
<_ZNK24ChiFeature2MCReprocessRT26FilterPortsBasedOnExposureEP21ChiFeature2PortIdListRNSt3__16vectorI21ChiFeature2IdentifierNS2_9allocatorIS4_EEEE+0xf2c>
0x2d67c <_ZNK24ChiFeature2MCReprocessRT26FilterPortsBasedOnExposureEP21ChiFeature2PortIdListRNSt3__16vectorI21ChiFeature2IdentifierNS2_9allocatorIS4_EEEE+0xf54>
<_ZNK24ChiFeature2MCReprocessRT26FilterPortsBasedOnExposureEP21ChiFeature2PortIdListRNSt3__16vectorI21ChiFeature2IdentifierNS2_9allocatorIS4_EEEE+0xf54>
<_ZNK24ChiFeature2MCReprocessRT26FilterPortsBasedOnExposureEP21ChiFeature2PortIdListRNSt3__16vectorI21ChiFeature2IdentifierNS2_9allocatorIS4_EEEE+0xeec>
<_ZNK24ChiFeature2MCReprocessRT26FilterPortsBasedOnExposureEP21ChiFeature2PortIdListRNSt3__16vectorI21ChiFeature2IdentifierNS2_9allocatorIS4_EEEE+0xe70>
<_ZNK24ChiFeature2MCReprocessRT26FilterPortsBasedOnExposureEP21ChiFeature2PortIdListRNSt3__16vectorI21ChiFeature2IdentifierNS2_9allocatorIS4_EEEE+0xf54>
<_ZNK24ChiFeature2MCReprocessRT26FilterPortsBasedOnExposureEP21ChiFeature2PortIdListRNSt3__16vectorI21ChiFeature2IdentifierNS2_9allocatorIS4_EEEE+0xe70>
0x2d67c <_ZNK24ChiFeature2MCReprocessRT26FilterPortsBasedOnExposureEP21ChiFeature2PortIdListRNSt3__16vectorI21ChiFeature2IdentifierNS2_9allocatorIS4_EEEE+0xf54>
<_ZNK24ChiFeature2MCReprocessRT26FilterPortsBasedOnExposureEP21ChiFeature2PortIdListRNSt3__16vectorI21ChiFeature2IdentifierNS2_9allocatorIS4_EEEE+0xf20>
<_ZNK24ChiFeature2MCReprocessRT26FilterPortsBasedOnExposureEP21ChiFeature2PortIdListRNSt3__16vectorI21ChiFeature2IdentifierNS2_9allocatorIS4_EEEE+0xf18>
<_ZNK24ChiFeature2MCReprocessRT26FilterPortsBasedOnExposureEP21ChiFeature2PortIdListRNSt3__16vectorI21ChiFeature2IdentifierNS2_9allocatorIS4_EEEE+0xf18>
<_ZNK24ChiFeature2MCReprocessRT26FilterPortsBasedOnExposureEP21ChiFeature2PortIdListRNSt3__16vectorI21ChiFeature2IdentifierNS2_9allocatorIS4_EEEE+0x2018>
0x2d6bc <_ZNK24ChiFeature2MCReprocessRT26FilterPortsBasedOnExposureEP21ChiFeature2PortIdListRNSt3__16vectorI21ChiFeature2IdentifierNS2_9allocatorIS4_EEEE+0xf94>
<_ZNK24ChiFeature2MCReprocessRT26FilterPortsBasedOnExposureEP21ChiFeature2PortIdListRNSt3__16vectorI21ChiFeature2IdentifierNS2_9allocatorIS4_EEEE+0x10b0>
<_ZNK24ChiFeature2MCReprocessRT26FilterPortsBasedOnExposureEP21ChiFeature2PortIdListRNSt3__16vectorI21ChiFeature2IdentifierNS2_9allocatorIS4_EEEE+0x201c>
<_ZNK24ChiFeature2MCReprocessRT26FilterPortsBasedOnExposureEP21ChiFeature2PortIdListRNSt3__16vectorI21ChiFeature2IdentifierNS2_9allocatorIS4_EEEE+0xfd8>
<_ZNK24ChiFeature2MCReprocessRT26FilterPortsBasedOnExposureEP21ChiFeature2PortIdListRNSt3__16vectorI21ChiFeature2IdentifierNS2_9allocatorIS4_EEEE+0xfec>
<_ZNK24ChiFeature2MCReprocessRT26FilterPortsBasedOnExposureEP21ChiFeature2PortIdListRNSt3__16vectorI21ChiFeature2IdentifierNS2_9allocatorIS4_EEEE+0xfec>
<_ZNSt3__112__next_primeEm@plt>
<_ZNK24ChiFeature2MCReprocessRT26FilterPortsBasedOnExposureEP21ChiFeature2PortIdListRNSt3__16vectorI21ChiFeature2IdentifierNS2_9allocatorIS4_EEEE+0x1008>
<_ZNK24ChiFeature2MCReprocessRT26FilterPortsBasedOnExposureEP21ChiFeature2PortIdListRNSt3__16vectorI21ChiFeature2IdentifierNS2_9allocatorIS4_EEEE+0x2030>
<_ZNK24ChiFeature2MCReprocessRT26FilterPortsBasedOnExposureEP21ChiFeature2PortIdListRNSt3__16vectorI21ChiFeature2IdentifierNS2_9allocatorIS4_EEEE+0x107c>
<_ZNK24ChiFeature2MCReprocessRT26FilterPortsBasedOnExposureEP21ChiFeature2PortIdListRNSt3__16vectorI21ChiFeature2IdentifierNS2_9allocatorIS4_EEEE+0x107c>
<_ZNK24ChiFeature2MCReprocessRT26FilterPortsBasedOnExposureEP21ChiFeature2PortIdListRNSt3__16vectorI21ChiFeature2IdentifierNS2_9allocatorIS4_EEEE+0x1060>
<_ZNK24ChiFeature2MCReprocessRT26FilterPortsBasedOnExposureEP21ChiFeature2PortIdListRNSt3__16vectorI21ChiFeature2IdentifierNS2_9allocatorIS4_EEEE+0x1060>
<_ZNK24ChiFeature2MCReprocessRT26FilterPortsBasedOnExposureEP21ChiFeature2PortIdListRNSt3__16vectorI21ChiFeature2IdentifierNS2_9allocatorIS4_EEEE+0x1064>
<_ZNK24ChiFeature2MCReprocessRT26FilterPortsBasedOnExposureEP21ChiFeature2PortIdListRNSt3__16vectorI21ChiFeature2IdentifierNS2_9allocatorIS4_EEEE+0x1064>
<_ZNSt3__112__next_primeEm@plt>
<_ZNK24ChiFeature2MCReprocessRT26FilterPortsBasedOnExposureEP21ChiFeature2PortIdListRNSt3__16vectorI21ChiFeature2IdentifierNS2_9allocatorIS4_EEEE+0x107c>
<_ZNK24ChiFeature2MCReprocessRT26FilterPortsBasedOnExposureEP21ChiFeature2PortIdListRNSt3__16vectorI21ChiFeature2IdentifierNS2_9allocatorIS4_EEEE+0x1000>
<_ZNK24ChiFeature2MCReprocessRT26FilterPortsBasedOnExposureEP21ChiFeature2PortIdListRNSt3__16vectorI21ChiFeature2IdentifierNS2_9allocatorIS4_EEEE+0x2028>
<_ZNK24ChiFeature2MCReprocessRT26FilterPortsBasedOnExposureEP21ChiFeature2PortIdListRNSt3__16vectorI21ChiFeature2IdentifierNS2_9allocatorIS4_EEEE+0x10a0>
<_ZNK24ChiFeature2MCReprocessRT26FilterPortsBasedOnExposureEP21ChiFeature2PortIdListRNSt3__16vectorI21ChiFeature2IdentifierNS2_9allocatorIS4_EEEE+0x10a8>
<_ZNK24ChiFeature2MCReprocessRT26FilterPortsBasedOnExposureEP21ChiFeature2PortIdListRNSt3__16vectorI21ChiFeature2IdentifierNS2_9allocatorIS4_EEEE+0x10b0>
<_ZNK24ChiFeature2MCReprocessRT26FilterPortsBasedOnExposureEP21ChiFeature2PortIdListRNSt3__16vectorI21ChiFeature2IdentifierNS2_9allocatorIS4_EEEE+0x10b0>
0x2d7f4 <_ZNK24ChiFeature2MCReprocessRT26FilterPortsBasedOnExposureEP21ChiFeature2PortIdListRNSt3__16vectorI21ChiFeature2IdentifierNS2_9allocatorIS4_EEEE+0x10cc>
<_ZNK24ChiFeature2MCReprocessRT26FilterPortsBasedOnExposureEP21ChiFeature2PortIdListRNSt3__16vectorI21ChiFeature2IdentifierNS2_9allocatorIS4_EEEE+0x111c>
0x2d844 <_ZNK24ChiFeature2MCReprocessRT26FilterPortsBasedOnExposureEP21ChiFeature2PortIdListRNSt3__16vectorI21ChiFeature2IdentifierNS2_9allocatorIS4_EEEE+0x111c>
<_ZNK24ChiFeature2MCReprocessRT26FilterPortsBasedOnExposureEP21ChiFeature2PortIdListRNSt3__16vectorI21ChiFeature2IdentifierNS2_9allocatorIS4_EEEE+0x1104>
<_ZNK24ChiFeature2MCReprocessRT26FilterPortsBasedOnExposureEP21ChiFeature2PortIdListRNSt3__16vectorI21ChiFeature2IdentifierNS2_9allocatorIS4_EEEE+0x1114>
<_ZNK24ChiFeature2MCReprocessRT26FilterPortsBasedOnExposureEP21ChiFeature2PortIdListRNSt3__16vectorI21ChiFeature2IdentifierNS2_9allocatorIS4_EEEE+0x1114>
<_ZNK24ChiFeature2MCReprocessRT26FilterPortsBasedOnExposureEP21ChiFeature2PortIdListRNSt3__16vectorI21ChiFeature2IdentifierNS2_9allocatorIS4_EEEE+0x2018>
<_ZNK24ChiFeature2MCReprocessRT26FilterPortsBasedOnExposureEP21ChiFeature2PortIdListRNSt3__16vectorI21ChiFeature2IdentifierNS2_9allocatorIS4_EEEE+0xe70>
<_ZNK24ChiFeature2MCReprocessRT26FilterPortsBasedOnExposureEP21ChiFeature2PortIdListRNSt3__16vectorI21ChiFeature2IdentifierNS2_9allocatorIS4_EEEE+0x115c>
<_ZNK24ChiFeature2MCReprocessRT26FilterPortsBasedOnExposureEP21ChiFeature2PortIdListRNSt3__16vectorI21ChiFeature2IdentifierNS2_9allocatorIS4_EEEE+0x2018>
<_ZNK24ChiFeature2MCReprocessRT26FilterPortsBasedOnExposureEP21ChiFeature2PortIdListRNSt3__16vectorI21ChiFeature2IdentifierNS2_9allocatorIS4_EEEE+0x1cd0>
0x2d8bc <_ZNK24ChiFeature2MCReprocessRT26FilterPortsBasedOnExposureEP21ChiFeature2PortIdListRNSt3__16vectorI21ChiFeature2IdentifierNS2_9allocatorIS4_EEEE+0x1194>
<_ZNK24ChiFeature2MCReprocessRT26FilterPortsBasedOnExposureEP21ChiFeature2PortIdListRNSt3__16vectorI21ChiFeature2IdentifierNS2_9allocatorIS4_EEEE+0x11b4>
<_ZNK24ChiFeature2MCReprocessRT26FilterPortsBasedOnExposureEP21ChiFeature2PortIdListRNSt3__16vectorI21ChiFeature2IdentifierNS2_9allocatorIS4_EEEE+0x11bc>
<_ZNK24ChiFeature2MCReprocessRT26FilterPortsBasedOnExposureEP21ChiFeature2PortIdListRNSt3__16vectorI21ChiFeature2IdentifierNS2_9allocatorIS4_EEEE+0x11a4>
<_ZNK24ChiFeature2MCReprocessRT26FilterPortsBasedOnExposureEP21ChiFeature2PortIdListRNSt3__16vectorI21ChiFeature2IdentifierNS2_9allocatorIS4_EEEE+0x11b4>
<_ZNK24ChiFeature2MCReprocessRT26FilterPortsBasedOnExposureEP21ChiFeature2PortIdListRNSt3__16vectorI21ChiFeature2IdentifierNS2_9allocatorIS4_EEEE+0x1438>
0x45000 <_ZNK24ChiFeature2MCReprocessRT26FilterPortsBasedOnExposureEP21ChiFeature2PortIdListRNSt3__16vectorI21ChiFeature2IdentifierNS2_9allocatorIS4_EEEE+0x121c>
#3, 0x2da48 <_ZNK24ChiFeature2MCReprocessRT26FilterPortsBasedOnExposureEP21ChiFeature2PortIdListRNSt3__16vectorI21ChiFeature2IdentifierNS2_9allocatorIS4_EEEE+0x1320>
0x45000 <_ZNK24ChiFeature2MCReprocessRT26FilterPortsBasedOnExposureEP21ChiFeature2PortIdListRNSt3__16vectorI21ChiFeature2IdentifierNS2_9allocatorIS4_EEEE+0x123c>
<_ZNK24ChiFeature2MCReprocessRT26FilterPortsBasedOnExposureEP21ChiFeature2PortIdListRNSt3__16vectorI21ChiFeature2IdentifierNS2_9allocatorIS4_EEEE+0x1288>
0x11000 <_ZNK24ChiFeature2MCReprocessRT26FilterPortsBasedOnExposureEP21ChiFeature2PortIdListRNSt3__16vectorI21ChiFeature2IdentifierNS2_9allocatorIS4_EEEE+0x1188>
0x11000 <_ZNK24ChiFeature2MCReprocessRT26FilterPortsBasedOnExposureEP21ChiFeature2PortIdListRNSt3__16vectorI21ChiFeature2IdentifierNS2_9allocatorIS4_EEEE+0x11ac>
0xd000 <_ZNK24ChiFeature2MCReprocessRT26FilterPortsBasedOnExposureEP21ChiFeature2PortIdListRNSt3__16vectorI21ChiFeature2IdentifierNS2_9allocatorIS4_EEEE+0x11a0>
0xf000 <_ZNK24ChiFeature2MCReprocessRT26FilterPortsBasedOnExposureEP21ChiFeature2PortIdListRNSt3__16vectorI21ChiFeature2IdentifierNS2_9allocatorIS4_EEEE+0x11b0>
0x11000 <_ZNK24ChiFeature2MCReprocessRT26FilterPortsBasedOnExposureEP21ChiFeature2PortIdListRNSt3__16vectorI21ChiFeature2IdentifierNS2_9allocatorIS4_EEEE+0x1218>
0x11000 <_ZNK24ChiFeature2MCReprocessRT26FilterPortsBasedOnExposureEP21ChiFeature2PortIdListRNSt3__16vectorI21ChiFeature2IdentifierNS2_9allocatorIS4_EEEE+0x1240>
0xe000 <_ZNK24ChiFeature2MCReprocessRT26FilterPortsBasedOnExposureEP21ChiFeature2PortIdListRNSt3__16vectorI21ChiFeature2IdentifierNS2_9allocatorIS4_EEEE+0x123c>
0xf000 <_ZNK24ChiFeature2MCReprocessRT26FilterPortsBasedOnExposureEP21ChiFeature2PortIdListRNSt3__16vectorI21ChiFeature2IdentifierNS2_9allocatorIS4_EEEE+0x1268>
0xd000 <_ZNK24ChiFeature2MCReprocessRT26FilterPortsBasedOnExposureEP21ChiFeature2PortIdListRNSt3__16vectorI21ChiFeature2IdentifierNS2_9allocatorIS4_EEEE+0x1268>
<_ZN6ChiLog9LogSystemEPKcS1_S1_S1_iS1_z@plt>
<_ZNK24ChiFeature2MCReprocessRT26FilterPortsBasedOnExposureEP21ChiFeature2PortIdListRNSt3__16vectorI21ChiFeature2IdentifierNS2_9allocatorIS4_EEEE+0x1350>
0x2da80 <_ZNK24ChiFeature2MCReprocessRT26FilterPortsBasedOnExposureEP21ChiFeature2PortIdListRNSt3__16vectorI21ChiFeature2IdentifierNS2_9allocatorIS4_EEEE+0x1358>
0x2da80 <_ZNK24ChiFeature2MCReprocessRT26FilterPortsBasedOnExposureEP21ChiFeature2PortIdListRNSt3__16vectorI21ChiFeature2IdentifierNS2_9allocatorIS4_EEEE+0x1358>
0x2da80 <_ZNK24ChiFeature2MCReprocessRT26FilterPortsBasedOnExposureEP21ChiFeature2PortIdListRNSt3__16vectorI21ChiFeature2IdentifierNS2_9allocatorIS4_EEEE+0x1358>
<_ZNK24ChiFeature2MCReprocessRT26FilterPortsBasedOnExposureEP21ChiFeature2PortIdListRNSt3__16vectorI21ChiFeature2IdentifierNS2_9allocatorIS4_EEEE+0x1358>
0x2de9c <_ZNK24ChiFeature2MCReprocessRT26FilterPortsBasedOnExposureEP21ChiFeature2PortIdListRNSt3__16vectorI21ChiFeature2IdentifierNS2_9allocatorIS4_EEEE+0x1774>
<_ZNK24ChiFeature2MCReprocessRT26FilterPortsBasedOnExposureEP21ChiFeature2PortIdListRNSt3__16vectorI21ChiFeature2IdentifierNS2_9allocatorIS4_EEEE+0x1bec>
<_ZNK24ChiFeature2MCReprocessRT26FilterPortsBasedOnExposureEP21ChiFeature2PortIdListRNSt3__16vectorI21ChiFeature2IdentifierNS2_9allocatorIS4_EEEE+0x1370>
<_ZNK24ChiFeature2MCReprocessRT26FilterPortsBasedOnExposureEP21ChiFeature2PortIdListRNSt3__16vectorI21ChiFeature2IdentifierNS2_9allocatorIS4_EEEE+0x1144>
0x2e3ec <_ZNK24ChiFeature2MCReprocessRT26FilterPortsBasedOnExposureEP21ChiFeature2PortIdListRNSt3__16vectorI21ChiFeature2IdentifierNS2_9allocatorIS4_EEEE+0x1cc4>
0xc000 <_ZNK24ChiFeature2MCReprocessRT26FilterPortsBasedOnExposureEP21ChiFeature2PortIdListRNSt3__16vectorI21ChiFeature2IdentifierNS2_9allocatorIS4_EEEE+0x1330>
<_ZNK24ChiFeature2MCReprocessRT26FilterPortsBasedOnExposureEP21ChiFeature2PortIdListRNSt3__16vectorI21ChiFeature2IdentifierNS2_9allocatorIS4_EEEE+0x13e0>
0x45000 <_ZNK24ChiFeature2MCReprocessRT26FilterPortsBasedOnExposureEP21ChiFeature2PortIdListRNSt3__16vectorI21ChiFeature2IdentifierNS2_9allocatorIS4_EEEE+0x1430>
0x2db88 <_ZNK24ChiFeature2MCReprocessRT26FilterPortsBasedOnExposureEP21ChiFeature2PortIdListRNSt3__16vectorI21ChiFeature2IdentifierNS2_9allocatorIS4_EEEE+0x1460>
0x2db88 <_ZNK24ChiFeature2MCReprocessRT26FilterPortsBasedOnExposureEP21ChiFeature2PortIdListRNSt3__16vectorI21ChiFeature2IdentifierNS2_9allocatorIS4_EEEE+0x1460>
0xb000 <_ZNK24ChiFeature2MCReprocessRT26FilterPortsBasedOnExposureEP21ChiFeature2PortIdListRNSt3__16vectorI21ChiFeature2IdentifierNS2_9allocatorIS4_EEEE+0x138c>
0x2db68 <_ZNK24ChiFeature2MCReprocessRT26FilterPortsBasedOnExposureEP21ChiFeature2PortIdListRNSt3__16vectorI21ChiFeature2IdentifierNS2_9allocatorIS4_EEEE+0x1440>
<_ZNK24ChiFeature2MCReprocessRT26FilterPortsBasedOnExposureEP21ChiFeature2PortIdListRNSt3__16vectorI21ChiFeature2IdentifierNS2_9allocatorIS4_EEEE+0x1410>
<_ZNK24ChiFeature2MCReprocessRT26FilterPortsBasedOnExposureEP21ChiFeature2PortIdListRNSt3__16vectorI21ChiFeature2IdentifierNS2_9allocatorIS4_EEEE+0x1460>
<_ZNK24ChiFeature2MCReprocessRT26FilterPortsBasedOnExposureEP21ChiFeature2PortIdListRNSt3__16vectorI21ChiFeature2IdentifierNS2_9allocatorIS4_EEEE+0x11bc>
<_ZNK24ChiFeature2MCReprocessRT26FilterPortsBasedOnExposureEP21ChiFeature2PortIdListRNSt3__16vectorI21ChiFeature2IdentifierNS2_9allocatorIS4_EEEE+0x1460>
0x2db9c <_ZNK24ChiFeature2MCReprocessRT26FilterPortsBasedOnExposureEP21ChiFeature2PortIdListRNSt3__16vectorI21ChiFeature2IdentifierNS2_9allocatorIS4_EEEE+0x1474>
<_ZNK24ChiFeature2MCReprocessRT26FilterPortsBasedOnExposureEP21ChiFeature2PortIdListRNSt3__16vectorI21ChiFeature2IdentifierNS2_9allocatorIS4_EEEE+0x1534>
0x45000 <_ZNK24ChiFeature2MCReprocessRT26FilterPortsBasedOnExposureEP21ChiFeature2PortIdListRNSt3__16vectorI21ChiFeature2IdentifierNS2_9allocatorIS4_EEEE+0x14d4>
#0, 0x2dc5c <_ZNK24ChiFeature2MCReprocessRT26FilterPortsBasedOnExposureEP21ChiFeature2PortIdListRNSt3__16vectorI21ChiFeature2IdentifierNS2_9allocatorIS4_EEEE+0x1534>
0x45000 <_ZNK24ChiFeature2MCReprocessRT26FilterPortsBasedOnExposureEP21ChiFeature2PortIdListRNSt3__16vectorI21ChiFeature2IdentifierNS2_9allocatorIS4_EEEE+0x14e4>
<_ZNK24ChiFeature2MCReprocessRT26FilterPortsBasedOnExposureEP21ChiFeature2PortIdListRNSt3__16vectorI21ChiFeature2IdentifierNS2_9allocatorIS4_EEEE+0x14e0>
0x11000 <_ZNK24ChiFeature2MCReprocessRT26FilterPortsBasedOnExposureEP21ChiFeature2PortIdListRNSt3__16vectorI21ChiFeature2IdentifierNS2_9allocatorIS4_EEEE+0x1428>
0x11000 <_ZNK24ChiFeature2MCReprocessRT26FilterPortsBasedOnExposureEP21ChiFeature2PortIdListRNSt3__16vectorI21ChiFeature2IdentifierNS2_9allocatorIS4_EEEE+0x1444>
0x10000 <_ZNK24ChiFeature2MCReprocessRT26FilterPortsBasedOnExposureEP21ChiFeature2PortIdListRNSt3__16vectorI21ChiFeature2IdentifierNS2_9allocatorIS4_EEEE+0x1444>
0xf000 <_ZNK24ChiFeature2MCReprocessRT26FilterPortsBasedOnExposureEP21ChiFeature2PortIdListRNSt3__16vectorI21ChiFeature2IdentifierNS2_9allocatorIS4_EEEE+0x1444>
0x11000 <_ZNK24ChiFeature2MCReprocessRT26FilterPortsBasedOnExposureEP21ChiFeature2PortIdListRNSt3__16vectorI21ChiFeature2IdentifierNS2_9allocatorIS4_EEEE+0x1470>
0x11000 <_ZNK24ChiFeature2MCReprocessRT26FilterPortsBasedOnExposureEP21ChiFeature2PortIdListRNSt3__16vectorI21ChiFeature2IdentifierNS2_9allocatorIS4_EEEE+0x148c>
0xb000 <_ZNK24ChiFeature2MCReprocessRT26FilterPortsBasedOnExposureEP21ChiFeature2PortIdListRNSt3__16vectorI21ChiFeature2IdentifierNS2_9allocatorIS4_EEEE+0x147c>
0xf000 <_ZNK24ChiFeature2MCReprocessRT26FilterPortsBasedOnExposureEP21ChiFeature2PortIdListRNSt3__16vectorI21ChiFeature2IdentifierNS2_9allocatorIS4_EEEE+0x1490>
0xd000 <_ZNK24ChiFeature2MCReprocessRT26FilterPortsBasedOnExposureEP21ChiFeature2PortIdListRNSt3__16vectorI21ChiFeature2IdentifierNS2_9allocatorIS4_EEEE+0x148c>
<_ZN6ChiLog9LogSystemEPKcS1_S1_S1_iS1_z@plt>
0x2dcbc <_ZNK24ChiFeature2MCReprocessRT26FilterPortsBasedOnExposureEP21ChiFeature2PortIdListRNSt3__16vectorI21ChiFeature2IdentifierNS2_9allocatorIS4_EEEE+0x1594>
0x2dcbc <_ZNK24ChiFeature2MCReprocessRT26FilterPortsBasedOnExposureEP21ChiFeature2PortIdListRNSt3__16vectorI21ChiFeature2IdentifierNS2_9allocatorIS4_EEEE+0x1594>
0xb000 <_ZNK24ChiFeature2MCReprocessRT26FilterPortsBasedOnExposureEP21ChiFeature2PortIdListRNSt3__16vectorI21ChiFeature2IdentifierNS2_9allocatorIS4_EEEE+0x14d8>
0x2dcb4 <_ZNK24ChiFeature2MCReprocessRT26FilterPortsBasedOnExposureEP21ChiFeature2PortIdListRNSt3__16vectorI21ChiFeature2IdentifierNS2_9allocatorIS4_EEEE+0x158c>
<_ZNK24ChiFeature2MCReprocessRT26FilterPortsBasedOnExposureEP21ChiFeature2PortIdListRNSt3__16vectorI21ChiFeature2IdentifierNS2_9allocatorIS4_EEEE+0x155c>
<_ZNK24ChiFeature2MCReprocessRT26FilterPortsBasedOnExposureEP21ChiFeature2PortIdListRNSt3__16vectorI21ChiFeature2IdentifierNS2_9allocatorIS4_EEEE+0x1594>
<_ZN15ExtensionModule11GetInstanceEv@plt>
0x2dcd0 <_ZNK24ChiFeature2MCReprocessRT26FilterPortsBasedOnExposureEP21ChiFeature2PortIdListRNSt3__16vectorI21ChiFeature2IdentifierNS2_9allocatorIS4_EEEE+0x15a8>
<_ZNK24ChiFeature2MCReprocessRT26FilterPortsBasedOnExposureEP21ChiFeature2PortIdListRNSt3__16vectorI21ChiFeature2IdentifierNS2_9allocatorIS4_EEEE+0x15ac>
<_ZN15ExtensionModule11GetInstanceEv@plt>
<_ZNK24ChiFeature2MCReprocessRT26FilterPortsBasedOnExposureEP21ChiFeature2PortIdListRNSt3__16vectorI21ChiFeature2IdentifierNS2_9allocatorIS4_EEEE+0x165c>
<_ZNK24ChiFeature2MCReprocessRT26FilterPortsBasedOnExposureEP21ChiFeature2PortIdListRNSt3__16vectorI21ChiFeature2IdentifierNS2_9allocatorIS4_EEEE+0x165c>
0x2dd60 <_ZNK24ChiFeature2MCReprocessRT26FilterPortsBasedOnExposureEP21ChiFeature2PortIdListRNSt3__16vectorI21ChiFeature2IdentifierNS2_9allocatorIS4_EEEE+0x1638>
0x2ddfc <_ZNK24ChiFeature2MCReprocessRT26FilterPortsBasedOnExposureEP21ChiFeature2PortIdListRNSt3__16vectorI21ChiFeature2IdentifierNS2_9allocatorIS4_EEEE+0x16d4>
0x2ddfc <_ZNK24ChiFeature2MCReprocessRT26FilterPortsBasedOnExposureEP21ChiFeature2PortIdListRNSt3__16vectorI21ChiFeature2IdentifierNS2_9allocatorIS4_EEEE+0x16d4>
<_ZN8ChxUtils15AndroidMetadata12GetBokehModeEPKv@plt>
<_ZNK24ChiFeature2MCReprocessRT26FilterPortsBasedOnExposureEP21ChiFeature2PortIdListRNSt3__16vectorI21ChiFeature2IdentifierNS2_9allocatorIS4_EEEE+0x16ac>
0x2dddc <_ZNK24ChiFeature2MCReprocessRT26FilterPortsBasedOnExposureEP21ChiFeature2PortIdListRNSt3__16vectorI21ChiFeature2IdentifierNS2_9allocatorIS4_EEEE+0x16b4>
<_ZNK24ChiFeature2MCReprocessRT26FilterPortsBasedOnExposureEP21ChiFeature2PortIdListRNSt3__16vectorI21ChiFeature2IdentifierNS2_9allocatorIS4_EEEE+0x16b8>
<_ZNK24ChiFeature2MCReprocessRT26FilterPortsBasedOnExposureEP21ChiFeature2PortIdListRNSt3__16vectorI21ChiFeature2IdentifierNS2_9allocatorIS4_EEEE+0x16b8>
<_ZN24ChiFeature2MCReprocessRT35GetMappedInputPortIndexByTargetNameEPKcPKN15ChiFeature2Base22ChiFeaturePipelineDataERNSt3__13mapIS1_NS6_13unordered_mapIjNS6_3setIjNS6_4lessIjEENS6_9allocatorIjEEEENS6_4hashIjEENS6_8equal_toIjEENSC_INS6_4pairIKjSE_EEEEEE21ChiNameLessComparatorNSC_INSJ_IKS1_SN_EEEEEE+0xd80>
<_ZN15UsecaseSelector14UpdateFDStreamEfii@plt>
0x2de90 <_ZNK24ChiFeature2MCReprocessRT26FilterPortsBasedOnExposureEP21ChiFeature2PortIdListRNSt3__16vectorI21ChiFeature2IdentifierNS2_9allocatorIS4_EEEE+0x1768>
<_ZN15ExtensionModule11GetInstanceEv@plt>
<_ZNK24ChiFeature2MCReprocessRT26FilterPortsBasedOnExposureEP21ChiFeature2PortIdListRNSt3__16vectorI21ChiFeature2IdentifierNS2_9allocatorIS4_EEEE+0x1ca0>
<_ZNK24ChiFeature2MCReprocessRT26FilterPortsBasedOnExposureEP21ChiFeature2PortIdListRNSt3__16vectorI21ChiFeature2IdentifierNS2_9allocatorIS4_EEEE+0x1ca0>
<_ZNK24ChiFeature2MCReprocessRT26FilterPortsBasedOnExposureEP21ChiFeature2PortIdListRNSt3__16vectorI21ChiFeature2IdentifierNS2_9allocatorIS4_EEEE+0x201c>
<_ZNK24ChiFeature2MCReprocessRT26FilterPortsBasedOnExposureEP21ChiFeature2PortIdListRNSt3__16vectorI21ChiFeature2IdentifierNS2_9allocatorIS4_EEEE+0x1764>
<_ZNK24ChiFeature2MCReprocessRT26FilterPortsBasedOnExposureEP21ChiFeature2PortIdListRNSt3__16vectorI21ChiFeature2IdentifierNS2_9allocatorIS4_EEEE+0x1768>
0x2e314 <_ZNK24ChiFeature2MCReprocessRT26FilterPortsBasedOnExposureEP21ChiFeature2PortIdListRNSt3__16vectorI21ChiFeature2IdentifierNS2_9allocatorIS4_EEEE+0x1bec>
0x2dec4 <_ZNK24ChiFeature2MCReprocessRT26FilterPortsBasedOnExposureEP21ChiFeature2PortIdListRNSt3__16vectorI21ChiFeature2IdentifierNS2_9allocatorIS4_EEEE+0x179c>
0x2dec4 <_ZNK24ChiFeature2MCReprocessRT26FilterPortsBasedOnExposureEP21ChiFeature2PortIdListRNSt3__16vectorI21ChiFeature2IdentifierNS2_9allocatorIS4_EEEE+0x179c>
0x2dec4 <_ZNK24ChiFeature2MCReprocessRT26FilterPortsBasedOnExposureEP21ChiFeature2PortIdListRNSt3__16vectorI21ChiFeature2IdentifierNS2_9allocatorIS4_EEEE+0x179c>
<_ZNK24ChiFeature2MCReprocessRT26FilterPortsBasedOnExposureEP21ChiFeature2PortIdListRNSt3__16vectorI21ChiFeature2IdentifierNS2_9allocatorIS4_EEEE+0x1bec>
<_ZN24ChiFeature2MCReprocessRT35GetMappedInputPortIndexByTargetNameEPKcPKN15ChiFeature2Base22ChiFeaturePipelineDataERNSt3__13mapIS1_NS6_13unordered_mapIjNS6_3setIjNS6_4lessIjEENS6_9allocatorIjEEEENS6_4hashIjEENS6_8equal_toIjEENSC_INS6_4pairIKjSE_EEEEEE21ChiNameLessComparatorNSC_INSJ_IKS1_SN_EEEEEE+0xd80>
<_ZNK24ChiFeature2MCReprocessRT26FilterPortsBasedOnExposureEP21ChiFeature2PortIdListRNSt3__16vectorI21ChiFeature2IdentifierNS2_9allocatorIS4_EEEE+0x1980>
0x2df18 <_ZNK24ChiFeature2MCReprocessRT26FilterPortsBasedOnExposureEP21ChiFeature2PortIdListRNSt3__16vectorI21ChiFeature2IdentifierNS2_9allocatorIS4_EEEE+0x17f0>
0x45000 <_ZNK24ChiFeature2MCReprocessRT26FilterPortsBasedOnExposureEP21ChiFeature2PortIdListRNSt3__16vectorI21ChiFeature2IdentifierNS2_9allocatorIS4_EEEE+0x1850>
#3, 0x2dfcc <_ZNK24ChiFeature2MCReprocessRT26FilterPortsBasedOnExposureEP21ChiFeature2PortIdListRNSt3__16vectorI21ChiFeature2IdentifierNS2_9allocatorIS4_EEEE+0x18a4>
0x45000 <_ZNK24ChiFeature2MCReprocessRT26FilterPortsBasedOnExposureEP21ChiFeature2PortIdListRNSt3__16vectorI21ChiFeature2IdentifierNS2_9allocatorIS4_EEEE+0x1864>
<_ZNK24ChiFeature2MCReprocessRT26FilterPortsBasedOnExposureEP21ChiFeature2PortIdListRNSt3__16vectorI21ChiFeature2IdentifierNS2_9allocatorIS4_EEEE+0x185c>
0x11000 <_ZNK24ChiFeature2MCReprocessRT26FilterPortsBasedOnExposureEP21ChiFeature2PortIdListRNSt3__16vectorI21ChiFeature2IdentifierNS2_9allocatorIS4_EEEE+0x17a8>
0x11000 <_ZNK24ChiFeature2MCReprocessRT26FilterPortsBasedOnExposureEP21ChiFeature2PortIdListRNSt3__16vectorI21ChiFeature2IdentifierNS2_9allocatorIS4_EEEE+0x17c4>
0x11000 <_ZNK24ChiFeature2MCReprocessRT26FilterPortsBasedOnExposureEP21ChiFeature2PortIdListRNSt3__16vectorI21ChiFeature2IdentifierNS2_9allocatorIS4_EEEE+0x17c8>
0xf000 <_ZNK24ChiFeature2MCReprocessRT26FilterPortsBasedOnExposureEP21ChiFeature2PortIdListRNSt3__16vectorI21ChiFeature2IdentifierNS2_9allocatorIS4_EEEE+0x17c4>
0x11000 <_ZNK24ChiFeature2MCReprocessRT26FilterPortsBasedOnExposureEP21ChiFeature2PortIdListRNSt3__16vectorI21ChiFeature2IdentifierNS2_9allocatorIS4_EEEE+0x17ec>
0xe000 <_ZNK24ChiFeature2MCReprocessRT26FilterPortsBasedOnExposureEP21ChiFeature2PortIdListRNSt3__16vectorI21ChiFeature2IdentifierNS2_9allocatorIS4_EEEE+0x17fc>
0x11000 <_ZNK24ChiFeature2MCReprocessRT26FilterPortsBasedOnExposureEP21ChiFeature2PortIdListRNSt3__16vectorI21ChiFeature2IdentifierNS2_9allocatorIS4_EEEE+0x1810>
0xf000 <_ZNK24ChiFeature2MCReprocessRT26FilterPortsBasedOnExposureEP21ChiFeature2PortIdListRNSt3__16vectorI21ChiFeature2IdentifierNS2_9allocatorIS4_EEEE+0x180c>
0x10000 <_ZNK24ChiFeature2MCReprocessRT26FilterPortsBasedOnExposureEP21ChiFeature2PortIdListRNSt3__16vectorI21ChiFeature2IdentifierNS2_9allocatorIS4_EEEE+0x1814>
<_ZN6ChiLog9LogSystemEPKcS1_S1_S1_iS1_z@plt>
0x2e3f0 <_ZNK24ChiFeature2MCReprocessRT26FilterPortsBasedOnExposureEP21ChiFeature2PortIdListRNSt3__16vectorI21ChiFeature2IdentifierNS2_9allocatorIS4_EEEE+0x1cc8>
0xc000 <_ZNK24ChiFeature2MCReprocessRT26FilterPortsBasedOnExposureEP21ChiFeature2PortIdListRNSt3__16vectorI21ChiFeature2IdentifierNS2_9allocatorIS4_EEEE+0x1828>
<_ZNK24ChiFeature2MCReprocessRT26FilterPortsBasedOnExposureEP21ChiFeature2PortIdListRNSt3__16vectorI21ChiFeature2IdentifierNS2_9allocatorIS4_EEEE+0x18d4>
0x45000 <_ZNK24ChiFeature2MCReprocessRT26FilterPortsBasedOnExposureEP21ChiFeature2PortIdListRNSt3__16vectorI21ChiFeature2IdentifierNS2_9allocatorIS4_EEEE+0x1924>
0x2e068 <_ZNK24ChiFeature2MCReprocessRT26FilterPortsBasedOnExposureEP21ChiFeature2PortIdListRNSt3__16vectorI21ChiFeature2IdentifierNS2_9allocatorIS4_EEEE+0x1940>
0x2e068 <_ZNK24ChiFeature2MCReprocessRT26FilterPortsBasedOnExposureEP21ChiFeature2PortIdListRNSt3__16vectorI21ChiFeature2IdentifierNS2_9allocatorIS4_EEEE+0x1940>
0xb000 <_ZNK24ChiFeature2MCReprocessRT26FilterPortsBasedOnExposureEP21ChiFeature2PortIdListRNSt3__16vectorI21ChiFeature2IdentifierNS2_9allocatorIS4_EEEE+0x1880>
0x2e060 <_ZNK24ChiFeature2MCReprocessRT26FilterPortsBasedOnExposureEP21ChiFeature2PortIdListRNSt3__16vectorI21ChiFeature2IdentifierNS2_9allocatorIS4_EEEE+0x1938>
<_ZNK24ChiFeature2MCReprocessRT26FilterPortsBasedOnExposureEP21ChiFeature2PortIdListRNSt3__16vectorI21ChiFeature2IdentifierNS2_9allocatorIS4_EEEE+0x1908>
<_ZNK24ChiFeature2MCReprocessRT26FilterPortsBasedOnExposureEP21ChiFeature2PortIdListRNSt3__16vectorI21ChiFeature2IdentifierNS2_9allocatorIS4_EEEE+0x1940>
<_ZN15ExtensionModule11GetInstanceEv@plt>
0x2e07c <_ZNK24ChiFeature2MCReprocessRT26FilterPortsBasedOnExposureEP21ChiFeature2PortIdListRNSt3__16vectorI21ChiFeature2IdentifierNS2_9allocatorIS4_EEEE+0x1954>
<_ZNK24ChiFeature2MCReprocessRT26FilterPortsBasedOnExposureEP21ChiFeature2PortIdListRNSt3__16vectorI21ChiFeature2IdentifierNS2_9allocatorIS4_EEEE+0x1958>
0x2e0b8 <_ZNK24ChiFeature2MCReprocessRT26FilterPortsBasedOnExposureEP21ChiFeature2PortIdListRNSt3__16vectorI21ChiFeature2IdentifierNS2_9allocatorIS4_EEEE+0x1990>
0x2e314 <_ZNK24ChiFeature2MCReprocessRT26FilterPortsBasedOnExposureEP21ChiFeature2PortIdListRNSt3__16vectorI21ChiFeature2IdentifierNS2_9allocatorIS4_EEEE+0x1bec>
<_ZNK24ChiFeature2MCReprocessRT26FilterPortsBasedOnExposureEP21ChiFeature2PortIdListRNSt3__16vectorI21ChiFeature2IdentifierNS2_9allocatorIS4_EEEE+0x19ac>
0x2e314 <_ZNK24ChiFeature2MCReprocessRT26FilterPortsBasedOnExposureEP21ChiFeature2PortIdListRNSt3__16vectorI21ChiFeature2IdentifierNS2_9allocatorIS4_EEEE+0x1bec>
<_ZN15ExtensionModule11GetInstanceEv@plt>
<_ZNK24ChiFeature2MCReprocessRT26FilterPortsBasedOnExposureEP21ChiFeature2PortIdListRNSt3__16vectorI21ChiFeature2IdentifierNS2_9allocatorIS4_EEEE+0x1b90>
<_ZNK24ChiFeature2MCReprocessRT26FilterPortsBasedOnExposureEP21ChiFeature2PortIdListRNSt3__16vectorI21ChiFeature2IdentifierNS2_9allocatorIS4_EEEE+0x1b90>
0x2e3f0 <_ZNK24ChiFeature2MCReprocessRT26FilterPortsBasedOnExposureEP21ChiFeature2PortIdListRNSt3__16vectorI21ChiFeature2IdentifierNS2_9allocatorIS4_EEEE+0x1cc8>
0xc000 <_ZNK24ChiFeature2MCReprocessRT26FilterPortsBasedOnExposureEP21ChiFeature2PortIdListRNSt3__16vectorI21ChiFeature2IdentifierNS2_9allocatorIS4_EEEE+0x199c>
<_ZNK24ChiFeature2MCReprocessRT26FilterPortsBasedOnExposureEP21ChiFeature2PortIdListRNSt3__16vectorI21ChiFeature2IdentifierNS2_9allocatorIS4_EEEE+0x1a50>
0x45000 <_ZNK24ChiFeature2MCReprocessRT26FilterPortsBasedOnExposureEP21ChiFeature2PortIdListRNSt3__16vectorI21ChiFeature2IdentifierNS2_9allocatorIS4_EEEE+0x1a9c>
0x2e19c <_ZNK24ChiFeature2MCReprocessRT26FilterPortsBasedOnExposureEP21ChiFeature2PortIdListRNSt3__16vectorI21ChiFeature2IdentifierNS2_9allocatorIS4_EEEE+0x1a74>
<_ZNK24ChiFeature2MCReprocessRT26FilterPortsBasedOnExposureEP21ChiFeature2PortIdListRNSt3__16vectorI21ChiFeature2IdentifierNS2_9allocatorIS4_EEEE+0x1b30>
0x45000 <_ZNK24ChiFeature2MCReprocessRT26FilterPortsBasedOnExposureEP21ChiFeature2PortIdListRNSt3__16vectorI21ChiFeature2IdentifierNS2_9allocatorIS4_EEEE+0x1ad0>
#0, 0x2e258 <_ZNK24ChiFeature2MCReprocessRT26FilterPortsBasedOnExposureEP21ChiFeature2PortIdListRNSt3__16vectorI21ChiFeature2IdentifierNS2_9allocatorIS4_EEEE+0x1b30>
0x45000 <_ZNK24ChiFeature2MCReprocessRT26FilterPortsBasedOnExposureEP21ChiFeature2PortIdListRNSt3__16vectorI21ChiFeature2IdentifierNS2_9allocatorIS4_EEEE+0x1ae0>
<_ZNK24ChiFeature2MCReprocessRT26FilterPortsBasedOnExposureEP21ChiFeature2PortIdListRNSt3__16vectorI21ChiFeature2IdentifierNS2_9allocatorIS4_EEEE+0x1ae0>
0x11000 <_ZNK24ChiFeature2MCReprocessRT26FilterPortsBasedOnExposureEP21ChiFeature2PortIdListRNSt3__16vectorI21ChiFeature2IdentifierNS2_9allocatorIS4_EEEE+0x1a24>
0x11000 <_ZNK24ChiFeature2MCReprocessRT26FilterPortsBasedOnExposureEP21ChiFeature2PortIdListRNSt3__16vectorI21ChiFeature2IdentifierNS2_9allocatorIS4_EEEE+0x1a40>
0x10000 <_ZNK24ChiFeature2MCReprocessRT26FilterPortsBasedOnExposureEP21ChiFeature2PortIdListRNSt3__16vectorI21ChiFeature2IdentifierNS2_9allocatorIS4_EEEE+0x1a40>
0xf000 <_ZNK24ChiFeature2MCReprocessRT26FilterPortsBasedOnExposureEP21ChiFeature2PortIdListRNSt3__16vectorI21ChiFeature2IdentifierNS2_9allocatorIS4_EEEE+0x1a40>
0x11000 <_ZNK24ChiFeature2MCReprocessRT26FilterPortsBasedOnExposureEP21ChiFeature2PortIdListRNSt3__16vectorI21ChiFeature2IdentifierNS2_9allocatorIS4_EEEE+0x1a6c>
0x11000 <_ZNK24ChiFeature2MCReprocessRT26FilterPortsBasedOnExposureEP21ChiFeature2PortIdListRNSt3__16vectorI21ChiFeature2IdentifierNS2_9allocatorIS4_EEEE+0x1a88>
0xb000 <_ZNK24ChiFeature2MCReprocessRT26FilterPortsBasedOnExposureEP21ChiFeature2PortIdListRNSt3__16vectorI21ChiFeature2IdentifierNS2_9allocatorIS4_EEEE+0x1a78>
0xf000 <_ZNK24ChiFeature2MCReprocessRT26FilterPortsBasedOnExposureEP21ChiFeature2PortIdListRNSt3__16vectorI21ChiFeature2IdentifierNS2_9allocatorIS4_EEEE+0x1a8c>
0xd000 <_ZNK24ChiFeature2MCReprocessRT26FilterPortsBasedOnExposureEP21ChiFeature2PortIdListRNSt3__16vectorI21ChiFeature2IdentifierNS2_9allocatorIS4_EEEE+0x1a88>
<_ZN6ChiLog9LogSystemEPKcS1_S1_S1_iS1_z@plt>
0x2e2d0 <_ZNK24ChiFeature2MCReprocessRT26FilterPortsBasedOnExposureEP21ChiFeature2PortIdListRNSt3__16vectorI21ChiFeature2IdentifierNS2_9allocatorIS4_EEEE+0x1ba8>
0x2e2d0 <_ZNK24ChiFeature2MCReprocessRT26FilterPortsBasedOnExposureEP21ChiFeature2PortIdListRNSt3__16vectorI21ChiFeature2IdentifierNS2_9allocatorIS4_EEEE+0x1ba8>
0xb000 <_ZNK24ChiFeature2MCReprocessRT26FilterPortsBasedOnExposureEP21ChiFeature2PortIdListRNSt3__16vectorI21ChiFeature2IdentifierNS2_9allocatorIS4_EEEE+0x1ad8>
0x2e2c8 <_ZNK24ChiFeature2MCReprocessRT26FilterPortsBasedOnExposureEP21ChiFeature2PortIdListRNSt3__16vectorI21ChiFeature2IdentifierNS2_9allocatorIS4_EEEE+0x1ba0>
<_ZNK24ChiFeature2MCReprocessRT26FilterPortsBasedOnExposureEP21ChiFeature2PortIdListRNSt3__16vectorI21ChiFeature2IdentifierNS2_9allocatorIS4_EEEE+0x1b60>
<_ZNK24ChiFeature2MCReprocessRT26FilterPortsBasedOnExposureEP21ChiFeature2PortIdListRNSt3__16vectorI21ChiFeature2IdentifierNS2_9allocatorIS4_EEEE+0x1ba8>
<_ZNK24ChiFeature2MCReprocessRT26FilterPortsBasedOnExposureEP21ChiFeature2PortIdListRNSt3__16vectorI21ChiFeature2IdentifierNS2_9allocatorIS4_EEEE+0x19e0>
<_ZNK24ChiFeature2MCReprocessRT26FilterPortsBasedOnExposureEP21ChiFeature2PortIdListRNSt3__16vectorI21ChiFeature2IdentifierNS2_9allocatorIS4_EEEE+0x1bec>
<_ZN15ExtensionModule11GetInstanceEv@plt>
0x2e2e4 <_ZNK24ChiFeature2MCReprocessRT26FilterPortsBasedOnExposureEP21ChiFeature2PortIdListRNSt3__16vectorI21ChiFeature2IdentifierNS2_9allocatorIS4_EEEE+0x1bbc>
<_ZNK24ChiFeature2MCReprocessRT26FilterPortsBasedOnExposureEP21ChiFeature2PortIdListRNSt3__16vectorI21ChiFeature2IdentifierNS2_9allocatorIS4_EEEE+0x1bc0>
<_ZN15ExtensionModule11GetInstanceEv@plt>
<_ZNK24ChiFeature2MCReprocessRT26FilterPortsBasedOnExposureEP21ChiFeature2PortIdListRNSt3__16vectorI21ChiFeature2IdentifierNS2_9allocatorIS4_EEEE+0x1144>
0x2d86c <_ZNK24ChiFeature2MCReprocessRT26FilterPortsBasedOnExposureEP21ChiFeature2PortIdListRNSt3__16vectorI21ChiFeature2IdentifierNS2_9allocatorIS4_EEEE+0x1144>
<_ZNK24ChiFeature2MCReprocessRT26FilterPortsBasedOnExposureEP21ChiFeature2PortIdListRNSt3__16vectorI21ChiFeature2IdentifierNS2_9allocatorIS4_EEEE+0x1144>
0x2e36c <_ZNK24ChiFeature2MCReprocessRT26FilterPortsBasedOnExposureEP21ChiFeature2PortIdListRNSt3__16vectorI21ChiFeature2IdentifierNS2_9allocatorIS4_EEEE+0x1c44>
0x2e380 <_ZNK24ChiFeature2MCReprocessRT26FilterPortsBasedOnExposureEP21ChiFeature2PortIdListRNSt3__16vectorI21ChiFeature2IdentifierNS2_9allocatorIS4_EEEE+0x1c58>
0x2e394 <_ZNK24ChiFeature2MCReprocessRT26FilterPortsBasedOnExposureEP21ChiFeature2PortIdListRNSt3__16vectorI21ChiFeature2IdentifierNS2_9allocatorIS4_EEEE+0x1c6c>
0x2e3a4 <_ZNK24ChiFeature2MCReprocessRT26FilterPortsBasedOnExposureEP21ChiFeature2PortIdListRNSt3__16vectorI21ChiFeature2IdentifierNS2_9allocatorIS4_EEEE+0x1c7c>
<_ZNK24ChiFeature2MCReprocessRT26FilterPortsBasedOnExposureEP21ChiFeature2PortIdListRNSt3__16vectorI21ChiFeature2IdentifierNS2_9allocatorIS4_EEEE+0x1148>
0x2e3a4 <_ZNK24ChiFeature2MCReprocessRT26FilterPortsBasedOnExposureEP21ChiFeature2PortIdListRNSt3__16vectorI21ChiFeature2IdentifierNS2_9allocatorIS4_EEEE+0x1c7c>
<_ZNK24ChiFeature2MCReprocessRT26FilterPortsBasedOnExposureEP21ChiFeature2PortIdListRNSt3__16vectorI21ChiFeature2IdentifierNS2_9allocatorIS4_EEEE+0x1148>
0x2e3a4 <_ZNK24ChiFeature2MCReprocessRT26FilterPortsBasedOnExposureEP21ChiFeature2PortIdListRNSt3__16vectorI21ChiFeature2IdentifierNS2_9allocatorIS4_EEEE+0x1c7c>
<_ZNK24ChiFeature2MCReprocessRT26FilterPortsBasedOnExposureEP21ChiFeature2PortIdListRNSt3__16vectorI21ChiFeature2IdentifierNS2_9allocatorIS4_EEEE+0x1148>
0x2d870 <_ZNK24ChiFeature2MCReprocessRT26FilterPortsBasedOnExposureEP21ChiFeature2PortIdListRNSt3__16vectorI21ChiFeature2IdentifierNS2_9allocatorIS4_EEEE+0x1148>
<_ZNK24ChiFeature2MCReprocessRT26FilterPortsBasedOnExposureEP21ChiFeature2PortIdListRNSt3__16vectorI21ChiFeature2IdentifierNS2_9allocatorIS4_EEEE+0x1148>
<_ZNK24ChiFeature2MCReprocessRT26FilterPortsBasedOnExposureEP21ChiFeature2PortIdListRNSt3__16vectorI21ChiFeature2IdentifierNS2_9allocatorIS4_EEEE+0x1148>
<_ZNK24ChiFeature2MCReprocessRT26FilterPortsBasedOnExposureEP21ChiFeature2PortIdListRNSt3__16vectorI21ChiFeature2IdentifierNS2_9allocatorIS4_EEEE+0x1728>
<_ZNK24ChiFeature2MCReprocessRT26FilterPortsBasedOnExposureEP21ChiFeature2PortIdListRNSt3__16vectorI21ChiFeature2IdentifierNS2_9allocatorIS4_EEEE+0x1768>
0x2e544 <_ZNK24ChiFeature2MCReprocessRT26FilterPortsBasedOnExposureEP21ChiFeature2PortIdListRNSt3__16vectorI21ChiFeature2IdentifierNS2_9allocatorIS4_EEEE+0x1e1c>
0x2e448 <_ZNK24ChiFeature2MCReprocessRT26FilterPortsBasedOnExposureEP21ChiFeature2PortIdListRNSt3__16vectorI21ChiFeature2IdentifierNS2_9allocatorIS4_EEEE+0x1d20>
0x2e468 <_ZNK24ChiFeature2MCReprocessRT26FilterPortsBasedOnExposureEP21ChiFeature2PortIdListRNSt3__16vectorI21ChiFeature2IdentifierNS2_9allocatorIS4_EEEE+0x1d40>
0x46000 <_ZNK24ChiFeature2MCReprocessRT26FilterPortsBasedOnExposureEP21ChiFeature2PortIdListRNSt3__16vectorI21ChiFeature2IdentifierNS2_9allocatorIS4_EEEE+0x1d8c>
<_ZNK24ChiFeature2MCReprocessRT26FilterPortsBasedOnExposureEP21ChiFeature2PortIdListRNSt3__16vectorI21ChiFeature2IdentifierNS2_9allocatorIS4_EEEE+0x1d4c>
0x45000 <_ZNK24ChiFeature2MCReprocessRT26FilterPortsBasedOnExposureEP21ChiFeature2PortIdListRNSt3__16vectorI21ChiFeature2IdentifierNS2_9allocatorIS4_EEEE+0x1da8>
#3, 0x2e52c <_ZNK24ChiFeature2MCReprocessRT26FilterPortsBasedOnExposureEP21ChiFeature2PortIdListRNSt3__16vectorI21ChiFeature2IdentifierNS2_9allocatorIS4_EEEE+0x1e04>
0x45000 <_ZNK24ChiFeature2MCReprocessRT26FilterPortsBasedOnExposureEP21ChiFeature2PortIdListRNSt3__16vectorI21ChiFeature2IdentifierNS2_9allocatorIS4_EEEE+0x1db8>
<_ZNK24ChiFeature2MCReprocessRT26FilterPortsBasedOnExposureEP21ChiFeature2PortIdListRNSt3__16vectorI21ChiFeature2IdentifierNS2_9allocatorIS4_EEEE+0x1db8>
0x11000 <_ZNK24ChiFeature2MCReprocessRT26FilterPortsBasedOnExposureEP21ChiFeature2PortIdListRNSt3__16vectorI21ChiFeature2IdentifierNS2_9allocatorIS4_EEEE+0x1cfc>
0x11000 <_ZNK24ChiFeature2MCReprocessRT26FilterPortsBasedOnExposureEP21ChiFeature2PortIdListRNSt3__16vectorI21ChiFeature2IdentifierNS2_9allocatorIS4_EEEE+0x1d1c>
0xf000 <_ZNK24ChiFeature2MCReprocessRT26FilterPortsBasedOnExposureEP21ChiFeature2PortIdListRNSt3__16vectorI21ChiFeature2IdentifierNS2_9allocatorIS4_EEEE+0x1d18>
0xf000 <_ZNK24ChiFeature2MCReprocessRT26FilterPortsBasedOnExposureEP21ChiFeature2PortIdListRNSt3__16vectorI21ChiFeature2IdentifierNS2_9allocatorIS4_EEEE+0x1d1c>
0x11000 <_ZNK24ChiFeature2MCReprocessRT26FilterPortsBasedOnExposureEP21ChiFeature2PortIdListRNSt3__16vectorI21ChiFeature2IdentifierNS2_9allocatorIS4_EEEE+0x1d44>
0xe000 <_ZNK24ChiFeature2MCReprocessRT26FilterPortsBasedOnExposureEP21ChiFeature2PortIdListRNSt3__16vectorI21ChiFeature2IdentifierNS2_9allocatorIS4_EEEE+0x1d54>
0x11000 <_ZNK24ChiFeature2MCReprocessRT26FilterPortsBasedOnExposureEP21ChiFeature2PortIdListRNSt3__16vectorI21ChiFeature2IdentifierNS2_9allocatorIS4_EEEE+0x1d6c>
0xf000 <_ZNK24ChiFeature2MCReprocessRT26FilterPortsBasedOnExposureEP21ChiFeature2PortIdListRNSt3__16vectorI21ChiFeature2IdentifierNS2_9allocatorIS4_EEEE+0x1d68>
0xe000 <_ZNK24ChiFeature2MCReprocessRT26FilterPortsBasedOnExposureEP21ChiFeature2PortIdListRNSt3__16vectorI21ChiFeature2IdentifierNS2_9allocatorIS4_EEEE+0x1d68>
<_ZN6ChiLog9LogSystemEPKcS1_S1_S1_iS1_z@plt>
0x45000 <_ZNK24ChiFeature2MCReprocessRT26FilterPortsBasedOnExposureEP21ChiFeature2PortIdListRNSt3__16vectorI21ChiFeature2IdentifierNS2_9allocatorIS4_EEEE+0x1e78>
0x2e5f4 <_ZNK24ChiFeature2MCReprocessRT26FilterPortsBasedOnExposureEP21ChiFeature2PortIdListRNSt3__16vectorI21ChiFeature2IdentifierNS2_9allocatorIS4_EEEE+0x1ecc>
<_ZNK24ChiFeature2MCReprocessRT26FilterPortsBasedOnExposureEP21ChiFeature2PortIdListRNSt3__16vectorI21ChiFeature2IdentifierNS2_9allocatorIS4_EEEE+0xa88>
<_ZNK24ChiFeature2MCReprocessRT26FilterPortsBasedOnExposureEP21ChiFeature2PortIdListRNSt3__16vectorI21ChiFeature2IdentifierNS2_9allocatorIS4_EEEE+0x1ed4>
<_ZNK24ChiFeature2MCReprocessRT26FilterPortsBasedOnExposureEP21ChiFeature2PortIdListRNSt3__16vectorI21ChiFeature2IdentifierNS2_9allocatorIS4_EEEE+0x1ed4>
0x45000 <_ZNK24ChiFeature2MCReprocessRT26FilterPortsBasedOnExposureEP21ChiFeature2PortIdListRNSt3__16vectorI21ChiFeature2IdentifierNS2_9allocatorIS4_EEEE+0x1f34>
#3, 0x2e63c <_ZNK24ChiFeature2MCReprocessRT26FilterPortsBasedOnExposureEP21ChiFeature2PortIdListRNSt3__16vectorI21ChiFeature2IdentifierNS2_9allocatorIS4_EEEE+0x1f14>
<_ZNK24ChiFeature2MCReprocessRT26FilterPortsBasedOnExposureEP21ChiFeature2PortIdListRNSt3__16vectorI21ChiFeature2IdentifierNS2_9allocatorIS4_EEEE+0x1fe0>
0x45000 <_ZNK24ChiFeature2MCReprocessRT26FilterPortsBasedOnExposureEP21ChiFeature2PortIdListRNSt3__16vectorI21ChiFeature2IdentifierNS2_9allocatorIS4_EEEE+0x1f70>
<_ZNK24ChiFeature2MCReprocessRT26FilterPortsBasedOnExposureEP21ChiFeature2PortIdListRNSt3__16vectorI21ChiFeature2IdentifierNS2_9allocatorIS4_EEEE+0x1f84>
0x11000 <_ZNK24ChiFeature2MCReprocessRT26FilterPortsBasedOnExposureEP21ChiFeature2PortIdListRNSt3__16vectorI21ChiFeature2IdentifierNS2_9allocatorIS4_EEEE+0x1eb8>
0xf000 <_ZNK24ChiFeature2MCReprocessRT26FilterPortsBasedOnExposureEP21ChiFeature2PortIdListRNSt3__16vectorI21ChiFeature2IdentifierNS2_9allocatorIS4_EEEE+0x1ed4>
0xd000 <_ZNK24ChiFeature2MCReprocessRT26FilterPortsBasedOnExposureEP21ChiFeature2PortIdListRNSt3__16vectorI21ChiFeature2IdentifierNS2_9allocatorIS4_EEEE+0x1ee4>
0x11000 <_ZNK24ChiFeature2MCReprocessRT26FilterPortsBasedOnExposureEP21ChiFeature2PortIdListRNSt3__16vectorI21ChiFeature2IdentifierNS2_9allocatorIS4_EEEE+0x1f00>
0x11000 <_ZNK24ChiFeature2MCReprocessRT26FilterPortsBasedOnExposureEP21ChiFeature2PortIdListRNSt3__16vectorI21ChiFeature2IdentifierNS2_9allocatorIS4_EEEE+0x1f10>
0x11000 <_ZNK24ChiFeature2MCReprocessRT26FilterPortsBasedOnExposureEP21ChiFeature2PortIdListRNSt3__16vectorI21ChiFeature2IdentifierNS2_9allocatorIS4_EEEE+0x1f34>
0xf000 <_ZNK24ChiFeature2MCReprocessRT26FilterPortsBasedOnExposureEP21ChiFeature2PortIdListRNSt3__16vectorI21ChiFeature2IdentifierNS2_9allocatorIS4_EEEE+0x1f30>
0x10000 <_ZNK24ChiFeature2MCReprocessRT26FilterPortsBasedOnExposureEP21ChiFeature2PortIdListRNSt3__16vectorI21ChiFeature2IdentifierNS2_9allocatorIS4_EEEE+0x1f38>
0xe000 <_ZNK24ChiFeature2MCReprocessRT26FilterPortsBasedOnExposureEP21ChiFeature2PortIdListRNSt3__16vectorI21ChiFeature2IdentifierNS2_9allocatorIS4_EEEE+0x1f4c>
<_ZN6ChiLog9LogSystemEPKcS1_S1_S1_iS1_z@plt>
<_ZNK24ChiFeature2MCReprocessRT26FilterPortsBasedOnExposureEP21ChiFeature2PortIdListRNSt3__16vectorI21ChiFeature2IdentifierNS2_9allocatorIS4_EEEE+0x202c>
<_ZNKSt3__120__vector_base_commonILb1EE20__throw_length_errorEv@plt>
0x2e78c <_ZNK24ChiFeature2MCReprocessRT26FilterPortsBasedOnExposureEP21ChiFeature2PortIdListRNSt3__16vectorI21ChiFeature2IdentifierNS2_9allocatorIS4_EEEE+0x2064>
0x2ea00 <_ZNK24ChiFeature2MCReprocessRT26FilterPortsBasedOnExposureEP21ChiFeature2PortIdListRNSt3__16vectorI21ChiFeature2IdentifierNS2_9allocatorIS4_EEEE+0x22d8>
<_ZNK24ChiFeature2MCReprocessRT26FilterPortsBasedOnExposureEP21ChiFeature2PortIdListRNSt3__16vectorI21ChiFeature2IdentifierNS2_9allocatorIS4_EEEE+0x2068>
0x2e7ac <_ZNK24ChiFeature2MCReprocessRT26FilterPortsBasedOnExposureEP21ChiFeature2PortIdListRNSt3__16vectorI21ChiFeature2IdentifierNS2_9allocatorIS4_EEEE+0x2084>
0x2ea04 <_ZNK24ChiFeature2MCReprocessRT26FilterPortsBasedOnExposureEP21ChiFeature2PortIdListRNSt3__16vectorI21ChiFeature2IdentifierNS2_9allocatorIS4_EEEE+0x22dc>
0x2e964 <_ZNK24ChiFeature2MCReprocessRT26FilterPortsBasedOnExposureEP21ChiFeature2PortIdListRNSt3__16vectorI21ChiFeature2IdentifierNS2_9allocatorIS4_EEEE+0x223c>
<_ZNK24ChiFeature2MCReprocessRT26FilterPortsBasedOnExposureEP21ChiFeature2PortIdListRNSt3__16vectorI21ChiFeature2IdentifierNS2_9allocatorIS4_EEEE+0x20b0>
<_ZNK24ChiFeature2MCReprocessRT26FilterPortsBasedOnExposureEP21ChiFeature2PortIdListRNSt3__16vectorI21ChiFeature2IdentifierNS2_9allocatorIS4_EEEE+0x2248>
<_ZNK24ChiFeature2MCReprocessRT26FilterPortsBasedOnExposureEP21ChiFeature2PortIdListRNSt3__16vectorI21ChiFeature2IdentifierNS2_9allocatorIS4_EEEE+0x2248>
<_ZNK24ChiFeature2MCReprocessRT26FilterPortsBasedOnExposureEP21ChiFeature2PortIdListRNSt3__16vectorI21ChiFeature2IdentifierNS2_9allocatorIS4_EEEE+0x20b8>
0x2e964 <_ZNK24ChiFeature2MCReprocessRT26FilterPortsBasedOnExposureEP21ChiFeature2PortIdListRNSt3__16vectorI21ChiFeature2IdentifierNS2_9allocatorIS4_EEEE+0x223c>
<_ZNK24ChiFeature2MCReprocessRT26FilterPortsBasedOnExposureEP21ChiFeature2PortIdListRNSt3__16vectorI21ChiFeature2IdentifierNS2_9allocatorIS4_EEEE+0x2104>
<_ZNK24ChiFeature2MCReprocessRT26FilterPortsBasedOnExposureEP21ChiFeature2PortIdListRNSt3__16vectorI21ChiFeature2IdentifierNS2_9allocatorIS4_EEEE+0x2114>
<_ZNK24ChiFeature2MCReprocessRT26FilterPortsBasedOnExposureEP21ChiFeature2PortIdListRNSt3__16vectorI21ChiFeature2IdentifierNS2_9allocatorIS4_EEEE+0x2114>
0x2e964 <_ZNK24ChiFeature2MCReprocessRT26FilterPortsBasedOnExposureEP21ChiFeature2PortIdListRNSt3__16vectorI21ChiFeature2IdentifierNS2_9allocatorIS4_EEEE+0x223c>
<_ZNK24ChiFeature2MCReprocessRT26FilterPortsBasedOnExposureEP21ChiFeature2PortIdListRNSt3__16vectorI21ChiFeature2IdentifierNS2_9allocatorIS4_EEEE+0x21bc>
<_ZNK24ChiFeature2MCReprocessRT26FilterPortsBasedOnExposureEP21ChiFeature2PortIdListRNSt3__16vectorI21ChiFeature2IdentifierNS2_9allocatorIS4_EEEE+0x213c>
0x2e964 <_ZNK24ChiFeature2MCReprocessRT26FilterPortsBasedOnExposureEP21ChiFeature2PortIdListRNSt3__16vectorI21ChiFeature2IdentifierNS2_9allocatorIS4_EEEE+0x223c>
<_ZNK24ChiFeature2MCReprocessRT26FilterPortsBasedOnExposureEP21ChiFeature2PortIdListRNSt3__16vectorI21ChiFeature2IdentifierNS2_9allocatorIS4_EEEE+0x2130>
0x2e8c8 <_ZNK24ChiFeature2MCReprocessRT26FilterPortsBasedOnExposureEP21ChiFeature2PortIdListRNSt3__16vectorI21ChiFeature2IdentifierNS2_9allocatorIS4_EEEE+0x21a0>
0x2e8a0 <_ZNK24ChiFeature2MCReprocessRT26FilterPortsBasedOnExposureEP21ChiFeature2PortIdListRNSt3__16vectorI21ChiFeature2IdentifierNS2_9allocatorIS4_EEEE+0x2178>
<_ZNK24ChiFeature2MCReprocessRT26FilterPortsBasedOnExposureEP21ChiFeature2PortIdListRNSt3__16vectorI21ChiFeature2IdentifierNS2_9allocatorIS4_EEEE+0x215c>
<_ZNK24ChiFeature2MCReprocessRT26FilterPortsBasedOnExposureEP21ChiFeature2PortIdListRNSt3__16vectorI21ChiFeature2IdentifierNS2_9allocatorIS4_EEEE+0x2134>
<_ZNK24ChiFeature2MCReprocessRT26FilterPortsBasedOnExposureEP21ChiFeature2PortIdListRNSt3__16vectorI21ChiFeature2IdentifierNS2_9allocatorIS4_EEEE+0x2134>
0x2e964 <_ZNK24ChiFeature2MCReprocessRT26FilterPortsBasedOnExposureEP21ChiFeature2PortIdListRNSt3__16vectorI21ChiFeature2IdentifierNS2_9allocatorIS4_EEEE+0x223c>
<_ZNK24ChiFeature2MCReprocessRT26FilterPortsBasedOnExposureEP21ChiFeature2PortIdListRNSt3__16vectorI21ChiFeature2IdentifierNS2_9allocatorIS4_EEEE+0x21d0>
<_ZNK24ChiFeature2MCReprocessRT26FilterPortsBasedOnExposureEP21ChiFeature2PortIdListRNSt3__16vectorI21ChiFeature2IdentifierNS2_9allocatorIS4_EEEE+0x21b0>
0x2e954 <_ZNK24ChiFeature2MCReprocessRT26FilterPortsBasedOnExposureEP21ChiFeature2PortIdListRNSt3__16vectorI21ChiFeature2IdentifierNS2_9allocatorIS4_EEEE+0x222c>
0x2e92c <_ZNK24ChiFeature2MCReprocessRT26FilterPortsBasedOnExposureEP21ChiFeature2PortIdListRNSt3__16vectorI21ChiFeature2IdentifierNS2_9allocatorIS4_EEEE+0x2204>
<_ZNK24ChiFeature2MCReprocessRT26FilterPortsBasedOnExposureEP21ChiFeature2PortIdListRNSt3__16vectorI21ChiFeature2IdentifierNS2_9allocatorIS4_EEEE+0x21e8>
<_ZNK24ChiFeature2MCReprocessRT26FilterPortsBasedOnExposureEP21ChiFeature2PortIdListRNSt3__16vectorI21ChiFeature2IdentifierNS2_9allocatorIS4_EEEE+0x21b4>
<_ZNK24ChiFeature2MCReprocessRT26FilterPortsBasedOnExposureEP21ChiFeature2PortIdListRNSt3__16vectorI21ChiFeature2IdentifierNS2_9allocatorIS4_EEEE+0x21b4>
<_ZNK24ChiFeature2MCReprocessRT26FilterPortsBasedOnExposureEP21ChiFeature2PortIdListRNSt3__16vectorI21ChiFeature2IdentifierNS2_9allocatorIS4_EEEE+0x225c>
0x2e7f8 <_ZNK24ChiFeature2MCReprocessRT26FilterPortsBasedOnExposureEP21ChiFeature2PortIdListRNSt3__16vectorI21ChiFeature2IdentifierNS2_9allocatorIS4_EEEE+0x20d0>
<_ZNK24ChiFeature2MCReprocessRT26FilterPortsBasedOnExposureEP21ChiFeature2PortIdListRNSt3__16vectorI21ChiFeature2IdentifierNS2_9allocatorIS4_EEEE+0x22a0>
<_ZNK24ChiFeature2MCReprocessRT26FilterPortsBasedOnExposureEP21ChiFeature2PortIdListRNSt3__16vectorI21ChiFeature2IdentifierNS2_9allocatorIS4_EEEE+0x20d0>
#2, 0x2e9e0 <_ZNK24ChiFeature2MCReprocessRT26FilterPortsBasedOnExposureEP21ChiFeature2PortIdListRNSt3__16vectorI21ChiFeature2IdentifierNS2_9allocatorIS4_EEEE+0x22b8>
<_ZNK24ChiFeature2MCReprocessRT26FilterPortsBasedOnExposureEP21ChiFeature2PortIdListRNSt3__16vectorI21ChiFeature2IdentifierNS2_9allocatorIS4_EEEE+0x20d0>
#1, 0x2e9f8 <_ZNK24ChiFeature2MCReprocessRT26FilterPortsBasedOnExposureEP21ChiFeature2PortIdListRNSt3__16vectorI21ChiFeature2IdentifierNS2_9allocatorIS4_EEEE+0x22d0>
<_ZNK24ChiFeature2MCReprocessRT26FilterPortsBasedOnExposureEP21ChiFeature2PortIdListRNSt3__16vectorI21ChiFeature2IdentifierNS2_9allocatorIS4_EEEE+0x20d0>
<_ZNK24ChiFeature2MCReprocessRT26FilterPortsBasedOnExposureEP21ChiFeature2PortIdListRNSt3__16vectorI21ChiFeature2IdentifierNS2_9allocatorIS4_EEEE+0x20d0>

0x3052c <_ZN5Mutex10InitializeEv+0x3c>
<_ZN5Mutex10InitializeEv+0x74>
0x3055c <_ZN5Mutex10InitializeEv+0x6c>
0x3055c <_ZN5Mutex10InitializeEv+0x6c>
<_ZN5Mutex10InitializeEv+0x9c>

<_ZN5Mutex7DestroyEv+0x24>




0x30668 <_ZN5Mutex15GetNativeHandleEv+0x68>
0x30660 <_ZN5Mutex15GetNativeHandleEv+0x60>
<_ZN5Mutex15GetNativeHandleEv+0x68>

0x306a4 <_ZN9Condition10InitializeEv+0x2c>

<_ZN9Condition7DestroyEv+0x24>


<_ZN9Condition9TimedWaitEP15pthread_mutex_tj+0xf4>
<_ZN9Condition9TimedWaitEP15pthread_mutex_tj+0xf4>
<_ZN9Condition9TimedWaitEP15pthread_mutex_tj+0xf8>


0x3084c <_ZN9Condition9BroadcastEv+0x3c>


<_ZNSt3__15mutex4lockEv@plt>
<_ZN9Semaphore16NotifyAllThreadsEv+0xf0>
<_ZN9Semaphore16NotifyAllThreadsEv+0xd8>
0x45000 <_ZN9Semaphore16NotifyAllThreadsEv+0x84>
#1, 0x30940 <_ZN9Semaphore16NotifyAllThreadsEv+0xd8>
0x45000 <_ZN9Semaphore16NotifyAllThreadsEv+0x94>
0xe000 <_ZN9Condition9BroadcastEv+0x14>
<_ZN9Semaphore16NotifyAllThreadsEv+0x98>
0x11000 <_ZN9Semaphore10InitializeEi+0x4>
0xe000 <_ZN9Condition9BroadcastEv+0x44>
0xb000 <_ZN9Condition9BroadcastEv+0x3c>
0xc000 <_ZN9Semaphore16NotifyAllThreadsEv+0x1c>
0xf000 <_ZN9Semaphore16NotifyAllThreadsEv+0x30>
0xb000 <_ZN9Semaphore16NotifyAllThreadsEv+0x24>
0xb000 <_ZN9Semaphore16NotifyAllThreadsEv+0x28>
<_ZN6ChiLog9LogSystemEPKcS1_S1_S1_iS1_z@plt>
<_ZNSt3__118condition_variable10notify_allEv@plt>
<_ZNSt3__15mutex6unlockEv@plt>

<_ZNSt3__15mutex4lockEv@plt>
0x45000 <_ZN9Semaphore5ResetEv+0x68>
#3, 0x30a24 <_ZN9Semaphore5ResetEv+0xc4>
0x45000 <_ZN9Semaphore5ResetEv+0x80>
0xe000 <_ZN9Semaphore16NotifyAllThreadsEv+0xa0>
<_ZN9Semaphore5ResetEv+0x84>
0x11000 <_ZN9Semaphore16NotifyAllThreadsEv+0xd8>
0xd000 <_ZN9Semaphore16NotifyAllThreadsEv+0xcc>
0x10000 <_ZN9Semaphore16NotifyAllThreadsEv+0xdc>
0xe000 <_ZN9Semaphore5ResetEv+0x10>
0x11000 <_ZN9Semaphore5ResetEv+0x24>
0x10000 <_ZN9Semaphore5ResetEv+0x24>
0xc000 <_ZN9Semaphore5ResetEv+0x18>
<_ZN6ChiLog9LogSystemEPKcS1_S1_S1_iS1_z@plt>
<_ZNSt3__118condition_variable10notify_allEv@plt>
<_ZNSt3__15mutex6unlockEv@plt>

<_ZNSt3__15mutex4lockEv@plt>
0x30a94 <_ZN9Semaphore16WaitForSemaphoreEv+0x54>
<_ZN9Semaphore16WaitForSemaphoreEv+0x250>
0x11000 <_ZN9Semaphore5ResetEv+0xb8>
0x11000 <_ZN9Semaphore5ResetEv+0xbc>
0x45000 <_ZN9Semaphore16WaitForSemaphoreEv+0xb4>
0xe000 <_ZN9Semaphore5ResetEv+0xc0>
0xc000 <_ZN9Semaphore5ResetEv+0xc4>
<_ZN9Semaphore16WaitForSemaphoreEv+0xe8>
0xe000 <_ZN9Semaphore16WaitForSemaphoreEv+0x30>
0x11000 <_ZN9Semaphore16WaitForSemaphoreEv+0x44>
0xe000 <_ZN9Semaphore16WaitForSemaphoreEv+0x3c>
<_ZN6ChiLog9LogSystemEPKcS1_S1_S1_iS1_z@plt>
0x30c78 <_ZN9Semaphore16WaitForSemaphoreEv+0x238>
<_ZNSt3__16chrono12steady_clock3nowEv@plt>
<_ZNSt3__16chrono12system_clock3nowEv@plt>
<_ZN9Semaphore16WaitForSemaphoreEv+0x130>
<_ZN9Semaphore16WaitForSemaphoreEv+0x28c>
<_ZN9Semaphore16WaitForSemaphoreEv+0x134>
<_ZN9Semaphore16WaitForSemaphoreEv+0x290>
<_ZNSt3__118condition_variable15__do_timed_waitERNS_11unique_lockINS_5mutexEEENS_6chrono10time_pointINS5_12system_clockENS5_8durationIxNS_5ratioILl1ELl1000000000EEEEEEE@plt>
<_ZNSt3__16chrono12steady_clock3nowEv@plt>
<_ZN9Semaphore16WaitForSemaphoreEv+0x288>
<_ZN9Semaphore16WaitForSemaphoreEv+0x1ac>
#3, 0x30b20 <_ZN9Semaphore16WaitForSemaphoreEv+0xe0>
0x45000 <_ZN9Semaphore16WaitForSemaphoreEv+0x1b0>
<_ZN9Semaphore16WaitForSemaphoreEv+0xa4>
0x11000 <_ZN9Semaphore16WaitForSemaphoreEv+0x108>
0xf000 <_ZN9Semaphore16WaitForSemaphoreEv+0x104>
<_ZN9Semaphore16WaitForSemaphoreEv+0xa4>
#0, 0x30b20 <_ZN9Semaphore16WaitForSemaphoreEv+0xe0>
0x45000 <_ZN9Semaphore16WaitForSemaphoreEv+0x204>
<_ZN9Semaphore16WaitForSemaphoreEv+0x1fc>
0x11000 <_ZN9Semaphore16WaitForSemaphoreEv+0x15c>
0x10000 <_ZN9Semaphore16WaitForSemaphoreEv+0x15c>
0x11000 <_ZN9Semaphore16WaitForSemaphoreEv+0x194>
0xb000 <_ZN9Semaphore16WaitForSemaphoreEv+0x184>
0x10000 <_ZN9Semaphore16WaitForSemaphoreEv+0x19c>
<_ZN9Semaphore16WaitForSemaphoreEv+0xdc>
0x30c98 <_ZN9Semaphore16WaitForSemaphoreEv+0x258>
<_ZNSt3__15mutex6unlockEv@plt>
<_ZN9Semaphore16WaitForSemaphoreEv+0x294>

0x30d0c <_ZN9Semaphore7DestroyEv+0x34>
<_ZNSt3__118condition_variableD1Ev@plt>
<_ZNSt3__15mutexD1Ev@plt>
0x30d34 <_ZN9Semaphore7DestroyEv+0x5c>
<_ZN9Semaphore7DestroyEv+0x64>
<_ZN9Semaphore7DestroyEv+0x68>
<_ZN9Semaphore7DestroyEv+0xc8>
0x30d8c <_ZN9Semaphore7DestroyEv+0xb4>
<_ZN9Semaphore7DestroyEv+0xd0>
<_ZN9Semaphore7DestroyEv+0xd4>
<_ZN9Semaphore7DestroyEv+0x14c>
0x30de0 <_ZN9Semaphore7DestroyEv+0x108>
<_ZN9Semaphore7DestroyEv+0x15c>
<_ZN9Semaphore7DestroyEv+0x160>
0x30e08 <_ZN9Semaphore7DestroyEv+0x130>
<_ZN9Semaphore7DestroyEv+0x15c>
<_ZN9Semaphore7DestroyEv+0x160>
0x11000 <_ZN9Semaphore7DestroyEv+0xf8>
<_ZN9Semaphore7DestroyEv+0x25c>
0x30fc8 <_ZN9Semaphore7DestroyEv+0x2f0>
0x30fc8 <_ZN9Semaphore7DestroyEv+0x2f0>
0x3102c <_ZN9Semaphore7DestroyEv+0x354>
0x310b4 <_ZN9Semaphore7DestroyEv+0x3dc>
0x310d0 <_ZN9Semaphore7DestroyEv+0x3f8>
0x310e8 <_ZN9Semaphore7DestroyEv+0x410>
0x31100 <_ZN9Semaphore7DestroyEv+0x428>
0x45000 <_ZN9Semaphore7DestroyEv+0x49c>
#6, 0x311d8 <_ZN9Semaphore7DestroyEv+0x500>
0x45000 <_ZN9Semaphore7DestroyEv+0x4b0>
0xe000 <_ZN9Semaphore7DestroyEv+0x3d8>
<_ZN9Semaphore7DestroyEv+0x4bc>
0x11000 <_ZN9Semaphore7DestroyEv+0x410>
0xf000 <_ZN9Semaphore7DestroyEv+0x40c>
0xc000 <_ZN9Semaphore7DestroyEv+0x404>
0xc000 <_ZN9Semaphore7DestroyEv+0x43c>
0x10000 <_ZN9Semaphore7DestroyEv+0x454>
0xc000 <_ZN9Semaphore7DestroyEv+0x448>
0xd000 <_ZN9Semaphore7DestroyEv+0x450>
<_ZN6ChiLog9LogSystemEPKcS1_S1_S1_iS1_z@plt>
0x311f0 <_ZN9Semaphore7DestroyEv+0x518>
0x312e4 <_ZN9Semaphore7DestroyEv+0x60c>
0x45000 <_ZN9Semaphore7DestroyEv+0x594>
#1, 0x312e4 <_ZN9Semaphore7DestroyEv+0x60c>
0x45000 <_ZN9Semaphore7DestroyEv+0x5a4>
0xe000 <_ZN9Semaphore7DestroyEv+0x4cc>
<_ZN9Semaphore7DestroyEv+0x5bc>
0x11000 <_ZN9Semaphore7DestroyEv+0x50c>
0xf000 <_ZN9Semaphore7DestroyEv+0x508>
0xe000 <_ZN9Semaphore7DestroyEv+0x508>
0xf000 <_ZN9Semaphore7DestroyEv+0x554>
0xc000 <_ZN9Semaphore7DestroyEv+0x54c>
0xe000 <_ZN9Semaphore7DestroyEv+0x558>
0xf000 <_ZN9Semaphore7DestroyEv+0x560>
<_ZN6ChiLog9LogSystemEPKcS1_S1_S1_iS1_z@plt>
<_ZN15ExtensionModule11GetInstanceEv@plt>
<_ZN9Semaphore7DestroyEv+0x6a0>
<_ZN9Semaphore7DestroyEv+0x6a4>
0x31488 <_ZN9Semaphore7DestroyEv+0x7b0>
<_ZN9Semaphore7DestroyEv+0x7b0>
0x45000 <_ZN9Semaphore7DestroyEv+0x748>
#6, 0x31480 <_ZN9Semaphore7DestroyEv+0x7a8>
0x45000 <_ZN9Semaphore7DestroyEv+0x758>
0xe000 <_ZN9Semaphore7DestroyEv+0x680>
<_ZN9Semaphore7DestroyEv+0x764>
0x11000 <_ZN9Semaphore7DestroyEv+0x6b8>
0x10000 <_ZN9Semaphore7DestroyEv+0x6b8>
0x10000 <_ZN9Semaphore7DestroyEv+0x6bc>
0xc000 <_ZN9Semaphore7DestroyEv+0x6e4>
0x10000 <_ZN9Semaphore7DestroyEv+0x6fc>
0x10000 <_ZN9Semaphore7DestroyEv+0x700>
0x10000 <_ZN9Semaphore7DestroyEv+0x704>
<_ZN6ChiLog9LogSystemEPKcS1_S1_S1_iS1_z@plt>
<_ZN9Semaphore7DestroyEv+0x7b4>
<_ZN9Semaphore7DestroyEv+0x7d8>
<_ZN15ExtensionModule11GetInstanceEv@plt>
<_ZN9Semaphore7DestroyEv+0x86c>
0x31520 <_ZN9Semaphore7DestroyEv+0x848>
<_ZN9Semaphore7DestroyEv+0x870>
<_ZN15ExtensionModule11GetInstanceEv@plt>
<_ZN9Semaphore7DestroyEv+0x940>
0x315d0 <_ZN9Semaphore7DestroyEv+0x8f8>
<_ZN9Semaphore7DestroyEv+0x918>
<_ZN9Semaphore7DestroyEv+0x944>
0x31770 <_ZN9Semaphore7DestroyEv+0xa98>
0x31770 <_ZN9Semaphore7DestroyEv+0xa98>
0x45000 <_ZN9Semaphore7DestroyEv+0x9e0>
<_ZN9Semaphore7DestroyEv+0xa94>
0x316e0 <_ZN9Semaphore7DestroyEv+0xa08>
0x31770 <_ZN9Semaphore7DestroyEv+0xa98>
<_ZN9Semaphore7DestroyEv+0x9a4>
<_ZN9Semaphore7DestroyEv+0xac8>
0x3173c <_ZN9Semaphore7DestroyEv+0xa64>
<_ZN9Semaphore7DestroyEv+0xacc>
<_ZN9Semaphore7DestroyEv+0xad0>
0x31750 <_ZN9Semaphore7DestroyEv+0xa78>
<_ZN9Semaphore7DestroyEv+0xa78>
<_ZN9Semaphore7DestroyEv+0xa78>
<_ZN9Semaphore7DestroyEv+0x9f0>
0x316c8 <_ZN9Semaphore7DestroyEv+0x9f0>
<_ZN9Semaphore7DestroyEv+0x9e0>
<_ZN9Semaphore7DestroyEv+0x9f0>
<_ZN9Semaphore7DestroyEv+0xad4>
0x317b8 <_ZN9Semaphore7DestroyEv+0xae0>
0x45000 <_ZN9Semaphore7DestroyEv+0xb80>
#6, 0x318cc <_ZN9Semaphore7DestroyEv+0xbf4>
0x45000 <_ZN9Semaphore7DestroyEv+0xb94>
0xe000 <_ZN9Semaphore7DestroyEv+0xabc>
<_ZN9Semaphore7DestroyEv+0xba8>
0x11000 <_ZN9Semaphore7DestroyEv+0xaf4>
0x10000 <_ZN9Semaphore7DestroyEv+0xaf4>
0xc000 <_ZN9Semaphore7DestroyEv+0xae8>
0xc000 <_ZN9Semaphore7DestroyEv+0xb28>
0x10000 <_ZN9Semaphore7DestroyEv+0xb40>
0xc000 <_ZN9Semaphore7DestroyEv+0xb34>
0xf000 <_ZN9Semaphore7DestroyEv+0xb44>
<_ZN6ChiLog9LogSystemEPKcS1_S1_S1_iS1_z@plt>
0x31980 <_ZN9Semaphore7DestroyEv+0xca8>
<_ZN9Semaphore7DestroyEv+0xcc0>
<_ZN9Semaphore7DestroyEv+0xcc0>
0x31970 <_ZN9Semaphore7DestroyEv+0xc98>
0x31970 <_ZN9Semaphore7DestroyEv+0xc98>
<_ZN9Semaphore7DestroyEv+0xcac>
<_ZN15ExtensionModule11GetInstanceEv@plt>
0x31a18 <_ZN9Semaphore7DestroyEv+0xd40>
<_ZN9Semaphore7DestroyEv+0xd4c>
0x45000 <_ZN9Semaphore7DestroyEv+0xd9c>
#6, 0x31ad4 <_ZN9Semaphore7DestroyEv+0xdfc>
0x45000 <_ZN9Semaphore7DestroyEv+0xdac>
0xe000 <_ZN9Semaphore7DestroyEv+0xcd4>
<_ZN9Semaphore7DestroyEv+0xdb8>
0x11000 <_ZN9Semaphore7DestroyEv+0xd0c>
0x11000 <_ZN9Semaphore7DestroyEv+0xd10>
0xe000 <_ZN9Semaphore7DestroyEv+0xd08>
0xc000 <_ZN9Semaphore7DestroyEv+0xd38>
0x10000 <_ZN9Semaphore7DestroyEv+0xd50>
0xe000 <_ZN9Semaphore7DestroyEv+0xd4c>
0xc000 <_ZN9Semaphore7DestroyEv+0xd48>
<_ZN6ChiLog9LogSystemEPKcS1_S1_S1_iS1_z@plt>
<_ZN9Semaphore7DestroyEv+0xe24>
<_ZN15ExtensionModule11GetInstanceEv@plt>
0x31b48 <_ZN9Semaphore7DestroyEv+0xe70>
<_ZN9Semaphore7DestroyEv+0xe78>
<_ZN9Semaphore7DestroyEv+0xe98>
<_ZN9Semaphore7DestroyEv+0xeb8>
<_ZN15ExtensionModule11GetInstanceEv@plt>
<_ZN9Semaphore7DestroyEv+0xfa8>
<_ZN15ExtensionModule11GetInstanceEv@plt>
<_ZN9Semaphore7DestroyEv+0xf38>
0x31c10 <_ZN9Semaphore7DestroyEv+0xf38>
0x31c64 <_ZN9Semaphore7DestroyEv+0xf8c>
<_ZN9Semaphore7DestroyEv+0xf64>
<_ZN9Semaphore7DestroyEv+0xf7c>
<_ZN15ExtensionModule11GetInstanceEv@plt>
<_ZN15ExtensionModule18GetBufferAllocatorEP9ChiStreamPPv@plt>
<_ZN9Semaphore7DestroyEv+0xf40>
0x31e08 <_ZN9Semaphore7DestroyEv+0x1130>
<_ZN9Semaphore7DestroyEv+0xfe8>
0x31e08 <_ZN9Semaphore7DestroyEv+0x1130>
<_ZN9Semaphore7DestroyEv+0xfe0>
<_ZN9Semaphore7DestroyEv+0x1000>
<_ZN9Semaphore7DestroyEv+0xfe0>
<_ZN9Semaphore7DestroyEv+0x1020>
0x31d14 <_ZN9Semaphore7DestroyEv+0x103c>
<_ZN9Semaphore7DestroyEv+0x1010>
<_ZN9Semaphore7DestroyEv+0x103c>
0x31cf4 <_ZN9Semaphore7DestroyEv+0x101c>
0x31d64 <_ZN9Semaphore7DestroyEv+0x108c>
0x31e08 <_ZN9Semaphore7DestroyEv+0x1130>
0x31d9c <_ZN9Semaphore7DestroyEv+0x10c4>
<_ZN9Semaphore7DestroyEv+0x1074>
0x31e24 <_ZN9Semaphore7DestroyEv+0x114c>
<_ZN9Semaphore7DestroyEv+0x1054>
<_ZN9Semaphore7DestroyEv+0x10cc>
0x31da4 <_ZN9Semaphore7DestroyEv+0x10cc>
<_ZN9Semaphore7DestroyEv+0x1054>
0x31de4 <_ZN9Semaphore7DestroyEv+0x110c>
<_ZN9Semaphore7DestroyEv+0x1110>
0x31e50 <_ZN9Semaphore7DestroyEv+0x1178>
0x31e34 <_ZN9Semaphore7DestroyEv+0x115c>
<_ZN9Semaphore7DestroyEv+0x1160>
<_ZN24ChiFeature2MCReprocessRT35GetMappedInputPortIndexByTargetNameEPKcPKN15ChiFeature2Base22ChiFeaturePipelineDataERNSt3__13mapIS1_NS6_13unordered_mapIjNS6_3setIjNS6_4lessIjEENS6_9allocatorIjEEEENS6_4hashIjEENS6_8equal_toIjEENSC_INS6_4pairIKjSE_EEEEEE21ChiNameLessComparatorNSC_INSJ_IKS1_SN_EEEEEE+0x7d0>
<_ZN9Semaphore7DestroyEv+0x1184>
0x31d24 <_ZN9Semaphore7DestroyEv+0x104c>
0x31e50 <_ZN9Semaphore7DestroyEv+0x1178>
<_ZN9Semaphore7DestroyEv+0x10d4>
<_ZN24ChiFeature2MCReprocessRT35GetMappedInputPortIndexByTargetNameEPKcPKN15ChiFeature2Base22ChiFeaturePipelineDataERNSt3__13mapIS1_NS6_13unordered_mapIjNS6_3setIjNS6_4lessIjEENS6_9allocatorIjEEEENS6_4hashIjEENS6_8equal_toIjEENSC_INS6_4pairIKjSE_EEEEEE21ChiNameLessComparatorNSC_INSJ_IKS1_SN_EEEEEE+0x7d0>
<_ZN9Semaphore7DestroyEv+0x1184>
<_ZN9Semaphore7DestroyEv+0x1134>
<_ZN9Semaphore7DestroyEv+0x123c>
<_ZN9Semaphore7DestroyEv+0x11cc>
<_ZN15ExtensionModule11GetInstanceEv@plt>
<_ZN9Semaphore7DestroyEv+0xfa8>
0x31fec <_ZN9Semaphore7DestroyEv+0x1314>
<_ZN9Semaphore7DestroyEv+0x1210>
<_ZN9Semaphore7DestroyEv+0x1210>
<_ZN9Semaphore7DestroyEv+0x1210>
<_ZN9Semaphore7DestroyEv+0x124c>
<_ZN9Semaphore7DestroyEv+0x124c>
<_ZN9Semaphore7DestroyEv+0x124c>
<_ZN9Semaphore7DestroyEv+0x124c>
