   16544: 08 97 0a 98  	ldrsw	x8, 0x2b824 <_ZNK23ChiFeature2HWmultiframe31OnPopulateConfigurationSettingsEP24ChiFeature2RequestObjectPK21ChiFeature2IdentifierP11ChiMetadata+0x23fc>
   1654c: 10 9b 12 9c  	ldr	q16, 0x3b8ac <_ZN9Semaphore7DestroyEv+0x4b14>
   16574: 08 97 0a 98  	ldrsw	x8, 0x2b854 <_ZNK23ChiFeature2HWmultiframe31OnPopulateConfigurationSettingsEP24ChiFeature2RequestObjectPK21ChiFeature2IdentifierP11ChiMetadata+0x242c>
   1657c: 10 9b 12 9c  	ldr	q16, 0x3b8dc <_ZN9Semaphore7DestroyEv+0x4b44>
   165a4: 08 97 0a 98  	ldrsw	x8, 0x2b884 <_ZNK23ChiFeature2HWmultiframe31OnPopulateConfigurationSettingsEP24ChiFeature2RequestObjectPK21ChiFeature2IdentifierP11ChiMetadata+0x245c>
   165ac: 10 9b 12 9c  	ldr	q16, 0x3b90c <_ZN9Semaphore7DestroyEv+0x4b74>
   165d4: 08 97 0a 98  	ldrsw	x8, 0x2b8b4 <_ZNK23ChiFeature2HWmultiframe31OnPopulateConfigurationSettingsEP24ChiFeature2RequestObjectPK21ChiFeature2IdentifierP11ChiMetadata+0x248c>
   165dc: 10 9b 12 9c  	ldr	q16, 0x3b93c <_ZN9Semaphore7DestroyEv+0x4ba4>
   16604: 08 97 0a 98  	ldrsw	x8, 0x2b8e4 <_ZNK23ChiFeature2HWmultiframe31OnPopulateConfigurationSettingsEP24ChiFeature2RequestObjectPK21ChiFeature2IdentifierP11ChiMetadata+0x24bc>
   1660c: 10 9b 12 9c  	ldr	q16, 0x3b96c <_ZN9Semaphore7DestroyEv+0x4bd4>
   16634: 08 97 0a 98  	ldrsw	x8, 0x2b914 <_ZNK23ChiFeature2HWmultiframe31OnPopulateConfigurationSettingsEP24ChiFeature2RequestObjectPK21ChiFeature2IdentifierP11ChiMetadata+0x24ec>
   1663c: 10 9b 12 9c  	ldr	q16, 0x3b99c <_ZN9Semaphore7DestroyEv+0x4c04>
   16664: 08 97 0a 98  	ldrsw	x8, 0x2b944 <_ZNK23ChiFeature2HWmultiframe27GetPrivateContextForRequestEP24ChiFeature2RequestObject+0x1c>
   166bc: 08 97 0a 98  	ldrsw	x8, 0x2b99c <_ZNK23ChiFeature2HWmultiframe27GetPrivateContextForRequestEP24ChiFeature2RequestObject+0x74>
   16704: 08 97 0a 98  	ldrsw	x8, 0x2b9e4 <_ZNK23ChiFeature2HWmultiframe27GetPrivateContextForRequestEP24ChiFeature2RequestObject+0xbc>
   1670c: 10 9b 12 9c  	ldr	q16, 0x3ba6c <_ZN9Semaphore7DestroyEv+0x4cd4>
   16774: 08 97 0a 98  	ldrsw	x8, 0x2ba54 <_ZNK23ChiFeature2HWmultiframe27GetPrivateContextForRequestEP24ChiFeature2RequestObject+0x12c>
   1677c: 10 9b 12 9c  	ldr	q16, 0x3badc <_ZN9Semaphore7DestroyEv+0x4d44>
   167e4: 08 97 0a 98  	ldrsw	x8, 0x2bac4 <_ZNK23ChiFeature2HWmultiframe27GetPrivateContextForRequestEP24ChiFeature2RequestObject+0x19c>
   167ec: 10 9b 12 9c  	ldr	q16, 0x3bb4c <_ZN9Semaphore7DestroyEv+0x4db4>
   16834: 08 97 0a 98  	ldrsw	x8, 0x2bb14 <_ZNK23ChiFeature2HWmultiframe27GetPrivateContextForRequestEP24ChiFeature2RequestObject+0x1ec>
   16884: 08 97 0a 98  	ldrsw	x8, 0x2bb64 <_ZNK23ChiFeature2HWmultiframe27GetPrivateContextForRequestEP24ChiFeature2RequestObject+0x23c>
   1688c: 10 9b 12 9c  	ldr	q16, 0x3bbec <_ZN9Semaphore7DestroyEv+0x4e54>
   169e4: 08 97 0a 98  	ldrsw	x8, 0x2bcc4 <_ZNK23ChiFeature2HWmultiframe27GetPrivateContextForRequestEP24ChiFeature2RequestObject+0x39c>
   169ec: 10 9b 12 9c  	ldr	q16, 0x3bd4c <_ZN9Semaphore7DestroyEv+0x4fb4>
   16abc: 08 97 0a 98  	ldrsw	x8, 0x2bd9c <_ZNK23ChiFeature2HWmultiframe25IsRDIRequiredInPostFilterEPKN15ChiFeature2Base22ChiFeaturePipelineDataEi+0x14>
   16b0c: 08 97 0a 98  	ldrsw	x8, 0x2bdec <_ZNK23ChiFeature2HWmultiframe25IsRDIRequiredInPostFilterEPKN15ChiFeature2Base22ChiFeaturePipelineDataEi+0x64>
   16b14: 10 9b 12 9c  	ldr	q16, 0x3be74 <_ZN9Semaphore7DestroyEv+0x50dc>
   16b3c: 08 97 0a 98  	ldrsw	x8, 0x2be1c <_ZNK23ChiFeature2HWmultiframe25IsRDIRequiredInPostFilterEPKN15ChiFeature2Base22ChiFeaturePipelineDataEi+0x94>
   16b44: 10 9b 12 9c  	ldr	q16, 0x3bea4 <_ZN9Semaphore7DestroyEv+0x510c>
   16b6c: 08 97 0a 98  	ldrsw	x8, 0x2be4c <_ZNK23ChiFeature2HWmultiframe25IsRDIRequiredInPostFilterEPKN15ChiFeature2Base22ChiFeaturePipelineDataEi+0xc4>
   16b74: 10 9b 12 9c  	ldr	q16, 0x3bed4 <_ZN9Semaphore7DestroyEv+0x513c>
   16b9c: 08 97 0a 98  	ldrsw	x8, 0x2be7c <_ZNK23ChiFeature2HWmultiframe25IsRDIRequiredInPostFilterEPKN15ChiFeature2Base22ChiFeaturePipelineDataEi+0xf4>
   16ba4: 10 9b 12 9c  	ldr	q16, 0x3bf04 <_ZN9Semaphore7DestroyEv+0x516c>
   16bcc: 08 97 0a 98  	ldrsw	x8, 0x2beac <_ZNK23ChiFeature2HWmultiframe25IsRDIRequiredInPostFilterEPKN15ChiFeature2Base22ChiFeaturePipelineDataEi+0x124>
   16c14: 08 97 0a 98  	ldrsw	x8, 0x2bef4 <_ZNK23ChiFeature2HWmultiframe25IsRDIRequiredInPostFilterEPKN15ChiFeature2Base22ChiFeaturePipelineDataEi+0x16c>
   16c3c: 08 97 0a 98  	ldrsw	x8, 0x2bf1c <_ZNK23ChiFeature2HWmultiframe25IsRDIRequiredInPostFilterEPKN15ChiFeature2Base22ChiFeaturePipelineDataEi+0x194>
   16c64: 08 97 0a 98  	ldrsw	x8, 0x2bf44 <_ZNK23ChiFeature2HWmultiframe25IsRDIRequiredInPostFilterEPKN15ChiFeature2Base22ChiFeaturePipelineDataEi+0x1bc>
   16c6c: 10 9b 12 9c  	ldr	q16, 0x3bfcc <_ZN9Semaphore7DestroyEv+0x5234>
   16c94: 08 97 0a 98  	ldrsw	x8, 0x2bf74 <_ZNK23ChiFeature2HWmultiframe25IsRDIRequiredInPostFilterEPKN15ChiFeature2Base22ChiFeaturePipelineDataEi+0x1ec>
   16c9c: 10 9b 12 9c  	ldr	q16, 0x3bffc <_ZN9Semaphore7DestroyEv+0x5264>
   16e1c: 08 97 0a 98  	ldrsw	x8, 0x2c0fc <_ZNK23ChiFeature2HWmultiframe25IsRDIRequiredInPostFilterEPKN15ChiFeature2Base22ChiFeaturePipelineDataEi+0x374>
   16f34: 08 97 0a 98  	ldrsw	x8, 0x2c214 <_ZNK23ChiFeature2HWmultiframe25IsRDIRequiredInPostFilterEPKN15ChiFeature2Base22ChiFeaturePipelineDataEi+0x48c>
   171ac: 08 97 0a 98  	ldrsw	x8, 0x2c48c <_ZNK23ChiFeature2HWmultiframe25IsRDIRequiredInPostFilterEPKN15ChiFeature2Base22ChiFeaturePipelineDataEi+0x704>
   171b4: 10 9b 12 9c  	ldr	q16, 0x3c514 <_ZN9Semaphore7DestroyEv+0x577c>
   175cc: 08 97 0a 98  	ldrsw	x8, 0x2c8ac <_ZNK23ChiFeature2HWmultiframe25IsRDIRequiredInPostFilterEPKN15ChiFeature2Base22ChiFeaturePipelineDataEi+0xb24>
   175d4: 10 9b 12 9c  	ldr	q16, 0x3c934 <_ZN9Semaphore7DestroyEv+0x5b9c>
   17614: 08 97 0a 98  	ldrsw	x8, 0x2c8f4 <_ZNK23ChiFeature2HWmultiframe25IsRDIRequiredInPostFilterEPKN15ChiFeature2Base22ChiFeaturePipelineDataEi+0xb6c>
   1770c: 08 97 0a 98  	ldrsw	x8, 0x2c9ec <_ZNK23ChiFeature2HWmultiframe25IsRDIRequiredInPostFilterEPKN15ChiFeature2Base22ChiFeaturePipelineDataEi+0xc64>
   179cc: 08 97 0a 98  	ldrsw	x8, 0x2ccac <_ZNK23ChiFeature2HWmultiframe22PrepareAllDependenciesEP24ChiFeature2RequestObject+0x74>
   179fc: 08 97 0a 98  	ldrsw	x8, 0x2ccdc <_ZNK23ChiFeature2HWmultiframe22PrepareAllDependenciesEP24ChiFeature2RequestObject+0xa4>
   17ad4: 08 97 0a 98  	ldrsw	x8, 0x2cdb4 <_ZNK23ChiFeature2HWmultiframe22PrepareAllDependenciesEP24ChiFeature2RequestObject+0x17c>
   17b74: 08 97 0a 98  	ldrsw	x8, 0x2ce54 <_ZNK23ChiFeature2HWmultiframe22PrepareAllDependenciesEP24ChiFeature2RequestObject+0x21c>
   17c34: 08 97 0a 98  	ldrsw	x8, 0x2cf14 <_ZNK23ChiFeature2HWmultiframe22PrepareAllDependenciesEP24ChiFeature2RequestObject+0x2dc>
   17d04: 08 97 0a 98  	ldrsw	x8, 0x2cfe4 <_ZNK23ChiFeature2HWmultiframe22PrepareAllDependenciesEP24ChiFeature2RequestObject+0x3ac>
   17d7c: 08 97 0a 98  	ldrsw	x8, 0x2d05c <_ZNK23ChiFeature2HWmultiframe22PrepareAllDependenciesEP24ChiFeature2RequestObject+0x424>
   17da4: 08 97 0a 98  	ldrsw	x8, 0x2d084 <_ZNK23ChiFeature2HWmultiframe22PrepareAllDependenciesEP24ChiFeature2RequestObject+0x44c>
   17df4: 08 97 0a 98  	ldrsw	x8, 0x2d0d4 <_ZNK23ChiFeature2HWmultiframe22PrepareAllDependenciesEP24ChiFeature2RequestObject+0x49c>
   17e8c: 08 97 0a 98  	ldrsw	x8, 0x2d16c <_ZNK23ChiFeature2HWmultiframe22PrepareAllDependenciesEP24ChiFeature2RequestObject+0x534>
   17efc: 08 97 0a 98  	ldrsw	x8, 0x2d1dc <_ZNK23ChiFeature2HWmultiframe25ProcessHWMFPrefilterStageEP24ChiFeature2RequestObjecthhh+0x24>
   17fc4: 08 97 0a 98  	ldrsw	x8, 0x2d2a4 <_ZNK23ChiFeature2HWmultiframe25ProcessHWMFPrefilterStageEP24ChiFeature2RequestObjecthhh+0xec>
   17fcc: 10 9b 12 9c  	ldr	q16, 0x3d32c <_ZN9Semaphore7DestroyEv+0x6594>
   180c4: 08 97 0a 98  	ldrsw	x8, 0x2d3a4 <_ZNK23ChiFeature2HWmultiframe25ProcessHWMFPrefilterStageEP24ChiFeature2RequestObjecthhh+0x1ec>
   18134: 08 97 0a 98  	ldrsw	x8, 0x2d414 <_ZNK23ChiFeature2HWmultiframe25ProcessHWMFPrefilterStageEP24ChiFeature2RequestObjecthhh+0x25c>
   181e4: 08 97 0a 98  	ldrsw	x8, 0x2d4c4 <_ZNK23ChiFeature2HWmultiframe25ProcessHWMFPrefilterStageEP24ChiFeature2RequestObjecthhh+0x30c>
   18254: 08 97 0a 98  	ldrsw	x8, 0x2d534 <_ZNK23ChiFeature2HWmultiframe25ProcessHWMFPrefilterStageEP24ChiFeature2RequestObjecthhh+0x37c>
   1825c: 10 9b 12 9c  	ldr	q16, 0x3d5bc <_ZN9Semaphore7DestroyEv+0x6824>
   18284: 08 97 0a 98  	ldrsw	x8, 0x2d564 <_ZNK23ChiFeature2HWmultiframe25ProcessHWMFPrefilterStageEP24ChiFeature2RequestObjecthhh+0x3ac>
   18494: 08 97 0a 98  	ldrsw	x8, 0x2d774 <_ZNK23ChiFeature2HWmultiframe25ProcessHWMFPrefilterStageEP24ChiFeature2RequestObjecthhh+0x5bc>
   184f4: 08 97 0a 98  	ldrsw	x8, 0x2d7d4 <_ZNK23ChiFeature2HWmultiframe25ProcessHWMFPrefilterStageEP24ChiFeature2RequestObjecthhh+0x61c>
   184fc: 10 9b 12 9c  	ldr	q16, 0x3d85c <_ZN9Semaphore7DestroyEv+0x6ac4>
   18524: 08 97 0a 98  	ldrsw	x8, 0x2d804 <_ZNK23ChiFeature2HWmultiframe25ProcessHWMFPrefilterStageEP24ChiFeature2RequestObjecthhh+0x64c>
   1852c: 10 9b 12 9c  	ldr	q16, 0x3d88c <_ZN9Semaphore7DestroyEv+0x6af4>
   1856c: 08 97 0a 98  	ldrsw	x8, 0x2d84c <_ZNK23ChiFeature2HWmultiframe25ProcessHWMFPrefilterStageEP24ChiFeature2RequestObjecthhh+0x694>
   18574: 10 9b 12 9c  	ldr	q16, 0x3d8d4 <_ZN9Semaphore7DestroyEv+0x6b3c>
   18614: 08 97 0a 98  	ldrsw	x8, 0x2d8f4 <_ZNK23ChiFeature2HWmultiframe25ProcessHWMFPrefilterStageEP24ChiFeature2RequestObjecthhh+0x73c>
   1861c: 10 9b 12 9c  	ldr	q16, 0x3d97c <_ZN9Semaphore7DestroyEv+0x6be4>
   18644: 08 97 0a 98  	ldrsw	x8, 0x2d924 <_ZNK23ChiFeature2HWmultiframe25ProcessHWMFPrefilterStageEP24ChiFeature2RequestObjecthhh+0x76c>
   1864c: 10 9b 12 9c  	ldr	q16, 0x3d9ac <_ZN9Semaphore7DestroyEv+0x6c14>
   18674: 08 97 0a 98  	ldrsw	x8, 0x2d954 <_ZNK23ChiFeature2HWmultiframe25ProcessHWMFPrefilterStageEP24ChiFeature2RequestObjecthhh+0x79c>
   1867c: 10 9b 12 9c  	ldr	q16, 0x3d9dc <_ZN9Semaphore7DestroyEv+0x6c44>
   186c4: 08 97 0a 98  	ldrsw	x8, 0x2d9a4 <_ZNK23ChiFeature2HWmultiframe25ProcessHWMFPrefilterStageEP24ChiFeature2RequestObjecthhh+0x7ec>
   186cc: 10 9b 12 9c  	ldr	q16, 0x3da2c <_ZN9Semaphore7DestroyEv+0x6c94>
   18714: 08 97 0a 98  	ldrsw	x8, 0x2d9f4 <_ZNK23ChiFeature2HWmultiframe25ProcessHWMFPrefilterStageEP24ChiFeature2RequestObjecthhh+0x83c>
   1871c: 10 9b 12 9c  	ldr	q16, 0x3da7c <_ZN9Semaphore7DestroyEv+0x6ce4>
   18744: 08 97 0a 98  	ldrsw	x8, 0x2da24 <_ZNK23ChiFeature2HWmultiframe25ProcessHWMFPrefilterStageEP24ChiFeature2RequestObjecthhh+0x86c>
   1876c: 08 97 0a 98  	ldrsw	x8, 0x2da4c <_ZNK23ChiFeature2HWmultiframe25ProcessHWMFPrefilterStageEP24ChiFeature2RequestObjecthhh+0x894>
   1879c: 08 97 0a 98  	ldrsw	x8, 0x2da7c <_ZNK23ChiFeature2HWmultiframe25ProcessHWMFPrefilterStageEP24ChiFeature2RequestObjecthhh+0x8c4>
   187a4: 10 9b 12 9c  	ldr	q16, 0x3db04 <_ZN9Semaphore7DestroyEv+0x6d6c>
   188c4: 08 97 0a 98  	ldrsw	x8, 0x2dba4 <_ZNK23ChiFeature2HWmultiframe25ProcessHWMFPrefilterStageEP24ChiFeature2RequestObjecthhh+0x9ec>
   188cc: 10 9b 12 9c  	ldr	q16, 0x3dc2c <_ZN9Semaphore7DestroyEv+0x6e94>
   1891c: 08 97 0a 98  	ldrsw	x8, 0x2dbfc <_ZNK23ChiFeature2HWmultiframe25ProcessHWMFPrefilterStageEP24ChiFeature2RequestObjecthhh+0xa44>
   18924: 10 9b 12 9c  	ldr	q16, 0x3dc84 <_ZN9Semaphore7DestroyEv+0x6eec>
   1894c: 08 97 0a 98  	ldrsw	x8, 0x2dc2c <_ZNK23ChiFeature2HWmultiframe25ProcessHWMFPrefilterStageEP24ChiFeature2RequestObjecthhh+0xa74>
   18974: 08 97 0a 98  	ldrsw	x8, 0x2dc54 <_ZNK23ChiFeature2HWmultiframe25ProcessHWMFPrefilterStageEP24ChiFeature2RequestObjecthhh+0xa9c>
   189a4: 08 97 0a 98  	ldrsw	x8, 0x2dc84 <_ZNK23ChiFeature2HWmultiframe25ProcessHWMFPrefilterStageEP24ChiFeature2RequestObjecthhh+0xacc>
   189ac: 10 9b 12 9c  	ldr	q16, 0x3dd0c <_ZN9Semaphore7DestroyEv+0x6f74>
   189d4: 08 97 0a 98  	ldrsw	x8, 0x2dcb4 <_ZNK23ChiFeature2HWmultiframe25ProcessHWMFPrefilterStageEP24ChiFeature2RequestObjecthhh+0xafc>
   189dc: 10 9b 12 9c  	ldr	q16, 0x3dd3c <_ZN9Semaphore7DestroyEv+0x6fa4>
   18a24: 08 97 0a 98  	ldrsw	x8, 0x2dd04 <_ZNK23ChiFeature2HWmultiframe25ProcessHWMFPrefilterStageEP24ChiFeature2RequestObjecthhh+0xb4c>
   18a2c: 10 9b 12 9c  	ldr	q16, 0x3dd8c <_ZN9Semaphore7DestroyEv+0x6ff4>
   18a74: 08 97 0a 98  	ldrsw	x8, 0x2dd54 <_ZNK23ChiFeature2HWmultiframe25ProcessHWMFPrefilterStageEP24ChiFeature2RequestObjecthhh+0xb9c>
   18a7c: 10 9b 12 9c  	ldr	q16, 0x3dddc <_ZN9Semaphore7DestroyEv+0x7044>
   18aa4: 08 97 0a 98  	ldrsw	x8, 0x2dd84 <_ZNK23ChiFeature2HWmultiframe25ProcessHWMFPrefilterStageEP24ChiFeature2RequestObjecthhh+0xbcc>
   18aac: 10 9b 12 9c  	ldr	q16, 0x3de0c <_ZN9Semaphore7DestroyEv+0x7074>
   18afc: 08 97 0a 98  	ldrsw	x8, 0x2dddc <_ZNK23ChiFeature2HWmultiframe25ProcessHWMFPrefilterStageEP24ChiFeature2RequestObjecthhh+0xc24>
   18b04: 10 9b 12 9c  	ldr	q16, 0x3de64 <_ZN9Semaphore7DestroyEv+0x70cc>
   1a940: ac b5 00 94  	bl	0x47ff0 <_ZN7android8hardware11hidl_stringC1EPKc@plt>
   1a97c: 9d b5 00 94  	bl	0x47ff0 <_ZN7android8hardware11hidl_stringC1EPKc@plt>
   1a9a8: 92 b5 00 94  	bl	0x47ff0 <_ZN7android8hardware11hidl_stringC1EPKc@plt>
   1a9d4: 87 b5 00 94  	bl	0x47ff0 <_ZN7android8hardware11hidl_stringC1EPKc@plt>
   1aa00: 7c b5 00 94  	bl	0x47ff0 <_ZN7android8hardware11hidl_stringC1EPKc@plt>
   1aa2c: 71 b5 00 94  	bl	0x47ff0 <_ZN7android8hardware11hidl_stringC1EPKc@plt>
   1aa58: 66 b5 00 94  	bl	0x47ff0 <_ZN7android8hardware11hidl_stringC1EPKc@plt>
   1aa84: 5b b5 00 94  	bl	0x47ff0 <_ZN7android8hardware11hidl_stringC1EPKc@plt>
   1aab0: 50 b5 00 94  	bl	0x47ff0 <_ZN7android8hardware11hidl_stringC1EPKc@plt>
   1aadc: 45 b5 00 94  	bl	0x47ff0 <_ZN7android8hardware11hidl_stringC1EPKc@plt>
   1ab08: 3a b5 00 94  	bl	0x47ff0 <_ZN7android8hardware11hidl_stringC1EPKc@plt>
   1ab34: 2f b5 00 94  	bl	0x47ff0 <_ZN7android8hardware11hidl_stringC1EPKc@plt>
   1ab60: 24 b5 00 94  	bl	0x47ff0 <_ZN7android8hardware11hidl_stringC1EPKc@plt>
   1ab8c: 19 b5 00 94  	bl	0x47ff0 <_ZN7android8hardware11hidl_stringC1EPKc@plt>
   1abb8: 0e b5 00 94  	bl	0x47ff0 <_ZN7android8hardware11hidl_stringC1EPKc@plt>
   1abe4: 03 b5 00 94  	bl	0x47ff0 <_ZN7android8hardware11hidl_stringC1EPKc@plt>
   1ac10: f8 b4 00 94  	bl	0x47ff0 <_ZN7android8hardware11hidl_stringC1EPKc@plt>
   1ac3c: ed b4 00 94  	bl	0x47ff0 <_ZN7android8hardware11hidl_stringC1EPKc@plt>
   1ac68: e2 b4 00 94  	bl	0x47ff0 <_ZN7android8hardware11hidl_stringC1EPKc@plt>
   1ac94: d7 b4 00 94  	bl	0x47ff0 <_ZN7android8hardware11hidl_stringC1EPKc@plt>
   1acc0: cc b4 00 94  	bl	0x47ff0 <_ZN7android8hardware11hidl_stringC1EPKc@plt>
   1b254: 73 b3 00 94  	bl	0x48020 <_ZN7android8hardware11hidl_stringC1ERKNSt3__112basic_stringIcNS2_11char_traitsIcEENS2_9allocatorIcEEEE@plt>
   1b280: 68 b3 00 94  	bl	0x48020 <_ZN7android8hardware11hidl_stringC1ERKNSt3__112basic_stringIcNS2_11char_traitsIcEENS2_9allocatorIcEEEE@plt>
   1b2ac: 5d b3 00 94  	bl	0x48020 <_ZN7android8hardware11hidl_stringC1ERKNSt3__112basic_stringIcNS2_11char_traitsIcEENS2_9allocatorIcEEEE@plt>
   1b2d8: 52 b3 00 94  	bl	0x48020 <_ZN7android8hardware11hidl_stringC1ERKNSt3__112basic_stringIcNS2_11char_traitsIcEENS2_9allocatorIcEEEE@plt>
   1b304: 47 b3 00 94  	bl	0x48020 <_ZN7android8hardware11hidl_stringC1ERKNSt3__112basic_stringIcNS2_11char_traitsIcEENS2_9allocatorIcEEEE@plt>
   1b330: 3c b3 00 94  	bl	0x48020 <_ZN7android8hardware11hidl_stringC1ERKNSt3__112basic_stringIcNS2_11char_traitsIcEENS2_9allocatorIcEEEE@plt>
   1b35c: 31 b3 00 94  	bl	0x48020 <_ZN7android8hardware11hidl_stringC1ERKNSt3__112basic_stringIcNS2_11char_traitsIcEENS2_9allocatorIcEEEE@plt>
   1b388: 26 b3 00 94  	bl	0x48020 <_ZN7android8hardware11hidl_stringC1ERKNSt3__112basic_stringIcNS2_11char_traitsIcEENS2_9allocatorIcEEEE@plt>
   1b3b4: 1b b3 00 94  	bl	0x48020 <_ZN7android8hardware11hidl_stringC1ERKNSt3__112basic_stringIcNS2_11char_traitsIcEENS2_9allocatorIcEEEE@plt>
   1b3e0: 10 b3 00 94  	bl	0x48020 <_ZN7android8hardware11hidl_stringC1ERKNSt3__112basic_stringIcNS2_11char_traitsIcEENS2_9allocatorIcEEEE@plt>
   1b40c: 05 b3 00 94  	bl	0x48020 <_ZN7android8hardware11hidl_stringC1ERKNSt3__112basic_stringIcNS2_11char_traitsIcEENS2_9allocatorIcEEEE@plt>
   1b438: fa b2 00 94  	bl	0x48020 <_ZN7android8hardware11hidl_stringC1ERKNSt3__112basic_stringIcNS2_11char_traitsIcEENS2_9allocatorIcEEEE@plt>
   1b464: ef b2 00 94  	bl	0x48020 <_ZN7android8hardware11hidl_stringC1ERKNSt3__112basic_stringIcNS2_11char_traitsIcEENS2_9allocatorIcEEEE@plt>
   1b490: e4 b2 00 94  	bl	0x48020 <_ZN7android8hardware11hidl_stringC1ERKNSt3__112basic_stringIcNS2_11char_traitsIcEENS2_9allocatorIcEEEE@plt>
   1b4bc: d9 b2 00 94  	bl	0x48020 <_ZN7android8hardware11hidl_stringC1ERKNSt3__112basic_stringIcNS2_11char_traitsIcEENS2_9allocatorIcEEEE@plt>
   1b4e8: ce b2 00 94  	bl	0x48020 <_ZN7android8hardware11hidl_stringC1ERKNSt3__112basic_stringIcNS2_11char_traitsIcEENS2_9allocatorIcEEEE@plt>
   1b514: c3 b2 00 94  	bl	0x48020 <_ZN7android8hardware11hidl_stringC1ERKNSt3__112basic_stringIcNS2_11char_traitsIcEENS2_9allocatorIcEEEE@plt>
   1b540: b8 b2 00 94  	bl	0x48020 <_ZN7android8hardware11hidl_stringC1ERKNSt3__112basic_stringIcNS2_11char_traitsIcEENS2_9allocatorIcEEEE@plt>
   1b56c: ad b2 00 94  	bl	0x48020 <_ZN7android8hardware11hidl_stringC1ERKNSt3__112basic_stringIcNS2_11char_traitsIcEENS2_9allocatorIcEEEE@plt>
   1b598: a2 b2 00 94  	bl	0x48020 <_ZN7android8hardware11hidl_stringC1ERKNSt3__112basic_stringIcNS2_11char_traitsIcEENS2_9allocatorIcEEEE@plt>
   1b5c4: 97 b2 00 94  	bl	0x48020 <_ZN7android8hardware11hidl_stringC1ERKNSt3__112basic_stringIcNS2_11char_traitsIcEENS2_9allocatorIcEEEE@plt>
   1b5f0: 8c b2 00 94  	bl	0x48020 <_ZN7android8hardware11hidl_stringC1ERKNSt3__112basic_stringIcNS2_11char_traitsIcEENS2_9allocatorIcEEEE@plt>
   1b61c: 81 b2 00 94  	bl	0x48020 <_ZN7android8hardware11hidl_stringC1ERKNSt3__112basic_stringIcNS2_11char_traitsIcEENS2_9allocatorIcEEEE@plt>
   1b648: 76 b2 00 94  	bl	0x48020 <_ZN7android8hardware11hidl_stringC1ERKNSt3__112basic_stringIcNS2_11char_traitsIcEENS2_9allocatorIcEEEE@plt>
   1b674: 6b b2 00 94  	bl	0x48020 <_ZN7android8hardware11hidl_stringC1ERKNSt3__112basic_stringIcNS2_11char_traitsIcEENS2_9allocatorIcEEEE@plt>
   1b6a0: 60 b2 00 94  	bl	0x48020 <_ZN7android8hardware11hidl_stringC1ERKNSt3__112basic_stringIcNS2_11char_traitsIcEENS2_9allocatorIcEEEE@plt>
   1b6c8: 5a b2 00 94  	bl	0x48030 <_ZNSt3__112basic_stringIcNS_11char_traitsIcEENS_9allocatorIcEEEC1ERKS5_@plt>
   1b6f4: 4f b2 00 94  	bl	0x48030 <_ZNSt3__112basic_stringIcNS_11char_traitsIcEENS_9allocatorIcEEEC1ERKS5_@plt>
   1b720: 44 b2 00 94  	bl	0x48030 <_ZNSt3__112basic_stringIcNS_11char_traitsIcEENS_9allocatorIcEEEC1ERKS5_@plt>
   1b74c: 39 b2 00 94  	bl	0x48030 <_ZNSt3__112basic_stringIcNS_11char_traitsIcEENS_9allocatorIcEEEC1ERKS5_@plt>
   1d898: d6 a9 00 94  	bl	0x47ff0 <_ZN7android8hardware11hidl_stringC1EPKc@plt>
   1d8d4: c7 a9 00 94  	bl	0x47ff0 <_ZN7android8hardware11hidl_stringC1EPKc@plt>
   1d900: bc a9 00 94  	bl	0x47ff0 <_ZN7android8hardware11hidl_stringC1EPKc@plt>
   1d92c: b1 a9 00 94  	bl	0x47ff0 <_ZN7android8hardware11hidl_stringC1EPKc@plt>
   1d958: a6 a9 00 94  	bl	0x47ff0 <_ZN7android8hardware11hidl_stringC1EPKc@plt>
   1d984: 9b a9 00 94  	bl	0x47ff0 <_ZN7android8hardware11hidl_stringC1EPKc@plt>
   1d9b0: 90 a9 00 94  	bl	0x47ff0 <_ZN7android8hardware11hidl_stringC1EPKc@plt>
   1d9dc: 85 a9 00 94  	bl	0x47ff0 <_ZN7android8hardware11hidl_stringC1EPKc@plt>
   1da08: 7a a9 00 94  	bl	0x47ff0 <_ZN7android8hardware11hidl_stringC1EPKc@plt>
   1da34: 6f a9 00 94  	bl	0x47ff0 <_ZN7android8hardware11hidl_stringC1EPKc@plt>
   1da60: 64 a9 00 94  	bl	0x47ff0 <_ZN7android8hardware11hidl_stringC1EPKc@plt>
   1da8c: 59 a9 00 94  	bl	0x47ff0 <_ZN7android8hardware11hidl_stringC1EPKc@plt>
   1dab8: 4e a9 00 94  	bl	0x47ff0 <_ZN7android8hardware11hidl_stringC1EPKc@plt>
   1dae4: 43 a9 00 94  	bl	0x47ff0 <_ZN7android8hardware11hidl_stringC1EPKc@plt>
   1db10: 38 a9 00 94  	bl	0x47ff0 <_ZN7android8hardware11hidl_stringC1EPKc@plt>
   1db3c: 2d a9 00 94  	bl	0x47ff0 <_ZN7android8hardware11hidl_stringC1EPKc@plt>
   1db68: 22 a9 00 94  	bl	0x47ff0 <_ZN7android8hardware11hidl_stringC1EPKc@plt>
   1db94: 17 a9 00 94  	bl	0x47ff0 <_ZN7android8hardware11hidl_stringC1EPKc@plt>
   1dbc0: 0c a9 00 94  	bl	0x47ff0 <_ZN7android8hardware11hidl_stringC1EPKc@plt>
   1dbec: 01 a9 00 94  	bl	0x47ff0 <_ZN7android8hardware11hidl_stringC1EPKc@plt>
   1dc18: f6 a8 00 94  	bl	0x47ff0 <_ZN7android8hardware11hidl_stringC1EPKc@plt>
   1e1a4: 9f a7 00 94  	bl	0x48020 <_ZN7android8hardware11hidl_stringC1ERKNSt3__112basic_stringIcNS2_11char_traitsIcEENS2_9allocatorIcEEEE@plt>
   1e1d0: 94 a7 00 94  	bl	0x48020 <_ZN7android8hardware11hidl_stringC1ERKNSt3__112basic_stringIcNS2_11char_traitsIcEENS2_9allocatorIcEEEE@plt>
   1e1fc: 89 a7 00 94  	bl	0x48020 <_ZN7android8hardware11hidl_stringC1ERKNSt3__112basic_stringIcNS2_11char_traitsIcEENS2_9allocatorIcEEEE@plt>
   1e228: 7e a7 00 94  	bl	0x48020 <_ZN7android8hardware11hidl_stringC1ERKNSt3__112basic_stringIcNS2_11char_traitsIcEENS2_9allocatorIcEEEE@plt>
   1e254: 73 a7 00 94  	bl	0x48020 <_ZN7android8hardware11hidl_stringC1ERKNSt3__112basic_stringIcNS2_11char_traitsIcEENS2_9allocatorIcEEEE@plt>
   1e280: 68 a7 00 94  	bl	0x48020 <_ZN7android8hardware11hidl_stringC1ERKNSt3__112basic_stringIcNS2_11char_traitsIcEENS2_9allocatorIcEEEE@plt>
   1e2ac: 5d a7 00 94  	bl	0x48020 <_ZN7android8hardware11hidl_stringC1ERKNSt3__112basic_stringIcNS2_11char_traitsIcEENS2_9allocatorIcEEEE@plt>
   1e2d8: 52 a7 00 94  	bl	0x48020 <_ZN7android8hardware11hidl_stringC1ERKNSt3__112basic_stringIcNS2_11char_traitsIcEENS2_9allocatorIcEEEE@plt>
   1e304: 47 a7 00 94  	bl	0x48020 <_ZN7android8hardware11hidl_stringC1ERKNSt3__112basic_stringIcNS2_11char_traitsIcEENS2_9allocatorIcEEEE@plt>
   1e330: 3c a7 00 94  	bl	0x48020 <_ZN7android8hardware11hidl_stringC1ERKNSt3__112basic_stringIcNS2_11char_traitsIcEENS2_9allocatorIcEEEE@plt>
   1e35c: 31 a7 00 94  	bl	0x48020 <_ZN7android8hardware11hidl_stringC1ERKNSt3__112basic_stringIcNS2_11char_traitsIcEENS2_9allocatorIcEEEE@plt>
   1e388: 26 a7 00 94  	bl	0x48020 <_ZN7android8hardware11hidl_stringC1ERKNSt3__112basic_stringIcNS2_11char_traitsIcEENS2_9allocatorIcEEEE@plt>
   1e3b4: 1b a7 00 94  	bl	0x48020 <_ZN7android8hardware11hidl_stringC1ERKNSt3__112basic_stringIcNS2_11char_traitsIcEENS2_9allocatorIcEEEE@plt>
   1e3e0: 10 a7 00 94  	bl	0x48020 <_ZN7android8hardware11hidl_stringC1ERKNSt3__112basic_stringIcNS2_11char_traitsIcEENS2_9allocatorIcEEEE@plt>
   1e40c: 05 a7 00 94  	bl	0x48020 <_ZN7android8hardware11hidl_stringC1ERKNSt3__112basic_stringIcNS2_11char_traitsIcEENS2_9allocatorIcEEEE@plt>
   1e438: fa a6 00 94  	bl	0x48020 <_ZN7android8hardware11hidl_stringC1ERKNSt3__112basic_stringIcNS2_11char_traitsIcEENS2_9allocatorIcEEEE@plt>
   1e464: ef a6 00 94  	bl	0x48020 <_ZN7android8hardware11hidl_stringC1ERKNSt3__112basic_stringIcNS2_11char_traitsIcEENS2_9allocatorIcEEEE@plt>
   1e490: e4 a6 00 94  	bl	0x48020 <_ZN7android8hardware11hidl_stringC1ERKNSt3__112basic_stringIcNS2_11char_traitsIcEENS2_9allocatorIcEEEE@plt>
   1e4bc: d9 a6 00 94  	bl	0x48020 <_ZN7android8hardware11hidl_stringC1ERKNSt3__112basic_stringIcNS2_11char_traitsIcEENS2_9allocatorIcEEEE@plt>
   1e4e8: ce a6 00 94  	bl	0x48020 <_ZN7android8hardware11hidl_stringC1ERKNSt3__112basic_stringIcNS2_11char_traitsIcEENS2_9allocatorIcEEEE@plt>
   1e514: c3 a6 00 94  	bl	0x48020 <_ZN7android8hardware11hidl_stringC1ERKNSt3__112basic_stringIcNS2_11char_traitsIcEENS2_9allocatorIcEEEE@plt>
   1e540: b8 a6 00 94  	bl	0x48020 <_ZN7android8hardware11hidl_stringC1ERKNSt3__112basic_stringIcNS2_11char_traitsIcEENS2_9allocatorIcEEEE@plt>
   1e56c: ad a6 00 94  	bl	0x48020 <_ZN7android8hardware11hidl_stringC1ERKNSt3__112basic_stringIcNS2_11char_traitsIcEENS2_9allocatorIcEEEE@plt>
   1e598: a2 a6 00 94  	bl	0x48020 <_ZN7android8hardware11hidl_stringC1ERKNSt3__112basic_stringIcNS2_11char_traitsIcEENS2_9allocatorIcEEEE@plt>
   1e5c4: 97 a6 00 94  	bl	0x48020 <_ZN7android8hardware11hidl_stringC1ERKNSt3__112basic_stringIcNS2_11char_traitsIcEENS2_9allocatorIcEEEE@plt>
   1e5f0: 8c a6 00 94  	bl	0x48020 <_ZN7android8hardware11hidl_stringC1ERKNSt3__112basic_stringIcNS2_11char_traitsIcEENS2_9allocatorIcEEEE@plt>
   1e618: 86 a6 00 94  	bl	0x48030 <_ZNSt3__112basic_stringIcNS_11char_traitsIcEENS_9allocatorIcEEEC1ERKS5_@plt>
   1e644: 7b a6 00 94  	bl	0x48030 <_ZNSt3__112basic_stringIcNS_11char_traitsIcEENS_9allocatorIcEEEC1ERKS5_@plt>
   1e670: 70 a6 00 94  	bl	0x48030 <_ZNSt3__112basic_stringIcNS_11char_traitsIcEENS_9allocatorIcEEEC1ERKS5_@plt>
   1e69c: 65 a6 00 94  	bl	0x48030 <_ZNSt3__112basic_stringIcNS_11char_traitsIcEENS_9allocatorIcEEEC1ERKS5_@plt>
   204f8: be 9e 00 94  	bl	0x47ff0 <_ZN7android8hardware11hidl_stringC1EPKc@plt>
   20534: af 9e 00 94  	bl	0x47ff0 <_ZN7android8hardware11hidl_stringC1EPKc@plt>
   20560: a4 9e 00 94  	bl	0x47ff0 <_ZN7android8hardware11hidl_stringC1EPKc@plt>
   2058c: 99 9e 00 94  	bl	0x47ff0 <_ZN7android8hardware11hidl_stringC1EPKc@plt>
   205b8: 8e 9e 00 94  	bl	0x47ff0 <_ZN7android8hardware11hidl_stringC1EPKc@plt>
   205e4: 83 9e 00 94  	bl	0x47ff0 <_ZN7android8hardware11hidl_stringC1EPKc@plt>
   20610: 78 9e 00 94  	bl	0x47ff0 <_ZN7android8hardware11hidl_stringC1EPKc@plt>
   2063c: 6d 9e 00 94  	bl	0x47ff0 <_ZN7android8hardware11hidl_stringC1EPKc@plt>
   20668: 62 9e 00 94  	bl	0x47ff0 <_ZN7android8hardware11hidl_stringC1EPKc@plt>
   20694: 57 9e 00 94  	bl	0x47ff0 <_ZN7android8hardware11hidl_stringC1EPKc@plt>
   206c0: 4c 9e 00 94  	bl	0x47ff0 <_ZN7android8hardware11hidl_stringC1EPKc@plt>
   206ec: 41 9e 00 94  	bl	0x47ff0 <_ZN7android8hardware11hidl_stringC1EPKc@plt>
   20718: 36 9e 00 94  	bl	0x47ff0 <_ZN7android8hardware11hidl_stringC1EPKc@plt>
   20744: 2b 9e 00 94  	bl	0x47ff0 <_ZN7android8hardware11hidl_stringC1EPKc@plt>
   20770: 20 9e 00 94  	bl	0x47ff0 <_ZN7android8hardware11hidl_stringC1EPKc@plt>
   2079c: 15 9e 00 94  	bl	0x47ff0 <_ZN7android8hardware11hidl_stringC1EPKc@plt>
   207c8: 0a 9e 00 94  	bl	0x47ff0 <_ZN7android8hardware11hidl_stringC1EPKc@plt>
   207f4: ff 9d 00 94  	bl	0x47ff0 <_ZN7android8hardware11hidl_stringC1EPKc@plt>
   20820: f4 9d 00 94  	bl	0x47ff0 <_ZN7android8hardware11hidl_stringC1EPKc@plt>
   2084c: e9 9d 00 94  	bl	0x47ff0 <_ZN7android8hardware11hidl_stringC1EPKc@plt>
   20878: de 9d 00 94  	bl	0x47ff0 <_ZN7android8hardware11hidl_stringC1EPKc@plt>
   20e04: 87 9c 00 94  	bl	0x48020 <_ZN7android8hardware11hidl_stringC1ERKNSt3__112basic_stringIcNS2_11char_traitsIcEENS2_9allocatorIcEEEE@plt>
   20e30: 7c 9c 00 94  	bl	0x48020 <_ZN7android8hardware11hidl_stringC1ERKNSt3__112basic_stringIcNS2_11char_traitsIcEENS2_9allocatorIcEEEE@plt>
   20e5c: 71 9c 00 94  	bl	0x48020 <_ZN7android8hardware11hidl_stringC1ERKNSt3__112basic_stringIcNS2_11char_traitsIcEENS2_9allocatorIcEEEE@plt>
   20e88: 66 9c 00 94  	bl	0x48020 <_ZN7android8hardware11hidl_stringC1ERKNSt3__112basic_stringIcNS2_11char_traitsIcEENS2_9allocatorIcEEEE@plt>
   20eb4: 5b 9c 00 94  	bl	0x48020 <_ZN7android8hardware11hidl_stringC1ERKNSt3__112basic_stringIcNS2_11char_traitsIcEENS2_9allocatorIcEEEE@plt>
   20ee0: 50 9c 00 94  	bl	0x48020 <_ZN7android8hardware11hidl_stringC1ERKNSt3__112basic_stringIcNS2_11char_traitsIcEENS2_9allocatorIcEEEE@plt>
   20f0c: 45 9c 00 94  	bl	0x48020 <_ZN7android8hardware11hidl_stringC1ERKNSt3__112basic_stringIcNS2_11char_traitsIcEENS2_9allocatorIcEEEE@plt>
   20f38: 3a 9c 00 94  	bl	0x48020 <_ZN7android8hardware11hidl_stringC1ERKNSt3__112basic_stringIcNS2_11char_traitsIcEENS2_9allocatorIcEEEE@plt>
   20f64: 2f 9c 00 94  	bl	0x48020 <_ZN7android8hardware11hidl_stringC1ERKNSt3__112basic_stringIcNS2_11char_traitsIcEENS2_9allocatorIcEEEE@plt>
   20f90: 24 9c 00 94  	bl	0x48020 <_ZN7android8hardware11hidl_stringC1ERKNSt3__112basic_stringIcNS2_11char_traitsIcEENS2_9allocatorIcEEEE@plt>
   20fbc: 19 9c 00 94  	bl	0x48020 <_ZN7android8hardware11hidl_stringC1ERKNSt3__112basic_stringIcNS2_11char_traitsIcEENS2_9allocatorIcEEEE@plt>
   20fe8: 0e 9c 00 94  	bl	0x48020 <_ZN7android8hardware11hidl_stringC1ERKNSt3__112basic_stringIcNS2_11char_traitsIcEENS2_9allocatorIcEEEE@plt>
   21014: 03 9c 00 94  	bl	0x48020 <_ZN7android8hardware11hidl_stringC1ERKNSt3__112basic_stringIcNS2_11char_traitsIcEENS2_9allocatorIcEEEE@plt>
   21040: f8 9b 00 94  	bl	0x48020 <_ZN7android8hardware11hidl_stringC1ERKNSt3__112basic_stringIcNS2_11char_traitsIcEENS2_9allocatorIcEEEE@plt>
   2106c: ed 9b 00 94  	bl	0x48020 <_ZN7android8hardware11hidl_stringC1ERKNSt3__112basic_stringIcNS2_11char_traitsIcEENS2_9allocatorIcEEEE@plt>
   21098: e2 9b 00 94  	bl	0x48020 <_ZN7android8hardware11hidl_stringC1ERKNSt3__112basic_stringIcNS2_11char_traitsIcEENS2_9allocatorIcEEEE@plt>
   210c4: d7 9b 00 94  	bl	0x48020 <_ZN7android8hardware11hidl_stringC1ERKNSt3__112basic_stringIcNS2_11char_traitsIcEENS2_9allocatorIcEEEE@plt>
   210f0: cc 9b 00 94  	bl	0x48020 <_ZN7android8hardware11hidl_stringC1ERKNSt3__112basic_stringIcNS2_11char_traitsIcEENS2_9allocatorIcEEEE@plt>
   2111c: c1 9b 00 94  	bl	0x48020 <_ZN7android8hardware11hidl_stringC1ERKNSt3__112basic_stringIcNS2_11char_traitsIcEENS2_9allocatorIcEEEE@plt>
   21148: b6 9b 00 94  	bl	0x48020 <_ZN7android8hardware11hidl_stringC1ERKNSt3__112basic_stringIcNS2_11char_traitsIcEENS2_9allocatorIcEEEE@plt>
   21174: ab 9b 00 94  	bl	0x48020 <_ZN7android8hardware11hidl_stringC1ERKNSt3__112basic_stringIcNS2_11char_traitsIcEENS2_9allocatorIcEEEE@plt>
   211a0: a0 9b 00 94  	bl	0x48020 <_ZN7android8hardware11hidl_stringC1ERKNSt3__112basic_stringIcNS2_11char_traitsIcEENS2_9allocatorIcEEEE@plt>
   211cc: 95 9b 00 94  	bl	0x48020 <_ZN7android8hardware11hidl_stringC1ERKNSt3__112basic_stringIcNS2_11char_traitsIcEENS2_9allocatorIcEEEE@plt>
   211f8: 8a 9b 00 94  	bl	0x48020 <_ZN7android8hardware11hidl_stringC1ERKNSt3__112basic_stringIcNS2_11char_traitsIcEENS2_9allocatorIcEEEE@plt>
   21224: 7f 9b 00 94  	bl	0x48020 <_ZN7android8hardware11hidl_stringC1ERKNSt3__112basic_stringIcNS2_11char_traitsIcEENS2_9allocatorIcEEEE@plt>
   21250: 74 9b 00 94  	bl	0x48020 <_ZN7android8hardware11hidl_stringC1ERKNSt3__112basic_stringIcNS2_11char_traitsIcEENS2_9allocatorIcEEEE@plt>
   21278: 6e 9b 00 94  	bl	0x48030 <_ZNSt3__112basic_stringIcNS_11char_traitsIcEENS_9allocatorIcEEEC1ERKS5_@plt>
   212a4: 63 9b 00 94  	bl	0x48030 <_ZNSt3__112basic_stringIcNS_11char_traitsIcEENS_9allocatorIcEEEC1ERKS5_@plt>
   212d0: 58 9b 00 94  	bl	0x48030 <_ZNSt3__112basic_stringIcNS_11char_traitsIcEENS_9allocatorIcEEEC1ERKS5_@plt>
   212fc: 4d 9b 00 94  	bl	0x48030 <_ZNSt3__112basic_stringIcNS_11char_traitsIcEENS_9allocatorIcEEEC1ERKS5_@plt>
   23148: aa 93 00 94  	bl	0x47ff0 <_ZN7android8hardware11hidl_stringC1EPKc@plt>
   23184: 9b 93 00 94  	bl	0x47ff0 <_ZN7android8hardware11hidl_stringC1EPKc@plt>
   231b0: 90 93 00 94  	bl	0x47ff0 <_ZN7android8hardware11hidl_stringC1EPKc@plt>
   231dc: 85 93 00 94  	bl	0x47ff0 <_ZN7android8hardware11hidl_stringC1EPKc@plt>
   23208: 7a 93 00 94  	bl	0x47ff0 <_ZN7android8hardware11hidl_stringC1EPKc@plt>
   23234: 6f 93 00 94  	bl	0x47ff0 <_ZN7android8hardware11hidl_stringC1EPKc@plt>
   23260: 64 93 00 94  	bl	0x47ff0 <_ZN7android8hardware11hidl_stringC1EPKc@plt>
   2328c: 59 93 00 94  	bl	0x47ff0 <_ZN7android8hardware11hidl_stringC1EPKc@plt>
   232b8: 4e 93 00 94  	bl	0x47ff0 <_ZN7android8hardware11hidl_stringC1EPKc@plt>
   232e4: 43 93 00 94  	bl	0x47ff0 <_ZN7android8hardware11hidl_stringC1EPKc@plt>
   23310: 38 93 00 94  	bl	0x47ff0 <_ZN7android8hardware11hidl_stringC1EPKc@plt>
   2333c: 2d 93 00 94  	bl	0x47ff0 <_ZN7android8hardware11hidl_stringC1EPKc@plt>
   23368: 22 93 00 94  	bl	0x47ff0 <_ZN7android8hardware11hidl_stringC1EPKc@plt>
   23394: 17 93 00 94  	bl	0x47ff0 <_ZN7android8hardware11hidl_stringC1EPKc@plt>
   233c0: 0c 93 00 94  	bl	0x47ff0 <_ZN7android8hardware11hidl_stringC1EPKc@plt>
   233ec: 01 93 00 94  	bl	0x47ff0 <_ZN7android8hardware11hidl_stringC1EPKc@plt>
   23418: f6 92 00 94  	bl	0x47ff0 <_ZN7android8hardware11hidl_stringC1EPKc@plt>
   23444: eb 92 00 94  	bl	0x47ff0 <_ZN7android8hardware11hidl_stringC1EPKc@plt>
   23470: e0 92 00 94  	bl	0x47ff0 <_ZN7android8hardware11hidl_stringC1EPKc@plt>
   2349c: d5 92 00 94  	bl	0x47ff0 <_ZN7android8hardware11hidl_stringC1EPKc@plt>
   234c8: ca 92 00 94  	bl	0x47ff0 <_ZN7android8hardware11hidl_stringC1EPKc@plt>
   23a4c: 75 91 00 94  	bl	0x48020 <_ZN7android8hardware11hidl_stringC1ERKNSt3__112basic_stringIcNS2_11char_traitsIcEENS2_9allocatorIcEEEE@plt>
   23a78: 6a 91 00 94  	bl	0x48020 <_ZN7android8hardware11hidl_stringC1ERKNSt3__112basic_stringIcNS2_11char_traitsIcEENS2_9allocatorIcEEEE@plt>
   23aa4: 5f 91 00 94  	bl	0x48020 <_ZN7android8hardware11hidl_stringC1ERKNSt3__112basic_stringIcNS2_11char_traitsIcEENS2_9allocatorIcEEEE@plt>
   23ad0: 54 91 00 94  	bl	0x48020 <_ZN7android8hardware11hidl_stringC1ERKNSt3__112basic_stringIcNS2_11char_traitsIcEENS2_9allocatorIcEEEE@plt>
   23afc: 49 91 00 94  	bl	0x48020 <_ZN7android8hardware11hidl_stringC1ERKNSt3__112basic_stringIcNS2_11char_traitsIcEENS2_9allocatorIcEEEE@plt>
   23b28: 3e 91 00 94  	bl	0x48020 <_ZN7android8hardware11hidl_stringC1ERKNSt3__112basic_stringIcNS2_11char_traitsIcEENS2_9allocatorIcEEEE@plt>
   23b54: 33 91 00 94  	bl	0x48020 <_ZN7android8hardware11hidl_stringC1ERKNSt3__112basic_stringIcNS2_11char_traitsIcEENS2_9allocatorIcEEEE@plt>
   23b80: 28 91 00 94  	bl	0x48020 <_ZN7android8hardware11hidl_stringC1ERKNSt3__112basic_stringIcNS2_11char_traitsIcEENS2_9allocatorIcEEEE@plt>
   23bac: 1d 91 00 94  	bl	0x48020 <_ZN7android8hardware11hidl_stringC1ERKNSt3__112basic_stringIcNS2_11char_traitsIcEENS2_9allocatorIcEEEE@plt>
   23bd8: 12 91 00 94  	bl	0x48020 <_ZN7android8hardware11hidl_stringC1ERKNSt3__112basic_stringIcNS2_11char_traitsIcEENS2_9allocatorIcEEEE@plt>
   23c04: 07 91 00 94  	bl	0x48020 <_ZN7android8hardware11hidl_stringC1ERKNSt3__112basic_stringIcNS2_11char_traitsIcEENS2_9allocatorIcEEEE@plt>
   23c30: fc 90 00 94  	bl	0x48020 <_ZN7android8hardware11hidl_stringC1ERKNSt3__112basic_stringIcNS2_11char_traitsIcEENS2_9allocatorIcEEEE@plt>
   23c5c: f1 90 00 94  	bl	0x48020 <_ZN7android8hardware11hidl_stringC1ERKNSt3__112basic_stringIcNS2_11char_traitsIcEENS2_9allocatorIcEEEE@plt>
   23c88: e6 90 00 94  	bl	0x48020 <_ZN7android8hardware11hidl_stringC1ERKNSt3__112basic_stringIcNS2_11char_traitsIcEENS2_9allocatorIcEEEE@plt>
   23cb4: db 90 00 94  	bl	0x48020 <_ZN7android8hardware11hidl_stringC1ERKNSt3__112basic_stringIcNS2_11char_traitsIcEENS2_9allocatorIcEEEE@plt>
   23ce0: d0 90 00 94  	bl	0x48020 <_ZN7android8hardware11hidl_stringC1ERKNSt3__112basic_stringIcNS2_11char_traitsIcEENS2_9allocatorIcEEEE@plt>
   23d0c: c5 90 00 94  	bl	0x48020 <_ZN7android8hardware11hidl_stringC1ERKNSt3__112basic_stringIcNS2_11char_traitsIcEENS2_9allocatorIcEEEE@plt>
   23d38: ba 90 00 94  	bl	0x48020 <_ZN7android8hardware11hidl_stringC1ERKNSt3__112basic_stringIcNS2_11char_traitsIcEENS2_9allocatorIcEEEE@plt>
   23d64: af 90 00 94  	bl	0x48020 <_ZN7android8hardware11hidl_stringC1ERKNSt3__112basic_stringIcNS2_11char_traitsIcEENS2_9allocatorIcEEEE@plt>
   23d90: a4 90 00 94  	bl	0x48020 <_ZN7android8hardware11hidl_stringC1ERKNSt3__112basic_stringIcNS2_11char_traitsIcEENS2_9allocatorIcEEEE@plt>
   23dbc: 99 90 00 94  	bl	0x48020 <_ZN7android8hardware11hidl_stringC1ERKNSt3__112basic_stringIcNS2_11char_traitsIcEENS2_9allocatorIcEEEE@plt>
   23de8: 8e 90 00 94  	bl	0x48020 <_ZN7android8hardware11hidl_stringC1ERKNSt3__112basic_stringIcNS2_11char_traitsIcEENS2_9allocatorIcEEEE@plt>
   23e14: 83 90 00 94  	bl	0x48020 <_ZN7android8hardware11hidl_stringC1ERKNSt3__112basic_stringIcNS2_11char_traitsIcEENS2_9allocatorIcEEEE@plt>
   23e40: 78 90 00 94  	bl	0x48020 <_ZN7android8hardware11hidl_stringC1ERKNSt3__112basic_stringIcNS2_11char_traitsIcEENS2_9allocatorIcEEEE@plt>
   23e6c: 6d 90 00 94  	bl	0x48020 <_ZN7android8hardware11hidl_stringC1ERKNSt3__112basic_stringIcNS2_11char_traitsIcEENS2_9allocatorIcEEEE@plt>
   23e98: 62 90 00 94  	bl	0x48020 <_ZN7android8hardware11hidl_stringC1ERKNSt3__112basic_stringIcNS2_11char_traitsIcEENS2_9allocatorIcEEEE@plt>
   23ec0: 5c 90 00 94  	bl	0x48030 <_ZNSt3__112basic_stringIcNS_11char_traitsIcEENS_9allocatorIcEEEC1ERKS5_@plt>
   23eec: 51 90 00 94  	bl	0x48030 <_ZNSt3__112basic_stringIcNS_11char_traitsIcEENS_9allocatorIcEEEC1ERKS5_@plt>
   23f18: 46 90 00 94  	bl	0x48030 <_ZNSt3__112basic_stringIcNS_11char_traitsIcEENS_9allocatorIcEEEC1ERKS5_@plt>
   23f44: 3b 90 00 94  	bl	0x48030 <_ZNSt3__112basic_stringIcNS_11char_traitsIcEENS_9allocatorIcEEEC1ERKS5_@plt>
   23fa8: 2e 90 00 14  	b	0x48060 <_ZN7android8hardware11hidl_stringD1Ev@plt>
   24070: 00 90 00 94  	bl	0x48070 <_ZN15ChiFeature2Base10InitializeEP26ChiFeature2CreateInputInfo@plt>
   2411c: e1 8f 00 94  	bl	0x480a0 <_ZN6ChiLog9LogSystemEPKcS1_S1_S1_iS1_z@plt>
   241f4: ab 8f 00 94  	bl	0x480a0 <_ZN6ChiLog9LogSystemEPKcS1_S1_S1_iS1_z@plt>
0000000000024248 <_ZN23ChiFeature2HWmultiframe7DestroyEv>:
   24248: c0 01 00 b4  	cbz	x0, 0x24280 <_ZN23ChiFeature2HWmultiframe7DestroyEv+0x38>
   2425c: 48 01 00 b0  	adrp	x8, 0x4d000 <_ZN23ChiFeature2HWmultiframe11OnDumpEventEimjP24ChiFeature2RequestObject+0x50>
   2426c: c1 00 00 54  	b.ne	0x24284 <_ZN23ChiFeature2HWmultiframe7DestroyEv+0x3c>
   242a8: f2 ff ff 17  	b	0x24270 <_ZN23ChiFeature2HWmultiframe7DestroyEv+0x28>
00000000000242b0 <_ZN23ChiFeature2HWmultiframe11OnDumpEventEimjP24ChiFeature2RequestObject>:
   24304: e4 1f 00 b4  	cbz	x4, 0x24700 <_ZN23ChiFeature2HWmultiframe11OnDumpEventEimjP24ChiFeature2RequestObject+0x450>
   24310: 59 01 00 b0  	adrp	x25, 0x4d000 <_ZN23ChiFeature2HWmultiframe11OnDumpEventEimjP24ChiFeature2RequestObject+0x104>
   24330: 21 20 00 54  	b.ne	0x24734 <_ZN23ChiFeature2HWmultiframe11OnDumpEventEimjP24ChiFeature2RequestObject+0x484>
   2433c: 61 8f 00 94  	bl	0x480c0 <_ZNK15ChiFeature2Base21GetFeaturePrivContextEP24ChiFeature2RequestObject@plt>
   24340: c0 18 00 b4  	cbz	x0, 0x24658 <_ZN23ChiFeature2HWmultiframe11OnDumpEventEimjP24ChiFeature2RequestObject+0x3a8>
   24354: c1 1f 00 54  	b.ne	0x2474c <_ZN23ChiFeature2HWmultiframe11OnDumpEventEimjP24ChiFeature2RequestObject+0x49c>
   2435c: 42 ff ff b0  	adrp	x2, 0xd000 <_ZN23ChiFeature2HWmultiframe11OnDumpEventEimjP24ChiFeature2RequestObject+0x50>
   24370: 58 8f 00 94  	bl	0x480d0 <_ZN8CdkUtils8SNPrintFEPcmPKcz@plt>
   2437c: 80 08 00 54  	b.eq	0x2448c <_ZN23ChiFeature2HWmultiframe11OnDumpEventEimjP24ChiFeature2RequestObject+0x1dc>
   243b0: 81 20 00 54  	b.ne	0x247c0 <_ZN23ChiFeature2HWmultiframe11OnDumpEventEimjP24ChiFeature2RequestObject+0x510>
   243c0: 42 1d 00 54  	b.hs	0x24768 <_ZN23ChiFeature2HWmultiframe11OnDumpEventEimjP24ChiFeature2RequestObject+0x4b8>
   243e4: 41 01 00 b0  	adrp	x1, 0x4d000 <_ZN23ChiFeature2HWmultiframe11OnDumpEventEimjP24ChiFeature2RequestObject+0x1d8>
   24490: 8a 13 00 34  	cbz	w10, 0x24700 <_ZN23ChiFeature2HWmultiframe11OnDumpEventEimjP24ChiFeature2RequestObject+0x450>
   244a4: 2b 16 00 37  	tbnz	w11, #0, 0x24768 <_ZN23ChiFeature2HWmultiframe11OnDumpEventEimjP24ChiFeature2RequestObject+0x4b8>
   244a8: 28 16 00 37  	tbnz	w8, #0, 0x2476c <_ZN23ChiFeature2HWmultiframe11OnDumpEventEimjP24ChiFeature2RequestObject+0x4bc>
   244b0: 5a ff ff 90  	adrp	x26, 0xc000 <_ZN23ChiFeature2HWmultiframe11OnDumpEventEimjP24ChiFeature2RequestObject+0x1a0>
   244b4: 7b ff ff f0  	adrp	x27, 0x13000 <_ZN23ChiFeature2HWmultiframe11OnDumpEventEimjP24ChiFeature2RequestObject+0x1c0>
   244b8: 7c ff ff f0  	adrp	x28, 0x13000 <_ZN23ChiFeature2HWmultiframe11OnDumpEventEimjP24ChiFeature2RequestObject+0x1c4>
   244e0: 0c 8f 00 94  	bl	0x48110 <_ZN8ChxUtils7DPrintFEiPKcz@plt>
   244e4: 61 ff ff f0  	adrp	x1, 0x13000 <_ZN23ChiFeature2HWmultiframe11OnDumpEventEimjP24ChiFeature2RequestObject+0x1f0>
   244f8: 06 8f 00 94  	bl	0x48110 <_ZN8ChxUtils7DPrintFEiPKcz@plt>
   2450c: 01 8f 00 94  	bl	0x48110 <_ZN8ChxUtils7DPrintFEiPKcz@plt>
   24510: 61 ff ff 90  	adrp	x1, 0x10000 <_ZN23ChiFeature2HWmultiframe11OnDumpEventEimjP24ChiFeature2RequestObject+0x210>
   24528: fa 8e 00 94  	bl	0x48110 <_ZN8ChxUtils7DPrintFEiPKcz@plt>
   2452c: 81 ff ff 90  	adrp	x1, 0x14000 <_ZN23ChiFeature2HWmultiframe11OnDumpEventEimjP24ChiFeature2RequestObject+0x23c>
   24544: f3 8e 00 94  	bl	0x48110 <_ZN8ChxUtils7DPrintFEiPKcz@plt>
   2454c: 61 ff ff f0  	adrp	x1, 0x13000 <_ZN23ChiFeature2HWmultiframe11OnDumpEventEimjP24ChiFeature2RequestObject+0x258>
   24564: eb 8e 00 94  	bl	0x48110 <_ZN8ChxUtils7DPrintFEiPKcz@plt>
   2456c: 41 ff ff f0  	adrp	x1, 0xf000 <_ZN23ChiFeature2HWmultiframe11OnDumpEventEimjP24ChiFeature2RequestObject+0x268>
   24580: e4 8e 00 94  	bl	0x48110 <_ZN8ChxUtils7DPrintFEiPKcz@plt>
   24588: 41 ff ff f0  	adrp	x1, 0xf000 <_ZN23ChiFeature2HWmultiframe11OnDumpEventEimjP24ChiFeature2RequestObject+0x284>
   2459c: dd 8e 00 94  	bl	0x48110 <_ZN8ChxUtils7DPrintFEiPKcz@plt>
   245a4: 61 ff ff 90  	adrp	x1, 0x10000 <_ZN23ChiFeature2HWmultiframe11OnDumpEventEimjP24ChiFeature2RequestObject+0x2a4>
   245b8: d6 8e 00 94  	bl	0x48110 <_ZN8ChxUtils7DPrintFEiPKcz@plt>
   245c0: 41 ff ff b0  	adrp	x1, 0xd000 <_ZN23ChiFeature2HWmultiframe11OnDumpEventEimjP24ChiFeature2RequestObject+0x2b4>
   245d4: cf 8e 00 94  	bl	0x48110 <_ZN8ChxUtils7DPrintFEiPKcz@plt>
   245dc: 41 ff ff 90  	adrp	x1, 0xc000 <_ZN23ChiFeature2HWmultiframe11OnDumpEventEimjP24ChiFeature2RequestObject+0x2cc>
   245f0: c8 8e 00 94  	bl	0x48110 <_ZN8ChxUtils7DPrintFEiPKcz@plt>
   245f8: 41 ff ff 90  	adrp	x1, 0xc000 <_ZN23ChiFeature2HWmultiframe11OnDumpEventEimjP24ChiFeature2RequestObject+0x2e8>
   2460c: c1 8e 00 94  	bl	0x48110 <_ZN8ChxUtils7DPrintFEiPKcz@plt>
   24624: bb 8e 00 94  	bl	0x48110 <_ZN8ChxUtils7DPrintFEiPKcz@plt>
   24638: b6 8e 00 94  	bl	0x48110 <_ZN8ChxUtils7DPrintFEiPKcz@plt>
   24650: 03 f4 ff 54  	b.lo	0x244d0 <_ZN23ChiFeature2HWmultiframe11OnDumpEventEimjP24ChiFeature2RequestObject+0x220>
   24654: 2b 00 00 14  	b	0x24700 <_ZN23ChiFeature2HWmultiframe11OnDumpEventEimjP24ChiFeature2RequestObject+0x450>
   24658: 4b 01 00 b0  	adrp	x11, 0x4d000 <_ZN23ChiFeature2HWmultiframe11OnDumpEventEimjP24ChiFeature2RequestObject+0x44c>
   24664: ec 04 00 36  	tbz	w12, #0, 0x24700 <_ZN23ChiFeature2HWmultiframe11OnDumpEventEimjP24ChiFeature2RequestObject+0x450>
   24668: 4c 01 00 b0  	adrp	x12, 0x4d000 <_ZN23ChiFeature2HWmultiframe11OnDumpEventEimjP24ChiFeature2RequestObject+0x45c>
   2466c: 56 ff ff d0  	adrp	x22, 0xe000 <_ZN23ChiFeature2HWmultiframe11OnDumpEventEimjP24ChiFeature2RequestObject+0x364>
   24680: 01 02 00 54  	b.ne	0x246c0 <_ZN23ChiFeature2HWmultiframe11OnDumpEventEimjP24ChiFeature2RequestObject+0x410>
   24698: 81 ff ff 90  	adrp	x1, 0x14000 <_ZN23ChiFeature2HWmultiframe11OnDumpEventEimjP24ChiFeature2RequestObject+0x3a8>
   2469c: 62 ff ff 90  	adrp	x2, 0x10000 <_ZN23ChiFeature2HWmultiframe11OnDumpEventEimjP24ChiFeature2RequestObject+0x39c>
   246a0: 65 ff ff b0  	adrp	x5, 0x11000 <_ZN23ChiFeature2HWmultiframe11OnDumpEventEimjP24ChiFeature2RequestObject+0x3a4>
   246d4: 61 ff ff f0  	adrp	x1, 0x13000 <_ZN23ChiFeature2HWmultiframe11OnDumpEventEimjP24ChiFeature2RequestObject+0x3e0>
   246dc: 40 ff ff b0  	adrp	x0, 0xd000 <_ZN23ChiFeature2HWmultiframe11OnDumpEventEimjP24ChiFeature2RequestObject+0x3d0>
   246e0: 63 ff ff b0  	adrp	x3, 0x11000 <_ZN23ChiFeature2HWmultiframe11OnDumpEventEimjP24ChiFeature2RequestObject+0x3e4>
   246e4: 45 ff ff b0  	adrp	x5, 0xd000 <_ZN23ChiFeature2HWmultiframe11OnDumpEventEimjP24ChiFeature2RequestObject+0x3d8>
   246fc: 69 8e 00 94  	bl	0x480a0 <_ZN6ChiLog9LogSystemEPKcS1_S1_S1_iS1_z@plt>
   24710: a1 02 00 54  	b.ne	0x24764 <_ZN23ChiFeature2HWmultiframe11OnDumpEventEimjP24ChiFeature2RequestObject+0x4b4>
   24748: fb fe ff 17  	b	0x24334 <_ZN23ChiFeature2HWmultiframe11OnDumpEventEimjP24ChiFeature2RequestObject+0x84>
   24760: fe fe ff 17  	b	0x24358 <_ZN23ChiFeature2HWmultiframe11OnDumpEventEimjP24ChiFeature2RequestObject+0xa8>
   2476c: 5a ff ff 90  	adrp	x26, 0xc000 <_ZN23ChiFeature2HWmultiframe11OnDumpEventEimjP24ChiFeature2RequestObject+0x45c>
   24770: 7b ff ff f0  	adrp	x27, 0x13000 <_ZN23ChiFeature2HWmultiframe11OnDumpEventEimjP24ChiFeature2RequestObject+0x47c>
   2478c: 61 8e 00 94  	bl	0x48110 <_ZN8ChxUtils7DPrintFEiPKcz@plt>
   24790: 61 ff ff f0  	adrp	x1, 0x13000 <_ZN23ChiFeature2HWmultiframe11OnDumpEventEimjP24ChiFeature2RequestObject+0x49c>
   247a4: 5b 8e 00 94  	bl	0x48110 <_ZN8ChxUtils7DPrintFEiPKcz@plt>
   247b8: 56 8e 00 94  	bl	0x48110 <_ZN8ChxUtils7DPrintFEiPKcz@plt>
00000000000247c8 <_ZNK23ChiFeature2HWmultiframe16OnPrepareRequestEP24ChiFeature2RequestObject>:
   247e8: 61 15 00 b4  	cbz	x1, 0x24a94 <_ZNK23ChiFeature2HWmultiframe16OnPrepareRequestEP24ChiFeature2RequestObject+0x2cc>
   24810: e0 19 00 b4  	cbz	x0, 0x24b4c <_ZNK23ChiFeature2HWmultiframe16OnPrepareRequestEP24ChiFeature2RequestObject+0x384>
   24828: d8 30 00 34  	cbz	w24, 0x24e40 <_ZNK23ChiFeature2HWmultiframe16OnPrepareRequestEP24ChiFeature2RequestObject+0x678>
   24830: 57 ff ff d0  	adrp	x23, 0xe000 <_ZNK23ChiFeature2HWmultiframe16OnPrepareRequestEP24ChiFeature2RequestObject+0x10>
   2483c: 55 1e 00 b4  	cbz	x21, 0x24c04 <_ZNK23ChiFeature2HWmultiframe16OnPrepareRequestEP24ChiFeature2RequestObject+0x43c>
   24844: 5b 01 00 b0  	adrp	x27, 0x4d000 <_ZNK23ChiFeature2HWmultiframe16OnPrepareRequestEP24ChiFeature2RequestObject+0x120>
   24868: 16 00 00 14  	b	0x248c0 <_ZNK23ChiFeature2HWmultiframe16OnPrepareRequestEP24ChiFeature2RequestObject+0xf8>
   24880: 61 ff ff f0  	adrp	x1, 0x13000 <_ZNK23ChiFeature2HWmultiframe16OnPrepareRequestEP24ChiFeature2RequestObject+0x74>
   24888: 40 ff ff b0  	adrp	x0, 0xd000 <_ZNK23ChiFeature2HWmultiframe16OnPrepareRequestEP24ChiFeature2RequestObject+0x64>
   2488c: 63 ff ff 90  	adrp	x3, 0x10000 <_ZNK23ChiFeature2HWmultiframe16OnPrepareRequestEP24ChiFeature2RequestObject+0x74>
   24890: 65 ff ff f0  	adrp	x5, 0x13000 <_ZNK23ChiFeature2HWmultiframe16OnPrepareRequestEP24ChiFeature2RequestObject+0x84>
   248a8: fe 8d 00 94  	bl	0x480a0 <_ZN6ChiLog9LogSystemEPKcS1_S1_S1_iS1_z@plt>
   248bc: 20 2c 00 54  	b.eq	0x24e40 <_ZNK23ChiFeature2HWmultiframe16OnPrepareRequestEP24ChiFeature2RequestObject+0x678>
   248d8: 6e 00 20 36  	tbz	w14, #4, 0x248e4 <_ZNK23ChiFeature2HWmultiframe16OnPrepareRequestEP24ChiFeature2RequestObject+0x11c>
   248ec: c1 0b 00 54  	b.ne	0x24a64 <_ZNK23ChiFeature2HWmultiframe16OnPrepareRequestEP24ChiFeature2RequestObject+0x29c>
   248fc: 19 8e 00 94  	bl	0x48160 <_ZNK23ChiFeature2HWmultiframe25IsRDIRequiredInPostFilterEPKN15ChiFeature2Base22ChiFeaturePipelineDataEi@plt>
   24900: 4a 01 00 b0  	adrp	x10, 0x4d000 <_ZNK23ChiFeature2HWmultiframe16OnPrepareRequestEP24ChiFeature2RequestObject+0x1dc>
   24910: b0 05 18 36  	tbz	w16, #3, 0x249c4 <_ZNK23ChiFeature2HWmultiframe16OnPrepareRequestEP24ChiFeature2RequestObject+0x1fc>
   24914: 4f 01 00 b0  	adrp	x15, 0x4d000 <_ZNK23ChiFeature2HWmultiframe16OnPrepareRequestEP24ChiFeature2RequestObject+0x1f0>
   24924: 81 02 00 54  	b.ne	0x24974 <_ZNK23ChiFeature2HWmultiframe16OnPrepareRequestEP24ChiFeature2RequestObject+0x1ac>
   24944: 81 ff ff 90  	adrp	x1, 0x14000 <_ZNK23ChiFeature2HWmultiframe16OnPrepareRequestEP24ChiFeature2RequestObject+0x13c>
   24948: 62 ff ff b0  	adrp	x2, 0x11000 <_ZNK23ChiFeature2HWmultiframe16OnPrepareRequestEP24ChiFeature2RequestObject+0x134>
   2494c: 65 ff ff 90  	adrp	x5, 0x10000 <_ZNK23ChiFeature2HWmultiframe16OnPrepareRequestEP24ChiFeature2RequestObject+0x134>
   24994: 80 ff ff 90  	adrp	x0, 0x14000 <_ZNK23ChiFeature2HWmultiframe16OnPrepareRequestEP24ChiFeature2RequestObject+0x18c>
   24998: 61 ff ff 90  	adrp	x1, 0x10000 <_ZNK23ChiFeature2HWmultiframe16OnPrepareRequestEP24ChiFeature2RequestObject+0x180>
   2499c: 63 ff ff 90  	adrp	x3, 0x10000 <_ZNK23ChiFeature2HWmultiframe16OnPrepareRequestEP24ChiFeature2RequestObject+0x184>
   249a0: 45 ff ff 90  	adrp	x5, 0xc000 <_ZNK23ChiFeature2HWmultiframe16OnPrepareRequestEP24ChiFeature2RequestObject+0x178>
   249c0: b8 8d 00 94  	bl	0x480a0 <_ZN6ChiLog9LogSystemEPKcS1_S1_S1_iS1_z@plt>
   249c8: 48 01 00 b0  	adrp	x8, 0x4d000 <_ZNK23ChiFeature2HWmultiframe16OnPrepareRequestEP24ChiFeature2RequestObject+0x2a4>
   249d8: 21 05 00 54  	b.ne	0x24a7c <_ZNK23ChiFeature2HWmultiframe16OnPrepareRequestEP24ChiFeature2RequestObject+0x2b4>
   249f4: df 8d 00 94  	bl	0x48170 <_ZN11ChiMetadata6CreateEPKjjbP18ChiMetadataManagerj@plt>
   249fc: 80 f5 ff b5  	cbnz	x0, 0x248ac <_ZNK23ChiFeature2HWmultiframe16OnPrepareRequestEP24ChiFeature2RequestObject+0xe4>
   24a00: 4c 01 00 b0  	adrp	x12, 0x4d000 <_ZNK23ChiFeature2HWmultiframe16OnPrepareRequestEP24ChiFeature2RequestObject+0x2dc>
   24a0c: 02 f5 07 36  	tbz	w2, #0, 0x248ac <_ZNK23ChiFeature2HWmultiframe16OnPrepareRequestEP24ChiFeature2RequestObject+0xe4>
   24a10: 4e 01 00 b0  	adrp	x14, 0x4d000 <_ZNK23ChiFeature2HWmultiframe16OnPrepareRequestEP24ChiFeature2RequestObject+0x2ec>
   24a20: 61 f2 ff 54  	b.ne	0x2486c <_ZNK23ChiFeature2HWmultiframe16OnPrepareRequestEP24ChiFeature2RequestObject+0xa4>
   24a38: 81 ff ff 90  	adrp	x1, 0x14000 <_ZNK23ChiFeature2HWmultiframe16OnPrepareRequestEP24ChiFeature2RequestObject+0x230>
   24a3c: 62 ff ff f0  	adrp	x2, 0x13000 <_ZNK23ChiFeature2HWmultiframe16OnPrepareRequestEP24ChiFeature2RequestObject+0x230>
   24a40: 65 ff ff 90  	adrp	x5, 0x10000 <_ZNK23ChiFeature2HWmultiframe16OnPrepareRequestEP24ChiFeature2RequestObject+0x228>
   24a60: 83 ff ff 17  	b	0x2486c <_ZNK23ChiFeature2HWmultiframe16OnPrepareRequestEP24ChiFeature2RequestObject+0xa4>
   24a78: 9e ff ff 17  	b	0x248f0 <_ZNK23ChiFeature2HWmultiframe16OnPrepareRequestEP24ChiFeature2RequestObject+0x128>
   24a90: d3 ff ff 17  	b	0x249dc <_ZNK23ChiFeature2HWmultiframe16OnPrepareRequestEP24ChiFeature2RequestObject+0x214>
   24a94: 45 01 00 b0  	adrp	x5, 0x4d000 <_ZNK23ChiFeature2HWmultiframe16OnPrepareRequestEP24ChiFeature2RequestObject+0x370>
   24aa0: 20 05 00 36  	tbz	w0, #0, 0x24b44 <_ZNK23ChiFeature2HWmultiframe16OnPrepareRequestEP24ChiFeature2RequestObject+0x37c>
   24aa4: 46 01 00 b0  	adrp	x6, 0x4d000 <_ZNK23ChiFeature2HWmultiframe16OnPrepareRequestEP24ChiFeature2RequestObject+0x380>
   24ab4: 41 02 00 54  	b.ne	0x24afc <_ZNK23ChiFeature2HWmultiframe16OnPrepareRequestEP24ChiFeature2RequestObject+0x334>
   24ab8: 59 ff ff d0  	adrp	x25, 0xe000 <_ZNK23ChiFeature2HWmultiframe16OnPrepareRequestEP24ChiFeature2RequestObject+0x298>
   24ad4: 81 ff ff 90  	adrp	x1, 0x14000 <_ZNK23ChiFeature2HWmultiframe16OnPrepareRequestEP24ChiFeature2RequestObject+0x2cc>
   24ad8: 42 ff ff b0  	adrp	x2, 0xd000 <_ZNK23ChiFeature2HWmultiframe16OnPrepareRequestEP24ChiFeature2RequestObject+0x2b4>
   24adc: 65 ff ff 90  	adrp	x5, 0x10000 <_ZNK23ChiFeature2HWmultiframe16OnPrepareRequestEP24ChiFeature2RequestObject+0x2c4>
   24afc: 57 ff ff d0  	adrp	x23, 0xe000 <_ZNK23ChiFeature2HWmultiframe16OnPrepareRequestEP24ChiFeature2RequestObject+0x2dc>
   24b18: 61 ff ff f0  	adrp	x1, 0x13000 <_ZNK23ChiFeature2HWmultiframe16OnPrepareRequestEP24ChiFeature2RequestObject+0x30c>
   24b20: 40 ff ff b0  	adrp	x0, 0xd000 <_ZNK23ChiFeature2HWmultiframe16OnPrepareRequestEP24ChiFeature2RequestObject+0x2fc>
   24b24: 63 ff ff 90  	adrp	x3, 0x10000 <_ZNK23ChiFeature2HWmultiframe16OnPrepareRequestEP24ChiFeature2RequestObject+0x30c>
   24b28: 65 ff ff d0  	adrp	x5, 0x12000 <_ZNK23ChiFeature2HWmultiframe16OnPrepareRequestEP24ChiFeature2RequestObject+0x318>
   24b40: 58 8d 00 94  	bl	0x480a0 <_ZN6ChiLog9LogSystemEPKcS1_S1_S1_iS1_z@plt>
   24b48: 02 01 00 14  	b	0x24f50 <_ZNK23ChiFeature2HWmultiframe16OnPrepareRequestEP24ChiFeature2RequestObject+0x788>
   24b4c: 4c 01 00 b0  	adrp	x12, 0x4d000 <_ZNK23ChiFeature2HWmultiframe16OnPrepareRequestEP24ChiFeature2RequestObject+0x428>
   24b58: 2c 05 00 36  	tbz	w12, #0, 0x24bfc <_ZNK23ChiFeature2HWmultiframe16OnPrepareRequestEP24ChiFeature2RequestObject+0x434>
   24b5c: 4d 01 00 b0  	adrp	x13, 0x4d000 <_ZNK23ChiFeature2HWmultiframe16OnPrepareRequestEP24ChiFeature2RequestObject+0x438>
   24b6c: 41 02 00 54  	b.ne	0x24bb4 <_ZNK23ChiFeature2HWmultiframe16OnPrepareRequestEP24ChiFeature2RequestObject+0x3ec>
   24b70: 58 ff ff d0  	adrp	x24, 0xe000 <_ZNK23ChiFeature2HWmultiframe16OnPrepareRequestEP24ChiFeature2RequestObject+0x350>
   24b8c: 81 ff ff 90  	adrp	x1, 0x14000 <_ZNK23ChiFeature2HWmultiframe16OnPrepareRequestEP24ChiFeature2RequestObject+0x384>
   24b90: 62 ff ff 90  	adrp	x2, 0x10000 <_ZNK23ChiFeature2HWmultiframe16OnPrepareRequestEP24ChiFeature2RequestObject+0x378>
   24b94: 65 ff ff 90  	adrp	x5, 0x10000 <_ZNK23ChiFeature2HWmultiframe16OnPrepareRequestEP24ChiFeature2RequestObject+0x37c>
   24bb4: 5b ff ff d0  	adrp	x27, 0xe000 <_ZNK23ChiFeature2HWmultiframe16OnPrepareRequestEP24ChiFeature2RequestObject+0x394>
   24bd0: 61 ff ff f0  	adrp	x1, 0x13000 <_ZNK23ChiFeature2HWmultiframe16OnPrepareRequestEP24ChiFeature2RequestObject+0x3c4>
   24bd8: 40 ff ff b0  	adrp	x0, 0xd000 <_ZNK23ChiFeature2HWmultiframe16OnPrepareRequestEP24ChiFeature2RequestObject+0x3b4>
   24bdc: 63 ff ff 90  	adrp	x3, 0x10000 <_ZNK23ChiFeature2HWmultiframe16OnPrepareRequestEP24ChiFeature2RequestObject+0x3c4>
   24be0: 65 ff ff b0  	adrp	x5, 0x11000 <_ZNK23ChiFeature2HWmultiframe16OnPrepareRequestEP24ChiFeature2RequestObject+0x3cc>
   24bf8: 2a 8d 00 94  	bl	0x480a0 <_ZN6ChiLog9LogSystemEPKcS1_S1_S1_iS1_z@plt>
   24c00: d4 00 00 14  	b	0x24f50 <_ZNK23ChiFeature2HWmultiframe16OnPrepareRequestEP24ChiFeature2RequestObject+0x788>
   24c08: 53 01 00 b0  	adrp	x19, 0x4d000 <_ZNK23ChiFeature2HWmultiframe16OnPrepareRequestEP24ChiFeature2RequestObject+0x4e4>
   24c30: 16 00 00 14  	b	0x24c88 <_ZNK23ChiFeature2HWmultiframe16OnPrepareRequestEP24ChiFeature2RequestObject+0x4c0>
   24c48: 61 ff ff f0  	adrp	x1, 0x13000 <_ZNK23ChiFeature2HWmultiframe16OnPrepareRequestEP24ChiFeature2RequestObject+0x43c>
   24c50: 40 ff ff b0  	adrp	x0, 0xd000 <_ZNK23ChiFeature2HWmultiframe16OnPrepareRequestEP24ChiFeature2RequestObject+0x42c>
   24c54: 63 ff ff 90  	adrp	x3, 0x10000 <_ZNK23ChiFeature2HWmultiframe16OnPrepareRequestEP24ChiFeature2RequestObject+0x43c>
   24c58: 65 ff ff f0  	adrp	x5, 0x13000 <_ZNK23ChiFeature2HWmultiframe16OnPrepareRequestEP24ChiFeature2RequestObject+0x44c>
   24c70: 0c 8d 00 94  	bl	0x480a0 <_ZN6ChiLog9LogSystemEPKcS1_S1_S1_iS1_z@plt>
   24c84: e0 0d 00 54  	b.eq	0x24e40 <_ZNK23ChiFeature2HWmultiframe16OnPrepareRequestEP24ChiFeature2RequestObject+0x678>
   24c98: c1 0b 00 54  	b.ne	0x24e10 <_ZNK23ChiFeature2HWmultiframe16OnPrepareRequestEP24ChiFeature2RequestObject+0x648>
   24ca8: 2e 8d 00 94  	bl	0x48160 <_ZNK23ChiFeature2HWmultiframe25IsRDIRequiredInPostFilterEPKN15ChiFeature2Base22ChiFeaturePipelineDataEi@plt>
   24cac: 4b 01 00 b0  	adrp	x11, 0x4d000 <_ZNK23ChiFeature2HWmultiframe16OnPrepareRequestEP24ChiFeature2RequestObject+0x588>
   24cbc: a8 05 18 36  	tbz	w8, #3, 0x24d70 <_ZNK23ChiFeature2HWmultiframe16OnPrepareRequestEP24ChiFeature2RequestObject+0x5a8>
   24cc0: 51 01 00 b0  	adrp	x17, 0x4d000 <_ZNK23ChiFeature2HWmultiframe16OnPrepareRequestEP24ChiFeature2RequestObject+0x59c>
   24cd0: 81 02 00 54  	b.ne	0x24d20 <_ZNK23ChiFeature2HWmultiframe16OnPrepareRequestEP24ChiFeature2RequestObject+0x558>
   24cf0: 81 ff ff 90  	adrp	x1, 0x14000 <_ZNK23ChiFeature2HWmultiframe16OnPrepareRequestEP24ChiFeature2RequestObject+0x4e8>
   24cf4: 62 ff ff b0  	adrp	x2, 0x11000 <_ZNK23ChiFeature2HWmultiframe16OnPrepareRequestEP24ChiFeature2RequestObject+0x4e0>
   24cf8: 65 ff ff 90  	adrp	x5, 0x10000 <_ZNK23ChiFeature2HWmultiframe16OnPrepareRequestEP24ChiFeature2RequestObject+0x4e0>
   24d40: 80 ff ff 90  	adrp	x0, 0x14000 <_ZNK23ChiFeature2HWmultiframe16OnPrepareRequestEP24ChiFeature2RequestObject+0x538>
   24d44: 61 ff ff 90  	adrp	x1, 0x10000 <_ZNK23ChiFeature2HWmultiframe16OnPrepareRequestEP24ChiFeature2RequestObject+0x52c>
   24d48: 63 ff ff 90  	adrp	x3, 0x10000 <_ZNK23ChiFeature2HWmultiframe16OnPrepareRequestEP24ChiFeature2RequestObject+0x530>
   24d4c: 45 ff ff 90  	adrp	x5, 0xc000 <_ZNK23ChiFeature2HWmultiframe16OnPrepareRequestEP24ChiFeature2RequestObject+0x524>
   24d6c: cd 8c 00 94  	bl	0x480a0 <_ZN6ChiLog9LogSystemEPKcS1_S1_S1_iS1_z@plt>
   24d74: 49 01 00 b0  	adrp	x9, 0x4d000 <_ZNK23ChiFeature2HWmultiframe16OnPrepareRequestEP24ChiFeature2RequestObject+0x650>
   24d84: 21 05 00 54  	b.ne	0x24e28 <_ZNK23ChiFeature2HWmultiframe16OnPrepareRequestEP24ChiFeature2RequestObject+0x660>
   24da0: f4 8c 00 94  	bl	0x48170 <_ZN11ChiMetadata6CreateEPKjjbP18ChiMetadataManagerj@plt>
   24da8: 60 f6 ff b5  	cbnz	x0, 0x24c74 <_ZNK23ChiFeature2HWmultiframe16OnPrepareRequestEP24ChiFeature2RequestObject+0x4ac>
   24dac: 4d 01 00 b0  	adrp	x13, 0x4d000 <_ZNK23ChiFeature2HWmultiframe16OnPrepareRequestEP24ChiFeature2RequestObject+0x688>
   24db8: eb f5 07 36  	tbz	w11, #0, 0x24c74 <_ZNK23ChiFeature2HWmultiframe16OnPrepareRequestEP24ChiFeature2RequestObject+0x4ac>
   24dbc: 50 01 00 b0  	adrp	x16, 0x4d000 <_ZNK23ChiFeature2HWmultiframe16OnPrepareRequestEP24ChiFeature2RequestObject+0x698>
   24dcc: 41 f3 ff 54  	b.ne	0x24c34 <_ZNK23ChiFeature2HWmultiframe16OnPrepareRequestEP24ChiFeature2RequestObject+0x46c>
   24de4: 81 ff ff 90  	adrp	x1, 0x14000 <_ZNK23ChiFeature2HWmultiframe16OnPrepareRequestEP24ChiFeature2RequestObject+0x5dc>
   24de8: 62 ff ff f0  	adrp	x2, 0x13000 <_ZNK23ChiFeature2HWmultiframe16OnPrepareRequestEP24ChiFeature2RequestObject+0x5dc>
   24dec: 65 ff ff 90  	adrp	x5, 0x10000 <_ZNK23ChiFeature2HWmultiframe16OnPrepareRequestEP24ChiFeature2RequestObject+0x5d4>
   24e0c: 8a ff ff 17  	b	0x24c34 <_ZNK23ChiFeature2HWmultiframe16OnPrepareRequestEP24ChiFeature2RequestObject+0x46c>
   24e24: 9e ff ff 17  	b	0x24c9c <_ZNK23ChiFeature2HWmultiframe16OnPrepareRequestEP24ChiFeature2RequestObject+0x4d4>
   24e3c: d3 ff ff 17  	b	0x24d88 <_ZNK23ChiFeature2HWmultiframe16OnPrepareRequestEP24ChiFeature2RequestObject+0x5c0>
   24e44: 56 01 00 b0  	adrp	x22, 0x4d000 <_ZNK23ChiFeature2HWmultiframe16OnPrepareRequestEP24ChiFeature2RequestObject+0x720>
   24e54: 61 0e 00 54  	b.ne	0x25020 <_ZNK23ChiFeature2HWmultiframe16OnPrepareRequestEP24ChiFeature2RequestObject+0x858>
   24e6c: c5 8c 00 94  	bl	0x48180 <_ZNK15ChiFeature2Base21SetFeaturePrivContextEP24ChiFeature2RequestObjectPv@plt>
   24e78: 01 0e 00 54  	b.ne	0x25038 <_ZNK23ChiFeature2HWmultiframe16OnPrepareRequestEP24ChiFeature2RequestObject+0x870>
   24e80: 5a 01 00 b0  	adrp	x26, 0x4d000 <_ZNK23ChiFeature2HWmultiframe16OnPrepareRequestEP24ChiFeature2RequestObject+0x75c>
   24e94: 01 0e 00 54  	b.ne	0x25054 <_ZNK23ChiFeature2HWmultiframe16OnPrepareRequestEP24ChiFeature2RequestObject+0x88c>
   24ea4: 61 0e 00 54  	b.ne	0x25070 <_ZNK23ChiFeature2HWmultiframe16OnPrepareRequestEP24ChiFeature2RequestObject+0x8a8>
   24eb8: b6 8c 00 94  	bl	0x48190 <_ZN24ChiFeature2RequestObject33GetInterFeatureRequestPrivateDataEjjj@plt>
   24ebc: 60 00 00 b4  	cbz	x0, 0x24ec8 <_ZNK23ChiFeature2HWmultiframe16OnPrepareRequestEP24ChiFeature2RequestObject+0x700>
   24ec4: 23 00 00 14  	b	0x24f50 <_ZNK23ChiFeature2HWmultiframe16OnPrepareRequestEP24ChiFeature2RequestObject+0x788>
   24ed0: 00 05 00 b4  	cbz	x0, 0x24f70 <_ZNK23ChiFeature2HWmultiframe16OnPrepareRequestEP24ChiFeature2RequestObject+0x7a8>
   24ee4: 54 01 00 b0  	adrp	x20, 0x4d000 <_ZNK23ChiFeature2HWmultiframe16OnPrepareRequestEP24ChiFeature2RequestObject+0x7c0>
   24f04: 41 0c 00 54  	b.ne	0x2508c <_ZNK23ChiFeature2HWmultiframe16OnPrepareRequestEP24ChiFeature2RequestObject+0x8c4>
   24f14: a1 0c 00 54  	b.ne	0x250a8 <_ZNK23ChiFeature2HWmultiframe16OnPrepareRequestEP24ChiFeature2RequestObject+0x8e0>
   24f1c: 40 01 00 b0  	adrp	x0, 0x4d000 <_ZNK23ChiFeature2HWmultiframe16OnPrepareRequestEP24ChiFeature2RequestObject+0x7f8>
   24f30: a1 0c 00 54  	b.ne	0x250c4 <_ZNK23ChiFeature2HWmultiframe16OnPrepareRequestEP24ChiFeature2RequestObject+0x8fc>
   24f48: 96 8c 00 94  	bl	0x481a0 <_ZN24ChiFeature2RequestObject33SetInterFeatureRequestPrivateDataEjjjPv@plt>
   24f70: 41 01 00 b0  	adrp	x1, 0x4d000 <_ZNK23ChiFeature2HWmultiframe16OnPrepareRequestEP24ChiFeature2RequestObject+0x84c>
   24f7c: 06 e4 07 36  	tbz	w6, #0, 0x24bfc <_ZNK23ChiFeature2HWmultiframe16OnPrepareRequestEP24ChiFeature2RequestObject+0x434>
   24f80: 44 01 00 b0  	adrp	x4, 0x4d000 <_ZNK23ChiFeature2HWmultiframe16OnPrepareRequestEP24ChiFeature2RequestObject+0x85c>
   24f90: 41 02 00 54  	b.ne	0x24fd8 <_ZNK23ChiFeature2HWmultiframe16OnPrepareRequestEP24ChiFeature2RequestObject+0x810>
   24f94: 5a ff ff d0  	adrp	x26, 0xe000 <_ZNK23ChiFeature2HWmultiframe16OnPrepareRequestEP24ChiFeature2RequestObject+0x774>
   24fb0: 81 ff ff 90  	adrp	x1, 0x14000 <_ZNK23ChiFeature2HWmultiframe16OnPrepareRequestEP24ChiFeature2RequestObject+0x7a8>
   24fb4: 62 ff ff 90  	adrp	x2, 0x10000 <_ZNK23ChiFeature2HWmultiframe16OnPrepareRequestEP24ChiFeature2RequestObject+0x79c>
   24fb8: 65 ff ff 90  	adrp	x5, 0x10000 <_ZNK23ChiFeature2HWmultiframe16OnPrepareRequestEP24ChiFeature2RequestObject+0x7a0>
   24fd8: 55 ff ff d0  	adrp	x21, 0xe000 <_ZNK23ChiFeature2HWmultiframe16OnPrepareRequestEP24ChiFeature2RequestObject+0x7b8>
   24ff4: 61 ff ff f0  	adrp	x1, 0x13000 <_ZNK23ChiFeature2HWmultiframe16OnPrepareRequestEP24ChiFeature2RequestObject+0x7e8>
   24ffc: 40 ff ff b0  	adrp	x0, 0xd000 <_ZNK23ChiFeature2HWmultiframe16OnPrepareRequestEP24ChiFeature2RequestObject+0x7d8>
   25000: 43 ff ff f0  	adrp	x3, 0x10000 <_ZNK23ChiFeature2HWmultiframe16OnPrepareRequestEP24ChiFeature2RequestObject+0x7e4>
   25004: 45 ff ff f0  	adrp	x5, 0x10000 <_ZNK23ChiFeature2HWmultiframe16OnPrepareRequestEP24ChiFeature2RequestObject+0x7e8>
   2501c: f7 fe ff 17  	b	0x24bf8 <_ZNK23ChiFeature2HWmultiframe16OnPrepareRequestEP24ChiFeature2RequestObject+0x430>
   25034: 89 ff ff 17  	b	0x24e58 <_ZNK23ChiFeature2HWmultiframe16OnPrepareRequestEP24ChiFeature2RequestObject+0x690>
   25050: 8b ff ff 17  	b	0x24e7c <_ZNK23ChiFeature2HWmultiframe16OnPrepareRequestEP24ChiFeature2RequestObject+0x6b4>
   2506c: 8b ff ff 17  	b	0x24e98 <_ZNK23ChiFeature2HWmultiframe16OnPrepareRequestEP24ChiFeature2RequestObject+0x6d0>
   25088: 88 ff ff 17  	b	0x24ea8 <_ZNK23ChiFeature2HWmultiframe16OnPrepareRequestEP24ChiFeature2RequestObject+0x6e0>
   250a4: 99 ff ff 17  	b	0x24f08 <_ZNK23ChiFeature2HWmultiframe16OnPrepareRequestEP24ChiFeature2RequestObject+0x740>
   250c0: 96 ff ff 17  	b	0x24f18 <_ZNK23ChiFeature2HWmultiframe16OnPrepareRequestEP24ChiFeature2RequestObject+0x750>
   250dc: 96 ff ff 17  	b	0x24f34 <_ZNK23ChiFeature2HWmultiframe16OnPrepareRequestEP24ChiFeature2RequestObject+0x76c>
00000000000250e0 <_ZNK23ChiFeature2HWmultiframe23OnExecuteProcessRequestEP24ChiFeature2RequestObject>:
   25110: e1 04 00 b4  	cbz	x1, 0x251ac <_ZNK23ChiFeature2HWmultiframe23OnExecuteProcessRequestEP24ChiFeature2RequestObject+0xcc>
   2511c: 5c 01 00 90  	adrp	x28, 0x4d000 <_ZNK23ChiFeature2HWmultiframe23OnExecuteProcessRequestEP24ChiFeature2RequestObject+0xdc>
   25130: 81 3b 00 54  	b.ne	0x258a0 <_ZNK23ChiFeature2HWmultiframe23OnExecuteProcessRequestEP24ChiFeature2RequestObject+0x7c0>
   25140: 1c 8c 00 94  	bl	0x481b0 <_ZNK15ChiFeature2Base19GetCurrentStageInfoEP24ChiFeature2RequestObjectP20ChiFeature2StageInfo@plt>
   25144: e0 08 00 35  	cbnz	w0, 0x25260 <_ZNK23ChiFeature2HWmultiframe23OnExecuteProcessRequestEP24ChiFeature2RequestObject+0x180>
   25158: c8 09 00 54  	b.hi	0x25290 <_ZNK23ChiFeature2HWmultiframe23OnExecuteProcessRequestEP24ChiFeature2RequestObject+0x1b0>
   2515c: 89 ff ff 90  	adrp	x9, 0x15000 <_ZNK23ChiFeature2HWmultiframe23OnExecuteProcessRequestEP24ChiFeature2RequestObject+0x3c>
   2517c: 41 37 00 54  	b.ne	0x25864 <_ZNK23ChiFeature2HWmultiframe23OnExecuteProcessRequestEP24ChiFeature2RequestObject+0x784>
   2518c: a1 3b 00 54  	b.ne	0x25900 <_ZNK23ChiFeature2HWmultiframe23OnExecuteProcessRequestEP24ChiFeature2RequestObject+0x820>
   251a4: 0b 8c 00 94  	bl	0x481d0 <_ZNK23ChiFeature2HWmultiframe25ProcessHWMFPrefilterStageEP24ChiFeature2RequestObjecthhh@plt>
   251a8: 2e 00 00 14  	b	0x25260 <_ZNK23ChiFeature2HWmultiframe23OnExecuteProcessRequestEP24ChiFeature2RequestObject+0x180>
   251ac: 53 01 00 90  	adrp	x19, 0x4d000 <_ZNK23ChiFeature2HWmultiframe23OnExecuteProcessRequestEP24ChiFeature2RequestObject+0x16c>
   251b8: 34 05 00 36  	tbz	w20, #0, 0x2525c <_ZNK23ChiFeature2HWmultiframe23OnExecuteProcessRequestEP24ChiFeature2RequestObject+0x17c>
   251bc: 55 01 00 90  	adrp	x21, 0x4d000 <_ZNK23ChiFeature2HWmultiframe23OnExecuteProcessRequestEP24ChiFeature2RequestObject+0x17c>
   251cc: 41 02 00 54  	b.ne	0x25214 <_ZNK23ChiFeature2HWmultiframe23OnExecuteProcessRequestEP24ChiFeature2RequestObject+0x134>
   251d0: 57 ff ff b0  	adrp	x23, 0xe000 <_ZNK23ChiFeature2HWmultiframe23OnExecuteProcessRequestEP24ChiFeature2RequestObject+0x94>
   251ec: 61 ff ff f0  	adrp	x1, 0x14000 <_ZNK23ChiFeature2HWmultiframe23OnExecuteProcessRequestEP24ChiFeature2RequestObject+0xc8>
   251f0: 42 ff ff 90  	adrp	x2, 0xd000 <_ZNK23ChiFeature2HWmultiframe23OnExecuteProcessRequestEP24ChiFeature2RequestObject+0xb0>
   251f4: 65 ff ff d0  	adrp	x5, 0x13000 <_ZNK23ChiFeature2HWmultiframe23OnExecuteProcessRequestEP24ChiFeature2RequestObject+0xcc>
   25214: 5a ff ff b0  	adrp	x26, 0xe000 <_ZNK23ChiFeature2HWmultiframe23OnExecuteProcessRequestEP24ChiFeature2RequestObject+0xd8>
   25230: 61 ff ff d0  	adrp	x1, 0x13000 <_ZNK23ChiFeature2HWmultiframe23OnExecuteProcessRequestEP24ChiFeature2RequestObject+0x108>
   25238: 40 ff ff 90  	adrp	x0, 0xd000 <_ZNK23ChiFeature2HWmultiframe23OnExecuteProcessRequestEP24ChiFeature2RequestObject+0xf8>
   2523c: 63 ff ff d0  	adrp	x3, 0x13000 <_ZNK23ChiFeature2HWmultiframe23OnExecuteProcessRequestEP24ChiFeature2RequestObject+0x114>
   25240: 65 ff ff b0  	adrp	x5, 0x12000 <_ZNK23ChiFeature2HWmultiframe23OnExecuteProcessRequestEP24ChiFeature2RequestObject+0x114>
   25258: 92 8b 00 94  	bl	0x480a0 <_ZN6ChiLog9LogSystemEPKcS1_S1_S1_iS1_z@plt>
   2526c: 01 3d 00 54  	b.ne	0x25a0c <_ZNK23ChiFeature2HWmultiframe23OnExecuteProcessRequestEP24ChiFeature2RequestObject+0x92c>
   25290: 59 01 00 90  	adrp	x25, 0x4d000 <_ZNK23ChiFeature2HWmultiframe23OnExecuteProcessRequestEP24ChiFeature2RequestObject+0x250>
   2529c: 01 11 00 54  	b.ne	0x254bc <_ZNK23ChiFeature2HWmultiframe23OnExecuteProcessRequestEP24ChiFeature2RequestObject+0x3dc>
   252a4: 68 05 18 36  	tbz	w8, #3, 0x25350 <_ZNK23ChiFeature2HWmultiframe23OnExecuteProcessRequestEP24ChiFeature2RequestObject+0x270>
   252a8: 4d 01 00 90  	adrp	x13, 0x4d000 <_ZNK23ChiFeature2HWmultiframe23OnExecuteProcessRequestEP24ChiFeature2RequestObject+0x268>
   252b8: 61 02 00 54  	b.ne	0x25304 <_ZNK23ChiFeature2HWmultiframe23OnExecuteProcessRequestEP24ChiFeature2RequestObject+0x224>
   252bc: 5a ff ff b0  	adrp	x26, 0xe000 <_ZNK23ChiFeature2HWmultiframe23OnExecuteProcessRequestEP24ChiFeature2RequestObject+0x180>
   252d8: 61 ff ff f0  	adrp	x1, 0x14000 <_ZNK23ChiFeature2HWmultiframe23OnExecuteProcessRequestEP24ChiFeature2RequestObject+0x1b4>
   252dc: 42 ff ff f0  	adrp	x2, 0x10000 <_ZNK23ChiFeature2HWmultiframe23OnExecuteProcessRequestEP24ChiFeature2RequestObject+0x1a8>
   252e0: 65 ff ff d0  	adrp	x5, 0x13000 <_ZNK23ChiFeature2HWmultiframe23OnExecuteProcessRequestEP24ChiFeature2RequestObject+0x1b8>
   25304: 5a ff ff b0  	adrp	x26, 0xe000 <_ZNK23ChiFeature2HWmultiframe23OnExecuteProcessRequestEP24ChiFeature2RequestObject+0x1c8>
   25320: 41 ff ff f0  	adrp	x1, 0x10000 <_ZNK23ChiFeature2HWmultiframe23OnExecuteProcessRequestEP24ChiFeature2RequestObject+0x1ec>
   25328: 60 ff ff f0  	adrp	x0, 0x14000 <_ZNK23ChiFeature2HWmultiframe23OnExecuteProcessRequestEP24ChiFeature2RequestObject+0x204>
   2532c: 63 ff ff d0  	adrp	x3, 0x13000 <_ZNK23ChiFeature2HWmultiframe23OnExecuteProcessRequestEP24ChiFeature2RequestObject+0x204>
   25330: 65 ff ff b0  	adrp	x5, 0x12000 <_ZNK23ChiFeature2HWmultiframe23OnExecuteProcessRequestEP24ChiFeature2RequestObject+0x204>
   2534c: 55 8b 00 94  	bl	0x480a0 <_ZN6ChiLog9LogSystemEPKcS1_S1_S1_iS1_z@plt>
   2535c: e1 2a 00 54  	b.ne	0x258b8 <_ZNK23ChiFeature2HWmultiframe23OnExecuteProcessRequestEP24ChiFeature2RequestObject+0x7d8>
   2536c: 9d 8b 00 94  	bl	0x481e0 <_ZNK15ChiFeature2Base13SetConfigInfoEP24ChiFeature2RequestObjectj@plt>
   25374: 09 01 00 34  	cbz	w9, 0x25394 <_ZNK23ChiFeature2HWmultiframe23OnExecuteProcessRequestEP24ChiFeature2RequestObject+0x2b4>
   25384: 21 2e 00 54  	b.ne	0x25948 <_ZNK23ChiFeature2HWmultiframe23OnExecuteProcessRequestEP24ChiFeature2RequestObject+0x868>
   25390: 98 8b 00 94  	bl	0x481f0 <_ZNK23ChiFeature2HWmultiframe22PrepareAllDependenciesEP24ChiFeature2RequestObject@plt>
   253a0: 81 29 00 54  	b.ne	0x258d0 <_ZNK23ChiFeature2HWmultiframe23OnExecuteProcessRequestEP24ChiFeature2RequestObject+0x7f0>
   253ac: 35 1f 00 94  	bl	0x2d080 <_ZNK23ChiFeature2HWmultiframe22PrepareAllDependenciesEP24ChiFeature2RequestObject+0x448>
   253b0: 80 f5 ff b4  	cbz	x0, 0x25260 <_ZNK23ChiFeature2HWmultiframe23OnExecuteProcessRequestEP24ChiFeature2RequestObject+0x180>
   253c4: e1 2c 00 54  	b.ne	0x25960 <_ZNK23ChiFeature2HWmultiframe23OnExecuteProcessRequestEP24ChiFeature2RequestObject+0x880>
   253d0: 61 2d 00 54  	b.ne	0x2597c <_ZNK23ChiFeature2HWmultiframe23OnExecuteProcessRequestEP24ChiFeature2RequestObject+0x89c>
   253dc: 39 8b 00 94  	bl	0x480c0 <_ZNK15ChiFeature2Base21GetFeaturePrivContextEP24ChiFeature2RequestObject@plt>
   253e0: c0 0f 00 b4  	cbz	x0, 0x255d8 <_ZNK23ChiFeature2HWmultiframe23OnExecuteProcessRequestEP24ChiFeature2RequestObject+0x4f8>
   253ec: 62 0f 00 54  	b.hs	0x255d8 <_ZNK23ChiFeature2HWmultiframe23OnExecuteProcessRequestEP24ChiFeature2RequestObject+0x4f8>
   25408: 0b 14 00 34  	cbz	w11, 0x25688 <_ZNK23ChiFeature2HWmultiframe23OnExecuteProcessRequestEP24ChiFeature2RequestObject+0x5a8>
   25418: e1 2b 00 54  	b.ne	0x25994 <_ZNK23ChiFeature2HWmultiframe23OnExecuteProcessRequestEP24ChiFeature2RequestObject+0x8b4>
   25430: 74 8b 00 94  	bl	0x48200 <_ZNK15ChiFeature2Base35SetNextStageInfoFromStageDescriptorEP24ChiFeature2RequestObjectPK26ChiFeature2StageDescriptorhh@plt>
   2543c: 81 2b 00 54  	b.ne	0x259ac <_ZNK23ChiFeature2HWmultiframe23OnExecuteProcessRequestEP24ChiFeature2RequestObject+0x8cc>
   25454: 6f 8b 00 94  	bl	0x48210 <_ZNK15ChiFeature2Base36GetDependencyListFromStageDescriptorEPK26ChiFeature2StageDescriptorhhh@plt>
   25458: 80 01 00 b4  	cbz	x0, 0x25488 <_ZNK23ChiFeature2HWmultiframe23OnExecuteProcessRequestEP24ChiFeature2RequestObject+0x3a8>
   2546c: c1 2a 00 54  	b.ne	0x259c4 <_ZNK23ChiFeature2HWmultiframe23OnExecuteProcessRequestEP24ChiFeature2RequestObject+0x8e4>
   25484: 67 8b 00 94  	bl	0x48220 <_ZNK15ChiFeature2Base23PopulateStageDependencyEP24ChiFeature2RequestObjecthPK26ChiFeature2InputDependencyh@plt>
   2548c: c0 00 00 14  	b	0x2578c <_ZNK23ChiFeature2HWmultiframe23OnExecuteProcessRequestEP24ChiFeature2RequestObject+0x6ac>
   2549c: 61 22 00 54  	b.ne	0x258e8 <_ZNK23ChiFeature2HWmultiframe23OnExecuteProcessRequestEP24ChiFeature2RequestObject+0x808>
   254b4: 5f 8b 00 94  	bl	0x48230 <_ZNK23ChiFeature2HWmultiframe25ProcessHWMFBlendLoopStageEP24ChiFeature2RequestObjecthhh@plt>
   254b8: 6a ff ff 17  	b	0x25260 <_ZNK23ChiFeature2HWmultiframe23OnExecuteProcessRequestEP24ChiFeature2RequestObject+0x180>
   254c0: a7 16 00 36  	tbz	w7, #0, 0x25794 <_ZNK23ChiFeature2HWmultiframe23OnExecuteProcessRequestEP24ChiFeature2RequestObject+0x6b4>
   254c4: 47 01 00 90  	adrp	x7, 0x4d000 <_ZNK23ChiFeature2HWmultiframe23OnExecuteProcessRequestEP24ChiFeature2RequestObject+0x484>
   254c8: 57 ff ff b0  	adrp	x23, 0xe000 <_ZNK23ChiFeature2HWmultiframe23OnExecuteProcessRequestEP24ChiFeature2RequestObject+0x38c>
   254dc: 21 02 00 54  	b.ne	0x25520 <_ZNK23ChiFeature2HWmultiframe23OnExecuteProcessRequestEP24ChiFeature2RequestObject+0x440>
   254f4: 61 ff ff f0  	adrp	x1, 0x14000 <_ZNK23ChiFeature2HWmultiframe23OnExecuteProcessRequestEP24ChiFeature2RequestObject+0x3d0>
   254f8: 62 ff ff b0  	adrp	x2, 0x12000 <_ZNK23ChiFeature2HWmultiframe23OnExecuteProcessRequestEP24ChiFeature2RequestObject+0x3cc>
   254fc: 65 ff ff d0  	adrp	x5, 0x13000 <_ZNK23ChiFeature2HWmultiframe23OnExecuteProcessRequestEP24ChiFeature2RequestObject+0x3d4>
   25534: 61 ff ff d0  	adrp	x1, 0x13000 <_ZNK23ChiFeature2HWmultiframe23OnExecuteProcessRequestEP24ChiFeature2RequestObject+0x40c>
   2553c: 40 ff ff 90  	adrp	x0, 0xd000 <_ZNK23ChiFeature2HWmultiframe23OnExecuteProcessRequestEP24ChiFeature2RequestObject+0x3fc>
   25540: 63 ff ff d0  	adrp	x3, 0x13000 <_ZNK23ChiFeature2HWmultiframe23OnExecuteProcessRequestEP24ChiFeature2RequestObject+0x418>
   25544: 45 ff ff d0  	adrp	x5, 0xf000 <_ZNK23ChiFeature2HWmultiframe23OnExecuteProcessRequestEP24ChiFeature2RequestObject+0x40c>
   25560: d0 8a 00 94  	bl	0x480a0 <_ZN6ChiLog9LogSystemEPKcS1_S1_S1_iS1_z@plt>
   25568: 3e ff ff 17  	b	0x25260 <_ZNK23ChiFeature2HWmultiframe23OnExecuteProcessRequestEP24ChiFeature2RequestObject+0x180>
   25574: 21 18 00 54  	b.ne	0x25878 <_ZNK23ChiFeature2HWmultiframe23OnExecuteProcessRequestEP24ChiFeature2RequestObject+0x798>
   25584: a1 1c 00 54  	b.ne	0x25918 <_ZNK23ChiFeature2HWmultiframe23OnExecuteProcessRequestEP24ChiFeature2RequestObject+0x838>
   2559c: 29 8b 00 94  	bl	0x48240 <_ZNK23ChiFeature2HWmultiframe25ProcessHWMFBlendInitStageEP24ChiFeature2RequestObjecthhh@plt>
   255a0: 30 ff ff 17  	b	0x25260 <_ZNK23ChiFeature2HWmultiframe23OnExecuteProcessRequestEP24ChiFeature2RequestObject+0x180>
   255ac: 01 17 00 54  	b.ne	0x2588c <_ZNK23ChiFeature2HWmultiframe23OnExecuteProcessRequestEP24ChiFeature2RequestObject+0x7ac>
   255bc: a1 1b 00 54  	b.ne	0x25930 <_ZNK23ChiFeature2HWmultiframe23OnExecuteProcessRequestEP24ChiFeature2RequestObject+0x850>
   255d0: 20 8b 00 94  	bl	0x48250 <_ZNK23ChiFeature2HWmultiframe26ProcessHWMFPostfilterStageEP24ChiFeature2RequestObjecthhh@plt>
   255d4: 23 ff ff 17  	b	0x25260 <_ZNK23ChiFeature2HWmultiframe23OnExecuteProcessRequestEP24ChiFeature2RequestObject+0x180>
   255dc: c5 0d 00 36  	tbz	w5, #0, 0x25794 <_ZNK23ChiFeature2HWmultiframe23OnExecuteProcessRequestEP24ChiFeature2RequestObject+0x6b4>
   255e0: 42 01 00 90  	adrp	x2, 0x4d000 <_ZNK23ChiFeature2HWmultiframe23OnExecuteProcessRequestEP24ChiFeature2RequestObject+0x5a0>
   255f0: 41 02 00 54  	b.ne	0x25638 <_ZNK23ChiFeature2HWmultiframe23OnExecuteProcessRequestEP24ChiFeature2RequestObject+0x558>
   255f4: 57 ff ff b0  	adrp	x23, 0xe000 <_ZNK23ChiFeature2HWmultiframe23OnExecuteProcessRequestEP24ChiFeature2RequestObject+0x4b8>
   25610: 61 ff ff f0  	adrp	x1, 0x14000 <_ZNK23ChiFeature2HWmultiframe23OnExecuteProcessRequestEP24ChiFeature2RequestObject+0x4ec>
   25614: 42 ff ff b0  	adrp	x2, 0xe000 <_ZNK23ChiFeature2HWmultiframe23OnExecuteProcessRequestEP24ChiFeature2RequestObject+0x4d8>
   25618: 65 ff ff d0  	adrp	x5, 0x13000 <_ZNK23ChiFeature2HWmultiframe23OnExecuteProcessRequestEP24ChiFeature2RequestObject+0x4f0>
   25638: 5a ff ff b0  	adrp	x26, 0xe000 <_ZNK23ChiFeature2HWmultiframe23OnExecuteProcessRequestEP24ChiFeature2RequestObject+0x4fc>
   25654: 61 ff ff d0  	adrp	x1, 0x13000 <_ZNK23ChiFeature2HWmultiframe23OnExecuteProcessRequestEP24ChiFeature2RequestObject+0x52c>
   2565c: 40 ff ff 90  	adrp	x0, 0xd000 <_ZNK23ChiFeature2HWmultiframe23OnExecuteProcessRequestEP24ChiFeature2RequestObject+0x51c>
   25660: 63 ff ff d0  	adrp	x3, 0x13000 <_ZNK23ChiFeature2HWmultiframe23OnExecuteProcessRequestEP24ChiFeature2RequestObject+0x538>
   25664: 65 ff ff 90  	adrp	x5, 0x11000 <_ZNK23ChiFeature2HWmultiframe23OnExecuteProcessRequestEP24ChiFeature2RequestObject+0x534>
   2567c: 89 8a 00 94  	bl	0x480a0 <_ZN6ChiLog9LogSystemEPKcS1_S1_S1_iS1_z@plt>
   25684: f7 fe ff 17  	b	0x25260 <_ZNK23ChiFeature2HWmultiframe23OnExecuteProcessRequestEP24ChiFeature2RequestObject+0x180>
   25694: 09 02 00 b4  	cbz	x9, 0x256d4 <_ZNK23ChiFeature2HWmultiframe23OnExecuteProcessRequestEP24ChiFeature2RequestObject+0x5f4>
   2569c: cc 01 20 36  	tbz	w12, #4, 0x256d4 <_ZNK23ChiFeature2HWmultiframe23OnExecuteProcessRequestEP24ChiFeature2RequestObject+0x5f4>
   256b4: 8e 00 00 34  	cbz	w14, 0x256c4 <_ZNK23ChiFeature2HWmultiframe23OnExecuteProcessRequestEP24ChiFeature2RequestObject+0x5e4>
   256c0: 05 00 00 14  	b	0x256d4 <_ZNK23ChiFeature2HWmultiframe23OnExecuteProcessRequestEP24ChiFeature2RequestObject+0x5f4>
   256e8: a1 17 00 54  	b.ne	0x259dc <_ZNK23ChiFeature2HWmultiframe23OnExecuteProcessRequestEP24ChiFeature2RequestObject+0x8fc>
   25700: c0 8a 00 94  	bl	0x48200 <_ZNK15ChiFeature2Base35SetNextStageInfoFromStageDescriptorEP24ChiFeature2RequestObjectPK26ChiFeature2StageDescriptorhh@plt>
   2570c: 41 17 00 54  	b.ne	0x259f4 <_ZNK23ChiFeature2HWmultiframe23OnExecuteProcessRequestEP24ChiFeature2RequestObject+0x914>
   25724: bb 8a 00 94  	bl	0x48210 <_ZNK15ChiFeature2Base36GetDependencyListFromStageDescriptorEPK26ChiFeature2StageDescriptorhhh@plt>
   2572c: 18 03 00 34  	cbz	w24, 0x2578c <_ZNK23ChiFeature2HWmultiframe23OnExecuteProcessRequestEP24ChiFeature2RequestObject+0x6ac>
   25734: c0 02 00 b4  	cbz	x0, 0x2578c <_ZNK23ChiFeature2HWmultiframe23OnExecuteProcessRequestEP24ChiFeature2RequestObject+0x6ac>
   25748: 41 01 00 54  	b.ne	0x25770 <_ZNK23ChiFeature2HWmultiframe23OnExecuteProcessRequestEP24ChiFeature2RequestObject+0x690>
   2575c: c1 8a 00 94  	bl	0x48260 <_ZNK15ChiFeature2Base23PopulateDependencyPortsEP24ChiFeature2RequestObjecthPK26ChiFeature2InputDependency@plt>
   25768: c8 fe ff 54  	b.hi	0x25740 <_ZNK23ChiFeature2HWmultiframe23OnExecuteProcessRequestEP24ChiFeature2RequestObject+0x660>
   2576c: 07 00 00 14  	b	0x25788 <_ZNK23ChiFeature2HWmultiframe23OnExecuteProcessRequestEP24ChiFeature2RequestObject+0x6a8>
   25784: f2 ff ff 17  	b	0x2574c <_ZNK23ChiFeature2HWmultiframe23OnExecuteProcessRequestEP24ChiFeature2RequestObject+0x66c>
   25790: 63 00 18 37  	tbnz	w3, #3, 0x2579c <_ZNK23ChiFeature2HWmultiframe23OnExecuteProcessRequestEP24ChiFeature2RequestObject+0x6bc>
   25798: b2 fe ff 17  	b	0x25260 <_ZNK23ChiFeature2HWmultiframe23OnExecuteProcessRequestEP24ChiFeature2RequestObject+0x180>
   2579c: 41 01 00 90  	adrp	x1, 0x4d000 <_ZNK23ChiFeature2HWmultiframe23OnExecuteProcessRequestEP24ChiFeature2RequestObject+0x75c>
   257ac: c1 02 00 54  	b.ne	0x25804 <_ZNK23ChiFeature2HWmultiframe23OnExecuteProcessRequestEP24ChiFeature2RequestObject+0x724>
   257b0: 57 ff ff b0  	adrp	x23, 0xe000 <_ZNK23ChiFeature2HWmultiframe23OnExecuteProcessRequestEP24ChiFeature2RequestObject+0x674>
   257cc: 61 ff ff f0  	adrp	x1, 0x14000 <_ZNK23ChiFeature2HWmultiframe23OnExecuteProcessRequestEP24ChiFeature2RequestObject+0x6a8>
   257d0: 42 ff ff f0  	adrp	x2, 0x10000 <_ZNK23ChiFeature2HWmultiframe23OnExecuteProcessRequestEP24ChiFeature2RequestObject+0x69c>
   257d4: 65 ff ff d0  	adrp	x5, 0x13000 <_ZNK23ChiFeature2HWmultiframe23OnExecuteProcessRequestEP24ChiFeature2RequestObject+0x6ac>
   25804: 5a ff ff b0  	adrp	x26, 0xe000 <_ZNK23ChiFeature2HWmultiframe23OnExecuteProcessRequestEP24ChiFeature2RequestObject+0x6c8>
   25820: 41 ff ff f0  	adrp	x1, 0x10000 <_ZNK23ChiFeature2HWmultiframe23OnExecuteProcessRequestEP24ChiFeature2RequestObject+0x6ec>
   25828: 60 ff ff f0  	adrp	x0, 0x14000 <_ZNK23ChiFeature2HWmultiframe23OnExecuteProcessRequestEP24ChiFeature2RequestObject+0x704>
   2582c: 63 ff ff d0  	adrp	x3, 0x13000 <_ZNK23ChiFeature2HWmultiframe23OnExecuteProcessRequestEP24ChiFeature2RequestObject+0x704>
   25830: 65 ff ff b0  	adrp	x5, 0x12000 <_ZNK23ChiFeature2HWmultiframe23OnExecuteProcessRequestEP24ChiFeature2RequestObject+0x704>
   25858: 12 8a 00 94  	bl	0x480a0 <_ZN6ChiLog9LogSystemEPKcS1_S1_S1_iS1_z@plt>
   25860: 80 fe ff 17  	b	0x25260 <_ZNK23ChiFeature2HWmultiframe23OnExecuteProcessRequestEP24ChiFeature2RequestObject+0x180>
   25864: 60 ff ff b0  	adrp	x0, 0x12000 <_ZNK23ChiFeature2HWmultiframe23OnExecuteProcessRequestEP24ChiFeature2RequestObject+0x738>
   25874: 43 fe ff 17  	b	0x25180 <_ZNK23ChiFeature2HWmultiframe23OnExecuteProcessRequestEP24ChiFeature2RequestObject+0xa0>
   25878: 40 ff ff f0  	adrp	x0, 0x10000 <_ZNK23ChiFeature2HWmultiframe23OnExecuteProcessRequestEP24ChiFeature2RequestObject+0x744>
   25888: 3c ff ff 17  	b	0x25578 <_ZNK23ChiFeature2HWmultiframe23OnExecuteProcessRequestEP24ChiFeature2RequestObject+0x498>
   2588c: 40 ff ff b0  	adrp	x0, 0xe000 <_ZNK23ChiFeature2HWmultiframe23OnExecuteProcessRequestEP24ChiFeature2RequestObject+0x750>
   2589c: 45 ff ff 17  	b	0x255b0 <_ZNK23ChiFeature2HWmultiframe23OnExecuteProcessRequestEP24ChiFeature2RequestObject+0x4d0>
   258b4: 20 fe ff 17  	b	0x25134 <_ZNK23ChiFeature2HWmultiframe23OnExecuteProcessRequestEP24ChiFeature2RequestObject+0x54>
   258cc: a5 fe ff 17  	b	0x25360 <_ZNK23ChiFeature2HWmultiframe23OnExecuteProcessRequestEP24ChiFeature2RequestObject+0x280>
   258e4: b0 fe ff 17  	b	0x253a4 <_ZNK23ChiFeature2HWmultiframe23OnExecuteProcessRequestEP24ChiFeature2RequestObject+0x2c4>
   258fc: e9 fe ff 17  	b	0x254a0 <_ZNK23ChiFeature2HWmultiframe23OnExecuteProcessRequestEP24ChiFeature2RequestObject+0x3c0>
   25914: 1f fe ff 17  	b	0x25190 <_ZNK23ChiFeature2HWmultiframe23OnExecuteProcessRequestEP24ChiFeature2RequestObject+0xb0>
   2592c: 17 ff ff 17  	b	0x25588 <_ZNK23ChiFeature2HWmultiframe23OnExecuteProcessRequestEP24ChiFeature2RequestObject+0x4a8>
   25944: 1f ff ff 17  	b	0x255c0 <_ZNK23ChiFeature2HWmultiframe23OnExecuteProcessRequestEP24ChiFeature2RequestObject+0x4e0>
   2595c: 8b fe ff 17  	b	0x25388 <_ZNK23ChiFeature2HWmultiframe23OnExecuteProcessRequestEP24ChiFeature2RequestObject+0x2a8>
   25978: 94 fe ff 17  	b	0x253c8 <_ZNK23ChiFeature2HWmultiframe23OnExecuteProcessRequestEP24ChiFeature2RequestObject+0x2e8>
   25990: 91 fe ff 17  	b	0x253d4 <_ZNK23ChiFeature2HWmultiframe23OnExecuteProcessRequestEP24ChiFeature2RequestObject+0x2f4>
   259a8: 9d fe ff 17  	b	0x2541c <_ZNK23ChiFeature2HWmultiframe23OnExecuteProcessRequestEP24ChiFeature2RequestObject+0x33c>
   259c0: a0 fe ff 17  	b	0x25440 <_ZNK23ChiFeature2HWmultiframe23OnExecuteProcessRequestEP24ChiFeature2RequestObject+0x360>
   259d8: a6 fe ff 17  	b	0x25470 <_ZNK23ChiFeature2HWmultiframe23OnExecuteProcessRequestEP24ChiFeature2RequestObject+0x390>
   259f0: 3f ff ff 17  	b	0x256ec <_ZNK23ChiFeature2HWmultiframe23OnExecuteProcessRequestEP24ChiFeature2RequestObject+0x60c>
   25a08: 42 ff ff 17  	b	0x25710 <_ZNK23ChiFeature2HWmultiframe23OnExecuteProcessRequestEP24ChiFeature2RequestObject+0x630>
0000000000025a10 <_ZN23ChiFeature2HWmultiframe14OnBufferResultEP24ChiFeature2RequestObjecthP20ChiFeature2StageInfoP21ChiFeature2IdentifierPK15ChiStreamBufferjPv>:
   25a38: 5b 01 00 90  	adrp	x27, 0x4d000 <_ZN23ChiFeature2HWmultiframe14OnBufferResultEP24ChiFeature2RequestObjecthP20ChiFeature2StageInfoP21ChiFeature2IdentifierPK15ChiStreamBufferjPv+0xc8>
   25a64: a1 30 00 54  	b.ne	0x26078 <_ZN23ChiFeature2HWmultiframe14OnBufferResultEP24ChiFeature2RequestObjecthP20ChiFeature2StageInfoP21ChiFeature2IdentifierPK15ChiStreamBufferjPv+0x668>
   25a88: fe 89 00 94  	bl	0x48280 <_ZN15ChiFeature2Base14OnBufferResultEP24ChiFeature2RequestObjecthP20ChiFeature2StageInfoP21ChiFeature2IdentifierPK15ChiStreamBufferjPv@plt>
   25a8c: 5c 01 00 90  	adrp	x28, 0x4d000 <_ZN23ChiFeature2HWmultiframe14OnBufferResultEP24ChiFeature2RequestObjecthP20ChiFeature2StageInfoP21ChiFeature2IdentifierPK15ChiStreamBufferjPv+0x11c>
   25a9c: 68 07 18 36  	tbz	w8, #3, 0x25b88 <_ZN23ChiFeature2HWmultiframe14OnBufferResultEP24ChiFeature2RequestObjecthP20ChiFeature2StageInfoP21ChiFeature2IdentifierPK15ChiStreamBufferjPv+0x178>
   25aa0: 4e 01 00 90  	adrp	x14, 0x4d000 <_ZN23ChiFeature2HWmultiframe14OnBufferResultEP24ChiFeature2RequestObjecthP20ChiFeature2StageInfoP21ChiFeature2IdentifierPK15ChiStreamBufferjPv+0x130>
   25aa4: 5a ff ff b0  	adrp	x26, 0xe000 <_ZN23ChiFeature2HWmultiframe14OnBufferResultEP24ChiFeature2RequestObjecthP20ChiFeature2StageInfoP21ChiFeature2IdentifierPK15ChiStreamBufferjPv+0x38>
   25ab8: 41 03 00 54  	b.ne	0x25b20 <_ZN23ChiFeature2HWmultiframe14OnBufferResultEP24ChiFeature2RequestObjecthP20ChiFeature2StageInfoP21ChiFeature2IdentifierPK15ChiStreamBufferjPv+0x110>
   25ad8: 61 ff ff f0  	adrp	x1, 0x14000 <_ZN23ChiFeature2HWmultiframe14OnBufferResultEP24ChiFeature2RequestObjecthP20ChiFeature2StageInfoP21ChiFeature2IdentifierPK15ChiStreamBufferjPv+0x84>
   25ae0: 62 ff ff f0  	adrp	x2, 0x14000 <_ZN23ChiFeature2HWmultiframe14OnBufferResultEP24ChiFeature2RequestObjecthP20ChiFeature2StageInfoP21ChiFeature2IdentifierPK15ChiStreamBufferjPv+0x8c>
   25ae8: 45 ff ff 90  	adrp	x5, 0xd000 <_ZN23ChiFeature2HWmultiframe14OnBufferResultEP24ChiFeature2RequestObjecthP20ChiFeature2StageInfoP21ChiFeature2IdentifierPK15ChiStreamBufferjPv+0x78>
   25b44: 60 ff ff f0  	adrp	x0, 0x14000 <_ZN23ChiFeature2HWmultiframe14OnBufferResultEP24ChiFeature2RequestObjecthP20ChiFeature2StageInfoP21ChiFeature2IdentifierPK15ChiStreamBufferjPv+0xf0>
   25b4c: 41 ff ff f0  	adrp	x1, 0x10000 <_ZN23ChiFeature2HWmultiframe14OnBufferResultEP24ChiFeature2RequestObjecthP20ChiFeature2StageInfoP21ChiFeature2IdentifierPK15ChiStreamBufferjPv+0xe8>
   25b54: 43 ff ff 90  	adrp	x3, 0xd000 <_ZN23ChiFeature2HWmultiframe14OnBufferResultEP24ChiFeature2RequestObjecthP20ChiFeature2StageInfoP21ChiFeature2IdentifierPK15ChiStreamBufferjPv+0xe4>
   25b58: 45 ff ff d0  	adrp	x5, 0xf000 <_ZN23ChiFeature2HWmultiframe14OnBufferResultEP24ChiFeature2RequestObjecthP20ChiFeature2StageInfoP21ChiFeature2IdentifierPK15ChiStreamBufferjPv+0xf0>
   25b84: 47 89 00 94  	bl	0x480a0 <_ZN6ChiLog9LogSystemEPKcS1_S1_S1_iS1_z@plt>
   25b94: e1 27 00 54  	b.ne	0x26090 <_ZN23ChiFeature2HWmultiframe14OnBufferResultEP24ChiFeature2RequestObjecthP20ChiFeature2StageInfoP21ChiFeature2IdentifierPK15ChiStreamBufferjPv+0x680>
   25b9c: a1 28 00 54  	b.ne	0x260b0 <_ZN23ChiFeature2HWmultiframe14OnBufferResultEP24ChiFeature2RequestObjecthP20ChiFeature2StageInfoP21ChiFeature2IdentifierPK15ChiStreamBufferjPv+0x6a0>
   25ba8: 46 89 00 94  	bl	0x480c0 <_ZNK15ChiFeature2Base21GetFeaturePrivContextEP24ChiFeature2RequestObject@plt>
   25bac: a0 24 00 b4  	cbz	x0, 0x26040 <_ZN23ChiFeature2HWmultiframe14OnBufferResultEP24ChiFeature2RequestObjecthP20ChiFeature2StageInfoP21ChiFeature2IdentifierPK15ChiStreamBufferjPv+0x630>
   25bb8: 49 24 00 54  	b.ls	0x26040 <_ZN23ChiFeature2HWmultiframe14OnBufferResultEP24ChiFeature2RequestObjecthP20ChiFeature2StageInfoP21ChiFeature2IdentifierPK15ChiStreamBufferjPv+0x630>
   25bc4: e8 23 00 54  	b.hi	0x26040 <_ZN23ChiFeature2HWmultiframe14OnBufferResultEP24ChiFeature2RequestObjecthP20ChiFeature2StageInfoP21ChiFeature2IdentifierPK15ChiStreamBufferjPv+0x630>
   25bc8: 8a ff ff 90  	adrp	x10, 0x15000 <_ZN23ChiFeature2HWmultiframe14OnBufferResultEP24ChiFeature2RequestObjecthP20ChiFeature2StageInfoP21ChiFeature2IdentifierPK15ChiStreamBufferjPv+0x178>
   25bf8: 4b 22 00 34  	cbz	w11, 0x26040 <_ZN23ChiFeature2HWmultiframe14OnBufferResultEP24ChiFeature2RequestObjecthP20ChiFeature2StageInfoP21ChiFeature2IdentifierPK15ChiStreamBufferjPv+0x630>
   25c04: e1 21 00 54  	b.ne	0x26040 <_ZN23ChiFeature2HWmultiframe14OnBufferResultEP24ChiFeature2RequestObjecthP20ChiFeature2StageInfoP21ChiFeature2IdentifierPK15ChiStreamBufferjPv+0x630>
   25c0c: 22 07 18 36  	tbz	w2, #3, 0x25cf0 <_ZN23ChiFeature2HWmultiframe14OnBufferResultEP24ChiFeature2RequestObjecthP20ChiFeature2StageInfoP21ChiFeature2IdentifierPK15ChiStreamBufferjPv+0x2e0>
   25c10: 4f 01 00 90  	adrp	x15, 0x4d000 <_ZN23ChiFeature2HWmultiframe14OnBufferResultEP24ChiFeature2RequestObjecthP20ChiFeature2StageInfoP21ChiFeature2IdentifierPK15ChiStreamBufferjPv+0x2a0>
   25c20: 41 03 00 54  	b.ne	0x25c88 <_ZN23ChiFeature2HWmultiframe14OnBufferResultEP24ChiFeature2RequestObjecthP20ChiFeature2StageInfoP21ChiFeature2IdentifierPK15ChiStreamBufferjPv+0x278>
   25c24: 5a ff ff b0  	adrp	x26, 0xe000 <_ZN23ChiFeature2HWmultiframe14OnBufferResultEP24ChiFeature2RequestObjecthP20ChiFeature2StageInfoP21ChiFeature2IdentifierPK15ChiStreamBufferjPv+0x1b8>
   25c48: 61 ff ff f0  	adrp	x1, 0x14000 <_ZN23ChiFeature2HWmultiframe14OnBufferResultEP24ChiFeature2RequestObjecthP20ChiFeature2StageInfoP21ChiFeature2IdentifierPK15ChiStreamBufferjPv+0x1f4>
   25c50: 62 ff ff f0  	adrp	x2, 0x14000 <_ZN23ChiFeature2HWmultiframe14OnBufferResultEP24ChiFeature2RequestObjecthP20ChiFeature2StageInfoP21ChiFeature2IdentifierPK15ChiStreamBufferjPv+0x1fc>
   25c54: 45 ff ff 90  	adrp	x5, 0xd000 <_ZN23ChiFeature2HWmultiframe14OnBufferResultEP24ChiFeature2RequestObjecthP20ChiFeature2StageInfoP21ChiFeature2IdentifierPK15ChiStreamBufferjPv+0x1e4>
   25c88: 5a ff ff b0  	adrp	x26, 0xe000 <_ZN23ChiFeature2HWmultiframe14OnBufferResultEP24ChiFeature2RequestObjecthP20ChiFeature2StageInfoP21ChiFeature2IdentifierPK15ChiStreamBufferjPv+0x21c>
   25cb4: 60 ff ff f0  	adrp	x0, 0x14000 <_ZN23ChiFeature2HWmultiframe14OnBufferResultEP24ChiFeature2RequestObjecthP20ChiFeature2StageInfoP21ChiFeature2IdentifierPK15ChiStreamBufferjPv+0x260>
   25cb8: 41 ff ff f0  	adrp	x1, 0x10000 <_ZN23ChiFeature2HWmultiframe14OnBufferResultEP24ChiFeature2RequestObjecthP20ChiFeature2StageInfoP21ChiFeature2IdentifierPK15ChiStreamBufferjPv+0x254>
   25cbc: 43 ff ff 90  	adrp	x3, 0xd000 <_ZN23ChiFeature2HWmultiframe14OnBufferResultEP24ChiFeature2RequestObjecthP20ChiFeature2StageInfoP21ChiFeature2IdentifierPK15ChiStreamBufferjPv+0x24c>
   25cc0: 45 ff ff d0  	adrp	x5, 0xf000 <_ZN23ChiFeature2HWmultiframe14OnBufferResultEP24ChiFeature2RequestObjecthP20ChiFeature2StageInfoP21ChiFeature2IdentifierPK15ChiStreamBufferjPv+0x258>
   25cec: ed 88 00 94  	bl	0x480a0 <_ZN6ChiLog9LogSystemEPKcS1_S1_S1_iS1_z@plt>
   25cfc: 61 1e 00 54  	b.ne	0x260c8 <_ZN23ChiFeature2HWmultiframe14OnBufferResultEP24ChiFeature2RequestObjecthP20ChiFeature2StageInfoP21ChiFeature2IdentifierPK15ChiStreamBufferjPv+0x6b8>
   25d0c: 61 89 00 94  	bl	0x48290 <_ZNK15ChiFeature2Base18DeActivatePipelineEPK21ChiFeature2Identifierj@plt>
   25d18: 40 19 00 54  	b.eq	0x26040 <_ZN23ChiFeature2HWmultiframe14OnBufferResultEP24ChiFeature2RequestObjecthP20ChiFeature2StageInfoP21ChiFeature2IdentifierPK15ChiStreamBufferjPv+0x630>
   25d1c: 60 ff ff b0  	adrp	x0, 0x12000 <_ZN23ChiFeature2HWmultiframe14OnBufferResultEP24ChiFeature2RequestObjecthP20ChiFeature2StageInfoP21ChiFeature2IdentifierPK15ChiStreamBufferjPv+0x2c0>
   25d28: d2 00 00 14  	b	0x26070 <_ZN23ChiFeature2HWmultiframe14OnBufferResultEP24ChiFeature2RequestObjecthP20ChiFeature2StageInfoP21ChiFeature2IdentifierPK15ChiStreamBufferjPv+0x660>
   25d40: 83 1e 00 54  	b.lo	0x26110 <_ZN23ChiFeature2HWmultiframe14OnBufferResultEP24ChiFeature2RequestObjecthP20ChiFeature2StageInfoP21ChiFeature2IdentifierPK15ChiStreamBufferjPv+0x700>
   25d4c: c1 00 00 54  	b.ne	0x25d64 <_ZN23ChiFeature2HWmultiframe14OnBufferResultEP24ChiFeature2RequestObjecthP20ChiFeature2StageInfoP21ChiFeature2IdentifierPK15ChiStreamBufferjPv+0x354>
   25d60: 43 0d 00 34  	cbz	w3, 0x25f08 <_ZN23ChiFeature2HWmultiframe14OnBufferResultEP24ChiFeature2RequestObjecthP20ChiFeature2StageInfoP21ChiFeature2IdentifierPK15ChiStreamBufferjPv+0x4f8>
   25d68: 43 1d 00 54  	b.lo	0x26110 <_ZN23ChiFeature2HWmultiframe14OnBufferResultEP24ChiFeature2RequestObjecthP20ChiFeature2StageInfoP21ChiFeature2IdentifierPK15ChiStreamBufferjPv+0x700>
   25d70: 81 16 00 54  	b.ne	0x26040 <_ZN23ChiFeature2HWmultiframe14OnBufferResultEP24ChiFeature2RequestObjecthP20ChiFeature2StageInfoP21ChiFeature2IdentifierPK15ChiStreamBufferjPv+0x630>
   25d88: 00 0c 00 54  	b.eq	0x25f08 <_ZN23ChiFeature2HWmultiframe14OnBufferResultEP24ChiFeature2RequestObjecthP20ChiFeature2StageInfoP21ChiFeature2IdentifierPK15ChiStreamBufferjPv+0x4f8>
   25d8c: ad 00 00 14  	b	0x26040 <_ZN23ChiFeature2HWmultiframe14OnBufferResultEP24ChiFeature2RequestObjecthP20ChiFeature2StageInfoP21ChiFeature2IdentifierPK15ChiStreamBufferjPv+0x630>
   25da4: e8 14 00 34  	cbz	w8, 0x26040 <_ZN23ChiFeature2HWmultiframe14OnBufferResultEP24ChiFeature2RequestObjecthP20ChiFeature2StageInfoP21ChiFeature2IdentifierPK15ChiStreamBufferjPv+0x630>
   25db0: 81 14 00 54  	b.ne	0x26040 <_ZN23ChiFeature2HWmultiframe14OnBufferResultEP24ChiFeature2RequestObjecthP20ChiFeature2StageInfoP21ChiFeature2IdentifierPK15ChiStreamBufferjPv+0x630>
   25db8: 27 07 18 36  	tbz	w7, #3, 0x25e9c <_ZN23ChiFeature2HWmultiframe14OnBufferResultEP24ChiFeature2RequestObjecthP20ChiFeature2StageInfoP21ChiFeature2IdentifierPK15ChiStreamBufferjPv+0x48c>
   25dbc: 47 01 00 90  	adrp	x7, 0x4d000 <_ZN23ChiFeature2HWmultiframe14OnBufferResultEP24ChiFeature2RequestObjecthP20ChiFeature2StageInfoP21ChiFeature2IdentifierPK15ChiStreamBufferjPv+0x44c>
   25dcc: 41 03 00 54  	b.ne	0x25e34 <_ZN23ChiFeature2HWmultiframe14OnBufferResultEP24ChiFeature2RequestObjecthP20ChiFeature2StageInfoP21ChiFeature2IdentifierPK15ChiStreamBufferjPv+0x424>
   25dd0: 5a ff ff b0  	adrp	x26, 0xe000 <_ZN23ChiFeature2HWmultiframe14OnBufferResultEP24ChiFeature2RequestObjecthP20ChiFeature2StageInfoP21ChiFeature2IdentifierPK15ChiStreamBufferjPv+0x364>
   25df4: 61 ff ff f0  	adrp	x1, 0x14000 <_ZN23ChiFeature2HWmultiframe14OnBufferResultEP24ChiFeature2RequestObjecthP20ChiFeature2StageInfoP21ChiFeature2IdentifierPK15ChiStreamBufferjPv+0x3a0>
   25dfc: 62 ff ff f0  	adrp	x2, 0x14000 <_ZN23ChiFeature2HWmultiframe14OnBufferResultEP24ChiFeature2RequestObjecthP20ChiFeature2StageInfoP21ChiFeature2IdentifierPK15ChiStreamBufferjPv+0x3a8>
   25e00: 45 ff ff 90  	adrp	x5, 0xd000 <_ZN23ChiFeature2HWmultiframe14OnBufferResultEP24ChiFeature2RequestObjecthP20ChiFeature2StageInfoP21ChiFeature2IdentifierPK15ChiStreamBufferjPv+0x390>
   25e34: 5a ff ff b0  	adrp	x26, 0xe000 <_ZN23ChiFeature2HWmultiframe14OnBufferResultEP24ChiFeature2RequestObjecthP20ChiFeature2StageInfoP21ChiFeature2IdentifierPK15ChiStreamBufferjPv+0x3c8>
   25e60: 60 ff ff f0  	adrp	x0, 0x14000 <_ZN23ChiFeature2HWmultiframe14OnBufferResultEP24ChiFeature2RequestObjecthP20ChiFeature2StageInfoP21ChiFeature2IdentifierPK15ChiStreamBufferjPv+0x40c>
   25e64: 41 ff ff f0  	adrp	x1, 0x10000 <_ZN23ChiFeature2HWmultiframe14OnBufferResultEP24ChiFeature2RequestObjecthP20ChiFeature2StageInfoP21ChiFeature2IdentifierPK15ChiStreamBufferjPv+0x400>
   25e68: 43 ff ff 90  	adrp	x3, 0xd000 <_ZN23ChiFeature2HWmultiframe14OnBufferResultEP24ChiFeature2RequestObjecthP20ChiFeature2StageInfoP21ChiFeature2IdentifierPK15ChiStreamBufferjPv+0x3f8>
   25e6c: 45 ff ff d0  	adrp	x5, 0xf000 <_ZN23ChiFeature2HWmultiframe14OnBufferResultEP24ChiFeature2RequestObjecthP20ChiFeature2StageInfoP21ChiFeature2IdentifierPK15ChiStreamBufferjPv+0x404>
   25e98: 82 88 00 94  	bl	0x480a0 <_ZN6ChiLog9LogSystemEPKcS1_S1_S1_iS1_z@plt>
   25ea8: c1 11 00 54  	b.ne	0x260e0 <_ZN23ChiFeature2HWmultiframe14OnBufferResultEP24ChiFeature2RequestObjecthP20ChiFeature2StageInfoP21ChiFeature2IdentifierPK15ChiStreamBufferjPv+0x6d0>
   25eb8: f6 88 00 94  	bl	0x48290 <_ZNK15ChiFeature2Base18DeActivatePipelineEPK21ChiFeature2Identifierj@plt>
   25ec4: e0 0b 00 54  	b.eq	0x26040 <_ZN23ChiFeature2HWmultiframe14OnBufferResultEP24ChiFeature2RequestObjecthP20ChiFeature2StageInfoP21ChiFeature2IdentifierPK15ChiStreamBufferjPv+0x630>
   25ec8: 40 ff ff b0  	adrp	x0, 0xe000 <_ZN23ChiFeature2HWmultiframe14OnBufferResultEP24ChiFeature2RequestObjecthP20ChiFeature2StageInfoP21ChiFeature2IdentifierPK15ChiStreamBufferjPv+0x45c>
   25ed4: 67 00 00 14  	b	0x26070 <_ZN23ChiFeature2HWmultiframe14OnBufferResultEP24ChiFeature2RequestObjecthP20ChiFeature2StageInfoP21ChiFeature2IdentifierPK15ChiStreamBufferjPv+0x660>
   25eec: a1 0a 00 54  	b.ne	0x26040 <_ZN23ChiFeature2HWmultiframe14OnBufferResultEP24ChiFeature2RequestObjecthP20ChiFeature2StageInfoP21ChiFeature2IdentifierPK15ChiStreamBufferjPv+0x630>
   25f04: e1 09 00 54  	b.ne	0x26040 <_ZN23ChiFeature2HWmultiframe14OnBufferResultEP24ChiFeature2RequestObjecthP20ChiFeature2StageInfoP21ChiFeature2IdentifierPK15ChiStreamBufferjPv+0x630>
   25f1c: 2a 09 00 34  	cbz	w10, 0x26040 <_ZN23ChiFeature2HWmultiframe14OnBufferResultEP24ChiFeature2RequestObjecthP20ChiFeature2StageInfoP21ChiFeature2IdentifierPK15ChiStreamBufferjPv+0x630>
   25f28: c1 08 00 54  	b.ne	0x26040 <_ZN23ChiFeature2HWmultiframe14OnBufferResultEP24ChiFeature2RequestObjecthP20ChiFeature2StageInfoP21ChiFeature2IdentifierPK15ChiStreamBufferjPv+0x630>
   25f30: 26 07 18 36  	tbz	w6, #3, 0x26014 <_ZN23ChiFeature2HWmultiframe14OnBufferResultEP24ChiFeature2RequestObjecthP20ChiFeature2StageInfoP21ChiFeature2IdentifierPK15ChiStreamBufferjPv+0x604>
   25f34: 45 01 00 90  	adrp	x5, 0x4d000 <_ZN23ChiFeature2HWmultiframe14OnBufferResultEP24ChiFeature2RequestObjecthP20ChiFeature2StageInfoP21ChiFeature2IdentifierPK15ChiStreamBufferjPv+0x5c4>
   25f44: 41 03 00 54  	b.ne	0x25fac <_ZN23ChiFeature2HWmultiframe14OnBufferResultEP24ChiFeature2RequestObjecthP20ChiFeature2StageInfoP21ChiFeature2IdentifierPK15ChiStreamBufferjPv+0x59c>
   25f48: 5a ff ff b0  	adrp	x26, 0xe000 <_ZN23ChiFeature2HWmultiframe14OnBufferResultEP24ChiFeature2RequestObjecthP20ChiFeature2StageInfoP21ChiFeature2IdentifierPK15ChiStreamBufferjPv+0x4dc>
   25f6c: 61 ff ff f0  	adrp	x1, 0x14000 <_ZN23ChiFeature2HWmultiframe14OnBufferResultEP24ChiFeature2RequestObjecthP20ChiFeature2StageInfoP21ChiFeature2IdentifierPK15ChiStreamBufferjPv+0x518>
   25f74: 22 ff ff f0  	adrp	x2, 0xc000 <_ZN23ChiFeature2HWmultiframe14OnBufferResultEP24ChiFeature2RequestObjecthP20ChiFeature2StageInfoP21ChiFeature2IdentifierPK15ChiStreamBufferjPv+0x500>
   25f78: 45 ff ff 90  	adrp	x5, 0xd000 <_ZN23ChiFeature2HWmultiframe14OnBufferResultEP24ChiFeature2RequestObjecthP20ChiFeature2StageInfoP21ChiFeature2IdentifierPK15ChiStreamBufferjPv+0x508>
   25fac: 5a ff ff b0  	adrp	x26, 0xe000 <_ZN23ChiFeature2HWmultiframe14OnBufferResultEP24ChiFeature2RequestObjecthP20ChiFeature2StageInfoP21ChiFeature2IdentifierPK15ChiStreamBufferjPv+0x540>
   25fd8: 60 ff ff f0  	adrp	x0, 0x14000 <_ZN23ChiFeature2HWmultiframe14OnBufferResultEP24ChiFeature2RequestObjecthP20ChiFeature2StageInfoP21ChiFeature2IdentifierPK15ChiStreamBufferjPv+0x584>
   25fdc: 41 ff ff f0  	adrp	x1, 0x10000 <_ZN23ChiFeature2HWmultiframe14OnBufferResultEP24ChiFeature2RequestObjecthP20ChiFeature2StageInfoP21ChiFeature2IdentifierPK15ChiStreamBufferjPv+0x578>
   25fe0: 43 ff ff 90  	adrp	x3, 0xd000 <_ZN23ChiFeature2HWmultiframe14OnBufferResultEP24ChiFeature2RequestObjecthP20ChiFeature2StageInfoP21ChiFeature2IdentifierPK15ChiStreamBufferjPv+0x570>
   25fe4: 65 ff ff 90  	adrp	x5, 0x11000 <_ZN23ChiFeature2HWmultiframe14OnBufferResultEP24ChiFeature2RequestObjecthP20ChiFeature2StageInfoP21ChiFeature2IdentifierPK15ChiStreamBufferjPv+0x584>
   26010: 24 88 00 94  	bl	0x480a0 <_ZN6ChiLog9LogSystemEPKcS1_S1_S1_iS1_z@plt>
   26020: c1 06 00 54  	b.ne	0x260f8 <_ZN23ChiFeature2HWmultiframe14OnBufferResultEP24ChiFeature2RequestObjecthP20ChiFeature2StageInfoP21ChiFeature2IdentifierPK15ChiStreamBufferjPv+0x6e8>
   26030: 98 88 00 94  	bl	0x48290 <_ZNK15ChiFeature2Base18DeActivatePipelineEPK21ChiFeature2Identifierj@plt>
   2603c: 41 01 00 54  	b.ne	0x26064 <_ZN23ChiFeature2HWmultiframe14OnBufferResultEP24ChiFeature2RequestObjecthP20ChiFeature2StageInfoP21ChiFeature2IdentifierPK15ChiStreamBufferjPv+0x654>
   26064: 40 ff ff d0  	adrp	x0, 0x10000 <_ZN23ChiFeature2HWmultiframe14OnBufferResultEP24ChiFeature2RequestObjecthP20ChiFeature2StageInfoP21ChiFeature2IdentifierPK15ChiStreamBufferjPv+0x5fc>
   26074: f3 ff ff 17  	b	0x26040 <_ZN23ChiFeature2HWmultiframe14OnBufferResultEP24ChiFeature2RequestObjecthP20ChiFeature2StageInfoP21ChiFeature2IdentifierPK15ChiStreamBufferjPv+0x630>
   2608c: 77 fe ff 17  	b	0x25a68 <_ZN23ChiFeature2HWmultiframe14OnBufferResultEP24ChiFeature2RequestObjecthP20ChiFeature2StageInfoP21ChiFeature2IdentifierPK15ChiStreamBufferjPv+0x58>
   260ac: a0 d7 ff 54  	b.eq	0x25ba0 <_ZN23ChiFeature2HWmultiframe14OnBufferResultEP24ChiFeature2RequestObjecthP20ChiFeature2StageInfoP21ChiFeature2IdentifierPK15ChiStreamBufferjPv+0x190>
   260c4: b7 fe ff 17  	b	0x25ba0 <_ZN23ChiFeature2HWmultiframe14OnBufferResultEP24ChiFeature2RequestObjecthP20ChiFeature2StageInfoP21ChiFeature2IdentifierPK15ChiStreamBufferjPv+0x190>
   260dc: 09 ff ff 17  	b	0x25d00 <_ZN23ChiFeature2HWmultiframe14OnBufferResultEP24ChiFeature2RequestObjecthP20ChiFeature2StageInfoP21ChiFeature2IdentifierPK15ChiStreamBufferjPv+0x2f0>
   260f4: 6e ff ff 17  	b	0x25eac <_ZN23ChiFeature2HWmultiframe14OnBufferResultEP24ChiFeature2RequestObjecthP20ChiFeature2StageInfoP21ChiFeature2IdentifierPK15ChiStreamBufferjPv+0x49c>
   2610c: c6 ff ff 17  	b	0x26024 <_ZN23ChiFeature2HWmultiframe14OnBufferResultEP24ChiFeature2RequestObjecthP20ChiFeature2StageInfoP21ChiFeature2IdentifierPK15ChiStreamBufferjPv+0x614>
0000000000026118 <_ZNK23ChiFeature2HWmultiframe16OnMetadataResultEP24ChiFeature2RequestObjecthP20ChiFeature2StageInfoP21ChiFeature2IdentifierP11ChiMetadatajPv>:
   26164: 57 88 00 94  	bl	0x482c0 <_ZN15ExtensionModule11GetInstanceEv@plt>
   2616c: 37 01 00 f0  	adrp	x23, 0x4d000 <_ZNK23ChiFeature2HWmultiframe16OnMetadataResultEP24ChiFeature2RequestObjecthP20ChiFeature2StageInfoP21ChiFeature2IdentifierP11ChiMetadatajPv+0xf0>
   26178: 89 01 00 34  	cbz	w9, 0x261a8 <_ZNK23ChiFeature2HWmultiframe16OnMetadataResultEP24ChiFeature2RequestObjecthP20ChiFeature2StageInfoP21ChiFeature2IdentifierP11ChiMetadatajPv+0x90>
   26188: e1 46 00 54  	b.ne	0x26a64 <_ZNK23ChiFeature2HWmultiframe16OnMetadataResultEP24ChiFeature2RequestObjecthP20ChiFeature2StageInfoP21ChiFeature2IdentifierP11ChiMetadatajPv+0x94c>
   261a4: 4b 88 00 94  	bl	0x482d0 <_ZNK15ChiFeature2Base16ProcessDebugDataEP24ChiFeature2RequestObjectPK20ChiFeature2StageInfoPK21ChiFeature2IdentifierP11ChiMetadataj@plt>
   261a8: 31 01 00 f0  	adrp	x17, 0x4d000 <_ZNK23ChiFeature2HWmultiframe16OnMetadataResultEP24ChiFeature2RequestObjecthP20ChiFeature2StageInfoP21ChiFeature2IdentifierP11ChiMetadatajPv+0x12c>
   261b8: ea 05 28 36  	tbz	w10, #5, 0x26274 <_ZNK23ChiFeature2HWmultiframe16OnMetadataResultEP24ChiFeature2RequestObjecthP20ChiFeature2StageInfoP21ChiFeature2IdentifierP11ChiMetadatajPv+0x15c>
   261bc: 2b 01 00 f0  	adrp	x11, 0x4d000 <_ZNK23ChiFeature2HWmultiframe16OnMetadataResultEP24ChiFeature2RequestObjecthP20ChiFeature2StageInfoP21ChiFeature2IdentifierP11ChiMetadatajPv+0x140>
   261c0: 5b ff ff 90  	adrp	x27, 0xe000 <_ZNK23ChiFeature2HWmultiframe16OnMetadataResultEP24ChiFeature2RequestObjecthP20ChiFeature2StageInfoP21ChiFeature2IdentifierP11ChiMetadatajPv+0x48>
   261d4: 81 02 00 54  	b.ne	0x26224 <_ZNK23ChiFeature2HWmultiframe16OnMetadataResultEP24ChiFeature2RequestObjecthP20ChiFeature2StageInfoP21ChiFeature2IdentifierP11ChiMetadatajPv+0x10c>
   261f4: 61 ff ff d0  	adrp	x1, 0x14000 <_ZNK23ChiFeature2HWmultiframe16OnMetadataResultEP24ChiFeature2RequestObjecthP20ChiFeature2StageInfoP21ChiFeature2IdentifierP11ChiMetadatajPv+0x94>
   261f8: 42 ff ff b0  	adrp	x2, 0xf000 <_ZNK23ChiFeature2HWmultiframe16OnMetadataResultEP24ChiFeature2RequestObjecthP20ChiFeature2StageInfoP21ChiFeature2IdentifierP11ChiMetadatajPv+0x84>
   261fc: 25 ff ff f0  	adrp	x5, 0xd000 <_ZNK23ChiFeature2HWmultiframe16OnMetadataResultEP24ChiFeature2RequestObjecthP20ChiFeature2StageInfoP21ChiFeature2IdentifierP11ChiMetadatajPv+0x80>
   26244: 60 ff ff b0  	adrp	x0, 0x13000 <_ZNK23ChiFeature2HWmultiframe16OnMetadataResultEP24ChiFeature2RequestObjecthP20ChiFeature2StageInfoP21ChiFeature2IdentifierP11ChiMetadatajPv+0xe0>
   26248: 41 ff ff f0  	adrp	x1, 0x11000 <_ZNK23ChiFeature2HWmultiframe16OnMetadataResultEP24ChiFeature2RequestObjecthP20ChiFeature2StageInfoP21ChiFeature2IdentifierP11ChiMetadatajPv+0xdc>
   2624c: 23 ff ff f0  	adrp	x3, 0xd000 <_ZNK23ChiFeature2HWmultiframe16OnMetadataResultEP24ChiFeature2RequestObjecthP20ChiFeature2StageInfoP21ChiFeature2IdentifierP11ChiMetadatajPv+0xd0>
   26250: 65 ff ff 90  	adrp	x5, 0x12000 <_ZNK23ChiFeature2HWmultiframe16OnMetadataResultEP24ChiFeature2RequestObjecthP20ChiFeature2StageInfoP21ChiFeature2IdentifierP11ChiMetadatajPv+0xe8>
   26270: 8c 87 00 94  	bl	0x480a0 <_ZN6ChiLog9LogSystemEPKcS1_S1_S1_iS1_z@plt>
   26280: a1 3d 00 54  	b.ne	0x26a34 <_ZNK23ChiFeature2HWmultiframe16OnMetadataResultEP24ChiFeature2RequestObjecthP20ChiFeature2StageInfoP21ChiFeature2IdentifierP11ChiMetadatajPv+0x91c>
   2628c: 8d 87 00 94  	bl	0x480c0 <_ZNK15ChiFeature2Base21GetFeaturePrivContextEP24ChiFeature2RequestObject@plt>
   26290: c0 39 00 b4  	cbz	x0, 0x269c8 <_ZNK23ChiFeature2HWmultiframe16OnMetadataResultEP24ChiFeature2RequestObjecthP20ChiFeature2StageInfoP21ChiFeature2IdentifierP11ChiMetadatajPv+0x8b0>
   2629c: 69 39 00 54  	b.ls	0x269c8 <_ZNK23ChiFeature2HWmultiframe16OnMetadataResultEP24ChiFeature2RequestObjecthP20ChiFeature2StageInfoP21ChiFeature2IdentifierP11ChiMetadatajPv+0x8b0>
   262b0: 80 03 00 54  	b.eq	0x26320 <_ZNK23ChiFeature2HWmultiframe16OnMetadataResultEP24ChiFeature2RequestObjecthP20ChiFeature2StageInfoP21ChiFeature2IdentifierP11ChiMetadatajPv+0x208>
   262b4: a8 38 00 35  	cbnz	w8, 0x269c8 <_ZNK23ChiFeature2HWmultiframe16OnMetadataResultEP24ChiFeature2RequestObjecthP20ChiFeature2StageInfoP21ChiFeature2IdentifierP11ChiMetadatajPv+0x8b0>
   262e0: 61 ff ff b0  	adrp	x1, 0x13000 <_ZNK23ChiFeature2HWmultiframe16OnMetadataResultEP24ChiFeature2RequestObjecthP20ChiFeature2StageInfoP21ChiFeature2IdentifierP11ChiMetadatajPv+0x17c>
   262e4: 42 ff ff 90  	adrp	x2, 0xe000 <_ZNK23ChiFeature2HWmultiframe16OnMetadataResultEP24ChiFeature2RequestObjecthP20ChiFeature2StageInfoP21ChiFeature2IdentifierP11ChiMetadatajPv+0x16c>
   26300: c1 0f 00 b4  	cbz	x1, 0x264f8 <_ZNK23ChiFeature2HWmultiframe16OnMetadataResultEP24ChiFeature2RequestObjecthP20ChiFeature2StageInfoP21ChiFeature2IdentifierP11ChiMetadatajPv+0x3e0>
   2631c: aa 01 00 14  	b	0x269c4 <_ZNK23ChiFeature2HWmultiframe16OnMetadataResultEP24ChiFeature2RequestObjecthP20ChiFeature2StageInfoP21ChiFeature2IdentifierP11ChiMetadatajPv+0x8ac>
   26324: 28 35 00 b4  	cbz	x8, 0x269c8 <_ZNK23ChiFeature2HWmultiframe16OnMetadataResultEP24ChiFeature2RequestObjecthP20ChiFeature2StageInfoP21ChiFeature2IdentifierP11ChiMetadatajPv+0x8b0>
   26330: c0 34 00 54  	b.eq	0x269c8 <_ZNK23ChiFeature2HWmultiframe16OnMetadataResultEP24ChiFeature2RequestObjecthP20ChiFeature2StageInfoP21ChiFeature2IdentifierP11ChiMetadatajPv+0x8b0>
   26334: 2d 01 00 f0  	adrp	x13, 0x4d000 <_ZNK23ChiFeature2HWmultiframe16OnMetadataResultEP24ChiFeature2RequestObjecthP20ChiFeature2StageInfoP21ChiFeature2IdentifierP11ChiMetadatajPv+0x2b8>
   26344: 2f 05 18 36  	tbz	w15, #3, 0x263e8 <_ZNK23ChiFeature2HWmultiframe16OnMetadataResultEP24ChiFeature2RequestObjecthP20ChiFeature2StageInfoP21ChiFeature2IdentifierP11ChiMetadatajPv+0x2d0>
   26348: 2e 01 00 f0  	adrp	x14, 0x4d000 <_ZNK23ChiFeature2HWmultiframe16OnMetadataResultEP24ChiFeature2RequestObjecthP20ChiFeature2StageInfoP21ChiFeature2IdentifierP11ChiMetadatajPv+0x2cc>
   26358: 41 02 00 54  	b.ne	0x263a0 <_ZNK23ChiFeature2HWmultiframe16OnMetadataResultEP24ChiFeature2RequestObjecthP20ChiFeature2StageInfoP21ChiFeature2IdentifierP11ChiMetadatajPv+0x288>
   2635c: 5c ff ff 90  	adrp	x28, 0xe000 <_ZNK23ChiFeature2HWmultiframe16OnMetadataResultEP24ChiFeature2RequestObjecthP20ChiFeature2StageInfoP21ChiFeature2IdentifierP11ChiMetadatajPv+0x1e4>
   26378: 61 ff ff d0  	adrp	x1, 0x14000 <_ZNK23ChiFeature2HWmultiframe16OnMetadataResultEP24ChiFeature2RequestObjecthP20ChiFeature2StageInfoP21ChiFeature2IdentifierP11ChiMetadatajPv+0x218>
   2637c: 42 ff ff b0  	adrp	x2, 0xf000 <_ZNK23ChiFeature2HWmultiframe16OnMetadataResultEP24ChiFeature2RequestObjecthP20ChiFeature2StageInfoP21ChiFeature2IdentifierP11ChiMetadatajPv+0x208>
   26380: 25 ff ff f0  	adrp	x5, 0xd000 <_ZNK23ChiFeature2HWmultiframe16OnMetadataResultEP24ChiFeature2RequestObjecthP20ChiFeature2StageInfoP21ChiFeature2IdentifierP11ChiMetadatajPv+0x204>
   263a0: 5c ff ff 90  	adrp	x28, 0xe000 <_ZNK23ChiFeature2HWmultiframe16OnMetadataResultEP24ChiFeature2RequestObjecthP20ChiFeature2StageInfoP21ChiFeature2IdentifierP11ChiMetadatajPv+0x228>
   263bc: 41 ff ff d0  	adrp	x1, 0x10000 <_ZNK23ChiFeature2HWmultiframe16OnMetadataResultEP24ChiFeature2RequestObjecthP20ChiFeature2StageInfoP21ChiFeature2IdentifierP11ChiMetadatajPv+0x24c>
   263c4: 60 ff ff d0  	adrp	x0, 0x14000 <_ZNK23ChiFeature2HWmultiframe16OnMetadataResultEP24ChiFeature2RequestObjecthP20ChiFeature2StageInfoP21ChiFeature2IdentifierP11ChiMetadatajPv+0x264>
   263c8: 23 ff ff f0  	adrp	x3, 0xd000 <_ZNK23ChiFeature2HWmultiframe16OnMetadataResultEP24ChiFeature2RequestObjecthP20ChiFeature2StageInfoP21ChiFeature2IdentifierP11ChiMetadatajPv+0x24c>
   263cc: 65 ff ff d0  	adrp	x5, 0x14000 <_ZNK23ChiFeature2HWmultiframe16OnMetadataResultEP24ChiFeature2RequestObjecthP20ChiFeature2StageInfoP21ChiFeature2IdentifierP11ChiMetadatajPv+0x26c>
   263e4: 2f 87 00 94  	bl	0x480a0 <_ZN6ChiLog9LogSystemEPKcS1_S1_S1_iS1_z@plt>
   2641c: 41 ff ff f0  	adrp	x1, 0x11000 <_ZNK23ChiFeature2HWmultiframe16OnMetadataResultEP24ChiFeature2RequestObjecthP20ChiFeature2StageInfoP21ChiFeature2IdentifierP11ChiMetadatajPv+0x2b0>
   26420: 42 ff ff 90  	adrp	x2, 0xe000 <_ZNK23ChiFeature2HWmultiframe16OnMetadataResultEP24ChiFeature2RequestObjecthP20ChiFeature2StageInfoP21ChiFeature2IdentifierP11ChiMetadatajPv+0x2a8>
   2643c: 2e 01 00 f0  	adrp	x14, 0x4d000 <_ZNK23ChiFeature2HWmultiframe16OnMetadataResultEP24ChiFeature2RequestObjecthP20ChiFeature2StageInfoP21ChiFeature2IdentifierP11ChiMetadatajPv+0x3c0>
   26448: 40 0b 00 34  	cbz	w0, 0x265b0 <_ZNK23ChiFeature2HWmultiframe16OnMetadataResultEP24ChiFeature2RequestObjecthP20ChiFeature2StageInfoP21ChiFeature2IdentifierP11ChiMetadatajPv+0x498>
   26450: c8 2b 08 36  	tbz	w8, #1, 0x269c8 <_ZNK23ChiFeature2HWmultiframe16OnMetadataResultEP24ChiFeature2RequestObjecthP20ChiFeature2StageInfoP21ChiFeature2IdentifierP11ChiMetadatajPv+0x8b0>
   26454: 2f 01 00 f0  	adrp	x15, 0x4d000 <_ZNK23ChiFeature2HWmultiframe16OnMetadataResultEP24ChiFeature2RequestObjecthP20ChiFeature2StageInfoP21ChiFeature2IdentifierP11ChiMetadatajPv+0x3d8>
   26464: 41 02 00 54  	b.ne	0x264ac <_ZNK23ChiFeature2HWmultiframe16OnMetadataResultEP24ChiFeature2RequestObjecthP20ChiFeature2StageInfoP21ChiFeature2IdentifierP11ChiMetadatajPv+0x394>
   26468: 5b ff ff 90  	adrp	x27, 0xe000 <_ZNK23ChiFeature2HWmultiframe16OnMetadataResultEP24ChiFeature2RequestObjecthP20ChiFeature2StageInfoP21ChiFeature2IdentifierP11ChiMetadatajPv+0x2f0>
   26484: 61 ff ff d0  	adrp	x1, 0x14000 <_ZNK23ChiFeature2HWmultiframe16OnMetadataResultEP24ChiFeature2RequestObjecthP20ChiFeature2StageInfoP21ChiFeature2IdentifierP11ChiMetadatajPv+0x324>
   26488: 62 ff ff d0  	adrp	x2, 0x14000 <_ZNK23ChiFeature2HWmultiframe16OnMetadataResultEP24ChiFeature2RequestObjecthP20ChiFeature2StageInfoP21ChiFeature2IdentifierP11ChiMetadatajPv+0x328>
   2648c: 25 ff ff f0  	adrp	x5, 0xd000 <_ZNK23ChiFeature2HWmultiframe16OnMetadataResultEP24ChiFeature2RequestObjecthP20ChiFeature2StageInfoP21ChiFeature2IdentifierP11ChiMetadatajPv+0x310>
   264ac: 5c ff ff 90  	adrp	x28, 0xe000 <_ZNK23ChiFeature2HWmultiframe16OnMetadataResultEP24ChiFeature2RequestObjecthP20ChiFeature2StageInfoP21ChiFeature2IdentifierP11ChiMetadatajPv+0x334>
   264c8: 41 ff ff 90  	adrp	x1, 0xe000 <_ZNK23ChiFeature2HWmultiframe16OnMetadataResultEP24ChiFeature2RequestObjecthP20ChiFeature2StageInfoP21ChiFeature2IdentifierP11ChiMetadatajPv+0x350>
   264d0: 40 ff ff f0  	adrp	x0, 0x11000 <_ZNK23ChiFeature2HWmultiframe16OnMetadataResultEP24ChiFeature2RequestObjecthP20ChiFeature2StageInfoP21ChiFeature2IdentifierP11ChiMetadatajPv+0x364>
   264d4: 23 ff ff f0  	adrp	x3, 0xd000 <_ZNK23ChiFeature2HWmultiframe16OnMetadataResultEP24ChiFeature2RequestObjecthP20ChiFeature2StageInfoP21ChiFeature2IdentifierP11ChiMetadatajPv+0x358>
   264d8: 45 ff ff b0  	adrp	x5, 0xf000 <_ZNK23ChiFeature2HWmultiframe16OnMetadataResultEP24ChiFeature2RequestObjecthP20ChiFeature2StageInfoP21ChiFeature2IdentifierP11ChiMetadatajPv+0x364>
   264f0: ec 86 00 94  	bl	0x480a0 <_ZN6ChiLog9LogSystemEPKcS1_S1_S1_iS1_z@plt>
   264f4: 34 01 00 14  	b	0x269c4 <_ZNK23ChiFeature2HWmultiframe16OnMetadataResultEP24ChiFeature2RequestObjecthP20ChiFeature2StageInfoP21ChiFeature2IdentifierP11ChiMetadatajPv+0x8ac>
   264f8: 2b 01 00 f0  	adrp	x11, 0x4d000 <_ZNK23ChiFeature2HWmultiframe16OnMetadataResultEP24ChiFeature2RequestObjecthP20ChiFeature2StageInfoP21ChiFeature2IdentifierP11ChiMetadatajPv+0x47c>
   26508: 0d 26 08 36  	tbz	w13, #1, 0x269c8 <_ZNK23ChiFeature2HWmultiframe16OnMetadataResultEP24ChiFeature2RequestObjecthP20ChiFeature2StageInfoP21ChiFeature2IdentifierP11ChiMetadatajPv+0x8b0>
   2650c: 2d 01 00 f0  	adrp	x13, 0x4d000 <_ZNK23ChiFeature2HWmultiframe16OnMetadataResultEP24ChiFeature2RequestObjecthP20ChiFeature2StageInfoP21ChiFeature2IdentifierP11ChiMetadatajPv+0x490>
   2651c: 41 02 00 54  	b.ne	0x26564 <_ZNK23ChiFeature2HWmultiframe16OnMetadataResultEP24ChiFeature2RequestObjecthP20ChiFeature2StageInfoP21ChiFeature2IdentifierP11ChiMetadatajPv+0x44c>
   26520: 5b ff ff 90  	adrp	x27, 0xe000 <_ZNK23ChiFeature2HWmultiframe16OnMetadataResultEP24ChiFeature2RequestObjecthP20ChiFeature2StageInfoP21ChiFeature2IdentifierP11ChiMetadatajPv+0x3a8>
   2653c: 61 ff ff d0  	adrp	x1, 0x14000 <_ZNK23ChiFeature2HWmultiframe16OnMetadataResultEP24ChiFeature2RequestObjecthP20ChiFeature2StageInfoP21ChiFeature2IdentifierP11ChiMetadatajPv+0x3dc>
   26540: 42 ff ff f0  	adrp	x2, 0x11000 <_ZNK23ChiFeature2HWmultiframe16OnMetadataResultEP24ChiFeature2RequestObjecthP20ChiFeature2StageInfoP21ChiFeature2IdentifierP11ChiMetadatajPv+0x3d4>
   26544: 25 ff ff f0  	adrp	x5, 0xd000 <_ZNK23ChiFeature2HWmultiframe16OnMetadataResultEP24ChiFeature2RequestObjecthP20ChiFeature2StageInfoP21ChiFeature2IdentifierP11ChiMetadatajPv+0x3c8>
   26564: 5c ff ff 90  	adrp	x28, 0xe000 <_ZNK23ChiFeature2HWmultiframe16OnMetadataResultEP24ChiFeature2RequestObjecthP20ChiFeature2StageInfoP21ChiFeature2IdentifierP11ChiMetadatajPv+0x3ec>
   26580: 41 ff ff 90  	adrp	x1, 0xe000 <_ZNK23ChiFeature2HWmultiframe16OnMetadataResultEP24ChiFeature2RequestObjecthP20ChiFeature2StageInfoP21ChiFeature2IdentifierP11ChiMetadatajPv+0x408>
   26588: 40 ff ff f0  	adrp	x0, 0x11000 <_ZNK23ChiFeature2HWmultiframe16OnMetadataResultEP24ChiFeature2RequestObjecthP20ChiFeature2StageInfoP21ChiFeature2IdentifierP11ChiMetadatajPv+0x41c>
   2658c: 23 ff ff f0  	adrp	x3, 0xd000 <_ZNK23ChiFeature2HWmultiframe16OnMetadataResultEP24ChiFeature2RequestObjecthP20ChiFeature2StageInfoP21ChiFeature2IdentifierP11ChiMetadatajPv+0x410>
   26590: 25 ff ff b0  	adrp	x5, 0xb000 <_ZNK23ChiFeature2HWmultiframe16OnMetadataResultEP24ChiFeature2RequestObjecthP20ChiFeature2StageInfoP21ChiFeature2IdentifierP11ChiMetadatajPv+0x40c>
   265a8: be 86 00 94  	bl	0x480a0 <_ZN6ChiLog9LogSystemEPKcS1_S1_S1_iS1_z@plt>
   265ac: 06 01 00 14  	b	0x269c4 <_ZNK23ChiFeature2HWmultiframe16OnMetadataResultEP24ChiFeature2RequestObjecthP20ChiFeature2StageInfoP21ChiFeature2IdentifierP11ChiMetadatajPv+0x8ac>
   265b4: c8 00 18 37  	tbnz	w8, #3, 0x265cc <_ZNK23ChiFeature2HWmultiframe16OnMetadataResultEP24ChiFeature2RequestObjecthP20ChiFeature2StageInfoP21ChiFeature2IdentifierP11ChiMetadatajPv+0x4b4>
   265b8: 88 08 18 37  	tbnz	w8, #3, 0x266c8 <_ZNK23ChiFeature2HWmultiframe16OnMetadataResultEP24ChiFeature2RequestObjecthP20ChiFeature2StageInfoP21ChiFeature2IdentifierP11ChiMetadatajPv+0x5b0>
   265c0: 88 10 18 37  	tbnz	w8, #3, 0x267d0 <_ZNK23ChiFeature2HWmultiframe16OnMetadataResultEP24ChiFeature2RequestObjecthP20ChiFeature2StageInfoP21ChiFeature2IdentifierP11ChiMetadatajPv+0x6b8>
   265c4: 88 18 18 37  	tbnz	w8, #3, 0x268d4 <_ZNK23ChiFeature2HWmultiframe16OnMetadataResultEP24ChiFeature2RequestObjecthP20ChiFeature2StageInfoP21ChiFeature2IdentifierP11ChiMetadatajPv+0x7bc>
   265c8: 00 01 00 14  	b	0x269c8 <_ZNK23ChiFeature2HWmultiframe16OnMetadataResultEP24ChiFeature2RequestObjecthP20ChiFeature2StageInfoP21ChiFeature2IdentifierP11ChiMetadatajPv+0x8b0>
   265cc: 30 01 00 f0  	adrp	x16, 0x4d000 <_ZNK23ChiFeature2HWmultiframe16OnMetadataResultEP24ChiFeature2RequestObjecthP20ChiFeature2StageInfoP21ChiFeature2IdentifierP11ChiMetadatajPv+0x550>
   265dc: 61 03 00 54  	b.ne	0x26648 <_ZNK23ChiFeature2HWmultiframe16OnMetadataResultEP24ChiFeature2RequestObjecthP20ChiFeature2StageInfoP21ChiFeature2IdentifierP11ChiMetadatajPv+0x530>
   265e0: 5c ff ff 90  	adrp	x28, 0xe000 <_ZNK23ChiFeature2HWmultiframe16OnMetadataResultEP24ChiFeature2RequestObjecthP20ChiFeature2StageInfoP21ChiFeature2IdentifierP11ChiMetadatajPv+0x468>
   2660c: 61 ff ff d0  	adrp	x1, 0x14000 <_ZNK23ChiFeature2HWmultiframe16OnMetadataResultEP24ChiFeature2RequestObjecthP20ChiFeature2StageInfoP21ChiFeature2IdentifierP11ChiMetadatajPv+0x4ac>
   26610: 25 ff ff f0  	adrp	x5, 0xd000 <_ZNK23ChiFeature2HWmultiframe16OnMetadataResultEP24ChiFeature2RequestObjecthP20ChiFeature2StageInfoP21ChiFeature2IdentifierP11ChiMetadatajPv+0x494>
   2661c: 22 ff ff d0  	adrp	x2, 0xc000 <_ZNK23ChiFeature2HWmultiframe16OnMetadataResultEP24ChiFeature2RequestObjecthP20ChiFeature2StageInfoP21ChiFeature2IdentifierP11ChiMetadatajPv+0x49c>
   26648: 5c ff ff 90  	adrp	x28, 0xe000 <_ZNK23ChiFeature2HWmultiframe16OnMetadataResultEP24ChiFeature2RequestObjecthP20ChiFeature2StageInfoP21ChiFeature2IdentifierP11ChiMetadatajPv+0x4d0>
   26674: 23 ff ff f0  	adrp	x3, 0xd000 <_ZNK23ChiFeature2HWmultiframe16OnMetadataResultEP24ChiFeature2RequestObjecthP20ChiFeature2StageInfoP21ChiFeature2IdentifierP11ChiMetadatajPv+0x4f8>
   2667c: 60 ff ff d0  	adrp	x0, 0x14000 <_ZNK23ChiFeature2HWmultiframe16OnMetadataResultEP24ChiFeature2RequestObjecthP20ChiFeature2StageInfoP21ChiFeature2IdentifierP11ChiMetadatajPv+0x51c>
   26684: 45 ff ff d0  	adrp	x5, 0x10000 <_ZNK23ChiFeature2HWmultiframe16OnMetadataResultEP24ChiFeature2RequestObjecthP20ChiFeature2StageInfoP21ChiFeature2IdentifierP11ChiMetadatajPv+0x514>
   266a0: 41 ff ff d0  	adrp	x1, 0x10000 <_ZNK23ChiFeature2HWmultiframe16OnMetadataResultEP24ChiFeature2RequestObjecthP20ChiFeature2StageInfoP21ChiFeature2IdentifierP11ChiMetadatajPv+0x530>
   266b0: 7c 86 00 94  	bl	0x480a0 <_ZN6ChiLog9LogSystemEPKcS1_S1_S1_iS1_z@plt>
   266b4: 2f 01 00 f0  	adrp	x15, 0x4d000 <_ZNK23ChiFeature2HWmultiframe16OnMetadataResultEP24ChiFeature2RequestObjecthP20ChiFeature2StageInfoP21ChiFeature2IdentifierP11ChiMetadatajPv+0x638>
   266c4: c8 f7 1f 36  	tbz	w8, #3, 0x265bc <_ZNK23ChiFeature2HWmultiframe16OnMetadataResultEP24ChiFeature2RequestObjecthP20ChiFeature2StageInfoP21ChiFeature2IdentifierP11ChiMetadatajPv+0x4a4>
   266c8: 22 01 00 f0  	adrp	x2, 0x4d000 <_ZNK23ChiFeature2HWmultiframe16OnMetadataResultEP24ChiFeature2RequestObjecthP20ChiFeature2StageInfoP21ChiFeature2IdentifierP11ChiMetadatajPv+0x64c>
   266d8: 81 03 00 54  	b.ne	0x26748 <_ZNK23ChiFeature2HWmultiframe16OnMetadataResultEP24ChiFeature2RequestObjecthP20ChiFeature2StageInfoP21ChiFeature2IdentifierP11ChiMetadatajPv+0x630>
   266dc: 5c ff ff 90  	adrp	x28, 0xe000 <_ZNK23ChiFeature2HWmultiframe16OnMetadataResultEP24ChiFeature2RequestObjecthP20ChiFeature2StageInfoP21ChiFeature2IdentifierP11ChiMetadatajPv+0x564>
   26714: 22 ff ff d0  	adrp	x2, 0xc000 <_ZNK23ChiFeature2HWmultiframe16OnMetadataResultEP24ChiFeature2RequestObjecthP20ChiFeature2StageInfoP21ChiFeature2IdentifierP11ChiMetadatajPv+0x594>
   26720: 61 ff ff d0  	adrp	x1, 0x14000 <_ZNK23ChiFeature2HWmultiframe16OnMetadataResultEP24ChiFeature2RequestObjecthP20ChiFeature2StageInfoP21ChiFeature2IdentifierP11ChiMetadatajPv+0x5c0>
   26728: 25 ff ff f0  	adrp	x5, 0xd000 <_ZNK23ChiFeature2HWmultiframe16OnMetadataResultEP24ChiFeature2RequestObjecthP20ChiFeature2StageInfoP21ChiFeature2IdentifierP11ChiMetadatajPv+0x5ac>
   26748: 5c ff ff 90  	adrp	x28, 0xe000 <_ZNK23ChiFeature2HWmultiframe16OnMetadataResultEP24ChiFeature2RequestObjecthP20ChiFeature2StageInfoP21ChiFeature2IdentifierP11ChiMetadatajPv+0x5d0>
   2677c: 60 ff ff d0  	adrp	x0, 0x14000 <_ZNK23ChiFeature2HWmultiframe16OnMetadataResultEP24ChiFeature2RequestObjecthP20ChiFeature2StageInfoP21ChiFeature2IdentifierP11ChiMetadatajPv+0x61c>
   26784: 41 ff ff d0  	adrp	x1, 0x10000 <_ZNK23ChiFeature2HWmultiframe16OnMetadataResultEP24ChiFeature2RequestObjecthP20ChiFeature2StageInfoP21ChiFeature2IdentifierP11ChiMetadatajPv+0x614>
   26788: 23 ff ff f0  	adrp	x3, 0xd000 <_ZNK23ChiFeature2HWmultiframe16OnMetadataResultEP24ChiFeature2RequestObjecthP20ChiFeature2StageInfoP21ChiFeature2IdentifierP11ChiMetadatajPv+0x60c>
   2678c: 45 ff ff b0  	adrp	x5, 0xf000 <_ZNK23ChiFeature2HWmultiframe16OnMetadataResultEP24ChiFeature2RequestObjecthP20ChiFeature2StageInfoP21ChiFeature2IdentifierP11ChiMetadatajPv+0x618>
   267b4: 3b 86 00 94  	bl	0x480a0 <_ZN6ChiLog9LogSystemEPKcS1_S1_S1_iS1_z@plt>
   267b8: 30 01 00 f0  	adrp	x16, 0x4d000 <_ZNK23ChiFeature2HWmultiframe16OnMetadataResultEP24ChiFeature2RequestObjecthP20ChiFeature2StageInfoP21ChiFeature2IdentifierP11ChiMetadatajPv+0x73c>
   267cc: c8 ef 1f 36  	tbz	w8, #3, 0x265c4 <_ZNK23ChiFeature2HWmultiframe16OnMetadataResultEP24ChiFeature2RequestObjecthP20ChiFeature2StageInfoP21ChiFeature2IdentifierP11ChiMetadatajPv+0x4ac>
   267d0: 25 01 00 f0  	adrp	x5, 0x4d000 <_ZNK23ChiFeature2HWmultiframe16OnMetadataResultEP24ChiFeature2RequestObjecthP20ChiFeature2StageInfoP21ChiFeature2IdentifierP11ChiMetadatajPv+0x754>
   267e0: 81 03 00 54  	b.ne	0x26850 <_ZNK23ChiFeature2HWmultiframe16OnMetadataResultEP24ChiFeature2RequestObjecthP20ChiFeature2StageInfoP21ChiFeature2IdentifierP11ChiMetadatajPv+0x738>
   267e4: 5c ff ff 90  	adrp	x28, 0xe000 <_ZNK23ChiFeature2HWmultiframe16OnMetadataResultEP24ChiFeature2RequestObjecthP20ChiFeature2StageInfoP21ChiFeature2IdentifierP11ChiMetadatajPv+0x66c>
   26814: 61 ff ff d0  	adrp	x1, 0x14000 <_ZNK23ChiFeature2HWmultiframe16OnMetadataResultEP24ChiFeature2RequestObjecthP20ChiFeature2StageInfoP21ChiFeature2IdentifierP11ChiMetadatajPv+0x6b4>
   26818: 62 ff ff b0  	adrp	x2, 0x13000 <_ZNK23ChiFeature2HWmultiframe16OnMetadataResultEP24ChiFeature2RequestObjecthP20ChiFeature2StageInfoP21ChiFeature2IdentifierP11ChiMetadatajPv+0x6b4>
   2681c: 25 ff ff f0  	adrp	x5, 0xd000 <_ZNK23ChiFeature2HWmultiframe16OnMetadataResultEP24ChiFeature2RequestObjecthP20ChiFeature2StageInfoP21ChiFeature2IdentifierP11ChiMetadatajPv+0x6a0>
   26850: 5c ff ff 90  	adrp	x28, 0xe000 <_ZNK23ChiFeature2HWmultiframe16OnMetadataResultEP24ChiFeature2RequestObjecthP20ChiFeature2StageInfoP21ChiFeature2IdentifierP11ChiMetadatajPv+0x6d8>
   26884: 60 ff ff d0  	adrp	x0, 0x14000 <_ZNK23ChiFeature2HWmultiframe16OnMetadataResultEP24ChiFeature2RequestObjecthP20ChiFeature2StageInfoP21ChiFeature2IdentifierP11ChiMetadatajPv+0x724>
   26888: 41 ff ff d0  	adrp	x1, 0x10000 <_ZNK23ChiFeature2HWmultiframe16OnMetadataResultEP24ChiFeature2RequestObjecthP20ChiFeature2StageInfoP21ChiFeature2IdentifierP11ChiMetadatajPv+0x718>
   2688c: 23 ff ff f0  	adrp	x3, 0xd000 <_ZNK23ChiFeature2HWmultiframe16OnMetadataResultEP24ChiFeature2RequestObjecthP20ChiFeature2StageInfoP21ChiFeature2IdentifierP11ChiMetadatajPv+0x710>
   26890: 25 ff ff f0  	adrp	x5, 0xd000 <_ZNK23ChiFeature2HWmultiframe16OnMetadataResultEP24ChiFeature2RequestObjecthP20ChiFeature2StageInfoP21ChiFeature2IdentifierP11ChiMetadatajPv+0x714>
   268bc: f9 85 00 94  	bl	0x480a0 <_ZN6ChiLog9LogSystemEPKcS1_S1_S1_iS1_z@plt>
   268c0: 2c 01 00 f0  	adrp	x12, 0x4d000 <_ZNK23ChiFeature2HWmultiframe16OnMetadataResultEP24ChiFeature2RequestObjecthP20ChiFeature2StageInfoP21ChiFeature2IdentifierP11ChiMetadatajPv+0x844>
   268d0: c8 07 18 36  	tbz	w8, #3, 0x269c8 <_ZNK23ChiFeature2HWmultiframe16OnMetadataResultEP24ChiFeature2RequestObjecthP20ChiFeature2StageInfoP21ChiFeature2IdentifierP11ChiMetadatajPv+0x8b0>
   268d4: 3c 01 00 f0  	adrp	x28, 0x4d000 <_ZNK23ChiFeature2HWmultiframe16OnMetadataResultEP24ChiFeature2RequestObjecthP20ChiFeature2StageInfoP21ChiFeature2IdentifierP11ChiMetadatajPv+0x858>
   268e4: 81 03 00 54  	b.ne	0x26954 <_ZNK23ChiFeature2HWmultiframe16OnMetadataResultEP24ChiFeature2RequestObjecthP20ChiFeature2StageInfoP21ChiFeature2IdentifierP11ChiMetadatajPv+0x83c>
   268e8: 5c ff ff 90  	adrp	x28, 0xe000 <_ZNK23ChiFeature2HWmultiframe16OnMetadataResultEP24ChiFeature2RequestObjecthP20ChiFeature2StageInfoP21ChiFeature2IdentifierP11ChiMetadatajPv+0x770>
   26918: 61 ff ff d0  	adrp	x1, 0x14000 <_ZNK23ChiFeature2HWmultiframe16OnMetadataResultEP24ChiFeature2RequestObjecthP20ChiFeature2StageInfoP21ChiFeature2IdentifierP11ChiMetadatajPv+0x7b8>
   2691c: 25 ff ff f0  	adrp	x5, 0xd000 <_ZNK23ChiFeature2HWmultiframe16OnMetadataResultEP24ChiFeature2RequestObjecthP20ChiFeature2StageInfoP21ChiFeature2IdentifierP11ChiMetadatajPv+0x7a0>
   26940: 22 ff ff d0  	adrp	x2, 0xc000 <_ZNK23ChiFeature2HWmultiframe16OnMetadataResultEP24ChiFeature2RequestObjecthP20ChiFeature2StageInfoP21ChiFeature2IdentifierP11ChiMetadatajPv+0x7c0>
   26954: 5c ff ff 90  	adrp	x28, 0xe000 <_ZNK23ChiFeature2HWmultiframe16OnMetadataResultEP24ChiFeature2RequestObjecthP20ChiFeature2StageInfoP21ChiFeature2IdentifierP11ChiMetadatajPv+0x7dc>
   26988: 60 ff ff d0  	adrp	x0, 0x14000 <_ZNK23ChiFeature2HWmultiframe16OnMetadataResultEP24ChiFeature2RequestObjecthP20ChiFeature2StageInfoP21ChiFeature2IdentifierP11ChiMetadatajPv+0x828>
   2698c: 41 ff ff d0  	adrp	x1, 0x10000 <_ZNK23ChiFeature2HWmultiframe16OnMetadataResultEP24ChiFeature2RequestObjecthP20ChiFeature2StageInfoP21ChiFeature2IdentifierP11ChiMetadatajPv+0x81c>
   269a4: 25 ff ff f0  	adrp	x5, 0xd000 <_ZNK23ChiFeature2HWmultiframe16OnMetadataResultEP24ChiFeature2RequestObjecthP20ChiFeature2StageInfoP21ChiFeature2IdentifierP11ChiMetadatajPv+0x828>
   269ac: 23 ff ff f0  	adrp	x3, 0xd000 <_ZNK23ChiFeature2HWmultiframe16OnMetadataResultEP24ChiFeature2RequestObjecthP20ChiFeature2StageInfoP21ChiFeature2IdentifierP11ChiMetadatajPv+0x830>
   269c0: b8 85 00 94  	bl	0x480a0 <_ZN6ChiLog9LogSystemEPKcS1_S1_S1_iS1_z@plt>
   269cc: 2a 01 00 f0  	adrp	x10, 0x4d000 <_ZNK23ChiFeature2HWmultiframe16OnMetadataResultEP24ChiFeature2RequestObjecthP20ChiFeature2StageInfoP21ChiFeature2IdentifierP11ChiMetadatajPv+0x950>
   269dc: 81 03 00 54  	b.ne	0x26a4c <_ZNK23ChiFeature2HWmultiframe16OnMetadataResultEP24ChiFeature2RequestObjecthP20ChiFeature2StageInfoP21ChiFeature2IdentifierP11ChiMetadatajPv+0x934>
   26a00: 3c 86 00 94  	bl	0x482f0 <_ZNK15ChiFeature2Base16OnMetadataResultEP24ChiFeature2RequestObjecthP20ChiFeature2StageInfoP21ChiFeature2IdentifierP11ChiMetadatajPv@plt>
   26a10: 61 03 00 54  	b.ne	0x26a7c <_ZNK23ChiFeature2HWmultiframe16OnMetadataResultEP24ChiFeature2RequestObjecthP20ChiFeature2StageInfoP21ChiFeature2IdentifierP11ChiMetadatajPv+0x964>
   26a48: 0f fe ff 17  	b	0x26284 <_ZNK23ChiFeature2HWmultiframe16OnMetadataResultEP24ChiFeature2RequestObjecthP20ChiFeature2StageInfoP21ChiFeature2IdentifierP11ChiMetadatajPv+0x16c>
   26a60: e0 ff ff 17  	b	0x269e0 <_ZNK23ChiFeature2HWmultiframe16OnMetadataResultEP24ChiFeature2RequestObjecthP20ChiFeature2StageInfoP21ChiFeature2IdentifierP11ChiMetadatajPv+0x8c8>
   26a78: c5 fd ff 17  	b	0x2618c <_ZNK23ChiFeature2HWmultiframe16OnMetadataResultEP24ChiFeature2RequestObjecthP20ChiFeature2StageInfoP21ChiFeature2IdentifierP11ChiMetadatajPv+0x74>
0000000000026a80 <_ZNK23ChiFeature2HWmultiframe21OnReleaseDependenciesEPK21ChiFeature2IdentifierhhP20ChiFeature2StageInfoP24ChiFeature2RequestObject>:
   26aa8: 3c 01 00 f0  	adrp	x28, 0x4d000 <_ZNK23ChiFeature2HWmultiframe21OnReleaseDependenciesEPK21ChiFeature2IdentifierhhP20ChiFeature2StageInfoP24ChiFeature2RequestObject+0xc4>
   26acc: 21 20 00 54  	b.ne	0x26ed0 <_ZNK23ChiFeature2HWmultiframe21OnReleaseDependenciesEPK21ChiFeature2IdentifierhhP20ChiFeature2StageInfoP24ChiFeature2RequestObject+0x450>
   26ad4: e1 20 00 54  	b.ne	0x26ef0 <_ZNK23ChiFeature2HWmultiframe21OnReleaseDependenciesEPK21ChiFeature2IdentifierhhP20ChiFeature2StageInfoP24ChiFeature2RequestObject+0x470>
   26ae0: 78 85 00 94  	bl	0x480c0 <_ZNK15ChiFeature2Base21GetFeaturePrivContextEP24ChiFeature2RequestObject@plt>
   26ae4: 40 03 00 b4  	cbz	x0, 0x26b4c <_ZNK23ChiFeature2HWmultiframe21OnReleaseDependenciesEPK21ChiFeature2IdentifierhhP20ChiFeature2StageInfoP24ChiFeature2RequestObject+0xcc>
   26af0: e9 02 00 54  	b.ls	0x26b4c <_ZNK23ChiFeature2HWmultiframe21OnReleaseDependenciesEPK21ChiFeature2IdentifierhhP20ChiFeature2StageInfoP24ChiFeature2RequestObject+0xcc>
   26b04: 73 02 00 b4  	cbz	x19, 0x26b50 <_ZNK23ChiFeature2HWmultiframe21OnReleaseDependenciesEPK21ChiFeature2IdentifierhhP20ChiFeature2StageInfoP24ChiFeature2RequestObject+0xd0>
   26b08: 56 02 00 b4  	cbz	x22, 0x26b50 <_ZNK23ChiFeature2HWmultiframe21OnReleaseDependenciesEPK21ChiFeature2IdentifierhhP20ChiFeature2StageInfoP24ChiFeature2RequestObject+0xd0>
   26b18: 81 1f 00 54  	b.ne	0x26f08 <_ZNK23ChiFeature2HWmultiframe21OnReleaseDependenciesEPK21ChiFeature2IdentifierhhP20ChiFeature2StageInfoP24ChiFeature2RequestObject+0x488>
   26b24: f7 85 00 94  	bl	0x48300 <_ZNK15ChiFeature2Base27GetPortDescriptorFromPortIdEPK21ChiFeature2Identifier@plt>
   26b30: 6b 08 00 34  	cbz	w11, 0x26c3c <_ZNK23ChiFeature2HWmultiframe21OnReleaseDependenciesEPK21ChiFeature2IdentifierhhP20ChiFeature2StageInfoP24ChiFeature2RequestObject+0x1bc>
   26b38: a1 0f 00 54  	b.ne	0x26d2c <_ZNK23ChiFeature2HWmultiframe21OnReleaseDependenciesEPK21ChiFeature2IdentifierhhP20ChiFeature2StageInfoP24ChiFeature2RequestObject+0x2ac>
   26b40: ab 0f 00 34  	cbz	w11, 0x26d34 <_ZNK23ChiFeature2HWmultiframe21OnReleaseDependenciesEPK21ChiFeature2IdentifierhhP20ChiFeature2StageInfoP24ChiFeature2RequestObject+0x2b4>
   26b48: 90 00 00 14  	b	0x26d88 <_ZNK23ChiFeature2HWmultiframe21OnReleaseDependenciesEPK21ChiFeature2IdentifierhhP20ChiFeature2StageInfoP24ChiFeature2RequestObject+0x308>
   26b50: 21 01 00 f0  	adrp	x1, 0x4d000 <_ZNK23ChiFeature2HWmultiframe21OnReleaseDependenciesEPK21ChiFeature2IdentifierhhP20ChiFeature2StageInfoP24ChiFeature2RequestObject+0x16c>
   26b5c: f4 05 08 36  	tbz	w20, #1, 0x26c18 <_ZNK23ChiFeature2HWmultiframe21OnReleaseDependenciesEPK21ChiFeature2IdentifierhhP20ChiFeature2StageInfoP24ChiFeature2RequestObject+0x198>
   26b60: 22 01 00 f0  	adrp	x2, 0x4d000 <_ZNK23ChiFeature2HWmultiframe21OnReleaseDependenciesEPK21ChiFeature2IdentifierhhP20ChiFeature2StageInfoP24ChiFeature2RequestObject+0x17c>
   26b70: a1 02 00 54  	b.ne	0x26bc4 <_ZNK23ChiFeature2HWmultiframe21OnReleaseDependenciesEPK21ChiFeature2IdentifierhhP20ChiFeature2StageInfoP24ChiFeature2RequestObject+0x144>
   26b74: 59 ff ff 90  	adrp	x25, 0xe000 <_ZNK23ChiFeature2HWmultiframe21OnReleaseDependenciesEPK21ChiFeature2IdentifierhhP20ChiFeature2StageInfoP24ChiFeature2RequestObject+0x94>
   26b90: 61 ff ff d0  	adrp	x1, 0x14000 <_ZNK23ChiFeature2HWmultiframe21OnReleaseDependenciesEPK21ChiFeature2IdentifierhhP20ChiFeature2StageInfoP24ChiFeature2RequestObject+0xc8>
   26b94: 62 ff ff b0  	adrp	x2, 0x13000 <_ZNK23ChiFeature2HWmultiframe21OnReleaseDependenciesEPK21ChiFeature2IdentifierhhP20ChiFeature2StageInfoP24ChiFeature2RequestObject+0xc8>
   26b98: 25 ff ff f0  	adrp	x5, 0xd000 <_ZNK23ChiFeature2HWmultiframe21OnReleaseDependenciesEPK21ChiFeature2IdentifierhhP20ChiFeature2StageInfoP24ChiFeature2RequestObject+0xb4>
   26bc4: 58 ff ff 90  	adrp	x24, 0xe000 <_ZNK23ChiFeature2HWmultiframe21OnReleaseDependenciesEPK21ChiFeature2IdentifierhhP20ChiFeature2StageInfoP24ChiFeature2RequestObject+0xe4>
   26be0: 41 ff ff 90  	adrp	x1, 0xe000 <_ZNK23ChiFeature2HWmultiframe21OnReleaseDependenciesEPK21ChiFeature2IdentifierhhP20ChiFeature2StageInfoP24ChiFeature2RequestObject+0x100>
   26be8: 40 ff ff f0  	adrp	x0, 0x11000 <_ZNK23ChiFeature2HWmultiframe21OnReleaseDependenciesEPK21ChiFeature2IdentifierhhP20ChiFeature2StageInfoP24ChiFeature2RequestObject+0x114>
   26bec: 23 ff ff f0  	adrp	x3, 0xd000 <_ZNK23ChiFeature2HWmultiframe21OnReleaseDependenciesEPK21ChiFeature2IdentifierhhP20ChiFeature2StageInfoP24ChiFeature2RequestObject+0x108>
   26bf0: 65 ff ff b0  	adrp	x5, 0x13000 <_ZNK23ChiFeature2HWmultiframe21OnReleaseDependenciesEPK21ChiFeature2IdentifierhhP20ChiFeature2StageInfoP24ChiFeature2RequestObject+0x124>
   26c14: 23 85 00 94  	bl	0x480a0 <_ZN6ChiLog9LogSystemEPKcS1_S1_S1_iS1_z@plt>
   26c3c: 4c 01 00 b0  	adrp	x12, 0x4f000 <_ZNK23ChiFeature2HWmultiframe21OnReleaseDependenciesEPK21ChiFeature2IdentifierhhP20ChiFeature2StageInfoP24ChiFeature2RequestObject+0x260>
   26c4c: 21 02 00 54  	b.ne	0x26c90 <_ZNK23ChiFeature2HWmultiframe21OnReleaseDependenciesEPK21ChiFeature2IdentifierhhP20ChiFeature2StageInfoP24ChiFeature2RequestObject+0x210>
   26c50: 49 01 00 b0  	adrp	x9, 0x4f000 <_ZNK23ChiFeature2HWmultiframe21OnReleaseDependenciesEPK21ChiFeature2IdentifierhhP20ChiFeature2StageInfoP24ChiFeature2RequestObject+0x274>
   26c64: 61 01 00 54  	b.ne	0x26c90 <_ZNK23ChiFeature2HWmultiframe21OnReleaseDependenciesEPK21ChiFeature2IdentifierhhP20ChiFeature2StageInfoP24ChiFeature2RequestObject+0x210>
   26c74: e1 00 00 54  	b.ne	0x26c90 <_ZNK23ChiFeature2HWmultiframe21OnReleaseDependenciesEPK21ChiFeature2IdentifierhhP20ChiFeature2StageInfoP24ChiFeature2RequestObject+0x210>
   26c7c: a5 00 00 35  	cbnz	w5, 0x26c90 <_ZNK23ChiFeature2HWmultiframe21OnReleaseDependenciesEPK21ChiFeature2IdentifierhhP20ChiFeature2StageInfoP24ChiFeature2RequestObject+0x210>
   26c8c: c0 f5 ff 54  	b.eq	0x26b44 <_ZNK23ChiFeature2HWmultiframe21OnReleaseDependenciesEPK21ChiFeature2IdentifierhhP20ChiFeature2StageInfoP24ChiFeature2RequestObject+0xc4>
   26c90: 4d 01 00 b0  	adrp	x13, 0x4f000 <_ZNK23ChiFeature2HWmultiframe21OnReleaseDependenciesEPK21ChiFeature2IdentifierhhP20ChiFeature2StageInfoP24ChiFeature2RequestObject+0x2b4>
   26c9c: 21 02 00 54  	b.ne	0x26ce0 <_ZNK23ChiFeature2HWmultiframe21OnReleaseDependenciesEPK21ChiFeature2IdentifierhhP20ChiFeature2StageInfoP24ChiFeature2RequestObject+0x260>
   26ca0: 48 01 00 b0  	adrp	x8, 0x4f000 <_ZNK23ChiFeature2HWmultiframe21OnReleaseDependenciesEPK21ChiFeature2IdentifierhhP20ChiFeature2StageInfoP24ChiFeature2RequestObject+0x2c4>
   26cb4: 61 01 00 54  	b.ne	0x26ce0 <_ZNK23ChiFeature2HWmultiframe21OnReleaseDependenciesEPK21ChiFeature2IdentifierhhP20ChiFeature2StageInfoP24ChiFeature2RequestObject+0x260>
   26cc4: e1 00 00 54  	b.ne	0x26ce0 <_ZNK23ChiFeature2HWmultiframe21OnReleaseDependenciesEPK21ChiFeature2IdentifierhhP20ChiFeature2StageInfoP24ChiFeature2RequestObject+0x260>
   26ccc: ab 00 00 35  	cbnz	w11, 0x26ce0 <_ZNK23ChiFeature2HWmultiframe21OnReleaseDependenciesEPK21ChiFeature2IdentifierhhP20ChiFeature2StageInfoP24ChiFeature2RequestObject+0x260>
   26cdc: 40 f3 ff 54  	b.eq	0x26b44 <_ZNK23ChiFeature2HWmultiframe21OnReleaseDependenciesEPK21ChiFeature2IdentifierhhP20ChiFeature2StageInfoP24ChiFeature2RequestObject+0xc4>
   26ce8: e1 01 00 54  	b.ne	0x26d24 <_ZNK23ChiFeature2HWmultiframe21OnReleaseDependenciesEPK21ChiFeature2IdentifierhhP20ChiFeature2StageInfoP24ChiFeature2RequestObject+0x2a4>
   26d00: 03 11 00 54  	b.lo	0x26f20 <_ZNK23ChiFeature2HWmultiframe21OnReleaseDependenciesEPK21ChiFeature2IdentifierhhP20ChiFeature2StageInfoP24ChiFeature2RequestObject+0x4a0>
   26d0c: c1 00 00 54  	b.ne	0x26d24 <_ZNK23ChiFeature2HWmultiframe21OnReleaseDependenciesEPK21ChiFeature2IdentifierhhP20ChiFeature2StageInfoP24ChiFeature2RequestObject+0x2a4>
   26d20: 39 f1 ff 34  	cbz	w25, 0x26b44 <_ZNK23ChiFeature2HWmultiframe21OnReleaseDependenciesEPK21ChiFeature2IdentifierhhP20ChiFeature2StageInfoP24ChiFeature2RequestObject+0xc4>
   26d28: 17 00 00 14  	b	0x26d84 <_ZNK23ChiFeature2HWmultiframe21OnReleaseDependenciesEPK21ChiFeature2IdentifierhhP20ChiFeature2StageInfoP24ChiFeature2RequestObject+0x304>
   26d30: 16 00 00 14  	b	0x26d88 <_ZNK23ChiFeature2HWmultiframe21OnReleaseDependenciesEPK21ChiFeature2IdentifierhhP20ChiFeature2StageInfoP24ChiFeature2RequestObject+0x308>
   26d60: e1 00 00 54  	b.ne	0x26d7c <_ZNK23ChiFeature2HWmultiframe21OnReleaseDependenciesEPK21ChiFeature2IdentifierhhP20ChiFeature2StageInfoP24ChiFeature2RequestObject+0x2fc>
   26d70: 61 00 00 54  	b.ne	0x26d7c <_ZNK23ChiFeature2HWmultiframe21OnReleaseDependenciesEPK21ChiFeature2IdentifierhhP20ChiFeature2StageInfoP24ChiFeature2RequestObject+0x2fc>
   26d78: 43 0d 00 54  	b.lo	0x26f20 <_ZNK23ChiFeature2HWmultiframe21OnReleaseDependenciesEPK21ChiFeature2IdentifierhhP20ChiFeature2StageInfoP24ChiFeature2RequestObject+0x4a0>
   26d94: 5f 85 00 94  	bl	0x48310 <_ZNK24ChiFeature2RequestObject35IsStageOutputsGeneratedForRequestIdEhP20ChiFeature2StageInfo@plt>
   26da8: a8 f3 ff 34  	cbz	w8, 0x26c1c <_ZNK23ChiFeature2HWmultiframe21OnReleaseDependenciesEPK21ChiFeature2IdentifierhhP20ChiFeature2StageInfoP24ChiFeature2RequestObject+0x19c>
   26dac: 99 f3 ff 34  	cbz	w25, 0x26c1c <_ZNK23ChiFeature2HWmultiframe21OnReleaseDependenciesEPK21ChiFeature2IdentifierhhP20ChiFeature2StageInfoP24ChiFeature2RequestObject+0x19c>
   26db0: 30 01 00 f0  	adrp	x16, 0x4d000 <_ZNK23ChiFeature2HWmultiframe21OnReleaseDependenciesEPK21ChiFeature2IdentifierhhP20ChiFeature2StageInfoP24ChiFeature2RequestObject+0x3cc>
   26dbc: 6d 08 18 36  	tbz	w13, #3, 0x26ec8 <_ZNK23ChiFeature2HWmultiframe21OnReleaseDependenciesEPK21ChiFeature2IdentifierhhP20ChiFeature2StageInfoP24ChiFeature2RequestObject+0x448>
   26dc0: 31 01 00 f0  	adrp	x17, 0x4d000 <_ZNK23ChiFeature2HWmultiframe21OnReleaseDependenciesEPK21ChiFeature2IdentifierhhP20ChiFeature2StageInfoP24ChiFeature2RequestObject+0x3dc>
   26dc4: 58 ff ff 90  	adrp	x24, 0xe000 <_ZNK23ChiFeature2HWmultiframe21OnReleaseDependenciesEPK21ChiFeature2IdentifierhhP20ChiFeature2StageInfoP24ChiFeature2RequestObject+0x2e4>
   26dd8: c1 03 00 54  	b.ne	0x26e50 <_ZNK23ChiFeature2HWmultiframe21OnReleaseDependenciesEPK21ChiFeature2IdentifierhhP20ChiFeature2StageInfoP24ChiFeature2RequestObject+0x3d0>
   26df8: 77 00 00 b4  	cbz	x23, 0x26e04 <_ZNK23ChiFeature2HWmultiframe21OnReleaseDependenciesEPK21ChiFeature2IdentifierhhP20ChiFeature2StageInfoP24ChiFeature2RequestObject+0x384>
   26e00: 03 00 00 14  	b	0x26e0c <_ZNK23ChiFeature2HWmultiframe21OnReleaseDependenciesEPK21ChiFeature2IdentifierhhP20ChiFeature2StageInfoP24ChiFeature2RequestObject+0x38c>
   26e04: 47 ff ff 90  	adrp	x7, 0xe000 <_ZNK23ChiFeature2HWmultiframe21OnReleaseDependenciesEPK21ChiFeature2IdentifierhhP20ChiFeature2StageInfoP24ChiFeature2RequestObject+0x324>
   26e18: 61 ff ff d0  	adrp	x1, 0x14000 <_ZNK23ChiFeature2HWmultiframe21OnReleaseDependenciesEPK21ChiFeature2IdentifierhhP20ChiFeature2StageInfoP24ChiFeature2RequestObject+0x350>
   26e20: 42 ff ff d0  	adrp	x2, 0x10000 <_ZNK23ChiFeature2HWmultiframe21OnReleaseDependenciesEPK21ChiFeature2IdentifierhhP20ChiFeature2StageInfoP24ChiFeature2RequestObject+0x348>
   26e24: 25 ff ff f0  	adrp	x5, 0xd000 <_ZNK23ChiFeature2HWmultiframe21OnReleaseDependenciesEPK21ChiFeature2IdentifierhhP20ChiFeature2StageInfoP24ChiFeature2RequestObject+0x340>
   26e6c: 77 00 00 b4  	cbz	x23, 0x26e78 <_ZNK23ChiFeature2HWmultiframe21OnReleaseDependenciesEPK21ChiFeature2IdentifierhhP20ChiFeature2StageInfoP24ChiFeature2RequestObject+0x3f8>
   26e74: 03 00 00 14  	b	0x26e80 <_ZNK23ChiFeature2HWmultiframe21OnReleaseDependenciesEPK21ChiFeature2IdentifierhhP20ChiFeature2StageInfoP24ChiFeature2RequestObject+0x400>
   26e78: 47 ff ff 90  	adrp	x7, 0xe000 <_ZNK23ChiFeature2HWmultiframe21OnReleaseDependenciesEPK21ChiFeature2IdentifierhhP20ChiFeature2StageInfoP24ChiFeature2RequestObject+0x398>
   26e84: 60 ff ff d0  	adrp	x0, 0x14000 <_ZNK23ChiFeature2HWmultiframe21OnReleaseDependenciesEPK21ChiFeature2IdentifierhhP20ChiFeature2StageInfoP24ChiFeature2RequestObject+0x3bc>
   26e8c: 41 ff ff d0  	adrp	x1, 0x10000 <_ZNK23ChiFeature2HWmultiframe21OnReleaseDependenciesEPK21ChiFeature2IdentifierhhP20ChiFeature2StageInfoP24ChiFeature2RequestObject+0x3b4>
   26e94: 23 ff ff f0  	adrp	x3, 0xd000 <_ZNK23ChiFeature2HWmultiframe21OnReleaseDependenciesEPK21ChiFeature2IdentifierhhP20ChiFeature2StageInfoP24ChiFeature2RequestObject+0x3b0>
   26e98: 65 ff ff d0  	adrp	x5, 0x14000 <_ZNK23ChiFeature2HWmultiframe21OnReleaseDependenciesEPK21ChiFeature2IdentifierhhP20ChiFeature2StageInfoP24ChiFeature2RequestObject+0x3d0>
   26ec4: 77 84 00 94  	bl	0x480a0 <_ZN6ChiLog9LogSystemEPKcS1_S1_S1_iS1_z@plt>
   26ecc: 54 ff ff 17  	b	0x26c1c <_ZNK23ChiFeature2HWmultiframe21OnReleaseDependenciesEPK21ChiFeature2IdentifierhhP20ChiFeature2StageInfoP24ChiFeature2RequestObject+0x19c>
   26eec: 60 df ff 54  	b.eq	0x26ad8 <_ZNK23ChiFeature2HWmultiframe21OnReleaseDependenciesEPK21ChiFeature2IdentifierhhP20ChiFeature2StageInfoP24ChiFeature2RequestObject+0x58>
   26f04: f5 fe ff 17  	b	0x26ad8 <_ZNK23ChiFeature2HWmultiframe21OnReleaseDependenciesEPK21ChiFeature2IdentifierhhP20ChiFeature2StageInfoP24ChiFeature2RequestObject+0x58>
   26f1c: 00 ff ff 17  	b	0x26b1c <_ZNK23ChiFeature2HWmultiframe21OnReleaseDependenciesEPK21ChiFeature2IdentifierhhP20ChiFeature2StageInfoP24ChiFeature2RequestObject+0x9c>
0000000000026f28 <_ZNK23ChiFeature2HWmultiframe16DoCleanupRequestEP24ChiFeature2RequestObject>:
   26f40: e1 09 00 b4  	cbz	x1, 0x2707c <_ZNK23ChiFeature2HWmultiframe16DoCleanupRequestEP24ChiFeature2RequestObject+0x154>
   26f4c: 36 01 00 f0  	adrp	x22, 0x4d000 <_ZNK23ChiFeature2HWmultiframe16DoCleanupRequestEP24ChiFeature2RequestObject+0xc0>
   26f60: c1 09 00 54  	b.ne	0x27098 <_ZNK23ChiFeature2HWmultiframe16DoCleanupRequestEP24ChiFeature2RequestObject+0x170>
   26f6c: 55 84 00 94  	bl	0x480c0 <_ZNK15ChiFeature2Base21GetFeaturePrivContextEP24ChiFeature2RequestObject@plt>
   26f70: c0 03 00 b4  	cbz	x0, 0x26fe8 <_ZNK23ChiFeature2HWmultiframe16DoCleanupRequestEP24ChiFeature2RequestObject+0xc0>
   26f7c: 28 02 00 34  	cbz	w8, 0x26fc0 <_ZNK23ChiFeature2HWmultiframe16DoCleanupRequestEP24ChiFeature2RequestObject+0x98>
   26f90: 05 00 00 14  	b	0x26fa4 <_ZNK23ChiFeature2HWmultiframe16DoCleanupRequestEP24ChiFeature2RequestObject+0x7c>
   26fa0: 02 01 00 54  	b.hs	0x26fc0 <_ZNK23ChiFeature2HWmultiframe16DoCleanupRequestEP24ChiFeature2RequestObject+0x98>
   26fa8: 60 ff ff b4  	cbz	x0, 0x26f94 <_ZNK23ChiFeature2HWmultiframe16DoCleanupRequestEP24ChiFeature2RequestObject+0x6c>
   26fb0: dc 84 00 94  	bl	0x48320 <_ZN11ChiMetadata7DestroyEb@plt>
   26fbc: f6 ff ff 17  	b	0x26f94 <_ZNK23ChiFeature2HWmultiframe16DoCleanupRequestEP24ChiFeature2RequestObject+0x6c>
   26fd4: c1 09 00 54  	b.ne	0x2710c <_ZNK23ChiFeature2HWmultiframe16DoCleanupRequestEP24ChiFeature2RequestObject+0x1e4>
   26fe4: 67 84 00 94  	bl	0x48180 <_ZNK15ChiFeature2Base21SetFeaturePrivContextEP24ChiFeature2RequestObjectPv@plt>
   26ff4: e1 05 00 54  	b.ne	0x270b0 <_ZNK23ChiFeature2HWmultiframe16DoCleanupRequestEP24ChiFeature2RequestObject+0x188>
   27004: 41 06 00 54  	b.ne	0x270cc <_ZNK23ChiFeature2HWmultiframe16DoCleanupRequestEP24ChiFeature2RequestObject+0x1a4>
   27018: 81 06 00 54  	b.ne	0x270e8 <_ZNK23ChiFeature2HWmultiframe16DoCleanupRequestEP24ChiFeature2RequestObject+0x1c0>
   27028: 5a 84 00 94  	bl	0x48190 <_ZN24ChiFeature2RequestObject33GetInterFeatureRequestPrivateDataEjjj@plt>
   2702c: 80 02 00 b4  	cbz	x0, 0x2707c <_ZNK23ChiFeature2HWmultiframe16DoCleanupRequestEP24ChiFeature2RequestObject+0x154>
   27040: 21 07 00 54  	b.ne	0x27124 <_ZNK23ChiFeature2HWmultiframe16DoCleanupRequestEP24ChiFeature2RequestObject+0x1fc>
   27050: 81 07 00 54  	b.ne	0x27140 <_ZNK23ChiFeature2HWmultiframe16DoCleanupRequestEP24ChiFeature2RequestObject+0x218>
   27064: c1 07 00 54  	b.ne	0x2715c <_ZNK23ChiFeature2HWmultiframe16DoCleanupRequestEP24ChiFeature2RequestObject+0x234>
   27078: 4a 84 00 94  	bl	0x481a0 <_ZN24ChiFeature2RequestObject33SetInterFeatureRequestPrivateDataEjjjPv@plt>
   270ac: ae ff ff 17  	b	0x26f64 <_ZNK23ChiFeature2HWmultiframe16DoCleanupRequestEP24ChiFeature2RequestObject+0x3c>
   270c8: cc ff ff 17  	b	0x26ff8 <_ZNK23ChiFeature2HWmultiframe16DoCleanupRequestEP24ChiFeature2RequestObject+0xd0>
   270e4: c9 ff ff 17  	b	0x27008 <_ZNK23ChiFeature2HWmultiframe16DoCleanupRequestEP24ChiFeature2RequestObject+0xe0>
   27108: c5 ff ff 17  	b	0x2701c <_ZNK23ChiFeature2HWmultiframe16DoCleanupRequestEP24ChiFeature2RequestObject+0xf4>
   27120: ae ff ff 17  	b	0x26fd8 <_ZNK23ChiFeature2HWmultiframe16DoCleanupRequestEP24ChiFeature2RequestObject+0xb0>
   2713c: c2 ff ff 17  	b	0x27044 <_ZNK23ChiFeature2HWmultiframe16DoCleanupRequestEP24ChiFeature2RequestObject+0x11c>
   27158: bf ff ff 17  	b	0x27054 <_ZNK23ChiFeature2HWmultiframe16DoCleanupRequestEP24ChiFeature2RequestObject+0x12c>
   2717c: bb ff ff 17  	b	0x27068 <_ZNK23ChiFeature2HWmultiframe16DoCleanupRequestEP24ChiFeature2RequestObject+0x140>
0000000000027180 <_ZN23ChiFeature2HWmultiframe7DoFlushEv>:
0000000000027188 <_ZN23ChiFeature2HWmultiframe32CalculateMaxFeatureExecutionTimeEv>:
0000000000027190 <_ZNK23ChiFeature2HWmultiframe28OnPopulateDependencySettingsEP24ChiFeature2RequestObjecthPK21ChiFeature2IdentifierP11ChiMetadata>:
   271b8: 38 01 00 d0  	adrp	x24, 0x4d000 <_ZNK23ChiFeature2HWmultiframe28OnPopulateDependencySettingsEP24ChiFeature2RequestObjecthPK21ChiFeature2IdentifierP11ChiMetadata+0xc0>
   271dc: a1 0b 00 54  	b.ne	0x27350 <_ZNK23ChiFeature2HWmultiframe28OnPopulateDependencySettingsEP24ChiFeature2RequestObjecthPK21ChiFeature2IdentifierP11ChiMetadata+0x1c0>
   271f0: 50 84 00 94  	bl	0x48330 <_ZNK15ChiFeature2Base28OnPopulateDependencySettingsEP24ChiFeature2RequestObjecthPK21ChiFeature2IdentifierP11ChiMetadata@plt>
   27200: 81 0b 00 54  	b.ne	0x27370 <_ZNK23ChiFeature2HWmultiframe28OnPopulateDependencySettingsEP24ChiFeature2RequestObjecthPK21ChiFeature2IdentifierP11ChiMetadata+0x1e0>
   2720c: 01 0c 00 54  	b.ne	0x2738c <_ZNK23ChiFeature2HWmultiframe28OnPopulateDependencySettingsEP24ChiFeature2RequestObjecthPK21ChiFeature2IdentifierP11ChiMetadata+0x1fc>
   27218: aa 83 00 94  	bl	0x480c0 <_ZNK15ChiFeature2Base21GetFeaturePrivContextEP24ChiFeature2RequestObject@plt>
   27224: e1 07 00 54  	b.ne	0x27320 <_ZNK23ChiFeature2HWmultiframe28OnPopulateDependencySettingsEP24ChiFeature2RequestObjecthPK21ChiFeature2IdentifierP11ChiMetadata+0x190>
   2722c: b4 07 00 b4  	cbz	x20, 0x27320 <_ZNK23ChiFeature2HWmultiframe28OnPopulateDependencySettingsEP24ChiFeature2RequestObjecthPK21ChiFeature2IdentifierP11ChiMetadata+0x190>
   27250: 21 ff ff f0  	adrp	x1, 0xe000 <_ZNK23ChiFeature2HWmultiframe28OnPopulateDependencySettingsEP24ChiFeature2RequestObjecthPK21ChiFeature2IdentifierP11ChiMetadata+0x5c>
   27254: 22 ff ff d0  	adrp	x2, 0xd000 <_ZNK23ChiFeature2HWmultiframe28OnPopulateDependencySettingsEP24ChiFeature2RequestObjecthPK21ChiFeature2IdentifierP11ChiMetadata+0x5c>
   27274: 60 05 00 34  	cbz	w0, 0x27320 <_ZNK23ChiFeature2HWmultiframe28OnPopulateDependencySettingsEP24ChiFeature2RequestObjecthPK21ChiFeature2IdentifierP11ChiMetadata+0x190>
   27278: 29 01 00 d0  	adrp	x9, 0x4d000 <_ZNK23ChiFeature2HWmultiframe28OnPopulateDependencySettingsEP24ChiFeature2RequestObjecthPK21ChiFeature2IdentifierP11ChiMetadata+0x180>
   27284: e9 04 00 36  	tbz	w9, #0, 0x27320 <_ZNK23ChiFeature2HWmultiframe28OnPopulateDependencySettingsEP24ChiFeature2RequestObjecthPK21ChiFeature2IdentifierP11ChiMetadata+0x190>
   27288: 2a 01 00 d0  	adrp	x10, 0x4d000 <_ZNK23ChiFeature2HWmultiframe28OnPopulateDependencySettingsEP24ChiFeature2RequestObjecthPK21ChiFeature2IdentifierP11ChiMetadata+0x190>
   2728c: 36 ff ff f0  	adrp	x22, 0xe000 <_ZNK23ChiFeature2HWmultiframe28OnPopulateDependencySettingsEP24ChiFeature2RequestObjecthPK21ChiFeature2IdentifierP11ChiMetadata+0x98>
   272a0: 01 02 00 54  	b.ne	0x272e0 <_ZNK23ChiFeature2HWmultiframe28OnPopulateDependencySettingsEP24ChiFeature2RequestObjecthPK21ChiFeature2IdentifierP11ChiMetadata+0x150>
   272b8: 61 ff ff b0  	adrp	x1, 0x14000 <_ZNK23ChiFeature2HWmultiframe28OnPopulateDependencySettingsEP24ChiFeature2RequestObjecthPK21ChiFeature2IdentifierP11ChiMetadata+0xdc>
   272bc: 22 ff ff d0  	adrp	x2, 0xd000 <_ZNK23ChiFeature2HWmultiframe28OnPopulateDependencySettingsEP24ChiFeature2RequestObjecthPK21ChiFeature2IdentifierP11ChiMetadata+0xc4>
   272c0: 45 ff ff d0  	adrp	x5, 0x11000 <_ZNK23ChiFeature2HWmultiframe28OnPopulateDependencySettingsEP24ChiFeature2RequestObjecthPK21ChiFeature2IdentifierP11ChiMetadata+0xd8>
   272f4: 61 ff ff 90  	adrp	x1, 0x13000 <_ZNK23ChiFeature2HWmultiframe28OnPopulateDependencySettingsEP24ChiFeature2RequestObjecthPK21ChiFeature2IdentifierP11ChiMetadata+0x114>
   272fc: 20 ff ff d0  	adrp	x0, 0xd000 <_ZNK23ChiFeature2HWmultiframe28OnPopulateDependencySettingsEP24ChiFeature2RequestObjecthPK21ChiFeature2IdentifierP11ChiMetadata+0x104>
   27300: 43 ff ff d0  	adrp	x3, 0x11000 <_ZNK23ChiFeature2HWmultiframe28OnPopulateDependencySettingsEP24ChiFeature2RequestObjecthPK21ChiFeature2IdentifierP11ChiMetadata+0x118>
   27304: 25 ff ff f0  	adrp	x5, 0xe000 <_ZNK23ChiFeature2HWmultiframe28OnPopulateDependencySettingsEP24ChiFeature2RequestObjecthPK21ChiFeature2IdentifierP11ChiMetadata+0x110>
   2731c: 61 83 00 94  	bl	0x480a0 <_ZN6ChiLog9LogSystemEPKcS1_S1_S1_iS1_z@plt>
   2732c: c1 03 00 54  	b.ne	0x273a4 <_ZNK23ChiFeature2HWmultiframe28OnPopulateDependencySettingsEP24ChiFeature2RequestObjecthPK21ChiFeature2IdentifierP11ChiMetadata+0x214>
   2736c: 9d ff ff 17  	b	0x271e0 <_ZNK23ChiFeature2HWmultiframe28OnPopulateDependencySettingsEP24ChiFeature2RequestObjecthPK21ChiFeature2IdentifierP11ChiMetadata+0x50>
   27388: 9f ff ff 17  	b	0x27204 <_ZNK23ChiFeature2HWmultiframe28OnPopulateDependencySettingsEP24ChiFeature2RequestObjecthPK21ChiFeature2IdentifierP11ChiMetadata+0x74>
   273a0: 9c ff ff 17  	b	0x27210 <_ZNK23ChiFeature2HWmultiframe28OnPopulateDependencySettingsEP24ChiFeature2RequestObjecthPK21ChiFeature2IdentifierP11ChiMetadata+0x80>
00000000000273a8 <_ZN23ChiFeature2HWmultiframeD0Ev>:
   273b8: e2 83 00 94  	bl	0x48340 <_ZN15ChiFeature2BaseD2Ev@plt>
00000000000273d0 <_ZN23ChiFeature2HWmultiframe12OnInitializeEP26ChiFeature2CreateInputInfo>:
   27408: a8 08 00 34  	cbz	w8, 0x2751c <_ZN23ChiFeature2HWmultiframe12OnInitializeEP26ChiFeature2CreateInputInfo+0x14c>
   2740c: 38 01 00 d0  	adrp	x24, 0x4d000 <_ZN23ChiFeature2HWmultiframe12OnInitializeEP26ChiFeature2CreateInputInfo+0xd4>
   27410: 39 ff ff f0  	adrp	x25, 0xe000 <_ZN23ChiFeature2HWmultiframeD0Ev+0x4>
   27438: 17 00 00 14  	b	0x27494 <_ZN23ChiFeature2HWmultiframe12OnInitializeEP26ChiFeature2CreateInputInfo+0xc4>
   27450: 41 ff ff b0  	adrp	x1, 0x10000 <_ZN23ChiFeature2HWmultiframe12OnInitializeEP26ChiFeature2CreateInputInfo+0x24>
   27458: 60 ff ff b0  	adrp	x0, 0x14000 <_ZN23ChiFeature2HWmultiframe12OnInitializeEP26ChiFeature2CreateInputInfo+0x3c>
   2745c: 43 ff ff f0  	adrp	x3, 0x12000 <_ZN23ChiFeature2HWmultiframe12OnInitializeEP26ChiFeature2CreateInputInfo+0x38>
   27460: 25 ff ff f0  	adrp	x5, 0xe000 <_ZN23ChiFeature2HWmultiframe12OnInitializeEP26ChiFeature2CreateInputInfo+0x2c>
   27478: 0a 83 00 94  	bl	0x480a0 <_ZN6ChiLog9LogSystemEPKcS1_S1_S1_iS1_z@plt>
   27490: 62 04 00 54  	b.hs	0x2751c <_ZN23ChiFeature2HWmultiframe12OnInitializeEP26ChiFeature2CreateInputInfo+0x14c>
   274a0: a0 00 00 54  	b.eq	0x274b4 <_ZN23ChiFeature2HWmultiframe12OnInitializeEP26ChiFeature2CreateInputInfo+0xe4>
   274a4: e8 fe ff 35  	cbnz	w8, 0x27480 <_ZN23ChiFeature2HWmultiframe12OnInitializeEP26ChiFeature2CreateInputInfo+0xb0>
   274b0: f4 ff ff 17  	b	0x27480 <_ZN23ChiFeature2HWmultiframe12OnInitializeEP26ChiFeature2CreateInputInfo+0xb0>
   274b4: 11 12 00 94  	bl	0x2bcf8 <_ZNK23ChiFeature2HWmultiframe27GetPrivateContextForRequestEP24ChiFeature2RequestObject+0x3d0>
   274bc: 21 fe ff 54  	b.ne	0x27480 <_ZN23ChiFeature2HWmultiframe12OnInitializeEP26ChiFeature2CreateInputInfo+0xb0>
   274c4: c9 fd 1f 36  	tbz	w9, #3, 0x2747c <_ZN23ChiFeature2HWmultiframe12OnInitializeEP26ChiFeature2CreateInputInfo+0xac>
   274c8: 2b 01 00 d0  	adrp	x11, 0x4d000 <_ZN23ChiFeature2HWmultiframe19OnConfigurePipelineERN15ChiFeature2Base22ChiFeaturePipelineDataE+0x20>
   274d8: 21 fb ff 54  	b.ne	0x2743c <_ZN23ChiFeature2HWmultiframe12OnInitializeEP26ChiFeature2CreateInputInfo+0x6c>
   274f0: 61 ff ff b0  	adrp	x1, 0x14000 <_ZN23ChiFeature2HWmultiframe12OnInitializeEP26ChiFeature2CreateInputInfo+0xd4>
   274f4: 42 ff ff 90  	adrp	x2, 0xf000 <_ZN23ChiFeature2HWmultiframe12OnInitializeEP26ChiFeature2CreateInputInfo+0xc4>
   274f8: 45 ff ff f0  	adrp	x5, 0x12000 <_ZN23ChiFeature2HWmultiframe12OnInitializeEP26ChiFeature2CreateInputInfo+0xd4>
   27518: c9 ff ff 17  	b	0x2743c <_ZN23ChiFeature2HWmultiframe12OnInitializeEP26ChiFeature2CreateInputInfo+0x6c>
0000000000027540 <_ZN23ChiFeature2HWmultiframe19OnConfigurePipelineERN15ChiFeature2Base22ChiFeaturePipelineDataE>:
   27550: 2b 01 00 d0  	adrp	x11, 0x4d000 <_ZN23ChiFeature2HWmultiframe19OnConfigurePipelineERN15ChiFeature2Base22ChiFeaturePipelineDataE+0xa8>
   27560: 41 06 00 54  	b.ne	0x27628 <_ZN23ChiFeature2HWmultiframe19OnConfigurePipelineERN15ChiFeature2Base22ChiFeaturePipelineDataE+0xe8>
   2756c: 49 01 00 34  	cbz	w9, 0x27594 <_ZN23ChiFeature2HWmultiframe19OnConfigurePipelineERN15ChiFeature2Base22ChiFeaturePipelineDataE+0x54>
   27574: 21 03 00 54  	b.ne	0x275d8 <_ZN23ChiFeature2HWmultiframe19OnConfigurePipelineERN15ChiFeature2Base22ChiFeaturePipelineDataE+0x98>
   27584: e1 03 00 54  	b.ne	0x27600 <_ZN23ChiFeature2HWmultiframe19OnConfigurePipelineERN15ChiFeature2Base22ChiFeaturePipelineDataE+0xc0>
   27590: 70 83 00 14  	b	0x48350 <_ZN15ChiFeature2Base19OnConfigurePipelineERNS_22ChiFeaturePipelineDataE@plt>
   275a0: a8 02 00 54  	b.hi	0x275f4 <_ZN23ChiFeature2HWmultiframe19OnConfigurePipelineERN15ChiFeature2Base22ChiFeaturePipelineDataE+0xb4>
   275ac: e0 01 00 54  	b.eq	0x275e8 <_ZN23ChiFeature2HWmultiframe19OnConfigurePipelineERN15ChiFeature2Base22ChiFeaturePipelineDataE+0xa8>
   275d4: 05 00 00 14  	b	0x275e8 <_ZN23ChiFeature2HWmultiframe19OnConfigurePipelineERN15ChiFeature2Base22ChiFeaturePipelineDataE+0xa8>
   275e4: 61 fe ff 54  	b.ne	0x275b0 <_ZN23ChiFeature2HWmultiframe19OnConfigurePipelineERN15ChiFeature2Base22ChiFeaturePipelineDataE+0x70>
   275f0: 5c 83 00 14  	b	0x48360 <_ZN15ChiFeature2Base14CreatePipelineEPK21ChiFeature2Identifier@plt>
   275fc: 60 fc ff 54  	b.eq	0x27588 <_ZN23ChiFeature2HWmultiframe19OnConfigurePipelineERN15ChiFeature2Base22ChiFeaturePipelineDataE+0x48>
   27624: d9 ff ff 17  	b	0x27588 <_ZN23ChiFeature2HWmultiframe19OnConfigurePipelineERN15ChiFeature2Base22ChiFeaturePipelineDataE+0x48>
   27648: 2b 01 00 d0  	adrp	x11, 0x4d000 <_ZNK23ChiFeature2HWmultiframe21OnConfigureInputPortsERN15ChiFeature2Base22ChiFeaturePipelineDataERKNSt3__16vectorI27ChiFeatureBufferOptionsDataNS3_9allocatorIS5_EEEE+0x88>
   27654: c4 ff ff 17  	b	0x27564 <_ZN23ChiFeature2HWmultiframe19OnConfigurePipelineERN15ChiFeature2Base22ChiFeaturePipelineDataE+0x24>
0000000000027658 <_ZNK23ChiFeature2HWmultiframe21OnConfigureInputPortsERN15ChiFeature2Base22ChiFeaturePipelineDataERKNSt3__16vectorI27ChiFeatureBufferOptionsDataNS3_9allocatorIS5_EEEE>:
   27670: 29 01 00 d0  	adrp	x9, 0x4d000 <_ZNK23ChiFeature2HWmultiframe21OnConfigureInputPortsERN15ChiFeature2Base22ChiFeaturePipelineDataERKNSt3__16vectorI27ChiFeatureBufferOptionsDataNS3_9allocatorIS5_EEEE+0xb0>
   27680: c1 0b 00 54  	b.ne	0x277f8 <_ZNK23ChiFeature2HWmultiframe21OnConfigureInputPortsERN15ChiFeature2Base22ChiFeaturePipelineDataERKNSt3__16vectorI27ChiFeatureBufferOptionsDataNS3_9allocatorIS5_EEEE+0x1a0>
   27688: 3a 83 00 94  	bl	0x48370 <_ZNK15ChiFeature2Base21OnConfigureInputPortsERNS_22ChiFeaturePipelineDataERKNSt3__16vectorI27ChiFeatureBufferOptionsDataNS2_9allocatorIS4_EEEE@plt>
   2768c: 80 00 00 35  	cbnz	w0, 0x2769c <_ZNK23ChiFeature2HWmultiframe21OnConfigureInputPortsERN15ChiFeature2Base22ChiFeaturePipelineDataERKNSt3__16vectorI27ChiFeatureBufferOptionsDataNS3_9allocatorIS5_EEEE+0x44>
   27698: a1 00 00 54  	b.ne	0x276ac <_ZNK23ChiFeature2HWmultiframe21OnConfigureInputPortsERN15ChiFeature2Base22ChiFeaturePipelineDataERKNSt3__16vectorI27ChiFeatureBufferOptionsDataNS3_9allocatorIS5_EEEE+0x54>
   276b0: 4f 01 00 90  	adrp	x15, 0x4f000 <_ZNK23ChiFeature2HWmultiframe21OnConfigureInputPortsERN15ChiFeature2Base22ChiFeaturePipelineDataERKNSt3__16vectorI27ChiFeatureBufferOptionsDataNS3_9allocatorIS5_EEEE+0xf8>
   276b8: 50 01 00 90  	adrp	x16, 0x4f000 <_ZNK23ChiFeature2HWmultiframe21OnConfigureInputPortsERN15ChiFeature2Base22ChiFeaturePipelineDataERKNSt3__16vectorI27ChiFeatureBufferOptionsDataNS3_9allocatorIS5_EEEE+0x100>
   276cc: 4c 01 00 90  	adrp	x12, 0x4f000 <_ZNK23ChiFeature2HWmultiframe21OnConfigureInputPortsERN15ChiFeature2Base22ChiFeaturePipelineDataERKNSt3__16vectorI27ChiFeatureBufferOptionsDataNS3_9allocatorIS5_EEEE+0x114>
   276d0: 4d 01 00 90  	adrp	x13, 0x4f000 <_ZNK23ChiFeature2HWmultiframe21OnConfigureInputPortsERN15ChiFeature2Base22ChiFeaturePipelineDataERKNSt3__16vectorI27ChiFeatureBufferOptionsDataNS3_9allocatorIS5_EEEE+0x118>
   276e0: 11 00 00 14  	b	0x27724 <_ZNK23ChiFeature2HWmultiframe21OnConfigureInputPortsERN15ChiFeature2Base22ChiFeaturePipelineDataERKNSt3__16vectorI27ChiFeatureBufferOptionsDataNS3_9allocatorIS5_EEEE+0xcc>
   27720: e9 fb ff 54  	b.ls	0x2769c <_ZNK23ChiFeature2HWmultiframe21OnConfigureInputPortsERN15ChiFeature2Base22ChiFeaturePipelineDataERKNSt3__16vectorI27ChiFeatureBufferOptionsDataNS3_9allocatorIS5_EEEE+0x44>
   27730: c1 fe ff 54  	b.ne	0x27708 <_ZNK23ChiFeature2HWmultiframe21OnConfigureInputPortsERN15ChiFeature2Base22ChiFeaturePipelineDataERKNSt3__16vectorI27ChiFeatureBufferOptionsDataNS3_9allocatorIS5_EEEE+0xb0>
   27744: a1 02 00 54  	b.ne	0x27798 <_ZNK23ChiFeature2HWmultiframe21OnConfigureInputPortsERN15ChiFeature2Base22ChiFeaturePipelineDataERKNSt3__16vectorI27ChiFeatureBufferOptionsDataNS3_9allocatorIS5_EEEE+0x140>
   27758: 01 02 00 54  	b.ne	0x27798 <_ZNK23ChiFeature2HWmultiframe21OnConfigureInputPortsERN15ChiFeature2Base22ChiFeaturePipelineDataERKNSt3__16vectorI27ChiFeatureBufferOptionsDataNS3_9allocatorIS5_EEEE+0x140>
   2776c: 61 01 00 54  	b.ne	0x27798 <_ZNK23ChiFeature2HWmultiframe21OnConfigureInputPortsERN15ChiFeature2Base22ChiFeaturePipelineDataERKNSt3__16vectorI27ChiFeatureBufferOptionsDataNS3_9allocatorIS5_EEEE+0x140>
   27780: c1 00 00 54  	b.ne	0x27798 <_ZNK23ChiFeature2HWmultiframe21OnConfigureInputPortsERN15ChiFeature2Base22ChiFeaturePipelineDataERKNSt3__16vectorI27ChiFeatureBufferOptionsDataNS3_9allocatorIS5_EEEE+0x140>
   27794: 80 fa ff 54  	b.eq	0x276e4 <_ZNK23ChiFeature2HWmultiframe21OnConfigureInputPortsERN15ChiFeature2Base22ChiFeaturePipelineDataERKNSt3__16vectorI27ChiFeatureBufferOptionsDataNS3_9allocatorIS5_EEEE+0x8c>
   277a0: 41 fb ff 54  	b.ne	0x27708 <_ZNK23ChiFeature2HWmultiframe21OnConfigureInputPortsERN15ChiFeature2Base22ChiFeaturePipelineDataERKNSt3__16vectorI27ChiFeatureBufferOptionsDataNS3_9allocatorIS5_EEEE+0xb0>
   277b4: a1 fa ff 54  	b.ne	0x27708 <_ZNK23ChiFeature2HWmultiframe21OnConfigureInputPortsERN15ChiFeature2Base22ChiFeaturePipelineDataERKNSt3__16vectorI27ChiFeatureBufferOptionsDataNS3_9allocatorIS5_EEEE+0xb0>
   277c8: 01 fa ff 54  	b.ne	0x27708 <_ZNK23ChiFeature2HWmultiframe21OnConfigureInputPortsERN15ChiFeature2Base22ChiFeaturePipelineDataERKNSt3__16vectorI27ChiFeatureBufferOptionsDataNS3_9allocatorIS5_EEEE+0xb0>
   277dc: 61 f9 ff 54  	b.ne	0x27708 <_ZNK23ChiFeature2HWmultiframe21OnConfigureInputPortsERN15ChiFeature2Base22ChiFeaturePipelineDataERKNSt3__16vectorI27ChiFeatureBufferOptionsDataNS3_9allocatorIS5_EEEE+0xb0>
   277f0: a0 f7 ff 54  	b.eq	0x276e4 <_ZNK23ChiFeature2HWmultiframe21OnConfigureInputPortsERN15ChiFeature2Base22ChiFeaturePipelineDataERKNSt3__16vectorI27ChiFeatureBufferOptionsDataNS3_9allocatorIS5_EEEE+0x8c>
   277f4: c5 ff ff 17  	b	0x27708 <_ZNK23ChiFeature2HWmultiframe21OnConfigureInputPortsERN15ChiFeature2Base22ChiFeaturePipelineDataERKNSt3__16vectorI27ChiFeatureBufferOptionsDataNS3_9allocatorIS5_EEEE+0xb0>
   27820: 99 ff ff 17  	b	0x27684 <_ZNK23ChiFeature2HWmultiframe21OnConfigureInputPortsERN15ChiFeature2Base22ChiFeaturePipelineDataERKNSt3__16vectorI27ChiFeatureBufferOptionsDataNS3_9allocatorIS5_EEEE+0x2c>
0000000000027828 <_ZNK23ChiFeature2HWmultiframe22OnFinalizePipelineDataERKNSt3__16vectorI31ChiFeatureFinalizedBufferOptionNS0_9allocatorIS2_EEEERKN15ChiFeature2Base22ChiFeaturePipelineDataE>:
   27854: 38 01 00 d0  	adrp	x24, 0x4d000 <_ZNK23ChiFeature2HWmultiframe22OnFinalizePipelineDataERKNSt3__16vectorI31ChiFeatureFinalizedBufferOptionNS0_9allocatorIS2_EEEERKN15ChiFeature2Base22ChiFeaturePipelineDataE+0xc4>
   27878: 61 32 00 54  	b.ne	0x27ec4 <_ZNK23ChiFeature2HWmultiframe22OnFinalizePipelineDataERKNSt3__16vectorI31ChiFeatureFinalizedBufferOptionNS0_9allocatorIS2_EEEERKN15ChiFeature2Base22ChiFeaturePipelineDataE+0x69c>
   27890: 34 82 00 94  	bl	0x48160 <_ZNK23ChiFeature2HWmultiframe25IsRDIRequiredInPostFilterEPKN15ChiFeature2Base22ChiFeaturePipelineDataEi@plt>
   278ac: 88 11 00 34  	cbz	w8, 0x27adc <_ZNK23ChiFeature2HWmultiframe22OnFinalizePipelineDataERKNSt3__16vectorI31ChiFeatureFinalizedBufferOptionNS0_9allocatorIS2_EEEERKN15ChiFeature2Base22ChiFeaturePipelineDataE+0x2b4>
   278cc: 40 03 00 54  	b.eq	0x27934 <_ZNK23ChiFeature2HWmultiframe22OnFinalizePipelineDataERKNSt3__16vectorI31ChiFeatureFinalizedBufferOptionNS0_9allocatorIS2_EEEERKN15ChiFeature2Base22ChiFeaturePipelineDataE+0x10c>
   278e8: e2 36 00 54  	b.hs	0x27fc4 <_ZNK23ChiFeature2HWmultiframe22OnFinalizePipelineDataERKNSt3__16vectorI31ChiFeatureFinalizedBufferOptionNS0_9allocatorIS2_EEEERKN15ChiFeature2Base22ChiFeaturePipelineDataE+0x79c>
   27914: 6b 01 00 54  	b.lt	0x27940 <_ZNK23ChiFeature2HWmultiframe22OnFinalizePipelineDataERKNSt3__16vectorI31ChiFeatureFinalizedBufferOptionNS0_9allocatorIS2_EEEERKN15ChiFeature2Base22ChiFeaturePipelineDataE+0x118>
   27930: 05 00 00 14  	b	0x27944 <_ZNK23ChiFeature2HWmultiframe22OnFinalizePipelineDataERKNSt3__16vectorI31ChiFeatureFinalizedBufferOptionNS0_9allocatorIS2_EEEERKN15ChiFeature2Base22ChiFeaturePipelineDataE+0x11c>
   2793c: 02 00 00 14  	b	0x27944 <_ZNK23ChiFeature2HWmultiframe22OnFinalizePipelineDataERKNSt3__16vectorI31ChiFeatureFinalizedBufferOptionNS0_9allocatorIS2_EEEERKN15ChiFeature2Base22ChiFeaturePipelineDataE+0x11c>
   2794c: 80 01 00 54  	b.eq	0x2797c <_ZNK23ChiFeature2HWmultiframe22OnFinalizePipelineDataERKNSt3__16vectorI31ChiFeatureFinalizedBufferOptionNS0_9allocatorIS2_EEEERKN15ChiFeature2Base22ChiFeaturePipelineDataE+0x154>
   27954: 04 00 00 14  	b	0x27964 <_ZNK23ChiFeature2HWmultiframe22OnFinalizePipelineDataERKNSt3__16vectorI31ChiFeatureFinalizedBufferOptionNS0_9allocatorIS2_EEEERKN15ChiFeature2Base22ChiFeaturePipelineDataE+0x13c>
   27960: c0 00 00 54  	b.eq	0x27978 <_ZNK23ChiFeature2HWmultiframe22OnFinalizePipelineDataERKNSt3__16vectorI31ChiFeatureFinalizedBufferOptionNS0_9allocatorIS2_EEEERKN15ChiFeature2Base22ChiFeaturePipelineDataE+0x150>
   27968: 89 ff ff 35  	cbnz	w9, 0x27958 <_ZNK23ChiFeature2HWmultiframe22OnFinalizePipelineDataERKNSt3__16vectorI31ChiFeatureFinalizedBufferOptionNS0_9allocatorIS2_EEEERKN15ChiFeature2Base22ChiFeaturePipelineDataE+0x130>
   27970: 4a ff ff 35  	cbnz	w10, 0x27958 <_ZNK23ChiFeature2HWmultiframe22OnFinalizePipelineDataERKNSt3__16vectorI31ChiFeatureFinalizedBufferOptionNS0_9allocatorIS2_EEEERKN15ChiFeature2Base22ChiFeaturePipelineDataE+0x130>
   27974: 02 00 00 14  	b	0x2797c <_ZNK23ChiFeature2HWmultiframe22OnFinalizePipelineDataERKNSt3__16vectorI31ChiFeatureFinalizedBufferOptionNS0_9allocatorIS2_EEEERKN15ChiFeature2Base22ChiFeaturePipelineDataE+0x154>
   27984: 56 01 00 b4  	cbz	x22, 0x279ac <_ZNK23ChiFeature2HWmultiframe22OnFinalizePipelineDataERKNSt3__16vectorI31ChiFeatureFinalizedBufferOptionNS0_9allocatorIS2_EEEERKN15ChiFeature2Base22ChiFeaturePipelineDataE+0x184>
   279a0: f9 30 00 b5  	cbnz	x25, 0x27fbc <_ZNK23ChiFeature2HWmultiframe22OnFinalizePipelineDataERKNSt3__16vectorI31ChiFeatureFinalizedBufferOptionNS0_9allocatorIS2_EEEERKN15ChiFeature2Base22ChiFeaturePipelineDataE+0x794>
   279b4: 2d 12 00 94  	bl	0x2c268 <_ZNK23ChiFeature2HWmultiframe25IsRDIRequiredInPostFilterEPKN15ChiFeature2Base22ChiFeaturePipelineDataEi+0x4e0>
   279c0: 40 04 00 54  	b.eq	0x27a48 <_ZNK23ChiFeature2HWmultiframe22OnFinalizePipelineDataERKNSt3__16vectorI31ChiFeatureFinalizedBufferOptionNS0_9allocatorIS2_EEEERKN15ChiFeature2Base22ChiFeaturePipelineDataE+0x220>
   279cc: 95 12 00 94  	bl	0x2c420 <_ZNK23ChiFeature2HWmultiframe25IsRDIRequiredInPostFilterEPKN15ChiFeature2Base22ChiFeaturePipelineDataEi+0x698>
   279d8: 00 01 00 b4  	cbz	x0, 0x279f8 <_ZNK23ChiFeature2HWmultiframe22OnFinalizePipelineDataERKNSt3__16vectorI31ChiFeatureFinalizedBufferOptionNS0_9allocatorIS2_EEEERKN15ChiFeature2Base22ChiFeaturePipelineDataE+0x1d0>
   279f0: 6c 2e 00 b5  	cbnz	x12, 0x27fbc <_ZNK23ChiFeature2HWmultiframe22OnFinalizePipelineDataERKNSt3__16vectorI31ChiFeatureFinalizedBufferOptionNS0_9allocatorIS2_EEEERKN15ChiFeature2Base22ChiFeaturePipelineDataE+0x794>
   279fc: 00 01 00 b4  	cbz	x0, 0x27a1c <_ZNK23ChiFeature2HWmultiframe22OnFinalizePipelineDataERKNSt3__16vectorI31ChiFeatureFinalizedBufferOptionNS0_9allocatorIS2_EEEERKN15ChiFeature2Base22ChiFeaturePipelineDataE+0x1f4>
   27a14: 50 2d 00 b5  	cbnz	x16, 0x27fbc <_ZNK23ChiFeature2HWmultiframe22OnFinalizePipelineDataERKNSt3__16vectorI31ChiFeatureFinalizedBufferOptionNS0_9allocatorIS2_EEEERKN15ChiFeature2Base22ChiFeaturePipelineDataE+0x794>
   27a24: f5 13 00 94  	bl	0x2c9f8 <_ZNK23ChiFeature2HWmultiframe25IsRDIRequiredInPostFilterEPKN15ChiFeature2Base22ChiFeaturePipelineDataEi+0xc70>
   27a28: b8 00 00 b4  	cbz	x24, 0x27a3c <_ZNK23ChiFeature2HWmultiframe22OnFinalizePipelineDataERKNSt3__16vectorI31ChiFeatureFinalizedBufferOptionNS0_9allocatorIS2_EEEERKN15ChiFeature2Base22ChiFeaturePipelineDataE+0x214>
   27a34: 81 fc ff 54  	b.ne	0x279c4 <_ZNK23ChiFeature2HWmultiframe22OnFinalizePipelineDataERKNSt3__16vectorI31ChiFeatureFinalizedBufferOptionNS0_9allocatorIS2_EEEERKN15ChiFeature2Base22ChiFeaturePipelineDataE+0x19c>
   27a44: 02 00 00 14  	b	0x27a4c <_ZNK23ChiFeature2HWmultiframe22OnFinalizePipelineDataERKNSt3__16vectorI31ChiFeatureFinalizedBufferOptionNS0_9allocatorIS2_EEEERKN15ChiFeature2Base22ChiFeaturePipelineDataE+0x224>
   27a58: 38 01 00 d0  	adrp	x24, 0x4d000 <_ZNK23ChiFeature2HWmultiframe22OnFinalizePipelineDataERKNSt3__16vectorI31ChiFeatureFinalizedBufferOptionNS0_9allocatorIS2_EEEERKN15ChiFeature2Base22ChiFeaturePipelineDataE+0x2c8>
   27a68: 6e 12 00 94  	bl	0x2c420 <_ZNK23ChiFeature2HWmultiframe25IsRDIRequiredInPostFilterEPKN15ChiFeature2Base22ChiFeaturePipelineDataEi+0x698>
   27a70: 2e 12 00 94  	bl	0x2c328 <_ZNK23ChiFeature2HWmultiframe25IsRDIRequiredInPostFilterEPKN15ChiFeature2Base22ChiFeaturePipelineDataEi+0x5a0>
   27a74: b5 00 00 35  	cbnz	w21, 0x27a88 <_ZNK23ChiFeature2HWmultiframe22OnFinalizePipelineDataERKNSt3__16vectorI31ChiFeatureFinalizedBufferOptionNS0_9allocatorIS2_EEEERKN15ChiFeature2Base22ChiFeaturePipelineDataE+0x260>
   27a7c: 61 00 00 b4  	cbz	x1, 0x27a88 <_ZNK23ChiFeature2HWmultiframe22OnFinalizePipelineDataERKNSt3__16vectorI31ChiFeatureFinalizedBufferOptionNS0_9allocatorIS2_EEEERKN15ChiFeature2Base22ChiFeaturePipelineDataE+0x260>
   27a90: 00 01 00 b4  	cbz	x0, 0x27ab0 <_ZNK23ChiFeature2HWmultiframe22OnFinalizePipelineDataERKNSt3__16vectorI31ChiFeatureFinalizedBufferOptionNS0_9allocatorIS2_EEEERKN15ChiFeature2Base22ChiFeaturePipelineDataE+0x288>
   27aa8: a4 28 00 b5  	cbnz	x4, 0x27fbc <_ZNK23ChiFeature2HWmultiframe22OnFinalizePipelineDataERKNSt3__16vectorI31ChiFeatureFinalizedBufferOptionNS0_9allocatorIS2_EEEERKN15ChiFeature2Base22ChiFeaturePipelineDataE+0x794>
   27ab4: 00 01 00 b4  	cbz	x0, 0x27ad4 <_ZNK23ChiFeature2HWmultiframe22OnFinalizePipelineDataERKNSt3__16vectorI31ChiFeatureFinalizedBufferOptionNS0_9allocatorIS2_EEEERKN15ChiFeature2Base22ChiFeaturePipelineDataE+0x2ac>
   27acc: 82 27 00 b5  	cbnz	x2, 0x27fbc <_ZNK23ChiFeature2HWmultiframe22OnFinalizePipelineDataERKNSt3__16vectorI31ChiFeatureFinalizedBufferOptionNS0_9allocatorIS2_EEEERKN15ChiFeature2Base22ChiFeaturePipelineDataE+0x794>
   27ad8: c8 13 00 94  	bl	0x2c9f8 <_ZNK23ChiFeature2HWmultiframe25IsRDIRequiredInPostFilterEPKN15ChiFeature2Base22ChiFeaturePipelineDataEi+0xc70>
   27ae0: 40 1b 00 54  	b.eq	0x27e48 <_ZNK23ChiFeature2HWmultiframe22OnFinalizePipelineDataERKNSt3__16vectorI31ChiFeatureFinalizedBufferOptionNS0_9allocatorIS2_EEEERKN15ChiFeature2Base22ChiFeaturePipelineDataE+0x620>
   27af0: 61 1f 00 54  	b.ne	0x27edc <_ZNK23ChiFeature2HWmultiframe22OnFinalizePipelineDataERKNSt3__16vectorI31ChiFeatureFinalizedBufferOptionNS0_9allocatorIS2_EEEERKN15ChiFeature2Base22ChiFeaturePipelineDataE+0x6b4>
   27af8: 41 ff ff 90  	adrp	x1, 0xf000 <_ZNK23ChiFeature2HWmultiframe22OnFinalizePipelineDataERKNSt3__16vectorI31ChiFeatureFinalizedBufferOptionNS0_9allocatorIS2_EEEERKN15ChiFeature2Base22ChiFeaturePipelineDataE+0x270>
   27b08: 60 05 00 34  	cbz	w0, 0x27bb4 <_ZNK23ChiFeature2HWmultiframe22OnFinalizePipelineDataERKNSt3__16vectorI31ChiFeatureFinalizedBufferOptionNS0_9allocatorIS2_EEEERKN15ChiFeature2Base22ChiFeaturePipelineDataE+0x38c>
   27b14: 41 1f 00 54  	b.ne	0x27efc <_ZNK23ChiFeature2HWmultiframe22OnFinalizePipelineDataERKNSt3__16vectorI31ChiFeatureFinalizedBufferOptionNS0_9allocatorIS2_EEEERKN15ChiFeature2Base22ChiFeaturePipelineDataE+0x6d4>
   27b1c: 21 20 00 54  	b.ne	0x27f20 <_ZNK23ChiFeature2HWmultiframe22OnFinalizePipelineDataERKNSt3__16vectorI31ChiFeatureFinalizedBufferOptionNS0_9allocatorIS2_EEEERKN15ChiFeature2Base22ChiFeaturePipelineDataE+0x6f8>
   27b28: c1 20 00 54  	b.ne	0x27f40 <_ZNK23ChiFeature2HWmultiframe22OnFinalizePipelineDataERKNSt3__16vectorI31ChiFeatureFinalizedBufferOptionNS0_9allocatorIS2_EEEERKN15ChiFeature2Base22ChiFeaturePipelineDataE+0x718>
   27b2c: 56 01 00 90  	adrp	x22, 0x4f000 <_ZNK23ChiFeature2HWmultiframe22OnFinalizePipelineDataERKNSt3__16vectorI31ChiFeatureFinalizedBufferOptionNS0_9allocatorIS2_EEEERKN15ChiFeature2Base22ChiFeaturePipelineDataE+0x3a4>
   27b40: 82 0a 00 54  	b.hs	0x27c90 <_ZNK23ChiFeature2HWmultiframe22OnFinalizePipelineDataERKNSt3__16vectorI31ChiFeatureFinalizedBufferOptionNS0_9allocatorIS2_EEEERKN15ChiFeature2Base22ChiFeaturePipelineDataE+0x468>
   27b48: 4d 0a 00 b4  	cbz	x13, 0x27c90 <_ZNK23ChiFeature2HWmultiframe22OnFinalizePipelineDataERKNSt3__16vectorI31ChiFeatureFinalizedBufferOptionNS0_9allocatorIS2_EEEERKN15ChiFeature2Base22ChiFeaturePipelineDataE+0x468>
   27b4c: 4a 01 00 90  	adrp	x10, 0x4f000 <_ZNK23ChiFeature2HWmultiframe22OnFinalizePipelineDataERKNSt3__16vectorI31ChiFeatureFinalizedBufferOptionNS0_9allocatorIS2_EEEERKN15ChiFeature2Base22ChiFeaturePipelineDataE+0x3c4>
   27b64: 62 09 00 54  	b.hs	0x27c90 <_ZNK23ChiFeature2HWmultiframe22OnFinalizePipelineDataERKNSt3__16vectorI31ChiFeatureFinalizedBufferOptionNS0_9allocatorIS2_EEEERKN15ChiFeature2Base22ChiFeaturePipelineDataE+0x468>
   27b6c: 2b 09 00 b4  	cbz	x11, 0x27c90 <_ZNK23ChiFeature2HWmultiframe22OnFinalizePipelineDataERKNSt3__16vectorI31ChiFeatureFinalizedBufferOptionNS0_9allocatorIS2_EEEERKN15ChiFeature2Base22ChiFeaturePipelineDataE+0x468>
   27b7c: 08 07 00 54  	b.hi	0x27c5c <_ZNK23ChiFeature2HWmultiframe22OnFinalizePipelineDataERKNSt3__16vectorI31ChiFeatureFinalizedBufferOptionNS0_9allocatorIS2_EEEERKN15ChiFeature2Base22ChiFeaturePipelineDataE+0x434>
   27ba4: 69 07 00 54  	b.ls	0x27c90 <_ZNK23ChiFeature2HWmultiframe22OnFinalizePipelineDataERKNSt3__16vectorI31ChiFeatureFinalizedBufferOptionNS0_9allocatorIS2_EEEERKN15ChiFeature2Base22ChiFeaturePipelineDataE+0x468>
   27bb0: 39 00 00 14  	b	0x27c94 <_ZNK23ChiFeature2HWmultiframe22OnFinalizePipelineDataERKNSt3__16vectorI31ChiFeatureFinalizedBufferOptionNS0_9allocatorIS2_EEEERKN15ChiFeature2Base22ChiFeaturePipelineDataE+0x46c>
   27bbc: 01 1d 00 54  	b.ne	0x27f5c <_ZNK23ChiFeature2HWmultiframe22OnFinalizePipelineDataERKNSt3__16vectorI31ChiFeatureFinalizedBufferOptionNS0_9allocatorIS2_EEEERKN15ChiFeature2Base22ChiFeaturePipelineDataE+0x734>
   27bc4: e1 1d 00 54  	b.ne	0x27f80 <_ZNK23ChiFeature2HWmultiframe22OnFinalizePipelineDataERKNSt3__16vectorI31ChiFeatureFinalizedBufferOptionNS0_9allocatorIS2_EEEERKN15ChiFeature2Base22ChiFeaturePipelineDataE+0x758>
   27bd0: 81 1e 00 54  	b.ne	0x27fa0 <_ZNK23ChiFeature2HWmultiframe22OnFinalizePipelineDataERKNSt3__16vectorI31ChiFeatureFinalizedBufferOptionNS0_9allocatorIS2_EEEERKN15ChiFeature2Base22ChiFeaturePipelineDataE+0x778>
   27bd4: 46 01 00 90  	adrp	x6, 0x4f000 <_ZNK23ChiFeature2HWmultiframe22OnFinalizePipelineDataERKNSt3__16vectorI31ChiFeatureFinalizedBufferOptionNS0_9allocatorIS2_EEEERKN15ChiFeature2Base22ChiFeaturePipelineDataE+0x44c>
   27be8: 42 05 00 54  	b.hs	0x27c90 <_ZNK23ChiFeature2HWmultiframe22OnFinalizePipelineDataERKNSt3__16vectorI31ChiFeatureFinalizedBufferOptionNS0_9allocatorIS2_EEEERKN15ChiFeature2Base22ChiFeaturePipelineDataE+0x468>
   27bf0: 0e 05 00 b4  	cbz	x14, 0x27c90 <_ZNK23ChiFeature2HWmultiframe22OnFinalizePipelineDataERKNSt3__16vectorI31ChiFeatureFinalizedBufferOptionNS0_9allocatorIS2_EEEERKN15ChiFeature2Base22ChiFeaturePipelineDataE+0x468>
   27bf4: 4c 01 00 90  	adrp	x12, 0x4f000 <_ZNK23ChiFeature2HWmultiframe22OnFinalizePipelineDataERKNSt3__16vectorI31ChiFeatureFinalizedBufferOptionNS0_9allocatorIS2_EEEERKN15ChiFeature2Base22ChiFeaturePipelineDataE+0x46c>
   27c0c: 22 04 00 54  	b.hs	0x27c90 <_ZNK23ChiFeature2HWmultiframe22OnFinalizePipelineDataERKNSt3__16vectorI31ChiFeatureFinalizedBufferOptionNS0_9allocatorIS2_EEEERKN15ChiFeature2Base22ChiFeaturePipelineDataE+0x468>
   27c14: e8 03 00 b4  	cbz	x8, 0x27c90 <_ZNK23ChiFeature2HWmultiframe22OnFinalizePipelineDataERKNSt3__16vectorI31ChiFeatureFinalizedBufferOptionNS0_9allocatorIS2_EEEERKN15ChiFeature2Base22ChiFeaturePipelineDataE+0x468>
   27c24: c8 12 00 54  	b.hi	0x27e7c <_ZNK23ChiFeature2HWmultiframe22OnFinalizePipelineDataERKNSt3__16vectorI31ChiFeatureFinalizedBufferOptionNS0_9allocatorIS2_EEEERKN15ChiFeature2Base22ChiFeaturePipelineDataE+0x654>
   27c4c: 29 02 00 54  	b.ls	0x27c90 <_ZNK23ChiFeature2HWmultiframe22OnFinalizePipelineDataERKNSt3__16vectorI31ChiFeatureFinalizedBufferOptionNS0_9allocatorIS2_EEEERKN15ChiFeature2Base22ChiFeaturePipelineDataE+0x468>
   27c58: 0f 00 00 14  	b	0x27c94 <_ZNK23ChiFeature2HWmultiframe22OnFinalizePipelineDataERKNSt3__16vectorI31ChiFeatureFinalizedBufferOptionNS0_9allocatorIS2_EEEERKN15ChiFeature2Base22ChiFeaturePipelineDataE+0x46c>
   27c80: 89 00 00 54  	b.ls	0x27c90 <_ZNK23ChiFeature2HWmultiframe22OnFinalizePipelineDataERKNSt3__16vectorI31ChiFeatureFinalizedBufferOptionNS0_9allocatorIS2_EEEERKN15ChiFeature2Base22ChiFeaturePipelineDataE+0x468>
   27c8c: 02 00 00 14  	b	0x27c94 <_ZNK23ChiFeature2HWmultiframe22OnFinalizePipelineDataERKNSt3__16vectorI31ChiFeatureFinalizedBufferOptionNS0_9allocatorIS2_EEEERKN15ChiFeature2Base22ChiFeaturePipelineDataE+0x46c>
   27ca4: 71 11 00 94  	bl	0x2c268 <_ZNK23ChiFeature2HWmultiframe25IsRDIRequiredInPostFilterEPKN15ChiFeature2Base22ChiFeaturePipelineDataEi+0x4e0>
   27cb0: 80 0c 00 54  	b.eq	0x27e40 <_ZNK23ChiFeature2HWmultiframe22OnFinalizePipelineDataERKNSt3__16vectorI31ChiFeatureFinalizedBufferOptionNS0_9allocatorIS2_EEEERKN15ChiFeature2Base22ChiFeaturePipelineDataE+0x618>
   27cb8: 7b 08 00 b4  	cbz	x27, 0x27dc4 <_ZNK23ChiFeature2HWmultiframe22OnFinalizePipelineDataERKNSt3__16vectorI31ChiFeatureFinalizedBufferOptionNS0_9allocatorIS2_EEEERKN15ChiFeature2Base22ChiFeaturePipelineDataE+0x59c>
   27cd0: 06 00 00 14  	b	0x27ce8 <_ZNK23ChiFeature2HWmultiframe22OnFinalizePipelineDataERKNSt3__16vectorI31ChiFeatureFinalizedBufferOptionNS0_9allocatorIS2_EEEERKN15ChiFeature2Base22ChiFeaturePipelineDataE+0x4c0>
   27cd8: 48 13 00 94  	bl	0x2c9f8 <_ZNK23ChiFeature2HWmultiframe25IsRDIRequiredInPostFilterEPKN15ChiFeature2Base22ChiFeaturePipelineDataEi+0xc70>
   27ce4: e0 0a 00 54  	b.eq	0x27e40 <_ZNK23ChiFeature2HWmultiframe22OnFinalizePipelineDataERKNSt3__16vectorI31ChiFeatureFinalizedBufferOptionNS0_9allocatorIS2_EEEERKN15ChiFeature2Base22ChiFeaturePipelineDataE+0x618>
   27d14: c3 11 00 94  	bl	0x2c420 <_ZNK23ChiFeature2HWmultiframe25IsRDIRequiredInPostFilterEPKN15ChiFeature2Base22ChiFeaturePipelineDataEi+0x698>
   27d1c: 61 01 00 b4  	cbz	x1, 0x27d48 <_ZNK23ChiFeature2HWmultiframe22OnFinalizePipelineDataERKNSt3__16vectorI31ChiFeatureFinalizedBufferOptionNS0_9allocatorIS2_EEEERKN15ChiFeature2Base22ChiFeaturePipelineDataE+0x520>
   27d24: 29 01 00 b4  	cbz	x9, 0x27d48 <_ZNK23ChiFeature2HWmultiframe22OnFinalizePipelineDataERKNSt3__16vectorI31ChiFeatureFinalizedBufferOptionNS0_9allocatorIS2_EEEERKN15ChiFeature2Base22ChiFeaturePipelineDataE+0x520>
   27d2c: e2 00 00 b4  	cbz	x2, 0x27d48 <_ZNK23ChiFeature2HWmultiframe22OnFinalizePipelineDataERKNSt3__16vectorI31ChiFeatureFinalizedBufferOptionNS0_9allocatorIS2_EEEERKN15ChiFeature2Base22ChiFeaturePipelineDataE+0x520>
   27d38: e1 02 00 54  	b.ne	0x27d94 <_ZNK23ChiFeature2HWmultiframe22OnFinalizePipelineDataERKNSt3__16vectorI31ChiFeatureFinalizedBufferOptionNS0_9allocatorIS2_EEEERKN15ChiFeature2Base22ChiFeaturePipelineDataE+0x56c>
   27d44: 93 81 00 94  	bl	0x48390 <_ZNK15ChiFeature2Base19GetTargetStreamSizeEP9ChiStreamS1_PKc@plt>
   27d4c: 00 01 00 b4  	cbz	x0, 0x27d6c <_ZNK23ChiFeature2HWmultiframe22OnFinalizePipelineDataERKNSt3__16vectorI31ChiFeatureFinalizedBufferOptionNS0_9allocatorIS2_EEEERKN15ChiFeature2Base22ChiFeaturePipelineDataE+0x544>
   27d64: c7 12 00 b5  	cbnz	x7, 0x27fbc <_ZNK23ChiFeature2HWmultiframe22OnFinalizePipelineDataERKNSt3__16vectorI31ChiFeatureFinalizedBufferOptionNS0_9allocatorIS2_EEEERKN15ChiFeature2Base22ChiFeaturePipelineDataE+0x794>
   27d70: 20 fb ff b4  	cbz	x0, 0x27cd4 <_ZNK23ChiFeature2HWmultiframe22OnFinalizePipelineDataERKNSt3__16vectorI31ChiFeatureFinalizedBufferOptionNS0_9allocatorIS2_EEEERKN15ChiFeature2Base22ChiFeaturePipelineDataE+0x4ac>
   27d88: a3 11 00 b5  	cbnz	x3, 0x27fbc <_ZNK23ChiFeature2HWmultiframe22OnFinalizePipelineDataERKNSt3__16vectorI31ChiFeatureFinalizedBufferOptionNS0_9allocatorIS2_EEEERKN15ChiFeature2Base22ChiFeaturePipelineDataE+0x794>
   27d90: d1 ff ff 17  	b	0x27cd4 <_ZNK23ChiFeature2HWmultiframe22OnFinalizePipelineDataERKNSt3__16vectorI31ChiFeatureFinalizedBufferOptionNS0_9allocatorIS2_EEEERKN15ChiFeature2Base22ChiFeaturePipelineDataE+0x4ac>
   27dac: e4 ff ff 17  	b	0x27d3c <_ZNK23ChiFeature2HWmultiframe22OnFinalizePipelineDataERKNSt3__16vectorI31ChiFeatureFinalizedBufferOptionNS0_9allocatorIS2_EEEERKN15ChiFeature2Base22ChiFeaturePipelineDataE+0x514>
   27db4: 11 13 00 94  	bl	0x2c9f8 <_ZNK23ChiFeature2HWmultiframe25IsRDIRequiredInPostFilterEPKN15ChiFeature2Base22ChiFeaturePipelineDataEi+0xc70>
   27dc0: 00 04 00 54  	b.eq	0x27e40 <_ZNK23ChiFeature2HWmultiframe22OnFinalizePipelineDataERKNSt3__16vectorI31ChiFeatureFinalizedBufferOptionNS0_9allocatorIS2_EEEERKN15ChiFeature2Base22ChiFeaturePipelineDataE+0x618>
   27df0: 8c 11 00 94  	bl	0x2c420 <_ZNK23ChiFeature2HWmultiframe25IsRDIRequiredInPostFilterEPKN15ChiFeature2Base22ChiFeaturePipelineDataEi+0x698>
   27df8: 00 01 00 b4  	cbz	x0, 0x27e18 <_ZNK23ChiFeature2HWmultiframe22OnFinalizePipelineDataERKNSt3__16vectorI31ChiFeatureFinalizedBufferOptionNS0_9allocatorIS2_EEEERKN15ChiFeature2Base22ChiFeaturePipelineDataE+0x5f0>
   27e10: 61 0d 00 54  	b.ne	0x27fbc <_ZNK23ChiFeature2HWmultiframe22OnFinalizePipelineDataERKNSt3__16vectorI31ChiFeatureFinalizedBufferOptionNS0_9allocatorIS2_EEEERKN15ChiFeature2Base22ChiFeaturePipelineDataE+0x794>
   27e1c: a0 fc ff b4  	cbz	x0, 0x27db0 <_ZNK23ChiFeature2HWmultiframe22OnFinalizePipelineDataERKNSt3__16vectorI31ChiFeatureFinalizedBufferOptionNS0_9allocatorIS2_EEEERKN15ChiFeature2Base22ChiFeaturePipelineDataE+0x588>
   27e34: 41 0c 00 54  	b.ne	0x27fbc <_ZNK23ChiFeature2HWmultiframe22OnFinalizePipelineDataERKNSt3__16vectorI31ChiFeatureFinalizedBufferOptionNS0_9allocatorIS2_EEEERKN15ChiFeature2Base22ChiFeaturePipelineDataE+0x794>
   27e3c: dd ff ff 17  	b	0x27db0 <_ZNK23ChiFeature2HWmultiframe22OnFinalizePipelineDataERKNSt3__16vectorI31ChiFeatureFinalizedBufferOptionNS0_9allocatorIS2_EEEERKN15ChiFeature2Base22ChiFeaturePipelineDataE+0x588>
   27e44: 39 11 00 94  	bl	0x2c328 <_ZNK23ChiFeature2HWmultiframe25IsRDIRequiredInPostFilterEPKN15ChiFeature2Base22ChiFeaturePipelineDataEi+0x5a0>
   27e54: 61 0b 00 54  	b.ne	0x27fc0 <_ZNK23ChiFeature2HWmultiframe22OnFinalizePipelineDataERKNSt3__16vectorI31ChiFeatureFinalizedBufferOptionNS0_9allocatorIS2_EEEERKN15ChiFeature2Base22ChiFeaturePipelineDataE+0x798>
   27ea4: a9 00 00 54  	b.ls	0x27eb8 <_ZNK23ChiFeature2HWmultiframe22OnFinalizePipelineDataERKNSt3__16vectorI31ChiFeatureFinalizedBufferOptionNS0_9allocatorIS2_EEEERKN15ChiFeature2Base22ChiFeaturePipelineDataE+0x690>
   27eb4: 78 ff ff 17  	b	0x27c94 <_ZNK23ChiFeature2HWmultiframe22OnFinalizePipelineDataERKNSt3__16vectorI31ChiFeatureFinalizedBufferOptionNS0_9allocatorIS2_EEEERKN15ChiFeature2Base22ChiFeaturePipelineDataE+0x46c>
   27ec0: 75 ff ff 17  	b	0x27c94 <_ZNK23ChiFeature2HWmultiframe22OnFinalizePipelineDataERKNSt3__16vectorI31ChiFeatureFinalizedBufferOptionNS0_9allocatorIS2_EEEERKN15ChiFeature2Base22ChiFeaturePipelineDataE+0x46c>
   27ed8: 69 fe ff 17  	b	0x2787c <_ZNK23ChiFeature2HWmultiframe22OnFinalizePipelineDataERKNSt3__16vectorI31ChiFeatureFinalizedBufferOptionNS0_9allocatorIS2_EEEERKN15ChiFeature2Base22ChiFeaturePipelineDataE+0x54>
   27ef8: ff fe ff 17  	b	0x27af4 <_ZNK23ChiFeature2HWmultiframe22OnFinalizePipelineDataERKNSt3__16vectorI31ChiFeatureFinalizedBufferOptionNS0_9allocatorIS2_EEEERKN15ChiFeature2Base22ChiFeaturePipelineDataE+0x2cc>
   27f1c: 20 e0 ff 54  	b.eq	0x27b20 <_ZNK23ChiFeature2HWmultiframe22OnFinalizePipelineDataERKNSt3__16vectorI31ChiFeatureFinalizedBufferOptionNS0_9allocatorIS2_EEEERKN15ChiFeature2Base22ChiFeaturePipelineDataE+0x2f8>
   27f3c: f9 fe ff 17  	b	0x27b20 <_ZNK23ChiFeature2HWmultiframe22OnFinalizePipelineDataERKNSt3__16vectorI31ChiFeatureFinalizedBufferOptionNS0_9allocatorIS2_EEEERKN15ChiFeature2Base22ChiFeaturePipelineDataE+0x2f8>
   27f58: f5 fe ff 17  	b	0x27b2c <_ZNK23ChiFeature2HWmultiframe22OnFinalizePipelineDataERKNSt3__16vectorI31ChiFeatureFinalizedBufferOptionNS0_9allocatorIS2_EEEERKN15ChiFeature2Base22ChiFeaturePipelineDataE+0x304>
   27f7c: 60 e2 ff 54  	b.eq	0x27bc8 <_ZNK23ChiFeature2HWmultiframe22OnFinalizePipelineDataERKNSt3__16vectorI31ChiFeatureFinalizedBufferOptionNS0_9allocatorIS2_EEEERKN15ChiFeature2Base22ChiFeaturePipelineDataE+0x3a0>
   27f9c: 0b ff ff 17  	b	0x27bc8 <_ZNK23ChiFeature2HWmultiframe22OnFinalizePipelineDataERKNSt3__16vectorI31ChiFeatureFinalizedBufferOptionNS0_9allocatorIS2_EEEERKN15ChiFeature2Base22ChiFeaturePipelineDataE+0x3a0>
   27fb8: 07 ff ff 17  	b	0x27bd4 <_ZNK23ChiFeature2HWmultiframe22OnFinalizePipelineDataERKNSt3__16vectorI31ChiFeatureFinalizedBufferOptionNS0_9allocatorIS2_EEEERKN15ChiFeature2Base22ChiFeaturePipelineDataE+0x3ac>
   27fc8: f6 80 00 94  	bl	0x483a0 <_ZNKSt3__120__vector_base_commonILb1EE20__throw_length_errorEv@plt>
0000000000027fd0 <_ZN23ChiFeature2HWmultiframe15OnSessionCreateEP21ChiFeature2Identifier>:
   27fe4: 34 01 00 d0  	adrp	x20, 0x4d000 <_ZN23ChiFeature2HWmultiframe15OnSessionCreateEP21ChiFeature2Identifier+0xac>
   27ff8: a1 08 00 54  	b.ne	0x2810c <_ZN23ChiFeature2HWmultiframe15OnSessionCreateEP21ChiFeature2Identifier+0x13c>
   28000: ec 80 00 94  	bl	0x483b0 <_ZN15ChiFeature2Base15OnSessionCreateEP21ChiFeature2Identifier@plt>
   28004: c0 07 00 35  	cbnz	w0, 0x280fc <_ZN23ChiFeature2HWmultiframe15OnSessionCreateEP21ChiFeature2Identifier+0x12c>
   28014: e1 08 00 54  	b.ne	0x28130 <_ZN23ChiFeature2HWmultiframe15OnSessionCreateEP21ChiFeature2Identifier+0x160>
   2801c: 41 0a 00 54  	b.ne	0x28164 <_ZN23ChiFeature2HWmultiframe15OnSessionCreateEP21ChiFeature2Identifier+0x194>
   28028: 21 0b 00 54  	b.ne	0x2818c <_ZN23ChiFeature2HWmultiframe15OnSessionCreateEP21ChiFeature2Identifier+0x1bc>
   2802c: 30 01 00 f0  	adrp	x16, 0x4f000 <_ZN23ChiFeature2HWmultiframe15OnSessionCreateEP21ChiFeature2Identifier+0xf8>
   28040: e2 05 00 54  	b.hs	0x280fc <_ZN23ChiFeature2HWmultiframe15OnSessionCreateEP21ChiFeature2Identifier+0x12c>
   28048: ab 05 00 b4  	cbz	x11, 0x280fc <_ZN23ChiFeature2HWmultiframe15OnSessionCreateEP21ChiFeature2Identifier+0x12c>
   2804c: 2a 01 00 f0  	adrp	x10, 0x4f000 <_ZN23ChiFeature2HWmultiframe15OnSessionCreateEP21ChiFeature2Identifier+0x118>
   28064: c2 04 00 54  	b.hs	0x280fc <_ZN23ChiFeature2HWmultiframe15OnSessionCreateEP21ChiFeature2Identifier+0x12c>
   2806c: 88 04 00 b4  	cbz	x8, 0x280fc <_ZN23ChiFeature2HWmultiframe15OnSessionCreateEP21ChiFeature2Identifier+0x12c>
   2807c: a8 01 00 54  	b.hi	0x280b0 <_ZN23ChiFeature2HWmultiframe15OnSessionCreateEP21ChiFeature2Identifier+0xe0>
   280a8: a8 01 00 54  	b.hi	0x280dc <_ZN23ChiFeature2HWmultiframe15OnSessionCreateEP21ChiFeature2Identifier+0x10c>
   280ac: 14 00 00 14  	b	0x280fc <_ZN23ChiFeature2HWmultiframe15OnSessionCreateEP21ChiFeature2Identifier+0x12c>
   280d8: 29 01 00 54  	b.ls	0x280fc <_ZN23ChiFeature2HWmultiframe15OnSessionCreateEP21ChiFeature2Identifier+0x12c>
   280e0: ef 00 00 b4  	cbz	x15, 0x280fc <_ZN23ChiFeature2HWmultiframe15OnSessionCreateEP21ChiFeature2Identifier+0x12c>
   2812c: b4 ff ff 17  	b	0x27ffc <_ZN23ChiFeature2HWmultiframe15OnSessionCreateEP21ChiFeature2Identifier+0x2c>
   28160: 00 f6 ff 54  	b.eq	0x28020 <_ZN23ChiFeature2HWmultiframe15OnSessionCreateEP21ChiFeature2Identifier+0x50>
   28188: a6 ff ff 17  	b	0x28020 <_ZN23ChiFeature2HWmultiframe15OnSessionCreateEP21ChiFeature2Identifier+0x50>
   281ac: a0 ff ff 17  	b	0x2802c <_ZN23ChiFeature2HWmultiframe15OnSessionCreateEP21ChiFeature2Identifier+0x5c>
00000000000281b0 <_ZNK23ChiFeature2HWmultiframe16OnPipelineSelectEPKcPK26ChiFeature2CreateInputInfoh>:
   281c4: 81 04 00 b4  	cbz	x1, 0x28254 <_ZNK23ChiFeature2HWmultiframe16OnPipelineSelectEPKcPK26ChiFeature2CreateInputInfoh+0xa4>
   281cc: 42 04 00 b4  	cbz	x2, 0x28254 <_ZNK23ChiFeature2HWmultiframe16OnPipelineSelectEPKcPK26ChiFeature2CreateInputInfoh+0xa4>
   281d4: 08 04 00 b4  	cbz	x8, 0x28254 <_ZNK23ChiFeature2HWmultiframe16OnPipelineSelectEPKcPK26ChiFeature2CreateInputInfoh+0xa4>
   281dc: c9 03 00 b4  	cbz	x9, 0x28254 <_ZNK23ChiFeature2HWmultiframe16OnPipelineSelectEPKcPK26ChiFeature2CreateInputInfoh+0xa4>
   281e4: 89 03 00 b4  	cbz	x9, 0x28254 <_ZNK23ChiFeature2HWmultiframe16OnPipelineSelectEPKcPK26ChiFeature2CreateInputInfoh+0xa4>
   281f0: 21 ff ff f0  	adrp	x1, 0xf000 <_ZN23ChiFeature2HWmultiframe15OnSessionCreateEP21ChiFeature2Identifier+0x1bc>
   281fc: 40 08 00 35  	cbnz	w0, 0x28304 <_ZNK23ChiFeature2HWmultiframe16OnPipelineSelectEPKcPK26ChiFeature2CreateInputInfoh+0x154>
   28200: 30 80 00 94  	bl	0x482c0 <_ZN15ExtensionModule11GetInstanceEv@plt>
   28210: 68 01 00 54  	b.hi	0x2823c <_ZNK23ChiFeature2HWmultiframe16OnPipelineSelectEPKcPK26ChiFeature2CreateInputInfoh+0x8c>
   2822c: 80 00 00 54  	b.eq	0x2823c <_ZNK23ChiFeature2HWmultiframe16OnPipelineSelectEPKcPK26ChiFeature2CreateInputInfoh+0x8c>
   28238: 29 07 28 37  	tbnz	w9, #5, 0x2831c <_ZNK23ChiFeature2HWmultiframe16OnPipelineSelectEPKcPK26ChiFeature2CreateInputInfoh+0x16c>
   2823c: 41 ff ff d0  	adrp	x1, 0x12000 <_ZNK23ChiFeature2HWmultiframe16OnPipelineSelectEPKcPK26ChiFeature2CreateInputInfoh+0x34>
   2824c: c0 05 00 35  	cbnz	w0, 0x28304 <_ZNK23ChiFeature2HWmultiframe16OnPipelineSelectEPKcPK26ChiFeature2CreateInputInfoh+0x154>
   28250: 38 00 00 14  	b	0x28330 <_ZNK23ChiFeature2HWmultiframe16OnPipelineSelectEPKcPK26ChiFeature2CreateInputInfoh+0x180>
   28254: 2a 01 00 b0  	adrp	x10, 0x4d000 <_ZNK23ChiFeature2HWmultiframe16OnPipelineSelectEPKcPK26ChiFeature2CreateInputInfoh+0x138>
   28260: 28 05 00 36  	tbz	w8, #0, 0x28304 <_ZNK23ChiFeature2HWmultiframe16OnPipelineSelectEPKcPK26ChiFeature2CreateInputInfoh+0x154>
   28264: 2b 01 00 b0  	adrp	x11, 0x4d000 <_ZNK23ChiFeature2HWmultiframe16OnPipelineSelectEPKcPK26ChiFeature2CreateInputInfoh+0x148>
   28274: 41 02 00 54  	b.ne	0x282bc <_ZNK23ChiFeature2HWmultiframe16OnPipelineSelectEPKcPK26ChiFeature2CreateInputInfoh+0x10c>
   28278: 33 ff ff d0  	adrp	x19, 0xe000 <_ZNK23ChiFeature2HWmultiframe16OnPipelineSelectEPKcPK26ChiFeature2CreateInputInfoh+0x60>
   28294: 61 ff ff 90  	adrp	x1, 0x14000 <_ZNK23ChiFeature2HWmultiframe16OnPipelineSelectEPKcPK26ChiFeature2CreateInputInfoh+0x94>
   28298: 42 ff ff b0  	adrp	x2, 0x11000 <_ZNK23ChiFeature2HWmultiframe16OnPipelineSelectEPKcPK26ChiFeature2CreateInputInfoh+0x8c>
   2829c: 25 ff ff f0  	adrp	x5, 0xf000 <_ZNK23ChiFeature2HWmultiframe16OnPipelineSelectEPKcPK26ChiFeature2CreateInputInfoh+0x88>
   282bc: 35 ff ff d0  	adrp	x21, 0xe000 <_ZNK23ChiFeature2HWmultiframe16OnPipelineSelectEPKcPK26ChiFeature2CreateInputInfoh+0xa4>
   282d8: 41 ff ff f0  	adrp	x1, 0x13000 <_ZNK23ChiFeature2HWmultiframe16OnPipelineSelectEPKcPK26ChiFeature2CreateInputInfoh+0xd4>
   282e0: 20 ff ff b0  	adrp	x0, 0xd000 <_ZNK23ChiFeature2HWmultiframe16OnPipelineSelectEPKcPK26ChiFeature2CreateInputInfoh+0xc4>
   282e4: 23 ff ff f0  	adrp	x3, 0xf000 <_ZNK23ChiFeature2HWmultiframe16OnPipelineSelectEPKcPK26ChiFeature2CreateInputInfoh+0xd0>
   282e8: 45 ff ff b0  	adrp	x5, 0x11000 <_ZNK23ChiFeature2HWmultiframe16OnPipelineSelectEPKcPK26ChiFeature2CreateInputInfoh+0xdc>
   28300: 68 7f 00 94  	bl	0x480a0 <_ZN6ChiLog9LogSystemEPKcS1_S1_S1_iS1_z@plt>
   2831c: 21 ff ff d0  	adrp	x1, 0xe000 <_ZNK23ChiFeature2HWmultiframe16OnPipelineSelectEPKcPK26ChiFeature2CreateInputInfoh+0x104>
   2832c: c0 fe ff 35  	cbnz	w0, 0x28304 <_ZNK23ChiFeature2HWmultiframe16OnPipelineSelectEPKcPK26ChiFeature2CreateInputInfoh+0x154>
   28330: 2d 01 00 b0  	adrp	x13, 0x4d000 <_ZNK23ChiFeature2HWmultiframe16OnPipelineSelectEPKcPK26ChiFeature2CreateInputInfoh+0x214>
   2833c: aa 08 18 36  	tbz	w10, #3, 0x28450 <_ZNK23ChiFeature2HWmultiframe16OnPipelineSelectEPKcPK26ChiFeature2CreateInputInfoh+0x2a0>
   28340: 2e 01 00 b0  	adrp	x14, 0x4d000 <_ZNK23ChiFeature2HWmultiframe16OnPipelineSelectEPKcPK26ChiFeature2CreateInputInfoh+0x224>
   28344: 35 ff ff d0  	adrp	x21, 0xe000 <_ZNK23ChiFeature2HWmultiframe16OnPipelineSelectEPKcPK26ChiFeature2CreateInputInfoh+0x12c>
   28358: e1 03 00 54  	b.ne	0x283d4 <_ZNK23ChiFeature2HWmultiframe16OnPipelineSelectEPKcPK26ChiFeature2CreateInputInfoh+0x224>
   28378: 61 ff ff 90  	adrp	x1, 0x14000 <_ZNK23ChiFeature2HWmultiframe16OnPipelineSelectEPKcPK26ChiFeature2CreateInputInfoh+0x178>
   2837c: 22 ff ff d0  	adrp	x2, 0xe000 <_ZNK23ChiFeature2HWmultiframe16OnPipelineSelectEPKcPK26ChiFeature2CreateInputInfoh+0x164>
   28380: 25 ff ff f0  	adrp	x5, 0xf000 <_ZNK23ChiFeature2HWmultiframe16OnPipelineSelectEPKcPK26ChiFeature2CreateInputInfoh+0x16c>
   283f4: 60 ff ff 90  	adrp	x0, 0x14000 <_ZNK23ChiFeature2HWmultiframe16OnPipelineSelectEPKcPK26ChiFeature2CreateInputInfoh+0x1f4>
   283f8: 25 ff ff 90  	adrp	x5, 0xc000 <_ZNK23ChiFeature2HWmultiframe16OnPipelineSelectEPKcPK26ChiFeature2CreateInputInfoh+0x1d8>
   28410: 41 ff ff 90  	adrp	x1, 0x10000 <_ZNK23ChiFeature2HWmultiframe16OnPipelineSelectEPKcPK26ChiFeature2CreateInputInfoh+0x200>
   2842c: 23 ff ff f0  	adrp	x3, 0xf000 <_ZNK23ChiFeature2HWmultiframe16OnPipelineSelectEPKcPK26ChiFeature2CreateInputInfoh+0x218>
   2844c: 15 7f 00 94  	bl	0x480a0 <_ZN6ChiLog9LogSystemEPKcS1_S1_S1_iS1_z@plt>
   28454: ad ff ff 17  	b	0x28308 <_ZNK23ChiFeature2HWmultiframe16OnPipelineSelectEPKcPK26ChiFeature2CreateInputInfoh+0x158>
0000000000028458 <_ZNK23ChiFeature2HWmultiframe24OnPruneUsecaseDescriptorEPK26ChiFeature2CreateInputInfoRNSt3__16vectorI12PruneVariantNS3_9allocatorIS5_EEEE>:
   28480: 29 02 00 34  	cbz	w9, 0x284c4 <_ZNK23ChiFeature2HWmultiframe24OnPruneUsecaseDescriptorEPK26ChiFeature2CreateInputInfoRNSt3__16vectorI12PruneVariantNS3_9allocatorIS5_EEEE+0x6c>
   28484: 56 ff ff 90  	adrp	x22, 0x10000 <_ZNK23ChiFeature2HWmultiframe16OnPipelineSelectEPKcPK26ChiFeature2CreateInputInfoh+0x274>
   28488: 34 ff ff d0  	adrp	x20, 0xe000 <_ZNK23ChiFeature2HWmultiframe16OnPipelineSelectEPKcPK26ChiFeature2CreateInputInfoh+0x270>
   284a4: 15 0e 00 94  	bl	0x2bcf8 <_ZNK23ChiFeature2HWmultiframe27GetPrivateContextForRequestEP24ChiFeature2RequestObject+0x3d0>
   284a8: 40 01 00 35  	cbnz	w0, 0x284d0 <_ZNK23ChiFeature2HWmultiframe24OnPruneUsecaseDescriptorEPK26ChiFeature2CreateInputInfoRNSt3__16vectorI12PruneVariantNS3_9allocatorIS5_EEEE+0x78>
   284bc: 03 ff ff 54  	b.lo	0x2849c <_ZNK23ChiFeature2HWmultiframe24OnPruneUsecaseDescriptorEPK26ChiFeature2CreateInputInfoRNSt3__16vectorI12PruneVariantNS3_9allocatorIS5_EEEE+0x44>
   284c0: 05 00 00 14  	b	0x284d4 <_ZNK23ChiFeature2HWmultiframe24OnPruneUsecaseDescriptorEPK26ChiFeature2CreateInputInfoRNSt3__16vectorI12PruneVariantNS3_9allocatorIS5_EEEE+0x7c>
   284c4: 34 ff ff d0  	adrp	x20, 0xe000 <_ZNK23ChiFeature2HWmultiframe24OnPruneUsecaseDescriptorEPK26ChiFeature2CreateInputInfoRNSt3__16vectorI12PruneVariantNS3_9allocatorIS5_EEEE+0x4>
   284cc: 02 00 00 14  	b	0x284d4 <_ZNK23ChiFeature2HWmultiframe24OnPruneUsecaseDescriptorEPK26ChiFeature2CreateInputInfoRNSt3__16vectorI12PruneVariantNS3_9allocatorIS5_EEEE+0x7c>
   284d4: 20 ff ff f0  	adrp	x0, 0xf000 <_ZNK23ChiFeature2HWmultiframe24OnPruneUsecaseDescriptorEPK26ChiFeature2CreateInputInfoRNSt3__16vectorI12PruneVariantNS3_9allocatorIS5_EEEE+0x18>
   284dc: b9 7f 00 94  	bl	0x483c0 <_ZN15UsecaseSelector15GetVariantGroupEPKc@plt>
   284e8: ba 7f 00 94  	bl	0x483d0 <_ZN15UsecaseSelector14GetVariantTypeEPKc@plt>
   284fc: 21 04 00 54  	b.ne	0x28580 <_ZNK23ChiFeature2HWmultiframe24OnPruneUsecaseDescriptorEPK26ChiFeature2CreateInputInfoRNSt3__16vectorI12PruneVariantNS3_9allocatorIS5_EEEE+0x128>
   2851c: 6b 01 00 54  	b.lt	0x28548 <_ZNK23ChiFeature2HWmultiframe24OnPruneUsecaseDescriptorEPK26ChiFeature2CreateInputInfoRNSt3__16vectorI12PruneVariantNS3_9allocatorIS5_EEEE+0xf0>
   28528: 61 0a 00 54  	b.ne	0x28674 <_ZNK23ChiFeature2HWmultiframe24OnPruneUsecaseDescriptorEPK26ChiFeature2CreateInputInfoRNSt3__16vectorI12PruneVariantNS3_9allocatorIS5_EEEE+0x21c>
   28558: 37 01 00 b4  	cbz	x23, 0x2857c <_ZNK23ChiFeature2HWmultiframe24OnPruneUsecaseDescriptorEPK26ChiFeature2CreateInputInfoRNSt3__16vectorI12PruneVariantNS3_9allocatorIS5_EEEE+0x124>
   28568: 6f 08 00 b5  	cbnz	x15, 0x28674 <_ZNK23ChiFeature2HWmultiframe24OnPruneUsecaseDescriptorEPK26ChiFeature2CreateInputInfoRNSt3__16vectorI12PruneVariantNS3_9allocatorIS5_EEEE+0x21c>
   28578: 02 00 00 14  	b	0x28580 <_ZNK23ChiFeature2HWmultiframe24OnPruneUsecaseDescriptorEPK26ChiFeature2CreateInputInfoRNSt3__16vectorI12PruneVariantNS3_9allocatorIS5_EEEE+0x128>
   28588: 00 01 00 54  	b.eq	0x285a8 <_ZNK23ChiFeature2HWmultiframe24OnPruneUsecaseDescriptorEPK26ChiFeature2CreateInputInfoRNSt3__16vectorI12PruneVariantNS3_9allocatorIS5_EEEE+0x150>
   285a4: 2c 00 00 14  	b	0x28654 <_ZNK23ChiFeature2HWmultiframe24OnPruneUsecaseDescriptorEPK26ChiFeature2CreateInputInfoRNSt3__16vectorI12PruneVariantNS3_9allocatorIS5_EEEE+0x1fc>
   285b8: 02 06 00 54  	b.hs	0x28678 <_ZNK23ChiFeature2HWmultiframe24OnPruneUsecaseDescriptorEPK26ChiFeature2CreateInputInfoRNSt3__16vectorI12PruneVariantNS3_9allocatorIS5_EEEE+0x220>
   285c0: f1 05 00 b5  	cbnz	x17, 0x2867c <_ZNK23ChiFeature2HWmultiframe24OnPruneUsecaseDescriptorEPK26ChiFeature2CreateInputInfoRNSt3__16vectorI12PruneVariantNS3_9allocatorIS5_EEEE+0x224>
   285cc: e8 00 00 54  	b.hi	0x285e8 <_ZNK23ChiFeature2HWmultiframe24OnPruneUsecaseDescriptorEPK26ChiFeature2CreateInputInfoRNSt3__16vectorI12PruneVariantNS3_9allocatorIS5_EEEE+0x190>
   285dc: 9b 00 00 b5  	cbnz	x27, 0x285ec <_ZNK23ChiFeature2HWmultiframe24OnPruneUsecaseDescriptorEPK26ChiFeature2CreateInputInfoRNSt3__16vectorI12PruneVariantNS3_9allocatorIS5_EEEE+0x194>
   285e4: 06 00 00 14  	b	0x285fc <_ZNK23ChiFeature2HWmultiframe24OnPruneUsecaseDescriptorEPK26ChiFeature2CreateInputInfoRNSt3__16vectorI12PruneVariantNS3_9allocatorIS5_EEEE+0x1a4>
   28610: eb 00 00 54  	b.lt	0x2862c <_ZNK23ChiFeature2HWmultiframe24OnPruneUsecaseDescriptorEPK26ChiFeature2CreateInputInfoRNSt3__16vectorI12PruneVariantNS3_9allocatorIS5_EEEE+0x1d4>
   28618: e1 02 00 54  	b.ne	0x28674 <_ZNK23ChiFeature2HWmultiframe24OnPruneUsecaseDescriptorEPK26ChiFeature2CreateInputInfoRNSt3__16vectorI12PruneVariantNS3_9allocatorIS5_EEEE+0x21c>
   28638: f7 00 00 b4  	cbz	x23, 0x28654 <_ZNK23ChiFeature2HWmultiframe24OnPruneUsecaseDescriptorEPK26ChiFeature2CreateInputInfoRNSt3__16vectorI12PruneVariantNS3_9allocatorIS5_EEEE+0x1fc>
   28648: 78 01 00 b5  	cbnz	x24, 0x28674 <_ZNK23ChiFeature2HWmultiframe24OnPruneUsecaseDescriptorEPK26ChiFeature2CreateInputInfoRNSt3__16vectorI12PruneVariantNS3_9allocatorIS5_EEEE+0x21c>
   28680: 48 7f 00 94  	bl	0x483a0 <_ZNKSt3__120__vector_base_commonILb1EE20__throw_length_errorEv@plt>
0000000000028688 <_ZN23ChiFeature2HWmultiframe16OnPipelineCreateEP21ChiFeature2Identifier>:
   28698: 61 03 00 b4  	cbz	x1, 0x28704 <_ZN23ChiFeature2HWmultiframe16OnPipelineCreateEP21ChiFeature2Identifier+0x7c>
   286a0: 2d 01 00 b0  	adrp	x13, 0x4d000 <_ZN23ChiFeature2HWmultiframe16OnPipelineCreateEP21ChiFeature2Identifier+0xac>
   286b4: 61 08 00 54  	b.ne	0x287c0 <_ZN23ChiFeature2HWmultiframe16OnPipelineCreateEP21ChiFeature2Identifier+0x138>
   286bc: c1 09 00 54  	b.ne	0x287f4 <_ZN23ChiFeature2HWmultiframe16OnPipelineCreateEP21ChiFeature2Identifier+0x16c>
   286d0: e2 06 00 54  	b.hs	0x287ac <_ZN23ChiFeature2HWmultiframe16OnPipelineCreateEP21ChiFeature2Identifier+0x124>
   286d8: a8 06 00 b4  	cbz	x8, 0x287ac <_ZN23ChiFeature2HWmultiframe16OnPipelineCreateEP21ChiFeature2Identifier+0x124>
   286ec: 02 06 00 54  	b.hs	0x287ac <_ZN23ChiFeature2HWmultiframe16OnPipelineCreateEP21ChiFeature2Identifier+0x124>
   286f4: cc 05 00 b4  	cbz	x12, 0x287ac <_ZN23ChiFeature2HWmultiframe16OnPipelineCreateEP21ChiFeature2Identifier+0x124>
   28700: 2b 00 00 14  	b	0x287ac <_ZN23ChiFeature2HWmultiframe16OnPipelineCreateEP21ChiFeature2Identifier+0x124>
   28704: 2e 01 00 b0  	adrp	x14, 0x4d000 <_ZN23ChiFeature2HWmultiframe16OnPipelineCreateEP21ChiFeature2Identifier+0x110>
   28710: e9 04 00 36  	tbz	w9, #0, 0x287ac <_ZN23ChiFeature2HWmultiframe16OnPipelineCreateEP21ChiFeature2Identifier+0x124>
   28714: 2f 01 00 b0  	adrp	x15, 0x4d000 <_ZN23ChiFeature2HWmultiframe16OnPipelineCreateEP21ChiFeature2Identifier+0x120>
   28718: 33 ff ff d0  	adrp	x19, 0xe000 <_ZN23ChiFeature2HWmultiframe16OnPipelineCreateEP21ChiFeature2Identifier+0x28>
   2872c: 01 02 00 54  	b.ne	0x2876c <_ZN23ChiFeature2HWmultiframe16OnPipelineCreateEP21ChiFeature2Identifier+0xe4>
   28744: 61 ff ff 90  	adrp	x1, 0x14000 <_ZN23ChiFeature2HWmultiframe16OnPipelineCreateEP21ChiFeature2Identifier+0x6c>
   28748: 42 ff ff f0  	adrp	x2, 0x13000 <_ZN23ChiFeature2HWmultiframe16OnPipelineCreateEP21ChiFeature2Identifier+0x6c>
   2874c: 25 ff ff f0  	adrp	x5, 0xf000 <_ZN23ChiFeature2HWmultiframe16OnPipelineCreateEP21ChiFeature2Identifier+0x60>
   28780: 41 ff ff f0  	adrp	x1, 0x13000 <_ZN23ChiFeature2HWmultiframe16OnPipelineCreateEP21ChiFeature2Identifier+0xa4>
   28788: 20 ff ff b0  	adrp	x0, 0xd000 <_ZN23ChiFeature2HWmultiframe16OnPipelineCreateEP21ChiFeature2Identifier+0x94>
   2878c: 23 ff ff f0  	adrp	x3, 0xf000 <_ZN23ChiFeature2HWmultiframe16OnPipelineCreateEP21ChiFeature2Identifier+0xa0>
   28790: 25 ff ff f0  	adrp	x5, 0xf000 <_ZN23ChiFeature2HWmultiframe16OnPipelineCreateEP21ChiFeature2Identifier+0xa4>
   287a8: 3e 7e 00 94  	bl	0x480a0 <_ZN6ChiLog9LogSystemEPKcS1_S1_S1_iS1_z@plt>
   287f0: 80 f6 ff 54  	b.eq	0x286c0 <_ZN23ChiFeature2HWmultiframe16OnPipelineCreateEP21ChiFeature2Identifier+0x38>
   28814: ab ff ff 17  	b	0x286c0 <_ZN23ChiFeature2HWmultiframe16OnPipelineCreateEP21ChiFeature2Identifier+0x38>
0000000000028818 <_ZN23ChiFeature2HWmultiframe12OnPortCreateEP21ChiFeature2Identifier>:
   28838: 37 01 00 b0  	adrp	x23, 0x4d000 <_ZN23ChiFeature2HWmultiframe12OnPortCreateEP21ChiFeature2Identifier+0xb4>
   2884c: 01 50 00 54  	b.ne	0x2924c <_ZN23ChiFeature2HWmultiframe12OnPortCreateEP21ChiFeature2Identifier+0xa34>
   28858: e6 7e 00 94  	bl	0x483f0 <_ZN15ChiFeature2Base12OnPortCreateEP21ChiFeature2Identifier@plt>
   2885c: 54 1b 00 b4  	cbz	x20, 0x28bc4 <_ZN23ChiFeature2HWmultiframe12OnPortCreateEP21ChiFeature2Identifier+0x3ac>
   28860: 30 01 00 f0  	adrp	x16, 0x4f000 <_ZN23ChiFeature2HWmultiframe12OnPortCreateEP21ChiFeature2Identifier+0xe4>
   28874: 61 02 00 54  	b.ne	0x288c0 <_ZN23ChiFeature2HWmultiframe12OnPortCreateEP21ChiFeature2Identifier+0xa8>
   28878: 2a 01 00 f0  	adrp	x10, 0x4f000 <_ZN23ChiFeature2HWmultiframe12OnPortCreateEP21ChiFeature2Identifier+0xfc>
   2888c: a1 01 00 54  	b.ne	0x288c0 <_ZN23ChiFeature2HWmultiframe12OnPortCreateEP21ChiFeature2Identifier+0xa8>
   2889c: 21 01 00 54  	b.ne	0x288c0 <_ZN23ChiFeature2HWmultiframe12OnPortCreateEP21ChiFeature2Identifier+0xa8>
   288ac: a1 00 00 54  	b.ne	0x288c0 <_ZN23ChiFeature2HWmultiframe12OnPortCreateEP21ChiFeature2Identifier+0xa8>
   288bc: 60 13 00 54  	b.eq	0x28b28 <_ZN23ChiFeature2HWmultiframe12OnPortCreateEP21ChiFeature2Identifier+0x310>
   288c0: 31 01 00 f0  	adrp	x17, 0x4f000 <_ZN23ChiFeature2HWmultiframe12OnPortCreateEP21ChiFeature2Identifier+0x144>
   288cc: 61 02 00 54  	b.ne	0x28918 <_ZN23ChiFeature2HWmultiframe12OnPortCreateEP21ChiFeature2Identifier+0x100>
   288d0: 2e 01 00 f0  	adrp	x14, 0x4f000 <_ZN23ChiFeature2HWmultiframe12OnPortCreateEP21ChiFeature2Identifier+0x154>
   288e4: a1 01 00 54  	b.ne	0x28918 <_ZN23ChiFeature2HWmultiframe12OnPortCreateEP21ChiFeature2Identifier+0x100>
   288f4: 21 01 00 54  	b.ne	0x28918 <_ZN23ChiFeature2HWmultiframe12OnPortCreateEP21ChiFeature2Identifier+0x100>
   28904: a1 00 00 54  	b.ne	0x28918 <_ZN23ChiFeature2HWmultiframe12OnPortCreateEP21ChiFeature2Identifier+0x100>
   28914: a0 10 00 54  	b.eq	0x28b28 <_ZN23ChiFeature2HWmultiframe12OnPortCreateEP21ChiFeature2Identifier+0x310>
   28918: 21 01 00 f0  	adrp	x1, 0x4f000 <_ZN23ChiFeature2HWmultiframe12OnPortCreateEP21ChiFeature2Identifier+0x19c>
   28924: 61 02 00 54  	b.ne	0x28970 <_ZN23ChiFeature2HWmultiframe12OnPortCreateEP21ChiFeature2Identifier+0x158>
   28928: 2f 01 00 f0  	adrp	x15, 0x4f000 <_ZN23ChiFeature2HWmultiframe12OnPortCreateEP21ChiFeature2Identifier+0x1ac>
   2893c: a1 01 00 54  	b.ne	0x28970 <_ZN23ChiFeature2HWmultiframe12OnPortCreateEP21ChiFeature2Identifier+0x158>
   2894c: 21 01 00 54  	b.ne	0x28970 <_ZN23ChiFeature2HWmultiframe12OnPortCreateEP21ChiFeature2Identifier+0x158>
   2895c: a1 00 00 54  	b.ne	0x28970 <_ZN23ChiFeature2HWmultiframe12OnPortCreateEP21ChiFeature2Identifier+0x158>
   2896c: e0 0d 00 54  	b.eq	0x28b28 <_ZN23ChiFeature2HWmultiframe12OnPortCreateEP21ChiFeature2Identifier+0x310>
   28970: 22 01 00 f0  	adrp	x2, 0x4f000 <_ZN23ChiFeature2HWmultiframe12OnPortCreateEP21ChiFeature2Identifier+0x1f4>
   2897c: 61 02 00 54  	b.ne	0x289c8 <_ZN23ChiFeature2HWmultiframe12OnPortCreateEP21ChiFeature2Identifier+0x1b0>
   28980: 30 01 00 f0  	adrp	x16, 0x4f000 <_ZN23ChiFeature2HWmultiframe12OnPortCreateEP21ChiFeature2Identifier+0x204>
   28994: a1 01 00 54  	b.ne	0x289c8 <_ZN23ChiFeature2HWmultiframe12OnPortCreateEP21ChiFeature2Identifier+0x1b0>
   289a4: 21 01 00 54  	b.ne	0x289c8 <_ZN23ChiFeature2HWmultiframe12OnPortCreateEP21ChiFeature2Identifier+0x1b0>
   289b4: a1 00 00 54  	b.ne	0x289c8 <_ZN23ChiFeature2HWmultiframe12OnPortCreateEP21ChiFeature2Identifier+0x1b0>
   289c4: 20 0b 00 54  	b.eq	0x28b28 <_ZN23ChiFeature2HWmultiframe12OnPortCreateEP21ChiFeature2Identifier+0x310>
   289c8: 23 01 00 f0  	adrp	x3, 0x4f000 <_ZN23ChiFeature2HWmultiframe12OnPortCreateEP21ChiFeature2Identifier+0x24c>
   289d4: 61 02 00 54  	b.ne	0x28a20 <_ZN23ChiFeature2HWmultiframe12OnPortCreateEP21ChiFeature2Identifier+0x208>
   289d8: 31 01 00 f0  	adrp	x17, 0x4f000 <_ZN23ChiFeature2HWmultiframe12OnPortCreateEP21ChiFeature2Identifier+0x25c>
   289ec: a1 01 00 54  	b.ne	0x28a20 <_ZN23ChiFeature2HWmultiframe12OnPortCreateEP21ChiFeature2Identifier+0x208>
   289fc: 21 01 00 54  	b.ne	0x28a20 <_ZN23ChiFeature2HWmultiframe12OnPortCreateEP21ChiFeature2Identifier+0x208>
   28a0c: a1 00 00 54  	b.ne	0x28a20 <_ZN23ChiFeature2HWmultiframe12OnPortCreateEP21ChiFeature2Identifier+0x208>
   28a1c: 60 08 00 54  	b.eq	0x28b28 <_ZN23ChiFeature2HWmultiframe12OnPortCreateEP21ChiFeature2Identifier+0x310>
   28a20: 24 01 00 f0  	adrp	x4, 0x4f000 <_ZN23ChiFeature2HWmultiframe12OnPortCreateEP21ChiFeature2Identifier+0x2a4>
   28a2c: 61 02 00 54  	b.ne	0x28a78 <_ZN23ChiFeature2HWmultiframe12OnPortCreateEP21ChiFeature2Identifier+0x260>
   28a30: 21 01 00 f0  	adrp	x1, 0x4f000 <_ZN23ChiFeature2HWmultiframe12OnPortCreateEP21ChiFeature2Identifier+0x2b4>
   28a44: a1 01 00 54  	b.ne	0x28a78 <_ZN23ChiFeature2HWmultiframe12OnPortCreateEP21ChiFeature2Identifier+0x260>
   28a54: 21 01 00 54  	b.ne	0x28a78 <_ZN23ChiFeature2HWmultiframe12OnPortCreateEP21ChiFeature2Identifier+0x260>
   28a64: a1 00 00 54  	b.ne	0x28a78 <_ZN23ChiFeature2HWmultiframe12OnPortCreateEP21ChiFeature2Identifier+0x260>
   28a74: a0 05 00 54  	b.eq	0x28b28 <_ZN23ChiFeature2HWmultiframe12OnPortCreateEP21ChiFeature2Identifier+0x310>
   28a78: 25 01 00 f0  	adrp	x5, 0x4f000 <_ZN23ChiFeature2HWmultiframe12OnPortCreateEP21ChiFeature2Identifier+0x2fc>
   28a84: 61 02 00 54  	b.ne	0x28ad0 <_ZN23ChiFeature2HWmultiframe12OnPortCreateEP21ChiFeature2Identifier+0x2b8>
   28a88: 22 01 00 f0  	adrp	x2, 0x4f000 <_ZN23ChiFeature2HWmultiframe12OnPortCreateEP21ChiFeature2Identifier+0x30c>
   28a9c: a1 01 00 54  	b.ne	0x28ad0 <_ZN23ChiFeature2HWmultiframe12OnPortCreateEP21ChiFeature2Identifier+0x2b8>
   28aac: 21 01 00 54  	b.ne	0x28ad0 <_ZN23ChiFeature2HWmultiframe12OnPortCreateEP21ChiFeature2Identifier+0x2b8>
   28abc: a1 00 00 54  	b.ne	0x28ad0 <_ZN23ChiFeature2HWmultiframe12OnPortCreateEP21ChiFeature2Identifier+0x2b8>
   28acc: e0 02 00 54  	b.eq	0x28b28 <_ZN23ChiFeature2HWmultiframe12OnPortCreateEP21ChiFeature2Identifier+0x310>
   28ad0: 26 01 00 f0  	adrp	x6, 0x4f000 <_ZN23ChiFeature2HWmultiframe12OnPortCreateEP21ChiFeature2Identifier+0x354>
   28adc: a1 1d 00 54  	b.ne	0x28e90 <_ZN23ChiFeature2HWmultiframe12OnPortCreateEP21ChiFeature2Identifier+0x678>
   28ae0: 23 01 00 f0  	adrp	x3, 0x4f000 <_ZN23ChiFeature2HWmultiframe12OnPortCreateEP21ChiFeature2Identifier+0x364>
   28af4: e1 1c 00 54  	b.ne	0x28e90 <_ZN23ChiFeature2HWmultiframe12OnPortCreateEP21ChiFeature2Identifier+0x678>
   28b04: 61 1c 00 54  	b.ne	0x28e90 <_ZN23ChiFeature2HWmultiframe12OnPortCreateEP21ChiFeature2Identifier+0x678>
   28b14: e1 1b 00 54  	b.ne	0x28e90 <_ZN23ChiFeature2HWmultiframe12OnPortCreateEP21ChiFeature2Identifier+0x678>
   28b24: 61 1b 00 54  	b.ne	0x28e90 <_ZN23ChiFeature2HWmultiframe12OnPortCreateEP21ChiFeature2Identifier+0x678>
   28b34: 21 3c 00 54  	b.ne	0x292b8 <_ZN23ChiFeature2HWmultiframe12OnPortCreateEP21ChiFeature2Identifier+0xaa0>
   28b3c: e1 3c 00 54  	b.ne	0x292d8 <_ZN23ChiFeature2HWmultiframe12OnPortCreateEP21ChiFeature2Identifier+0xac0>
   28b48: 61 3d 00 54  	b.ne	0x292f4 <_ZN23ChiFeature2HWmultiframe12OnPortCreateEP21ChiFeature2Identifier+0xadc>
   28b5c: a2 19 00 54  	b.hs	0x28e90 <_ZN23ChiFeature2HWmultiframe12OnPortCreateEP21ChiFeature2Identifier+0x678>
   28b64: 6b 19 00 b4  	cbz	x11, 0x28e90 <_ZN23ChiFeature2HWmultiframe12OnPortCreateEP21ChiFeature2Identifier+0x678>
   28b78: c2 18 00 54  	b.hs	0x28e90 <_ZN23ChiFeature2HWmultiframe12OnPortCreateEP21ChiFeature2Identifier+0x678>
   28b80: 8b 18 00 b4  	cbz	x11, 0x28e90 <_ZN23ChiFeature2HWmultiframe12OnPortCreateEP21ChiFeature2Identifier+0x678>
   28b90: 68 07 00 54  	b.hi	0x28c7c <_ZN23ChiFeature2HWmultiframe12OnPortCreateEP21ChiFeature2Identifier+0x464>
   28bbc: 68 07 00 54  	b.hi	0x28ca8 <_ZN23ChiFeature2HWmultiframe12OnPortCreateEP21ChiFeature2Identifier+0x490>
   28bc0: b4 00 00 14  	b	0x28e90 <_ZN23ChiFeature2HWmultiframe12OnPortCreateEP21ChiFeature2Identifier+0x678>
   28bc4: 23 01 00 b0  	adrp	x3, 0x4d000 <_ZN23ChiFeature2HWmultiframe12OnPortCreateEP21ChiFeature2Identifier+0x440>
   28bd0: 33 05 00 36  	tbz	w19, #0, 0x28c74 <_ZN23ChiFeature2HWmultiframe12OnPortCreateEP21ChiFeature2Identifier+0x45c>
   28bd4: 24 01 00 b0  	adrp	x4, 0x4d000 <_ZN23ChiFeature2HWmultiframe12OnPortCreateEP21ChiFeature2Identifier+0x450>
   28be4: 41 02 00 54  	b.ne	0x28c2c <_ZN23ChiFeature2HWmultiframe12OnPortCreateEP21ChiFeature2Identifier+0x414>
   28be8: 36 ff ff d0  	adrp	x22, 0xe000 <_ZN23ChiFeature2HWmultiframe12OnPortCreateEP21ChiFeature2Identifier+0x368>
   28c04: 61 ff ff 90  	adrp	x1, 0x14000 <_ZN23ChiFeature2HWmultiframe12OnPortCreateEP21ChiFeature2Identifier+0x39c>
   28c08: 42 ff ff 90  	adrp	x2, 0x10000 <_ZN23ChiFeature2HWmultiframe12OnPortCreateEP21ChiFeature2Identifier+0x390>
   28c0c: 45 ff ff 90  	adrp	x5, 0x10000 <_ZN23ChiFeature2HWmultiframe12OnPortCreateEP21ChiFeature2Identifier+0x394>
   28c2c: 36 ff ff d0  	adrp	x22, 0xe000 <_ZN23ChiFeature2HWmultiframe12OnPortCreateEP21ChiFeature2Identifier+0x3ac>
   28c48: 41 ff ff f0  	adrp	x1, 0x13000 <_ZN23ChiFeature2HWmultiframe12OnPortCreateEP21ChiFeature2Identifier+0x3dc>
   28c50: 20 ff ff b0  	adrp	x0, 0xd000 <_ZN23ChiFeature2HWmultiframe12OnPortCreateEP21ChiFeature2Identifier+0x3cc>
   28c54: 43 ff ff 90  	adrp	x3, 0x10000 <_ZN23ChiFeature2HWmultiframe12OnPortCreateEP21ChiFeature2Identifier+0x3dc>
   28c58: 25 ff ff b0  	adrp	x5, 0xd000 <_ZN23ChiFeature2HWmultiframe12OnPortCreateEP21ChiFeature2Identifier+0x3d4>
   28c70: 0c 7d 00 94  	bl	0x480a0 <_ZN6ChiLog9LogSystemEPKcS1_S1_S1_iS1_z@plt>
   28c78: 6e 01 00 14  	b	0x29230 <_ZN23ChiFeature2HWmultiframe12OnPortCreateEP21ChiFeature2Identifier+0xa18>
   28ca4: 69 0f 00 54  	b.ls	0x28e90 <_ZN23ChiFeature2HWmultiframe12OnPortCreateEP21ChiFeature2Identifier+0x678>
   28cac: 39 0f 00 b4  	cbz	x25, 0x28e90 <_ZN23ChiFeature2HWmultiframe12OnPortCreateEP21ChiFeature2Identifier+0x678>
   28cbc: a4 0e 00 b4  	cbz	x4, 0x28e90 <_ZN23ChiFeature2HWmultiframe12OnPortCreateEP21ChiFeature2Identifier+0x678>
   28cc0: 2c 01 00 f0  	adrp	x12, 0x4f000 <_ZN23ChiFeature2HWmultiframe12OnPortCreateEP21ChiFeature2Identifier+0x544>
   28cc4: 2d 01 00 b0  	adrp	x13, 0x4d000 <_ZN23ChiFeature2HWmultiframe12OnPortCreateEP21ChiFeature2Identifier+0x540>
   28ce4: a1 07 00 54  	b.ne	0x28dd8 <_ZN23ChiFeature2HWmultiframe12OnPortCreateEP21ChiFeature2Identifier+0x5c0>
   28cf0: 41 07 00 54  	b.ne	0x28dd8 <_ZN23ChiFeature2HWmultiframe12OnPortCreateEP21ChiFeature2Identifier+0x5c0>
   28cfc: e1 06 00 54  	b.ne	0x28dd8 <_ZN23ChiFeature2HWmultiframe12OnPortCreateEP21ChiFeature2Identifier+0x5c0>
   28d08: 81 06 00 54  	b.ne	0x28dd8 <_ZN23ChiFeature2HWmultiframe12OnPortCreateEP21ChiFeature2Identifier+0x5c0>
   28d1c: 41 06 00 54  	b.ne	0x28de4 <_ZN23ChiFeature2HWmultiframe12OnPortCreateEP21ChiFeature2Identifier+0x5cc>
   28d20: 2a 05 18 36  	tbz	w10, #3, 0x28dc4 <_ZN23ChiFeature2HWmultiframe12OnPortCreateEP21ChiFeature2Identifier+0x5ac>
   28d24: 2b 01 00 b0  	adrp	x11, 0x4d000 <_ZN23ChiFeature2HWmultiframe12OnPortCreateEP21ChiFeature2Identifier+0x5a0>
   28d34: 41 02 00 54  	b.ne	0x28d7c <_ZN23ChiFeature2HWmultiframe12OnPortCreateEP21ChiFeature2Identifier+0x564>
   28d38: 36 ff ff d0  	adrp	x22, 0xe000 <_ZN23ChiFeature2HWmultiframe12OnPortCreateEP21ChiFeature2Identifier+0x4b8>
   28d54: 61 ff ff 90  	adrp	x1, 0x14000 <_ZN23ChiFeature2HWmultiframe12OnPortCreateEP21ChiFeature2Identifier+0x4ec>
   28d58: 22 ff ff 90  	adrp	x2, 0xc000 <_ZN23ChiFeature2HWmultiframe12OnPortCreateEP21ChiFeature2Identifier+0x4d0>
   28d5c: 45 ff ff 90  	adrp	x5, 0x10000 <_ZN23ChiFeature2HWmultiframe12OnPortCreateEP21ChiFeature2Identifier+0x4e4>
   28d7c: 36 ff ff d0  	adrp	x22, 0xe000 <_ZN23ChiFeature2HWmultiframe12OnPortCreateEP21ChiFeature2Identifier+0x4fc>
   28d98: 41 ff ff 90  	adrp	x1, 0x10000 <_ZN23ChiFeature2HWmultiframe12OnPortCreateEP21ChiFeature2Identifier+0x520>
   28da0: 60 ff ff 90  	adrp	x0, 0x14000 <_ZN23ChiFeature2HWmultiframe12OnPortCreateEP21ChiFeature2Identifier+0x538>
   28da4: 43 ff ff 90  	adrp	x3, 0x10000 <_ZN23ChiFeature2HWmultiframe12OnPortCreateEP21ChiFeature2Identifier+0x52c>
   28da8: 25 ff ff b0  	adrp	x5, 0xd000 <_ZN23ChiFeature2HWmultiframe12OnPortCreateEP21ChiFeature2Identifier+0x524>
   28dc0: b8 7c 00 94  	bl	0x480a0 <_ZN6ChiLog9LogSystemEPKcS1_S1_S1_iS1_z@plt>
   28dd4: 2f 00 00 14  	b	0x28e90 <_ZN23ChiFeature2HWmultiframe12OnPortCreateEP21ChiFeature2Identifier+0x678>
   28ddc: 6f 00 18 37  	tbnz	w15, #3, 0x28de8 <_ZN23ChiFeature2HWmultiframe12OnPortCreateEP21ChiFeature2Identifier+0x5d0>
   28de0: 28 00 00 14  	b	0x28e80 <_ZN23ChiFeature2HWmultiframe12OnPortCreateEP21ChiFeature2Identifier+0x668>
   28de4: ea 04 18 36  	tbz	w10, #3, 0x28e80 <_ZN23ChiFeature2HWmultiframe12OnPortCreateEP21ChiFeature2Identifier+0x668>
   28de8: 29 01 00 b0  	adrp	x9, 0x4d000 <_ZN23ChiFeature2HWmultiframe12OnPortCreateEP21ChiFeature2Identifier+0x664>
   28dec: 36 ff ff d0  	adrp	x22, 0xe000 <_ZN23ChiFeature2HWmultiframe12OnPortCreateEP21ChiFeature2Identifier+0x56c>
   28e00: 01 02 00 54  	b.ne	0x28e40 <_ZN23ChiFeature2HWmultiframe12OnPortCreateEP21ChiFeature2Identifier+0x628>
   28e18: 61 ff ff 90  	adrp	x1, 0x14000 <_ZN23ChiFeature2HWmultiframe12OnPortCreateEP21ChiFeature2Identifier+0x5b0>
   28e1c: 42 ff ff b0  	adrp	x2, 0x11000 <_ZN23ChiFeature2HWmultiframe12OnPortCreateEP21ChiFeature2Identifier+0x5a8>
   28e20: 45 ff ff 90  	adrp	x5, 0x10000 <_ZN23ChiFeature2HWmultiframe12OnPortCreateEP21ChiFeature2Identifier+0x5a8>
   28e54: 41 ff ff 90  	adrp	x1, 0x10000 <_ZN23ChiFeature2HWmultiframe12OnPortCreateEP21ChiFeature2Identifier+0x5dc>
   28e5c: 60 ff ff 90  	adrp	x0, 0x14000 <_ZN23ChiFeature2HWmultiframe12OnPortCreateEP21ChiFeature2Identifier+0x5f4>
   28e60: 43 ff ff 90  	adrp	x3, 0x10000 <_ZN23ChiFeature2HWmultiframe12OnPortCreateEP21ChiFeature2Identifier+0x5e8>
   28e64: 45 ff ff f0  	adrp	x5, 0x13000 <_ZN23ChiFeature2HWmultiframe12OnPortCreateEP21ChiFeature2Identifier+0x5f8>
   28e7c: 89 7c 00 94  	bl	0x480a0 <_ZN6ChiLog9LogSystemEPKcS1_S1_S1_iS1_z@plt>
   28e90: 2d 01 00 f0  	adrp	x13, 0x4f000 <_ZN23ChiFeature2HWmultiframe12OnPortCreateEP21ChiFeature2Identifier+0x714>
   28ea0: 61 02 00 54  	b.ne	0x28eec <_ZN23ChiFeature2HWmultiframe12OnPortCreateEP21ChiFeature2Identifier+0x6d4>
   28ea4: 24 01 00 f0  	adrp	x4, 0x4f000 <_ZN23ChiFeature2HWmultiframe12OnPortCreateEP21ChiFeature2Identifier+0x728>
   28eb8: a1 01 00 54  	b.ne	0x28eec <_ZN23ChiFeature2HWmultiframe12OnPortCreateEP21ChiFeature2Identifier+0x6d4>
   28ec8: 21 01 00 54  	b.ne	0x28eec <_ZN23ChiFeature2HWmultiframe12OnPortCreateEP21ChiFeature2Identifier+0x6d4>
   28ed8: a1 00 00 54  	b.ne	0x28eec <_ZN23ChiFeature2HWmultiframe12OnPortCreateEP21ChiFeature2Identifier+0x6d4>
   28ee8: 20 0b 00 54  	b.eq	0x2904c <_ZN23ChiFeature2HWmultiframe12OnPortCreateEP21ChiFeature2Identifier+0x834>
   28eec: 2a 01 00 f0  	adrp	x10, 0x4f000 <_ZN23ChiFeature2HWmultiframe12OnPortCreateEP21ChiFeature2Identifier+0x770>
   28ef8: 61 02 00 54  	b.ne	0x28f44 <_ZN23ChiFeature2HWmultiframe12OnPortCreateEP21ChiFeature2Identifier+0x72c>
   28efc: 25 01 00 f0  	adrp	x5, 0x4f000 <_ZN23ChiFeature2HWmultiframe12OnPortCreateEP21ChiFeature2Identifier+0x780>
   28f10: a1 01 00 54  	b.ne	0x28f44 <_ZN23ChiFeature2HWmultiframe12OnPortCreateEP21ChiFeature2Identifier+0x72c>
   28f20: 21 01 00 54  	b.ne	0x28f44 <_ZN23ChiFeature2HWmultiframe12OnPortCreateEP21ChiFeature2Identifier+0x72c>
   28f30: a1 00 00 54  	b.ne	0x28f44 <_ZN23ChiFeature2HWmultiframe12OnPortCreateEP21ChiFeature2Identifier+0x72c>
   28f40: 60 08 00 54  	b.eq	0x2904c <_ZN23ChiFeature2HWmultiframe12OnPortCreateEP21ChiFeature2Identifier+0x834>
   28f44: 2e 01 00 f0  	adrp	x14, 0x4f000 <_ZN23ChiFeature2HWmultiframe12OnPortCreateEP21ChiFeature2Identifier+0x7c8>
   28f50: 61 02 00 54  	b.ne	0x28f9c <_ZN23ChiFeature2HWmultiframe12OnPortCreateEP21ChiFeature2Identifier+0x784>
   28f54: 26 01 00 f0  	adrp	x6, 0x4f000 <_ZN23ChiFeature2HWmultiframe12OnPortCreateEP21ChiFeature2Identifier+0x7d8>
   28f68: a1 01 00 54  	b.ne	0x28f9c <_ZN23ChiFeature2HWmultiframe12OnPortCreateEP21ChiFeature2Identifier+0x784>
   28f78: 21 01 00 54  	b.ne	0x28f9c <_ZN23ChiFeature2HWmultiframe12OnPortCreateEP21ChiFeature2Identifier+0x784>
   28f88: a1 00 00 54  	b.ne	0x28f9c <_ZN23ChiFeature2HWmultiframe12OnPortCreateEP21ChiFeature2Identifier+0x784>
   28f98: a0 05 00 54  	b.eq	0x2904c <_ZN23ChiFeature2HWmultiframe12OnPortCreateEP21ChiFeature2Identifier+0x834>
   28f9c: 2f 01 00 f0  	adrp	x15, 0x4f000 <_ZN23ChiFeature2HWmultiframe12OnPortCreateEP21ChiFeature2Identifier+0x820>
   28fa8: 61 02 00 54  	b.ne	0x28ff4 <_ZN23ChiFeature2HWmultiframe12OnPortCreateEP21ChiFeature2Identifier+0x7dc>
   28fac: 27 01 00 f0  	adrp	x7, 0x4f000 <_ZN23ChiFeature2HWmultiframe12OnPortCreateEP21ChiFeature2Identifier+0x830>
   28fc0: a1 01 00 54  	b.ne	0x28ff4 <_ZN23ChiFeature2HWmultiframe12OnPortCreateEP21ChiFeature2Identifier+0x7dc>
   28fd0: 21 01 00 54  	b.ne	0x28ff4 <_ZN23ChiFeature2HWmultiframe12OnPortCreateEP21ChiFeature2Identifier+0x7dc>
   28fe0: a1 00 00 54  	b.ne	0x28ff4 <_ZN23ChiFeature2HWmultiframe12OnPortCreateEP21ChiFeature2Identifier+0x7dc>
   28ff0: e0 02 00 54  	b.eq	0x2904c <_ZN23ChiFeature2HWmultiframe12OnPortCreateEP21ChiFeature2Identifier+0x834>
   28ff4: 30 01 00 f0  	adrp	x16, 0x4f000 <_ZN23ChiFeature2HWmultiframe12OnPortCreateEP21ChiFeature2Identifier+0x878>
   29000: e1 09 00 54  	b.ne	0x2913c <_ZN23ChiFeature2HWmultiframe12OnPortCreateEP21ChiFeature2Identifier+0x924>
   29004: 20 01 00 d0  	adrp	x0, 0x4f000 <_ZN23ChiFeature2HWmultiframe12OnPortCreateEP21ChiFeature2Identifier+0x884>
   29018: 21 09 00 54  	b.ne	0x2913c <_ZN23ChiFeature2HWmultiframe12OnPortCreateEP21ChiFeature2Identifier+0x924>
   29028: a1 08 00 54  	b.ne	0x2913c <_ZN23ChiFeature2HWmultiframe12OnPortCreateEP21ChiFeature2Identifier+0x924>
   29038: 21 08 00 54  	b.ne	0x2913c <_ZN23ChiFeature2HWmultiframe12OnPortCreateEP21ChiFeature2Identifier+0x924>
   29048: a1 07 00 54  	b.ne	0x2913c <_ZN23ChiFeature2HWmultiframe12OnPortCreateEP21ChiFeature2Identifier+0x924>
   29058: a1 15 00 54  	b.ne	0x2930c <_ZN23ChiFeature2HWmultiframe12OnPortCreateEP21ChiFeature2Identifier+0xaf4>
   29060: 61 16 00 54  	b.ne	0x2932c <_ZN23ChiFeature2HWmultiframe12OnPortCreateEP21ChiFeature2Identifier+0xb14>
   2906c: e1 16 00 54  	b.ne	0x29348 <_ZN23ChiFeature2HWmultiframe12OnPortCreateEP21ChiFeature2Identifier+0xb30>
   29080: e2 05 00 54  	b.hs	0x2913c <_ZN23ChiFeature2HWmultiframe12OnPortCreateEP21ChiFeature2Identifier+0x924>
   29088: a8 05 00 b4  	cbz	x8, 0x2913c <_ZN23ChiFeature2HWmultiframe12OnPortCreateEP21ChiFeature2Identifier+0x924>
   2909c: 02 05 00 54  	b.hs	0x2913c <_ZN23ChiFeature2HWmultiframe12OnPortCreateEP21ChiFeature2Identifier+0x924>
   290a4: c8 04 00 b4  	cbz	x8, 0x2913c <_ZN23ChiFeature2HWmultiframe12OnPortCreateEP21ChiFeature2Identifier+0x924>
   290b4: a8 01 00 54  	b.hi	0x290e8 <_ZN23ChiFeature2HWmultiframe12OnPortCreateEP21ChiFeature2Identifier+0x8d0>
   290e0: a8 01 00 54  	b.hi	0x29114 <_ZN23ChiFeature2HWmultiframe12OnPortCreateEP21ChiFeature2Identifier+0x8fc>
   290e4: 16 00 00 14  	b	0x2913c <_ZN23ChiFeature2HWmultiframe12OnPortCreateEP21ChiFeature2Identifier+0x924>
   29110: 69 01 00 54  	b.ls	0x2913c <_ZN23ChiFeature2HWmultiframe12OnPortCreateEP21ChiFeature2Identifier+0x924>
   29118: 2c 01 00 b4  	cbz	x12, 0x2913c <_ZN23ChiFeature2HWmultiframe12OnPortCreateEP21ChiFeature2Identifier+0x924>
   29128: a4 00 00 b4  	cbz	x4, 0x2913c <_ZN23ChiFeature2HWmultiframe12OnPortCreateEP21ChiFeature2Identifier+0x924>
   29148: e1 08 00 54  	b.ne	0x29264 <_ZN23ChiFeature2HWmultiframe12OnPortCreateEP21ChiFeature2Identifier+0xa4c>
   29150: a1 09 00 54  	b.ne	0x29284 <_ZN23ChiFeature2HWmultiframe12OnPortCreateEP21ChiFeature2Identifier+0xa6c>
   2915c: 21 0a 00 54  	b.ne	0x292a0 <_ZN23ChiFeature2HWmultiframe12OnPortCreateEP21ChiFeature2Identifier+0xa88>
   29170: 02 06 00 54  	b.hs	0x29230 <_ZN23ChiFeature2HWmultiframe12OnPortCreateEP21ChiFeature2Identifier+0xa18>
   29178: d5 05 00 b4  	cbz	x21, 0x29230 <_ZN23ChiFeature2HWmultiframe12OnPortCreateEP21ChiFeature2Identifier+0xa18>
   2918c: 22 05 00 54  	b.hs	0x29230 <_ZN23ChiFeature2HWmultiframe12OnPortCreateEP21ChiFeature2Identifier+0xa18>
   29194: e9 04 00 b4  	cbz	x9, 0x29230 <_ZN23ChiFeature2HWmultiframe12OnPortCreateEP21ChiFeature2Identifier+0xa18>
   291a4: a8 01 00 54  	b.hi	0x291d8 <_ZN23ChiFeature2HWmultiframe12OnPortCreateEP21ChiFeature2Identifier+0x9c0>
   291d0: a8 01 00 54  	b.hi	0x29204 <_ZN23ChiFeature2HWmultiframe12OnPortCreateEP21ChiFeature2Identifier+0x9ec>
   291d4: 17 00 00 14  	b	0x29230 <_ZN23ChiFeature2HWmultiframe12OnPortCreateEP21ChiFeature2Identifier+0xa18>
   29200: 89 01 00 54  	b.ls	0x29230 <_ZN23ChiFeature2HWmultiframe12OnPortCreateEP21ChiFeature2Identifier+0xa18>
   29208: 4d 01 00 b4  	cbz	x13, 0x29230 <_ZN23ChiFeature2HWmultiframe12OnPortCreateEP21ChiFeature2Identifier+0xa18>
   2921c: a1 00 00 54  	b.ne	0x29230 <_ZN23ChiFeature2HWmultiframe12OnPortCreateEP21ChiFeature2Identifier+0xa18>
   29260: 7c fd ff 17  	b	0x28850 <_ZN23ChiFeature2HWmultiframe12OnPortCreateEP21ChiFeature2Identifier+0x38>
   29280: a0 f6 ff 54  	b.eq	0x29154 <_ZN23ChiFeature2HWmultiframe12OnPortCreateEP21ChiFeature2Identifier+0x93c>
   2929c: ae ff ff 17  	b	0x29154 <_ZN23ChiFeature2HWmultiframe12OnPortCreateEP21ChiFeature2Identifier+0x93c>
   292b4: ab ff ff 17  	b	0x29160 <_ZN23ChiFeature2HWmultiframe12OnPortCreateEP21ChiFeature2Identifier+0x948>
   292d4: 60 c3 ff 54  	b.eq	0x28b40 <_ZN23ChiFeature2HWmultiframe12OnPortCreateEP21ChiFeature2Identifier+0x328>
   292f0: 14 fe ff 17  	b	0x28b40 <_ZN23ChiFeature2HWmultiframe12OnPortCreateEP21ChiFeature2Identifier+0x328>
   29308: 11 fe ff 17  	b	0x28b4c <_ZN23ChiFeature2HWmultiframe12OnPortCreateEP21ChiFeature2Identifier+0x334>
   29328: e0 e9 ff 54  	b.eq	0x29064 <_ZN23ChiFeature2HWmultiframe12OnPortCreateEP21ChiFeature2Identifier+0x84c>
   29344: 48 ff ff 17  	b	0x29064 <_ZN23ChiFeature2HWmultiframe12OnPortCreateEP21ChiFeature2Identifier+0x84c>
   2935c: 45 ff ff 17  	b	0x29070 <_ZN23ChiFeature2HWmultiframe12OnPortCreateEP21ChiFeature2Identifier+0x858>
0000000000029360 <_ZN23ChiFeature2HWmultiframe18OnInitializeStreamEPK23ChiTargetPortDescriptorPK25ChiFeature2PortDescriptorPN15ChiFeature2Base20ChiFeatureStreamDataE>:
   29378: 28 01 00 90  	adrp	x8, 0x4d000 <_ZN23ChiFeature2HWmultiframe18OnInitializeStreamEPK23ChiTargetPortDescriptorPK25ChiFeature2PortDescriptorPN15ChiFeature2Base20ChiFeatureStreamDataE+0xa8>
   29394: e1 03 00 54  	b.ne	0x29410 <_ZN23ChiFeature2HWmultiframe18OnInitializeStreamEPK23ChiTargetPortDescriptorPK25ChiFeature2PortDescriptorPN15ChiFeature2Base20ChiFeatureStreamDataE+0xb0>
   293a8: 16 7c 00 94  	bl	0x48400 <_ZN15ChiFeature2Base18OnInitializeStreamEPK23ChiTargetPortDescriptorPK25ChiFeature2PortDescriptorPNS_20ChiFeatureStreamDataE@plt>
   293b0: 74 02 00 b4  	cbz	x20, 0x293fc <_ZN23ChiFeature2HWmultiframe18OnInitializeStreamEPK23ChiTargetPortDescriptorPK25ChiFeature2PortDescriptorPN15ChiFeature2Base20ChiFeatureStreamDataE+0x9c>
   293b4: 56 02 00 b4  	cbz	x22, 0x293fc <_ZN23ChiFeature2HWmultiframe18OnInitializeStreamEPK23ChiTargetPortDescriptorPK25ChiFeature2PortDescriptorPN15ChiFeature2Base20ChiFeatureStreamDataE+0x9c>
   293b8: 35 02 00 b4  	cbz	x21, 0x293fc <_ZN23ChiFeature2HWmultiframe18OnInitializeStreamEPK23ChiTargetPortDescriptorPK25ChiFeature2PortDescriptorPN15ChiFeature2Base20ChiFeatureStreamDataE+0x9c>
   293c0: f5 01 00 b4  	cbz	x21, 0x293fc <_ZN23ChiFeature2HWmultiframe18OnInitializeStreamEPK23ChiTargetPortDescriptorPK25ChiFeature2PortDescriptorPN15ChiFeature2Base20ChiFeatureStreamDataE+0x9c>
   293c8: 40 ff ff d0  	adrp	x0, 0x13000 <_ZN23ChiFeature2HWmultiframe18OnInitializeStreamEPK23ChiTargetPortDescriptorPK25ChiFeature2PortDescriptorPN15ChiFeature2Base20ChiFeatureStreamDataE+0x10>
   293d8: c0 00 00 34  	cbz	w0, 0x293f0 <_ZN23ChiFeature2HWmultiframe18OnInitializeStreamEPK23ChiTargetPortDescriptorPK25ChiFeature2PortDescriptorPN15ChiFeature2Base20ChiFeatureStreamDataE+0x90>
   293dc: 00 ff ff f0  	adrp	x0, 0xc000 <_ZN23ChiFeature2HWmultiframe18OnInitializeStreamEPK23ChiTargetPortDescriptorPK25ChiFeature2PortDescriptorPN15ChiFeature2Base20ChiFeatureStreamDataE+0x8>
   293ec: 80 00 00 35  	cbnz	w0, 0x293fc <_ZN23ChiFeature2HWmultiframe18OnInitializeStreamEPK23ChiTargetPortDescriptorPK25ChiFeature2PortDescriptorPN15ChiFeature2Base20ChiFeatureStreamDataE+0x9c>
   293f0: 6a ff ff 90  	adrp	x10, 0x15000 <_ZN23ChiFeature2HWmultiframe18OnInitializeStreamEPK23ChiTargetPortDescriptorPK25ChiFeature2PortDescriptorPN15ChiFeature2Base20ChiFeatureStreamDataE+0x40>
   29424: dd ff ff 17  	b	0x29398 <_ZN23ChiFeature2HWmultiframe18OnInitializeStreamEPK23ChiTargetPortDescriptorPK25ChiFeature2PortDescriptorPN15ChiFeature2Base20ChiFeatureStreamDataE+0x38>
0000000000029428 <_ZNK23ChiFeature2HWmultiframe31OnPopulateConfigurationSettingsEP24ChiFeature2RequestObjectPK21ChiFeature2IdentifierP11ChiMetadata>:
   29454: 3c 01 00 90  	adrp	x28, 0x4d000 <_ZNK23ChiFeature2HWmultiframe31OnPopulateConfigurationSettingsEP24ChiFeature2RequestObjectPK21ChiFeature2IdentifierP11ChiMetadata+0xbc>
   29484: 01 11 01 54  	b.ne	0x2b6a4 <_ZNK23ChiFeature2HWmultiframe31OnPopulateConfigurationSettingsEP24ChiFeature2RequestObjectPK21ChiFeature2IdentifierP11ChiMetadata+0x227c>
   29498: de 7b 00 94  	bl	0x48410 <_ZNK15ChiFeature2Base31OnPopulateConfigurationSettingsEP24ChiFeature2RequestObjectPK21ChiFeature2IdentifierP11ChiMetadata@plt>
   2949c: 33 01 00 90  	adrp	x19, 0x4d000 <_ZNK23ChiFeature2HWmultiframe31OnPopulateConfigurationSettingsEP24ChiFeature2RequestObjectPK21ChiFeature2IdentifierP11ChiMetadata+0x104>
   294a8: b4 0e 00 b4  	cbz	x20, 0x2967c <_ZNK23ChiFeature2HWmultiframe31OnPopulateConfigurationSettingsEP24ChiFeature2RequestObjectPK21ChiFeature2IdentifierP11ChiMetadata+0x254>
   294bc: 01 10 01 54  	b.ne	0x2b6bc <_ZNK23ChiFeature2HWmultiframe31OnPopulateConfigurationSettingsEP24ChiFeature2RequestObjectPK21ChiFeature2IdentifierP11ChiMetadata+0x2294>
   294cc: 39 7b 00 94  	bl	0x481b0 <_ZNK15ChiFeature2Base19GetCurrentStageInfoEP24ChiFeature2RequestObjectP20ChiFeature2StageInfo@plt>
   294d4: 6d 05 28 36  	tbz	w13, #5, 0x29580 <_ZNK23ChiFeature2HWmultiframe31OnPopulateConfigurationSettingsEP24ChiFeature2RequestObjectPK21ChiFeature2IdentifierP11ChiMetadata+0x158>
   294d8: 21 01 00 90  	adrp	x1, 0x4d000 <_ZNK23ChiFeature2HWmultiframe31OnPopulateConfigurationSettingsEP24ChiFeature2RequestObjectPK21ChiFeature2IdentifierP11ChiMetadata+0x140>
   294dc: 38 ff ff b0  	adrp	x24, 0xe000 <_ZNK23ChiFeature2HWmultiframe31OnPopulateConfigurationSettingsEP24ChiFeature2RequestObjectPK21ChiFeature2IdentifierP11ChiMetadata+0x48>
   294f0: 41 02 00 54  	b.ne	0x29538 <_ZNK23ChiFeature2HWmultiframe31OnPopulateConfigurationSettingsEP24ChiFeature2RequestObjectPK21ChiFeature2IdentifierP11ChiMetadata+0x110>
   29510: 41 ff ff f0  	adrp	x1, 0x14000 <_ZNK23ChiFeature2HWmultiframe31OnPopulateConfigurationSettingsEP24ChiFeature2RequestObjectPK21ChiFeature2IdentifierP11ChiMetadata+0x94>
   29514: 22 ff ff b0  	adrp	x2, 0xe000 <_ZNK23ChiFeature2HWmultiframe31OnPopulateConfigurationSettingsEP24ChiFeature2RequestObjectPK21ChiFeature2IdentifierP11ChiMetadata+0x80>
   29518: 45 ff ff 90  	adrp	x5, 0x11000 <_ZNK23ChiFeature2HWmultiframe31OnPopulateConfigurationSettingsEP24ChiFeature2RequestObjectPK21ChiFeature2IdentifierP11ChiMetadata+0x90>
   29558: 40 ff ff d0  	adrp	x0, 0x13000 <_ZNK23ChiFeature2HWmultiframe31OnPopulateConfigurationSettingsEP24ChiFeature2RequestObjectPK21ChiFeature2IdentifierP11ChiMetadata+0xd8>
   2955c: 41 ff ff 90  	adrp	x1, 0x11000 <_ZNK23ChiFeature2HWmultiframe31OnPopulateConfigurationSettingsEP24ChiFeature2RequestObjectPK21ChiFeature2IdentifierP11ChiMetadata+0xd4>
   29560: 43 ff ff 90  	adrp	x3, 0x11000 <_ZNK23ChiFeature2HWmultiframe31OnPopulateConfigurationSettingsEP24ChiFeature2RequestObjectPK21ChiFeature2IdentifierP11ChiMetadata+0xd8>
   29564: 45 ff ff 90  	adrp	x5, 0x11000 <_ZNK23ChiFeature2HWmultiframe31OnPopulateConfigurationSettingsEP24ChiFeature2RequestObjectPK21ChiFeature2IdentifierP11ChiMetadata+0xdc>
   2957c: c9 7a 00 94  	bl	0x480a0 <_ZN6ChiLog9LogSystemEPKcS1_S1_S1_iS1_z@plt>
   29594: 01 0a 01 54  	b.ne	0x2b6d4 <_ZNK23ChiFeature2HWmultiframe31OnPopulateConfigurationSettingsEP24ChiFeature2RequestObjectPK21ChiFeature2IdentifierP11ChiMetadata+0x22ac>
   295a0: 81 0a 01 54  	b.ne	0x2b6f0 <_ZNK23ChiFeature2HWmultiframe31OnPopulateConfigurationSettingsEP24ChiFeature2RequestObjectPK21ChiFeature2IdentifierP11ChiMetadata+0x22c8>
   295ac: c5 7a 00 94  	bl	0x480c0 <_ZNK15ChiFeature2Base21GetFeaturePrivContextEP24ChiFeature2RequestObject@plt>
   295b0: e0 05 00 b4  	cbz	x0, 0x2966c <_ZNK23ChiFeature2HWmultiframe31OnPopulateConfigurationSettingsEP24ChiFeature2RequestObjectPK21ChiFeature2IdentifierP11ChiMetadata+0x244>
   295bc: 82 05 00 54  	b.hs	0x2966c <_ZNK23ChiFeature2HWmultiframe31OnPopulateConfigurationSettingsEP24ChiFeature2RequestObjectPK21ChiFeature2IdentifierP11ChiMetadata+0x244>
   295dc: 4f 16 00 35  	cbnz	w15, 0x298a4 <_ZNK23ChiFeature2HWmultiframe31OnPopulateConfigurationSettingsEP24ChiFeature2RequestObjectPK21ChiFeature2IdentifierP11ChiMetadata+0x47c>
   29604: 41 ff ff d0  	adrp	x1, 0x13000 <_ZNK23ChiFeature2HWmultiframe31OnPopulateConfigurationSettingsEP24ChiFeature2RequestObjectPK21ChiFeature2IdentifierP11ChiMetadata+0x184>
   29608: 22 ff ff d0  	adrp	x2, 0xf000 <_ZNK23ChiFeature2HWmultiframe31OnPopulateConfigurationSettingsEP24ChiFeature2RequestObjectPK21ChiFeature2IdentifierP11ChiMetadata+0x178>
   29624: da 0e 00 b4  	cbz	x26, 0x297fc <_ZNK23ChiFeature2HWmultiframe31OnPopulateConfigurationSettingsEP24ChiFeature2RequestObjectPK21ChiFeature2IdentifierP11ChiMetadata+0x3d4>
   29648: 21 ff ff d0  	adrp	x1, 0xf000 <_ZNK23ChiFeature2HWmultiframe31OnPopulateConfigurationSettingsEP24ChiFeature2RequestObjectPK21ChiFeature2IdentifierP11ChiMetadata+0x1b8>
   2964c: 22 ff ff b0  	adrp	x2, 0xe000 <_ZNK23ChiFeature2HWmultiframe31OnPopulateConfigurationSettingsEP24ChiFeature2RequestObjectPK21ChiFeature2IdentifierP11ChiMetadata+0x1b8>
   29668: 8f 00 00 14  	b	0x298a4 <_ZNK23ChiFeature2HWmultiframe31OnPopulateConfigurationSettingsEP24ChiFeature2RequestObjectPK21ChiFeature2IdentifierP11ChiMetadata+0x47c>
   29670: ad 05 00 37  	tbnz	w13, #0, 0x29724 <_ZNK23ChiFeature2HWmultiframe31OnPopulateConfigurationSettingsEP24ChiFeature2RequestObjectPK21ChiFeature2IdentifierP11ChiMetadata+0x2fc>
   29678: 54 00 00 14  	b	0x297c8 <_ZNK23ChiFeature2HWmultiframe31OnPopulateConfigurationSettingsEP24ChiFeature2RequestObjectPK21ChiFeature2IdentifierP11ChiMetadata+0x3a0>
   29680: 4e 0a 00 36  	tbz	w14, #0, 0x297c8 <_ZNK23ChiFeature2HWmultiframe31OnPopulateConfigurationSettingsEP24ChiFeature2RequestObjectPK21ChiFeature2IdentifierP11ChiMetadata+0x3a0>
   29684: 27 01 00 90  	adrp	x7, 0x4d000 <_ZNK23ChiFeature2HWmultiframe31OnPopulateConfigurationSettingsEP24ChiFeature2RequestObjectPK21ChiFeature2IdentifierP11ChiMetadata+0x2ec>
   29694: 41 02 00 54  	b.ne	0x296dc <_ZNK23ChiFeature2HWmultiframe31OnPopulateConfigurationSettingsEP24ChiFeature2RequestObjectPK21ChiFeature2IdentifierP11ChiMetadata+0x2b4>
   29698: 3a ff ff b0  	adrp	x26, 0xe000 <_ZNK23ChiFeature2HWmultiframe31OnPopulateConfigurationSettingsEP24ChiFeature2RequestObjectPK21ChiFeature2IdentifierP11ChiMetadata+0x204>
   296b4: 41 ff ff f0  	adrp	x1, 0x14000 <_ZNK23ChiFeature2HWmultiframe31OnPopulateConfigurationSettingsEP24ChiFeature2RequestObjectPK21ChiFeature2IdentifierP11ChiMetadata+0x238>
   296b8: 42 ff ff d0  	adrp	x2, 0x13000 <_ZNK23ChiFeature2HWmultiframe31OnPopulateConfigurationSettingsEP24ChiFeature2RequestObjectPK21ChiFeature2IdentifierP11ChiMetadata+0x238>
   296bc: 45 ff ff 90  	adrp	x5, 0x11000 <_ZNK23ChiFeature2HWmultiframe31OnPopulateConfigurationSettingsEP24ChiFeature2RequestObjectPK21ChiFeature2IdentifierP11ChiMetadata+0x234>
   296dc: 38 ff ff b0  	adrp	x24, 0xe000 <_ZNK23ChiFeature2HWmultiframe31OnPopulateConfigurationSettingsEP24ChiFeature2RequestObjectPK21ChiFeature2IdentifierP11ChiMetadata+0x248>
   296f8: 41 ff ff d0  	adrp	x1, 0x13000 <_ZNK23ChiFeature2HWmultiframe31OnPopulateConfigurationSettingsEP24ChiFeature2RequestObjectPK21ChiFeature2IdentifierP11ChiMetadata+0x278>
   29700: 20 ff ff 90  	adrp	x0, 0xd000 <_ZNK23ChiFeature2HWmultiframe31OnPopulateConfigurationSettingsEP24ChiFeature2RequestObjectPK21ChiFeature2IdentifierP11ChiMetadata+0x268>
   29704: 43 ff ff 90  	adrp	x3, 0x11000 <_ZNK23ChiFeature2HWmultiframe31OnPopulateConfigurationSettingsEP24ChiFeature2RequestObjectPK21ChiFeature2IdentifierP11ChiMetadata+0x27c>
   29708: 45 ff ff b0  	adrp	x5, 0x12000 <_ZNK23ChiFeature2HWmultiframe31OnPopulateConfigurationSettingsEP24ChiFeature2RequestObjectPK21ChiFeature2IdentifierP11ChiMetadata+0x284>
   29720: 29 00 00 14  	b	0x297c4 <_ZNK23ChiFeature2HWmultiframe31OnPopulateConfigurationSettingsEP24ChiFeature2RequestObjectPK21ChiFeature2IdentifierP11ChiMetadata+0x39c>
   29724: 26 01 00 90  	adrp	x6, 0x4d000 <_ZNK23ChiFeature2HWmultiframe31OnPopulateConfigurationSettingsEP24ChiFeature2RequestObjectPK21ChiFeature2IdentifierP11ChiMetadata+0x38c>
   29738: 41 02 00 54  	b.ne	0x29780 <_ZNK23ChiFeature2HWmultiframe31OnPopulateConfigurationSettingsEP24ChiFeature2RequestObjectPK21ChiFeature2IdentifierP11ChiMetadata+0x358>
   2973c: 36 ff ff b0  	adrp	x22, 0xe000 <_ZNK23ChiFeature2HWmultiframe31OnPopulateConfigurationSettingsEP24ChiFeature2RequestObjectPK21ChiFeature2IdentifierP11ChiMetadata+0x2a8>
   29758: 41 ff ff f0  	adrp	x1, 0x14000 <_ZNK23ChiFeature2HWmultiframe31OnPopulateConfigurationSettingsEP24ChiFeature2RequestObjectPK21ChiFeature2IdentifierP11ChiMetadata+0x2dc>
   2975c: 42 ff ff b0  	adrp	x2, 0x12000 <_ZNK23ChiFeature2HWmultiframe31OnPopulateConfigurationSettingsEP24ChiFeature2RequestObjectPK21ChiFeature2IdentifierP11ChiMetadata+0x2d8>
   29760: 45 ff ff 90  	adrp	x5, 0x11000 <_ZNK23ChiFeature2HWmultiframe31OnPopulateConfigurationSettingsEP24ChiFeature2RequestObjectPK21ChiFeature2IdentifierP11ChiMetadata+0x2d8>
   29780: 33 ff ff b0  	adrp	x19, 0xe000 <_ZNK23ChiFeature2HWmultiframe31OnPopulateConfigurationSettingsEP24ChiFeature2RequestObjectPK21ChiFeature2IdentifierP11ChiMetadata+0x2ec>
   2979c: 41 ff ff d0  	adrp	x1, 0x13000 <_ZNK23ChiFeature2HWmultiframe31OnPopulateConfigurationSettingsEP24ChiFeature2RequestObjectPK21ChiFeature2IdentifierP11ChiMetadata+0x31c>
   297a4: 20 ff ff 90  	adrp	x0, 0xd000 <_ZNK23ChiFeature2HWmultiframe31OnPopulateConfigurationSettingsEP24ChiFeature2RequestObjectPK21ChiFeature2IdentifierP11ChiMetadata+0x30c>
   297a8: 43 ff ff 90  	adrp	x3, 0x11000 <_ZNK23ChiFeature2HWmultiframe31OnPopulateConfigurationSettingsEP24ChiFeature2RequestObjectPK21ChiFeature2IdentifierP11ChiMetadata+0x320>
   297ac: 05 ff ff f0  	adrp	x5, 0xc000 <_ZNK23ChiFeature2HWmultiframe31OnPopulateConfigurationSettingsEP24ChiFeature2RequestObjectPK21ChiFeature2IdentifierP11ChiMetadata+0x310>
   297c4: 37 7a 00 94  	bl	0x480a0 <_ZN6ChiLog9LogSystemEPKcS1_S1_S1_iS1_z@plt>
   297d4: 21 00 01 54  	b.ne	0x2b7d8 <_ZNK23ChiFeature2HWmultiframe31OnPopulateConfigurationSettingsEP24ChiFeature2RequestObjectPK21ChiFeature2IdentifierP11ChiMetadata+0x23b0>
   29800: 30 05 28 36  	tbz	w16, #5, 0x298a4 <_ZNK23ChiFeature2HWmultiframe31OnPopulateConfigurationSettingsEP24ChiFeature2RequestObjectPK21ChiFeature2IdentifierP11ChiMetadata+0x47c>
   29804: 23 01 00 90  	adrp	x3, 0x4d000 <_ZNK23ChiFeature2HWmultiframe31OnPopulateConfigurationSettingsEP24ChiFeature2RequestObjectPK21ChiFeature2IdentifierP11ChiMetadata+0x46c>
   29814: 41 02 00 54  	b.ne	0x2985c <_ZNK23ChiFeature2HWmultiframe31OnPopulateConfigurationSettingsEP24ChiFeature2RequestObjectPK21ChiFeature2IdentifierP11ChiMetadata+0x434>
   29818: 3a ff ff b0  	adrp	x26, 0xe000 <_ZNK23ChiFeature2HWmultiframe31OnPopulateConfigurationSettingsEP24ChiFeature2RequestObjectPK21ChiFeature2IdentifierP11ChiMetadata+0x384>
   29834: 41 ff ff f0  	adrp	x1, 0x14000 <_ZNK23ChiFeature2HWmultiframe31OnPopulateConfigurationSettingsEP24ChiFeature2RequestObjectPK21ChiFeature2IdentifierP11ChiMetadata+0x3b8>
   29838: 02 ff ff f0  	adrp	x2, 0xc000 <_ZNK23ChiFeature2HWmultiframe31OnPopulateConfigurationSettingsEP24ChiFeature2RequestObjectPK21ChiFeature2IdentifierP11ChiMetadata+0x39c>
   2983c: 45 ff ff 90  	adrp	x5, 0x11000 <_ZNK23ChiFeature2HWmultiframe31OnPopulateConfigurationSettingsEP24ChiFeature2RequestObjectPK21ChiFeature2IdentifierP11ChiMetadata+0x3b4>
   2985c: 3c ff ff b0  	adrp	x28, 0xe000 <_ZNK23ChiFeature2HWmultiframe31OnPopulateConfigurationSettingsEP24ChiFeature2RequestObjectPK21ChiFeature2IdentifierP11ChiMetadata+0x3c8>
   29878: 41 ff ff 90  	adrp	x1, 0x11000 <_ZNK23ChiFeature2HWmultiframe31OnPopulateConfigurationSettingsEP24ChiFeature2RequestObjectPK21ChiFeature2IdentifierP11ChiMetadata+0x3f0>
   29880: 40 ff ff d0  	adrp	x0, 0x13000 <_ZNK23ChiFeature2HWmultiframe31OnPopulateConfigurationSettingsEP24ChiFeature2RequestObjectPK21ChiFeature2IdentifierP11ChiMetadata+0x400>
   29884: 43 ff ff 90  	adrp	x3, 0x11000 <_ZNK23ChiFeature2HWmultiframe31OnPopulateConfigurationSettingsEP24ChiFeature2RequestObjectPK21ChiFeature2IdentifierP11ChiMetadata+0x3fc>
   29888: 25 ff ff 90  	adrp	x5, 0xd000 <_ZNK23ChiFeature2HWmultiframe31OnPopulateConfigurationSettingsEP24ChiFeature2RequestObjectPK21ChiFeature2IdentifierP11ChiMetadata+0x3f0>
   298a0: 00 7a 00 94  	bl	0x480a0 <_ZN6ChiLog9LogSystemEPKcS1_S1_S1_iS1_z@plt>
   298c4: f1 11 00 34  	cbz	w17, 0x29b00 <_ZNK23ChiFeature2HWmultiframe31OnPopulateConfigurationSettingsEP24ChiFeature2RequestObjectPK21ChiFeature2IdentifierP11ChiMetadata+0x6d8>
   298f8: 01 01 00 54  	b.ne	0x29918 <_ZNK23ChiFeature2HWmultiframe31OnPopulateConfigurationSettingsEP24ChiFeature2RequestObjectPK21ChiFeature2IdentifierP11ChiMetadata+0x4f0>
   298fc: 3b 01 00 90  	adrp	x27, 0x4d000 <_ZNK23ChiFeature2HWmultiframe31OnPopulateConfigurationSettingsEP24ChiFeature2RequestObjectPK21ChiFeature2IdentifierP11ChiMetadata+0x564>
   29908: e1 01 00 54  	b.ne	0x29944 <_ZNK23ChiFeature2HWmultiframe31OnPopulateConfigurationSettingsEP24ChiFeature2RequestObjectPK21ChiFeature2IdentifierP11ChiMetadata+0x51c>
   29910: a2 01 00 54  	b.hs	0x29944 <_ZNK23ChiFeature2HWmultiframe31OnPopulateConfigurationSettingsEP24ChiFeature2RequestObjectPK21ChiFeature2IdentifierP11ChiMetadata+0x51c>
   29914: b3 07 00 14  	b	0x2b7e0 <_ZNK23ChiFeature2HWmultiframe31OnPopulateConfigurationSettingsEP24ChiFeature2RequestObjectPK21ChiFeature2IdentifierP11ChiMetadata+0x23b8>
   29918: 3b 01 00 90  	adrp	x27, 0x4d000 <_ZNK23ChiFeature2HWmultiframe31OnPopulateConfigurationSettingsEP24ChiFeature2RequestObjectPK21ChiFeature2IdentifierP11ChiMetadata+0x580>
   29924: 01 01 00 54  	b.ne	0x29944 <_ZNK23ChiFeature2HWmultiframe31OnPopulateConfigurationSettingsEP24ChiFeature2RequestObjectPK21ChiFeature2IdentifierP11ChiMetadata+0x51c>
   29928: e9 00 00 35  	cbnz	w9, 0x29944 <_ZNK23ChiFeature2HWmultiframe31OnPopulateConfigurationSettingsEP24ChiFeature2RequestObjectPK21ChiFeature2IdentifierP11ChiMetadata+0x51c>
   29940: 48 01 00 14  	b	0x29e60 <_ZNK23ChiFeature2HWmultiframe31OnPopulateConfigurationSettingsEP24ChiFeature2RequestObjectPK21ChiFeature2IdentifierP11ChiMetadata+0xa38>
   2994c: 88 f4 00 54  	b.hi	0x2b7dc <_ZNK23ChiFeature2HWmultiframe31OnPopulateConfigurationSettingsEP24ChiFeature2RequestObjectPK21ChiFeature2IdentifierP11ChiMetadata+0x23b4>
   29970: 01 0e 00 b4  	cbz	x1, 0x29b30 <_ZNK23ChiFeature2HWmultiframe31OnPopulateConfigurationSettingsEP24ChiFeature2RequestObjectPK21ChiFeature2IdentifierP11ChiMetadata+0x708>
   2999c: 07 08 00 94  	bl	0x2b9b8 <_ZNK23ChiFeature2HWmultiframe27GetPrivateContextForRequestEP24ChiFeature2RequestObject+0x90>
   299ac: 01 1f 00 b4  	cbz	x1, 0x29d8c <_ZNK23ChiFeature2HWmultiframe31OnPopulateConfigurationSettingsEP24ChiFeature2RequestObjectPK21ChiFeature2IdentifierP11ChiMetadata+0x964>
   299bc: e1 ef 00 54  	b.ne	0x2b7b8 <_ZNK23ChiFeature2HWmultiframe31OnPopulateConfigurationSettingsEP24ChiFeature2RequestObjectPK21ChiFeature2IdentifierP11ChiMetadata+0x2390>
   299c4: 97 7a 00 94  	bl	0x48420 <_ZN18ChiMetadataManager21GetMetadataFromHandleEPv@plt>
   299c8: c0 23 00 b4  	cbz	x0, 0x29e40 <_ZNK23ChiFeature2HWmultiframe31OnPopulateConfigurationSettingsEP24ChiFeature2RequestObjectPK21ChiFeature2IdentifierP11ChiMetadata+0xa18>
   29a0c: a6 21 00 35  	cbnz	w6, 0x29e40 <_ZNK23ChiFeature2HWmultiframe31OnPopulateConfigurationSettingsEP24ChiFeature2RequestObjectPK21ChiFeature2IdentifierP11ChiMetadata+0xa18>
   29a1c: 33 21 00 b4  	cbz	x19, 0x29e40 <_ZNK23ChiFeature2HWmultiframe31OnPopulateConfigurationSettingsEP24ChiFeature2RequestObjectPK21ChiFeature2IdentifierP11ChiMetadata+0xa18>
   29a20: 20 01 00 90  	adrp	x0, 0x4d000 <_ZNK23ChiFeature2HWmultiframe31OnPopulateConfigurationSettingsEP24ChiFeature2RequestObjectPK21ChiFeature2IdentifierP11ChiMetadata+0x688>
   29a2c: 87 05 28 36  	tbz	w7, #5, 0x29adc <_ZNK23ChiFeature2HWmultiframe31OnPopulateConfigurationSettingsEP24ChiFeature2RequestObjectPK21ChiFeature2IdentifierP11ChiMetadata+0x6b4>
   29a30: 28 01 00 90  	adrp	x8, 0x4d000 <_ZNK23ChiFeature2HWmultiframe31OnPopulateConfigurationSettingsEP24ChiFeature2RequestObjectPK21ChiFeature2IdentifierP11ChiMetadata+0x698>
   29a48: 41 02 00 54  	b.ne	0x29a90 <_ZNK23ChiFeature2HWmultiframe31OnPopulateConfigurationSettingsEP24ChiFeature2RequestObjectPK21ChiFeature2IdentifierP11ChiMetadata+0x668>
   29a4c: 37 ff ff b0  	adrp	x23, 0xe000 <_ZNK23ChiFeature2HWmultiframe31OnPopulateConfigurationSettingsEP24ChiFeature2RequestObjectPK21ChiFeature2IdentifierP11ChiMetadata+0x5b8>
   29a68: 41 ff ff f0  	adrp	x1, 0x14000 <_ZNK23ChiFeature2HWmultiframe31OnPopulateConfigurationSettingsEP24ChiFeature2RequestObjectPK21ChiFeature2IdentifierP11ChiMetadata+0x5ec>
   29a6c: 42 ff ff 90  	adrp	x2, 0x11000 <_ZNK23ChiFeature2HWmultiframe31OnPopulateConfigurationSettingsEP24ChiFeature2RequestObjectPK21ChiFeature2IdentifierP11ChiMetadata+0x5e4>
   29a70: 45 ff ff 90  	adrp	x5, 0x11000 <_ZNK23ChiFeature2HWmultiframe31OnPopulateConfigurationSettingsEP24ChiFeature2RequestObjectPK21ChiFeature2IdentifierP11ChiMetadata+0x5e8>
   29a90: 37 ff ff b0  	adrp	x23, 0xe000 <_ZNK23ChiFeature2HWmultiframe31OnPopulateConfigurationSettingsEP24ChiFeature2RequestObjectPK21ChiFeature2IdentifierP11ChiMetadata+0x5fc>
   29aac: 41 ff ff 90  	adrp	x1, 0x11000 <_ZNK23ChiFeature2HWmultiframe31OnPopulateConfigurationSettingsEP24ChiFeature2RequestObjectPK21ChiFeature2IdentifierP11ChiMetadata+0x624>
   29ab4: 40 ff ff d0  	adrp	x0, 0x13000 <_ZNK23ChiFeature2HWmultiframe31OnPopulateConfigurationSettingsEP24ChiFeature2RequestObjectPK21ChiFeature2IdentifierP11ChiMetadata+0x634>
   29ab8: 43 ff ff 90  	adrp	x3, 0x11000 <_ZNK23ChiFeature2HWmultiframe31OnPopulateConfigurationSettingsEP24ChiFeature2RequestObjectPK21ChiFeature2IdentifierP11ChiMetadata+0x630>
   29abc: 45 ff ff f0  	adrp	x5, 0x14000 <_ZNK23ChiFeature2HWmultiframe31OnPopulateConfigurationSettingsEP24ChiFeature2RequestObjectPK21ChiFeature2IdentifierP11ChiMetadata+0x640>
   29ad4: 73 79 00 94  	bl	0x480a0 <_ZN6ChiLog9LogSystemEPKcS1_S1_S1_iS1_z@plt>
   29afc: d0 00 00 14  	b	0x29e3c <_ZNK23ChiFeature2HWmultiframe31OnPopulateConfigurationSettingsEP24ChiFeature2RequestObjectPK21ChiFeature2IdentifierP11ChiMetadata+0xa14>
   29b0c: a3 22 00 54  	b.lo	0x29f60 <_ZNK23ChiFeature2HWmultiframe31OnPopulateConfigurationSettingsEP24ChiFeature2RequestObjectPK21ChiFeature2IdentifierP11ChiMetadata+0xb38>
   29b14: 80 2a 00 54  	b.eq	0x2a064 <_ZNK23ChiFeature2HWmultiframe31OnPopulateConfigurationSettingsEP24ChiFeature2RequestObjectPK21ChiFeature2IdentifierP11ChiMetadata+0xc3c>
   29b18: 48 32 00 35  	cbnz	w8, 0x2a160 <_ZNK23ChiFeature2HWmultiframe31OnPopulateConfigurationSettingsEP24ChiFeature2RequestObjectPK21ChiFeature2IdentifierP11ChiMetadata+0xd38>
   29b20: 62 38 28 37  	tbnz	w2, #5, 0x2a22c <_ZNK23ChiFeature2HWmultiframe31OnPopulateConfigurationSettingsEP24ChiFeature2RequestObjectPK21ChiFeature2IdentifierP11ChiMetadata+0xe04>
   29b2c: 69 ff ff 17  	b	0x298d0 <_ZNK23ChiFeature2HWmultiframe31OnPopulateConfigurationSettingsEP24ChiFeature2RequestObjectPK21ChiFeature2IdentifierP11ChiMetadata+0x4a8>
   29b30: 2a 01 00 90  	adrp	x10, 0x4d000 <_ZNK23ChiFeature2HWmultiframe31OnPopulateConfigurationSettingsEP24ChiFeature2RequestObjectPK21ChiFeature2IdentifierP11ChiMetadata+0x798>
   29b40: 04 18 00 36  	tbz	w4, #0, 0x29e40 <_ZNK23ChiFeature2HWmultiframe31OnPopulateConfigurationSettingsEP24ChiFeature2RequestObjectPK21ChiFeature2IdentifierP11ChiMetadata+0xa18>
   29b44: 29 01 00 90  	adrp	x9, 0x4d000 <_ZNK23ChiFeature2HWmultiframe31OnPopulateConfigurationSettingsEP24ChiFeature2RequestObjectPK21ChiFeature2IdentifierP11ChiMetadata+0x7ac>
   29b64: 41 02 00 54  	b.ne	0x29bac <_ZNK23ChiFeature2HWmultiframe31OnPopulateConfigurationSettingsEP24ChiFeature2RequestObjectPK21ChiFeature2IdentifierP11ChiMetadata+0x784>
   29b68: 3c ff ff b0  	adrp	x28, 0xe000 <_ZNK23ChiFeature2HWmultiframe31OnPopulateConfigurationSettingsEP24ChiFeature2RequestObjectPK21ChiFeature2IdentifierP11ChiMetadata+0x6d4>
   29b84: 41 ff ff f0  	adrp	x1, 0x14000 <_ZNK23ChiFeature2HWmultiframe31OnPopulateConfigurationSettingsEP24ChiFeature2RequestObjectPK21ChiFeature2IdentifierP11ChiMetadata+0x708>
   29b88: 42 ff ff f0  	adrp	x2, 0x14000 <_ZNK23ChiFeature2HWmultiframe31OnPopulateConfigurationSettingsEP24ChiFeature2RequestObjectPK21ChiFeature2IdentifierP11ChiMetadata+0x70c>
   29b8c: 45 ff ff 90  	adrp	x5, 0x11000 <_ZNK23ChiFeature2HWmultiframe31OnPopulateConfigurationSettingsEP24ChiFeature2RequestObjectPK21ChiFeature2IdentifierP11ChiMetadata+0x704>
   29bac: 37 ff ff b0  	adrp	x23, 0xe000 <_ZNK23ChiFeature2HWmultiframe31OnPopulateConfigurationSettingsEP24ChiFeature2RequestObjectPK21ChiFeature2IdentifierP11ChiMetadata+0x718>
   29bc8: 41 ff ff d0  	adrp	x1, 0x13000 <_ZNK23ChiFeature2HWmultiframe31OnPopulateConfigurationSettingsEP24ChiFeature2RequestObjectPK21ChiFeature2IdentifierP11ChiMetadata+0x748>
   29bd0: 20 ff ff 90  	adrp	x0, 0xd000 <_ZNK23ChiFeature2HWmultiframe31OnPopulateConfigurationSettingsEP24ChiFeature2RequestObjectPK21ChiFeature2IdentifierP11ChiMetadata+0x738>
   29bd4: 43 ff ff 90  	adrp	x3, 0x11000 <_ZNK23ChiFeature2HWmultiframe31OnPopulateConfigurationSettingsEP24ChiFeature2RequestObjectPK21ChiFeature2IdentifierP11ChiMetadata+0x74c>
   29bd8: 45 ff ff b0  	adrp	x5, 0x12000 <_ZNK23ChiFeature2HWmultiframe31OnPopulateConfigurationSettingsEP24ChiFeature2RequestObjectPK21ChiFeature2IdentifierP11ChiMetadata+0x754>
   29bf0: 2c 79 00 94  	bl	0x480a0 <_ZN6ChiLog9LogSystemEPKcS1_S1_S1_iS1_z@plt>
   29bfc: e8 12 00 35  	cbnz	w8, 0x29e58 <_ZNK23ChiFeature2HWmultiframe31OnPopulateConfigurationSettingsEP24ChiFeature2RequestObjectPK21ChiFeature2IdentifierP11ChiMetadata+0xa30>
   29c00: 33 01 00 90  	adrp	x19, 0x4d000 <_ZNK23ChiFeature2HWmultiframe31OnPopulateConfigurationSettingsEP24ChiFeature2RequestObjectPK21ChiFeature2IdentifierP11ChiMetadata+0x868>
   29c08: 17 56 00 b4  	cbz	x23, 0x2a6c8 <_ZNK23ChiFeature2HWmultiframe31OnPopulateConfigurationSettingsEP24ChiFeature2RequestObjectPK21ChiFeature2IdentifierP11ChiMetadata+0x12a0>
   29c14: a0 55 00 54  	b.eq	0x2a6c8 <_ZNK23ChiFeature2HWmultiframe31OnPopulateConfigurationSettingsEP24ChiFeature2RequestObjectPK21ChiFeature2IdentifierP11ChiMetadata+0x12a0>
   29c3c: 41 ff ff 90  	adrp	x1, 0x11000 <_ZNK23ChiFeature2HWmultiframe31OnPopulateConfigurationSettingsEP24ChiFeature2RequestObjectPK21ChiFeature2IdentifierP11ChiMetadata+0x7b4>
   29c40: 22 ff ff b0  	adrp	x2, 0xe000 <_ZNK23ChiFeature2HWmultiframe31OnPopulateConfigurationSettingsEP24ChiFeature2RequestObjectPK21ChiFeature2IdentifierP11ChiMetadata+0x7ac>
   29c60: 9b 28 00 b4  	cbz	x27, 0x2a170 <_ZNK23ChiFeature2HWmultiframe31OnPopulateConfigurationSettingsEP24ChiFeature2RequestObjectPK21ChiFeature2IdentifierP11ChiMetadata+0xd48>
   29c64: 4b 05 18 36  	tbz	w11, #3, 0x29d0c <_ZNK23ChiFeature2HWmultiframe31OnPopulateConfigurationSettingsEP24ChiFeature2RequestObjectPK21ChiFeature2IdentifierP11ChiMetadata+0x8e4>
   29c68: 2b 01 00 90  	adrp	x11, 0x4d000 <_ZNK23ChiFeature2HWmultiframe31OnPopulateConfigurationSettingsEP24ChiFeature2RequestObjectPK21ChiFeature2IdentifierP11ChiMetadata+0x8d0>
   29c78: 61 02 00 54  	b.ne	0x29cc4 <_ZNK23ChiFeature2HWmultiframe31OnPopulateConfigurationSettingsEP24ChiFeature2RequestObjectPK21ChiFeature2IdentifierP11ChiMetadata+0x89c>
   29c7c: 37 ff ff b0  	adrp	x23, 0xe000 <_ZNK23ChiFeature2HWmultiframe31OnPopulateConfigurationSettingsEP24ChiFeature2RequestObjectPK21ChiFeature2IdentifierP11ChiMetadata+0x7e8>
   29c98: 41 ff ff f0  	adrp	x1, 0x14000 <_ZNK23ChiFeature2HWmultiframe31OnPopulateConfigurationSettingsEP24ChiFeature2RequestObjectPK21ChiFeature2IdentifierP11ChiMetadata+0x81c>
   29c9c: 42 ff ff d0  	adrp	x2, 0x13000 <_ZNK23ChiFeature2HWmultiframe31OnPopulateConfigurationSettingsEP24ChiFeature2RequestObjectPK21ChiFeature2IdentifierP11ChiMetadata+0x81c>
   29ca0: 45 ff ff 90  	adrp	x5, 0x11000 <_ZNK23ChiFeature2HWmultiframe31OnPopulateConfigurationSettingsEP24ChiFeature2RequestObjectPK21ChiFeature2IdentifierP11ChiMetadata+0x818>
   29cc4: 3c ff ff b0  	adrp	x28, 0xe000 <_ZNK23ChiFeature2HWmultiframe31OnPopulateConfigurationSettingsEP24ChiFeature2RequestObjectPK21ChiFeature2IdentifierP11ChiMetadata+0x830>
   29ce0: 21 ff ff f0  	adrp	x1, 0x10000 <_ZNK23ChiFeature2HWmultiframe31OnPopulateConfigurationSettingsEP24ChiFeature2RequestObjectPK21ChiFeature2IdentifierP11ChiMetadata+0x854>
   29ce8: 40 ff ff f0  	adrp	x0, 0x14000 <_ZNK23ChiFeature2HWmultiframe31OnPopulateConfigurationSettingsEP24ChiFeature2RequestObjectPK21ChiFeature2IdentifierP11ChiMetadata+0x86c>
   29cec: 43 ff ff 90  	adrp	x3, 0x11000 <_ZNK23ChiFeature2HWmultiframe31OnPopulateConfigurationSettingsEP24ChiFeature2RequestObjectPK21ChiFeature2IdentifierP11ChiMetadata+0x864>
   29cf0: 05 ff ff f0  	adrp	x5, 0xc000 <_ZNK23ChiFeature2HWmultiframe31OnPopulateConfigurationSettingsEP24ChiFeature2RequestObjectPK21ChiFeature2IdentifierP11ChiMetadata+0x854>
   29d08: e6 78 00 94  	bl	0x480a0 <_ZN6ChiLog9LogSystemEPKcS1_S1_S1_iS1_z@plt>
   29d78: c8 30 18 37  	tbnz	w8, #3, 0x2a390 <_ZNK23ChiFeature2HWmultiframe31OnPopulateConfigurationSettingsEP24ChiFeature2RequestObjectPK21ChiFeature2IdentifierP11ChiMetadata+0xf68>
   29d7c: 08 37 18 37  	tbnz	w8, #3, 0x2a45c <_ZNK23ChiFeature2HWmultiframe31OnPopulateConfigurationSettingsEP24ChiFeature2RequestObjectPK21ChiFeature2IdentifierP11ChiMetadata+0x1034>
   29d80: 48 3d 18 37  	tbnz	w8, #3, 0x2a528 <_ZNK23ChiFeature2HWmultiframe31OnPopulateConfigurationSettingsEP24ChiFeature2RequestObjectPK21ChiFeature2IdentifierP11ChiMetadata+0x1100>
   29d84: 88 43 18 37  	tbnz	w8, #3, 0x2a5f4 <_ZNK23ChiFeature2HWmultiframe31OnPopulateConfigurationSettingsEP24ChiFeature2RequestObjectPK21ChiFeature2IdentifierP11ChiMetadata+0x11cc>
   29d88: 4c 02 00 14  	b	0x2a6b8 <_ZNK23ChiFeature2HWmultiframe31OnPopulateConfigurationSettingsEP24ChiFeature2RequestObjectPK21ChiFeature2IdentifierP11ChiMetadata+0x1290>
   29d8c: 29 01 00 90  	adrp	x9, 0x4d000 <_ZNK23ChiFeature2HWmultiframe31OnPopulateConfigurationSettingsEP24ChiFeature2RequestObjectPK21ChiFeature2IdentifierP11ChiMetadata+0x9f4>
   29d98: 41 05 00 36  	tbz	w1, #0, 0x29e40 <_ZNK23ChiFeature2HWmultiframe31OnPopulateConfigurationSettingsEP24ChiFeature2RequestObjectPK21ChiFeature2IdentifierP11ChiMetadata+0xa18>
   29d9c: 3b 01 00 90  	adrp	x27, 0x4d000 <_ZNK23ChiFeature2HWmultiframe31OnPopulateConfigurationSettingsEP24ChiFeature2RequestObjectPK21ChiFeature2IdentifierP11ChiMetadata+0xa04>
   29dac: 41 02 00 54  	b.ne	0x29df4 <_ZNK23ChiFeature2HWmultiframe31OnPopulateConfigurationSettingsEP24ChiFeature2RequestObjectPK21ChiFeature2IdentifierP11ChiMetadata+0x9cc>
   29db0: 3c ff ff b0  	adrp	x28, 0xe000 <_ZNK23ChiFeature2HWmultiframe31OnPopulateConfigurationSettingsEP24ChiFeature2RequestObjectPK21ChiFeature2IdentifierP11ChiMetadata+0x91c>
   29dcc: 41 ff ff f0  	adrp	x1, 0x14000 <_ZNK23ChiFeature2HWmultiframe31OnPopulateConfigurationSettingsEP24ChiFeature2RequestObjectPK21ChiFeature2IdentifierP11ChiMetadata+0x950>
   29dd0: 22 ff ff b0  	adrp	x2, 0xe000 <_ZNK23ChiFeature2HWmultiframe31OnPopulateConfigurationSettingsEP24ChiFeature2RequestObjectPK21ChiFeature2IdentifierP11ChiMetadata+0x93c>
   29dd4: 45 ff ff 90  	adrp	x5, 0x11000 <_ZNK23ChiFeature2HWmultiframe31OnPopulateConfigurationSettingsEP24ChiFeature2RequestObjectPK21ChiFeature2IdentifierP11ChiMetadata+0x94c>
   29df4: 37 ff ff b0  	adrp	x23, 0xe000 <_ZNK23ChiFeature2HWmultiframe31OnPopulateConfigurationSettingsEP24ChiFeature2RequestObjectPK21ChiFeature2IdentifierP11ChiMetadata+0x960>
   29e10: 41 ff ff d0  	adrp	x1, 0x13000 <_ZNK23ChiFeature2HWmultiframe31OnPopulateConfigurationSettingsEP24ChiFeature2RequestObjectPK21ChiFeature2IdentifierP11ChiMetadata+0x990>
   29e18: 20 ff ff 90  	adrp	x0, 0xd000 <_ZNK23ChiFeature2HWmultiframe31OnPopulateConfigurationSettingsEP24ChiFeature2RequestObjectPK21ChiFeature2IdentifierP11ChiMetadata+0x980>
   29e1c: 43 ff ff 90  	adrp	x3, 0x11000 <_ZNK23ChiFeature2HWmultiframe31OnPopulateConfigurationSettingsEP24ChiFeature2RequestObjectPK21ChiFeature2IdentifierP11ChiMetadata+0x994>
   29e20: 25 ff ff d0  	adrp	x5, 0xf000 <_ZNK23ChiFeature2HWmultiframe31OnPopulateConfigurationSettingsEP24ChiFeature2RequestObjectPK21ChiFeature2IdentifierP11ChiMetadata+0x990>
   29e38: 9a 78 00 94  	bl	0x480a0 <_ZN6ChiLog9LogSystemEPKcS1_S1_S1_iS1_z@plt>
   29e54: 68 ed ff 34  	cbz	w8, 0x29c00 <_ZNK23ChiFeature2HWmultiframe31OnPopulateConfigurationSettingsEP24ChiFeature2RequestObjectPK21ChiFeature2IdentifierP11ChiMetadata+0x7d8>
   29e58: 33 01 00 90  	adrp	x19, 0x4d000 <_ZNK23ChiFeature2HWmultiframe31OnPopulateConfigurationSettingsEP24ChiFeature2RequestObjectPK21ChiFeature2IdentifierP11ChiMetadata+0xac0>
   29e84: 41 ff ff d0  	adrp	x1, 0x13000 <_ZNK23ChiFeature2HWmultiframe31OnPopulateConfigurationSettingsEP24ChiFeature2RequestObjectPK21ChiFeature2IdentifierP11ChiMetadata+0xa04>
   29e88: 22 ff ff b0  	adrp	x2, 0xe000 <_ZNK23ChiFeature2HWmultiframe31OnPopulateConfigurationSettingsEP24ChiFeature2RequestObjectPK21ChiFeature2IdentifierP11ChiMetadata+0x9f4>
   29ea4: 60 00 00 34  	cbz	w0, 0x29eb0 <_ZNK23ChiFeature2HWmultiframe31OnPopulateConfigurationSettingsEP24ChiFeature2RequestObjectPK21ChiFeature2IdentifierP11ChiMetadata+0xa88>
   29eac: 69 00 00 37  	tbnz	w9, #0, 0x29eb8 <_ZNK23ChiFeature2HWmultiframe31OnPopulateConfigurationSettingsEP24ChiFeature2RequestObjectPK21ChiFeature2IdentifierP11ChiMetadata+0xa90>
   29eb4: 05 02 00 14  	b	0x2a6c8 <_ZNK23ChiFeature2HWmultiframe31OnPopulateConfigurationSettingsEP24ChiFeature2RequestObjectPK21ChiFeature2IdentifierP11ChiMetadata+0x12a0>
   29eb8: 2a 01 00 90  	adrp	x10, 0x4d000 <_ZNK23ChiFeature2HWmultiframe31OnPopulateConfigurationSettingsEP24ChiFeature2RequestObjectPK21ChiFeature2IdentifierP11ChiMetadata+0xb20>
   29ec8: 41 02 00 54  	b.ne	0x29f10 <_ZNK23ChiFeature2HWmultiframe31OnPopulateConfigurationSettingsEP24ChiFeature2RequestObjectPK21ChiFeature2IdentifierP11ChiMetadata+0xae8>
   29ecc: 3c ff ff b0  	adrp	x28, 0xe000 <_ZNK23ChiFeature2HWmultiframe31OnPopulateConfigurationSettingsEP24ChiFeature2RequestObjectPK21ChiFeature2IdentifierP11ChiMetadata+0xa38>
   29ee8: 41 ff ff f0  	adrp	x1, 0x14000 <_ZNK23ChiFeature2HWmultiframe31OnPopulateConfigurationSettingsEP24ChiFeature2RequestObjectPK21ChiFeature2IdentifierP11ChiMetadata+0xa6c>
   29eec: 42 ff ff f0  	adrp	x2, 0x14000 <_ZNK23ChiFeature2HWmultiframe31OnPopulateConfigurationSettingsEP24ChiFeature2RequestObjectPK21ChiFeature2IdentifierP11ChiMetadata+0xa70>
   29ef0: 45 ff ff 90  	adrp	x5, 0x11000 <_ZNK23ChiFeature2HWmultiframe31OnPopulateConfigurationSettingsEP24ChiFeature2RequestObjectPK21ChiFeature2IdentifierP11ChiMetadata+0xa68>
   29f10: 37 ff ff b0  	adrp	x23, 0xe000 <_ZNK23ChiFeature2HWmultiframe31OnPopulateConfigurationSettingsEP24ChiFeature2RequestObjectPK21ChiFeature2IdentifierP11ChiMetadata+0xa7c>
   29f2c: 41 ff ff d0  	adrp	x1, 0x13000 <_ZNK23ChiFeature2HWmultiframe31OnPopulateConfigurationSettingsEP24ChiFeature2RequestObjectPK21ChiFeature2IdentifierP11ChiMetadata+0xaac>
   29f34: 20 ff ff 90  	adrp	x0, 0xd000 <_ZNK23ChiFeature2HWmultiframe31OnPopulateConfigurationSettingsEP24ChiFeature2RequestObjectPK21ChiFeature2IdentifierP11ChiMetadata+0xa9c>
   29f38: 43 ff ff 90  	adrp	x3, 0x11000 <_ZNK23ChiFeature2HWmultiframe31OnPopulateConfigurationSettingsEP24ChiFeature2RequestObjectPK21ChiFeature2IdentifierP11ChiMetadata+0xab0>
   29f3c: 45 ff ff 90  	adrp	x5, 0x11000 <_ZNK23ChiFeature2HWmultiframe31OnPopulateConfigurationSettingsEP24ChiFeature2RequestObjectPK21ChiFeature2IdentifierP11ChiMetadata+0xab4>
   29f54: 53 78 00 94  	bl	0x480a0 <_ZN6ChiLog9LogSystemEPKcS1_S1_S1_iS1_z@plt>
   29f5c: db 01 00 14  	b	0x2a6c8 <_ZNK23ChiFeature2HWmultiframe31OnPopulateConfigurationSettingsEP24ChiFeature2RequestObjectPK21ChiFeature2IdentifierP11ChiMetadata+0x12a0>
   29f6c: fb ca ff b4  	cbz	x27, 0x298c8 <_ZNK23ChiFeature2HWmultiframe31OnPopulateConfigurationSettingsEP24ChiFeature2RequestObjectPK21ChiFeature2IdentifierP11ChiMetadata+0x4a0>
   29f74: d3 05 28 36  	tbz	w19, #5, 0x2a02c <_ZNK23ChiFeature2HWmultiframe31OnPopulateConfigurationSettingsEP24ChiFeature2RequestObjectPK21ChiFeature2IdentifierP11ChiMetadata+0xc04>
   29f78: 26 01 00 90  	adrp	x6, 0x4d000 <_ZNK23ChiFeature2HWmultiframe31OnPopulateConfigurationSettingsEP24ChiFeature2RequestObjectPK21ChiFeature2IdentifierP11ChiMetadata+0xbe0>
   29f94: 41 02 00 54  	b.ne	0x29fdc <_ZNK23ChiFeature2HWmultiframe31OnPopulateConfigurationSettingsEP24ChiFeature2RequestObjectPK21ChiFeature2IdentifierP11ChiMetadata+0xbb4>
   29f98: 3c ff ff b0  	adrp	x28, 0xe000 <_ZNK23ChiFeature2HWmultiframe31OnPopulateConfigurationSettingsEP24ChiFeature2RequestObjectPK21ChiFeature2IdentifierP11ChiMetadata+0xb04>
   29fb4: 41 ff ff f0  	adrp	x1, 0x14000 <_ZNK23ChiFeature2HWmultiframe31OnPopulateConfigurationSettingsEP24ChiFeature2RequestObjectPK21ChiFeature2IdentifierP11ChiMetadata+0xb38>
   29fb8: 22 ff ff 90  	adrp	x2, 0xd000 <_ZNK23ChiFeature2HWmultiframe31OnPopulateConfigurationSettingsEP24ChiFeature2RequestObjectPK21ChiFeature2IdentifierP11ChiMetadata+0xb20>
   29fbc: 45 ff ff 90  	adrp	x5, 0x11000 <_ZNK23ChiFeature2HWmultiframe31OnPopulateConfigurationSettingsEP24ChiFeature2RequestObjectPK21ChiFeature2IdentifierP11ChiMetadata+0xb34>
   29fdc: 3a ff ff b0  	adrp	x26, 0xe000 <_ZNK23ChiFeature2HWmultiframe31OnPopulateConfigurationSettingsEP24ChiFeature2RequestObjectPK21ChiFeature2IdentifierP11ChiMetadata+0xb48>
   29ff8: 41 ff ff 90  	adrp	x1, 0x11000 <_ZNK23ChiFeature2HWmultiframe31OnPopulateConfigurationSettingsEP24ChiFeature2RequestObjectPK21ChiFeature2IdentifierP11ChiMetadata+0xb70>
   2a000: 40 ff ff b0  	adrp	x0, 0x13000 <_ZNK23ChiFeature2HWmultiframe31OnPopulateConfigurationSettingsEP24ChiFeature2RequestObjectPK21ChiFeature2IdentifierP11ChiMetadata+0xb7c>
   2a004: 23 ff ff f0  	adrp	x3, 0x11000 <_ZNK23ChiFeature2HWmultiframe31OnPopulateConfigurationSettingsEP24ChiFeature2RequestObjectPK21ChiFeature2IdentifierP11ChiMetadata+0xb78>
   2a008: 45 ff ff 90  	adrp	x5, 0x12000 <_ZNK23ChiFeature2HWmultiframe31OnPopulateConfigurationSettingsEP24ChiFeature2RequestObjectPK21ChiFeature2IdentifierP11ChiMetadata+0xb80>
   2a020: 20 78 00 94  	bl	0x480a0 <_ZN6ChiLog9LogSystemEPKcS1_S1_S1_iS1_z@plt>
   2a058: 13 01 00 f0  	adrp	x19, 0x4d000 <_ZNK23ChiFeature2HWmultiframe31OnPopulateConfigurationSettingsEP24ChiFeature2RequestObjectPK21ChiFeature2IdentifierP11ChiMetadata+0xcbc>
   2a060: 1a fe ff 17  	b	0x298c8 <_ZNK23ChiFeature2HWmultiframe31OnPopulateConfigurationSettingsEP24ChiFeature2RequestObjectPK21ChiFeature2IdentifierP11ChiMetadata+0x4a0>
   2a070: 3b 9a 00 b4  	cbz	x27, 0x2b3b4 <_ZNK23ChiFeature2HWmultiframe31OnPopulateConfigurationSettingsEP24ChiFeature2RequestObjectPK21ChiFeature2IdentifierP11ChiMetadata+0x1f8c>
   2a07c: 85 05 28 36  	tbz	w5, #5, 0x2a12c <_ZNK23ChiFeature2HWmultiframe31OnPopulateConfigurationSettingsEP24ChiFeature2RequestObjectPK21ChiFeature2IdentifierP11ChiMetadata+0xd04>
   2a080: 05 01 00 f0  	adrp	x5, 0x4d000 <_ZNK23ChiFeature2HWmultiframe31OnPopulateConfigurationSettingsEP24ChiFeature2RequestObjectPK21ChiFeature2IdentifierP11ChiMetadata+0xce4>
   2a098: 41 02 00 54  	b.ne	0x2a0e0 <_ZNK23ChiFeature2HWmultiframe31OnPopulateConfigurationSettingsEP24ChiFeature2RequestObjectPK21ChiFeature2IdentifierP11ChiMetadata+0xcb8>
   2a09c: 3a ff ff 90  	adrp	x26, 0xe000 <_ZNK23ChiFeature2HWmultiframe31OnPopulateConfigurationSettingsEP24ChiFeature2RequestObjectPK21ChiFeature2IdentifierP11ChiMetadata+0xc04>
   2a0b8: 41 ff ff d0  	adrp	x1, 0x14000 <_ZNK23ChiFeature2HWmultiframe31OnPopulateConfigurationSettingsEP24ChiFeature2RequestObjectPK21ChiFeature2IdentifierP11ChiMetadata+0xc38>
   2a0bc: 02 ff ff f0  	adrp	x2, 0xd000 <_ZNK23ChiFeature2HWmultiframe31OnPopulateConfigurationSettingsEP24ChiFeature2RequestObjectPK21ChiFeature2IdentifierP11ChiMetadata+0xc20>
   2a0c0: 25 ff ff f0  	adrp	x5, 0x11000 <_ZNK23ChiFeature2HWmultiframe31OnPopulateConfigurationSettingsEP24ChiFeature2RequestObjectPK21ChiFeature2IdentifierP11ChiMetadata+0xc34>
   2a0e0: 3c ff ff 90  	adrp	x28, 0xe000 <_ZNK23ChiFeature2HWmultiframe31OnPopulateConfigurationSettingsEP24ChiFeature2RequestObjectPK21ChiFeature2IdentifierP11ChiMetadata+0xc48>
   2a0fc: 21 ff ff f0  	adrp	x1, 0x11000 <_ZNK23ChiFeature2HWmultiframe31OnPopulateConfigurationSettingsEP24ChiFeature2RequestObjectPK21ChiFeature2IdentifierP11ChiMetadata+0xc70>
   2a104: 40 ff ff b0  	adrp	x0, 0x13000 <_ZNK23ChiFeature2HWmultiframe31OnPopulateConfigurationSettingsEP24ChiFeature2RequestObjectPK21ChiFeature2IdentifierP11ChiMetadata+0xc80>
   2a108: 23 ff ff f0  	adrp	x3, 0x11000 <_ZNK23ChiFeature2HWmultiframe31OnPopulateConfigurationSettingsEP24ChiFeature2RequestObjectPK21ChiFeature2IdentifierP11ChiMetadata+0xc7c>
   2a10c: 45 ff ff 90  	adrp	x5, 0x12000 <_ZNK23ChiFeature2HWmultiframe31OnPopulateConfigurationSettingsEP24ChiFeature2RequestObjectPK21ChiFeature2IdentifierP11ChiMetadata+0xc84>
   2a124: df 77 00 94  	bl	0x480a0 <_ZN6ChiLog9LogSystemEPKcS1_S1_S1_iS1_z@plt>
   2a15c: db fd ff 17  	b	0x298c8 <_ZNK23ChiFeature2HWmultiframe31OnPopulateConfigurationSettingsEP24ChiFeature2RequestObjectPK21ChiFeature2IdentifierP11ChiMetadata+0x4a0>
   2a164: d7 0b 00 37  	tbnz	w23, #0, 0x2a2dc <_ZNK23ChiFeature2HWmultiframe31OnPopulateConfigurationSettingsEP24ChiFeature2RequestObjectPK21ChiFeature2IdentifierP11ChiMetadata+0xeb4>
   2a16c: d9 fd ff 17  	b	0x298d0 <_ZNK23ChiFeature2HWmultiframe31OnPopulateConfigurationSettingsEP24ChiFeature2RequestObjectPK21ChiFeature2IdentifierP11ChiMetadata+0x4a8>
   2a180: 4b 2a 00 36  	tbz	w11, #0, 0x2a6c8 <_ZNK23ChiFeature2HWmultiframe31OnPopulateConfigurationSettingsEP24ChiFeature2RequestObjectPK21ChiFeature2IdentifierP11ChiMetadata+0x12a0>
   2a184: 11 01 00 f0  	adrp	x17, 0x4d000 <_ZNK23ChiFeature2HWmultiframe31OnPopulateConfigurationSettingsEP24ChiFeature2RequestObjectPK21ChiFeature2IdentifierP11ChiMetadata+0xde8>
   2a194: 61 02 00 54  	b.ne	0x2a1e0 <_ZNK23ChiFeature2HWmultiframe31OnPopulateConfigurationSettingsEP24ChiFeature2RequestObjectPK21ChiFeature2IdentifierP11ChiMetadata+0xdb8>
   2a198: 37 ff ff 90  	adrp	x23, 0xe000 <_ZNK23ChiFeature2HWmultiframe31OnPopulateConfigurationSettingsEP24ChiFeature2RequestObjectPK21ChiFeature2IdentifierP11ChiMetadata+0xd00>
   2a1b4: 41 ff ff d0  	adrp	x1, 0x14000 <_ZNK23ChiFeature2HWmultiframe31OnPopulateConfigurationSettingsEP24ChiFeature2RequestObjectPK21ChiFeature2IdentifierP11ChiMetadata+0xd34>
   2a1b8: 22 ff ff b0  	adrp	x2, 0xf000 <_ZNK23ChiFeature2HWmultiframe31OnPopulateConfigurationSettingsEP24ChiFeature2RequestObjectPK21ChiFeature2IdentifierP11ChiMetadata+0xd24>
   2a1bc: 25 ff ff f0  	adrp	x5, 0x11000 <_ZNK23ChiFeature2HWmultiframe31OnPopulateConfigurationSettingsEP24ChiFeature2RequestObjectPK21ChiFeature2IdentifierP11ChiMetadata+0xd30>
   2a1e0: 3c ff ff 90  	adrp	x28, 0xe000 <_ZNK23ChiFeature2HWmultiframe31OnPopulateConfigurationSettingsEP24ChiFeature2RequestObjectPK21ChiFeature2IdentifierP11ChiMetadata+0xd48>
   2a1fc: 41 ff ff b0  	adrp	x1, 0x13000 <_ZNK23ChiFeature2HWmultiframe31OnPopulateConfigurationSettingsEP24ChiFeature2RequestObjectPK21ChiFeature2IdentifierP11ChiMetadata+0xd78>
   2a204: 00 ff ff f0  	adrp	x0, 0xd000 <_ZNK23ChiFeature2HWmultiframe31OnPopulateConfigurationSettingsEP24ChiFeature2RequestObjectPK21ChiFeature2IdentifierP11ChiMetadata+0xd68>
   2a208: 23 ff ff f0  	adrp	x3, 0x11000 <_ZNK23ChiFeature2HWmultiframe31OnPopulateConfigurationSettingsEP24ChiFeature2RequestObjectPK21ChiFeature2IdentifierP11ChiMetadata+0xd7c>
   2a20c: 45 ff ff d0  	adrp	x5, 0x14000 <_ZNK23ChiFeature2HWmultiframe31OnPopulateConfigurationSettingsEP24ChiFeature2RequestObjectPK21ChiFeature2IdentifierP11ChiMetadata+0xd8c>
   2a224: 9f 77 00 94  	bl	0x480a0 <_ZN6ChiLog9LogSystemEPKcS1_S1_S1_iS1_z@plt>
   2a228: 28 01 00 14  	b	0x2a6c8 <_ZNK23ChiFeature2HWmultiframe31OnPopulateConfigurationSettingsEP24ChiFeature2RequestObjectPK21ChiFeature2IdentifierP11ChiMetadata+0x12a0>
   2a22c: 04 01 00 f0  	adrp	x4, 0x4d000 <_ZNK23ChiFeature2HWmultiframe31OnPopulateConfigurationSettingsEP24ChiFeature2RequestObjectPK21ChiFeature2IdentifierP11ChiMetadata+0xe90>
   2a23c: a1 02 00 54  	b.ne	0x2a290 <_ZNK23ChiFeature2HWmultiframe31OnPopulateConfigurationSettingsEP24ChiFeature2RequestObjectPK21ChiFeature2IdentifierP11ChiMetadata+0xe68>
   2a244: 3a ff ff 90  	adrp	x26, 0xe000 <_ZNK23ChiFeature2HWmultiframe31OnPopulateConfigurationSettingsEP24ChiFeature2RequestObjectPK21ChiFeature2IdentifierP11ChiMetadata+0xdac>
   2a264: 41 ff ff d0  	adrp	x1, 0x14000 <_ZNK23ChiFeature2HWmultiframe31OnPopulateConfigurationSettingsEP24ChiFeature2RequestObjectPK21ChiFeature2IdentifierP11ChiMetadata+0xde4>
   2a268: 02 ff ff d0  	adrp	x2, 0xc000 <_ZNK23ChiFeature2HWmultiframe31OnPopulateConfigurationSettingsEP24ChiFeature2RequestObjectPK21ChiFeature2IdentifierP11ChiMetadata+0xdc8>
   2a26c: 25 ff ff f0  	adrp	x5, 0x11000 <_ZNK23ChiFeature2HWmultiframe31OnPopulateConfigurationSettingsEP24ChiFeature2RequestObjectPK21ChiFeature2IdentifierP11ChiMetadata+0xde0>
   2a290: 3c ff ff 90  	adrp	x28, 0xe000 <_ZNK23ChiFeature2HWmultiframe31OnPopulateConfigurationSettingsEP24ChiFeature2RequestObjectPK21ChiFeature2IdentifierP11ChiMetadata+0xdf8>
   2a2b4: 40 ff ff b0  	adrp	x0, 0x13000 <_ZNK23ChiFeature2HWmultiframe31OnPopulateConfigurationSettingsEP24ChiFeature2RequestObjectPK21ChiFeature2IdentifierP11ChiMetadata+0xe30>
   2a2b8: 21 ff ff f0  	adrp	x1, 0x11000 <_ZNK23ChiFeature2HWmultiframe31OnPopulateConfigurationSettingsEP24ChiFeature2RequestObjectPK21ChiFeature2IdentifierP11ChiMetadata+0xe2c>
   2a2bc: 23 ff ff f0  	adrp	x3, 0x11000 <_ZNK23ChiFeature2HWmultiframe31OnPopulateConfigurationSettingsEP24ChiFeature2RequestObjectPK21ChiFeature2IdentifierP11ChiMetadata+0xe30>
   2a2c0: 45 ff ff b0  	adrp	x5, 0x13000 <_ZNK23ChiFeature2HWmultiframe31OnPopulateConfigurationSettingsEP24ChiFeature2RequestObjectPK21ChiFeature2IdentifierP11ChiMetadata+0xe3c>
   2a2d8: 2c 00 00 14  	b	0x2a388 <_ZNK23ChiFeature2HWmultiframe31OnPopulateConfigurationSettingsEP24ChiFeature2RequestObjectPK21ChiFeature2IdentifierP11ChiMetadata+0xf60>
   2a2dc: 07 01 00 f0  	adrp	x7, 0x4d000 <_ZNK23ChiFeature2HWmultiframe31OnPopulateConfigurationSettingsEP24ChiFeature2RequestObjectPK21ChiFeature2IdentifierP11ChiMetadata+0xf40>
   2a2ec: a1 02 00 54  	b.ne	0x2a340 <_ZNK23ChiFeature2HWmultiframe31OnPopulateConfigurationSettingsEP24ChiFeature2RequestObjectPK21ChiFeature2IdentifierP11ChiMetadata+0xf18>
   2a2f4: 3a ff ff 90  	adrp	x26, 0xe000 <_ZNK23ChiFeature2HWmultiframe31OnPopulateConfigurationSettingsEP24ChiFeature2RequestObjectPK21ChiFeature2IdentifierP11ChiMetadata+0xe5c>
   2a314: 41 ff ff d0  	adrp	x1, 0x14000 <_ZNK23ChiFeature2HWmultiframe31OnPopulateConfigurationSettingsEP24ChiFeature2RequestObjectPK21ChiFeature2IdentifierP11ChiMetadata+0xe94>
   2a318: 22 ff ff f0  	adrp	x2, 0x11000 <_ZNK23ChiFeature2HWmultiframe31OnPopulateConfigurationSettingsEP24ChiFeature2RequestObjectPK21ChiFeature2IdentifierP11ChiMetadata+0xe8c>
   2a31c: 25 ff ff f0  	adrp	x5, 0x11000 <_ZNK23ChiFeature2HWmultiframe31OnPopulateConfigurationSettingsEP24ChiFeature2RequestObjectPK21ChiFeature2IdentifierP11ChiMetadata+0xe90>
   2a340: 3c ff ff 90  	adrp	x28, 0xe000 <_ZNK23ChiFeature2HWmultiframe31OnPopulateConfigurationSettingsEP24ChiFeature2RequestObjectPK21ChiFeature2IdentifierP11ChiMetadata+0xea8>
   2a364: 00 ff ff f0  	adrp	x0, 0xd000 <_ZNK23ChiFeature2HWmultiframe31OnPopulateConfigurationSettingsEP24ChiFeature2RequestObjectPK21ChiFeature2IdentifierP11ChiMetadata+0xec8>
   2a368: 41 ff ff b0  	adrp	x1, 0x13000 <_ZNK23ChiFeature2HWmultiframe31OnPopulateConfigurationSettingsEP24ChiFeature2RequestObjectPK21ChiFeature2IdentifierP11ChiMetadata+0xee4>
   2a36c: 23 ff ff f0  	adrp	x3, 0x11000 <_ZNK23ChiFeature2HWmultiframe31OnPopulateConfigurationSettingsEP24ChiFeature2RequestObjectPK21ChiFeature2IdentifierP11ChiMetadata+0xee0>
   2a370: 25 ff ff f0  	adrp	x5, 0x11000 <_ZNK23ChiFeature2HWmultiframe31OnPopulateConfigurationSettingsEP24ChiFeature2RequestObjectPK21ChiFeature2IdentifierP11ChiMetadata+0xee4>
   2a388: 46 77 00 94  	bl	0x480a0 <_ZN6ChiLog9LogSystemEPKcS1_S1_S1_iS1_z@plt>
   2a38c: 4f fd ff 17  	b	0x298c8 <_ZNK23ChiFeature2HWmultiframe31OnPopulateConfigurationSettingsEP24ChiFeature2RequestObjectPK21ChiFeature2IdentifierP11ChiMetadata+0x4a0>
   2a390: 0d 01 00 f0  	adrp	x13, 0x4d000 <_ZNK23ChiFeature2HWmultiframe31OnPopulateConfigurationSettingsEP24ChiFeature2RequestObjectPK21ChiFeature2IdentifierP11ChiMetadata+0xff4>
   2a3a0: e1 02 00 54  	b.ne	0x2a3fc <_ZNK23ChiFeature2HWmultiframe31OnPopulateConfigurationSettingsEP24ChiFeature2RequestObjectPK21ChiFeature2IdentifierP11ChiMetadata+0xfd4>
   2a3a4: 37 ff ff 90  	adrp	x23, 0xe000 <_ZNK23ChiFeature2HWmultiframe31OnPopulateConfigurationSettingsEP24ChiFeature2RequestObjectPK21ChiFeature2IdentifierP11ChiMetadata+0xf0c>
   2a3c8: 41 ff ff d0  	adrp	x1, 0x14000 <_ZNK23ChiFeature2HWmultiframe31OnPopulateConfigurationSettingsEP24ChiFeature2RequestObjectPK21ChiFeature2IdentifierP11ChiMetadata+0xf48>
   2a3cc: 02 ff ff d0  	adrp	x2, 0xc000 <_ZNK23ChiFeature2HWmultiframe31OnPopulateConfigurationSettingsEP24ChiFeature2RequestObjectPK21ChiFeature2IdentifierP11ChiMetadata+0xf2c>
   2a3d0: 25 ff ff f0  	adrp	x5, 0x11000 <_ZNK23ChiFeature2HWmultiframe31OnPopulateConfigurationSettingsEP24ChiFeature2RequestObjectPK21ChiFeature2IdentifierP11ChiMetadata+0xf44>
   2a3fc: 3c ff ff 90  	adrp	x28, 0xe000 <_ZNK23ChiFeature2HWmultiframe31OnPopulateConfigurationSettingsEP24ChiFeature2RequestObjectPK21ChiFeature2IdentifierP11ChiMetadata+0xf64>
   2a424: 40 ff ff d0  	adrp	x0, 0x14000 <_ZNK23ChiFeature2HWmultiframe31OnPopulateConfigurationSettingsEP24ChiFeature2RequestObjectPK21ChiFeature2IdentifierP11ChiMetadata+0xfa4>
   2a428: 21 ff ff d0  	adrp	x1, 0x10000 <_ZNK23ChiFeature2HWmultiframe31OnPopulateConfigurationSettingsEP24ChiFeature2RequestObjectPK21ChiFeature2IdentifierP11ChiMetadata+0xf98>
   2a42c: 23 ff ff f0  	adrp	x3, 0x11000 <_ZNK23ChiFeature2HWmultiframe31OnPopulateConfigurationSettingsEP24ChiFeature2RequestObjectPK21ChiFeature2IdentifierP11ChiMetadata+0xfa0>
   2a430: 25 ff ff d0  	adrp	x5, 0x10000 <_ZNK23ChiFeature2HWmultiframe31OnPopulateConfigurationSettingsEP24ChiFeature2RequestObjectPK21ChiFeature2IdentifierP11ChiMetadata+0xfa0>
   2a450: 14 77 00 94  	bl	0x480a0 <_ZN6ChiLog9LogSystemEPKcS1_S1_S1_iS1_z@plt>
   2a458: 48 c9 1f 36  	tbz	w8, #3, 0x29d80 <_ZNK23ChiFeature2HWmultiframe31OnPopulateConfigurationSettingsEP24ChiFeature2RequestObjectPK21ChiFeature2IdentifierP11ChiMetadata+0x958>
   2a45c: 0e 01 00 f0  	adrp	x14, 0x4d000 <_ZNK23ChiFeature2HWmultiframe31OnPopulateConfigurationSettingsEP24ChiFeature2RequestObjectPK21ChiFeature2IdentifierP11ChiMetadata+0x10c0>
   2a46c: e1 02 00 54  	b.ne	0x2a4c8 <_ZNK23ChiFeature2HWmultiframe31OnPopulateConfigurationSettingsEP24ChiFeature2RequestObjectPK21ChiFeature2IdentifierP11ChiMetadata+0x10a0>
   2a470: 37 ff ff 90  	adrp	x23, 0xe000 <_ZNK23ChiFeature2HWmultiframe31OnPopulateConfigurationSettingsEP24ChiFeature2RequestObjectPK21ChiFeature2IdentifierP11ChiMetadata+0xfd8>
   2a490: 41 ff ff d0  	adrp	x1, 0x14000 <_ZNK23ChiFeature2HWmultiframe31OnPopulateConfigurationSettingsEP24ChiFeature2RequestObjectPK21ChiFeature2IdentifierP11ChiMetadata+0x1010>
   2a498: 02 ff ff d0  	adrp	x2, 0xc000 <_ZNK23ChiFeature2HWmultiframe31OnPopulateConfigurationSettingsEP24ChiFeature2RequestObjectPK21ChiFeature2IdentifierP11ChiMetadata+0xff8>
   2a49c: 25 ff ff f0  	adrp	x5, 0x11000 <_ZNK23ChiFeature2HWmultiframe31OnPopulateConfigurationSettingsEP24ChiFeature2RequestObjectPK21ChiFeature2IdentifierP11ChiMetadata+0x1010>
   2a4c8: 3c ff ff 90  	adrp	x28, 0xe000 <_ZNK23ChiFeature2HWmultiframe31OnPopulateConfigurationSettingsEP24ChiFeature2RequestObjectPK21ChiFeature2IdentifierP11ChiMetadata+0x1030>
   2a4e8: 21 ff ff d0  	adrp	x1, 0x10000 <_ZNK23ChiFeature2HWmultiframe31OnPopulateConfigurationSettingsEP24ChiFeature2RequestObjectPK21ChiFeature2IdentifierP11ChiMetadata+0x1058>
   2a4f4: 40 ff ff d0  	adrp	x0, 0x14000 <_ZNK23ChiFeature2HWmultiframe31OnPopulateConfigurationSettingsEP24ChiFeature2RequestObjectPK21ChiFeature2IdentifierP11ChiMetadata+0x1074>
   2a4f8: 23 ff ff f0  	adrp	x3, 0x11000 <_ZNK23ChiFeature2HWmultiframe31OnPopulateConfigurationSettingsEP24ChiFeature2RequestObjectPK21ChiFeature2IdentifierP11ChiMetadata+0x106c>
   2a500: 25 ff ff b0  	adrp	x5, 0xf000 <_ZNK23ChiFeature2HWmultiframe31OnPopulateConfigurationSettingsEP24ChiFeature2RequestObjectPK21ChiFeature2IdentifierP11ChiMetadata+0x106c>
   2a51c: e1 76 00 94  	bl	0x480a0 <_ZN6ChiLog9LogSystemEPKcS1_S1_S1_iS1_z@plt>
   2a524: 08 c3 1f 36  	tbz	w8, #3, 0x29d84 <_ZNK23ChiFeature2HWmultiframe31OnPopulateConfigurationSettingsEP24ChiFeature2RequestObjectPK21ChiFeature2IdentifierP11ChiMetadata+0x95c>
   2a528: 0f 01 00 f0  	adrp	x15, 0x4d000 <_ZNK23ChiFeature2HWmultiframe31OnPopulateConfigurationSettingsEP24ChiFeature2RequestObjectPK21ChiFeature2IdentifierP11ChiMetadata+0x118c>
   2a538: e1 02 00 54  	b.ne	0x2a594 <_ZNK23ChiFeature2HWmultiframe31OnPopulateConfigurationSettingsEP24ChiFeature2RequestObjectPK21ChiFeature2IdentifierP11ChiMetadata+0x116c>
   2a53c: 37 ff ff 90  	adrp	x23, 0xe000 <_ZNK23ChiFeature2HWmultiframe31OnPopulateConfigurationSettingsEP24ChiFeature2RequestObjectPK21ChiFeature2IdentifierP11ChiMetadata+0x10a4>
   2a55c: 41 ff ff d0  	adrp	x1, 0x14000 <_ZNK23ChiFeature2HWmultiframe31OnPopulateConfigurationSettingsEP24ChiFeature2RequestObjectPK21ChiFeature2IdentifierP11ChiMetadata+0x10dc>
   2a564: 42 ff ff b0  	adrp	x2, 0x13000 <_ZNK23ChiFeature2HWmultiframe31OnPopulateConfigurationSettingsEP24ChiFeature2RequestObjectPK21ChiFeature2IdentifierP11ChiMetadata+0x10e0>
   2a568: 25 ff ff f0  	adrp	x5, 0x11000 <_ZNK23ChiFeature2HWmultiframe31OnPopulateConfigurationSettingsEP24ChiFeature2RequestObjectPK21ChiFeature2IdentifierP11ChiMetadata+0x10dc>
   2a594: 3c ff ff 90  	adrp	x28, 0xe000 <_ZNK23ChiFeature2HWmultiframe31OnPopulateConfigurationSettingsEP24ChiFeature2RequestObjectPK21ChiFeature2IdentifierP11ChiMetadata+0x10fc>
   2a5b4: 21 ff ff d0  	adrp	x1, 0x10000 <_ZNK23ChiFeature2HWmultiframe31OnPopulateConfigurationSettingsEP24ChiFeature2RequestObjectPK21ChiFeature2IdentifierP11ChiMetadata+0x1124>
   2a5c0: 40 ff ff d0  	adrp	x0, 0x14000 <_ZNK23ChiFeature2HWmultiframe31OnPopulateConfigurationSettingsEP24ChiFeature2RequestObjectPK21ChiFeature2IdentifierP11ChiMetadata+0x1140>
   2a5c4: 23 ff ff f0  	adrp	x3, 0x11000 <_ZNK23ChiFeature2HWmultiframe31OnPopulateConfigurationSettingsEP24ChiFeature2RequestObjectPK21ChiFeature2IdentifierP11ChiMetadata+0x1138>
   2a5cc: 05 ff ff f0  	adrp	x5, 0xd000 <_ZNK23ChiFeature2HWmultiframe31OnPopulateConfigurationSettingsEP24ChiFeature2RequestObjectPK21ChiFeature2IdentifierP11ChiMetadata+0x1130>
   2a5e8: ae 76 00 94  	bl	0x480a0 <_ZN6ChiLog9LogSystemEPKcS1_S1_S1_iS1_z@plt>
   2a5f0: 48 06 18 36  	tbz	w8, #3, 0x2a6b8 <_ZNK23ChiFeature2HWmultiframe31OnPopulateConfigurationSettingsEP24ChiFeature2RequestObjectPK21ChiFeature2IdentifierP11ChiMetadata+0x1290>
   2a5f4: 10 01 00 f0  	adrp	x16, 0x4d000 <_ZNK23ChiFeature2HWmultiframe31OnPopulateConfigurationSettingsEP24ChiFeature2RequestObjectPK21ChiFeature2IdentifierP11ChiMetadata+0x1258>
   2a604: e1 02 00 54  	b.ne	0x2a660 <_ZNK23ChiFeature2HWmultiframe31OnPopulateConfigurationSettingsEP24ChiFeature2RequestObjectPK21ChiFeature2IdentifierP11ChiMetadata+0x1238>
   2a608: 37 ff ff 90  	adrp	x23, 0xe000 <_ZNK23ChiFeature2HWmultiframe31OnPopulateConfigurationSettingsEP24ChiFeature2RequestObjectPK21ChiFeature2IdentifierP11ChiMetadata+0x1170>
   2a628: 41 ff ff d0  	adrp	x1, 0x14000 <_ZNK23ChiFeature2HWmultiframe31OnPopulateConfigurationSettingsEP24ChiFeature2RequestObjectPK21ChiFeature2IdentifierP11ChiMetadata+0x11a8>
   2a630: 02 ff ff d0  	adrp	x2, 0xc000 <_ZNK23ChiFeature2HWmultiframe31OnPopulateConfigurationSettingsEP24ChiFeature2RequestObjectPK21ChiFeature2IdentifierP11ChiMetadata+0x1190>
   2a634: 25 ff ff f0  	adrp	x5, 0x11000 <_ZNK23ChiFeature2HWmultiframe31OnPopulateConfigurationSettingsEP24ChiFeature2RequestObjectPK21ChiFeature2IdentifierP11ChiMetadata+0x11a8>
   2a660: 3c ff ff 90  	adrp	x28, 0xe000 <_ZNK23ChiFeature2HWmultiframe31OnPopulateConfigurationSettingsEP24ChiFeature2RequestObjectPK21ChiFeature2IdentifierP11ChiMetadata+0x11c8>
   2a680: 21 ff ff d0  	adrp	x1, 0x10000 <_ZNK23ChiFeature2HWmultiframe31OnPopulateConfigurationSettingsEP24ChiFeature2RequestObjectPK21ChiFeature2IdentifierP11ChiMetadata+0x11f0>
   2a68c: 40 ff ff d0  	adrp	x0, 0x14000 <_ZNK23ChiFeature2HWmultiframe31OnPopulateConfigurationSettingsEP24ChiFeature2RequestObjectPK21ChiFeature2IdentifierP11ChiMetadata+0x120c>
   2a690: 23 ff ff f0  	adrp	x3, 0x11000 <_ZNK23ChiFeature2HWmultiframe31OnPopulateConfigurationSettingsEP24ChiFeature2RequestObjectPK21ChiFeature2IdentifierP11ChiMetadata+0x1204>
   2a698: 05 ff ff f0  	adrp	x5, 0xd000 <_ZNK23ChiFeature2HWmultiframe31OnPopulateConfigurationSettingsEP24ChiFeature2RequestObjectPK21ChiFeature2IdentifierP11ChiMetadata+0x11fc>
   2a6b4: 7b 76 00 94  	bl	0x480a0 <_ZN6ChiLog9LogSystemEPKcS1_S1_S1_iS1_z@plt>
   2a6e4: f3 02 00 34  	cbz	w19, 0x2a740 <_ZNK23ChiFeature2HWmultiframe31OnPopulateConfigurationSettingsEP24ChiFeature2RequestObjectPK21ChiFeature2IdentifierP11ChiMetadata+0x1318>
   2a6e8: 21 ff ff b0  	adrp	x1, 0xf000 <_ZNK23ChiFeature2HWmultiframe31OnPopulateConfigurationSettingsEP24ChiFeature2RequestObjectPK21ChiFeature2IdentifierP11ChiMetadata+0x1254>
   2a6ec: 42 ff ff 90  	adrp	x2, 0x12000 <_ZNK23ChiFeature2HWmultiframe31OnPopulateConfigurationSettingsEP24ChiFeature2RequestObjectPK21ChiFeature2IdentifierP11ChiMetadata+0x1264>
   2a718: 43 0e 00 54  	b.lo	0x2a8e0 <_ZNK23ChiFeature2HWmultiframe31OnPopulateConfigurationSettingsEP24ChiFeature2RequestObjectPK21ChiFeature2IdentifierP11ChiMetadata+0x14b8>
   2a720: e0 0e 00 54  	b.eq	0x2a8fc <_ZNK23ChiFeature2HWmultiframe31OnPopulateConfigurationSettingsEP24ChiFeature2RequestObjectPK21ChiFeature2IdentifierP11ChiMetadata+0x14d4>
   2a724: ab 0f 00 35  	cbnz	w11, 0x2a918 <_ZNK23ChiFeature2HWmultiframe31OnPopulateConfigurationSettingsEP24ChiFeature2RequestObjectPK21ChiFeature2IdentifierP11ChiMetadata+0x14f0>
   2a73c: 77 00 00 14  	b	0x2a918 <_ZNK23ChiFeature2HWmultiframe31OnPopulateConfigurationSettingsEP24ChiFeature2RequestObjectPK21ChiFeature2IdentifierP11ChiMetadata+0x14f0>
   2a740: 21 ff ff b0  	adrp	x1, 0xf000 <_ZNK23ChiFeature2HWmultiframe31OnPopulateConfigurationSettingsEP24ChiFeature2RequestObjectPK21ChiFeature2IdentifierP11ChiMetadata+0x12ac>
   2a744: 22 ff ff 90  	adrp	x2, 0xe000 <_ZNK23ChiFeature2HWmultiframe31OnPopulateConfigurationSettingsEP24ChiFeature2RequestObjectPK21ChiFeature2IdentifierP11ChiMetadata+0x12ac>
   2a784: 01 ff ff d0  	adrp	x1, 0xc000 <_ZNK23ChiFeature2HWmultiframe31OnPopulateConfigurationSettingsEP24ChiFeature2RequestObjectPK21ChiFeature2IdentifierP11ChiMetadata+0x12e4>
   2a788: 42 ff ff 90  	adrp	x2, 0x12000 <_ZNK23ChiFeature2HWmultiframe31OnPopulateConfigurationSettingsEP24ChiFeature2RequestObjectPK21ChiFeature2IdentifierP11ChiMetadata+0x1300>
   2a7a4: 1b 01 00 f0  	adrp	x27, 0x4d000 <_ZNK23ChiFeature2HWmultiframe31OnPopulateConfigurationSettingsEP24ChiFeature2RequestObjectPK21ChiFeature2IdentifierP11ChiMetadata+0x1408>
   2a7b0: 60 05 00 34  	cbz	w0, 0x2a85c <_ZNK23ChiFeature2HWmultiframe31OnPopulateConfigurationSettingsEP24ChiFeature2RequestObjectPK21ChiFeature2IdentifierP11ChiMetadata+0x1434>
   2a7b8: 2b 05 00 36  	tbz	w11, #0, 0x2a85c <_ZNK23ChiFeature2HWmultiframe31OnPopulateConfigurationSettingsEP24ChiFeature2RequestObjectPK21ChiFeature2IdentifierP11ChiMetadata+0x1434>
   2a7bc: 1a 01 00 f0  	adrp	x26, 0x4d000 <_ZNK23ChiFeature2HWmultiframe31OnPopulateConfigurationSettingsEP24ChiFeature2RequestObjectPK21ChiFeature2IdentifierP11ChiMetadata+0x1420>
   2a7cc: 41 02 00 54  	b.ne	0x2a814 <_ZNK23ChiFeature2HWmultiframe31OnPopulateConfigurationSettingsEP24ChiFeature2RequestObjectPK21ChiFeature2IdentifierP11ChiMetadata+0x13ec>
   2a7d0: 3c ff ff 90  	adrp	x28, 0xe000 <_ZNK23ChiFeature2HWmultiframe31OnPopulateConfigurationSettingsEP24ChiFeature2RequestObjectPK21ChiFeature2IdentifierP11ChiMetadata+0x1338>
   2a7ec: 41 ff ff d0  	adrp	x1, 0x14000 <_ZNK23ChiFeature2HWmultiframe31OnPopulateConfigurationSettingsEP24ChiFeature2RequestObjectPK21ChiFeature2IdentifierP11ChiMetadata+0x136c>
   2a7f0: 02 ff ff d0  	adrp	x2, 0xc000 <_ZNK23ChiFeature2HWmultiframe31OnPopulateConfigurationSettingsEP24ChiFeature2RequestObjectPK21ChiFeature2IdentifierP11ChiMetadata+0x1350>
   2a7f4: 25 ff ff f0  	adrp	x5, 0x11000 <_ZNK23ChiFeature2HWmultiframe31OnPopulateConfigurationSettingsEP24ChiFeature2RequestObjectPK21ChiFeature2IdentifierP11ChiMetadata+0x1368>
   2a814: 3a ff ff 90  	adrp	x26, 0xe000 <_ZNK23ChiFeature2HWmultiframe31OnPopulateConfigurationSettingsEP24ChiFeature2RequestObjectPK21ChiFeature2IdentifierP11ChiMetadata+0x137c>
   2a830: 41 ff ff b0  	adrp	x1, 0x13000 <_ZNK23ChiFeature2HWmultiframe31OnPopulateConfigurationSettingsEP24ChiFeature2RequestObjectPK21ChiFeature2IdentifierP11ChiMetadata+0x13ac>
   2a838: 00 ff ff f0  	adrp	x0, 0xd000 <_ZNK23ChiFeature2HWmultiframe31OnPopulateConfigurationSettingsEP24ChiFeature2RequestObjectPK21ChiFeature2IdentifierP11ChiMetadata+0x139c>
   2a83c: 23 ff ff f0  	adrp	x3, 0x11000 <_ZNK23ChiFeature2HWmultiframe31OnPopulateConfigurationSettingsEP24ChiFeature2RequestObjectPK21ChiFeature2IdentifierP11ChiMetadata+0x13b0>
   2a840: 05 ff ff f0  	adrp	x5, 0xd000 <_ZNK23ChiFeature2HWmultiframe31OnPopulateConfigurationSettingsEP24ChiFeature2RequestObjectPK21ChiFeature2IdentifierP11ChiMetadata+0x13a4>
   2a858: 12 76 00 94  	bl	0x480a0 <_ZN6ChiLog9LogSystemEPKcS1_S1_S1_iS1_z@plt>
   2a868: 40 00 00 54  	b.eq	0x2a870 <_ZNK23ChiFeature2HWmultiframe31OnPopulateConfigurationSettingsEP24ChiFeature2RequestObjectPK21ChiFeature2IdentifierP11ChiMetadata+0x1448>
   2a86c: 0c 24 00 35  	cbnz	w12, 0x2acec <_ZNK23ChiFeature2HWmultiframe31OnPopulateConfigurationSettingsEP24ChiFeature2RequestObjectPK21ChiFeature2IdentifierP11ChiMetadata+0x18c4>
   2a8b8: 21 ff ff b0  	adrp	x1, 0xf000 <_ZNK23ChiFeature2HWmultiframe31OnPopulateConfigurationSettingsEP24ChiFeature2RequestObjectPK21ChiFeature2IdentifierP11ChiMetadata+0x1424>
   2a8bc: 02 ff ff f0  	adrp	x2, 0xd000 <_ZNK23ChiFeature2HWmultiframe31OnPopulateConfigurationSettingsEP24ChiFeature2RequestObjectPK21ChiFeature2IdentifierP11ChiMetadata+0x1420>
   2a8dc: 20 00 00 14  	b	0x2a95c <_ZNK23ChiFeature2HWmultiframe31OnPopulateConfigurationSettingsEP24ChiFeature2RequestObjectPK21ChiFeature2IdentifierP11ChiMetadata+0x1534>
   2a8f8: 08 00 00 14  	b	0x2a918 <_ZNK23ChiFeature2HWmultiframe31OnPopulateConfigurationSettingsEP24ChiFeature2RequestObjectPK21ChiFeature2IdentifierP11ChiMetadata+0x14f0>
   2a904: e3 76 00 54  	b.lo	0x2b7e0 <_ZNK23ChiFeature2HWmultiframe31OnPopulateConfigurationSettingsEP24ChiFeature2RequestObjectPK21ChiFeature2IdentifierP11ChiMetadata+0x23b8>
   2a93c: 21 ff ff b0  	adrp	x1, 0xf000 <_ZNK23ChiFeature2HWmultiframe31OnPopulateConfigurationSettingsEP24ChiFeature2RequestObjectPK21ChiFeature2IdentifierP11ChiMetadata+0x14a8>
   2a940: 42 ff ff b0  	adrp	x2, 0x13000 <_ZNK23ChiFeature2HWmultiframe31OnPopulateConfigurationSettingsEP24ChiFeature2RequestObjectPK21ChiFeature2IdentifierP11ChiMetadata+0x14bc>
   2a95c: 59 76 00 94  	bl	0x482c0 <_ZN15ExtensionModule11GetInstanceEv@plt>
   2a964: 1c 01 00 f0  	adrp	x28, 0x4d000 <_ZNK23ChiFeature2HWmultiframe31OnPopulateConfigurationSettingsEP24ChiFeature2RequestObjectPK21ChiFeature2IdentifierP11ChiMetadata+0x15c8>
   2a974: c0 00 00 54  	b.eq	0x2a98c <_ZNK23ChiFeature2HWmultiframe31OnPopulateConfigurationSettingsEP24ChiFeature2RequestObjectPK21ChiFeature2IdentifierP11ChiMetadata+0x1564>
   2a978: 52 76 00 94  	bl	0x482c0 <_ZN15ExtensionModule11GetInstanceEv@plt>
   2a988: e1 0c 00 54  	b.ne	0x2ab24 <_ZNK23ChiFeature2HWmultiframe31OnPopulateConfigurationSettingsEP24ChiFeature2RequestObjectPK21ChiFeature2IdentifierP11ChiMetadata+0x16fc>
   2a998: 01 6d 00 54  	b.ne	0x2b738 <_ZNK23ChiFeature2HWmultiframe31OnPopulateConfigurationSettingsEP24ChiFeature2RequestObjectPK21ChiFeature2IdentifierP11ChiMetadata+0x2310>
   2a9a4: 0f 0c 00 36  	tbz	w15, #0, 0x2ab24 <_ZNK23ChiFeature2HWmultiframe31OnPopulateConfigurationSettingsEP24ChiFeature2RequestObjectPK21ChiFeature2IdentifierP11ChiMetadata+0x16fc>
   2a9b8: 9e 76 00 94  	bl	0x48430 <_ZN8ChxUtils17GetVendorTagValueEP11ChiMetadata9VendorTagPPv@plt>
   2a9c0: a0 76 00 94  	bl	0x48440 <_ZNK24ChiFeature2RequestObject23GetUsecaseRequestObjectEv@plt>
   2a9c8: 3a 05 00 b4  	cbz	x26, 0x2aa6c <_ZNK23ChiFeature2HWmultiframe31OnPopulateConfigurationSettingsEP24ChiFeature2RequestObjectPK21ChiFeature2IdentifierP11ChiMetadata+0x1644>
   2a9d0: e8 04 00 b4  	cbz	x8, 0x2aa6c <_ZNK23ChiFeature2HWmultiframe31OnPopulateConfigurationSettingsEP24ChiFeature2RequestObjectPK21ChiFeature2IdentifierP11ChiMetadata+0x1644>
   2a9d8: b3 04 00 b4  	cbz	x19, 0x2aa6c <_ZNK23ChiFeature2HWmultiframe31OnPopulateConfigurationSettingsEP24ChiFeature2RequestObjectPK21ChiFeature2IdentifierP11ChiMetadata+0x1644>
   2a9e4: c8 6f 00 54  	b.hi	0x2b7dc <_ZNK23ChiFeature2HWmultiframe31OnPopulateConfigurationSettingsEP24ChiFeature2RequestObjectPK21ChiFeature2IdentifierP11ChiMetadata+0x23b4>
   2a9f4: 8d 09 00 b4  	cbz	x13, 0x2ab24 <_ZNK23ChiFeature2HWmultiframe31OnPopulateConfigurationSettingsEP24ChiFeature2RequestObjectPK21ChiFeature2IdentifierP11ChiMetadata+0x16fc>
   2aa0c: 2d 76 00 94  	bl	0x482c0 <_ZN15ExtensionModule11GetInstanceEv@plt>
   2aa50: 80 4b 00 34  	cbz	w0, 0x2b3c0 <_ZNK23ChiFeature2HWmultiframe31OnPopulateConfigurationSettingsEP24ChiFeature2RequestObjectPK21ChiFeature2IdentifierP11ChiMetadata+0x1f98>
   2aa54: 0b 01 00 f0  	adrp	x11, 0x4d000 <_ZNK23ChiFeature2HWmultiframe31OnPopulateConfigurationSettingsEP24ChiFeature2RequestObjectPK21ChiFeature2IdentifierP11ChiMetadata+0x16b8>
   2aa60: 50 54 08 37  	tbnz	w16, #1, 0x2b4e8 <_ZNK23ChiFeature2HWmultiframe31OnPopulateConfigurationSettingsEP24ChiFeature2RequestObjectPK21ChiFeature2IdentifierP11ChiMetadata+0x20c0>
   2aa68: 2d 00 00 14  	b	0x2ab1c <_ZNK23ChiFeature2HWmultiframe31OnPopulateConfigurationSettingsEP24ChiFeature2RequestObjectPK21ChiFeature2IdentifierP11ChiMetadata+0x16f4>
   2aa6c: 0e 01 00 f0  	adrp	x14, 0x4d000 <_ZNK23ChiFeature2HWmultiframe31OnPopulateConfigurationSettingsEP24ChiFeature2RequestObjectPK21ChiFeature2IdentifierP11ChiMetadata+0x16d0>
   2aa78: 65 05 08 36  	tbz	w5, #1, 0x2ab24 <_ZNK23ChiFeature2HWmultiframe31OnPopulateConfigurationSettingsEP24ChiFeature2RequestObjectPK21ChiFeature2IdentifierP11ChiMetadata+0x16fc>
   2aa7c: 0e 01 00 f0  	adrp	x14, 0x4d000 <_ZNK23ChiFeature2HWmultiframe31OnPopulateConfigurationSettingsEP24ChiFeature2RequestObjectPK21ChiFeature2IdentifierP11ChiMetadata+0x16e0>
   2aa8c: 41 02 00 54  	b.ne	0x2aad4 <_ZNK23ChiFeature2HWmultiframe31OnPopulateConfigurationSettingsEP24ChiFeature2RequestObjectPK21ChiFeature2IdentifierP11ChiMetadata+0x16ac>
   2aa90: 3a ff ff 90  	adrp	x26, 0xe000 <_ZNK23ChiFeature2HWmultiframe31OnPopulateConfigurationSettingsEP24ChiFeature2RequestObjectPK21ChiFeature2IdentifierP11ChiMetadata+0x15f8>
   2aaac: 41 ff ff d0  	adrp	x1, 0x14000 <_ZNK23ChiFeature2HWmultiframe31OnPopulateConfigurationSettingsEP24ChiFeature2RequestObjectPK21ChiFeature2IdentifierP11ChiMetadata+0x162c>
   2aab0: 02 ff ff f0  	adrp	x2, 0xd000 <_ZNK23ChiFeature2HWmultiframe31OnPopulateConfigurationSettingsEP24ChiFeature2RequestObjectPK21ChiFeature2IdentifierP11ChiMetadata+0x1614>
   2aab4: 25 ff ff f0  	adrp	x5, 0x11000 <_ZNK23ChiFeature2HWmultiframe31OnPopulateConfigurationSettingsEP24ChiFeature2RequestObjectPK21ChiFeature2IdentifierP11ChiMetadata+0x1628>
   2aad4: 3c ff ff 90  	adrp	x28, 0xe000 <_ZNK23ChiFeature2HWmultiframe31OnPopulateConfigurationSettingsEP24ChiFeature2RequestObjectPK21ChiFeature2IdentifierP11ChiMetadata+0x163c>
   2aaf0: 21 ff ff 90  	adrp	x1, 0xe000 <_ZNK23ChiFeature2HWmultiframe31OnPopulateConfigurationSettingsEP24ChiFeature2RequestObjectPK21ChiFeature2IdentifierP11ChiMetadata+0x1658>
   2aaf8: 20 ff ff f0  	adrp	x0, 0x11000 <_ZNK23ChiFeature2HWmultiframe31OnPopulateConfigurationSettingsEP24ChiFeature2RequestObjectPK21ChiFeature2IdentifierP11ChiMetadata+0x166c>
   2aafc: 23 ff ff f0  	adrp	x3, 0x11000 <_ZNK23ChiFeature2HWmultiframe31OnPopulateConfigurationSettingsEP24ChiFeature2RequestObjectPK21ChiFeature2IdentifierP11ChiMetadata+0x1670>
   2ab00: 45 ff ff b0  	adrp	x5, 0x13000 <_ZNK23ChiFeature2HWmultiframe31OnPopulateConfigurationSettingsEP24ChiFeature2RequestObjectPK21ChiFeature2IdentifierP11ChiMetadata+0x167c>
   2ab18: 62 75 00 94  	bl	0x480a0 <_ZN6ChiLog9LogSystemEPKcS1_S1_S1_iS1_z@plt>
   2ab1c: 1c 01 00 f0  	adrp	x28, 0x4d000 <_ZNK23ChiFeature2HWmultiframe31OnPopulateConfigurationSettingsEP24ChiFeature2RequestObjectPK21ChiFeature2IdentifierP11ChiMetadata+0x1780>
   2ab28: 46 76 00 94  	bl	0x48440 <_ZNK24ChiFeature2RequestObject23GetUsecaseRequestObjectEv@plt>
   2ab3c: 61 5e 00 54  	b.ne	0x2b708 <_ZNK23ChiFeature2HWmultiframe31OnPopulateConfigurationSettingsEP24ChiFeature2RequestObjectPK21ChiFeature2IdentifierP11ChiMetadata+0x22e0>
   2ab4c: 41 76 00 94  	bl	0x48450 <_ZNK15ChiFeature2Base18GetSensorModeIndexEPK21ChiFeature2IdentifierP11ChiMetadata@plt>
   2ab50: 13 01 00 f0  	adrp	x19, 0x4d000 <_ZNK23ChiFeature2HWmultiframe31OnPopulateConfigurationSettingsEP24ChiFeature2RequestObjectPK21ChiFeature2IdentifierP11ChiMetadata+0x17b4>
   2ab5c: d7 1b 00 b4  	cbz	x23, 0x2aed4 <_ZNK23ChiFeature2HWmultiframe31OnPopulateConfigurationSettingsEP24ChiFeature2RequestObjectPK21ChiFeature2IdentifierP11ChiMetadata+0x1aac>
   2ab68: 20 03 00 54  	b.eq	0x2abcc <_ZNK23ChiFeature2HWmultiframe31OnPopulateConfigurationSettingsEP24ChiFeature2RequestObjectPK21ChiFeature2IdentifierP11ChiMetadata+0x17a4>
   2ab6c: d5 75 00 94  	bl	0x482c0 <_ZN15ExtensionModule11GetInstanceEv@plt>
   2ab7c: 81 02 00 54  	b.ne	0x2abcc <_ZNK23ChiFeature2HWmultiframe31OnPopulateConfigurationSettingsEP24ChiFeature2RequestObjectPK21ChiFeature2IdentifierP11ChiMetadata+0x17a4>
   2aba8: 41 ff ff 90  	adrp	x1, 0x12000 <_ZNK23ChiFeature2HWmultiframe31OnPopulateConfigurationSettingsEP24ChiFeature2RequestObjectPK21ChiFeature2IdentifierP11ChiMetadata+0x1720>
   2abac: 22 ff ff b0  	adrp	x2, 0xf000 <_ZNK23ChiFeature2HWmultiframe31OnPopulateConfigurationSettingsEP24ChiFeature2RequestObjectPK21ChiFeature2IdentifierP11ChiMetadata+0x1718>
   2abd0: 8c 06 20 37  	tbnz	w12, #4, 0x2aca0 <_ZNK23ChiFeature2HWmultiframe31OnPopulateConfigurationSettingsEP24ChiFeature2RequestObjectPK21ChiFeature2IdentifierP11ChiMetadata+0x1878>
   2abd4: 0c 18 60 36  	tbz	w12, #12, 0x2aed4 <_ZNK23ChiFeature2HWmultiframe31OnPopulateConfigurationSettingsEP24ChiFeature2RequestObjectPK21ChiFeature2IdentifierP11ChiMetadata+0x1aac>
   2abec: 81 0f 00 54  	b.ne	0x2addc <_ZNK23ChiFeature2HWmultiframe31OnPopulateConfigurationSettingsEP24ChiFeature2RequestObjectPK21ChiFeature2IdentifierP11ChiMetadata+0x19b4>
   2abfc: 87 14 28 36  	tbz	w7, #5, 0x2ae8c <_ZNK23ChiFeature2HWmultiframe31OnPopulateConfigurationSettingsEP24ChiFeature2RequestObjectPK21ChiFeature2IdentifierP11ChiMetadata+0x1a64>
   2ac00: 02 01 00 f0  	adrp	x2, 0x4d000 <_ZNK23ChiFeature2HWmultiframe31OnPopulateConfigurationSettingsEP24ChiFeature2RequestObjectPK21ChiFeature2IdentifierP11ChiMetadata+0x1864>
   2ac10: 41 02 00 54  	b.ne	0x2ac58 <_ZNK23ChiFeature2HWmultiframe31OnPopulateConfigurationSettingsEP24ChiFeature2RequestObjectPK21ChiFeature2IdentifierP11ChiMetadata+0x1830>
   2ac14: 37 ff ff 90  	adrp	x23, 0xe000 <_ZNK23ChiFeature2HWmultiframe31OnPopulateConfigurationSettingsEP24ChiFeature2RequestObjectPK21ChiFeature2IdentifierP11ChiMetadata+0x177c>
   2ac30: 41 ff ff d0  	adrp	x1, 0x14000 <_ZNK23ChiFeature2HWmultiframe31OnPopulateConfigurationSettingsEP24ChiFeature2RequestObjectPK21ChiFeature2IdentifierP11ChiMetadata+0x17b0>
   2ac34: 02 ff ff f0  	adrp	x2, 0xd000 <_ZNK23ChiFeature2HWmultiframe31OnPopulateConfigurationSettingsEP24ChiFeature2RequestObjectPK21ChiFeature2IdentifierP11ChiMetadata+0x1798>
   2ac38: 25 ff ff f0  	adrp	x5, 0x11000 <_ZNK23ChiFeature2HWmultiframe31OnPopulateConfigurationSettingsEP24ChiFeature2RequestObjectPK21ChiFeature2IdentifierP11ChiMetadata+0x17ac>
   2ac58: 3c ff ff 90  	adrp	x28, 0xe000 <_ZNK23ChiFeature2HWmultiframe31OnPopulateConfigurationSettingsEP24ChiFeature2RequestObjectPK21ChiFeature2IdentifierP11ChiMetadata+0x17c0>
   2ac74: 21 ff ff f0  	adrp	x1, 0x11000 <_ZNK23ChiFeature2HWmultiframe31OnPopulateConfigurationSettingsEP24ChiFeature2RequestObjectPK21ChiFeature2IdentifierP11ChiMetadata+0x17e8>
   2ac7c: 40 ff ff b0  	adrp	x0, 0x13000 <_ZNK23ChiFeature2HWmultiframe31OnPopulateConfigurationSettingsEP24ChiFeature2RequestObjectPK21ChiFeature2IdentifierP11ChiMetadata+0x17f8>
   2ac80: 23 ff ff f0  	adrp	x3, 0x11000 <_ZNK23ChiFeature2HWmultiframe31OnPopulateConfigurationSettingsEP24ChiFeature2RequestObjectPK21ChiFeature2IdentifierP11ChiMetadata+0x17f4>
   2ac84: 45 ff ff 90  	adrp	x5, 0x12000 <_ZNK23ChiFeature2HWmultiframe31OnPopulateConfigurationSettingsEP24ChiFeature2RequestObjectPK21ChiFeature2IdentifierP11ChiMetadata+0x17fc>
   2ac9c: 7b 00 00 14  	b	0x2ae88 <_ZNK23ChiFeature2HWmultiframe31OnPopulateConfigurationSettingsEP24ChiFeature2RequestObjectPK21ChiFeature2IdentifierP11ChiMetadata+0x1a60>
   2acc8: 41 ff ff 90  	adrp	x1, 0x12000 <_ZNK23ChiFeature2HWmultiframe31OnPopulateConfigurationSettingsEP24ChiFeature2RequestObjectPK21ChiFeature2IdentifierP11ChiMetadata+0x1840>
   2accc: 22 ff ff b0  	adrp	x2, 0xf000 <_ZNK23ChiFeature2HWmultiframe31OnPopulateConfigurationSettingsEP24ChiFeature2RequestObjectPK21ChiFeature2IdentifierP11ChiMetadata+0x1838>
   2ace8: 79 00 00 14  	b	0x2aecc <_ZNK23ChiFeature2HWmultiframe31OnPopulateConfigurationSettingsEP24ChiFeature2RequestObjectPK21ChiFeature2IdentifierP11ChiMetadata+0x1aa4>
   2ad1c: cd db 2f 36  	tbz	w13, #5, 0x2a894 <_ZNK23ChiFeature2HWmultiframe31OnPopulateConfigurationSettingsEP24ChiFeature2RequestObjectPK21ChiFeature2IdentifierP11ChiMetadata+0x146c>
   2ad20: 01 01 00 f0  	adrp	x1, 0x4d000 <_ZNK23ChiFeature2HWmultiframe31OnPopulateConfigurationSettingsEP24ChiFeature2RequestObjectPK21ChiFeature2IdentifierP11ChiMetadata+0x1984>
   2ad30: a1 02 00 54  	b.ne	0x2ad84 <_ZNK23ChiFeature2HWmultiframe31OnPopulateConfigurationSettingsEP24ChiFeature2RequestObjectPK21ChiFeature2IdentifierP11ChiMetadata+0x195c>
   2ad34: 37 ff ff 90  	adrp	x23, 0xe000 <_ZNK23ChiFeature2HWmultiframe31OnPopulateConfigurationSettingsEP24ChiFeature2RequestObjectPK21ChiFeature2IdentifierP11ChiMetadata+0x189c>
   2ad58: 41 ff ff d0  	adrp	x1, 0x14000 <_ZNK23ChiFeature2HWmultiframe31OnPopulateConfigurationSettingsEP24ChiFeature2RequestObjectPK21ChiFeature2IdentifierP11ChiMetadata+0x18d8>
   2ad5c: 25 ff ff f0  	adrp	x5, 0x11000 <_ZNK23ChiFeature2HWmultiframe31OnPopulateConfigurationSettingsEP24ChiFeature2RequestObjectPK21ChiFeature2IdentifierP11ChiMetadata+0x18d0>
   2ad70: 22 ff ff d0  	adrp	x2, 0x10000 <_ZNK23ChiFeature2HWmultiframe31OnPopulateConfigurationSettingsEP24ChiFeature2RequestObjectPK21ChiFeature2IdentifierP11ChiMetadata+0x18e0>
   2ad84: 3c ff ff 90  	adrp	x28, 0xe000 <_ZNK23ChiFeature2HWmultiframe31OnPopulateConfigurationSettingsEP24ChiFeature2RequestObjectPK21ChiFeature2IdentifierP11ChiMetadata+0x18ec>
   2adac: 40 ff ff b0  	adrp	x0, 0x13000 <_ZNK23ChiFeature2HWmultiframe31OnPopulateConfigurationSettingsEP24ChiFeature2RequestObjectPK21ChiFeature2IdentifierP11ChiMetadata+0x1928>
   2adb0: 23 ff ff f0  	adrp	x3, 0x11000 <_ZNK23ChiFeature2HWmultiframe31OnPopulateConfigurationSettingsEP24ChiFeature2RequestObjectPK21ChiFeature2IdentifierP11ChiMetadata+0x1924>
   2adb4: 25 ff ff 90  	adrp	x5, 0xe000 <_ZNK23ChiFeature2HWmultiframe31OnPopulateConfigurationSettingsEP24ChiFeature2RequestObjectPK21ChiFeature2IdentifierP11ChiMetadata+0x191c>
   2adc0: 21 ff ff f0  	adrp	x1, 0x11000 <_ZNK23ChiFeature2HWmultiframe31OnPopulateConfigurationSettingsEP24ChiFeature2RequestObjectPK21ChiFeature2IdentifierP11ChiMetadata+0x1934>
   2add4: b3 74 00 94  	bl	0x480a0 <_ZN6ChiLog9LogSystemEPKcS1_S1_S1_iS1_z@plt>
   2add8: af fe ff 17  	b	0x2a894 <_ZNK23ChiFeature2HWmultiframe31OnPopulateConfigurationSettingsEP24ChiFeature2RequestObjectPK21ChiFeature2IdentifierP11ChiMetadata+0x146c>
   2ade8: 24 05 28 36  	tbz	w4, #5, 0x2ae8c <_ZNK23ChiFeature2HWmultiframe31OnPopulateConfigurationSettingsEP24ChiFeature2RequestObjectPK21ChiFeature2IdentifierP11ChiMetadata+0x1a64>
   2adec: 01 01 00 f0  	adrp	x1, 0x4d000 <_ZNK23ChiFeature2HWmultiframe31OnPopulateConfigurationSettingsEP24ChiFeature2RequestObjectPK21ChiFeature2IdentifierP11ChiMetadata+0x1a50>
   2adfc: 41 02 00 54  	b.ne	0x2ae44 <_ZNK23ChiFeature2HWmultiframe31OnPopulateConfigurationSettingsEP24ChiFeature2RequestObjectPK21ChiFeature2IdentifierP11ChiMetadata+0x1a1c>
   2ae00: 37 ff ff 90  	adrp	x23, 0xe000 <_ZNK23ChiFeature2HWmultiframe31OnPopulateConfigurationSettingsEP24ChiFeature2RequestObjectPK21ChiFeature2IdentifierP11ChiMetadata+0x1968>
   2ae1c: 41 ff ff d0  	adrp	x1, 0x14000 <_ZNK23ChiFeature2HWmultiframe31OnPopulateConfigurationSettingsEP24ChiFeature2RequestObjectPK21ChiFeature2IdentifierP11ChiMetadata+0x199c>
   2ae20: 22 ff ff d0  	adrp	x2, 0x10000 <_ZNK23ChiFeature2HWmultiframe31OnPopulateConfigurationSettingsEP24ChiFeature2RequestObjectPK21ChiFeature2IdentifierP11ChiMetadata+0x1990>
   2ae24: 25 ff ff f0  	adrp	x5, 0x11000 <_ZNK23ChiFeature2HWmultiframe31OnPopulateConfigurationSettingsEP24ChiFeature2RequestObjectPK21ChiFeature2IdentifierP11ChiMetadata+0x1998>
   2ae44: 3c ff ff 90  	adrp	x28, 0xe000 <_ZNK23ChiFeature2HWmultiframe31OnPopulateConfigurationSettingsEP24ChiFeature2RequestObjectPK21ChiFeature2IdentifierP11ChiMetadata+0x19ac>
   2ae60: 21 ff ff f0  	adrp	x1, 0x11000 <_ZNK23ChiFeature2HWmultiframe31OnPopulateConfigurationSettingsEP24ChiFeature2RequestObjectPK21ChiFeature2IdentifierP11ChiMetadata+0x19d4>
   2ae68: 40 ff ff b0  	adrp	x0, 0x13000 <_ZNK23ChiFeature2HWmultiframe31OnPopulateConfigurationSettingsEP24ChiFeature2RequestObjectPK21ChiFeature2IdentifierP11ChiMetadata+0x19e4>
   2ae6c: 23 ff ff f0  	adrp	x3, 0x11000 <_ZNK23ChiFeature2HWmultiframe31OnPopulateConfigurationSettingsEP24ChiFeature2RequestObjectPK21ChiFeature2IdentifierP11ChiMetadata+0x19e0>
   2ae70: 05 ff ff f0  	adrp	x5, 0xd000 <_ZNK23ChiFeature2HWmultiframe31OnPopulateConfigurationSettingsEP24ChiFeature2RequestObjectPK21ChiFeature2IdentifierP11ChiMetadata+0x19d4>
   2ae88: 86 74 00 94  	bl	0x480a0 <_ZN6ChiLog9LogSystemEPKcS1_S1_S1_iS1_z@plt>
   2aeac: 41 ff ff 90  	adrp	x1, 0x12000 <_ZNK23ChiFeature2HWmultiframe31OnPopulateConfigurationSettingsEP24ChiFeature2RequestObjectPK21ChiFeature2IdentifierP11ChiMetadata+0x1a24>
   2aeb0: 22 ff ff b0  	adrp	x2, 0xf000 <_ZNK23ChiFeature2HWmultiframe31OnPopulateConfigurationSettingsEP24ChiFeature2RequestObjectPK21ChiFeature2IdentifierP11ChiMetadata+0x1a1c>
   2aecc: 1c 01 00 f0  	adrp	x28, 0x4d000 <_ZNK23ChiFeature2HWmultiframe31OnPopulateConfigurationSettingsEP24ChiFeature2RequestObjectPK21ChiFeature2IdentifierP11ChiMetadata+0x1b30>
   2aee4: 5a 02 00 b4  	cbz	x26, 0x2af2c <_ZNK23ChiFeature2HWmultiframe31OnPopulateConfigurationSettingsEP24ChiFeature2RequestObjectPK21ChiFeature2IdentifierP11ChiMetadata+0x1b04>
   2af08: 56 75 00 94  	bl	0x48460 <_ZN8ChxUtils14GetUsecaseModeEP23camera3_capture_request@plt>
   2af28: 52 75 00 94  	bl	0x48470 <_ZN8ChxUtils18FillTuningModeDataEP11ChiMetadata25ChiModeUsecaseSubModeTypejPjS3_S3_S3_@plt>
   2af38: 41 3f 00 54  	b.ne	0x2b720 <_ZNK23ChiFeature2HWmultiframe31OnPopulateConfigurationSettingsEP24ChiFeature2RequestObjectPK21ChiFeature2IdentifierP11ChiMetadata+0x22f8>
   2af50: a0 00 00 54  	b.eq	0x2af64 <_ZNK23ChiFeature2HWmultiframe31OnPopulateConfigurationSettingsEP24ChiFeature2RequestObjectPK21ChiFeature2IdentifierP11ChiMetadata+0x1b3c>
   2af54: ad 43 ff 35  	cbnz	w13, 0x297c8 <_ZNK23ChiFeature2HWmultiframe31OnPopulateConfigurationSettingsEP24ChiFeature2RequestObjectPK21ChiFeature2IdentifierP11ChiMetadata+0x3a0>
   2af60: 43 43 ff 54  	b.lo	0x297c8 <_ZNK23ChiFeature2HWmultiframe31OnPopulateConfigurationSettingsEP24ChiFeature2RequestObjectPK21ChiFeature2IdentifierP11ChiMetadata+0x3a0>
   2af74: e1 3e 00 54  	b.ne	0x2b750 <_ZNK23ChiFeature2HWmultiframe31OnPopulateConfigurationSettingsEP24ChiFeature2RequestObjectPK21ChiFeature2IdentifierP11ChiMetadata+0x2328>
   2af94: cb 74 00 94  	bl	0x482c0 <_ZN15ExtensionModule11GetInstanceEv@plt>
   2af9c: 39 75 00 94  	bl	0x48480 <_ZN15ExtensionModule15GetVendorTagOpsEP16ChiVendorTagsOps@plt>
   2afbc: 20 ff ff f0  	adrp	x0, 0x11000 <_ZNK23ChiFeature2HWmultiframe31OnPopulateConfigurationSettingsEP24ChiFeature2RequestObjectPK21ChiFeature2IdentifierP11ChiMetadata+0x1b30>
   2afc0: 41 ff ff b0  	adrp	x1, 0x13000 <_ZNK23ChiFeature2HWmultiframe31OnPopulateConfigurationSettingsEP24ChiFeature2RequestObjectPK21ChiFeature2IdentifierP11ChiMetadata+0x1b3c>
   2b010: 70 00 00 b4  	cbz	x16, 0x2b01c <_ZNK23ChiFeature2HWmultiframe31OnPopulateConfigurationSettingsEP24ChiFeature2RequestObjectPK21ChiFeature2IdentifierP11ChiMetadata+0x1bf4>
   2b018: 02 00 00 14  	b	0x2b020 <_ZNK23ChiFeature2HWmultiframe31OnPopulateConfigurationSettingsEP24ChiFeature2RequestObjectPK21ChiFeature2IdentifierP11ChiMetadata+0x1bf8>
   2b020: 1c 01 00 d0  	adrp	x28, 0x4d000 <_ZNK23ChiFeature2HWmultiframe31OnPopulateConfigurationSettingsEP24ChiFeature2RequestObjectPK21ChiFeature2IdentifierP11ChiMetadata+0x1c80>
   2b034: a1 39 00 54  	b.ne	0x2b768 <_ZNK23ChiFeature2HWmultiframe31OnPopulateConfigurationSettingsEP24ChiFeature2RequestObjectPK21ChiFeature2IdentifierP11ChiMetadata+0x2340>
   2b03c: 61 3a 00 54  	b.ne	0x2b788 <_ZNK23ChiFeature2HWmultiframe31OnPopulateConfigurationSettingsEP24ChiFeature2RequestObjectPK21ChiFeature2IdentifierP11ChiMetadata+0x2360>
   2b04c: 01 75 00 94  	bl	0x48450 <_ZNK15ChiFeature2Base18GetSensorModeIndexEPK21ChiFeature2IdentifierP11ChiMetadata@plt>
   2b064: e1 39 00 54  	b.ne	0x2b7a0 <_ZNK23ChiFeature2HWmultiframe31OnPopulateConfigurationSettingsEP24ChiFeature2RequestObjectPK21ChiFeature2IdentifierP11ChiMetadata+0x2378>
   2b070: f4 74 00 94  	bl	0x48440 <_ZNK24ChiFeature2RequestObject23GetUsecaseRequestObjectEv@plt>
   2b084: 56 09 00 b4  	cbz	x22, 0x2b1ac <_ZNK23ChiFeature2HWmultiframe31OnPopulateConfigurationSettingsEP24ChiFeature2RequestObjectPK21ChiFeature2IdentifierP11ChiMetadata+0x1d84>
   2b088: 13 01 00 d0  	adrp	x19, 0x4d000 <_ZNK23ChiFeature2HWmultiframe31OnPopulateConfigurationSettingsEP24ChiFeature2RequestObjectPK21ChiFeature2IdentifierP11ChiMetadata+0x1ce8>
   2b090: ba 0e 00 b4  	cbz	x26, 0x2b264 <_ZNK23ChiFeature2HWmultiframe31OnPopulateConfigurationSettingsEP24ChiFeature2RequestObjectPK21ChiFeature2IdentifierP11ChiMetadata+0x1e3c>
   2b098: 21 ff ff 90  	adrp	x1, 0xf000 <_ZNK23ChiFeature2HWmultiframe31OnPopulateConfigurationSettingsEP24ChiFeature2RequestObjectPK21ChiFeature2IdentifierP11ChiMetadata+0x1c00>
   2b09c: 22 ff ff b0  	adrp	x2, 0x10000 <_ZNK23ChiFeature2HWmultiframe31OnPopulateConfigurationSettingsEP24ChiFeature2RequestObjectPK21ChiFeature2IdentifierP11ChiMetadata+0x1c08>
   2b0b4: f7 74 00 94  	bl	0x48490 <_ZN19ChiFeature2DataPool6GetTagEPKcS1_jRjPj@plt>
   2b0bc: 80 12 00 b4  	cbz	x0, 0x2b30c <_ZNK23ChiFeature2HWmultiframe31OnPopulateConfigurationSettingsEP24ChiFeature2RequestObjectPK21ChiFeature2IdentifierP11ChiMetadata+0x1ee4>
   2b0c4: 6a 06 28 36  	tbz	w10, #5, 0x2b190 <_ZNK23ChiFeature2HWmultiframe31OnPopulateConfigurationSettingsEP24ChiFeature2RequestObjectPK21ChiFeature2IdentifierP11ChiMetadata+0x1d68>
   2b0c8: 05 01 00 d0  	adrp	x5, 0x4d000 <_ZNK23ChiFeature2HWmultiframe31OnPopulateConfigurationSettingsEP24ChiFeature2RequestObjectPK21ChiFeature2IdentifierP11ChiMetadata+0x1d28>
   2b0d8: e1 02 00 54  	b.ne	0x2b134 <_ZNK23ChiFeature2HWmultiframe31OnPopulateConfigurationSettingsEP24ChiFeature2RequestObjectPK21ChiFeature2IdentifierP11ChiMetadata+0x1d0c>
   2b0dc: 13 ff ff f0  	adrp	x19, 0xe000 <_ZNK23ChiFeature2HWmultiframe31OnPopulateConfigurationSettingsEP24ChiFeature2RequestObjectPK21ChiFeature2IdentifierP11ChiMetadata+0x1c40>
   2b100: 41 ff ff b0  	adrp	x1, 0x14000 <_ZNK23ChiFeature2HWmultiframe31OnPopulateConfigurationSettingsEP24ChiFeature2RequestObjectPK21ChiFeature2IdentifierP11ChiMetadata+0x1c7c>
   2b104: 02 ff ff f0  	adrp	x2, 0xe000 <_ZNK23ChiFeature2HWmultiframe31OnPopulateConfigurationSettingsEP24ChiFeature2RequestObjectPK21ChiFeature2IdentifierP11ChiMetadata+0x1c68>
   2b108: 25 ff ff d0  	adrp	x5, 0x11000 <_ZNK23ChiFeature2HWmultiframe31OnPopulateConfigurationSettingsEP24ChiFeature2RequestObjectPK21ChiFeature2IdentifierP11ChiMetadata+0x1c78>
   2b134: 1a ff ff f0  	adrp	x26, 0xe000 <_ZNK23ChiFeature2HWmultiframe31OnPopulateConfigurationSettingsEP24ChiFeature2RequestObjectPK21ChiFeature2IdentifierP11ChiMetadata+0x1c98>
   2b15c: 40 ff ff 90  	adrp	x0, 0x13000 <_ZNK23ChiFeature2HWmultiframe31OnPopulateConfigurationSettingsEP24ChiFeature2RequestObjectPK21ChiFeature2IdentifierP11ChiMetadata+0x1cd4>
   2b160: 21 ff ff d0  	adrp	x1, 0x11000 <_ZNK23ChiFeature2HWmultiframe31OnPopulateConfigurationSettingsEP24ChiFeature2RequestObjectPK21ChiFeature2IdentifierP11ChiMetadata+0x1cd0>
   2b164: 23 ff ff d0  	adrp	x3, 0x11000 <_ZNK23ChiFeature2HWmultiframe31OnPopulateConfigurationSettingsEP24ChiFeature2RequestObjectPK21ChiFeature2IdentifierP11ChiMetadata+0x1cd4>
   2b168: 05 ff ff 90  	adrp	x5, 0xb000 <_ZNK23ChiFeature2HWmultiframe31OnPopulateConfigurationSettingsEP24ChiFeature2RequestObjectPK21ChiFeature2IdentifierP11ChiMetadata+0x1cc0>
   2b18c: c5 73 00 94  	bl	0x480a0 <_ZN6ChiLog9LogSystemEPKcS1_S1_S1_iS1_z@plt>
   2b1a4: bf 74 00 94  	bl	0x484a0 <_ZN19ChiMcxRoiTranslator15ApplyPixelShiftEjjR11ChiMetadata12ChiRoiMPoint@plt>
   2b1a8: 88 f9 ff 17  	b	0x297c8 <_ZNK23ChiFeature2HWmultiframe31OnPopulateConfigurationSettingsEP24ChiFeature2RequestObjectPK21ChiFeature2IdentifierP11ChiMetadata+0x3a0>
   2b1ac: 08 01 00 d0  	adrp	x8, 0x4d000 <_ZNK23ChiFeature2HWmultiframe31OnPopulateConfigurationSettingsEP24ChiFeature2RequestObjectPK21ChiFeature2IdentifierP11ChiMetadata+0x1e0c>
   2b1b8: 8c 30 07 36  	tbz	w12, #0, 0x297c8 <_ZNK23ChiFeature2HWmultiframe31OnPopulateConfigurationSettingsEP24ChiFeature2RequestObjectPK21ChiFeature2IdentifierP11ChiMetadata+0x3a0>
   2b1bc: 15 01 00 d0  	adrp	x21, 0x4d000 <_ZNK23ChiFeature2HWmultiframe31OnPopulateConfigurationSettingsEP24ChiFeature2RequestObjectPK21ChiFeature2IdentifierP11ChiMetadata+0x1e1c>
   2b1cc: 41 02 00 54  	b.ne	0x2b214 <_ZNK23ChiFeature2HWmultiframe31OnPopulateConfigurationSettingsEP24ChiFeature2RequestObjectPK21ChiFeature2IdentifierP11ChiMetadata+0x1dec>
   2b1d0: 17 ff ff f0  	adrp	x23, 0xe000 <_ZNK23ChiFeature2HWmultiframe31OnPopulateConfigurationSettingsEP24ChiFeature2RequestObjectPK21ChiFeature2IdentifierP11ChiMetadata+0x1d34>
   2b1ec: 41 ff ff b0  	adrp	x1, 0x14000 <_ZNK23ChiFeature2HWmultiframe31OnPopulateConfigurationSettingsEP24ChiFeature2RequestObjectPK21ChiFeature2IdentifierP11ChiMetadata+0x1d68>
   2b1f0: 42 ff ff b0  	adrp	x2, 0x14000 <_ZNK23ChiFeature2HWmultiframe31OnPopulateConfigurationSettingsEP24ChiFeature2RequestObjectPK21ChiFeature2IdentifierP11ChiMetadata+0x1d6c>
   2b1f4: 25 ff ff d0  	adrp	x5, 0x11000 <_ZNK23ChiFeature2HWmultiframe31OnPopulateConfigurationSettingsEP24ChiFeature2RequestObjectPK21ChiFeature2IdentifierP11ChiMetadata+0x1d64>
   2b214: 19 ff ff f0  	adrp	x25, 0xe000 <_ZNK23ChiFeature2HWmultiframe31OnPopulateConfigurationSettingsEP24ChiFeature2RequestObjectPK21ChiFeature2IdentifierP11ChiMetadata+0x1d78>
   2b230: 41 ff ff 90  	adrp	x1, 0x13000 <_ZNK23ChiFeature2HWmultiframe31OnPopulateConfigurationSettingsEP24ChiFeature2RequestObjectPK21ChiFeature2IdentifierP11ChiMetadata+0x1da8>
   2b238: 00 ff ff d0  	adrp	x0, 0xd000 <_ZNK23ChiFeature2HWmultiframe31OnPopulateConfigurationSettingsEP24ChiFeature2RequestObjectPK21ChiFeature2IdentifierP11ChiMetadata+0x1d98>
   2b23c: 23 ff ff d0  	adrp	x3, 0x11000 <_ZNK23ChiFeature2HWmultiframe31OnPopulateConfigurationSettingsEP24ChiFeature2RequestObjectPK21ChiFeature2IdentifierP11ChiMetadata+0x1dac>
   2b240: 25 ff ff 90  	adrp	x5, 0xf000 <_ZNK23ChiFeature2HWmultiframe31OnPopulateConfigurationSettingsEP24ChiFeature2RequestObjectPK21ChiFeature2IdentifierP11ChiMetadata+0x1da8>
   2b258: 92 73 00 94  	bl	0x480a0 <_ZN6ChiLog9LogSystemEPKcS1_S1_S1_iS1_z@plt>
   2b260: 5a f9 ff 17  	b	0x297c8 <_ZNK23ChiFeature2HWmultiframe31OnPopulateConfigurationSettingsEP24ChiFeature2RequestObjectPK21ChiFeature2IdentifierP11ChiMetadata+0x3a0>
   2b268: 18 2b 07 36  	tbz	w24, #0, 0x297c8 <_ZNK23ChiFeature2HWmultiframe31OnPopulateConfigurationSettingsEP24ChiFeature2RequestObjectPK21ChiFeature2IdentifierP11ChiMetadata+0x3a0>
   2b26c: 16 01 00 d0  	adrp	x22, 0x4d000 <_ZNK23ChiFeature2HWmultiframe31OnPopulateConfigurationSettingsEP24ChiFeature2RequestObjectPK21ChiFeature2IdentifierP11ChiMetadata+0x1ecc>
   2b27c: 41 02 00 54  	b.ne	0x2b2c4 <_ZNK23ChiFeature2HWmultiframe31OnPopulateConfigurationSettingsEP24ChiFeature2RequestObjectPK21ChiFeature2IdentifierP11ChiMetadata+0x1e9c>
   2b280: 18 ff ff f0  	adrp	x24, 0xe000 <_ZNK23ChiFeature2HWmultiframe31OnPopulateConfigurationSettingsEP24ChiFeature2RequestObjectPK21ChiFeature2IdentifierP11ChiMetadata+0x1de4>
   2b29c: 41 ff ff b0  	adrp	x1, 0x14000 <_ZNK23ChiFeature2HWmultiframe31OnPopulateConfigurationSettingsEP24ChiFeature2RequestObjectPK21ChiFeature2IdentifierP11ChiMetadata+0x1e18>
   2b2a0: 22 ff ff d0  	adrp	x2, 0x11000 <_ZNK23ChiFeature2HWmultiframe31OnPopulateConfigurationSettingsEP24ChiFeature2RequestObjectPK21ChiFeature2IdentifierP11ChiMetadata+0x1e10>
   2b2a4: 25 ff ff d0  	adrp	x5, 0x11000 <_ZNK23ChiFeature2HWmultiframe31OnPopulateConfigurationSettingsEP24ChiFeature2RequestObjectPK21ChiFeature2IdentifierP11ChiMetadata+0x1e14>
   2b2c4: 1c ff ff f0  	adrp	x28, 0xe000 <_ZNK23ChiFeature2HWmultiframe31OnPopulateConfigurationSettingsEP24ChiFeature2RequestObjectPK21ChiFeature2IdentifierP11ChiMetadata+0x1e28>
   2b2e0: 41 ff ff 90  	adrp	x1, 0x13000 <_ZNK23ChiFeature2HWmultiframe31OnPopulateConfigurationSettingsEP24ChiFeature2RequestObjectPK21ChiFeature2IdentifierP11ChiMetadata+0x1e58>
   2b2e8: 00 ff ff d0  	adrp	x0, 0xd000 <_ZNK23ChiFeature2HWmultiframe31OnPopulateConfigurationSettingsEP24ChiFeature2RequestObjectPK21ChiFeature2IdentifierP11ChiMetadata+0x1e48>
   2b2ec: 23 ff ff d0  	adrp	x3, 0x11000 <_ZNK23ChiFeature2HWmultiframe31OnPopulateConfigurationSettingsEP24ChiFeature2RequestObjectPK21ChiFeature2IdentifierP11ChiMetadata+0x1e5c>
   2b2f0: 25 ff ff f0  	adrp	x5, 0x12000 <_ZNK23ChiFeature2HWmultiframe31OnPopulateConfigurationSettingsEP24ChiFeature2RequestObjectPK21ChiFeature2IdentifierP11ChiMetadata+0x1e64>
   2b308: 2f f9 ff 17  	b	0x297c4 <_ZNK23ChiFeature2HWmultiframe31OnPopulateConfigurationSettingsEP24ChiFeature2RequestObjectPK21ChiFeature2IdentifierP11ChiMetadata+0x39c>
   2b30c: ea 25 2f 36  	tbz	w10, #5, 0x297c8 <_ZNK23ChiFeature2HWmultiframe31OnPopulateConfigurationSettingsEP24ChiFeature2RequestObjectPK21ChiFeature2IdentifierP11ChiMetadata+0x3a0>
   2b310: 14 01 00 d0  	adrp	x20, 0x4d000 <_ZNK23ChiFeature2HWmultiframe31OnPopulateConfigurationSettingsEP24ChiFeature2RequestObjectPK21ChiFeature2IdentifierP11ChiMetadata+0x1f70>
   2b320: 61 02 00 54  	b.ne	0x2b36c <_ZNK23ChiFeature2HWmultiframe31OnPopulateConfigurationSettingsEP24ChiFeature2RequestObjectPK21ChiFeature2IdentifierP11ChiMetadata+0x1f44>
   2b324: 19 ff ff f0  	adrp	x25, 0xe000 <_ZNK23ChiFeature2HWmultiframe31OnPopulateConfigurationSettingsEP24ChiFeature2RequestObjectPK21ChiFeature2IdentifierP11ChiMetadata+0x1e88>
   2b340: 41 ff ff b0  	adrp	x1, 0x14000 <_ZNK23ChiFeature2HWmultiframe31OnPopulateConfigurationSettingsEP24ChiFeature2RequestObjectPK21ChiFeature2IdentifierP11ChiMetadata+0x1ebc>
   2b344: 22 ff ff b0  	adrp	x2, 0x10000 <_ZNK23ChiFeature2HWmultiframe31OnPopulateConfigurationSettingsEP24ChiFeature2RequestObjectPK21ChiFeature2IdentifierP11ChiMetadata+0x1eb0>
   2b348: 25 ff ff d0  	adrp	x5, 0x11000 <_ZNK23ChiFeature2HWmultiframe31OnPopulateConfigurationSettingsEP24ChiFeature2RequestObjectPK21ChiFeature2IdentifierP11ChiMetadata+0x1eb8>
   2b36c: 16 ff ff f0  	adrp	x22, 0xe000 <_ZNK23ChiFeature2HWmultiframe31OnPopulateConfigurationSettingsEP24ChiFeature2RequestObjectPK21ChiFeature2IdentifierP11ChiMetadata+0x1ed0>
   2b388: 21 ff ff d0  	adrp	x1, 0x11000 <_ZNK23ChiFeature2HWmultiframe31OnPopulateConfigurationSettingsEP24ChiFeature2RequestObjectPK21ChiFeature2IdentifierP11ChiMetadata+0x1ef8>
   2b390: 40 ff ff 90  	adrp	x0, 0x13000 <_ZNK23ChiFeature2HWmultiframe31OnPopulateConfigurationSettingsEP24ChiFeature2RequestObjectPK21ChiFeature2IdentifierP11ChiMetadata+0x1f08>
   2b394: 23 ff ff d0  	adrp	x3, 0x11000 <_ZNK23ChiFeature2HWmultiframe31OnPopulateConfigurationSettingsEP24ChiFeature2RequestObjectPK21ChiFeature2IdentifierP11ChiMetadata+0x1f04>
   2b398: 05 ff ff f0  	adrp	x5, 0xe000 <_ZNK23ChiFeature2HWmultiframe31OnPopulateConfigurationSettingsEP24ChiFeature2RequestObjectPK21ChiFeature2IdentifierP11ChiMetadata+0x1efc>
   2b3b0: 05 f9 ff 17  	b	0x297c4 <_ZNK23ChiFeature2HWmultiframe31OnPopulateConfigurationSettingsEP24ChiFeature2RequestObjectPK21ChiFeature2IdentifierP11ChiMetadata+0x39c>
   2b3bc: 45 f9 ff 17  	b	0x298d0 <_ZNK23ChiFeature2HWmultiframe31OnPopulateConfigurationSettingsEP24ChiFeature2RequestObjectPK21ChiFeature2IdentifierP11ChiMetadata+0x4a8>
   2b3c8: 8e 0e 00 b4  	cbz	x14, 0x2b598 <_ZNK23ChiFeature2HWmultiframe31OnPopulateConfigurationSettingsEP24ChiFeature2RequestObjectPK21ChiFeature2IdentifierP11ChiMetadata+0x2170>
   2b3d0: 4f 0e 00 b4  	cbz	x15, 0x2b598 <_ZNK23ChiFeature2HWmultiframe31OnPopulateConfigurationSettingsEP24ChiFeature2RequestObjectPK21ChiFeature2IdentifierP11ChiMetadata+0x2170>
   2b3d4: 0c 01 00 d0  	adrp	x12, 0x4d000 <_ZNK23ChiFeature2HWmultiframe31OnPopulateConfigurationSettingsEP24ChiFeature2RequestObjectPK21ChiFeature2IdentifierP11ChiMetadata+0x2034>
   2b3d8: 1c 01 00 d0  	adrp	x28, 0x4d000 <_ZNK23ChiFeature2HWmultiframe31OnPopulateConfigurationSettingsEP24ChiFeature2RequestObjectPK21ChiFeature2IdentifierP11ChiMetadata+0x2038>
   2b3ec: 51 0e 28 36  	tbz	w17, #5, 0x2b5b4 <_ZNK23ChiFeature2HWmultiframe31OnPopulateConfigurationSettingsEP24ChiFeature2RequestObjectPK21ChiFeature2IdentifierP11ChiMetadata+0x218c>
   2b3f0: 1b 01 00 d0  	adrp	x27, 0x4d000 <_ZNK23ChiFeature2HWmultiframe31OnPopulateConfigurationSettingsEP24ChiFeature2RequestObjectPK21ChiFeature2IdentifierP11ChiMetadata+0x2050>
   2b404: a1 03 00 54  	b.ne	0x2b478 <_ZNK23ChiFeature2HWmultiframe31OnPopulateConfigurationSettingsEP24ChiFeature2RequestObjectPK21ChiFeature2IdentifierP11ChiMetadata+0x2050>
   2b408: 1c ff ff f0  	adrp	x28, 0xe000 <_ZNK23ChiFeature2HWmultiframe31OnPopulateConfigurationSettingsEP24ChiFeature2RequestObjectPK21ChiFeature2IdentifierP11ChiMetadata+0x1f6c>
   2b42c: 41 ff ff b0  	adrp	x1, 0x14000 <_ZNK23ChiFeature2HWmultiframe31OnPopulateConfigurationSettingsEP24ChiFeature2RequestObjectPK21ChiFeature2IdentifierP11ChiMetadata+0x1fa8>
   2b430: 02 ff ff d0  	adrp	x2, 0xd000 <_ZNK23ChiFeature2HWmultiframe31OnPopulateConfigurationSettingsEP24ChiFeature2RequestObjectPK21ChiFeature2IdentifierP11ChiMetadata+0x1f90>
   2b434: 25 ff ff d0  	adrp	x5, 0x11000 <_ZNK23ChiFeature2HWmultiframe31OnPopulateConfigurationSettingsEP24ChiFeature2RequestObjectPK21ChiFeature2IdentifierP11ChiMetadata+0x1fa4>
   2b464: 1c 01 00 d0  	adrp	x28, 0x4d000 <_ZNK23ChiFeature2HWmultiframe31OnPopulateConfigurationSettingsEP24ChiFeature2RequestObjectPK21ChiFeature2IdentifierP11ChiMetadata+0x20c4>
   2b478: 17 ff ff f0  	adrp	x23, 0xe000 <_ZNK23ChiFeature2HWmultiframe31OnPopulateConfigurationSettingsEP24ChiFeature2RequestObjectPK21ChiFeature2IdentifierP11ChiMetadata+0x1fdc>
   2b49c: 40 ff ff 90  	adrp	x0, 0x13000 <_ZNK23ChiFeature2HWmultiframe31OnPopulateConfigurationSettingsEP24ChiFeature2RequestObjectPK21ChiFeature2IdentifierP11ChiMetadata+0x2014>
   2b4a0: 21 ff ff d0  	adrp	x1, 0x11000 <_ZNK23ChiFeature2HWmultiframe31OnPopulateConfigurationSettingsEP24ChiFeature2RequestObjectPK21ChiFeature2IdentifierP11ChiMetadata+0x2010>
   2b4a4: 23 ff ff d0  	adrp	x3, 0x11000 <_ZNK23ChiFeature2HWmultiframe31OnPopulateConfigurationSettingsEP24ChiFeature2RequestObjectPK21ChiFeature2IdentifierP11ChiMetadata+0x2014>
   2b4a8: 45 ff ff b0  	adrp	x5, 0x14000 <_ZNK23ChiFeature2HWmultiframe31OnPopulateConfigurationSettingsEP24ChiFeature2RequestObjectPK21ChiFeature2IdentifierP11ChiMetadata+0x2024>
   2b4e0: f0 72 00 94  	bl	0x480a0 <_ZN6ChiLog9LogSystemEPKcS1_S1_S1_iS1_z@plt>
   2b4e4: 6d 00 00 14  	b	0x2b698 <_ZNK23ChiFeature2HWmultiframe31OnPopulateConfigurationSettingsEP24ChiFeature2RequestObjectPK21ChiFeature2IdentifierP11ChiMetadata+0x2270>
   2b4e8: 08 01 00 d0  	adrp	x8, 0x4d000 <_ZNK23ChiFeature2HWmultiframe31OnPopulateConfigurationSettingsEP24ChiFeature2RequestObjectPK21ChiFeature2IdentifierP11ChiMetadata+0x2148>
   2b4ec: 1c 01 00 d0  	adrp	x28, 0x4d000 <_ZNK23ChiFeature2HWmultiframe31OnPopulateConfigurationSettingsEP24ChiFeature2RequestObjectPK21ChiFeature2IdentifierP11ChiMetadata+0x214c>
   2b500: 41 02 00 54  	b.ne	0x2b548 <_ZNK23ChiFeature2HWmultiframe31OnPopulateConfigurationSettingsEP24ChiFeature2RequestObjectPK21ChiFeature2IdentifierP11ChiMetadata+0x2120>
   2b504: 17 ff ff f0  	adrp	x23, 0xe000 <_ZNK23ChiFeature2HWmultiframe31OnPopulateConfigurationSettingsEP24ChiFeature2RequestObjectPK21ChiFeature2IdentifierP11ChiMetadata+0x2068>
   2b520: 41 ff ff b0  	adrp	x1, 0x14000 <_ZNK23ChiFeature2HWmultiframe31OnPopulateConfigurationSettingsEP24ChiFeature2RequestObjectPK21ChiFeature2IdentifierP11ChiMetadata+0x209c>
   2b524: 42 ff ff b0  	adrp	x2, 0x14000 <_ZNK23ChiFeature2HWmultiframe31OnPopulateConfigurationSettingsEP24ChiFeature2RequestObjectPK21ChiFeature2IdentifierP11ChiMetadata+0x20a0>
   2b528: 25 ff ff d0  	adrp	x5, 0x11000 <_ZNK23ChiFeature2HWmultiframe31OnPopulateConfigurationSettingsEP24ChiFeature2RequestObjectPK21ChiFeature2IdentifierP11ChiMetadata+0x2098>
   2b548: 1a ff ff f0  	adrp	x26, 0xe000 <_ZNK23ChiFeature2HWmultiframe31OnPopulateConfigurationSettingsEP24ChiFeature2RequestObjectPK21ChiFeature2IdentifierP11ChiMetadata+0x20ac>
   2b564: 01 ff ff f0  	adrp	x1, 0xe000 <_ZNK23ChiFeature2HWmultiframe31OnPopulateConfigurationSettingsEP24ChiFeature2RequestObjectPK21ChiFeature2IdentifierP11ChiMetadata+0x20c8>
   2b56c: 20 ff ff d0  	adrp	x0, 0x11000 <_ZNK23ChiFeature2HWmultiframe31OnPopulateConfigurationSettingsEP24ChiFeature2RequestObjectPK21ChiFeature2IdentifierP11ChiMetadata+0x20dc>
   2b570: 23 ff ff d0  	adrp	x3, 0x11000 <_ZNK23ChiFeature2HWmultiframe31OnPopulateConfigurationSettingsEP24ChiFeature2RequestObjectPK21ChiFeature2IdentifierP11ChiMetadata+0x20e0>
   2b574: 45 ff ff 90  	adrp	x5, 0x13000 <_ZNK23ChiFeature2HWmultiframe31OnPopulateConfigurationSettingsEP24ChiFeature2RequestObjectPK21ChiFeature2IdentifierP11ChiMetadata+0x20ec>
   2b58c: c5 72 00 94  	bl	0x480a0 <_ZN6ChiLog9LogSystemEPKcS1_S1_S1_iS1_z@plt>
   2b594: 64 fd ff 17  	b	0x2ab24 <_ZNK23ChiFeature2HWmultiframe31OnPopulateConfigurationSettingsEP24ChiFeature2RequestObjectPK21ChiFeature2IdentifierP11ChiMetadata+0x16fc>
   2b598: 0d 01 00 d0  	adrp	x13, 0x4d000 <_ZNK23ChiFeature2HWmultiframe31OnPopulateConfigurationSettingsEP24ChiFeature2RequestObjectPK21ChiFeature2IdentifierP11ChiMetadata+0x21f8>
   2b59c: 1c 01 00 d0  	adrp	x28, 0x4d000 <_ZNK23ChiFeature2HWmultiframe31OnPopulateConfigurationSettingsEP24ChiFeature2RequestObjectPK21ChiFeature2IdentifierP11ChiMetadata+0x21fc>
   2b5b0: 62 00 28 37  	tbnz	w2, #5, 0x2b5bc <_ZNK23ChiFeature2HWmultiframe31OnPopulateConfigurationSettingsEP24ChiFeature2RequestObjectPK21ChiFeature2IdentifierP11ChiMetadata+0x2194>
   2b5b8: 5b fd ff 17  	b	0x2ab24 <_ZNK23ChiFeature2HWmultiframe31OnPopulateConfigurationSettingsEP24ChiFeature2RequestObjectPK21ChiFeature2IdentifierP11ChiMetadata+0x16fc>
   2b5bc: 0b 01 00 d0  	adrp	x11, 0x4d000 <_ZNK23ChiFeature2HWmultiframe31OnPopulateConfigurationSettingsEP24ChiFeature2RequestObjectPK21ChiFeature2IdentifierP11ChiMetadata+0x221c>
   2b5d0: 41 03 00 54  	b.ne	0x2b638 <_ZNK23ChiFeature2HWmultiframe31OnPopulateConfigurationSettingsEP24ChiFeature2RequestObjectPK21ChiFeature2IdentifierP11ChiMetadata+0x2210>
   2b5d4: 1c ff ff f0  	adrp	x28, 0xe000 <_ZNK23ChiFeature2HWmultiframe31OnPopulateConfigurationSettingsEP24ChiFeature2RequestObjectPK21ChiFeature2IdentifierP11ChiMetadata+0x2138>
   2b5f8: 41 ff ff b0  	adrp	x1, 0x14000 <_ZNK23ChiFeature2HWmultiframe31OnPopulateConfigurationSettingsEP24ChiFeature2RequestObjectPK21ChiFeature2IdentifierP11ChiMetadata+0x2174>
   2b5fc: 42 ff ff 90  	adrp	x2, 0x13000 <_ZNK23ChiFeature2HWmultiframe31OnPopulateConfigurationSettingsEP24ChiFeature2RequestObjectPK21ChiFeature2IdentifierP11ChiMetadata+0x2174>
   2b600: 25 ff ff d0  	adrp	x5, 0x11000 <_ZNK23ChiFeature2HWmultiframe31OnPopulateConfigurationSettingsEP24ChiFeature2RequestObjectPK21ChiFeature2IdentifierP11ChiMetadata+0x2170>
   2b628: 1c 01 00 d0  	adrp	x28, 0x4d000 <_ZNK23ChiFeature2HWmultiframe31OnPopulateConfigurationSettingsEP24ChiFeature2RequestObjectPK21ChiFeature2IdentifierP11ChiMetadata+0x2288>
   2b638: 17 ff ff f0  	adrp	x23, 0xe000 <_ZNK23ChiFeature2HWmultiframe31OnPopulateConfigurationSettingsEP24ChiFeature2RequestObjectPK21ChiFeature2IdentifierP11ChiMetadata+0x219c>
   2b660: 40 ff ff 90  	adrp	x0, 0x13000 <_ZNK23ChiFeature2HWmultiframe31OnPopulateConfigurationSettingsEP24ChiFeature2RequestObjectPK21ChiFeature2IdentifierP11ChiMetadata+0x21d8>
   2b664: 21 ff ff d0  	adrp	x1, 0x11000 <_ZNK23ChiFeature2HWmultiframe31OnPopulateConfigurationSettingsEP24ChiFeature2RequestObjectPK21ChiFeature2IdentifierP11ChiMetadata+0x21d4>
   2b668: 23 ff ff d0  	adrp	x3, 0x11000 <_ZNK23ChiFeature2HWmultiframe31OnPopulateConfigurationSettingsEP24ChiFeature2RequestObjectPK21ChiFeature2IdentifierP11ChiMetadata+0x21d8>
   2b67c: 25 ff ff b0  	adrp	x5, 0x10000 <_ZNK23ChiFeature2HWmultiframe31OnPopulateConfigurationSettingsEP24ChiFeature2RequestObjectPK21ChiFeature2IdentifierP11ChiMetadata+0x21e8>
   2b694: 83 72 00 94  	bl	0x480a0 <_ZN6ChiLog9LogSystemEPKcS1_S1_S1_iS1_z@plt>
   2b6a0: 21 fd ff 17  	b	0x2ab24 <_ZNK23ChiFeature2HWmultiframe31OnPopulateConfigurationSettingsEP24ChiFeature2RequestObjectPK21ChiFeature2IdentifierP11ChiMetadata+0x16fc>
   2b6b8: 74 f7 ff 17  	b	0x29488 <_ZNK23ChiFeature2HWmultiframe31OnPopulateConfigurationSettingsEP24ChiFeature2RequestObjectPK21ChiFeature2IdentifierP11ChiMetadata+0x60>
   2b6d0: 7c f7 ff 17  	b	0x294c0 <_ZNK23ChiFeature2HWmultiframe31OnPopulateConfigurationSettingsEP24ChiFeature2RequestObjectPK21ChiFeature2IdentifierP11ChiMetadata+0x98>
   2b6ec: ab f7 ff 17  	b	0x29598 <_ZNK23ChiFeature2HWmultiframe31OnPopulateConfigurationSettingsEP24ChiFeature2RequestObjectPK21ChiFeature2IdentifierP11ChiMetadata+0x170>
   2b704: a8 f7 ff 17  	b	0x295a4 <_ZNK23ChiFeature2HWmultiframe31OnPopulateConfigurationSettingsEP24ChiFeature2RequestObjectPK21ChiFeature2IdentifierP11ChiMetadata+0x17c>
   2b71c: 09 fd ff 17  	b	0x2ab40 <_ZNK23ChiFeature2HWmultiframe31OnPopulateConfigurationSettingsEP24ChiFeature2RequestObjectPK21ChiFeature2IdentifierP11ChiMetadata+0x1718>
   2b734: 02 fe ff 17  	b	0x2af3c <_ZNK23ChiFeature2HWmultiframe31OnPopulateConfigurationSettingsEP24ChiFeature2RequestObjectPK21ChiFeature2IdentifierP11ChiMetadata+0x1b14>
   2b74c: 94 fc ff 17  	b	0x2a99c <_ZNK23ChiFeature2HWmultiframe31OnPopulateConfigurationSettingsEP24ChiFeature2RequestObjectPK21ChiFeature2IdentifierP11ChiMetadata+0x1574>
   2b764: 05 fe ff 17  	b	0x2af78 <_ZNK23ChiFeature2HWmultiframe31OnPopulateConfigurationSettingsEP24ChiFeature2RequestObjectPK21ChiFeature2IdentifierP11ChiMetadata+0x1b50>
   2b784: e0 c5 ff 54  	b.eq	0x2b040 <_ZNK23ChiFeature2HWmultiframe31OnPopulateConfigurationSettingsEP24ChiFeature2RequestObjectPK21ChiFeature2IdentifierP11ChiMetadata+0x1c18>
   2b79c: 29 fe ff 17  	b	0x2b040 <_ZNK23ChiFeature2HWmultiframe31OnPopulateConfigurationSettingsEP24ChiFeature2RequestObjectPK21ChiFeature2IdentifierP11ChiMetadata+0x1c18>
   2b7b4: 2d fe ff 17  	b	0x2b068 <_ZNK23ChiFeature2HWmultiframe31OnPopulateConfigurationSettingsEP24ChiFeature2RequestObjectPK21ChiFeature2IdentifierP11ChiMetadata+0x1c40>
   2b7d4: 7b f8 ff 17  	b	0x299c0 <_ZNK23ChiFeature2HWmultiframe31OnPopulateConfigurationSettingsEP24ChiFeature2RequestObjectPK21ChiFeature2IdentifierP11ChiMetadata+0x598>
   2b810: 61 00 00 54  	b.ne	0x2b81c <_ZNK23ChiFeature2HWmultiframe31OnPopulateConfigurationSettingsEP24ChiFeature2RequestObjectPK21ChiFeature2IdentifierP11ChiMetadata+0x23f4>
   2b818: 35 00 00 14  	b	0x2b8ec <_ZNK23ChiFeature2HWmultiframe31OnPopulateConfigurationSettingsEP24ChiFeature2RequestObjectPK21ChiFeature2IdentifierP11ChiMetadata+0x24c4>
   2b820: 0c 01 00 d0  	adrp	x12, 0x4d000 <_ZNK23ChiFeature2HWmultiframe31OnPopulateConfigurationSettingsEP24ChiFeature2RequestObjectPK21ChiFeature2IdentifierP11ChiMetadata+0x2480>
   2b830: 81 01 00 54  	b.ne	0x2b860 <_ZNK23ChiFeature2HWmultiframe31OnPopulateConfigurationSettingsEP24ChiFeature2RequestObjectPK21ChiFeature2IdentifierP11ChiMetadata+0x2438>
   2b838: 41 03 00 54  	b.ne	0x2b8a0 <_ZNK23ChiFeature2HWmultiframe31OnPopulateConfigurationSettingsEP24ChiFeature2RequestObjectPK21ChiFeature2IdentifierP11ChiMetadata+0x2478>
   2b840: ca 04 00 b4  	cbz	x10, 0x2b8d8 <_ZNK23ChiFeature2HWmultiframe31OnPopulateConfigurationSettingsEP24ChiFeature2RequestObjectPK21ChiFeature2IdentifierP11ChiMetadata+0x24b0>
   2b850: 61 05 00 54  	b.ne	0x2b8fc <_ZNK23ChiFeature2HWmultiframe31OnPopulateConfigurationSettingsEP24ChiFeature2RequestObjectPK21ChiFeature2IdentifierP11ChiMetadata+0x24d4>
   2b85c: 20 00 00 14  	b	0x2b8dc <_ZNK23ChiFeature2HWmultiframe31OnPopulateConfigurationSettingsEP24ChiFeature2RequestObjectPK21ChiFeature2IdentifierP11ChiMetadata+0x24b4>
   2b888: 0c 01 00 d0  	adrp	x12, 0x4d000 <_ZNK23ChiFeature2HWmultiframe31OnPopulateConfigurationSettingsEP24ChiFeature2RequestObjectPK21ChiFeature2IdentifierP11ChiMetadata+0x24e8>
   2b89c: 00 fd ff 54  	b.eq	0x2b83c <_ZNK23ChiFeature2HWmultiframe31OnPopulateConfigurationSettingsEP24ChiFeature2RequestObjectPK21ChiFeature2IdentifierP11ChiMetadata+0x2414>
   2b8c0: 0c 01 00 d0  	adrp	x12, 0x4d000 <_ZNK23ChiFeature2HWmultiframe27GetPrivateContextForRequestEP24ChiFeature2RequestObject+0x20>
   2b8d4: 8a fb ff b5  	cbnz	x10, 0x2b844 <_ZNK23ChiFeature2HWmultiframe31OnPopulateConfigurationSettingsEP24ChiFeature2RequestObjectPK21ChiFeature2IdentifierP11ChiMetadata+0x241c>
   2b924: cc ff ff 17  	b	0x2b854 <_ZNK23ChiFeature2HWmultiframe31OnPopulateConfigurationSettingsEP24ChiFeature2RequestObjectPK21ChiFeature2IdentifierP11ChiMetadata+0x242c>
000000000002b928 <_ZNK23ChiFeature2HWmultiframe27GetPrivateContextForRequestEP24ChiFeature2RequestObject>:
   2b940: 08 01 00 d0  	adrp	x8, 0x4d000 <_ZNK23ChiFeature2HWmultiframe27GetPrivateContextForRequestEP24ChiFeature2RequestObject+0xa0>
   2b954: e1 01 00 54  	b.ne	0x2b990 <_ZNK23ChiFeature2HWmultiframe27GetPrivateContextForRequestEP24ChiFeature2RequestObject+0x68>
   2b95c: d9 71 00 94  	bl	0x480c0 <_ZNK15ChiFeature2Base21GetFeaturePrivContextEP24ChiFeature2RequestObject@plt>
   2b960: 00 01 00 b4  	cbz	x0, 0x2b980 <_ZNK23ChiFeature2HWmultiframe27GetPrivateContextForRequestEP24ChiFeature2RequestObject+0x58>
   2b96c: 82 00 00 54  	b.hs	0x2b97c <_ZNK23ChiFeature2HWmultiframe27GetPrivateContextForRequestEP24ChiFeature2RequestObject+0x54>
   2b978: 02 00 00 14  	b	0x2b980 <_ZNK23ChiFeature2HWmultiframe27GetPrivateContextForRequestEP24ChiFeature2RequestObject+0x58>
   2b9b0: ea ff ff 17  	b	0x2b958 <_ZNK23ChiFeature2HWmultiframe27GetPrivateContextForRequestEP24ChiFeature2RequestObject+0x30>
   2b9c8: e2 01 00 b4  	cbz	x2, 0x2ba04 <_ZNK23ChiFeature2HWmultiframe27GetPrivateContextForRequestEP24ChiFeature2RequestObject+0xdc>
   2b9d8: b6 72 00 94  	bl	0x484b0 <_ZN22CHITargetBufferManager22GetTargetBufferManagerEPv@plt>
   2b9dc: 00 02 00 b4  	cbz	x0, 0x2ba1c <_ZNK23ChiFeature2HWmultiframe27GetPrivateContextForRequestEP24ChiFeature2RequestObject+0xf4>
   2b9e8: b6 72 00 94  	bl	0x484c0 <_ZN22CHITargetBufferManager9GetTargetEPvm@plt>
   2b9ec: 60 0c 00 b4  	cbz	x0, 0x2bb78 <_ZNK23ChiFeature2HWmultiframe27GetPrivateContextForRequestEP24ChiFeature2RequestObject+0x250>
   2b9f8: 68 12 00 b4  	cbz	x8, 0x2bc44 <_ZNK23ChiFeature2HWmultiframe27GetPrivateContextForRequestEP24ChiFeature2RequestObject+0x31c>
   2ba00: 8d 00 00 14  	b	0x2bc34 <_ZNK23ChiFeature2HWmultiframe27GetPrivateContextForRequestEP24ChiFeature2RequestObject+0x30c>
   2ba04: 08 01 00 d0  	adrp	x8, 0x4d000 <_ZNK23ChiFeature2HWmultiframe27GetPrivateContextForRequestEP24ChiFeature2RequestObject+0x164>
   2ba10: 08 06 00 37  	tbnz	w8, #0, 0x2bad0 <_ZNK23ChiFeature2HWmultiframe27GetPrivateContextForRequestEP24ChiFeature2RequestObject+0x1a8>
   2ba18: 87 00 00 14  	b	0x2bc34 <_ZNK23ChiFeature2HWmultiframe27GetPrivateContextForRequestEP24ChiFeature2RequestObject+0x30c>
   2ba1c: 0a 01 00 d0  	adrp	x10, 0x4d000 <_ZNK23ChiFeature2HWmultiframe27GetPrivateContextForRequestEP24ChiFeature2RequestObject+0x17c>
   2ba28: 49 10 00 36  	tbz	w9, #0, 0x2bc30 <_ZNK23ChiFeature2HWmultiframe27GetPrivateContextForRequestEP24ChiFeature2RequestObject+0x308>
   2ba2c: 0b 01 00 d0  	adrp	x11, 0x4d000 <_ZNK23ChiFeature2HWmultiframe27GetPrivateContextForRequestEP24ChiFeature2RequestObject+0x18c>
   2ba3c: 61 02 00 54  	b.ne	0x2ba88 <_ZNK23ChiFeature2HWmultiframe27GetPrivateContextForRequestEP24ChiFeature2RequestObject+0x160>
   2ba40: 15 ff ff b0  	adrp	x21, 0xc000 <_ZNK23ChiFeature2HWmultiframe27GetPrivateContextForRequestEP24ChiFeature2RequestObject+0x9c>
   2ba5c: 41 ff ff b0  	adrp	x1, 0x14000 <_ZNK23ChiFeature2HWmultiframe27GetPrivateContextForRequestEP24ChiFeature2RequestObject+0xd8>
   2ba60: 42 ff ff b0  	adrp	x2, 0x14000 <_ZNK23ChiFeature2HWmultiframe27GetPrivateContextForRequestEP24ChiFeature2RequestObject+0xdc>
   2ba64: 25 ff ff f0  	adrp	x5, 0x12000 <_ZNK23ChiFeature2HWmultiframe27GetPrivateContextForRequestEP24ChiFeature2RequestObject+0xd8>
   2ba88: 15 ff ff b0  	adrp	x21, 0xc000 <_ZNK23ChiFeature2HWmultiframe27GetPrivateContextForRequestEP24ChiFeature2RequestObject+0xe4>
   2baa4: 41 ff ff 90  	adrp	x1, 0x13000 <_ZNK23ChiFeature2HWmultiframe27GetPrivateContextForRequestEP24ChiFeature2RequestObject+0x11c>
   2baac: 00 ff ff d0  	adrp	x0, 0xd000 <_ZNK23ChiFeature2HWmultiframe27GetPrivateContextForRequestEP24ChiFeature2RequestObject+0x10c>
   2bab0: 23 ff ff f0  	adrp	x3, 0x12000 <_ZNK23ChiFeature2HWmultiframe27GetPrivateContextForRequestEP24ChiFeature2RequestObject+0x124>
   2bab4: 05 ff ff f0  	adrp	x5, 0xe000 <_ZNK23ChiFeature2HWmultiframe27GetPrivateContextForRequestEP24ChiFeature2RequestObject+0x118>
   2bacc: 57 00 00 14  	b	0x2bc28 <_ZNK23ChiFeature2HWmultiframe27GetPrivateContextForRequestEP24ChiFeature2RequestObject+0x300>
   2bad0: 09 01 00 d0  	adrp	x9, 0x4d000 <_ZNK23ChiFeature2HWmultiframe27GetPrivateContextForRequestEP24ChiFeature2RequestObject+0x230>
   2bae0: 41 02 00 54  	b.ne	0x2bb28 <_ZNK23ChiFeature2HWmultiframe27GetPrivateContextForRequestEP24ChiFeature2RequestObject+0x200>
   2bae4: 13 ff ff b0  	adrp	x19, 0xc000 <_ZNK23ChiFeature2HWmultiframe27GetPrivateContextForRequestEP24ChiFeature2RequestObject+0x140>
   2bb00: 41 ff ff b0  	adrp	x1, 0x14000 <_ZNK23ChiFeature2HWmultiframe27GetPrivateContextForRequestEP24ChiFeature2RequestObject+0x17c>
   2bb04: 22 ff ff f0  	adrp	x2, 0x12000 <_ZNK23ChiFeature2HWmultiframe27GetPrivateContextForRequestEP24ChiFeature2RequestObject+0x178>
   2bb08: 25 ff ff f0  	adrp	x5, 0x12000 <_ZNK23ChiFeature2HWmultiframe27GetPrivateContextForRequestEP24ChiFeature2RequestObject+0x17c>
   2bb28: 15 ff ff b0  	adrp	x21, 0xc000 <_ZNK23ChiFeature2HWmultiframe27GetPrivateContextForRequestEP24ChiFeature2RequestObject+0x184>
   2bb44: 41 ff ff 90  	adrp	x1, 0x13000 <_ZNK23ChiFeature2HWmultiframe27GetPrivateContextForRequestEP24ChiFeature2RequestObject+0x1bc>
   2bb4c: 00 ff ff d0  	adrp	x0, 0xd000 <_ZNK23ChiFeature2HWmultiframe27GetPrivateContextForRequestEP24ChiFeature2RequestObject+0x1ac>
   2bb50: 23 ff ff f0  	adrp	x3, 0x12000 <_ZNK23ChiFeature2HWmultiframe27GetPrivateContextForRequestEP24ChiFeature2RequestObject+0x1c4>
   2bb54: 25 ff ff 90  	adrp	x5, 0xf000 <_ZNK23ChiFeature2HWmultiframe27GetPrivateContextForRequestEP24ChiFeature2RequestObject+0x1bc>
   2bb6c: 4d 71 00 94  	bl	0x480a0 <_ZN6ChiLog9LogSystemEPKcS1_S1_S1_iS1_z@plt>
   2bb74: 30 00 00 14  	b	0x2bc34 <_ZNK23ChiFeature2HWmultiframe27GetPrivateContextForRequestEP24ChiFeature2RequestObject+0x30c>
   2bb78: 0c 01 00 d0  	adrp	x12, 0x4d000 <_ZNK23ChiFeature2HWmultiframe27GetPrivateContextForRequestEP24ChiFeature2RequestObject+0x2d8>
   2bb84: 6a 05 00 36  	tbz	w10, #0, 0x2bc30 <_ZNK23ChiFeature2HWmultiframe27GetPrivateContextForRequestEP24ChiFeature2RequestObject+0x308>
   2bb88: 0d 01 00 d0  	adrp	x13, 0x4d000 <_ZNK23ChiFeature2HWmultiframe27GetPrivateContextForRequestEP24ChiFeature2RequestObject+0x2e8>
   2bb98: 61 02 00 54  	b.ne	0x2bbe4 <_ZNK23ChiFeature2HWmultiframe27GetPrivateContextForRequestEP24ChiFeature2RequestObject+0x2bc>
   2bb9c: 15 ff ff b0  	adrp	x21, 0xc000 <_ZNK23ChiFeature2HWmultiframe27GetPrivateContextForRequestEP24ChiFeature2RequestObject+0x1f8>
   2bbb8: 41 ff ff b0  	adrp	x1, 0x14000 <_ZNK23ChiFeature2HWmultiframe27GetPrivateContextForRequestEP24ChiFeature2RequestObject+0x234>
   2bbbc: 22 ff ff f0  	adrp	x2, 0x12000 <_ZNK23ChiFeature2HWmultiframe27GetPrivateContextForRequestEP24ChiFeature2RequestObject+0x230>
   2bbc0: 25 ff ff f0  	adrp	x5, 0x12000 <_ZNK23ChiFeature2HWmultiframe27GetPrivateContextForRequestEP24ChiFeature2RequestObject+0x234>
   2bbe4: 15 ff ff b0  	adrp	x21, 0xc000 <_ZNK23ChiFeature2HWmultiframe27GetPrivateContextForRequestEP24ChiFeature2RequestObject+0x240>
   2bc00: 41 ff ff 90  	adrp	x1, 0x13000 <_ZNK23ChiFeature2HWmultiframe27GetPrivateContextForRequestEP24ChiFeature2RequestObject+0x278>
   2bc08: 00 ff ff d0  	adrp	x0, 0xd000 <_ZNK23ChiFeature2HWmultiframe27GetPrivateContextForRequestEP24ChiFeature2RequestObject+0x268>
   2bc0c: 23 ff ff f0  	adrp	x3, 0x12000 <_ZNK23ChiFeature2HWmultiframe27GetPrivateContextForRequestEP24ChiFeature2RequestObject+0x280>
   2bc10: 25 ff ff 90  	adrp	x5, 0xf000 <_ZNK23ChiFeature2HWmultiframe27GetPrivateContextForRequestEP24ChiFeature2RequestObject+0x278>
   2bc2c: 1d 71 00 94  	bl	0x480a0 <_ZN6ChiLog9LogSystemEPKcS1_S1_S1_iS1_z@plt>
   2bc44: 0e 01 00 d0  	adrp	x14, 0x4d000 <_ZNK23ChiFeature2HWmultiframe27GetPrivateContextForRequestEP24ChiFeature2RequestObject+0x3a4>
   2bc50: 0b ff 07 36  	tbz	w11, #0, 0x2bc30 <_ZNK23ChiFeature2HWmultiframe27GetPrivateContextForRequestEP24ChiFeature2RequestObject+0x308>
   2bc54: 0f 01 00 d0  	adrp	x15, 0x4d000 <_ZNK23ChiFeature2HWmultiframe27GetPrivateContextForRequestEP24ChiFeature2RequestObject+0x3b4>
   2bc58: 13 ff ff b0  	adrp	x19, 0xc000 <_ZNK23ChiFeature2HWmultiframe27GetPrivateContextForRequestEP24ChiFeature2RequestObject+0x2b4>
   2bc6c: 01 02 00 54  	b.ne	0x2bcac <_ZNK23ChiFeature2HWmultiframe27GetPrivateContextForRequestEP24ChiFeature2RequestObject+0x384>
   2bc84: 41 ff ff b0  	adrp	x1, 0x14000 <_ZNK23ChiFeature2HWmultiframe27GetPrivateContextForRequestEP24ChiFeature2RequestObject+0x300>
   2bc88: 22 ff ff b0  	adrp	x2, 0x10000 <_ZNK23ChiFeature2HWmultiframe27GetPrivateContextForRequestEP24ChiFeature2RequestObject+0x2f4>
   2bc8c: 25 ff ff f0  	adrp	x5, 0x12000 <_ZNK23ChiFeature2HWmultiframe27GetPrivateContextForRequestEP24ChiFeature2RequestObject+0x300>
   2bcc0: 41 ff ff 90  	adrp	x1, 0x13000 <_ZNK23ChiFeature2HWmultiframe27GetPrivateContextForRequestEP24ChiFeature2RequestObject+0x338>
   2bcc8: 00 ff ff d0  	adrp	x0, 0xd000 <_ZNK23ChiFeature2HWmultiframe27GetPrivateContextForRequestEP24ChiFeature2RequestObject+0x328>
   2bccc: 23 ff ff f0  	adrp	x3, 0x12000 <_ZNK23ChiFeature2HWmultiframe27GetPrivateContextForRequestEP24ChiFeature2RequestObject+0x340>
   2bcd0: 05 ff ff b0  	adrp	x5, 0xc000 <_ZNK23ChiFeature2HWmultiframe27GetPrivateContextForRequestEP24ChiFeature2RequestObject+0x32c>
   2bce8: ee 70 00 94  	bl	0x480a0 <_ZN6ChiLog9LogSystemEPKcS1_S1_S1_iS1_z@plt>
   2bcec: d1 ff ff 17  	b	0x2bc30 <_ZNK23ChiFeature2HWmultiframe27GetPrivateContextForRequestEP24ChiFeature2RequestObject+0x308>
   2bd08: a0 00 00 54  	b.eq	0x2bd1c <_ZNK23ChiFeature2HWmultiframe27GetPrivateContextForRequestEP24ChiFeature2RequestObject+0x3f4>
   2bd10: 63 03 00 54  	b.lo	0x2bd7c <_ZNK23ChiFeature2HWmultiframe27GetPrivateContextForRequestEP24ChiFeature2RequestObject+0x454>
   2bd18: 42 03 00 54  	b.hs	0x2bd80 <_ZNK23ChiFeature2HWmultiframe27GetPrivateContextForRequestEP24ChiFeature2RequestObject+0x458>
   2bd24: a0 00 00 54  	b.eq	0x2bd38 <_ZNK23ChiFeature2HWmultiframe27GetPrivateContextForRequestEP24ChiFeature2RequestObject+0x410>
   2bd2c: 83 02 00 54  	b.lo	0x2bd7c <_ZNK23ChiFeature2HWmultiframe27GetPrivateContextForRequestEP24ChiFeature2RequestObject+0x454>
   2bd34: 62 02 00 54  	b.hs	0x2bd80 <_ZNK23ChiFeature2HWmultiframe27GetPrivateContextForRequestEP24ChiFeature2RequestObject+0x458>
000000000002bd88 <_ZNK23ChiFeature2HWmultiframe25IsRDIRequiredInPostFilterEPKN15ChiFeature2Base22ChiFeaturePipelineDataEi>:
   2bdac: e1 07 00 54  	b.ne	0x2bea8 <_ZNK23ChiFeature2HWmultiframe25IsRDIRequiredInPostFilterEPKN15ChiFeature2Base22ChiFeaturePipelineDataEi+0x120>
   2bdb4: 15 01 00 d0  	adrp	x21, 0x4d000 <_ZNK23ChiFeature2HWmultiframe25IsRDIRequiredInPostFilterEPKN15ChiFeature2Base22ChiFeaturePipelineDataEi+0xb4>
   2bdcc: 21 23 00 54  	b.ne	0x2c230 <_ZNK23ChiFeature2HWmultiframe25IsRDIRequiredInPostFilterEPKN15ChiFeature2Base22ChiFeaturePipelineDataEi+0x4a8>
   2bddc: 15 03 00 94  	bl	0x2ca30 <_ZNK23ChiFeature2HWmultiframe25IsRDIRequiredInPostFilterEPKN15ChiFeature2Base22ChiFeaturePipelineDataEi+0xca8>
   2bde0: 20 07 00 34  	cbz	w0, 0x2bec4 <_ZNK23ChiFeature2HWmultiframe25IsRDIRequiredInPostFilterEPKN15ChiFeature2Base22ChiFeaturePipelineDataEi+0x13c>
   2bde4: 0e 01 00 d0  	adrp	x14, 0x4d000 <_ZNK23ChiFeature2HWmultiframe25IsRDIRequiredInPostFilterEPKN15ChiFeature2Base22ChiFeaturePipelineDataEi+0xe4>
   2bdf0: 2b 05 08 36  	tbz	w11, #1, 0x2be94 <_ZNK23ChiFeature2HWmultiframe25IsRDIRequiredInPostFilterEPKN15ChiFeature2Base22ChiFeaturePipelineDataEi+0x10c>
   2bdf4: 0f 01 00 d0  	adrp	x15, 0x4d000 <_ZNK23ChiFeature2HWmultiframe25IsRDIRequiredInPostFilterEPKN15ChiFeature2Base22ChiFeaturePipelineDataEi+0xf4>
   2be04: 41 02 00 54  	b.ne	0x2be4c <_ZNK23ChiFeature2HWmultiframe25IsRDIRequiredInPostFilterEPKN15ChiFeature2Base22ChiFeaturePipelineDataEi+0xc4>
   2be08: 13 ff ff f0  	adrp	x19, 0xe000 <_ZNK23ChiFeature2HWmultiframe25IsRDIRequiredInPostFilterEPKN15ChiFeature2Base22ChiFeaturePipelineDataEi+0xc>
   2be24: 41 ff ff b0  	adrp	x1, 0x14000 <_ZNK23ChiFeature2HWmultiframe25IsRDIRequiredInPostFilterEPKN15ChiFeature2Base22ChiFeaturePipelineDataEi+0x40>
   2be28: 22 ff ff f0  	adrp	x2, 0x12000 <_ZNK23ChiFeature2HWmultiframe25IsRDIRequiredInPostFilterEPKN15ChiFeature2Base22ChiFeaturePipelineDataEi+0x3c>
   2be2c: 05 ff ff 90  	adrp	x5, 0xb000 <_ZNK23ChiFeature2HWmultiframe25IsRDIRequiredInPostFilterEPKN15ChiFeature2Base22ChiFeaturePipelineDataEi+0x24>
   2be4c: 13 ff ff f0  	adrp	x19, 0xe000 <_ZNK23ChiFeature2HWmultiframe25IsRDIRequiredInPostFilterEPKN15ChiFeature2Base22ChiFeaturePipelineDataEi+0x50>
   2be68: 01 ff ff f0  	adrp	x1, 0xe000 <_ZNK23ChiFeature2HWmultiframe25IsRDIRequiredInPostFilterEPKN15ChiFeature2Base22ChiFeaturePipelineDataEi+0x6c>
   2be70: 20 ff ff d0  	adrp	x0, 0x11000 <_ZNK23ChiFeature2HWmultiframe25IsRDIRequiredInPostFilterEPKN15ChiFeature2Base22ChiFeaturePipelineDataEi+0x80>
   2be74: 03 ff ff 90  	adrp	x3, 0xb000 <_ZNK23ChiFeature2HWmultiframe25IsRDIRequiredInPostFilterEPKN15ChiFeature2Base22ChiFeaturePipelineDataEi+0x6c>
   2be78: 25 ff ff 90  	adrp	x5, 0xf000 <_ZNK23ChiFeature2HWmultiframe25IsRDIRequiredInPostFilterEPKN15ChiFeature2Base22ChiFeaturePipelineDataEi+0x80>
   2be90: 84 70 00 94  	bl	0x480a0 <_ZN6ChiLog9LogSystemEPKcS1_S1_S1_iS1_z@plt>
   2bea0: a9 14 00 34  	cbz	w9, 0x2c134 <_ZNK23ChiFeature2HWmultiframe25IsRDIRequiredInPostFilterEPKN15ChiFeature2Base22ChiFeaturePipelineDataEi+0x3ac>
   2bea4: da 00 00 14  	b	0x2c20c <_ZNK23ChiFeature2HWmultiframe25IsRDIRequiredInPostFilterEPKN15ChiFeature2Base22ChiFeaturePipelineDataEi+0x484>
   2bea8: 61 03 00 b4  	cbz	x1, 0x2bf14 <_ZNK23ChiFeature2HWmultiframe25IsRDIRequiredInPostFilterEPKN15ChiFeature2Base22ChiFeaturePipelineDataEi+0x18c>
   2beb4: 81 08 00 54  	b.ne	0x2bfc4 <_ZNK23ChiFeature2HWmultiframe25IsRDIRequiredInPostFilterEPKN15ChiFeature2Base22ChiFeaturePipelineDataEi+0x23c>
   2bec0: 11 00 00 14  	b	0x2bf04 <_ZNK23ChiFeature2HWmultiframe25IsRDIRequiredInPostFilterEPKN15ChiFeature2Base22ChiFeaturePipelineDataEi+0x17c>
   2beec: e1 1a 00 54  	b.ne	0x2c248 <_ZNK23ChiFeature2HWmultiframe25IsRDIRequiredInPostFilterEPKN15ChiFeature2Base22ChiFeaturePipelineDataEi+0x4c0>
   2bef8: 02 71 00 94  	bl	0x48300 <_ZNK15ChiFeature2Base27GetPortDescriptorFromPortIdEPK21ChiFeature2Identifier@plt>
   2befc: c0 0b 00 b4  	cbz	x0, 0x2c074 <_ZNK23ChiFeature2HWmultiframe25IsRDIRequiredInPostFilterEPKN15ChiFeature2Base22ChiFeaturePipelineDataEi+0x2ec>
   2bf0c: 49 11 00 34  	cbz	w9, 0x2c134 <_ZNK23ChiFeature2HWmultiframe25IsRDIRequiredInPostFilterEPKN15ChiFeature2Base22ChiFeaturePipelineDataEi+0x3ac>
   2bf10: bf 00 00 14  	b	0x2c20c <_ZNK23ChiFeature2HWmultiframe25IsRDIRequiredInPostFilterEPKN15ChiFeature2Base22ChiFeaturePipelineDataEi+0x484>
   2bf14: 03 01 00 d0  	adrp	x3, 0x4d000 <_ZNK23ChiFeature2HWmultiframe25IsRDIRequiredInPostFilterEPKN15ChiFeature2Base22ChiFeaturePipelineDataEi+0x214>
   2bf20: 8d 11 08 36  	tbz	w13, #1, 0x2c150 <_ZNK23ChiFeature2HWmultiframe25IsRDIRequiredInPostFilterEPKN15ChiFeature2Base22ChiFeaturePipelineDataEi+0x3c8>
   2bf24: 04 01 00 d0  	adrp	x4, 0x4d000 <_ZNK23ChiFeature2HWmultiframe25IsRDIRequiredInPostFilterEPKN15ChiFeature2Base22ChiFeaturePipelineDataEi+0x224>
   2bf34: 41 02 00 54  	b.ne	0x2bf7c <_ZNK23ChiFeature2HWmultiframe25IsRDIRequiredInPostFilterEPKN15ChiFeature2Base22ChiFeaturePipelineDataEi+0x1f4>
   2bf38: 13 ff ff f0  	adrp	x19, 0xe000 <_ZNK23ChiFeature2HWmultiframe25IsRDIRequiredInPostFilterEPKN15ChiFeature2Base22ChiFeaturePipelineDataEi+0x13c>
   2bf54: 41 ff ff b0  	adrp	x1, 0x14000 <_ZNK23ChiFeature2HWmultiframe25IsRDIRequiredInPostFilterEPKN15ChiFeature2Base22ChiFeaturePipelineDataEi+0x170>
   2bf58: 22 ff ff d0  	adrp	x2, 0x11000 <_ZNK23ChiFeature2HWmultiframe25IsRDIRequiredInPostFilterEPKN15ChiFeature2Base22ChiFeaturePipelineDataEi+0x168>
   2bf5c: 05 ff ff 90  	adrp	x5, 0xb000 <_ZNK23ChiFeature2HWmultiframe25IsRDIRequiredInPostFilterEPKN15ChiFeature2Base22ChiFeaturePipelineDataEi+0x154>
   2bf7c: 13 ff ff f0  	adrp	x19, 0xe000 <_ZNK23ChiFeature2HWmultiframe25IsRDIRequiredInPostFilterEPKN15ChiFeature2Base22ChiFeaturePipelineDataEi+0x180>
   2bf98: 01 ff ff f0  	adrp	x1, 0xe000 <_ZNK23ChiFeature2HWmultiframe25IsRDIRequiredInPostFilterEPKN15ChiFeature2Base22ChiFeaturePipelineDataEi+0x19c>
   2bfa0: 20 ff ff d0  	adrp	x0, 0x11000 <_ZNK23ChiFeature2HWmultiframe25IsRDIRequiredInPostFilterEPKN15ChiFeature2Base22ChiFeaturePipelineDataEi+0x1b0>
   2bfa4: 03 ff ff 90  	adrp	x3, 0xb000 <_ZNK23ChiFeature2HWmultiframe25IsRDIRequiredInPostFilterEPKN15ChiFeature2Base22ChiFeaturePipelineDataEi+0x19c>
   2bfa8: 45 ff ff b0  	adrp	x5, 0x14000 <_ZNK23ChiFeature2HWmultiframe25IsRDIRequiredInPostFilterEPKN15ChiFeature2Base22ChiFeaturePipelineDataEi+0x1c4>
   2bfc0: 2a 00 00 14  	b	0x2c068 <_ZNK23ChiFeature2HWmultiframe25IsRDIRequiredInPostFilterEPKN15ChiFeature2Base22ChiFeaturePipelineDataEi+0x2e0>
   2bfc4: 11 01 00 d0  	adrp	x17, 0x4d000 <_ZNK23ChiFeature2HWmultiframe25IsRDIRequiredInPostFilterEPKN15ChiFeature2Base22ChiFeaturePipelineDataEi+0x2c4>
   2bfd0: 0c 0c 28 36  	tbz	w12, #5, 0x2c150 <_ZNK23ChiFeature2HWmultiframe25IsRDIRequiredInPostFilterEPKN15ChiFeature2Base22ChiFeaturePipelineDataEi+0x3c8>
   2bfd4: 02 01 00 d0  	adrp	x2, 0x4d000 <_ZNK23ChiFeature2HWmultiframe25IsRDIRequiredInPostFilterEPKN15ChiFeature2Base22ChiFeaturePipelineDataEi+0x2d4>
   2bfd8: 13 ff ff f0  	adrp	x19, 0xe000 <_ZNK23ChiFeature2HWmultiframe25IsRDIRequiredInPostFilterEPKN15ChiFeature2Base22ChiFeaturePipelineDataEi+0x1dc>
   2bfec: 01 02 00 54  	b.ne	0x2c02c <_ZNK23ChiFeature2HWmultiframe25IsRDIRequiredInPostFilterEPKN15ChiFeature2Base22ChiFeaturePipelineDataEi+0x2a4>
   2c004: 41 ff ff 90  	adrp	x1, 0x14000 <_ZNK23ChiFeature2HWmultiframe25IsRDIRequiredInPostFilterEPKN15ChiFeature2Base22ChiFeaturePipelineDataEi+0x21c>
   2c008: 22 ff ff f0  	adrp	x2, 0x13000 <_ZNK23ChiFeature2HWmultiframe25IsRDIRequiredInPostFilterEPKN15ChiFeature2Base22ChiFeaturePipelineDataEi+0x21c>
   2c00c: e5 fe ff f0  	adrp	x5, 0xb000 <_ZNK23ChiFeature2HWmultiframe25IsRDIRequiredInPostFilterEPKN15ChiFeature2Base22ChiFeaturePipelineDataEi+0x200>
   2c040: 21 ff ff b0  	adrp	x1, 0x11000 <_ZNK23ChiFeature2HWmultiframe25IsRDIRequiredInPostFilterEPKN15ChiFeature2Base22ChiFeaturePipelineDataEi+0x24c>
   2c048: 20 ff ff f0  	adrp	x0, 0x13000 <_ZNK23ChiFeature2HWmultiframe25IsRDIRequiredInPostFilterEPKN15ChiFeature2Base22ChiFeaturePipelineDataEi+0x25c>
   2c04c: e3 fe ff f0  	adrp	x3, 0xb000 <_ZNK23ChiFeature2HWmultiframe25IsRDIRequiredInPostFilterEPKN15ChiFeature2Base22ChiFeaturePipelineDataEi+0x240>
   2c050: 25 ff ff 90  	adrp	x5, 0x10000 <_ZNK23ChiFeature2HWmultiframe25IsRDIRequiredInPostFilterEPKN15ChiFeature2Base22ChiFeaturePipelineDataEi+0x258>
   2c068: 0e 70 00 94  	bl	0x480a0 <_ZN6ChiLog9LogSystemEPKcS1_S1_S1_iS1_z@plt>
   2c070: 67 00 00 14  	b	0x2c20c <_ZNK23ChiFeature2HWmultiframe25IsRDIRequiredInPostFilterEPKN15ChiFeature2Base22ChiFeaturePipelineDataEi+0x484>
   2c074: 0c 01 00 b0  	adrp	x12, 0x4d000 <_ZNK23ChiFeature2HWmultiframe25IsRDIRequiredInPostFilterEPKN15ChiFeature2Base22ChiFeaturePipelineDataEi+0x370>
   2c080: 2a 05 08 36  	tbz	w10, #1, 0x2c124 <_ZNK23ChiFeature2HWmultiframe25IsRDIRequiredInPostFilterEPKN15ChiFeature2Base22ChiFeaturePipelineDataEi+0x39c>
   2c084: 0d 01 00 b0  	adrp	x13, 0x4d000 <_ZNK23ChiFeature2HWmultiframe25IsRDIRequiredInPostFilterEPKN15ChiFeature2Base22ChiFeaturePipelineDataEi+0x380>
   2c094: 41 02 00 54  	b.ne	0x2c0dc <_ZNK23ChiFeature2HWmultiframe25IsRDIRequiredInPostFilterEPKN15ChiFeature2Base22ChiFeaturePipelineDataEi+0x354>
   2c098: 13 ff ff d0  	adrp	x19, 0xe000 <_ZNK23ChiFeature2HWmultiframe25IsRDIRequiredInPostFilterEPKN15ChiFeature2Base22ChiFeaturePipelineDataEi+0x298>
   2c0b4: 41 ff ff 90  	adrp	x1, 0x14000 <_ZNK23ChiFeature2HWmultiframe25IsRDIRequiredInPostFilterEPKN15ChiFeature2Base22ChiFeaturePipelineDataEi+0x2cc>
   2c0b8: 22 ff ff 90  	adrp	x2, 0x10000 <_ZNK23ChiFeature2HWmultiframe25IsRDIRequiredInPostFilterEPKN15ChiFeature2Base22ChiFeaturePipelineDataEi+0x2c0>
   2c0bc: e5 fe ff f0  	adrp	x5, 0xb000 <_ZNK23ChiFeature2HWmultiframe25IsRDIRequiredInPostFilterEPKN15ChiFeature2Base22ChiFeaturePipelineDataEi+0x2b0>
   2c0dc: 13 ff ff d0  	adrp	x19, 0xe000 <_ZNK23ChiFeature2HWmultiframe25IsRDIRequiredInPostFilterEPKN15ChiFeature2Base22ChiFeaturePipelineDataEi+0x2dc>
   2c0f8: 01 ff ff d0  	adrp	x1, 0xe000 <_ZNK23ChiFeature2HWmultiframe25IsRDIRequiredInPostFilterEPKN15ChiFeature2Base22ChiFeaturePipelineDataEi+0x2f8>
   2c100: 20 ff ff b0  	adrp	x0, 0x11000 <_ZNK23ChiFeature2HWmultiframe25IsRDIRequiredInPostFilterEPKN15ChiFeature2Base22ChiFeaturePipelineDataEi+0x30c>
   2c104: e3 fe ff f0  	adrp	x3, 0xb000 <_ZNK23ChiFeature2HWmultiframe25IsRDIRequiredInPostFilterEPKN15ChiFeature2Base22ChiFeaturePipelineDataEi+0x2f8>
   2c108: 25 ff ff 90  	adrp	x5, 0x10000 <_ZNK23ChiFeature2HWmultiframe25IsRDIRequiredInPostFilterEPKN15ChiFeature2Base22ChiFeaturePipelineDataEi+0x310>
   2c120: e0 6f 00 94  	bl	0x480a0 <_ZN6ChiLog9LogSystemEPKcS1_S1_S1_iS1_z@plt>
   2c130: e9 06 00 35  	cbnz	w9, 0x2c20c <_ZNK23ChiFeature2HWmultiframe25IsRDIRequiredInPostFilterEPKN15ChiFeature2Base22ChiFeaturePipelineDataEi+0x484>
   2c134: c8 06 00 b4  	cbz	x8, 0x2c20c <_ZNK23ChiFeature2HWmultiframe25IsRDIRequiredInPostFilterEPKN15ChiFeature2Base22ChiFeaturePipelineDataEi+0x484>
   2c13c: 80 06 00 b4  	cbz	x0, 0x2c20c <_ZNK23ChiFeature2HWmultiframe25IsRDIRequiredInPostFilterEPKN15ChiFeature2Base22ChiFeaturePipelineDataEi+0x484>
   2c140: 01 ff ff f0  	adrp	x1, 0xf000 <_ZNK23ChiFeature2HWmultiframe25IsRDIRequiredInPostFilterEPKN15ChiFeature2Base22ChiFeaturePipelineDataEi+0x344>
   2c14c: 60 00 00 34  	cbz	w0, 0x2c158 <_ZNK23ChiFeature2HWmultiframe25IsRDIRequiredInPostFilterEPKN15ChiFeature2Base22ChiFeaturePipelineDataEi+0x3d0>
   2c154: 2e 00 00 14  	b	0x2c20c <_ZNK23ChiFeature2HWmultiframe25IsRDIRequiredInPostFilterEPKN15ChiFeature2Base22ChiFeaturePipelineDataEi+0x484>
   2c158: 05 01 00 b0  	adrp	x5, 0x4d000 <_ZNK23ChiFeature2HWmultiframe25IsRDIRequiredInPostFilterEPKN15ChiFeature2Base22ChiFeaturePipelineDataEi+0x454>
   2c164: 2e 05 18 36  	tbz	w14, #3, 0x2c208 <_ZNK23ChiFeature2HWmultiframe25IsRDIRequiredInPostFilterEPKN15ChiFeature2Base22ChiFeaturePipelineDataEi+0x480>
   2c168: 06 01 00 b0  	adrp	x6, 0x4d000 <_ZNK23ChiFeature2HWmultiframe25IsRDIRequiredInPostFilterEPKN15ChiFeature2Base22ChiFeaturePipelineDataEi+0x464>
   2c178: 41 02 00 54  	b.ne	0x2c1c0 <_ZNK23ChiFeature2HWmultiframe25IsRDIRequiredInPostFilterEPKN15ChiFeature2Base22ChiFeaturePipelineDataEi+0x438>
   2c17c: 13 ff ff d0  	adrp	x19, 0xe000 <_ZNK23ChiFeature2HWmultiframe25IsRDIRequiredInPostFilterEPKN15ChiFeature2Base22ChiFeaturePipelineDataEi+0x37c>
   2c198: 41 ff ff 90  	adrp	x1, 0x14000 <_ZNK23ChiFeature2HWmultiframe25IsRDIRequiredInPostFilterEPKN15ChiFeature2Base22ChiFeaturePipelineDataEi+0x3b0>
   2c19c: 02 ff ff d0  	adrp	x2, 0xe000 <_ZNK23ChiFeature2HWmultiframe25IsRDIRequiredInPostFilterEPKN15ChiFeature2Base22ChiFeaturePipelineDataEi+0x39c>
   2c1a0: e5 fe ff f0  	adrp	x5, 0xb000 <_ZNK23ChiFeature2HWmultiframe25IsRDIRequiredInPostFilterEPKN15ChiFeature2Base22ChiFeaturePipelineDataEi+0x394>
   2c1c0: 13 ff ff d0  	adrp	x19, 0xe000 <_ZNK23ChiFeature2HWmultiframe25IsRDIRequiredInPostFilterEPKN15ChiFeature2Base22ChiFeaturePipelineDataEi+0x3c0>
   2c1dc: 21 ff ff 90  	adrp	x1, 0x10000 <_ZNK23ChiFeature2HWmultiframe25IsRDIRequiredInPostFilterEPKN15ChiFeature2Base22ChiFeaturePipelineDataEi+0x3e4>
   2c1e4: 40 ff ff 90  	adrp	x0, 0x14000 <_ZNK23ChiFeature2HWmultiframe25IsRDIRequiredInPostFilterEPKN15ChiFeature2Base22ChiFeaturePipelineDataEi+0x3fc>
   2c1e8: e3 fe ff f0  	adrp	x3, 0xb000 <_ZNK23ChiFeature2HWmultiframe25IsRDIRequiredInPostFilterEPKN15ChiFeature2Base22ChiFeaturePipelineDataEi+0x3dc>
   2c1ec: e5 fe ff f0  	adrp	x5, 0xb000 <_ZNK23ChiFeature2HWmultiframe25IsRDIRequiredInPostFilterEPKN15ChiFeature2Base22ChiFeaturePipelineDataEi+0x3e0>
   2c204: a7 6f 00 94  	bl	0x480a0 <_ZN6ChiLog9LogSystemEPKcS1_S1_S1_iS1_z@plt>
   2c218: 41 02 00 54  	b.ne	0x2c260 <_ZNK23ChiFeature2HWmultiframe25IsRDIRequiredInPostFilterEPKN15ChiFeature2Base22ChiFeaturePipelineDataEi+0x4d8>
   2c244: e3 fe ff 17  	b	0x2bdd0 <_ZNK23ChiFeature2HWmultiframe25IsRDIRequiredInPostFilterEPKN15ChiFeature2Base22ChiFeaturePipelineDataEi+0x48>
   2c25c: 25 ff ff 17  	b	0x2bef0 <_ZNK23ChiFeature2HWmultiframe25IsRDIRequiredInPostFilterEPKN15ChiFeature2Base22ChiFeaturePipelineDataEi+0x168>
   2c28c: 00 04 00 54  	b.eq	0x2c30c <_ZNK23ChiFeature2HWmultiframe25IsRDIRequiredInPostFilterEPKN15ChiFeature2Base22ChiFeaturePipelineDataEi+0x584>
   2c2c0: e2 02 00 54  	b.hs	0x2c31c <_ZNK23ChiFeature2HWmultiframe25IsRDIRequiredInPostFilterEPKN15ChiFeature2Base22ChiFeaturePipelineDataEi+0x594>
   2c2e8: 20 01 00 54  	b.eq	0x2c30c <_ZNK23ChiFeature2HWmultiframe25IsRDIRequiredInPostFilterEPKN15ChiFeature2Base22ChiFeaturePipelineDataEi+0x584>
   2c2f0: 4c 00 00 94  	bl	0x2c420 <_ZNK23ChiFeature2HWmultiframe25IsRDIRequiredInPostFilterEPKN15ChiFeature2Base22ChiFeaturePipelineDataEi+0x698>
   2c308: 21 ff ff 54  	b.ne	0x2c2ec <_ZNK23ChiFeature2HWmultiframe25IsRDIRequiredInPostFilterEPKN15ChiFeature2Base22ChiFeaturePipelineDataEi+0x564>
   2c320: 20 70 00 94  	bl	0x483a0 <_ZNKSt3__120__vector_base_commonILb1EE20__throw_length_errorEv@plt>
   2c33c: 54 04 00 b4  	cbz	x20, 0x2c3c4 <_ZNK23ChiFeature2HWmultiframe25IsRDIRequiredInPostFilterEPKN15ChiFeature2Base22ChiFeaturePipelineDataEi+0x63c>
   2c34c: 40 04 00 54  	b.eq	0x2c3d4 <_ZNK23ChiFeature2HWmultiframe25IsRDIRequiredInPostFilterEPKN15ChiFeature2Base22ChiFeaturePipelineDataEi+0x64c>
   2c354: 07 00 00 14  	b	0x2c370 <_ZNK23ChiFeature2HWmultiframe25IsRDIRequiredInPostFilterEPKN15ChiFeature2Base22ChiFeaturePipelineDataEi+0x5e8>
   2c360: a6 01 00 94  	bl	0x2c9f8 <_ZNK23ChiFeature2HWmultiframe25IsRDIRequiredInPostFilterEPKN15ChiFeature2Base22ChiFeaturePipelineDataEi+0xc70>
   2c36c: 80 02 00 54  	b.eq	0x2c3bc <_ZNK23ChiFeature2HWmultiframe25IsRDIRequiredInPostFilterEPKN15ChiFeature2Base22ChiFeaturePipelineDataEi+0x634>
   2c374: 00 01 00 b4  	cbz	x0, 0x2c394 <_ZNK23ChiFeature2HWmultiframe25IsRDIRequiredInPostFilterEPKN15ChiFeature2Base22ChiFeaturePipelineDataEi+0x60c>
   2c38c: 6b 04 00 b5  	cbnz	x11, 0x2c418 <_ZNK23ChiFeature2HWmultiframe25IsRDIRequiredInPostFilterEPKN15ChiFeature2Base22ChiFeaturePipelineDataEi+0x690>
   2c398: 00 fe ff b4  	cbz	x0, 0x2c358 <_ZNK23ChiFeature2HWmultiframe25IsRDIRequiredInPostFilterEPKN15ChiFeature2Base22ChiFeaturePipelineDataEi+0x5d0>
   2c3b0: 4f 03 00 b5  	cbnz	x15, 0x2c418 <_ZNK23ChiFeature2HWmultiframe25IsRDIRequiredInPostFilterEPKN15ChiFeature2Base22ChiFeaturePipelineDataEi+0x690>
   2c3b8: e8 ff ff 17  	b	0x2c358 <_ZNK23ChiFeature2HWmultiframe25IsRDIRequiredInPostFilterEPKN15ChiFeature2Base22ChiFeaturePipelineDataEi+0x5d0>
   2c3c0: 06 00 00 14  	b	0x2c3d8 <_ZNK23ChiFeature2HWmultiframe25IsRDIRequiredInPostFilterEPKN15ChiFeature2Base22ChiFeaturePipelineDataEi+0x650>
   2c404: a5 00 00 b5  	cbnz	x5, 0x2c418 <_ZNK23ChiFeature2HWmultiframe25IsRDIRequiredInPostFilterEPKN15ChiFeature2Base22ChiFeaturePipelineDataEi+0x690>
   2c484: a0 0e 00 54  	b.eq	0x2c658 <_ZNK23ChiFeature2HWmultiframe25IsRDIRequiredInPostFilterEPKN15ChiFeature2Base22ChiFeaturePipelineDataEi+0x8d0>
   2c498: a0 06 00 54  	b.eq	0x2c56c <_ZNK23ChiFeature2HWmultiframe25IsRDIRequiredInPostFilterEPKN15ChiFeature2Base22ChiFeaturePipelineDataEi+0x7e4>
   2c4a4: bc 00 00 b4  	cbz	x28, 0x2c4b8 <_ZNK23ChiFeature2HWmultiframe25IsRDIRequiredInPostFilterEPKN15ChiFeature2Base22ChiFeaturePipelineDataEi+0x730>
   2c4b0: ca ff ff b5  	cbnz	x10, 0x2c4a8 <_ZNK23ChiFeature2HWmultiframe25IsRDIRequiredInPostFilterEPKN15ChiFeature2Base22ChiFeaturePipelineDataEi+0x720>
   2c4b4: 06 00 00 14  	b	0x2c4cc <_ZNK23ChiFeature2HWmultiframe25IsRDIRequiredInPostFilterEPKN15ChiFeature2Base22ChiFeaturePipelineDataEi+0x744>
   2c4c8: 80 ff ff 54  	b.eq	0x2c4b8 <_ZNK23ChiFeature2HWmultiframe25IsRDIRequiredInPostFilterEPKN15ChiFeature2Base22ChiFeaturePipelineDataEi+0x730>
   2c4e4: 1f 01 00 94  	bl	0x2c960 <_ZNK23ChiFeature2HWmultiframe25IsRDIRequiredInPostFilterEPKN15ChiFeature2Base22ChiFeaturePipelineDataEi+0xbd8>
   2c4e8: 40 04 00 37  	tbnz	w0, #0, 0x2c570 <_ZNK23ChiFeature2HWmultiframe25IsRDIRequiredInPostFilterEPKN15ChiFeature2Base22ChiFeaturePipelineDataEi+0x7e8>
   2c4ec: 1c 05 00 b4  	cbz	x28, 0x2c58c <_ZNK23ChiFeature2HWmultiframe25IsRDIRequiredInPostFilterEPKN15ChiFeature2Base22ChiFeaturePipelineDataEi+0x804>
   2c51c: 11 01 00 94  	bl	0x2c960 <_ZNK23ChiFeature2HWmultiframe25IsRDIRequiredInPostFilterEPKN15ChiFeature2Base22ChiFeaturePipelineDataEi+0xbd8>
   2c520: 80 00 00 36  	tbz	w0, #0, 0x2c530 <_ZNK23ChiFeature2HWmultiframe25IsRDIRequiredInPostFilterEPKN15ChiFeature2Base22ChiFeaturePipelineDataEi+0x7a8>
   2c528: 5c fe ff b5  	cbnz	x28, 0x2c4f0 <_ZNK23ChiFeature2HWmultiframe25IsRDIRequiredInPostFilterEPKN15ChiFeature2Base22ChiFeaturePipelineDataEi+0x768>
   2c52c: 1b 00 00 14  	b	0x2c598 <_ZNK23ChiFeature2HWmultiframe25IsRDIRequiredInPostFilterEPKN15ChiFeature2Base22ChiFeaturePipelineDataEi+0x810>
   2c550: 04 01 00 94  	bl	0x2c960 <_ZNK23ChiFeature2HWmultiframe25IsRDIRequiredInPostFilterEPKN15ChiFeature2Base22ChiFeaturePipelineDataEi+0xbd8>
   2c558: 40 01 00 36  	tbz	w0, #0, 0x2c580 <_ZNK23ChiFeature2HWmultiframe25IsRDIRequiredInPostFilterEPKN15ChiFeature2Base22ChiFeaturePipelineDataEi+0x7f8>
   2c560: 9c fc ff b5  	cbnz	x28, 0x2c4f0 <_ZNK23ChiFeature2HWmultiframe25IsRDIRequiredInPostFilterEPKN15ChiFeature2Base22ChiFeaturePipelineDataEi+0x768>
   2c568: 0e 00 00 14  	b	0x2c5a0 <_ZNK23ChiFeature2HWmultiframe25IsRDIRequiredInPostFilterEPKN15ChiFeature2Base22ChiFeaturePipelineDataEi+0x818>
   2c570: fc 00 00 b4  	cbz	x28, 0x2c58c <_ZNK23ChiFeature2HWmultiframe25IsRDIRequiredInPostFilterEPKN15ChiFeature2Base22ChiFeaturePipelineDataEi+0x804>
   2c57c: 2c 01 00 b4  	cbz	x12, 0x2c5a0 <_ZNK23ChiFeature2HWmultiframe25IsRDIRequiredInPostFilterEPKN15ChiFeature2Base22ChiFeaturePipelineDataEi+0x818>
   2c584: 2b 04 00 b5  	cbnz	x11, 0x2c608 <_ZNK23ChiFeature2HWmultiframe25IsRDIRequiredInPostFilterEPKN15ChiFeature2Base22ChiFeaturePipelineDataEi+0x880>
   2c588: 24 00 00 14  	b	0x2c618 <_ZNK23ChiFeature2HWmultiframe25IsRDIRequiredInPostFilterEPKN15ChiFeature2Base22ChiFeaturePipelineDataEi+0x890>
   2c594: 03 00 00 14  	b	0x2c5a0 <_ZNK23ChiFeature2HWmultiframe25IsRDIRequiredInPostFilterEPKN15ChiFeature2Base22ChiFeaturePipelineDataEi+0x818>
   2c5d4: 88 00 00 b4  	cbz	x8, 0x2c5e4 <_ZNK23ChiFeature2HWmultiframe25IsRDIRequiredInPostFilterEPKN15ChiFeature2Base22ChiFeaturePipelineDataEi+0x85c>
   2c5e0: 02 00 00 14  	b	0x2c5e8 <_ZNK23ChiFeature2HWmultiframe25IsRDIRequiredInPostFilterEPKN15ChiFeature2Base22ChiFeaturePipelineDataEi+0x860>
   2c5ec: 67 00 00 94  	bl	0x2c788 <_ZNK23ChiFeature2HWmultiframe25IsRDIRequiredInPostFilterEPKN15ChiFeature2Base22ChiFeaturePipelineDataEi+0xa00>
   2c5f8: 02 0c 00 54  	b.hs	0x2c778 <_ZNK23ChiFeature2HWmultiframe25IsRDIRequiredInPostFilterEPKN15ChiFeature2Base22ChiFeaturePipelineDataEi+0x9f0>
   2c604: ab 00 00 b4  	cbz	x11, 0x2c618 <_ZNK23ChiFeature2HWmultiframe25IsRDIRequiredInPostFilterEPKN15ChiFeature2Base22ChiFeaturePipelineDataEi+0x890>
   2c610: cb ff ff b5  	cbnz	x11, 0x2c608 <_ZNK23ChiFeature2HWmultiframe25IsRDIRequiredInPostFilterEPKN15ChiFeature2Base22ChiFeaturePipelineDataEi+0x880>
   2c614: 0c 00 00 14  	b	0x2c644 <_ZNK23ChiFeature2HWmultiframe25IsRDIRequiredInPostFilterEPKN15ChiFeature2Base22ChiFeaturePipelineDataEi+0x8bc>
   2c628: e0 00 00 54  	b.eq	0x2c644 <_ZNK23ChiFeature2HWmultiframe25IsRDIRequiredInPostFilterEPKN15ChiFeature2Base22ChiFeaturePipelineDataEi+0x8bc>
   2c640: 61 ff ff 54  	b.ne	0x2c62c <_ZNK23ChiFeature2HWmultiframe25IsRDIRequiredInPostFilterEPKN15ChiFeature2Base22ChiFeaturePipelineDataEi+0x8a4>
   2c648: 80 00 00 54  	b.eq	0x2c658 <_ZNK23ChiFeature2HWmultiframe25IsRDIRequiredInPostFilterEPKN15ChiFeature2Base22ChiFeaturePipelineDataEi+0x8d0>
   2c654: 8f ff ff 17  	b	0x2c490 <_ZNK23ChiFeature2HWmultiframe25IsRDIRequiredInPostFilterEPKN15ChiFeature2Base22ChiFeaturePipelineDataEi+0x708>
   2c688: a0 02 00 54  	b.eq	0x2c6dc <_ZNK23ChiFeature2HWmultiframe25IsRDIRequiredInPostFilterEPKN15ChiFeature2Base22ChiFeaturePipelineDataEi+0x954>
   2c694: 44 07 00 b5  	cbnz	x4, 0x2c77c <_ZNK23ChiFeature2HWmultiframe25IsRDIRequiredInPostFilterEPKN15ChiFeature2Base22ChiFeaturePipelineDataEi+0x9f4>
   2c6b8: 2b 01 00 54  	b.lt	0x2c6dc <_ZNK23ChiFeature2HWmultiframe25IsRDIRequiredInPostFilterEPKN15ChiFeature2Base22ChiFeaturePipelineDataEi+0x954>
   2c6c4: e1 05 00 54  	b.ne	0x2c780 <_ZNK23ChiFeature2HWmultiframe25IsRDIRequiredInPostFilterEPKN15ChiFeature2Base22ChiFeaturePipelineDataEi+0x9f8>
   2c6f0: c0 02 00 54  	b.eq	0x2c748 <_ZNK23ChiFeature2HWmultiframe25IsRDIRequiredInPostFilterEPKN15ChiFeature2Base22ChiFeaturePipelineDataEi+0x9c0>
   2c6fc: 17 04 00 b5  	cbnz	x23, 0x2c77c <_ZNK23ChiFeature2HWmultiframe25IsRDIRequiredInPostFilterEPKN15ChiFeature2Base22ChiFeaturePipelineDataEi+0x9f4>
   2c724: 2b 01 00 54  	b.lt	0x2c748 <_ZNK23ChiFeature2HWmultiframe25IsRDIRequiredInPostFilterEPKN15ChiFeature2Base22ChiFeaturePipelineDataEi+0x9c0>
   2c730: 81 02 00 54  	b.ne	0x2c780 <_ZNK23ChiFeature2HWmultiframe25IsRDIRequiredInPostFilterEPKN15ChiFeature2Base22ChiFeaturePipelineDataEi+0x9f8>
   2c77c: 09 6f 00 94  	bl	0x483a0 <_ZNKSt3__120__vector_base_commonILb1EE20__throw_length_errorEv@plt>
   2c794: 40 0e 00 54  	b.eq	0x2c95c <_ZNK23ChiFeature2HWmultiframe25IsRDIRequiredInPostFilterEPKN15ChiFeature2Base22ChiFeaturePipelineDataEi+0xbd4>
   2c79c: 04 00 00 14  	b	0x2c7ac <_ZNK23ChiFeature2HWmultiframe25IsRDIRequiredInPostFilterEPKN15ChiFeature2Base22ChiFeaturePipelineDataEi+0xa24>
   2c7a8: a0 0d 00 54  	b.eq	0x2c95c <_ZNK23ChiFeature2HWmultiframe25IsRDIRequiredInPostFilterEPKN15ChiFeature2Base22ChiFeaturePipelineDataEi+0xbd4>
   2c7b4: 49 0d 00 35  	cbnz	w9, 0x2c95c <_ZNK23ChiFeature2HWmultiframe25IsRDIRequiredInPostFilterEPKN15ChiFeature2Base22ChiFeaturePipelineDataEi+0xbd4>
   2c7c4: 40 01 00 54  	b.eq	0x2c7ec <_ZNK23ChiFeature2HWmultiframe25IsRDIRequiredInPostFilterEPKN15ChiFeature2Base22ChiFeaturePipelineDataEi+0xa64>
   2c7c8: 6f 02 00 b4  	cbz	x15, 0x2c814 <_ZNK23ChiFeature2HWmultiframe25IsRDIRequiredInPostFilterEPKN15ChiFeature2Base22ChiFeaturePipelineDataEi+0xa8c>
   2c7d0: 2d 02 00 35  	cbnz	w13, 0x2c814 <_ZNK23ChiFeature2HWmultiframe25IsRDIRequiredInPostFilterEPKN15ChiFeature2Base22ChiFeaturePipelineDataEi+0xa8c>
   2c7e8: ee ff ff 17  	b	0x2c7a0 <_ZNK23ChiFeature2HWmultiframe25IsRDIRequiredInPostFilterEPKN15ChiFeature2Base22ChiFeaturePipelineDataEi+0xa18>
   2c7f0: d0 01 00 b4  	cbz	x16, 0x2c828 <_ZNK23ChiFeature2HWmultiframe25IsRDIRequiredInPostFilterEPKN15ChiFeature2Base22ChiFeaturePipelineDataEi+0xaa0>
   2c7f8: 8b 01 00 35  	cbnz	w11, 0x2c828 <_ZNK23ChiFeature2HWmultiframe25IsRDIRequiredInPostFilterEPKN15ChiFeature2Base22ChiFeaturePipelineDataEi+0xaa0>
   2c810: e4 ff ff 17  	b	0x2c7a0 <_ZNK23ChiFeature2HWmultiframe25IsRDIRequiredInPostFilterEPKN15ChiFeature2Base22ChiFeaturePipelineDataEi+0xa18>
   2c81c: 60 02 00 54  	b.eq	0x2c868 <_ZNK23ChiFeature2HWmultiframe25IsRDIRequiredInPostFilterEPKN15ChiFeature2Base22ChiFeaturePipelineDataEi+0xae0>
   2c824: 3a 00 00 14  	b	0x2c90c <_ZNK23ChiFeature2HWmultiframe25IsRDIRequiredInPostFilterEPKN15ChiFeature2Base22ChiFeaturePipelineDataEi+0xb84>
   2c830: 40 03 00 54  	b.eq	0x2c898 <_ZNK23ChiFeature2HWmultiframe25IsRDIRequiredInPostFilterEPKN15ChiFeature2Base22ChiFeaturePipelineDataEi+0xb10>
   2c840: 67 00 00 b4  	cbz	x7, 0x2c84c <_ZNK23ChiFeature2HWmultiframe25IsRDIRequiredInPostFilterEPKN15ChiFeature2Base22ChiFeaturePipelineDataEi+0xac4>
   2c85c: 20 02 00 54  	b.eq	0x2c8a0 <_ZNK23ChiFeature2HWmultiframe25IsRDIRequiredInPostFilterEPKN15ChiFeature2Base22ChiFeaturePipelineDataEi+0xb18>
   2c864: 10 00 00 14  	b	0x2c8a4 <_ZNK23ChiFeature2HWmultiframe25IsRDIRequiredInPostFilterEPKN15ChiFeature2Base22ChiFeaturePipelineDataEi+0xb1c>
   2c870: 66 00 00 b4  	cbz	x6, 0x2c87c <_ZNK23ChiFeature2HWmultiframe25IsRDIRequiredInPostFilterEPKN15ChiFeature2Base22ChiFeaturePipelineDataEi+0xaf4>
   2c88c: a0 03 00 54  	b.eq	0x2c900 <_ZNK23ChiFeature2HWmultiframe25IsRDIRequiredInPostFilterEPKN15ChiFeature2Base22ChiFeaturePipelineDataEi+0xb78>
   2c894: 1c 00 00 14  	b	0x2c904 <_ZNK23ChiFeature2HWmultiframe25IsRDIRequiredInPostFilterEPKN15ChiFeature2Base22ChiFeaturePipelineDataEi+0xb7c>
   2c89c: 04 00 00 14  	b	0x2c8ac <_ZNK23ChiFeature2HWmultiframe25IsRDIRequiredInPostFilterEPKN15ChiFeature2Base22ChiFeaturePipelineDataEi+0xb24>
   2c8c8: 44 00 00 b4  	cbz	x4, 0x2c8d0 <_ZNK23ChiFeature2HWmultiframe25IsRDIRequiredInPostFilterEPKN15ChiFeature2Base22ChiFeaturePipelineDataEi+0xb48>
   2c8e4: 60 00 00 54  	b.eq	0x2c8f0 <_ZNK23ChiFeature2HWmultiframe25IsRDIRequiredInPostFilterEPKN15ChiFeature2Base22ChiFeaturePipelineDataEi+0xb68>
   2c8ec: 02 00 00 14  	b	0x2c8f4 <_ZNK23ChiFeature2HWmultiframe25IsRDIRequiredInPostFilterEPKN15ChiFeature2Base22ChiFeaturePipelineDataEi+0xb6c>
   2c928: 45 00 00 b4  	cbz	x5, 0x2c930 <_ZNK23ChiFeature2HWmultiframe25IsRDIRequiredInPostFilterEPKN15ChiFeature2Base22ChiFeaturePipelineDataEi+0xba8>
   2c944: 60 00 00 54  	b.eq	0x2c950 <_ZNK23ChiFeature2HWmultiframe25IsRDIRequiredInPostFilterEPKN15ChiFeature2Base22ChiFeaturePipelineDataEi+0xbc8>
   2c94c: 02 00 00 14  	b	0x2c954 <_ZNK23ChiFeature2HWmultiframe25IsRDIRequiredInPostFilterEPKN15ChiFeature2Base22ChiFeaturePipelineDataEi+0xbcc>
   2c96c: 62 00 00 54  	b.hs	0x2c978 <_ZNK23ChiFeature2HWmultiframe25IsRDIRequiredInPostFilterEPKN15ChiFeature2Base22ChiFeaturePipelineDataEi+0xbf0>
   2c978: 21 01 00 54  	b.ne	0x2c99c <_ZNK23ChiFeature2HWmultiframe25IsRDIRequiredInPostFilterEPKN15ChiFeature2Base22ChiFeaturePipelineDataEi+0xc14>
   2c98c: 23 ff ff 54  	b.lo	0x2c970 <_ZNK23ChiFeature2HWmultiframe25IsRDIRequiredInPostFilterEPKN15ChiFeature2Base22ChiFeaturePipelineDataEi+0xbe8>
   2c998: 60 00 00 54  	b.eq	0x2c9a4 <_ZNK23ChiFeature2HWmultiframe25IsRDIRequiredInPostFilterEPKN15ChiFeature2Base22ChiFeaturePipelineDataEi+0xc1c>
   2c9b4: e3 fd ff 54  	b.lo	0x2c970 <_ZNK23ChiFeature2HWmultiframe25IsRDIRequiredInPostFilterEPKN15ChiFeature2Base22ChiFeaturePipelineDataEi+0xbe8>
   2c9cc: 4a 00 00 54  	b.ge	0x2c9d4 <_ZNK23ChiFeature2HWmultiframe25IsRDIRequiredInPostFilterEPKN15ChiFeature2Base22ChiFeaturePipelineDataEi+0xc4c>
   2c9d0: 08 fd ff b4  	cbz	x8, 0x2c970 <_ZNK23ChiFeature2HWmultiframe25IsRDIRequiredInPostFilterEPKN15ChiFeature2Base22ChiFeaturePipelineDataEi+0xbe8>
   2c9f8: a0 01 00 b4  	cbz	x0, 0x2ca2c <_ZNK23ChiFeature2HWmultiframe25IsRDIRequiredInPostFilterEPKN15ChiFeature2Base22ChiFeaturePipelineDataEi+0xca4>
   2ca10: fa ff ff 97  	bl	0x2c9f8 <_ZNK23ChiFeature2HWmultiframe25IsRDIRequiredInPostFilterEPKN15ChiFeature2Base22ChiFeaturePipelineDataEi+0xc70>
   2ca18: f8 ff ff 97  	bl	0x2c9f8 <_ZNK23ChiFeature2HWmultiframe25IsRDIRequiredInPostFilterEPKN15ChiFeature2Base22ChiFeaturePipelineDataEi+0xc70>
   2ca48: 0a 01 00 b0  	adrp	x10, 0x4d000 <_ZNK23ChiFeature2HWmultiframe25IsRDIRequiredInPostFilterEPKN15ChiFeature2Base22ChiFeaturePipelineDataEi+0xd44>
   2ca5c: 21 09 00 54  	b.ne	0x2cb80 <_ZNK23ChiFeature2HWmultiframe25IsRDIRequiredInPostFilterEPKN15ChiFeature2Base22ChiFeaturePipelineDataEi+0xdf8>
   2ca74: 09 02 00 54  	b.ls	0x2cab4 <_ZNK23ChiFeature2HWmultiframe25IsRDIRequiredInPostFilterEPKN15ChiFeature2Base22ChiFeaturePipelineDataEi+0xd2c>
   2ca7c: a2 07 00 b4  	cbz	x2, 0x2cb70 <_ZNK23ChiFeature2HWmultiframe25IsRDIRequiredInPostFilterEPKN15ChiFeature2Base22ChiFeaturePipelineDataEi+0xde8>
   2ca84: 69 07 00 b4  	cbz	x9, 0x2cb70 <_ZNK23ChiFeature2HWmultiframe25IsRDIRequiredInPostFilterEPKN15ChiFeature2Base22ChiFeaturePipelineDataEi+0xde8>
   2cab0: 30 00 00 14  	b	0x2cb70 <_ZNK23ChiFeature2HWmultiframe25IsRDIRequiredInPostFilterEPKN15ChiFeature2Base22ChiFeaturePipelineDataEi+0xde8>
   2cab4: 0c 01 00 b0  	adrp	x12, 0x4d000 <_ZNK23ChiFeature2HWmultiframe25IsRDIRequiredInPostFilterEPKN15ChiFeature2Base22ChiFeaturePipelineDataEi+0xdb0>
   2cac0: 6e 05 00 36  	tbz	w14, #0, 0x2cb6c <_ZNK23ChiFeature2HWmultiframe25IsRDIRequiredInPostFilterEPKN15ChiFeature2Base22ChiFeaturePipelineDataEi+0xde4>
   2cac4: 0d 01 00 b0  	adrp	x13, 0x4d000 <_ZNK23ChiFeature2HWmultiframe25IsRDIRequiredInPostFilterEPKN15ChiFeature2Base22ChiFeaturePipelineDataEi+0xdc0>
   2cac8: 35 ff ff b0  	adrp	x21, 0x11000 <_ZNK23ChiFeature2HWmultiframe25IsRDIRequiredInPostFilterEPKN15ChiFeature2Base22ChiFeaturePipelineDataEi+0xcd4>
   2cadc: 41 02 00 54  	b.ne	0x2cb24 <_ZNK23ChiFeature2HWmultiframe25IsRDIRequiredInPostFilterEPKN15ChiFeature2Base22ChiFeaturePipelineDataEi+0xd9c>
   2caf4: 41 ff ff 90  	adrp	x1, 0x14000 <_ZNK23ChiFeature2HWmultiframe25IsRDIRequiredInPostFilterEPKN15ChiFeature2Base22ChiFeaturePipelineDataEi+0xd0c>
   2caf8: 22 ff ff b0  	adrp	x2, 0x11000 <_ZNK23ChiFeature2HWmultiframe25IsRDIRequiredInPostFilterEPKN15ChiFeature2Base22ChiFeaturePipelineDataEi+0xd04>
   2cafc: 25 ff ff b0  	adrp	x5, 0x11000 <_ZNK23ChiFeature2HWmultiframe25IsRDIRequiredInPostFilterEPKN15ChiFeature2Base22ChiFeaturePipelineDataEi+0xd08>
   2cb38: 21 ff ff f0  	adrp	x1, 0x13000 <_ZNK23ChiFeature2HWmultiframe25IsRDIRequiredInPostFilterEPKN15ChiFeature2Base22ChiFeaturePipelineDataEi+0xd4c>
   2cb40: 00 ff ff b0  	adrp	x0, 0xd000 <_ZNK23ChiFeature2HWmultiframe25IsRDIRequiredInPostFilterEPKN15ChiFeature2Base22ChiFeaturePipelineDataEi+0xd3c>
   2cb44: 23 ff ff b0  	adrp	x3, 0x11000 <_ZNK23ChiFeature2HWmultiframe25IsRDIRequiredInPostFilterEPKN15ChiFeature2Base22ChiFeaturePipelineDataEi+0xd50>
   2cb48: 25 ff ff 90  	adrp	x5, 0x10000 <_ZNK23ChiFeature2HWmultiframe25IsRDIRequiredInPostFilterEPKN15ChiFeature2Base22ChiFeaturePipelineDataEi+0xd50>
   2cb68: 4e 6d 00 94  	bl	0x480a0 <_ZN6ChiLog9LogSystemEPKcS1_S1_S1_iS1_z@plt>
   2cb9c: b1 ff ff 17  	b	0x2ca60 <_ZNK23ChiFeature2HWmultiframe25IsRDIRequiredInPostFilterEPKN15ChiFeature2Base22ChiFeaturePipelineDataEi+0xcd8>
000000000002cba0 <_ZN23ChiFeature2HWmultiframeD2Ev>:
   2cba0: e8 6d 00 14  	b	0x48340 <_ZN15ChiFeature2BaseD2Ev@plt>
000000000002cba8 <_ZNK23ChiFeature2HWmultiframe26GetPrivateContextForResultEP24ChiFeature2RequestObjecth>:
   2cbc0: 08 01 00 b0  	adrp	x8, 0x4d000 <_ZNK23ChiFeature2HWmultiframe22PrepareAllDependenciesEP24ChiFeature2RequestObject+0xc>
   2cbd4: 01 02 00 54  	b.ne	0x2cc14 <_ZNK23ChiFeature2HWmultiframe26GetPrivateContextForResultEP24ChiFeature2RequestObjecth+0x6c>
   2cbdc: 39 6d 00 94  	bl	0x480c0 <_ZNK15ChiFeature2Base21GetFeaturePrivContextEP24ChiFeature2RequestObject@plt>
   2cbe0: 20 01 00 b4  	cbz	x0, 0x2cc04 <_ZNK23ChiFeature2HWmultiframe26GetPrivateContextForResultEP24ChiFeature2RequestObjecth+0x5c>
   2cbec: a9 00 00 54  	b.ls	0x2cc00 <_ZNK23ChiFeature2HWmultiframe26GetPrivateContextForResultEP24ChiFeature2RequestObjecth+0x58>
   2cbfc: 02 00 00 14  	b	0x2cc04 <_ZNK23ChiFeature2HWmultiframe26GetPrivateContextForResultEP24ChiFeature2RequestObjecth+0x5c>
   2cc34: e9 ff ff 17  	b	0x2cbd8 <_ZNK23ChiFeature2HWmultiframe26GetPrivateContextForResultEP24ChiFeature2RequestObjecth+0x30>
000000000002cc38 <_ZNK23ChiFeature2HWmultiframe22PrepareAllDependenciesEP24ChiFeature2RequestObject>:
   2cc64: 1a 01 00 b0  	adrp	x26, 0x4d000 <_ZNK23ChiFeature2HWmultiframe22PrepareAllDependenciesEP24ChiFeature2RequestObject+0xb0>
   2cc88: c1 1a 00 54  	b.ne	0x2cfe0 <_ZNK23ChiFeature2HWmultiframe22PrepareAllDependenciesEP24ChiFeature2RequestObject+0x3a8>
   2cc98: 46 6d 00 94  	bl	0x481b0 <_ZNK15ChiFeature2Base19GetCurrentStageInfoEP24ChiFeature2RequestObjectP20ChiFeature2StageInfo@plt>
   2cca0: 60 00 00 34  	cbz	w0, 0x2ccac <_ZNK23ChiFeature2HWmultiframe22PrepareAllDependenciesEP24ChiFeature2RequestObject+0x74>
   2cca8: 0b 00 00 14  	b	0x2ccd4 <_ZNK23ChiFeature2HWmultiframe22PrepareAllDependenciesEP24ChiFeature2RequestObject+0x9c>
   2ccc0: 61 1b 00 54  	b.ne	0x2d02c <_ZNK23ChiFeature2HWmultiframe22PrepareAllDependenciesEP24ChiFeature2RequestObject+0x3f4>
   2cccc: ed 00 00 94  	bl	0x2d080 <_ZNK23ChiFeature2HWmultiframe22PrepareAllDependenciesEP24ChiFeature2RequestObject+0x448>
   2cce0: c1 18 00 54  	b.ne	0x2cff8 <_ZNK23ChiFeature2HWmultiframe22PrepareAllDependenciesEP24ChiFeature2RequestObject+0x3c0>
   2ccec: 41 19 00 54  	b.ne	0x2d014 <_ZNK23ChiFeature2HWmultiframe22PrepareAllDependenciesEP24ChiFeature2RequestObject+0x3dc>
   2ccf8: f2 6c 00 94  	bl	0x480c0 <_ZNK15ChiFeature2Base21GetFeaturePrivContextEP24ChiFeature2RequestObject@plt>
   2ccfc: c0 03 00 b4  	cbz	x0, 0x2cd74 <_ZNK23ChiFeature2HWmultiframe22PrepareAllDependenciesEP24ChiFeature2RequestObject+0x13c>
   2cd08: 62 03 00 54  	b.hs	0x2cd74 <_ZNK23ChiFeature2HWmultiframe22PrepareAllDependenciesEP24ChiFeature2RequestObject+0x13c>
   2cd0c: f6 08 00 b4  	cbz	x22, 0x2ce28 <_ZNK23ChiFeature2HWmultiframe22PrepareAllDependenciesEP24ChiFeature2RequestObject+0x1f0>
   2cd20: 21 19 00 54  	b.ne	0x2d044 <_ZNK23ChiFeature2HWmultiframe22PrepareAllDependenciesEP24ChiFeature2RequestObject+0x40c>
   2cd38: 36 6d 00 94  	bl	0x48210 <_ZNK15ChiFeature2Base36GetDependencyListFromStageDescriptorEPK26ChiFeature2StageDescriptorhhh@plt>
   2cd44: 28 0a 00 b4  	cbz	x8, 0x2ce88 <_ZNK23ChiFeature2HWmultiframe22PrepareAllDependenciesEP24ChiFeature2RequestObject+0x250>
   2cd4c: e9 09 20 36  	tbz	w9, #4, 0x2ce88 <_ZNK23ChiFeature2HWmultiframe22PrepareAllDependenciesEP24ChiFeature2RequestObject+0x250>
   2cd54: 40 08 00 54  	b.eq	0x2ce5c <_ZNK23ChiFeature2HWmultiframe22PrepareAllDependenciesEP24ChiFeature2RequestObject+0x224>
   2cd58: f8 08 00 35  	cbnz	w24, 0x2ce74 <_ZNK23ChiFeature2HWmultiframe22PrepareAllDependenciesEP24ChiFeature2RequestObject+0x23c>
   2cd70: 46 00 00 14  	b	0x2ce88 <_ZNK23ChiFeature2HWmultiframe22PrepareAllDependenciesEP24ChiFeature2RequestObject+0x250>
   2cd74: 02 01 00 b0  	adrp	x2, 0x4d000 <_ZNK23ChiFeature2HWmultiframe22PrepareAllDependenciesEP24ChiFeature2RequestObject+0x1c0>
   2cd80: 2f 05 00 36  	tbz	w15, #0, 0x2ce24 <_ZNK23ChiFeature2HWmultiframe22PrepareAllDependenciesEP24ChiFeature2RequestObject+0x1ec>
   2cd84: 04 01 00 b0  	adrp	x4, 0x4d000 <_ZNK23ChiFeature2HWmultiframe22PrepareAllDependenciesEP24ChiFeature2RequestObject+0x1d0>
   2cd94: 41 02 00 54  	b.ne	0x2cddc <_ZNK23ChiFeature2HWmultiframe22PrepareAllDependenciesEP24ChiFeature2RequestObject+0x1a4>
   2cd98: 17 ff ff d0  	adrp	x23, 0xe000 <_ZNK23ChiFeature2HWmultiframe22PrepareAllDependenciesEP24ChiFeature2RequestObject+0xe8>
   2cdb4: 41 ff ff 90  	adrp	x1, 0x14000 <_ZNK23ChiFeature2HWmultiframe22PrepareAllDependenciesEP24ChiFeature2RequestObject+0x11c>
   2cdb8: 22 ff ff f0  	adrp	x2, 0x13000 <_ZNK23ChiFeature2HWmultiframe22PrepareAllDependenciesEP24ChiFeature2RequestObject+0x11c>
   2cdbc: 45 ff ff 90  	adrp	x5, 0x14000 <_ZNK23ChiFeature2HWmultiframe22PrepareAllDependenciesEP24ChiFeature2RequestObject+0x124>
   2cddc: 16 ff ff d0  	adrp	x22, 0xe000 <_ZNK23ChiFeature2HWmultiframe22PrepareAllDependenciesEP24ChiFeature2RequestObject+0x12c>
   2cdf8: 21 ff ff f0  	adrp	x1, 0x13000 <_ZNK23ChiFeature2HWmultiframe22PrepareAllDependenciesEP24ChiFeature2RequestObject+0x15c>
   2ce00: 00 ff ff b0  	adrp	x0, 0xd000 <_ZNK23ChiFeature2HWmultiframe22PrepareAllDependenciesEP24ChiFeature2RequestObject+0x14c>
   2ce04: 43 ff ff 90  	adrp	x3, 0x14000 <_ZNK23ChiFeature2HWmultiframe22PrepareAllDependenciesEP24ChiFeature2RequestObject+0x16c>
   2ce08: 25 ff ff 90  	adrp	x5, 0x10000 <_ZNK23ChiFeature2HWmultiframe22PrepareAllDependenciesEP24ChiFeature2RequestObject+0x160>
   2ce20: a0 6c 00 94  	bl	0x480a0 <_ZN6ChiLog9LogSystemEPKcS1_S1_S1_iS1_z@plt>
   2ce34: 21 12 00 54  	b.ne	0x2d078 <_ZNK23ChiFeature2HWmultiframe22PrepareAllDependenciesEP24ChiFeature2RequestObject+0x440>
   2ce70: 06 00 00 14  	b	0x2ce88 <_ZNK23ChiFeature2HWmultiframe22PrepareAllDependenciesEP24ChiFeature2RequestObject+0x250>
   2ceac: a0 00 00 b4  	cbz	x0, 0x2cec0 <_ZNK23ChiFeature2HWmultiframe22PrepareAllDependenciesEP24ChiFeature2RequestObject+0x288>
   2cec0: 10 01 00 b0  	adrp	x16, 0x4d000 <_ZNK23ChiFeature2HWmultiframe22PrepareAllDependenciesEP24ChiFeature2RequestObject+0x30c>
   2cecc: 6d 05 18 36  	tbz	w13, #3, 0x2cf78 <_ZNK23ChiFeature2HWmultiframe22PrepareAllDependenciesEP24ChiFeature2RequestObject+0x340>
   2ced0: 11 01 00 b0  	adrp	x17, 0x4d000 <_ZNK23ChiFeature2HWmultiframe22PrepareAllDependenciesEP24ChiFeature2RequestObject+0x31c>
   2ced4: 18 ff ff d0  	adrp	x24, 0xe000 <_ZNK23ChiFeature2HWmultiframe22PrepareAllDependenciesEP24ChiFeature2RequestObject+0x224>
   2cee8: 41 02 00 54  	b.ne	0x2cf30 <_ZNK23ChiFeature2HWmultiframe22PrepareAllDependenciesEP24ChiFeature2RequestObject+0x2f8>
   2cf08: 41 ff ff 90  	adrp	x1, 0x14000 <_ZNK23ChiFeature2HWmultiframe22PrepareAllDependenciesEP24ChiFeature2RequestObject+0x270>
   2cf0c: 22 ff ff d0  	adrp	x2, 0x12000 <_ZNK23ChiFeature2HWmultiframe22PrepareAllDependenciesEP24ChiFeature2RequestObject+0x26c>
   2cf10: 45 ff ff 90  	adrp	x5, 0x14000 <_ZNK23ChiFeature2HWmultiframe22PrepareAllDependenciesEP24ChiFeature2RequestObject+0x278>
   2cf50: 40 ff ff 90  	adrp	x0, 0x14000 <_ZNK23ChiFeature2HWmultiframe22PrepareAllDependenciesEP24ChiFeature2RequestObject+0x2b8>
   2cf54: 21 ff ff 90  	adrp	x1, 0x10000 <_ZNK23ChiFeature2HWmultiframe22PrepareAllDependenciesEP24ChiFeature2RequestObject+0x2ac>
   2cf58: 43 ff ff 90  	adrp	x3, 0x14000 <_ZNK23ChiFeature2HWmultiframe22PrepareAllDependenciesEP24ChiFeature2RequestObject+0x2c0>
   2cf5c: 25 ff ff b0  	adrp	x5, 0x11000 <_ZNK23ChiFeature2HWmultiframe22PrepareAllDependenciesEP24ChiFeature2RequestObject+0x2b8>
   2cf74: 4b 6c 00 94  	bl	0x480a0 <_ZN6ChiLog9LogSystemEPKcS1_S1_S1_iS1_z@plt>
   2cf78: 96 f5 ff b4  	cbz	x22, 0x2ce28 <_ZNK23ChiFeature2HWmultiframe22PrepareAllDependenciesEP24ChiFeature2RequestObject+0x1f0>
   2cf7c: 77 f5 ff b4  	cbz	x23, 0x2ce28 <_ZNK23ChiFeature2HWmultiframe22PrepareAllDependenciesEP24ChiFeature2RequestObject+0x1f0>
   2cf84: 4e 01 00 34  	cbz	w14, 0x2cfac <_ZNK23ChiFeature2HWmultiframe22PrepareAllDependenciesEP24ChiFeature2RequestObject+0x374>
   2cfa4: 48 ff ff 54  	b.hi	0x2cf8c <_ZNK23ChiFeature2HWmultiframe22PrepareAllDependenciesEP24ChiFeature2RequestObject+0x354>
   2cfa8: 02 00 00 14  	b	0x2cfb0 <_ZNK23ChiFeature2HWmultiframe22PrepareAllDependenciesEP24ChiFeature2RequestObject+0x378>
   2cfbc: 01 05 00 54  	b.ne	0x2d05c <_ZNK23ChiFeature2HWmultiframe22PrepareAllDependenciesEP24ChiFeature2RequestObject+0x424>
   2cfcc: 41 6d 00 94  	bl	0x484d0 <_ZNK15ChiFeature2Base23PopulateAllDependenciesEP24ChiFeature2RequestObjecthPK26ChiFeature2InputDependency@plt>
   2cfdc: 93 ff ff 17  	b	0x2ce28 <_ZNK23ChiFeature2HWmultiframe22PrepareAllDependenciesEP24ChiFeature2RequestObject+0x1f0>
   2cff4: 26 ff ff 17  	b	0x2cc8c <_ZNK23ChiFeature2HWmultiframe22PrepareAllDependenciesEP24ChiFeature2RequestObject+0x54>
   2d010: 35 ff ff 17  	b	0x2cce4 <_ZNK23ChiFeature2HWmultiframe22PrepareAllDependenciesEP24ChiFeature2RequestObject+0xac>
   2d028: 32 ff ff 17  	b	0x2ccf0 <_ZNK23ChiFeature2HWmultiframe22PrepareAllDependenciesEP24ChiFeature2RequestObject+0xb8>
   2d040: 21 ff ff 17  	b	0x2ccc4 <_ZNK23ChiFeature2HWmultiframe22PrepareAllDependenciesEP24ChiFeature2RequestObject+0x8c>
   2d058: 33 ff ff 17  	b	0x2cd24 <_ZNK23ChiFeature2HWmultiframe22PrepareAllDependenciesEP24ChiFeature2RequestObject+0xec>
   2d074: d3 ff ff 17  	b	0x2cfc0 <_ZNK23ChiFeature2HWmultiframe22PrepareAllDependenciesEP24ChiFeature2RequestObject+0x388>
   2d098: 09 01 00 90  	adrp	x9, 0x4d000 <_ZNK23ChiFeature2HWmultiframe22PrepareAllDependenciesEP24ChiFeature2RequestObject+0x4e0>
   2d0ac: 81 07 00 54  	b.ne	0x2d19c <_ZNK23ChiFeature2HWmultiframe22PrepareAllDependenciesEP24ChiFeature2RequestObject+0x564>
   2d0c4: 69 00 00 54  	b.ls	0x2d0d0 <_ZNK23ChiFeature2HWmultiframe22PrepareAllDependenciesEP24ChiFeature2RequestObject+0x498>
   2d0cc: 30 00 00 14  	b	0x2d18c <_ZNK23ChiFeature2HWmultiframe22PrepareAllDependenciesEP24ChiFeature2RequestObject+0x554>
   2d0d0: 0b 01 00 90  	adrp	x11, 0x4d000 <_ZNK23ChiFeature2HWmultiframe22PrepareAllDependenciesEP24ChiFeature2RequestObject+0x518>
   2d0dc: 68 05 00 36  	tbz	w8, #0, 0x2d188 <_ZNK23ChiFeature2HWmultiframe22PrepareAllDependenciesEP24ChiFeature2RequestObject+0x550>
   2d0e0: 0c 01 00 90  	adrp	x12, 0x4d000 <_ZNK23ChiFeature2HWmultiframe22PrepareAllDependenciesEP24ChiFeature2RequestObject+0x528>
   2d0e4: 35 ff ff 90  	adrp	x21, 0x11000 <_ZNK23ChiFeature2HWmultiframe22PrepareAllDependenciesEP24ChiFeature2RequestObject+0x43c>
   2d0f8: 41 02 00 54  	b.ne	0x2d140 <_ZNK23ChiFeature2HWmultiframe22PrepareAllDependenciesEP24ChiFeature2RequestObject+0x508>
   2d110: 21 ff ff f0  	adrp	x1, 0x14000 <_ZNK23ChiFeature2HWmultiframe22PrepareAllDependenciesEP24ChiFeature2RequestObject+0x474>
   2d114: 22 ff ff 90  	adrp	x2, 0x11000 <_ZNK23ChiFeature2HWmultiframe22PrepareAllDependenciesEP24ChiFeature2RequestObject+0x46c>
   2d118: 05 ff ff d0  	adrp	x5, 0xf000 <_ZNK23ChiFeature2HWmultiframe22PrepareAllDependenciesEP24ChiFeature2RequestObject+0x468>
   2d154: 21 ff ff d0  	adrp	x1, 0x13000 <_ZNK23ChiFeature2HWmultiframe22PrepareAllDependenciesEP24ChiFeature2RequestObject+0x4b4>
   2d15c: 00 ff ff 90  	adrp	x0, 0xd000 <_ZNK23ChiFeature2HWmultiframe22PrepareAllDependenciesEP24ChiFeature2RequestObject+0x4a4>
   2d160: 03 ff ff d0  	adrp	x3, 0xf000 <_ZNK23ChiFeature2HWmultiframe22PrepareAllDependenciesEP24ChiFeature2RequestObject+0x4b0>
   2d164: 05 ff ff f0  	adrp	x5, 0x10000 <_ZNK23ChiFeature2HWmultiframe22PrepareAllDependenciesEP24ChiFeature2RequestObject+0x4b8>
   2d184: c7 6b 00 94  	bl	0x480a0 <_ZN6ChiLog9LogSystemEPKcS1_S1_S1_iS1_z@plt>
   2d1b0: c0 ff ff 17  	b	0x2d0b0 <_ZNK23ChiFeature2HWmultiframe22PrepareAllDependenciesEP24ChiFeature2RequestObject+0x478>
000000000002d1b8 <_ZNK23ChiFeature2HWmultiframe25ProcessHWMFPrefilterStageEP24ChiFeature2RequestObjecthhh>:
   2d1e4: 4e ff ff 90  	adrp	x14, 0x15000 <_ZNK23ChiFeature2HWmultiframe22PrepareAllDependenciesEP24ChiFeature2RequestObject+0x54c>
   2d204: 4c ff ff 90  	adrp	x12, 0x15000 <_ZNK23ChiFeature2HWmultiframe22PrepareAllDependenciesEP24ChiFeature2RequestObject+0x56c>
   2d230: 4d ff ff 90  	adrp	x13, 0x15000 <_ZNK23ChiFeature2HWmultiframe25ProcessHWMFPrefilterStageEP24ChiFeature2RequestObjecthhh+0x18>
   2d258: 0d 01 00 90  	adrp	x13, 0x4d000 <_ZNK23ChiFeature2HWmultiframe25ProcessHWMFPrefilterStageEP24ChiFeature2RequestObjecthhh+0x120>
   2d298: c1 96 00 54  	b.ne	0x2e570 <_ZNK23ChiFeature2HWmultiframe25ProcessHWMFPrefilterStageEP24ChiFeature2RequestObjecthhh+0x13b8>
   2d2a8: 76 ff ff 97  	bl	0x2d080 <_ZNK23ChiFeature2HWmultiframe22PrepareAllDependenciesEP24ChiFeature2RequestObject+0x448>
   2d2ac: a0 13 00 b4  	cbz	x0, 0x2d520 <_ZNK23ChiFeature2HWmultiframe25ProcessHWMFPrefilterStageEP24ChiFeature2RequestObjecthhh+0x368>
   2d2b0: 0f 01 00 90  	adrp	x15, 0x4d000 <_ZNK23ChiFeature2HWmultiframe25ProcessHWMFPrefilterStageEP24ChiFeature2RequestObjecthhh+0x178>
   2d2c4: 6c 06 18 36  	tbz	w12, #3, 0x2d390 <_ZNK23ChiFeature2HWmultiframe25ProcessHWMFPrefilterStageEP24ChiFeature2RequestObjecthhh+0x1d8>
   2d2c8: 10 01 00 90  	adrp	x16, 0x4d000 <_ZNK23ChiFeature2HWmultiframe25ProcessHWMFPrefilterStageEP24ChiFeature2RequestObjecthhh+0x190>
   2d2cc: 19 ff ff b0  	adrp	x25, 0xe000 <_ZNK23ChiFeature2HWmultiframe25ProcessHWMFPrefilterStageEP24ChiFeature2RequestObjecthhh+0x98>
   2d2e0: c1 02 00 54  	b.ne	0x2d338 <_ZNK23ChiFeature2HWmultiframe25ProcessHWMFPrefilterStageEP24ChiFeature2RequestObjecthhh+0x180>
   2d2f8: 21 ff ff f0  	adrp	x1, 0x14000 <_ZNK23ChiFeature2HWmultiframe25ProcessHWMFPrefilterStageEP24ChiFeature2RequestObjecthhh+0xdc>
   2d2fc: 22 ff ff b0  	adrp	x2, 0x12000 <_ZNK23ChiFeature2HWmultiframe25ProcessHWMFPrefilterStageEP24ChiFeature2RequestObjecthhh+0xd8>
   2d300: 05 ff ff 90  	adrp	x5, 0xd000 <_ZNK23ChiFeature2HWmultiframe25ProcessHWMFPrefilterStageEP24ChiFeature2RequestObjecthhh+0xc8>
   2d34c: 01 ff ff f0  	adrp	x1, 0x10000 <_ZNK23ChiFeature2HWmultiframe25ProcessHWMFPrefilterStageEP24ChiFeature2RequestObjecthhh+0x120>
   2d354: 20 ff ff f0  	adrp	x0, 0x14000 <_ZNK23ChiFeature2HWmultiframe25ProcessHWMFPrefilterStageEP24ChiFeature2RequestObjecthhh+0x138>
   2d358: 03 ff ff 90  	adrp	x3, 0xd000 <_ZNK23ChiFeature2HWmultiframe25ProcessHWMFPrefilterStageEP24ChiFeature2RequestObjecthhh+0x120>
   2d35c: 25 ff ff d0  	adrp	x5, 0x13000 <_ZNK23ChiFeature2HWmultiframe25ProcessHWMFPrefilterStageEP24ChiFeature2RequestObjecthhh+0x13c>
   2d38c: 45 6b 00 94  	bl	0x480a0 <_ZN6ChiLog9LogSystemEPKcS1_S1_S1_iS1_z@plt>
   2d394: 10 01 00 90  	adrp	x16, 0x4d000 <_ZNK23ChiFeature2HWmultiframe25ProcessHWMFPrefilterStageEP24ChiFeature2RequestObjecthhh+0x25c>
   2d3a4: 21 8f 00 54  	b.ne	0x2e588 <_ZNK23ChiFeature2HWmultiframe25ProcessHWMFPrefilterStageEP24ChiFeature2RequestObjecthhh+0x13d0>
   2d3b0: a1 8f 00 54  	b.ne	0x2e5a4 <_ZNK23ChiFeature2HWmultiframe25ProcessHWMFPrefilterStageEP24ChiFeature2RequestObjecthhh+0x13ec>
   2d3bc: 41 6b 00 94  	bl	0x480c0 <_ZNK15ChiFeature2Base21GetFeaturePrivContextEP24ChiFeature2RequestObject@plt>
   2d3c4: 80 0a 00 b4  	cbz	x0, 0x2d514 <_ZNK23ChiFeature2HWmultiframe25ProcessHWMFPrefilterStageEP24ChiFeature2RequestObjecthhh+0x35c>
   2d3d0: 22 0a 00 54  	b.hs	0x2d514 <_ZNK23ChiFeature2HWmultiframe25ProcessHWMFPrefilterStageEP24ChiFeature2RequestObjecthhh+0x35c>
   2d3dc: 3c 09 00 b4  	cbz	x28, 0x2d500 <_ZNK23ChiFeature2HWmultiframe25ProcessHWMFPrefilterStageEP24ChiFeature2RequestObjecthhh+0x348>
   2d3e4: 06 01 00 90  	adrp	x6, 0x4d000 <_ZNK23ChiFeature2HWmultiframe25ProcessHWMFPrefilterStageEP24ChiFeature2RequestObjecthhh+0x2ac>
   2d3f4: 81 90 00 54  	b.ne	0x2e604 <_ZNK23ChiFeature2HWmultiframe25ProcessHWMFPrefilterStageEP24ChiFeature2RequestObjecthhh+0x144c>
   2d408: 36 6c 00 94  	bl	0x484e0 <_ZNK15ChiFeature2Base24GetExternalInputSettingsEP24ChiFeature2RequestObjectPK21ChiFeature2Identifierh@plt>
   2d40c: a0 07 00 b4  	cbz	x0, 0x2d500 <_ZNK23ChiFeature2HWmultiframe25ProcessHWMFPrefilterStageEP24ChiFeature2RequestObjecthhh+0x348>
   2d418: 06 6c 00 94  	bl	0x48430 <_ZN8ChxUtils17GetVendorTagValueEP11ChiMetadata9VendorTagPPv@plt>
   2d420: 0a 07 00 b4  	cbz	x10, 0x2d500 <_ZNK23ChiFeature2HWmultiframe25ProcessHWMFPrefilterStageEP24ChiFeature2RequestObjecthhh+0x348>
   2d428: c8 06 00 34  	cbz	w8, 0x2d500 <_ZNK23ChiFeature2HWmultiframe25ProcessHWMFPrefilterStageEP24ChiFeature2RequestObjecthhh+0x348>
   2d438: 13 01 00 90  	adrp	x19, 0x4d000 <_ZNK23ChiFeature2HWmultiframe25ProcessHWMFPrefilterStageEP24ChiFeature2RequestObjecthhh+0x300>
   2d450: 8e 05 18 36  	tbz	w14, #3, 0x2d500 <_ZNK23ChiFeature2HWmultiframe25ProcessHWMFPrefilterStageEP24ChiFeature2RequestObjecthhh+0x348>
   2d454: 02 01 00 90  	adrp	x2, 0x4d000 <_ZNK23ChiFeature2HWmultiframe25ProcessHWMFPrefilterStageEP24ChiFeature2RequestObjecthhh+0x31c>
   2d464: 61 02 00 54  	b.ne	0x2d4b0 <_ZNK23ChiFeature2HWmultiframe25ProcessHWMFPrefilterStageEP24ChiFeature2RequestObjecthhh+0x2f8>
   2d468: 19 ff ff b0  	adrp	x25, 0xe000 <_ZNK23ChiFeature2HWmultiframe25ProcessHWMFPrefilterStageEP24ChiFeature2RequestObjecthhh+0x234>
   2d488: 21 ff ff f0  	adrp	x1, 0x14000 <_ZNK23ChiFeature2HWmultiframe25ProcessHWMFPrefilterStageEP24ChiFeature2RequestObjecthhh+0x26c>
   2d48c: 02 ff ff b0  	adrp	x2, 0xe000 <_ZNK23ChiFeature2HWmultiframe25ProcessHWMFPrefilterStageEP24ChiFeature2RequestObjecthhh+0x258>
   2d490: 05 ff ff 90  	adrp	x5, 0xd000 <_ZNK23ChiFeature2HWmultiframe25ProcessHWMFPrefilterStageEP24ChiFeature2RequestObjecthhh+0x258>
   2d4b0: 19 ff ff b0  	adrp	x25, 0xe000 <_ZNK23ChiFeature2HWmultiframe25ProcessHWMFPrefilterStageEP24ChiFeature2RequestObjecthhh+0x27c>
   2d4d4: 20 ff ff f0  	adrp	x0, 0x14000 <_ZNK23ChiFeature2HWmultiframe25ProcessHWMFPrefilterStageEP24ChiFeature2RequestObjecthhh+0x2b8>
   2d4d8: 01 ff ff f0  	adrp	x1, 0x10000 <_ZNK23ChiFeature2HWmultiframe25ProcessHWMFPrefilterStageEP24ChiFeature2RequestObjecthhh+0x2ac>
   2d4dc: 03 ff ff 90  	adrp	x3, 0xd000 <_ZNK23ChiFeature2HWmultiframe25ProcessHWMFPrefilterStageEP24ChiFeature2RequestObjecthhh+0x2a4>
   2d4e0: 25 ff ff b0  	adrp	x5, 0x12000 <_ZNK23ChiFeature2HWmultiframe25ProcessHWMFPrefilterStageEP24ChiFeature2RequestObjecthhh+0x2bc>
   2d4f8: ea 6a 00 94  	bl	0x480a0 <_ZN6ChiLog9LogSystemEPKcS1_S1_S1_iS1_z@plt>
   2d508: 0f 07 00 34  	cbz	w15, 0x2d5e8 <_ZNK23ChiFeature2HWmultiframe25ProcessHWMFPrefilterStageEP24ChiFeature2RequestObjecthhh+0x430>
   2d510: 3a 00 00 14  	b	0x2d5f8 <_ZNK23ChiFeature2HWmultiframe25ProcessHWMFPrefilterStageEP24ChiFeature2RequestObjecthhh+0x440>
   2d51c: 1f 02 00 14  	b	0x2dd98 <_ZNK23ChiFeature2HWmultiframe25ProcessHWMFPrefilterStageEP24ChiFeature2RequestObjecthhh+0xbe0>
   2d520: 01 01 00 90  	adrp	x1, 0x4d000 <_ZNK23ChiFeature2HWmultiframe25ProcessHWMFPrefilterStageEP24ChiFeature2RequestObjecthhh+0x3e8>
   2d52c: a9 05 00 36  	tbz	w9, #0, 0x2d5e0 <_ZNK23ChiFeature2HWmultiframe25ProcessHWMFPrefilterStageEP24ChiFeature2RequestObjecthhh+0x428>
   2d530: 00 01 00 90  	adrp	x0, 0x4d000 <_ZNK23ChiFeature2HWmultiframe25ProcessHWMFPrefilterStageEP24ChiFeature2RequestObjecthhh+0x3f8>
   2d540: 81 02 00 54  	b.ne	0x2d590 <_ZNK23ChiFeature2HWmultiframe25ProcessHWMFPrefilterStageEP24ChiFeature2RequestObjecthhh+0x3d8>
   2d544: 17 ff ff b0  	adrp	x23, 0xe000 <_ZNK23ChiFeature2HWmultiframe25ProcessHWMFPrefilterStageEP24ChiFeature2RequestObjecthhh+0x310>
   2d560: 21 ff ff f0  	adrp	x1, 0x14000 <_ZNK23ChiFeature2HWmultiframe25ProcessHWMFPrefilterStageEP24ChiFeature2RequestObjecthhh+0x344>
   2d564: 02 ff ff 90  	adrp	x2, 0xd000 <_ZNK23ChiFeature2HWmultiframe25ProcessHWMFPrefilterStageEP24ChiFeature2RequestObjecthhh+0x32c>
   2d568: 05 ff ff 90  	adrp	x5, 0xd000 <_ZNK23ChiFeature2HWmultiframe25ProcessHWMFPrefilterStageEP24ChiFeature2RequestObjecthhh+0x330>
   2d590: 18 ff ff b0  	adrp	x24, 0xe000 <_ZNK23ChiFeature2HWmultiframe25ProcessHWMFPrefilterStageEP24ChiFeature2RequestObjecthhh+0x35c>
   2d5ac: 21 ff ff d0  	adrp	x1, 0x13000 <_ZNK23ChiFeature2HWmultiframe25ProcessHWMFPrefilterStageEP24ChiFeature2RequestObjecthhh+0x38c>
   2d5b4: 00 ff ff 90  	adrp	x0, 0xd000 <_ZNK23ChiFeature2HWmultiframe25ProcessHWMFPrefilterStageEP24ChiFeature2RequestObjecthhh+0x37c>
   2d5b8: 03 ff ff 90  	adrp	x3, 0xd000 <_ZNK23ChiFeature2HWmultiframe25ProcessHWMFPrefilterStageEP24ChiFeature2RequestObjecthhh+0x380>
   2d5bc: 05 ff ff f0  	adrp	x5, 0x10000 <_ZNK23ChiFeature2HWmultiframe25ProcessHWMFPrefilterStageEP24ChiFeature2RequestObjecthhh+0x390>
   2d5dc: b1 6a 00 94  	bl	0x480a0 <_ZN6ChiLog9LogSystemEPKcS1_S1_S1_iS1_z@plt>
   2d5e4: 35 02 00 14  	b	0x2deb8 <_ZNK23ChiFeature2HWmultiframe25ProcessHWMFPrefilterStageEP24ChiFeature2RequestObjecthhh+0xd00>
   2d5f8: 19 01 00 90  	adrp	x25, 0x4d000 <_ZNK23ChiFeature2HWmultiframe25ProcessHWMFPrefilterStageEP24ChiFeature2RequestObjecthhh+0x4c0>
   2d60c: b0 05 18 36  	tbz	w16, #3, 0x2d6c0 <_ZNK23ChiFeature2HWmultiframe25ProcessHWMFPrefilterStageEP24ChiFeature2RequestObjecthhh+0x508>
   2d610: 04 01 00 90  	adrp	x4, 0x4d000 <_ZNK23ChiFeature2HWmultiframe25ProcessHWMFPrefilterStageEP24ChiFeature2RequestObjecthhh+0x4d8>
   2d620: 81 02 00 54  	b.ne	0x2d670 <_ZNK23ChiFeature2HWmultiframe25ProcessHWMFPrefilterStageEP24ChiFeature2RequestObjecthhh+0x4b8>
   2d624: 19 ff ff b0  	adrp	x25, 0xe000 <_ZNK23ChiFeature2HWmultiframe25ProcessHWMFPrefilterStageEP24ChiFeature2RequestObjecthhh+0x3f0>
   2d640: 21 ff ff f0  	adrp	x1, 0x14000 <_ZNK23ChiFeature2HWmultiframe25ProcessHWMFPrefilterStageEP24ChiFeature2RequestObjecthhh+0x424>
   2d644: 22 ff ff d0  	adrp	x2, 0x13000 <_ZNK23ChiFeature2HWmultiframe25ProcessHWMFPrefilterStageEP24ChiFeature2RequestObjecthhh+0x424>
   2d648: 05 ff ff 90  	adrp	x5, 0xd000 <_ZNK23ChiFeature2HWmultiframe25ProcessHWMFPrefilterStageEP24ChiFeature2RequestObjecthhh+0x410>
   2d670: 19 ff ff b0  	adrp	x25, 0xe000 <_ZNK23ChiFeature2HWmultiframe25ProcessHWMFPrefilterStageEP24ChiFeature2RequestObjecthhh+0x43c>
   2d68c: 01 ff ff f0  	adrp	x1, 0x10000 <_ZNK23ChiFeature2HWmultiframe25ProcessHWMFPrefilterStageEP24ChiFeature2RequestObjecthhh+0x460>
   2d694: 20 ff ff f0  	adrp	x0, 0x14000 <_ZNK23ChiFeature2HWmultiframe25ProcessHWMFPrefilterStageEP24ChiFeature2RequestObjecthhh+0x478>
   2d698: 03 ff ff 90  	adrp	x3, 0xd000 <_ZNK23ChiFeature2HWmultiframe25ProcessHWMFPrefilterStageEP24ChiFeature2RequestObjecthhh+0x460>
   2d69c: 25 ff ff f0  	adrp	x5, 0x14000 <_ZNK23ChiFeature2HWmultiframe25ProcessHWMFPrefilterStageEP24ChiFeature2RequestObjecthhh+0x480>
   2d6bc: 79 6a 00 94  	bl	0x480a0 <_ZN6ChiLog9LogSystemEPKcS1_S1_S1_iS1_z@plt>
   2d6d4: 11 01 00 90  	adrp	x17, 0x4d000 <_ZNK23ChiFeature2HWmultiframe25ProcessHWMFPrefilterStageEP24ChiFeature2RequestObjecthhh+0x59c>
   2d6f0: e1 77 00 54  	b.ne	0x2e5ec <_ZNK23ChiFeature2HWmultiframe25ProcessHWMFPrefilterStageEP24ChiFeature2RequestObjecthhh+0x1434>
   2d70c: 79 6b 00 94  	bl	0x484f0 <_ZNK15ChiFeature2Base19GetDumpFileBaseNameEP24ChiFeature2RequestObjectPcj@plt>
   2d728: c8 00 00 54  	b.hi	0x2d740 <_ZNK23ChiFeature2HWmultiframe25ProcessHWMFPrefilterStageEP24ChiFeature2RequestObjecthhh+0x588>
   2d72c: 07 01 00 90  	adrp	x7, 0x4d000 <_ZNK23ChiFeature2HWmultiframe25ProcessHWMFPrefilterStageEP24ChiFeature2RequestObjecthhh+0x5f4>
   2d73c: 71 6b 00 94  	bl	0x48500 <_ZNSt3__112basic_stringIcNS_11char_traitsIcEENS_9allocatorIcEEE6assignEPKc@plt>
   2d750: 70 6b 00 94  	bl	0x48510 <_ZNSt3__1plIcNS_11char_traitsIcEENS_9allocatorIcEEEENS_12basic_stringIT_T0_T1_EEPKS6_RKS9_@plt>
   2d774: d1 00 00 37  	tbnz	w17, #0, 0x2d78c <_ZNK23ChiFeature2HWmultiframe25ProcessHWMFPrefilterStageEP24ChiFeature2RequestObjecthhh+0x5d4>
   2d788: 14 00 00 14  	b	0x2d7d8 <_ZNK23ChiFeature2HWmultiframe25ProcessHWMFPrefilterStageEP24ChiFeature2RequestObjecthhh+0x620>
   2d7b0: 42 01 00 36  	tbz	w2, #0, 0x2d7d8 <_ZNK23ChiFeature2HWmultiframe25ProcessHWMFPrefilterStageEP24ChiFeature2RequestObjecthhh+0x620>
   2d7c0: 23 7c 00 54  	b.lo	0x2e744 <_ZNK23ChiFeature2HWmultiframe25ProcessHWMFPrefilterStageEP24ChiFeature2RequestObjecthhh+0x158c>
   2d7c8: 00 7c 00 54  	b.eq	0x2e748 <_ZNK23ChiFeature2HWmultiframe25ProcessHWMFPrefilterStageEP24ChiFeature2RequestObjecthhh+0x1590>
   2d7f0: 55 28 00 34  	cbz	w21, 0x2dcf8 <_ZNK23ChiFeature2HWmultiframe25ProcessHWMFPrefilterStageEP24ChiFeature2RequestObjecthhh+0xb40>
   2d804: 01 01 00 90  	adrp	x1, 0x4d000 <_ZNK23ChiFeature2HWmultiframe25ProcessHWMFPrefilterStageEP24ChiFeature2RequestObjecthhh+0x6cc>
   2d84c: 09 00 00 14  	b	0x2d870 <_ZNK23ChiFeature2HWmultiframe25ProcessHWMFPrefilterStageEP24ChiFeature2RequestObjecthhh+0x6b8>
   2d85c: 31 6b 00 94  	bl	0x48520 <_ZNK15ChiFeature2Base20DumpInputImageBufferEP29ChiFeature2BufferMetadataInfoPKcj@plt>
   2d86c: 60 24 00 54  	b.eq	0x2dcf8 <_ZNK23ChiFeature2HWmultiframe25ProcessHWMFPrefilterStageEP24ChiFeature2RequestObjecthhh+0xb40>
   2d890: 28 6b 00 94  	bl	0x48530 <_ZNK24ChiFeature2RequestObject13GetBufferInfoE31ChiFeature2RequestObjectOpsTypePK21ChiFeature2IdentifierPPvPmhh@plt>
   2d8b0: 20 6b 00 94  	bl	0x48530 <_ZNK24ChiFeature2RequestObject13GetBufferInfoE31ChiFeature2RequestObjectOpsTypePK21ChiFeature2IdentifierPPvPmhh@plt>
   2d8b8: 20 74 00 54  	b.eq	0x2e73c <_ZNK23ChiFeature2HWmultiframe25ProcessHWMFPrefilterStageEP24ChiFeature2RequestObjecthhh+0x1584>
   2d8e8: 81 1d 00 54  	b.ne	0x2dc98 <_ZNK23ChiFeature2HWmultiframe25ProcessHWMFPrefilterStageEP24ChiFeature2RequestObjecthhh+0xae0>
   2d8fc: 11 6b 00 94  	bl	0x48540 <_ZNK15ChiFeature2Base15GetStreamBufferEPvmP15ChiStreamBuffer@plt>
   2d900: 0a 01 00 90  	adrp	x10, 0x4d000 <_ZNK23ChiFeature2HWmultiframe25ProcessHWMFPrefilterStageEP24ChiFeature2RequestObjecthhh+0x7c8>
   2d910: 85 06 18 36  	tbz	w5, #3, 0x2d9e0 <_ZNK23ChiFeature2HWmultiframe25ProcessHWMFPrefilterStageEP24ChiFeature2RequestObjecthhh+0x828>
   2d914: 01 01 00 90  	adrp	x1, 0x4d000 <_ZNK23ChiFeature2HWmultiframe25ProcessHWMFPrefilterStageEP24ChiFeature2RequestObjecthhh+0x7dc>
   2d924: e1 02 00 54  	b.ne	0x2d980 <_ZNK23ChiFeature2HWmultiframe25ProcessHWMFPrefilterStageEP24ChiFeature2RequestObjecthhh+0x7c8>
   2d928: 17 ff ff b0  	adrp	x23, 0xe000 <_ZNK23ChiFeature2HWmultiframe25ProcessHWMFPrefilterStageEP24ChiFeature2RequestObjecthhh+0x6f4>
   2d94c: 21 ff ff f0  	adrp	x1, 0x14000 <_ZNK23ChiFeature2HWmultiframe25ProcessHWMFPrefilterStageEP24ChiFeature2RequestObjecthhh+0x730>
   2d954: 22 ff ff 90  	adrp	x2, 0x11000 <_ZNK23ChiFeature2HWmultiframe25ProcessHWMFPrefilterStageEP24ChiFeature2RequestObjecthhh+0x72c>
   2d958: 05 ff ff 90  	adrp	x5, 0xd000 <_ZNK23ChiFeature2HWmultiframe25ProcessHWMFPrefilterStageEP24ChiFeature2RequestObjecthhh+0x720>
   2d980: 18 ff ff b0  	adrp	x24, 0xe000 <_ZNK23ChiFeature2HWmultiframe25ProcessHWMFPrefilterStageEP24ChiFeature2RequestObjecthhh+0x74c>
   2d9ac: 20 ff ff f0  	adrp	x0, 0x14000 <_ZNK23ChiFeature2HWmultiframe25ProcessHWMFPrefilterStageEP24ChiFeature2RequestObjecthhh+0x790>
   2d9b0: 01 ff ff f0  	adrp	x1, 0x10000 <_ZNK23ChiFeature2HWmultiframe25ProcessHWMFPrefilterStageEP24ChiFeature2RequestObjecthhh+0x784>
   2d9b4: 03 ff ff 90  	adrp	x3, 0xd000 <_ZNK23ChiFeature2HWmultiframe25ProcessHWMFPrefilterStageEP24ChiFeature2RequestObjecthhh+0x77c>
   2d9b8: 05 ff ff d0  	adrp	x5, 0xf000 <_ZNK23ChiFeature2HWmultiframe25ProcessHWMFPrefilterStageEP24ChiFeature2RequestObjecthhh+0x788>
   2d9d8: b2 69 00 94  	bl	0x480a0 <_ZN6ChiLog9LogSystemEPKcS1_S1_S1_iS1_z@plt>
   2d9e0: d5 11 00 35  	cbnz	w21, 0x2dc18 <_ZNK23ChiFeature2HWmultiframe25ProcessHWMFPrefilterStageEP24ChiFeature2RequestObjecthhh+0xa60>
   2d9f0: f2 f7 ff 97  	bl	0x2b9b8 <_ZNK23ChiFeature2HWmultiframe27GetPrivateContextForRequestEP24ChiFeature2RequestObject+0x90>
   2d9f8: 02 01 00 90  	adrp	x2, 0x4d000 <_ZNK23ChiFeature2HWmultiframe25ProcessHWMFPrefilterStageEP24ChiFeature2RequestObjecthhh+0x8c0>
   2da0c: a1 16 00 54  	b.ne	0x2dce0 <_ZNK23ChiFeature2HWmultiframe25ProcessHWMFPrefilterStageEP24ChiFeature2RequestObjecthhh+0xb28>
   2da18: 82 6a 00 94  	bl	0x48420 <_ZN18ChiMetadataManager21GetMetadataFromHandleEPv@plt>
   2da1c: 00 09 00 b4  	cbz	x0, 0x2db3c <_ZNK23ChiFeature2HWmultiframe25ProcessHWMFPrefilterStageEP24ChiFeature2RequestObjecthhh+0x984>
   2da5c: 17 07 00 b4  	cbz	x23, 0x2db3c <_ZNK23ChiFeature2HWmultiframe25ProcessHWMFPrefilterStageEP24ChiFeature2RequestObjecthhh+0x984>
   2da60: 0e 01 00 90  	adrp	x14, 0x4d000 <_ZNK23ChiFeature2HWmultiframe25ProcessHWMFPrefilterStageEP24ChiFeature2RequestObjecthhh+0x928>
   2da6c: 83 06 18 36  	tbz	w3, #3, 0x2db3c <_ZNK23ChiFeature2HWmultiframe25ProcessHWMFPrefilterStageEP24ChiFeature2RequestObjecthhh+0x984>
   2da70: 09 01 00 90  	adrp	x9, 0x4d000 <_ZNK23ChiFeature2HWmultiframe25ProcessHWMFPrefilterStageEP24ChiFeature2RequestObjecthhh+0x938>
   2da80: e1 02 00 54  	b.ne	0x2dadc <_ZNK23ChiFeature2HWmultiframe25ProcessHWMFPrefilterStageEP24ChiFeature2RequestObjecthhh+0x924>
   2da84: 18 ff ff b0  	adrp	x24, 0xe000 <_ZNK23ChiFeature2HWmultiframe25ProcessHWMFPrefilterStageEP24ChiFeature2RequestObjecthhh+0x850>
   2daa8: 21 ff ff f0  	adrp	x1, 0x14000 <_ZNK23ChiFeature2HWmultiframe25ProcessHWMFPrefilterStageEP24ChiFeature2RequestObjecthhh+0x88c>
   2daac: 22 ff ff f0  	adrp	x2, 0x14000 <_ZNK23ChiFeature2HWmultiframe25ProcessHWMFPrefilterStageEP24ChiFeature2RequestObjecthhh+0x890>
   2dab0: 05 ff ff 90  	adrp	x5, 0xd000 <_ZNK23ChiFeature2HWmultiframe25ProcessHWMFPrefilterStageEP24ChiFeature2RequestObjecthhh+0x878>
   2dadc: 18 ff ff b0  	adrp	x24, 0xe000 <_ZNK23ChiFeature2HWmultiframe25ProcessHWMFPrefilterStageEP24ChiFeature2RequestObjecthhh+0x8a8>
   2db04: 20 ff ff f0  	adrp	x0, 0x14000 <_ZNK23ChiFeature2HWmultiframe25ProcessHWMFPrefilterStageEP24ChiFeature2RequestObjecthhh+0x8e8>
   2db08: 01 ff ff f0  	adrp	x1, 0x10000 <_ZNK23ChiFeature2HWmultiframe25ProcessHWMFPrefilterStageEP24ChiFeature2RequestObjecthhh+0x8dc>
   2db0c: 03 ff ff 90  	adrp	x3, 0xd000 <_ZNK23ChiFeature2HWmultiframe25ProcessHWMFPrefilterStageEP24ChiFeature2RequestObjecthhh+0x8d4>
   2db10: 25 ff ff 90  	adrp	x5, 0x11000 <_ZNK23ChiFeature2HWmultiframe25ProcessHWMFPrefilterStageEP24ChiFeature2RequestObjecthhh+0x8e8>
   2db34: 5b 69 00 94  	bl	0x480a0 <_ZN6ChiLog9LogSystemEPKcS1_S1_S1_iS1_z@plt>
   2db40: d5 06 00 35  	cbnz	w21, 0x2dc18 <_ZNK23ChiFeature2HWmultiframe25ProcessHWMFPrefilterStageEP24ChiFeature2RequestObjecthhh+0xa60>
   2db48: 66 00 00 b4  	cbz	x6, 0x2db54 <_ZNK23ChiFeature2HWmultiframe25ProcessHWMFPrefilterStageEP24ChiFeature2RequestObjecthhh+0x99c>
   2db50: 47 06 00 b5  	cbnz	x7, 0x2dc18 <_ZNK23ChiFeature2HWmultiframe25ProcessHWMFPrefilterStageEP24ChiFeature2RequestObjecthhh+0xa60>
   2db54: 0c 01 00 90  	adrp	x12, 0x4d000 <_ZNK23ChiFeature2HWmultiframe25ProcessHWMFPrefilterStageEP24ChiFeature2RequestObjecthhh+0xa1c>
   2db60: d5 05 00 36  	tbz	w21, #0, 0x2dc18 <_ZNK23ChiFeature2HWmultiframe25ProcessHWMFPrefilterStageEP24ChiFeature2RequestObjecthhh+0xa60>
   2db64: 0a 01 00 90  	adrp	x10, 0x4d000 <_ZNK23ChiFeature2HWmultiframe25ProcessHWMFPrefilterStageEP24ChiFeature2RequestObjecthhh+0xa2c>
   2db74: 81 02 00 54  	b.ne	0x2dbc4 <_ZNK23ChiFeature2HWmultiframe25ProcessHWMFPrefilterStageEP24ChiFeature2RequestObjecthhh+0xa0c>
   2db78: 17 ff ff b0  	adrp	x23, 0xe000 <_ZNK23ChiFeature2HWmultiframe25ProcessHWMFPrefilterStageEP24ChiFeature2RequestObjecthhh+0x944>
   2db9c: 21 ff ff f0  	adrp	x1, 0x14000 <_ZNK23ChiFeature2HWmultiframe25ProcessHWMFPrefilterStageEP24ChiFeature2RequestObjecthhh+0x980>
   2dba0: 22 ff ff 90  	adrp	x2, 0x11000 <_ZNK23ChiFeature2HWmultiframe25ProcessHWMFPrefilterStageEP24ChiFeature2RequestObjecthhh+0x978>
   2dba4: 05 ff ff 90  	adrp	x5, 0xd000 <_ZNK23ChiFeature2HWmultiframe25ProcessHWMFPrefilterStageEP24ChiFeature2RequestObjecthhh+0x96c>
   2dbc4: 18 ff ff b0  	adrp	x24, 0xe000 <_ZNK23ChiFeature2HWmultiframe25ProcessHWMFPrefilterStageEP24ChiFeature2RequestObjecthhh+0x990>
   2dbec: 00 ff ff 90  	adrp	x0, 0xd000 <_ZNK23ChiFeature2HWmultiframe25ProcessHWMFPrefilterStageEP24ChiFeature2RequestObjecthhh+0x9b4>
   2dbf0: 21 ff ff d0  	adrp	x1, 0x13000 <_ZNK23ChiFeature2HWmultiframe25ProcessHWMFPrefilterStageEP24ChiFeature2RequestObjecthhh+0x9d0>
   2dbf4: 03 ff ff 90  	adrp	x3, 0xd000 <_ZNK23ChiFeature2HWmultiframe25ProcessHWMFPrefilterStageEP24ChiFeature2RequestObjecthhh+0x9bc>
   2dbf8: 05 ff ff b0  	adrp	x5, 0xe000 <_ZNK23ChiFeature2HWmultiframe25ProcessHWMFPrefilterStageEP24ChiFeature2RequestObjecthhh+0x9c4>
   2dc10: 24 69 00 94  	bl	0x480a0 <_ZN6ChiLog9LogSystemEPKcS1_S1_S1_iS1_z@plt>
   2dc18: aa 69 00 94  	bl	0x482c0 <_ZN15ExtensionModule11GetInstanceEv@plt>
   2dc28: c1 e1 ff 54  	b.ne	0x2d860 <_ZNK23ChiFeature2HWmultiframe25ProcessHWMFPrefilterStageEP24ChiFeature2RequestObjecthhh+0x6a8>
   2dc30: 03 01 00 90  	adrp	x3, 0x4d000 <_ZNK23ChiFeature2HWmultiframe25ProcessHWMFPrefilterStageEP24ChiFeature2RequestObjecthhh+0xaf8>
   2dc40: 81 03 00 54  	b.ne	0x2dcb0 <_ZNK23ChiFeature2HWmultiframe25ProcessHWMFPrefilterStageEP24ChiFeature2RequestObjecthhh+0xaf8>
   2dc4c: 66 00 00 36  	tbz	w6, #0, 0x2dc58 <_ZNK23ChiFeature2HWmultiframe25ProcessHWMFPrefilterStageEP24ChiFeature2RequestObjecthhh+0xaa0>
   2dc64: 3b 6a 00 94  	bl	0x48550 <_ZNK15ChiFeature2Base19DumpInputMetaBufferEP29ChiFeature2BufferMetadataInfoPKcj@plt>
   2dc6c: 04 01 00 90  	adrp	x4, 0x4d000 <_ZNK23ChiFeature2HWmultiframe25ProcessHWMFPrefilterStageEP24ChiFeature2RequestObjecthhh+0xb34>
   2dc7c: 61 02 00 54  	b.ne	0x2dcc8 <_ZNK23ChiFeature2HWmultiframe25ProcessHWMFPrefilterStageEP24ChiFeature2RequestObjecthhh+0xb10>
   2dc88: 47 de 07 36  	tbz	w7, #0, 0x2d850 <_ZNK23ChiFeature2HWmultiframe25ProcessHWMFPrefilterStageEP24ChiFeature2RequestObjecthhh+0x698>
   2dc94: ef fe ff 17  	b	0x2d850 <_ZNK23ChiFeature2HWmultiframe25ProcessHWMFPrefilterStageEP24ChiFeature2RequestObjecthhh+0x698>
   2dcac: 10 ff ff 17  	b	0x2d8ec <_ZNK23ChiFeature2HWmultiframe25ProcessHWMFPrefilterStageEP24ChiFeature2RequestObjecthhh+0x734>
   2dcc4: e0 ff ff 17  	b	0x2dc44 <_ZNK23ChiFeature2HWmultiframe25ProcessHWMFPrefilterStageEP24ChiFeature2RequestObjecthhh+0xa8c>
   2dcdc: e9 ff ff 17  	b	0x2dc80 <_ZNK23ChiFeature2HWmultiframe25ProcessHWMFPrefilterStageEP24ChiFeature2RequestObjecthhh+0xac8>
   2dcf4: 47 ff ff 17  	b	0x2da10 <_ZNK23ChiFeature2HWmultiframe25ProcessHWMFPrefilterStageEP24ChiFeature2RequestObjecthhh+0x858>
   2dd24: b6 02 00 b4  	cbz	x22, 0x2dd78 <_ZNK23ChiFeature2HWmultiframe25ProcessHWMFPrefilterStageEP24ChiFeature2RequestObjecthhh+0xbc0>
   2dd2c: 05 01 00 90  	adrp	x5, 0x4d000 <_ZNK23ChiFeature2HWmultiframe25ProcessHWMFPrefilterStageEP24ChiFeature2RequestObjecthhh+0xbf4>
   2dd3c: 01 47 00 54  	b.ne	0x2e61c <_ZNK23ChiFeature2HWmultiframe25ProcessHWMFPrefilterStageEP24ChiFeature2RequestObjecthhh+0x1464>
   2dd7c: 6c 00 00 36  	tbz	w12, #0, 0x2dd88 <_ZNK23ChiFeature2HWmultiframe25ProcessHWMFPrefilterStageEP24ChiFeature2RequestObjecthhh+0xbd0>
   2dd9c: 07 01 00 90  	adrp	x7, 0x4d000 <_ZNK23ChiFeature2HWmultiframe25ProcessHWMFPrefilterStageEP24ChiFeature2RequestObjecthhh+0xc64>
   2ddac: 81 40 00 54  	b.ne	0x2e5bc <_ZNK23ChiFeature2HWmultiframe25ProcessHWMFPrefilterStageEP24ChiFeature2RequestObjecthhh+0x1404>
   2ddbc: 45 11 00 94  	bl	0x322d0 <_ZNK23ChiFeature2HWmultiframe26FetchSpecificInputPortDataEj28ChiFeature2PortDirectionType19ChiFeature2PortTypeP21ChiFeature2Identifier+0x378>
   2ddc4: a0 01 00 35  	cbnz	w0, 0x2ddf8 <_ZNK23ChiFeature2HWmultiframe25ProcessHWMFPrefilterStageEP24ChiFeature2RequestObjecthhh+0xc40>
   2ddcc: 00 01 00 90  	adrp	x0, 0x4d000 <_ZNK23ChiFeature2HWmultiframe25ProcessHWMFPrefilterStageEP24ChiFeature2RequestObjecthhh+0xc94>
   2dddc: c1 3f 00 54  	b.ne	0x2e5d4 <_ZNK23ChiFeature2HWmultiframe25ProcessHWMFPrefilterStageEP24ChiFeature2RequestObjecthhh+0x141c>
   2ddec: 11 fb ff 97  	bl	0x2ca30 <_ZNK23ChiFeature2HWmultiframe25IsRDIRequiredInPostFilterEPKN15ChiFeature2Base22ChiFeaturePipelineDataEi+0xca8>
   2ddf4: c0 07 00 34  	cbz	w0, 0x2deec <_ZNK23ChiFeature2HWmultiframe25ProcessHWMFPrefilterStageEP24ChiFeature2RequestObjecthhh+0xd34>
   2ddf8: 1a 01 00 90  	adrp	x26, 0x4d000 <_ZNK23ChiFeature2HWmultiframe25ProcessHWMFPrefilterStageEP24ChiFeature2RequestObjecthhh+0xcc0>
   2de04: a1 05 00 36  	tbz	w1, #0, 0x2deb8 <_ZNK23ChiFeature2HWmultiframe25ProcessHWMFPrefilterStageEP24ChiFeature2RequestObjecthhh+0xd00>
   2de08: 07 01 00 90  	adrp	x7, 0x4d000 <_ZNK23ChiFeature2HWmultiframe25ProcessHWMFPrefilterStageEP24ChiFeature2RequestObjecthhh+0xcd0>
   2de18: 81 02 00 54  	b.ne	0x2de68 <_ZNK23ChiFeature2HWmultiframe25ProcessHWMFPrefilterStageEP24ChiFeature2RequestObjecthhh+0xcb0>
   2de1c: 18 ff ff b0  	adrp	x24, 0xe000 <_ZNK23ChiFeature2HWmultiframe25ProcessHWMFPrefilterStageEP24ChiFeature2RequestObjecthhh+0xbe8>
   2de38: 21 ff ff f0  	adrp	x1, 0x14000 <_ZNK23ChiFeature2HWmultiframe25ProcessHWMFPrefilterStageEP24ChiFeature2RequestObjecthhh+0xc1c>
   2de3c: 02 ff ff b0  	adrp	x2, 0xe000 <_ZNK23ChiFeature2HWmultiframe25ProcessHWMFPrefilterStageEP24ChiFeature2RequestObjecthhh+0xc08>
   2de40: 05 ff ff 90  	adrp	x5, 0xd000 <_ZNK23ChiFeature2HWmultiframe25ProcessHWMFPrefilterStageEP24ChiFeature2RequestObjecthhh+0xc08>
   2de68: 19 ff ff b0  	adrp	x25, 0xe000 <_ZNK23ChiFeature2HWmultiframe25ProcessHWMFPrefilterStageEP24ChiFeature2RequestObjecthhh+0xc34>
   2de84: 21 ff ff d0  	adrp	x1, 0x13000 <_ZNK23ChiFeature2HWmultiframe25ProcessHWMFPrefilterStageEP24ChiFeature2RequestObjecthhh+0xc64>
   2de8c: 00 ff ff 90  	adrp	x0, 0xd000 <_ZNK23ChiFeature2HWmultiframe25ProcessHWMFPrefilterStageEP24ChiFeature2RequestObjecthhh+0xc54>
   2de90: 03 ff ff 90  	adrp	x3, 0xd000 <_ZNK23ChiFeature2HWmultiframe25ProcessHWMFPrefilterStageEP24ChiFeature2RequestObjecthhh+0xc58>
   2de94: 25 ff ff 90  	adrp	x5, 0x11000 <_ZNK23ChiFeature2HWmultiframe25ProcessHWMFPrefilterStageEP24ChiFeature2RequestObjecthhh+0xc6c>
   2deb4: 7b 68 00 94  	bl	0x480a0 <_ZN6ChiLog9LogSystemEPKcS1_S1_S1_iS1_z@plt>
   2dec4: e1 43 00 54  	b.ne	0x2e740 <_ZNK23ChiFeature2HWmultiframe25ProcessHWMFPrefilterStageEP24ChiFeature2RequestObjecthhh+0x1588>
   2def4: e1 05 00 54  	b.ne	0x2dfb0 <_ZNK23ChiFeature2HWmultiframe25ProcessHWMFPrefilterStageEP24ChiFeature2RequestObjecthhh+0xdf8>
   2defc: 1a 01 00 90  	adrp	x26, 0x4d000 <_ZNK23ChiFeature2HWmultiframe25ProcessHWMFPrefilterStageEP24ChiFeature2RequestObjecthhh+0xdc4>
   2df1c: 81 39 00 54  	b.ne	0x2e64c <_ZNK23ChiFeature2HWmultiframe25ProcessHWMFPrefilterStageEP24ChiFeature2RequestObjecthhh+0x1494>
   2df34: 0d 12 00 94  	bl	0x32768 <_ZNK23ChiFeature2HWmultiframe16SelectInputPortsEP21ChiFeature2PortIdListP24ChiFeature2RequestObject+0x328>
   2df3c: e8 05 00 34  	cbz	w8, 0x2dff8 <_ZNK23ChiFeature2HWmultiframe25ProcessHWMFPrefilterStageEP24ChiFeature2RequestObjecthhh+0xe40>
   2df48: 05 00 00 14  	b	0x2df5c <_ZNK23ChiFeature2HWmultiframe25ProcessHWMFPrefilterStageEP24ChiFeature2RequestObjecthhh+0xda4>
   2df58: 02 05 00 54  	b.hs	0x2dff8 <_ZNK23ChiFeature2HWmultiframe25ProcessHWMFPrefilterStageEP24ChiFeature2RequestObjecthhh+0xe40>
   2df98: a0 fd ff 54  	b.eq	0x2df4c <_ZNK23ChiFeature2HWmultiframe25ProcessHWMFPrefilterStageEP24ChiFeature2RequestObjecthhh+0xd94>
   2dfa4: 33 12 00 94  	bl	0x32870 <_ZNK23ChiFeature2HWmultiframe16SelectInputPortsEP21ChiFeature2PortIdListP24ChiFeature2RequestObject+0x430>
   2dfac: e8 ff ff 17  	b	0x2df4c <_ZNK23ChiFeature2HWmultiframe25ProcessHWMFPrefilterStageEP24ChiFeature2RequestObjecthhh+0xd94>
   2dfb4: 08 01 00 90  	adrp	x8, 0x4d000 <_ZNK23ChiFeature2HWmultiframe25ProcessHWMFPrefilterStageEP24ChiFeature2RequestObjecthhh+0xe7c>
   2dfc4: 01 35 00 54  	b.ne	0x2e664 <_ZNK23ChiFeature2HWmultiframe25ProcessHWMFPrefilterStageEP24ChiFeature2RequestObjecthhh+0x14ac>
   2dfd8: 62 69 00 94  	bl	0x48560 <_ZNK15ChiFeature2Base25PopulatePortConfigurationEP24ChiFeature2RequestObjectPK21ChiFeature2PortIdListS4_@plt>
   2dfdc: 37 13 00 34  	cbz	w23, 0x2e240 <_ZNK23ChiFeature2HWmultiframe25ProcessHWMFPrefilterStageEP24ChiFeature2RequestObjecthhh+0x1088>
   2dff4: 2a 00 00 14  	b	0x2e09c <_ZNK23ChiFeature2HWmultiframe25ProcessHWMFPrefilterStageEP24ChiFeature2RequestObjecthhh+0xee4>
   2e00c: f3 00 00 f0  	adrp	x19, 0x4d000 <_ZNK23ChiFeature2HWmultiframe25ProcessHWMFPrefilterStageEP24ChiFeature2RequestObjecthhh+0xed0>
   2e030: 61 32 00 54  	b.ne	0x2e67c <_ZNK23ChiFeature2HWmultiframe25ProcessHWMFPrefilterStageEP24ChiFeature2RequestObjecthhh+0x14c4>
   2e044: 47 69 00 94  	bl	0x48560 <_ZNK15ChiFeature2Base25PopulatePortConfigurationEP24ChiFeature2RequestObjectPK21ChiFeature2PortIdListS4_@plt>
   2e04c: d7 00 00 34  	cbz	w23, 0x2e064 <_ZNK23ChiFeature2HWmultiframe25ProcessHWMFPrefilterStageEP24ChiFeature2RequestObjecthhh+0xeac>
   2e068: 80 01 00 b4  	cbz	x0, 0x2e098 <_ZNK23ChiFeature2HWmultiframe25ProcessHWMFPrefilterStageEP24ChiFeature2RequestObjecthhh+0xee0>
   2e090: f0 35 00 b5  	cbnz	x16, 0x2e74c <_ZNK23ChiFeature2HWmultiframe25ProcessHWMFPrefilterStageEP24ChiFeature2RequestObjecthhh+0x1594>
   2e098: 57 0d 00 34  	cbz	w23, 0x2e240 <_ZNK23ChiFeature2HWmultiframe25ProcessHWMFPrefilterStageEP24ChiFeature2RequestObjecthhh+0x1088>
   2e0a0: 85 00 00 34  	cbz	w5, 0x2e0b0 <_ZNK23ChiFeature2HWmultiframe25ProcessHWMFPrefilterStageEP24ChiFeature2RequestObjecthhh+0xef8>
   2e0ac: 11 00 00 14  	b	0x2e0f0 <_ZNK23ChiFeature2HWmultiframe25ProcessHWMFPrefilterStageEP24ChiFeature2RequestObjecthhh+0xf38>
   2e0b8: 28 34 00 54  	b.hi	0x2e73c <_ZNK23ChiFeature2HWmultiframe25ProcessHWMFPrefilterStageEP24ChiFeature2RequestObjecthhh+0x1584>
   2e10c: 19 69 00 94  	bl	0x48570 <_ZN24ChiFeature2RequestObject13SetBufferInfoE31ChiFeature2RequestObjectOpsTypePK21ChiFeature2IdentifierPvmihh@plt>
   2e130: 10 69 00 94  	bl	0x48570 <_ZN24ChiFeature2RequestObject13SetBufferInfoE31ChiFeature2RequestObjectOpsTypePK21ChiFeature2IdentifierPvmihh@plt>
   2e134: ed 00 00 f0  	adrp	x13, 0x4d000 <_ZNK23ChiFeature2HWmultiframe25ProcessHWMFPrefilterStageEP24ChiFeature2RequestObjecthhh+0xff8>
   2e140: a3 06 18 36  	tbz	w3, #3, 0x2e214 <_ZNK23ChiFeature2HWmultiframe25ProcessHWMFPrefilterStageEP24ChiFeature2RequestObjecthhh+0x105c>
   2e144: f0 00 00 f0  	adrp	x16, 0x4d000 <_ZNK23ChiFeature2HWmultiframe25ProcessHWMFPrefilterStageEP24ChiFeature2RequestObjecthhh+0x1008>
   2e154: 01 03 00 54  	b.ne	0x2e1b4 <_ZNK23ChiFeature2HWmultiframe25ProcessHWMFPrefilterStageEP24ChiFeature2RequestObjecthhh+0xffc>
   2e158: 19 ff ff 90  	adrp	x25, 0xe000 <_ZNK23ChiFeature2HWmultiframe25ProcessHWMFPrefilterStageEP24ChiFeature2RequestObjecthhh+0xf20>
   2e174: 21 ff ff d0  	adrp	x1, 0x14000 <_ZNK23ChiFeature2HWmultiframe25ProcessHWMFPrefilterStageEP24ChiFeature2RequestObjecthhh+0xf54>
   2e178: 22 ff ff d0  	adrp	x2, 0x14000 <_ZNK23ChiFeature2HWmultiframe25ProcessHWMFPrefilterStageEP24ChiFeature2RequestObjecthhh+0xf58>
   2e17c: e5 fe ff f0  	adrp	x5, 0xd000 <_ZNK23ChiFeature2HWmultiframe25ProcessHWMFPrefilterStageEP24ChiFeature2RequestObjecthhh+0xf40>
   2e1b4: 17 ff ff 90  	adrp	x23, 0xe000 <_ZNK23ChiFeature2HWmultiframe25ProcessHWMFPrefilterStageEP24ChiFeature2RequestObjecthhh+0xf7c>
   2e1d0: 01 ff ff d0  	adrp	x1, 0x10000 <_ZNK23ChiFeature2HWmultiframe25ProcessHWMFPrefilterStageEP24ChiFeature2RequestObjecthhh+0xfa0>
   2e1d8: 20 ff ff d0  	adrp	x0, 0x14000 <_ZNK23ChiFeature2HWmultiframe25ProcessHWMFPrefilterStageEP24ChiFeature2RequestObjecthhh+0xfb8>
   2e1dc: e3 fe ff f0  	adrp	x3, 0xd000 <_ZNK23ChiFeature2HWmultiframe25ProcessHWMFPrefilterStageEP24ChiFeature2RequestObjecthhh+0xfa0>
   2e1e0: e5 fe ff f0  	adrp	x5, 0xd000 <_ZNK23ChiFeature2HWmultiframe25ProcessHWMFPrefilterStageEP24ChiFeature2RequestObjecthhh+0xfa4>
   2e210: a4 67 00 94  	bl	0x480a0 <_ZN6ChiLog9LogSystemEPKcS1_S1_S1_iS1_z@plt>
   2e218: ea 00 00 f0  	adrp	x10, 0x4d000 <_ZNK23ChiFeature2HWmultiframe25ProcessHWMFPrefilterStageEP24ChiFeature2RequestObjecthhh+0x10dc>
   2e228: 61 23 00 54  	b.ne	0x2e694 <_ZNK23ChiFeature2HWmultiframe25ProcessHWMFPrefilterStageEP24ChiFeature2RequestObjecthhh+0x14dc>
   2e234: d3 68 00 94  	bl	0x48580 <_ZNK15ChiFeature2Base22SubmitRequestToSessionEP24ChiFeature2RequestObject@plt>
   2e23c: e0 e3 ff 35  	cbnz	w0, 0x2deb8 <_ZNK23ChiFeature2HWmultiframe25ProcessHWMFPrefilterStageEP24ChiFeature2RequestObjecthhh+0xd00>
   2e244: f7 00 00 f0  	adrp	x23, 0x4d000 <_ZNK23ChiFeature2HWmultiframe25ProcessHWMFPrefilterStageEP24ChiFeature2RequestObjecthhh+0x1108>
   2e258: e1 1e 00 54  	b.ne	0x2e634 <_ZNK23ChiFeature2HWmultiframe25ProcessHWMFPrefilterStageEP24ChiFeature2RequestObjecthhh+0x147c>
   2e270: 89 9b ff 54  	b.ls	0x2d5e0 <_ZNK23ChiFeature2HWmultiframe25ProcessHWMFPrefilterStageEP24ChiFeature2RequestObjecthhh+0x428>
   2e278: eb 00 00 f0  	adrp	x11, 0x4d000 <_ZNK23ChiFeature2HWmultiframe25ProcessHWMFPrefilterStageEP24ChiFeature2RequestObjecthhh+0x113c>
   2e28c: 01 21 00 54  	b.ne	0x2e6ac <_ZNK23ChiFeature2HWmultiframe25ProcessHWMFPrefilterStageEP24ChiFeature2RequestObjecthhh+0x14f4>
   2e298: 7a fb ff 97  	bl	0x2d080 <_ZNK23ChiFeature2HWmultiframe22PrepareAllDependenciesEP24ChiFeature2RequestObject+0x448>
   2e29c: 20 9a ff b4  	cbz	x0, 0x2d5e0 <_ZNK23ChiFeature2HWmultiframe25ProcessHWMFPrefilterStageEP24ChiFeature2RequestObjecthhh+0x428>
   2e2a4: e9 00 00 f0  	adrp	x9, 0x4d000 <_ZNK23ChiFeature2HWmultiframe25ProcessHWMFPrefilterStageEP24ChiFeature2RequestObjecthhh+0x1168>
   2e2b8: 61 20 00 54  	b.ne	0x2e6c4 <_ZNK23ChiFeature2HWmultiframe25ProcessHWMFPrefilterStageEP24ChiFeature2RequestObjecthhh+0x150c>
   2e2cc: b1 68 00 94  	bl	0x48590 <_ZNK15ChiFeature2Base40GetNumDependencyListsFromStageDescriptorEPK26ChiFeature2StageDescriptorhh@plt>
   2e2e4: c1 1f 00 54  	b.ne	0x2e6dc <_ZNK23ChiFeature2HWmultiframe25ProcessHWMFPrefilterStageEP24ChiFeature2RequestObjecthhh+0x1524>
   2e2fc: c1 67 00 94  	bl	0x48200 <_ZNK15ChiFeature2Base35SetNextStageInfoFromStageDescriptorEP24ChiFeature2RequestObjectPK26ChiFeature2StageDescriptorhh@plt>
   2e304: ec 00 00 f0  	adrp	x12, 0x4d000 <_ZNK23ChiFeature2HWmultiframe25ProcessHWMFPrefilterStageEP24ChiFeature2RequestObjecthhh+0x11c8>
   2e320: a1 1e 00 54  	b.ne	0x2e6f4 <_ZNK23ChiFeature2HWmultiframe25ProcessHWMFPrefilterStageEP24ChiFeature2RequestObjecthhh+0x153c>
   2e338: b6 67 00 94  	bl	0x48210 <_ZNK15ChiFeature2Base36GetDependencyListFromStageDescriptorEPK26ChiFeature2StageDescriptorhhh@plt>
   2e33c: 60 02 00 b4  	cbz	x0, 0x2e388 <_ZNK23ChiFeature2HWmultiframe25ProcessHWMFPrefilterStageEP24ChiFeature2RequestObjecthhh+0x11d0>
   2e348: 66 02 00 34  	cbz	w6, 0x2e394 <_ZNK23ChiFeature2HWmultiframe25ProcessHWMFPrefilterStageEP24ChiFeature2RequestObjecthhh+0x11dc>
   2e350: f9 00 00 f0  	adrp	x25, 0x4d000 <_ZNK23ChiFeature2HWmultiframe25ProcessHWMFPrefilterStageEP24ChiFeature2RequestObjecthhh+0x1214>
   2e364: 41 1d 00 54  	b.ne	0x2e70c <_ZNK23ChiFeature2HWmultiframe25ProcessHWMFPrefilterStageEP24ChiFeature2RequestObjecthhh+0x1554>
   2e37c: a9 67 00 94  	bl	0x48220 <_ZNK15ChiFeature2Base23PopulateStageDependencyEP24ChiFeature2RequestObjecthPK26ChiFeature2InputDependencyh@plt>
   2e384: 40 00 00 14  	b	0x2e484 <_ZNK23ChiFeature2HWmultiframe25ProcessHWMFPrefilterStageEP24ChiFeature2RequestObjecthhh+0x12cc>
   2e390: 3d 00 00 14  	b	0x2e484 <_ZNK23ChiFeature2HWmultiframe25ProcessHWMFPrefilterStageEP24ChiFeature2RequestObjecthhh+0x12cc>
   2e3a8: a9 02 00 34  	cbz	w9, 0x2e3fc <_ZNK23ChiFeature2HWmultiframe25ProcessHWMFPrefilterStageEP24ChiFeature2RequestObjecthhh+0x1244>
   2e3b8: 05 00 00 14  	b	0x2e3cc <_ZNK23ChiFeature2HWmultiframe25ProcessHWMFPrefilterStageEP24ChiFeature2RequestObjecthhh+0x1214>
   2e3c8: 22 01 00 54  	b.hs	0x2e3ec <_ZNK23ChiFeature2HWmultiframe25ProcessHWMFPrefilterStageEP24ChiFeature2RequestObjecthhh+0x1234>
   2e3d8: 24 ff ff 35  	cbnz	w4, 0x2e3bc <_ZNK23ChiFeature2HWmultiframe25ProcessHWMFPrefilterStageEP24ChiFeature2RequestObjecthhh+0x1204>
   2e3e0: 82 11 00 94  	bl	0x329e8 <_ZNK23ChiFeature2HWmultiframe16SelectInputPortsEP21ChiFeature2PortIdListP24ChiFeature2RequestObject+0x5a8>
   2e3e8: f5 ff ff 17  	b	0x2e3bc <_ZNK23ChiFeature2HWmultiframe25ProcessHWMFPrefilterStageEP24ChiFeature2RequestObjecthhh+0x1204>
   2e3f8: 03 00 00 14  	b	0x2e404 <_ZNK23ChiFeature2HWmultiframe25ProcessHWMFPrefilterStageEP24ChiFeature2RequestObjecthhh+0x124c>
   2e418: ee 00 00 f0  	adrp	x14, 0x4d000 <_ZNK23ChiFeature2HWmultiframe25ProcessHWMFPrefilterStageEP24ChiFeature2RequestObjecthhh+0x12dc>
   2e434: 81 17 00 54  	b.ne	0x2e724 <_ZNK23ChiFeature2HWmultiframe25ProcessHWMFPrefilterStageEP24ChiFeature2RequestObjecthhh+0x156c>
   2e448: 86 67 00 94  	bl	0x48260 <_ZNK15ChiFeature2Base23PopulateDependencyPortsEP24ChiFeature2RequestObjecthPK26ChiFeature2InputDependency@plt>
   2e450: 80 01 00 b4  	cbz	x0, 0x2e480 <_ZNK23ChiFeature2HWmultiframe25ProcessHWMFPrefilterStageEP24ChiFeature2RequestObjecthhh+0x12c8>
   2e478: bb 16 00 b5  	cbnz	x27, 0x2e74c <_ZNK23ChiFeature2HWmultiframe25ProcessHWMFPrefilterStageEP24ChiFeature2RequestObjecthhh+0x1594>
   2e484: eb 00 00 f0  	adrp	x11, 0x4d000 <_ZNK23ChiFeature2HWmultiframe25ProcessHWMFPrefilterStageEP24ChiFeature2RequestObjecthhh+0x1348>
   2e490: 58 d1 1f 36  	tbz	w24, #3, 0x2deb8 <_ZNK23ChiFeature2HWmultiframe25ProcessHWMFPrefilterStageEP24ChiFeature2RequestObjecthhh+0xd00>
   2e494: f8 00 00 f0  	adrp	x24, 0x4d000 <_ZNK23ChiFeature2HWmultiframe25ProcessHWMFPrefilterStageEP24ChiFeature2RequestObjecthhh+0x1358>
   2e4a4: 21 03 00 54  	b.ne	0x2e508 <_ZNK23ChiFeature2HWmultiframe25ProcessHWMFPrefilterStageEP24ChiFeature2RequestObjecthhh+0x1350>
   2e4a8: 19 ff ff 90  	adrp	x25, 0xe000 <_ZNK23ChiFeature2HWmultiframe25ProcessHWMFPrefilterStageEP24ChiFeature2RequestObjecthhh+0x1270>
   2e4c8: 21 ff ff d0  	adrp	x1, 0x14000 <_ZNK23ChiFeature2HWmultiframe25ProcessHWMFPrefilterStageEP24ChiFeature2RequestObjecthhh+0x12a8>
   2e4cc: 02 ff ff b0  	adrp	x2, 0xf000 <_ZNK23ChiFeature2HWmultiframe25ProcessHWMFPrefilterStageEP24ChiFeature2RequestObjecthhh+0x1298>
   2e4d0: e5 fe ff f0  	adrp	x5, 0xd000 <_ZNK23ChiFeature2HWmultiframe25ProcessHWMFPrefilterStageEP24ChiFeature2RequestObjecthhh+0x1294>
   2e508: 17 ff ff 90  	adrp	x23, 0xe000 <_ZNK23ChiFeature2HWmultiframe25ProcessHWMFPrefilterStageEP24ChiFeature2RequestObjecthhh+0x12d0>
   2e52c: 20 ff ff d0  	adrp	x0, 0x14000 <_ZNK23ChiFeature2HWmultiframe25ProcessHWMFPrefilterStageEP24ChiFeature2RequestObjecthhh+0x130c>
   2e530: 01 ff ff d0  	adrp	x1, 0x10000 <_ZNK23ChiFeature2HWmultiframe25ProcessHWMFPrefilterStageEP24ChiFeature2RequestObjecthhh+0x1300>
   2e534: e3 fe ff f0  	adrp	x3, 0xd000 <_ZNK23ChiFeature2HWmultiframe25ProcessHWMFPrefilterStageEP24ChiFeature2RequestObjecthhh+0x12f8>
   2e538: 25 ff ff 90  	adrp	x5, 0x12000 <_ZNK23ChiFeature2HWmultiframe25ProcessHWMFPrefilterStageEP24ChiFeature2RequestObjecthhh+0x1310>
   2e568: ce 66 00 94  	bl	0x480a0 <_ZN6ChiLog9LogSystemEPKcS1_S1_S1_iS1_z@plt>
   2e56c: 53 fe ff 17  	b	0x2deb8 <_ZNK23ChiFeature2HWmultiframe25ProcessHWMFPrefilterStageEP24ChiFeature2RequestObjecthhh+0xd00>
   2e584: 46 fb ff 17  	b	0x2d29c <_ZNK23ChiFeature2HWmultiframe25ProcessHWMFPrefilterStageEP24ChiFeature2RequestObjecthhh+0xe4>
   2e5a0: 82 fb ff 17  	b	0x2d3a8 <_ZNK23ChiFeature2HWmultiframe25ProcessHWMFPrefilterStageEP24ChiFeature2RequestObjecthhh+0x1f0>
   2e5b8: 7f fb ff 17  	b	0x2d3b4 <_ZNK23ChiFeature2HWmultiframe25ProcessHWMFPrefilterStageEP24ChiFeature2RequestObjecthhh+0x1fc>
   2e5d0: f8 fd ff 17  	b	0x2ddb0 <_ZNK23ChiFeature2HWmultiframe25ProcessHWMFPrefilterStageEP24ChiFeature2RequestObjecthhh+0xbf8>
   2e5e8: fe fd ff 17  	b	0x2dde0 <_ZNK23ChiFeature2HWmultiframe25ProcessHWMFPrefilterStageEP24ChiFeature2RequestObjecthhh+0xc28>
   2e600: 3d fc ff 17  	b	0x2d6f4 <_ZNK23ChiFeature2HWmultiframe25ProcessHWMFPrefilterStageEP24ChiFeature2RequestObjecthhh+0x53c>
   2e618: 78 fb ff 17  	b	0x2d3f8 <_ZNK23ChiFeature2HWmultiframe25ProcessHWMFPrefilterStageEP24ChiFeature2RequestObjecthhh+0x240>
   2e630: c4 fd ff 17  	b	0x2dd40 <_ZNK23ChiFeature2HWmultiframe25ProcessHWMFPrefilterStageEP24ChiFeature2RequestObjecthhh+0xb88>
   2e648: 05 ff ff 17  	b	0x2e25c <_ZNK23ChiFeature2HWmultiframe25ProcessHWMFPrefilterStageEP24ChiFeature2RequestObjecthhh+0x10a4>
   2e660: 30 fe ff 17  	b	0x2df20 <_ZNK23ChiFeature2HWmultiframe25ProcessHWMFPrefilterStageEP24ChiFeature2RequestObjecthhh+0xd68>
   2e678: 54 fe ff 17  	b	0x2dfc8 <_ZNK23ChiFeature2HWmultiframe25ProcessHWMFPrefilterStageEP24ChiFeature2RequestObjecthhh+0xe10>
   2e690: 69 fe ff 17  	b	0x2e034 <_ZNK23ChiFeature2HWmultiframe25ProcessHWMFPrefilterStageEP24ChiFeature2RequestObjecthhh+0xe7c>
   2e6a8: e1 fe ff 17  	b	0x2e22c <_ZNK23ChiFeature2HWmultiframe25ProcessHWMFPrefilterStageEP24ChiFeature2RequestObjecthhh+0x1074>
   2e6c0: f4 fe ff 17  	b	0x2e290 <_ZNK23ChiFeature2HWmultiframe25ProcessHWMFPrefilterStageEP24ChiFeature2RequestObjecthhh+0x10d8>
   2e6d8: f9 fe ff 17  	b	0x2e2bc <_ZNK23ChiFeature2HWmultiframe25ProcessHWMFPrefilterStageEP24ChiFeature2RequestObjecthhh+0x1104>
   2e6f0: fe fe ff 17  	b	0x2e2e8 <_ZNK23ChiFeature2HWmultiframe25ProcessHWMFPrefilterStageEP24ChiFeature2RequestObjecthhh+0x1130>
   2e708: 07 ff ff 17  	b	0x2e324 <_ZNK23ChiFeature2HWmultiframe25ProcessHWMFPrefilterStageEP24ChiFeature2RequestObjecthhh+0x116c>
   2e720: 12 ff ff 17  	b	0x2e368 <_ZNK23ChiFeature2HWmultiframe25ProcessHWMFPrefilterStageEP24ChiFeature2RequestObjecthhh+0x11b0>
   2e738: 40 ff ff 17  	b	0x2e438 <_ZNK23ChiFeature2HWmultiframe25ProcessHWMFPrefilterStageEP24ChiFeature2RequestObjecthhh+0x1280>
000000000002e750 <_ZNK23ChiFeature2HWmultiframe25ProcessHWMFBlendInitStageEP24ChiFeature2RequestObjecthhh>:
   2e784: fc 00 00 f0  	adrp	x28, 0x4d000 <_ZNK23ChiFeature2HWmultiframe25ProcessHWMFBlendInitStageEP24ChiFeature2RequestObjecthhh+0xb0>
   2e7e8: a1 35 00 54  	b.ne	0x2ee9c <_ZNK23ChiFeature2HWmultiframe25ProcessHWMFBlendInitStageEP24ChiFeature2RequestObjecthhh+0x74c>
   2e804: 67 67 00 94  	bl	0x485a0 <_ZNK23ChiFeature2HWmultiframe26FetchSpecificInputPortDataEj28ChiFeature2PortDirectionType19ChiFeature2PortTypeP21ChiFeature2Identifier@plt>
   2e808: f4 00 00 f0  	adrp	x20, 0x4d000 <_ZNK23ChiFeature2HWmultiframe25ProcessHWMFBlendInitStageEP24ChiFeature2RequestObjecthhh+0x134>
   2e810: 00 06 00 34  	cbz	w0, 0x2e8d0 <_ZNK23ChiFeature2HWmultiframe25ProcessHWMFBlendInitStageEP24ChiFeature2RequestObjecthhh+0x180>
   2e818: c8 05 08 36  	tbz	w8, #1, 0x2e8d0 <_ZNK23ChiFeature2HWmultiframe25ProcessHWMFBlendInitStageEP24ChiFeature2RequestObjecthhh+0x180>
   2e81c: eb 00 00 f0  	adrp	x11, 0x4d000 <_ZNK23ChiFeature2HWmultiframe25ProcessHWMFBlendInitStageEP24ChiFeature2RequestObjecthhh+0x148>
   2e820: 19 ff ff 90  	adrp	x25, 0xe000 <_ZNK23ChiFeature2HWmultiframe25ProcessHWMFBlendInitStageEP24ChiFeature2RequestObjecthhh+0x50>
   2e838: 61 02 00 54  	b.ne	0x2e884 <_ZNK23ChiFeature2HWmultiframe25ProcessHWMFBlendInitStageEP24ChiFeature2RequestObjecthhh+0x134>
   2e850: 21 ff ff d0  	adrp	x1, 0x14000 <_ZNK23ChiFeature2HWmultiframe25ProcessHWMFBlendInitStageEP24ChiFeature2RequestObjecthhh+0x98>
   2e854: 22 ff ff b0  	adrp	x2, 0x13000 <_ZNK23ChiFeature2HWmultiframe25ProcessHWMFBlendInitStageEP24ChiFeature2RequestObjecthhh+0x98>
   2e858: 25 ff ff 90  	adrp	x5, 0x12000 <_ZNK23ChiFeature2HWmultiframe25ProcessHWMFBlendInitStageEP24ChiFeature2RequestObjecthhh+0x98>
   2e898: 01 ff ff 90  	adrp	x1, 0xe000 <_ZNK23ChiFeature2HWmultiframe25ProcessHWMFBlendInitStageEP24ChiFeature2RequestObjecthhh+0xc8>
   2e8a0: 00 ff ff f0  	adrp	x0, 0x11000 <_ZNK23ChiFeature2HWmultiframe25ProcessHWMFBlendInitStageEP24ChiFeature2RequestObjecthhh+0xdc>
   2e8a4: 23 ff ff 90  	adrp	x3, 0x12000 <_ZNK23ChiFeature2HWmultiframe25ProcessHWMFBlendInitStageEP24ChiFeature2RequestObjecthhh+0xe4>
   2e8a8: 05 ff ff d0  	adrp	x5, 0x10000 <_ZNK23ChiFeature2HWmultiframe25ProcessHWMFBlendInitStageEP24ChiFeature2RequestObjecthhh+0xe0>
   2e8cc: f5 65 00 94  	bl	0x480a0 <_ZN6ChiLog9LogSystemEPKcS1_S1_S1_iS1_z@plt>
   2e8dc: c1 2e 00 54  	b.ne	0x2eeb4 <_ZNK23ChiFeature2HWmultiframe25ProcessHWMFBlendInitStageEP24ChiFeature2RequestObjecthhh+0x764>
   2e8f4: 2b 67 00 94  	bl	0x485a0 <_ZNK23ChiFeature2HWmultiframe26FetchSpecificInputPortDataEj28ChiFeature2PortDirectionType19ChiFeature2PortTypeP21ChiFeature2Identifier@plt>
   2e8fc: 20 06 00 34  	cbz	w0, 0x2e9c0 <_ZNK23ChiFeature2HWmultiframe25ProcessHWMFBlendInitStageEP24ChiFeature2RequestObjecthhh+0x270>
   2e904: e9 05 08 36  	tbz	w9, #1, 0x2e9c0 <_ZNK23ChiFeature2HWmultiframe25ProcessHWMFBlendInitStageEP24ChiFeature2RequestObjecthhh+0x270>
   2e908: ed 00 00 f0  	adrp	x13, 0x4d000 <_ZNK23ChiFeature2HWmultiframe25ProcessHWMFBlendInitStageEP24ChiFeature2RequestObjecthhh+0x234>
   2e918: a1 02 00 54  	b.ne	0x2e96c <_ZNK23ChiFeature2HWmultiframe25ProcessHWMFBlendInitStageEP24ChiFeature2RequestObjecthhh+0x21c>
   2e91c: 16 ff ff 90  	adrp	x22, 0xe000 <_ZNK23ChiFeature2HWmultiframe25ProcessHWMFBlendInitStageEP24ChiFeature2RequestObjecthhh+0x14c>
   2e938: 21 ff ff d0  	adrp	x1, 0x14000 <_ZNK23ChiFeature2HWmultiframe25ProcessHWMFBlendInitStageEP24ChiFeature2RequestObjecthhh+0x180>
   2e93c: 22 ff ff b0  	adrp	x2, 0x13000 <_ZNK23ChiFeature2HWmultiframe25ProcessHWMFBlendInitStageEP24ChiFeature2RequestObjecthhh+0x180>
   2e940: 25 ff ff 90  	adrp	x5, 0x12000 <_ZNK23ChiFeature2HWmultiframe25ProcessHWMFBlendInitStageEP24ChiFeature2RequestObjecthhh+0x180>
   2e96c: 16 ff ff 90  	adrp	x22, 0xe000 <_ZNK23ChiFeature2HWmultiframe25ProcessHWMFBlendInitStageEP24ChiFeature2RequestObjecthhh+0x19c>
   2e988: 01 ff ff 90  	adrp	x1, 0xe000 <_ZNK23ChiFeature2HWmultiframe25ProcessHWMFBlendInitStageEP24ChiFeature2RequestObjecthhh+0x1b8>
   2e990: 00 ff ff f0  	adrp	x0, 0x11000 <_ZNK23ChiFeature2HWmultiframe25ProcessHWMFBlendInitStageEP24ChiFeature2RequestObjecthhh+0x1cc>
   2e994: 23 ff ff 90  	adrp	x3, 0x12000 <_ZNK23ChiFeature2HWmultiframe25ProcessHWMFBlendInitStageEP24ChiFeature2RequestObjecthhh+0x1d4>
   2e998: e5 fe ff d0  	adrp	x5, 0xc000 <_ZNK23ChiFeature2HWmultiframe25ProcessHWMFBlendInitStageEP24ChiFeature2RequestObjecthhh+0x1c0>
   2e9bc: b9 65 00 94  	bl	0x480a0 <_ZN6ChiLog9LogSystemEPKcS1_S1_S1_iS1_z@plt>
   2e9cc: 01 28 00 54  	b.ne	0x2eecc <_ZNK23ChiFeature2HWmultiframe25ProcessHWMFBlendInitStageEP24ChiFeature2RequestObjecthhh+0x77c>
   2e9d8: aa f9 ff 97  	bl	0x2d080 <_ZNK23ChiFeature2HWmultiframe22PrepareAllDependenciesEP24ChiFeature2RequestObject+0x448>
   2e9dc: 40 1e 00 b4  	cbz	x0, 0x2eda4 <_ZNK23ChiFeature2HWmultiframe25ProcessHWMFBlendInitStageEP24ChiFeature2RequestObjecthhh+0x654>
   2e9e8: ea 05 18 36  	tbz	w10, #3, 0x2eaa4 <_ZNK23ChiFeature2HWmultiframe25ProcessHWMFBlendInitStageEP24ChiFeature2RequestObjecthhh+0x354>
   2e9ec: ef 00 00 f0  	adrp	x15, 0x4d000 <_ZNK23ChiFeature2HWmultiframe25ProcessHWMFBlendInitStageEP24ChiFeature2RequestObjecthhh+0x318>
   2e9fc: a1 02 00 54  	b.ne	0x2ea50 <_ZNK23ChiFeature2HWmultiframe25ProcessHWMFBlendInitStageEP24ChiFeature2RequestObjecthhh+0x300>
   2ea00: 19 ff ff 90  	adrp	x25, 0xe000 <_ZNK23ChiFeature2HWmultiframe25ProcessHWMFBlendInitStageEP24ChiFeature2RequestObjecthhh+0x230>
   2ea1c: 21 ff ff d0  	adrp	x1, 0x14000 <_ZNK23ChiFeature2HWmultiframe25ProcessHWMFBlendInitStageEP24ChiFeature2RequestObjecthhh+0x264>
   2ea20: e2 fe ff f0  	adrp	x2, 0xd000 <_ZNK23ChiFeature2HWmultiframe25ProcessHWMFBlendInitStageEP24ChiFeature2RequestObjecthhh+0x24c>
   2ea24: 25 ff ff 90  	adrp	x5, 0x12000 <_ZNK23ChiFeature2HWmultiframe25ProcessHWMFBlendInitStageEP24ChiFeature2RequestObjecthhh+0x264>
   2ea50: 19 ff ff 90  	adrp	x25, 0xe000 <_ZNK23ChiFeature2HWmultiframe25ProcessHWMFBlendInitStageEP24ChiFeature2RequestObjecthhh+0x280>
   2ea6c: 01 ff ff d0  	adrp	x1, 0x10000 <_ZNK23ChiFeature2HWmultiframe25ProcessHWMFBlendInitStageEP24ChiFeature2RequestObjecthhh+0x2a4>
   2ea74: 20 ff ff d0  	adrp	x0, 0x14000 <_ZNK23ChiFeature2HWmultiframe25ProcessHWMFBlendInitStageEP24ChiFeature2RequestObjecthhh+0x2bc>
   2ea78: 23 ff ff 90  	adrp	x3, 0x12000 <_ZNK23ChiFeature2HWmultiframe25ProcessHWMFBlendInitStageEP24ChiFeature2RequestObjecthhh+0x2b8>
   2ea7c: 05 ff ff f0  	adrp	x5, 0x11000 <_ZNK23ChiFeature2HWmultiframe25ProcessHWMFBlendInitStageEP24ChiFeature2RequestObjecthhh+0x2b8>
   2eaa0: 80 65 00 94  	bl	0x480a0 <_ZN6ChiLog9LogSystemEPKcS1_S1_S1_iS1_z@plt>
   2eaa8: 0b 28 00 34  	cbz	w11, 0x2efa8 <_ZNK23ChiFeature2HWmultiframe25ProcessHWMFBlendInitStageEP24ChiFeature2RequestObjecthhh+0x858>
   2eac0: 21 21 00 54  	b.ne	0x2eee4 <_ZNK23ChiFeature2HWmultiframe25ProcessHWMFBlendInitStageEP24ChiFeature2RequestObjecthhh+0x794>
   2ead8: b2 66 00 94  	bl	0x485a0 <_ZNK23ChiFeature2HWmultiframe26FetchSpecificInputPortDataEj28ChiFeature2PortDirectionType19ChiFeature2PortTypeP21ChiFeature2Identifier@plt>
   2eadc: 40 06 00 34  	cbz	w0, 0x2eba4 <_ZNK23ChiFeature2HWmultiframe25ProcessHWMFBlendInitStageEP24ChiFeature2RequestObjecthhh+0x454>
   2eae4: 0c 06 08 36  	tbz	w12, #1, 0x2eba4 <_ZNK23ChiFeature2HWmultiframe25ProcessHWMFBlendInitStageEP24ChiFeature2RequestObjecthhh+0x454>
   2eae8: f1 00 00 f0  	adrp	x17, 0x4d000 <_ZNK23ChiFeature2HWmultiframe25ProcessHWMFBlendInitStageEP24ChiFeature2RequestObjecthhh+0x414>
   2eafc: a1 02 00 54  	b.ne	0x2eb50 <_ZNK23ChiFeature2HWmultiframe25ProcessHWMFBlendInitStageEP24ChiFeature2RequestObjecthhh+0x400>
   2eb00: 1a ff ff 90  	adrp	x26, 0xe000 <_ZNK23ChiFeature2HWmultiframe25ProcessHWMFBlendInitStageEP24ChiFeature2RequestObjecthhh+0x330>
   2eb1c: 21 ff ff d0  	adrp	x1, 0x14000 <_ZNK23ChiFeature2HWmultiframe25ProcessHWMFBlendInitStageEP24ChiFeature2RequestObjecthhh+0x364>
   2eb20: 22 ff ff 90  	adrp	x2, 0x12000 <_ZNK23ChiFeature2HWmultiframe25ProcessHWMFBlendInitStageEP24ChiFeature2RequestObjecthhh+0x360>
   2eb24: 25 ff ff 90  	adrp	x5, 0x12000 <_ZNK23ChiFeature2HWmultiframe25ProcessHWMFBlendInitStageEP24ChiFeature2RequestObjecthhh+0x364>
   2eb50: 1a ff ff 90  	adrp	x26, 0xe000 <_ZNK23ChiFeature2HWmultiframe25ProcessHWMFBlendInitStageEP24ChiFeature2RequestObjecthhh+0x380>
   2eb6c: 01 ff ff 90  	adrp	x1, 0xe000 <_ZNK23ChiFeature2HWmultiframe25ProcessHWMFBlendInitStageEP24ChiFeature2RequestObjecthhh+0x39c>
   2eb74: 00 ff ff f0  	adrp	x0, 0x11000 <_ZNK23ChiFeature2HWmultiframe25ProcessHWMFBlendInitStageEP24ChiFeature2RequestObjecthhh+0x3b0>
   2eb78: 23 ff ff 90  	adrp	x3, 0x12000 <_ZNK23ChiFeature2HWmultiframe25ProcessHWMFBlendInitStageEP24ChiFeature2RequestObjecthhh+0x3b8>
   2eb7c: 05 ff ff b0  	adrp	x5, 0xf000 <_ZNK23ChiFeature2HWmultiframe25ProcessHWMFBlendInitStageEP24ChiFeature2RequestObjecthhh+0x3b0>
   2eba0: 40 65 00 94  	bl	0x480a0 <_ZN6ChiLog9LogSystemEPKcS1_S1_S1_iS1_z@plt>
   2ebc4: 5b 66 00 94  	bl	0x48530 <_ZNK24ChiFeature2RequestObject13GetBufferInfoE31ChiFeature2RequestObjectOpsTypePK21ChiFeature2IdentifierPPvPmhh@plt>
   2ebe8: 52 66 00 94  	bl	0x48530 <_ZNK24ChiFeature2RequestObject13GetBufferInfoE31ChiFeature2RequestObjectOpsTypePK21ChiFeature2IdentifierPPvPmhh@plt>
   2ebf8: 21 18 00 54  	b.ne	0x2eefc <_ZNK23ChiFeature2HWmultiframe25ProcessHWMFBlendInitStageEP24ChiFeature2RequestObjecthhh+0x7ac>
   2ec0c: 4d 66 00 94  	bl	0x48540 <_ZNK15ChiFeature2Base15GetStreamBufferEPvmP15ChiStreamBuffer@plt>
   2ec14: 6d 06 18 36  	tbz	w13, #3, 0x2ece0 <_ZNK23ChiFeature2HWmultiframe25ProcessHWMFBlendInitStageEP24ChiFeature2RequestObjecthhh+0x590>
   2ec18: e3 00 00 f0  	adrp	x3, 0x4d000 <_ZNK23ChiFeature2HWmultiframe25ProcessHWMFBlendInitStageEP24ChiFeature2RequestObjecthhh+0x544>
   2ec28: e1 02 00 54  	b.ne	0x2ec84 <_ZNK23ChiFeature2HWmultiframe25ProcessHWMFBlendInitStageEP24ChiFeature2RequestObjecthhh+0x534>
   2ec2c: 19 ff ff 90  	adrp	x25, 0xe000 <_ZNK23ChiFeature2HWmultiframe25ProcessHWMFBlendInitStageEP24ChiFeature2RequestObjecthhh+0x45c>
   2ec50: 21 ff ff d0  	adrp	x1, 0x14000 <_ZNK23ChiFeature2HWmultiframe25ProcessHWMFBlendInitStageEP24ChiFeature2RequestObjecthhh+0x498>
   2ec58: 22 ff ff 90  	adrp	x2, 0x12000 <_ZNK23ChiFeature2HWmultiframe25ProcessHWMFBlendInitStageEP24ChiFeature2RequestObjecthhh+0x498>
   2ec5c: 25 ff ff 90  	adrp	x5, 0x12000 <_ZNK23ChiFeature2HWmultiframe25ProcessHWMFBlendInitStageEP24ChiFeature2RequestObjecthhh+0x49c>
   2ec84: 1a ff ff 90  	adrp	x26, 0xe000 <_ZNK23ChiFeature2HWmultiframe25ProcessHWMFBlendInitStageEP24ChiFeature2RequestObjecthhh+0x4b4>
   2ecb0: 20 ff ff d0  	adrp	x0, 0x14000 <_ZNK23ChiFeature2HWmultiframe25ProcessHWMFBlendInitStageEP24ChiFeature2RequestObjecthhh+0x4f8>
   2ecb4: 01 ff ff d0  	adrp	x1, 0x10000 <_ZNK23ChiFeature2HWmultiframe25ProcessHWMFBlendInitStageEP24ChiFeature2RequestObjecthhh+0x4ec>
   2ecb8: 23 ff ff 90  	adrp	x3, 0x12000 <_ZNK23ChiFeature2HWmultiframe25ProcessHWMFBlendInitStageEP24ChiFeature2RequestObjecthhh+0x4f8>
   2ecbc: 25 ff ff 90  	adrp	x5, 0x12000 <_ZNK23ChiFeature2HWmultiframe25ProcessHWMFBlendInitStageEP24ChiFeature2RequestObjecthhh+0x4fc>
   2ecdc: f1 64 00 94  	bl	0x480a0 <_ZN6ChiLog9LogSystemEPKcS1_S1_S1_iS1_z@plt>
   2ecec: 41 11 00 54  	b.ne	0x2ef14 <_ZNK23ChiFeature2HWmultiframe25ProcessHWMFBlendInitStageEP24ChiFeature2RequestObjecthhh+0x7c4>
   2ecf8: c1 11 00 54  	b.ne	0x2ef30 <_ZNK23ChiFeature2HWmultiframe25ProcessHWMFBlendInitStageEP24ChiFeature2RequestObjecthhh+0x7e0>
   2ed04: ef 64 00 94  	bl	0x480c0 <_ZNK15ChiFeature2Base21GetFeaturePrivContextEP24ChiFeature2RequestObject@plt>
   2ed08: c0 14 00 b4  	cbz	x0, 0x2efa0 <_ZNK23ChiFeature2HWmultiframe25ProcessHWMFBlendInitStageEP24ChiFeature2RequestObjecthhh+0x850>
   2ed14: 62 14 00 54  	b.hs	0x2efa0 <_ZNK23ChiFeature2HWmultiframe25ProcessHWMFBlendInitStageEP24ChiFeature2RequestObjecthhh+0x850>
   2ed58: 5a 65 00 94  	bl	0x482c0 <_ZN15ExtensionModule11GetInstanceEv@plt>
   2ed68: c1 11 00 54  	b.ne	0x2efa0 <_ZNK23ChiFeature2HWmultiframe25ProcessHWMFBlendInitStageEP24ChiFeature2RequestObjecthhh+0x850>
   2ed7c: 61 0e 00 54  	b.ne	0x2ef48 <_ZNK23ChiFeature2HWmultiframe25ProcessHWMFBlendInitStageEP24ChiFeature2RequestObjecthhh+0x7f8>
   2ed94: 2f 06 00 37  	tbnz	w15, #0, 0x2ee58 <_ZNK23ChiFeature2HWmultiframe25ProcessHWMFBlendInitStageEP24ChiFeature2RequestObjecthhh+0x708>
   2eda0: 32 00 00 14  	b	0x2ee68 <_ZNK23ChiFeature2HWmultiframe25ProcessHWMFBlendInitStageEP24ChiFeature2RequestObjecthhh+0x718>
   2eda8: 86 18 00 36  	tbz	w6, #0, 0x2f0b8 <_ZNK23ChiFeature2HWmultiframe25ProcessHWMFBlendInitStageEP24ChiFeature2RequestObjecthhh+0x968>
   2edac: e3 00 00 f0  	adrp	x3, 0x4d000 <_ZNK23ChiFeature2HWmultiframe25ProcessHWMFBlendInitStageEP24ChiFeature2RequestObjecthhh+0x6d8>
   2edbc: 81 02 00 54  	b.ne	0x2ee0c <_ZNK23ChiFeature2HWmultiframe25ProcessHWMFBlendInitStageEP24ChiFeature2RequestObjecthhh+0x6bc>
   2edc0: 16 ff ff 90  	adrp	x22, 0xe000 <_ZNK23ChiFeature2HWmultiframe25ProcessHWMFBlendInitStageEP24ChiFeature2RequestObjecthhh+0x5f0>
   2eddc: 21 ff ff d0  	adrp	x1, 0x14000 <_ZNK23ChiFeature2HWmultiframe25ProcessHWMFBlendInitStageEP24ChiFeature2RequestObjecthhh+0x624>
   2ede0: 02 ff ff d0  	adrp	x2, 0x10000 <_ZNK23ChiFeature2HWmultiframe25ProcessHWMFBlendInitStageEP24ChiFeature2RequestObjecthhh+0x618>
   2ede4: 25 ff ff 90  	adrp	x5, 0x12000 <_ZNK23ChiFeature2HWmultiframe25ProcessHWMFBlendInitStageEP24ChiFeature2RequestObjecthhh+0x624>
   2ee0c: 1a ff ff 90  	adrp	x26, 0xe000 <_ZNK23ChiFeature2HWmultiframe25ProcessHWMFBlendInitStageEP24ChiFeature2RequestObjecthhh+0x63c>
   2ee28: 21 ff ff b0  	adrp	x1, 0x13000 <_ZNK23ChiFeature2HWmultiframe25ProcessHWMFBlendInitStageEP24ChiFeature2RequestObjecthhh+0x66c>
   2ee30: e0 fe ff f0  	adrp	x0, 0xd000 <_ZNK23ChiFeature2HWmultiframe25ProcessHWMFBlendInitStageEP24ChiFeature2RequestObjecthhh+0x65c>
   2ee34: 23 ff ff 90  	adrp	x3, 0x12000 <_ZNK23ChiFeature2HWmultiframe25ProcessHWMFBlendInitStageEP24ChiFeature2RequestObjecthhh+0x674>
   2ee38: 25 ff ff d0  	adrp	x5, 0x14000 <_ZNK23ChiFeature2HWmultiframe25ProcessHWMFBlendInitStageEP24ChiFeature2RequestObjecthhh+0x680>
   2ee54: 97 00 00 14  	b	0x2f0b0 <_ZNK23ChiFeature2HWmultiframe25ProcessHWMFBlendInitStageEP24ChiFeature2RequestObjecthhh+0x960>
   2ee74: b7 65 00 94  	bl	0x48550 <_ZNK15ChiFeature2Base19DumpInputMetaBufferEP29ChiFeature2BufferMetadataInfoPKcj@plt>
   2ee84: e1 06 00 54  	b.ne	0x2ef60 <_ZNK23ChiFeature2HWmultiframe25ProcessHWMFBlendInitStageEP24ChiFeature2RequestObjecthhh+0x810>
   2ee8c: 90 07 00 37  	tbnz	w16, #0, 0x2ef7c <_ZNK23ChiFeature2HWmultiframe25ProcessHWMFBlendInitStageEP24ChiFeature2RequestObjecthhh+0x82c>
   2ee98: 3d 00 00 14  	b	0x2ef8c <_ZNK23ChiFeature2HWmultiframe25ProcessHWMFBlendInitStageEP24ChiFeature2RequestObjecthhh+0x83c>
   2eeb0: 4f fe ff 17  	b	0x2e7ec <_ZNK23ChiFeature2HWmultiframe25ProcessHWMFBlendInitStageEP24ChiFeature2RequestObjecthhh+0x9c>
   2eec8: 86 fe ff 17  	b	0x2e8e0 <_ZNK23ChiFeature2HWmultiframe25ProcessHWMFBlendInitStageEP24ChiFeature2RequestObjecthhh+0x190>
   2eee0: bc fe ff 17  	b	0x2e9d0 <_ZNK23ChiFeature2HWmultiframe25ProcessHWMFBlendInitStageEP24ChiFeature2RequestObjecthhh+0x280>
   2eef8: f3 fe ff 17  	b	0x2eac4 <_ZNK23ChiFeature2HWmultiframe25ProcessHWMFBlendInitStageEP24ChiFeature2RequestObjecthhh+0x374>
   2ef10: 3b ff ff 17  	b	0x2ebfc <_ZNK23ChiFeature2HWmultiframe25ProcessHWMFBlendInitStageEP24ChiFeature2RequestObjecthhh+0x4ac>
   2ef2c: 71 ff ff 17  	b	0x2ecf0 <_ZNK23ChiFeature2HWmultiframe25ProcessHWMFBlendInitStageEP24ChiFeature2RequestObjecthhh+0x5a0>
   2ef44: 6e ff ff 17  	b	0x2ecfc <_ZNK23ChiFeature2HWmultiframe25ProcessHWMFBlendInitStageEP24ChiFeature2RequestObjecthhh+0x5ac>
   2ef5c: 89 ff ff 17  	b	0x2ed80 <_ZNK23ChiFeature2HWmultiframe25ProcessHWMFBlendInitStageEP24ChiFeature2RequestObjecthhh+0x630>
   2ef78: d0 f8 07 36  	tbz	w16, #0, 0x2ee90 <_ZNK23ChiFeature2HWmultiframe25ProcessHWMFBlendInitStageEP24ChiFeature2RequestObjecthhh+0x740>
   2ef9c: 61 65 00 94  	bl	0x48520 <_ZNK15ChiFeature2Base20DumpInputImageBufferEP29ChiFeature2BufferMetadataInfoPKcj@plt>
   2efa0: f4 00 00 f0  	adrp	x20, 0x4d000 <_ZNK23ChiFeature2HWmultiframe25ProcessHWMFBlendInitStageEP24ChiFeature2RequestObjecthhh+0x8cc>
   2efb4: 41 4e 00 54  	b.ne	0x2f97c <_ZNK23ChiFeature2HWmultiframe25ProcessHWMFBlendInitStageEP24ChiFeature2RequestObjecthhh+0x122c>
   2efc4: c3 0c 00 94  	bl	0x322d0 <_ZNK23ChiFeature2HWmultiframe26FetchSpecificInputPortDataEj28ChiFeature2PortDirectionType19ChiFeature2PortTypeP21ChiFeature2Identifier+0x378>
   2efcc: a0 01 00 35  	cbnz	w0, 0x2f000 <_ZNK23ChiFeature2HWmultiframe25ProcessHWMFBlendInitStageEP24ChiFeature2RequestObjecthhh+0x8b0>
   2efdc: c1 4d 00 54  	b.ne	0x2f994 <_ZNK23ChiFeature2HWmultiframe25ProcessHWMFBlendInitStageEP24ChiFeature2RequestObjecthhh+0x1244>
   2efec: 91 f6 ff 97  	bl	0x2ca30 <_ZNK23ChiFeature2HWmultiframe25IsRDIRequiredInPostFilterEPKN15ChiFeature2Base22ChiFeaturePipelineDataEi+0xca8>
   2eff0: f4 00 00 f0  	adrp	x20, 0x4d000 <_ZNK23ChiFeature2HWmultiframe25ProcessHWMFBlendInitStageEP24ChiFeature2RequestObjecthhh+0x91c>
   2effc: 80 07 00 34  	cbz	w0, 0x2f0ec <_ZNK23ChiFeature2HWmultiframe25ProcessHWMFBlendInitStageEP24ChiFeature2RequestObjecthhh+0x99c>
   2f004: b6 05 00 36  	tbz	w22, #0, 0x2f0b8 <_ZNK23ChiFeature2HWmultiframe25ProcessHWMFBlendInitStageEP24ChiFeature2RequestObjecthhh+0x968>
   2f008: fb 00 00 d0  	adrp	x27, 0x4d000 <_ZNK23ChiFeature2HWmultiframe25ProcessHWMFBlendInitStageEP24ChiFeature2RequestObjecthhh+0x930>
   2f018: 81 02 00 54  	b.ne	0x2f068 <_ZNK23ChiFeature2HWmultiframe25ProcessHWMFBlendInitStageEP24ChiFeature2RequestObjecthhh+0x918>
   2f01c: f6 fe ff f0  	adrp	x22, 0xe000 <_ZNK23ChiFeature2HWmultiframe25ProcessHWMFBlendInitStageEP24ChiFeature2RequestObjecthhh+0x848>
   2f038: 21 ff ff b0  	adrp	x1, 0x14000 <_ZNK23ChiFeature2HWmultiframe25ProcessHWMFBlendInitStageEP24ChiFeature2RequestObjecthhh+0x87c>
   2f03c: 02 ff ff b0  	adrp	x2, 0x10000 <_ZNK23ChiFeature2HWmultiframe25ProcessHWMFBlendInitStageEP24ChiFeature2RequestObjecthhh+0x870>
   2f040: 05 ff ff f0  	adrp	x5, 0x12000 <_ZNK23ChiFeature2HWmultiframe25ProcessHWMFBlendInitStageEP24ChiFeature2RequestObjecthhh+0x87c>
   2f068: fa fe ff f0  	adrp	x26, 0xe000 <_ZNK23ChiFeature2HWmultiframe25ProcessHWMFBlendInitStageEP24ChiFeature2RequestObjecthhh+0x894>
   2f084: 21 ff ff 90  	adrp	x1, 0x13000 <_ZNK23ChiFeature2HWmultiframe25ProcessHWMFBlendInitStageEP24ChiFeature2RequestObjecthhh+0x8c4>
   2f08c: e0 fe ff d0  	adrp	x0, 0xd000 <_ZNK23ChiFeature2HWmultiframe25ProcessHWMFBlendInitStageEP24ChiFeature2RequestObjecthhh+0x8b4>
   2f090: 03 ff ff f0  	adrp	x3, 0x12000 <_ZNK23ChiFeature2HWmultiframe25ProcessHWMFBlendInitStageEP24ChiFeature2RequestObjecthhh+0x8cc>
   2f094: 25 ff ff 90  	adrp	x5, 0x13000 <_ZNK23ChiFeature2HWmultiframe25ProcessHWMFBlendInitStageEP24ChiFeature2RequestObjecthhh+0x8d4>
   2f0b4: fb 63 00 94  	bl	0x480a0 <_ZN6ChiLog9LogSystemEPKcS1_S1_S1_iS1_z@plt>
   2f0c4: 61 51 00 54  	b.ne	0x2faf0 <_ZNK23ChiFeature2HWmultiframe25ProcessHWMFBlendInitStageEP24ChiFeature2RequestObjecthhh+0x13a0>
   2f0f8: a1 45 00 54  	b.ne	0x2f9ac <_ZNK23ChiFeature2HWmultiframe25ProcessHWMFBlendInitStageEP24ChiFeature2RequestObjecthhh+0x125c>
   2f104: 21 46 00 54  	b.ne	0x2f9c8 <_ZNK23ChiFeature2HWmultiframe25ProcessHWMFBlendInitStageEP24ChiFeature2RequestObjecthhh+0x1278>
   2f110: ec 63 00 94  	bl	0x480c0 <_ZNK15ChiFeature2Base21GetFeaturePrivContextEP24ChiFeature2RequestObject@plt>
   2f118: 80 03 00 b4  	cbz	x0, 0x2f188 <_ZNK23ChiFeature2HWmultiframe25ProcessHWMFBlendInitStageEP24ChiFeature2RequestObjecthhh+0xa38>
   2f124: 62 03 00 54  	b.hs	0x2f190 <_ZNK23ChiFeature2HWmultiframe25ProcessHWMFBlendInitStageEP24ChiFeature2RequestObjecthhh+0xa40>
   2f150: c1 46 00 54  	b.ne	0x2fa28 <_ZNK23ChiFeature2HWmultiframe25ProcessHWMFBlendInitStageEP24ChiFeature2RequestObjecthhh+0x12d8>
   2f15c: 09 02 00 b4  	cbz	x9, 0x2f19c <_ZNK23ChiFeature2HWmultiframe25ProcessHWMFBlendInitStageEP24ChiFeature2RequestObjecthhh+0xa4c>
   2f168: a0 01 00 54  	b.eq	0x2f19c <_ZNK23ChiFeature2HWmultiframe25ProcessHWMFBlendInitStageEP24ChiFeature2RequestObjecthhh+0xa4c>
   2f184: 18 00 00 14  	b	0x2f1e4 <_ZNK23ChiFeature2HWmultiframe25ProcessHWMFBlendInitStageEP24ChiFeature2RequestObjecthhh+0xa94>
   2f18c: 17 00 00 14  	b	0x2f1e8 <_ZNK23ChiFeature2HWmultiframe25ProcessHWMFBlendInitStageEP24ChiFeature2RequestObjecthhh+0xa98>
   2f198: 14 00 00 14  	b	0x2f1e8 <_ZNK23ChiFeature2HWmultiframe25ProcessHWMFBlendInitStageEP24ChiFeature2RequestObjecthhh+0xa98>
   2f1a0: 64 00 00 b4  	cbz	x4, 0x2f1ac <_ZNK23ChiFeature2HWmultiframe25ProcessHWMFBlendInitStageEP24ChiFeature2RequestObjecthhh+0xa5c>
   2f1a8: 26 01 10 37  	tbnz	w6, #2, 0x2f1cc <_ZNK23ChiFeature2HWmultiframe25ProcessHWMFBlendInitStageEP24ChiFeature2RequestObjecthhh+0xa7c>
   2f1c8: 07 00 00 14  	b	0x2f1e4 <_ZNK23ChiFeature2HWmultiframe25ProcessHWMFBlendInitStageEP24ChiFeature2RequestObjecthhh+0xa94>
   2f1fc: 21 3f 00 54  	b.ne	0x2f9e0 <_ZNK23ChiFeature2HWmultiframe25ProcessHWMFBlendInitStageEP24ChiFeature2RequestObjecthhh+0x1290>
   2f210: e8 64 00 94  	bl	0x485b0 <_ZNK23ChiFeature2HWmultiframe16SelectInputPortsEP21ChiFeature2PortIdListP24ChiFeature2RequestObject@plt>
   2f240: c1 3d 00 54  	b.ne	0x2f9f8 <_ZNK23ChiFeature2HWmultiframe25ProcessHWMFBlendInitStageEP24ChiFeature2RequestObjecthhh+0x12a8>
   2f254: c3 64 00 94  	bl	0x48560 <_ZNK15ChiFeature2Base25PopulatePortConfigurationEP24ChiFeature2RequestObjectPK21ChiFeature2PortIdListS4_@plt>
   2f258: f4 00 00 d0  	adrp	x20, 0x4d000 <_ZNK23ChiFeature2HWmultiframe25ProcessHWMFBlendInitStageEP24ChiFeature2RequestObjecthhh+0xb80>
   2f260: 39 37 00 34  	cbz	w25, 0x2f944 <_ZNK23ChiFeature2HWmultiframe25ProcessHWMFBlendInitStageEP24ChiFeature2RequestObjecthhh+0x11f4>
   2f268: 79 00 00 34  	cbz	w25, 0x2f274 <_ZNK23ChiFeature2HWmultiframe25ProcessHWMFBlendInitStageEP24ChiFeature2RequestObjecthhh+0xb24>
   2f270: 0e 00 00 14  	b	0x2f2a8 <_ZNK23ChiFeature2HWmultiframe25ProcessHWMFBlendInitStageEP24ChiFeature2RequestObjecthhh+0xb58>
   2f27c: e8 43 00 54  	b.hi	0x2faf8 <_ZNK23ChiFeature2HWmultiframe25ProcessHWMFBlendInitStageEP24ChiFeature2RequestObjecthhh+0x13a8>
   2f2b0: 43 01 00 b4  	cbz	x3, 0x2f2d8 <_ZNK23ChiFeature2HWmultiframe25ProcessHWMFBlendInitStageEP24ChiFeature2RequestObjecthhh+0xb88>
   2f2d0: a8 64 00 94  	bl	0x48570 <_ZN24ChiFeature2RequestObject13SetBufferInfoE31ChiFeature2RequestObjectOpsTypePK21ChiFeature2IdentifierPvmihh@plt>
   2f2d4: 2f 00 00 14  	b	0x2f390 <_ZNK23ChiFeature2HWmultiframe25ProcessHWMFBlendInitStageEP24ChiFeature2RequestObjecthhh+0xc40>
   2f2dc: ba 05 00 36  	tbz	w26, #0, 0x2f390 <_ZNK23ChiFeature2HWmultiframe25ProcessHWMFBlendInitStageEP24ChiFeature2RequestObjecthhh+0xc40>
   2f2e0: fa 00 00 d0  	adrp	x26, 0x4d000 <_ZNK23ChiFeature2HWmultiframe25ProcessHWMFBlendInitStageEP24ChiFeature2RequestObjecthhh+0xc08>
   2f2f0: a1 02 00 54  	b.ne	0x2f344 <_ZNK23ChiFeature2HWmultiframe25ProcessHWMFBlendInitStageEP24ChiFeature2RequestObjecthhh+0xbf4>
   2f2f8: f9 fe ff f0  	adrp	x25, 0xe000 <_ZNK23ChiFeature2HWmultiframe25ProcessHWMFBlendInitStageEP24ChiFeature2RequestObjecthhh+0xb24>
   2f314: 21 ff ff b0  	adrp	x1, 0x14000 <_ZNK23ChiFeature2HWmultiframe25ProcessHWMFBlendInitStageEP24ChiFeature2RequestObjecthhh+0xb58>
   2f318: e2 fe ff d0  	adrp	x2, 0xd000 <_ZNK23ChiFeature2HWmultiframe25ProcessHWMFBlendInitStageEP24ChiFeature2RequestObjecthhh+0xb40>
   2f31c: 05 ff ff f0  	adrp	x5, 0x12000 <_ZNK23ChiFeature2HWmultiframe25ProcessHWMFBlendInitStageEP24ChiFeature2RequestObjecthhh+0xb58>
   2f344: fa fe ff f0  	adrp	x26, 0xe000 <_ZNK23ChiFeature2HWmultiframe25ProcessHWMFBlendInitStageEP24ChiFeature2RequestObjecthhh+0xb70>
   2f360: 21 ff ff 90  	adrp	x1, 0x13000 <_ZNK23ChiFeature2HWmultiframe25ProcessHWMFBlendInitStageEP24ChiFeature2RequestObjecthhh+0xba0>
   2f368: e0 fe ff d0  	adrp	x0, 0xd000 <_ZNK23ChiFeature2HWmultiframe25ProcessHWMFBlendInitStageEP24ChiFeature2RequestObjecthhh+0xb90>
   2f36c: 03 ff ff f0  	adrp	x3, 0x12000 <_ZNK23ChiFeature2HWmultiframe25ProcessHWMFBlendInitStageEP24ChiFeature2RequestObjecthhh+0xba8>
   2f370: e5 fe ff d0  	adrp	x5, 0xd000 <_ZNK23ChiFeature2HWmultiframe25ProcessHWMFBlendInitStageEP24ChiFeature2RequestObjecthhh+0xb98>
   2f38c: 45 63 00 94  	bl	0x480a0 <_ZN6ChiLog9LogSystemEPKcS1_S1_S1_iS1_z@plt>
   2f394: 43 01 00 b4  	cbz	x3, 0x2f3bc <_ZNK23ChiFeature2HWmultiframe25ProcessHWMFBlendInitStageEP24ChiFeature2RequestObjecthhh+0xc6c>
   2f3b4: 6f 64 00 94  	bl	0x48570 <_ZN24ChiFeature2RequestObject13SetBufferInfoE31ChiFeature2RequestObjectOpsTypePK21ChiFeature2IdentifierPvmihh@plt>
   2f3b8: 2f 00 00 14  	b	0x2f474 <_ZNK23ChiFeature2HWmultiframe25ProcessHWMFBlendInitStageEP24ChiFeature2RequestObjecthhh+0xd24>
   2f3c0: a9 05 00 36  	tbz	w9, #0, 0x2f474 <_ZNK23ChiFeature2HWmultiframe25ProcessHWMFBlendInitStageEP24ChiFeature2RequestObjecthhh+0xd24>
   2f3c4: eb 00 00 d0  	adrp	x11, 0x4d000 <_ZNK23ChiFeature2HWmultiframe25ProcessHWMFBlendInitStageEP24ChiFeature2RequestObjecthhh+0xcec>
   2f3d4: a1 02 00 54  	b.ne	0x2f428 <_ZNK23ChiFeature2HWmultiframe25ProcessHWMFBlendInitStageEP24ChiFeature2RequestObjecthhh+0xcd8>
   2f3dc: f9 fe ff f0  	adrp	x25, 0xe000 <_ZNK23ChiFeature2HWmultiframe25ProcessHWMFBlendInitStageEP24ChiFeature2RequestObjecthhh+0xc08>
   2f3f8: 21 ff ff b0  	adrp	x1, 0x14000 <_ZNK23ChiFeature2HWmultiframe25ProcessHWMFBlendInitStageEP24ChiFeature2RequestObjecthhh+0xc3c>
   2f3fc: e2 fe ff f0  	adrp	x2, 0xe000 <_ZNK23ChiFeature2HWmultiframe25ProcessHWMFBlendInitStageEP24ChiFeature2RequestObjecthhh+0xc28>
   2f400: 05 ff ff f0  	adrp	x5, 0x12000 <_ZNK23ChiFeature2HWmultiframe25ProcessHWMFBlendInitStageEP24ChiFeature2RequestObjecthhh+0xc3c>
   2f428: fa fe ff f0  	adrp	x26, 0xe000 <_ZNK23ChiFeature2HWmultiframe25ProcessHWMFBlendInitStageEP24ChiFeature2RequestObjecthhh+0xc54>
   2f444: 21 ff ff 90  	adrp	x1, 0x13000 <_ZNK23ChiFeature2HWmultiframe25ProcessHWMFBlendInitStageEP24ChiFeature2RequestObjecthhh+0xc84>
   2f44c: e0 fe ff d0  	adrp	x0, 0xd000 <_ZNK23ChiFeature2HWmultiframe25ProcessHWMFBlendInitStageEP24ChiFeature2RequestObjecthhh+0xc74>
   2f450: 03 ff ff f0  	adrp	x3, 0x12000 <_ZNK23ChiFeature2HWmultiframe25ProcessHWMFBlendInitStageEP24ChiFeature2RequestObjecthhh+0xc8c>
   2f454: 05 ff ff b0  	adrp	x5, 0x10000 <_ZNK23ChiFeature2HWmultiframe25ProcessHWMFBlendInitStageEP24ChiFeature2RequestObjecthhh+0xc88>
   2f470: 0c 63 00 94  	bl	0x480a0 <_ZN6ChiLog9LogSystemEPKcS1_S1_S1_iS1_z@plt>
   2f484: ea 06 18 36  	tbz	w10, #3, 0x2f560 <_ZNK23ChiFeature2HWmultiframe25ProcessHWMFBlendInitStageEP24ChiFeature2RequestObjecthhh+0xe10>
   2f488: ec 00 00 d0  	adrp	x12, 0x4d000 <_ZNK23ChiFeature2HWmultiframe25ProcessHWMFBlendInitStageEP24ChiFeature2RequestObjecthhh+0xdb0>
   2f498: 61 03 00 54  	b.ne	0x2f504 <_ZNK23ChiFeature2HWmultiframe25ProcessHWMFBlendInitStageEP24ChiFeature2RequestObjecthhh+0xdb4>
   2f4a0: f9 fe ff f0  	adrp	x25, 0xe000 <_ZNK23ChiFeature2HWmultiframe25ProcessHWMFBlendInitStageEP24ChiFeature2RequestObjecthhh+0xccc>
   2f4bc: 21 ff ff b0  	adrp	x1, 0x14000 <_ZNK23ChiFeature2HWmultiframe25ProcessHWMFBlendInitStageEP24ChiFeature2RequestObjecthhh+0xd00>
   2f4c0: 02 ff ff 90  	adrp	x2, 0xf000 <_ZNK23ChiFeature2HWmultiframe25ProcessHWMFBlendInitStageEP24ChiFeature2RequestObjecthhh+0xcf0>
   2f4c4: 05 ff ff f0  	adrp	x5, 0x12000 <_ZNK23ChiFeature2HWmultiframe25ProcessHWMFBlendInitStageEP24ChiFeature2RequestObjecthhh+0xd00>
   2f504: fa fe ff f0  	adrp	x26, 0xe000 <_ZNK23ChiFeature2HWmultiframe25ProcessHWMFBlendInitStageEP24ChiFeature2RequestObjecthhh+0xd30>
   2f520: 01 ff ff b0  	adrp	x1, 0x10000 <_ZNK23ChiFeature2HWmultiframe25ProcessHWMFBlendInitStageEP24ChiFeature2RequestObjecthhh+0xd54>
   2f528: 20 ff ff b0  	adrp	x0, 0x14000 <_ZNK23ChiFeature2HWmultiframe25ProcessHWMFBlendInitStageEP24ChiFeature2RequestObjecthhh+0xd6c>
   2f52c: 03 ff ff f0  	adrp	x3, 0x12000 <_ZNK23ChiFeature2HWmultiframe25ProcessHWMFBlendInitStageEP24ChiFeature2RequestObjecthhh+0xd68>
   2f530: e5 fe ff f0  	adrp	x5, 0xe000 <_ZNK23ChiFeature2HWmultiframe25ProcessHWMFBlendInitStageEP24ChiFeature2RequestObjecthhh+0xd5c>
   2f55c: d1 62 00 94  	bl	0x480a0 <_ZN6ChiLog9LogSystemEPKcS1_S1_S1_iS1_z@plt>
   2f570: 01 25 00 54  	b.ne	0x2fa10 <_ZNK23ChiFeature2HWmultiframe25ProcessHWMFBlendInitStageEP24ChiFeature2RequestObjecthhh+0x12c0>
   2f57c: 01 64 00 94  	bl	0x48580 <_ZNK15ChiFeature2Base22SubmitRequestToSessionEP24ChiFeature2RequestObject@plt>
   2f584: 00 1e 00 35  	cbnz	w0, 0x2f944 <_ZNK23ChiFeature2HWmultiframe25ProcessHWMFBlendInitStageEP24ChiFeature2RequestObjecthhh+0x11f4>
   2f594: 61 25 00 54  	b.ne	0x2fa40 <_ZNK23ChiFeature2HWmultiframe25ProcessHWMFBlendInitStageEP24ChiFeature2RequestObjecthhh+0x12f0>
   2f5b0: 09 0f 00 54  	b.ls	0x2f790 <_ZNK23ChiFeature2HWmultiframe25ProcessHWMFBlendInitStageEP24ChiFeature2RequestObjecthhh+0x1040>
   2f5bc: a1 06 00 54  	b.ne	0x2f690 <_ZNK23ChiFeature2HWmultiframe25ProcessHWMFBlendInitStageEP24ChiFeature2RequestObjecthhh+0xf40>
   2f5c8: 48 06 00 54  	b.hi	0x2f690 <_ZNK23ChiFeature2HWmultiframe25ProcessHWMFBlendInitStageEP24ChiFeature2RequestObjecthhh+0xf40>
   2f5d4: ee 05 28 36  	tbz	w14, #5, 0x2f690 <_ZNK23ChiFeature2HWmultiframe25ProcessHWMFBlendInitStageEP24ChiFeature2RequestObjecthhh+0xf40>
   2f5d8: ef 00 00 d0  	adrp	x15, 0x4d000 <_ZNK23ChiFeature2HWmultiframe25ProcessHWMFBlendInitStageEP24ChiFeature2RequestObjecthhh+0xf00>
   2f5ec: 81 02 00 54  	b.ne	0x2f63c <_ZNK23ChiFeature2HWmultiframe25ProcessHWMFBlendInitStageEP24ChiFeature2RequestObjecthhh+0xeec>
   2f5f0: f9 fe ff f0  	adrp	x25, 0xe000 <_ZNK23ChiFeature2HWmultiframe25ProcessHWMFBlendInitStageEP24ChiFeature2RequestObjecthhh+0xe1c>
   2f60c: 21 ff ff b0  	adrp	x1, 0x14000 <_ZNK23ChiFeature2HWmultiframe25ProcessHWMFBlendInitStageEP24ChiFeature2RequestObjecthhh+0xe50>
   2f610: 02 ff ff f0  	adrp	x2, 0x12000 <_ZNK23ChiFeature2HWmultiframe25ProcessHWMFBlendInitStageEP24ChiFeature2RequestObjecthhh+0xe4c>
   2f614: 05 ff ff f0  	adrp	x5, 0x12000 <_ZNK23ChiFeature2HWmultiframe25ProcessHWMFBlendInitStageEP24ChiFeature2RequestObjecthhh+0xe50>
   2f63c: fa fe ff f0  	adrp	x26, 0xe000 <_ZNK23ChiFeature2HWmultiframe25ProcessHWMFBlendInitStageEP24ChiFeature2RequestObjecthhh+0xe68>
   2f658: 01 ff ff d0  	adrp	x1, 0x11000 <_ZNK23ChiFeature2HWmultiframe25ProcessHWMFBlendInitStageEP24ChiFeature2RequestObjecthhh+0xe90>
   2f660: 20 ff ff 90  	adrp	x0, 0x13000 <_ZNK23ChiFeature2HWmultiframe25ProcessHWMFBlendInitStageEP24ChiFeature2RequestObjecthhh+0xea0>
   2f664: 03 ff ff f0  	adrp	x3, 0x12000 <_ZNK23ChiFeature2HWmultiframe25ProcessHWMFBlendInitStageEP24ChiFeature2RequestObjecthhh+0xea0>
   2f668: 05 ff ff 90  	adrp	x5, 0xf000 <_ZNK23ChiFeature2HWmultiframe25ProcessHWMFBlendInitStageEP24ChiFeature2RequestObjecthhh+0xe98>
   2f688: 86 62 00 94  	bl	0x480a0 <_ZN6ChiLog9LogSystemEPKcS1_S1_S1_iS1_z@plt>
   2f69c: e1 1d 00 54  	b.ne	0x2fa58 <_ZNK23ChiFeature2HWmultiframe25ProcessHWMFBlendInitStageEP24ChiFeature2RequestObjecthhh+0x1308>
   2f6ac: 75 f6 ff 97  	bl	0x2d080 <_ZNK23ChiFeature2HWmultiframe22PrepareAllDependenciesEP24ChiFeature2RequestObject+0x448>
   2f6b4: 80 14 00 b4  	cbz	x0, 0x2f944 <_ZNK23ChiFeature2HWmultiframe25ProcessHWMFBlendInitStageEP24ChiFeature2RequestObjecthhh+0x11f4>
   2f6c8: 81 1d 00 54  	b.ne	0x2fa78 <_ZNK23ChiFeature2HWmultiframe25ProcessHWMFBlendInitStageEP24ChiFeature2RequestObjecthhh+0x1328>
   2f6dc: ad 63 00 94  	bl	0x48590 <_ZNK15ChiFeature2Base40GetNumDependencyListsFromStageDescriptorEPK26ChiFeature2StageDescriptorhh@plt>
   2f6f4: e1 1c 00 54  	b.ne	0x2fa90 <_ZNK23ChiFeature2HWmultiframe25ProcessHWMFBlendInitStageEP24ChiFeature2RequestObjecthhh+0x1340>
   2f70c: bd 62 00 94  	bl	0x48200 <_ZNK15ChiFeature2Base35SetNextStageInfoFromStageDescriptorEP24ChiFeature2RequestObjectPK26ChiFeature2StageDescriptorhh@plt>
   2f72c: e1 1b 00 54  	b.ne	0x2faa8 <_ZNK23ChiFeature2HWmultiframe25ProcessHWMFBlendInitStageEP24ChiFeature2RequestObjecthhh+0x1358>
   2f744: b3 62 00 94  	bl	0x48210 <_ZNK15ChiFeature2Base36GetDependencyListFromStageDescriptorEPK26ChiFeature2StageDescriptorhhh@plt>
   2f748: f4 00 00 d0  	adrp	x20, 0x4d000 <_ZNK23ChiFeature2HWmultiframe25ProcessHWMFBlendInitStageEP24ChiFeature2RequestObjecthhh+0x1070>
   2f754: 00 09 00 b4  	cbz	x0, 0x2f874 <_ZNK23ChiFeature2HWmultiframe25ProcessHWMFBlendInitStageEP24ChiFeature2RequestObjecthhh+0x1124>
   2f75c: ef 01 00 34  	cbz	w15, 0x2f798 <_ZNK23ChiFeature2HWmultiframe25ProcessHWMFBlendInitStageEP24ChiFeature2RequestObjecthhh+0x1048>
   2f76c: a1 1a 00 54  	b.ne	0x2fac0 <_ZNK23ChiFeature2HWmultiframe25ProcessHWMFBlendInitStageEP24ChiFeature2RequestObjecthhh+0x1370>
   2f784: a7 62 00 94  	bl	0x48220 <_ZNK15ChiFeature2Base23PopulateStageDependencyEP24ChiFeature2RequestObjecthPK26ChiFeature2InputDependencyh@plt>
   2f78c: 3a 00 00 14  	b	0x2f874 <_ZNK23ChiFeature2HWmultiframe25ProcessHWMFBlendInitStageEP24ChiFeature2RequestObjecthhh+0x1124>
   2f794: 6c 00 00 14  	b	0x2f944 <_ZNK23ChiFeature2HWmultiframe25ProcessHWMFBlendInitStageEP24ChiFeature2RequestObjecthhh+0x11f4>
   2f7a4: 88 02 00 34  	cbz	w8, 0x2f7f4 <_ZNK23ChiFeature2HWmultiframe25ProcessHWMFBlendInitStageEP24ChiFeature2RequestObjecthhh+0x10a4>
   2f7b0: 05 00 00 14  	b	0x2f7c4 <_ZNK23ChiFeature2HWmultiframe25ProcessHWMFBlendInitStageEP24ChiFeature2RequestObjecthhh+0x1074>
   2f7c0: 22 01 00 54  	b.hs	0x2f7e4 <_ZNK23ChiFeature2HWmultiframe25ProcessHWMFBlendInitStageEP24ChiFeature2RequestObjecthhh+0x1094>
   2f7d0: 23 ff ff 35  	cbnz	w3, 0x2f7b4 <_ZNK23ChiFeature2HWmultiframe25ProcessHWMFBlendInitStageEP24ChiFeature2RequestObjecthhh+0x1064>
   2f7d8: 84 0c 00 94  	bl	0x329e8 <_ZNK23ChiFeature2HWmultiframe16SelectInputPortsEP21ChiFeature2PortIdListP24ChiFeature2RequestObject+0x5a8>
   2f7e0: f5 ff ff 17  	b	0x2f7b4 <_ZNK23ChiFeature2HWmultiframe25ProcessHWMFBlendInitStageEP24ChiFeature2RequestObjecthhh+0x1064>
   2f7e4: f4 00 00 d0  	adrp	x20, 0x4d000 <_ZNK23ChiFeature2HWmultiframe25ProcessHWMFBlendInitStageEP24ChiFeature2RequestObjecthhh+0x110c>
   2f7f0: 03 00 00 14  	b	0x2f7fc <_ZNK23ChiFeature2HWmultiframe25ProcessHWMFBlendInitStageEP24ChiFeature2RequestObjecthhh+0x10ac>
   2f824: a1 15 00 54  	b.ne	0x2fad8 <_ZNK23ChiFeature2HWmultiframe25ProcessHWMFBlendInitStageEP24ChiFeature2RequestObjecthhh+0x1388>
   2f838: 8a 62 00 94  	bl	0x48260 <_ZNK15ChiFeature2Base23PopulateDependencyPortsEP24ChiFeature2RequestObjecthPK26ChiFeature2InputDependency@plt>
   2f840: 80 01 00 b4  	cbz	x0, 0x2f870 <_ZNK23ChiFeature2HWmultiframe25ProcessHWMFBlendInitStageEP24ChiFeature2RequestObjecthhh+0x1120>
   2f868: 6a 14 00 b5  	cbnz	x10, 0x2faf4 <_ZNK23ChiFeature2HWmultiframe25ProcessHWMFBlendInitStageEP24ChiFeature2RequestObjecthhh+0x13a4>
   2f878: 65 06 18 36  	tbz	w5, #3, 0x2f944 <_ZNK23ChiFeature2HWmultiframe25ProcessHWMFBlendInitStageEP24ChiFeature2RequestObjecthhh+0x11f4>
   2f87c: f5 00 00 d0  	adrp	x21, 0x4d000 <_ZNK23ChiFeature2HWmultiframe25ProcessHWMFBlendInitStageEP24ChiFeature2RequestObjecthhh+0x11a4>
   2f88c: e1 02 00 54  	b.ne	0x2f8e8 <_ZNK23ChiFeature2HWmultiframe25ProcessHWMFBlendInitStageEP24ChiFeature2RequestObjecthhh+0x1198>
   2f890: fa fe ff f0  	adrp	x26, 0xe000 <_ZNK23ChiFeature2HWmultiframe25ProcessHWMFBlendInitStageEP24ChiFeature2RequestObjecthhh+0x10bc>
   2f8ac: 21 ff ff b0  	adrp	x1, 0x14000 <_ZNK23ChiFeature2HWmultiframe25ProcessHWMFBlendInitStageEP24ChiFeature2RequestObjecthhh+0x10f0>
   2f8b0: 02 ff ff d0  	adrp	x2, 0x11000 <_ZNK23ChiFeature2HWmultiframe25ProcessHWMFBlendInitStageEP24ChiFeature2RequestObjecthhh+0x10e8>
   2f8b4: 05 ff ff f0  	adrp	x5, 0x12000 <_ZNK23ChiFeature2HWmultiframe25ProcessHWMFBlendInitStageEP24ChiFeature2RequestObjecthhh+0x10f0>
   2f8e8: fa fe ff f0  	adrp	x26, 0xe000 <_ZNK23ChiFeature2HWmultiframe25ProcessHWMFBlendInitStageEP24ChiFeature2RequestObjecthhh+0x1114>
   2f904: 01 ff ff b0  	adrp	x1, 0x10000 <_ZNK23ChiFeature2HWmultiframe25ProcessHWMFBlendInitStageEP24ChiFeature2RequestObjecthhh+0x1138>
   2f90c: 20 ff ff b0  	adrp	x0, 0x14000 <_ZNK23ChiFeature2HWmultiframe25ProcessHWMFBlendInitStageEP24ChiFeature2RequestObjecthhh+0x1150>
   2f910: 03 ff ff f0  	adrp	x3, 0x12000 <_ZNK23ChiFeature2HWmultiframe25ProcessHWMFBlendInitStageEP24ChiFeature2RequestObjecthhh+0x114c>
   2f914: 25 ff ff 90  	adrp	x5, 0x13000 <_ZNK23ChiFeature2HWmultiframe25ProcessHWMFBlendInitStageEP24ChiFeature2RequestObjecthhh+0x1154>
   2f940: d8 61 00 94  	bl	0x480a0 <_ZN6ChiLog9LogSystemEPKcS1_S1_S1_iS1_z@plt>
   2f948: 80 bb ff b4  	cbz	x0, 0x2f0b8 <_ZNK23ChiFeature2HWmultiframe25ProcessHWMFBlendInitStageEP24ChiFeature2RequestObjecthhh+0x968>
   2f970: 2f 0c 00 b5  	cbnz	x15, 0x2faf4 <_ZNK23ChiFeature2HWmultiframe25ProcessHWMFBlendInitStageEP24ChiFeature2RequestObjecthhh+0x13a4>
   2f978: d0 fd ff 17  	b	0x2f0b8 <_ZNK23ChiFeature2HWmultiframe25ProcessHWMFBlendInitStageEP24ChiFeature2RequestObjecthhh+0x968>
   2f990: 8a fd ff 17  	b	0x2efb8 <_ZNK23ChiFeature2HWmultiframe25ProcessHWMFBlendInitStageEP24ChiFeature2RequestObjecthhh+0x868>
   2f9a8: 8e fd ff 17  	b	0x2efe0 <_ZNK23ChiFeature2HWmultiframe25ProcessHWMFBlendInitStageEP24ChiFeature2RequestObjecthhh+0x890>
   2f9c4: ce fd ff 17  	b	0x2f0fc <_ZNK23ChiFeature2HWmultiframe25ProcessHWMFBlendInitStageEP24ChiFeature2RequestObjecthhh+0x9ac>
   2f9dc: cb fd ff 17  	b	0x2f108 <_ZNK23ChiFeature2HWmultiframe25ProcessHWMFBlendInitStageEP24ChiFeature2RequestObjecthhh+0x9b8>
   2f9f4: 03 fe ff 17  	b	0x2f200 <_ZNK23ChiFeature2HWmultiframe25ProcessHWMFBlendInitStageEP24ChiFeature2RequestObjecthhh+0xab0>
   2fa0c: 0e fe ff 17  	b	0x2f244 <_ZNK23ChiFeature2HWmultiframe25ProcessHWMFBlendInitStageEP24ChiFeature2RequestObjecthhh+0xaf4>
   2fa24: d4 fe ff 17  	b	0x2f574 <_ZNK23ChiFeature2HWmultiframe25ProcessHWMFBlendInitStageEP24ChiFeature2RequestObjecthhh+0xe24>
   2fa3c: c6 fd ff 17  	b	0x2f154 <_ZNK23ChiFeature2HWmultiframe25ProcessHWMFBlendInitStageEP24ChiFeature2RequestObjecthhh+0xa04>
   2fa54: d1 fe ff 17  	b	0x2f598 <_ZNK23ChiFeature2HWmultiframe25ProcessHWMFBlendInitStageEP24ChiFeature2RequestObjecthhh+0xe48>
   2fa74: 0b ff ff 17  	b	0x2f6a0 <_ZNK23ChiFeature2HWmultiframe25ProcessHWMFBlendInitStageEP24ChiFeature2RequestObjecthhh+0xf50>
   2fa8c: 10 ff ff 17  	b	0x2f6cc <_ZNK23ChiFeature2HWmultiframe25ProcessHWMFBlendInitStageEP24ChiFeature2RequestObjecthhh+0xf7c>
   2faa4: 15 ff ff 17  	b	0x2f6f8 <_ZNK23ChiFeature2HWmultiframe25ProcessHWMFBlendInitStageEP24ChiFeature2RequestObjecthhh+0xfa8>
   2fabc: 1d ff ff 17  	b	0x2f730 <_ZNK23ChiFeature2HWmultiframe25ProcessHWMFBlendInitStageEP24ChiFeature2RequestObjecthhh+0xfe0>
   2fad4: 27 ff ff 17  	b	0x2f770 <_ZNK23ChiFeature2HWmultiframe25ProcessHWMFBlendInitStageEP24ChiFeature2RequestObjecthhh+0x1020>
   2faec: 4f ff ff 17  	b	0x2f828 <_ZNK23ChiFeature2HWmultiframe25ProcessHWMFBlendInitStageEP24ChiFeature2RequestObjecthhh+0x10d8>
000000000002fb00 <_ZNK23ChiFeature2HWmultiframe25ProcessHWMFBlendLoopStageEP24ChiFeature2RequestObjecthhh>:
   2fb34: fb 00 00 d0  	adrp	x27, 0x4d000 <_ZNK23ChiFeature2HWmultiframe25ProcessHWMFBlendLoopStageEP24ChiFeature2RequestObjecthhh+0xac>
   2fb98: c1 32 00 54  	b.ne	0x301f0 <_ZNK23ChiFeature2HWmultiframe25ProcessHWMFBlendLoopStageEP24ChiFeature2RequestObjecthhh+0x6f0>
   2fbb4: 7b 62 00 94  	bl	0x485a0 <_ZNK23ChiFeature2HWmultiframe26FetchSpecificInputPortDataEj28ChiFeature2PortDirectionType19ChiFeature2PortTypeP21ChiFeature2Identifier@plt>
   2fbb8: f8 00 00 d0  	adrp	x24, 0x4d000 <_ZNK23ChiFeature2HWmultiframe25ProcessHWMFBlendLoopStageEP24ChiFeature2RequestObjecthhh+0x130>
   2fbc0: 00 06 00 34  	cbz	w0, 0x2fc80 <_ZNK23ChiFeature2HWmultiframe25ProcessHWMFBlendLoopStageEP24ChiFeature2RequestObjecthhh+0x180>
   2fbc8: c8 05 08 36  	tbz	w8, #1, 0x2fc80 <_ZNK23ChiFeature2HWmultiframe25ProcessHWMFBlendLoopStageEP24ChiFeature2RequestObjecthhh+0x180>
   2fbcc: eb 00 00 d0  	adrp	x11, 0x4d000 <_ZNK23ChiFeature2HWmultiframe25ProcessHWMFBlendLoopStageEP24ChiFeature2RequestObjecthhh+0x144>
   2fbd0: fa fe ff f0  	adrp	x26, 0xe000 <_ZNK23ChiFeature2HWmultiframe25ProcessHWMFBlendLoopStageEP24ChiFeature2RequestObjecthhh+0x4c>
   2fbe8: 61 02 00 54  	b.ne	0x2fc34 <_ZNK23ChiFeature2HWmultiframe25ProcessHWMFBlendLoopStageEP24ChiFeature2RequestObjecthhh+0x134>
   2fc00: 21 ff ff b0  	adrp	x1, 0x14000 <_ZNK23ChiFeature2HWmultiframe25ProcessHWMFBlendLoopStageEP24ChiFeature2RequestObjecthhh+0x94>
   2fc04: 22 ff ff 90  	adrp	x2, 0x13000 <_ZNK23ChiFeature2HWmultiframe25ProcessHWMFBlendLoopStageEP24ChiFeature2RequestObjecthhh+0x94>
   2fc08: 25 ff ff b0  	adrp	x5, 0x14000 <_ZNK23ChiFeature2HWmultiframe25ProcessHWMFBlendLoopStageEP24ChiFeature2RequestObjecthhh+0x9c>
   2fc48: e1 fe ff f0  	adrp	x1, 0xe000 <_ZNK23ChiFeature2HWmultiframe25ProcessHWMFBlendLoopStageEP24ChiFeature2RequestObjecthhh+0xc4>
   2fc50: 00 ff ff d0  	adrp	x0, 0x11000 <_ZNK23ChiFeature2HWmultiframe25ProcessHWMFBlendLoopStageEP24ChiFeature2RequestObjecthhh+0xd8>
   2fc54: 23 ff ff b0  	adrp	x3, 0x14000 <_ZNK23ChiFeature2HWmultiframe25ProcessHWMFBlendLoopStageEP24ChiFeature2RequestObjecthhh+0xe8>
   2fc58: 05 ff ff b0  	adrp	x5, 0x10000 <_ZNK23ChiFeature2HWmultiframe25ProcessHWMFBlendLoopStageEP24ChiFeature2RequestObjecthhh+0xdc>
   2fc7c: 09 61 00 94  	bl	0x480a0 <_ZN6ChiLog9LogSystemEPKcS1_S1_S1_iS1_z@plt>
   2fc8c: e1 2b 00 54  	b.ne	0x30208 <_ZNK23ChiFeature2HWmultiframe25ProcessHWMFBlendLoopStageEP24ChiFeature2RequestObjecthhh+0x708>
   2fca4: 3f 62 00 94  	bl	0x485a0 <_ZNK23ChiFeature2HWmultiframe26FetchSpecificInputPortDataEj28ChiFeature2PortDirectionType19ChiFeature2PortTypeP21ChiFeature2Identifier@plt>
   2fcac: a0 06 00 34  	cbz	w0, 0x2fd80 <_ZNK23ChiFeature2HWmultiframe25ProcessHWMFBlendLoopStageEP24ChiFeature2RequestObjecthhh+0x280>
   2fcb4: 69 06 08 36  	tbz	w9, #1, 0x2fd80 <_ZNK23ChiFeature2HWmultiframe25ProcessHWMFBlendLoopStageEP24ChiFeature2RequestObjecthhh+0x280>
   2fcb8: ed 00 00 d0  	adrp	x13, 0x4d000 <_ZNK23ChiFeature2HWmultiframe25ProcessHWMFBlendLoopStageEP24ChiFeature2RequestObjecthhh+0x230>
   2fcc8: 21 03 00 54  	b.ne	0x2fd2c <_ZNK23ChiFeature2HWmultiframe25ProcessHWMFBlendLoopStageEP24ChiFeature2RequestObjecthhh+0x22c>
   2fcd4: fb fe ff f0  	adrp	x27, 0xe000 <_ZNK23ChiFeature2HWmultiframe25ProcessHWMFBlendLoopStageEP24ChiFeature2RequestObjecthhh+0x150>
   2fcf0: 21 ff ff b0  	adrp	x1, 0x14000 <_ZNK23ChiFeature2HWmultiframe25ProcessHWMFBlendLoopStageEP24ChiFeature2RequestObjecthhh+0x184>
   2fcf4: 22 ff ff 90  	adrp	x2, 0x13000 <_ZNK23ChiFeature2HWmultiframe25ProcessHWMFBlendLoopStageEP24ChiFeature2RequestObjecthhh+0x184>
   2fcf8: 25 ff ff b0  	adrp	x5, 0x14000 <_ZNK23ChiFeature2HWmultiframe25ProcessHWMFBlendLoopStageEP24ChiFeature2RequestObjecthhh+0x18c>
   2fd2c: fa fe ff f0  	adrp	x26, 0xe000 <_ZNK23ChiFeature2HWmultiframe25ProcessHWMFBlendLoopStageEP24ChiFeature2RequestObjecthhh+0x1a8>
   2fd48: e1 fe ff f0  	adrp	x1, 0xe000 <_ZNK23ChiFeature2HWmultiframe25ProcessHWMFBlendLoopStageEP24ChiFeature2RequestObjecthhh+0x1c4>
   2fd50: 00 ff ff d0  	adrp	x0, 0x11000 <_ZNK23ChiFeature2HWmultiframe25ProcessHWMFBlendLoopStageEP24ChiFeature2RequestObjecthhh+0x1d8>
   2fd54: 23 ff ff b0  	adrp	x3, 0x14000 <_ZNK23ChiFeature2HWmultiframe25ProcessHWMFBlendLoopStageEP24ChiFeature2RequestObjecthhh+0x1e8>
   2fd58: e5 fe ff b0  	adrp	x5, 0xc000 <_ZNK23ChiFeature2HWmultiframe25ProcessHWMFBlendLoopStageEP24ChiFeature2RequestObjecthhh+0x1cc>
   2fd7c: c9 60 00 94  	bl	0x480a0 <_ZN6ChiLog9LogSystemEPKcS1_S1_S1_iS1_z@plt>
   2fd8c: a1 24 00 54  	b.ne	0x30220 <_ZNK23ChiFeature2HWmultiframe25ProcessHWMFBlendLoopStageEP24ChiFeature2RequestObjecthhh+0x720>
   2fd98: ba f4 ff 97  	bl	0x2d080 <_ZNK23ChiFeature2HWmultiframe22PrepareAllDependenciesEP24ChiFeature2RequestObject+0x448>
   2fd9c: 80 1a 00 b4  	cbz	x0, 0x300ec <_ZNK23ChiFeature2HWmultiframe25ProcessHWMFBlendLoopStageEP24ChiFeature2RequestObjecthhh+0x5ec>
   2fdb0: 8a 2a 00 34  	cbz	w10, 0x30300 <_ZNK23ChiFeature2HWmultiframe25ProcessHWMFBlendLoopStageEP24ChiFeature2RequestObjecthhh+0x800>
   2fdc8: 81 23 00 54  	b.ne	0x30238 <_ZNK23ChiFeature2HWmultiframe25ProcessHWMFBlendLoopStageEP24ChiFeature2RequestObjecthhh+0x738>
   2fde0: f0 61 00 94  	bl	0x485a0 <_ZNK23ChiFeature2HWmultiframe26FetchSpecificInputPortDataEj28ChiFeature2PortDirectionType19ChiFeature2PortTypeP21ChiFeature2Identifier@plt>
   2fde4: 80 06 00 34  	cbz	w0, 0x2feb4 <_ZNK23ChiFeature2HWmultiframe25ProcessHWMFBlendLoopStageEP24ChiFeature2RequestObjecthhh+0x3b4>
   2fdec: 4b 06 08 36  	tbz	w11, #1, 0x2feb4 <_ZNK23ChiFeature2HWmultiframe25ProcessHWMFBlendLoopStageEP24ChiFeature2RequestObjecthhh+0x3b4>
   2fdf0: f0 00 00 d0  	adrp	x16, 0x4d000 <_ZNK23ChiFeature2HWmultiframe25ProcessHWMFBlendLoopStageEP24ChiFeature2RequestObjecthhh+0x368>
   2fe04: e1 02 00 54  	b.ne	0x2fe60 <_ZNK23ChiFeature2HWmultiframe25ProcessHWMFBlendLoopStageEP24ChiFeature2RequestObjecthhh+0x360>
   2fe0c: fb fe ff f0  	adrp	x27, 0xe000 <_ZNK23ChiFeature2HWmultiframe25ProcessHWMFBlendLoopStageEP24ChiFeature2RequestObjecthhh+0x288>
   2fe28: 21 ff ff b0  	adrp	x1, 0x14000 <_ZNK23ChiFeature2HWmultiframe25ProcessHWMFBlendLoopStageEP24ChiFeature2RequestObjecthhh+0x2bc>
   2fe2c: 02 ff ff f0  	adrp	x2, 0x12000 <_ZNK23ChiFeature2HWmultiframe25ProcessHWMFBlendLoopStageEP24ChiFeature2RequestObjecthhh+0x2b8>
   2fe30: 25 ff ff b0  	adrp	x5, 0x14000 <_ZNK23ChiFeature2HWmultiframe25ProcessHWMFBlendLoopStageEP24ChiFeature2RequestObjecthhh+0x2c4>
   2fe60: fa fe ff f0  	adrp	x26, 0xe000 <_ZNK23ChiFeature2HWmultiframe25ProcessHWMFBlendLoopStageEP24ChiFeature2RequestObjecthhh+0x2dc>
   2fe7c: e1 fe ff f0  	adrp	x1, 0xe000 <_ZNK23ChiFeature2HWmultiframe25ProcessHWMFBlendLoopStageEP24ChiFeature2RequestObjecthhh+0x2f8>
   2fe84: 00 ff ff d0  	adrp	x0, 0x11000 <_ZNK23ChiFeature2HWmultiframe25ProcessHWMFBlendLoopStageEP24ChiFeature2RequestObjecthhh+0x30c>
   2fe88: 23 ff ff b0  	adrp	x3, 0x14000 <_ZNK23ChiFeature2HWmultiframe25ProcessHWMFBlendLoopStageEP24ChiFeature2RequestObjecthhh+0x31c>
   2fe8c: 05 ff ff 90  	adrp	x5, 0xf000 <_ZNK23ChiFeature2HWmultiframe25ProcessHWMFBlendLoopStageEP24ChiFeature2RequestObjecthhh+0x30c>
   2feb0: 7c 60 00 94  	bl	0x480a0 <_ZN6ChiLog9LogSystemEPKcS1_S1_S1_iS1_z@plt>
   2fed8: 96 61 00 94  	bl	0x48530 <_ZNK24ChiFeature2RequestObject13GetBufferInfoE31ChiFeature2RequestObjectOpsTypePK21ChiFeature2IdentifierPPvPmhh@plt>
   2fefc: 8d 61 00 94  	bl	0x48530 <_ZNK24ChiFeature2RequestObject13GetBufferInfoE31ChiFeature2RequestObjectOpsTypePK21ChiFeature2IdentifierPPvPmhh@plt>
   2ff0c: 21 1a 00 54  	b.ne	0x30250 <_ZNK23ChiFeature2HWmultiframe25ProcessHWMFBlendLoopStageEP24ChiFeature2RequestObjecthhh+0x750>
   2ff20: 88 61 00 94  	bl	0x48540 <_ZNK15ChiFeature2Base15GetStreamBufferEPvmP15ChiStreamBuffer@plt>
   2ff28: ec 06 18 36  	tbz	w12, #3, 0x30004 <_ZNK23ChiFeature2HWmultiframe25ProcessHWMFBlendLoopStageEP24ChiFeature2RequestObjecthhh+0x504>
   2ff2c: e2 00 00 d0  	adrp	x2, 0x4d000 <_ZNK23ChiFeature2HWmultiframe25ProcessHWMFBlendLoopStageEP24ChiFeature2RequestObjecthhh+0x4a4>
   2ff3c: 61 03 00 54  	b.ne	0x2ffa8 <_ZNK23ChiFeature2HWmultiframe25ProcessHWMFBlendLoopStageEP24ChiFeature2RequestObjecthhh+0x4a8>
   2ff48: fb fe ff f0  	adrp	x27, 0xe000 <_ZNK23ChiFeature2HWmultiframe25ProcessHWMFBlendLoopStageEP24ChiFeature2RequestObjecthhh+0x3c4>
   2ff6c: 21 ff ff b0  	adrp	x1, 0x14000 <_ZNK23ChiFeature2HWmultiframe25ProcessHWMFBlendLoopStageEP24ChiFeature2RequestObjecthhh+0x400>
   2ff74: 02 ff ff b0  	adrp	x2, 0x10000 <_ZNK23ChiFeature2HWmultiframe25ProcessHWMFBlendLoopStageEP24ChiFeature2RequestObjecthhh+0x3f8>
   2ff78: 25 ff ff b0  	adrp	x5, 0x14000 <_ZNK23ChiFeature2HWmultiframe25ProcessHWMFBlendLoopStageEP24ChiFeature2RequestObjecthhh+0x40c>
   2ffa8: fa fe ff f0  	adrp	x26, 0xe000 <_ZNK23ChiFeature2HWmultiframe25ProcessHWMFBlendLoopStageEP24ChiFeature2RequestObjecthhh+0x424>
   2ffd4: 20 ff ff b0  	adrp	x0, 0x14000 <_ZNK23ChiFeature2HWmultiframe25ProcessHWMFBlendLoopStageEP24ChiFeature2RequestObjecthhh+0x468>
   2ffd8: 01 ff ff b0  	adrp	x1, 0x10000 <_ZNK23ChiFeature2HWmultiframe25ProcessHWMFBlendLoopStageEP24ChiFeature2RequestObjecthhh+0x45c>
   2ffdc: 23 ff ff b0  	adrp	x3, 0x14000 <_ZNK23ChiFeature2HWmultiframe25ProcessHWMFBlendLoopStageEP24ChiFeature2RequestObjecthhh+0x470>
   2ffe0: 05 ff ff f0  	adrp	x5, 0x12000 <_ZNK23ChiFeature2HWmultiframe25ProcessHWMFBlendLoopStageEP24ChiFeature2RequestObjecthhh+0x46c>
   30000: 28 60 00 94  	bl	0x480a0 <_ZN6ChiLog9LogSystemEPKcS1_S1_S1_iS1_z@plt>
   30014: a1 12 00 54  	b.ne	0x30268 <_ZNK23ChiFeature2HWmultiframe25ProcessHWMFBlendLoopStageEP24ChiFeature2RequestObjecthhh+0x768>
   30020: 21 13 00 54  	b.ne	0x30284 <_ZNK23ChiFeature2HWmultiframe25ProcessHWMFBlendLoopStageEP24ChiFeature2RequestObjecthhh+0x784>
   3002c: 25 60 00 94  	bl	0x480c0 <_ZNK15ChiFeature2Base21GetFeaturePrivContextEP24ChiFeature2RequestObject@plt>
   30034: 40 16 00 b4  	cbz	x0, 0x302fc <_ZNK23ChiFeature2HWmultiframe25ProcessHWMFBlendLoopStageEP24ChiFeature2RequestObjecthhh+0x7fc>
   30040: e2 15 00 54  	b.hs	0x302fc <_ZNK23ChiFeature2HWmultiframe25ProcessHWMFBlendLoopStageEP24ChiFeature2RequestObjecthhh+0x7fc>
   3004c: 82 15 00 54  	b.hs	0x302fc <_ZNK23ChiFeature2HWmultiframe25ProcessHWMFBlendLoopStageEP24ChiFeature2RequestObjecthhh+0x7fc>
   30094: 8b 60 00 94  	bl	0x482c0 <_ZN15ExtensionModule11GetInstanceEv@plt>
   300a4: c1 12 00 54  	b.ne	0x302fc <_ZNK23ChiFeature2HWmultiframe25ProcessHWMFBlendLoopStageEP24ChiFeature2RequestObjecthhh+0x7fc>
   300bc: 01 0f 00 54  	b.ne	0x3029c <_ZNK23ChiFeature2HWmultiframe25ProcessHWMFBlendLoopStageEP24ChiFeature2RequestObjecthhh+0x79c>
   300dc: 6f 06 00 37  	tbnz	w15, #0, 0x301a8 <_ZNK23ChiFeature2HWmultiframe25ProcessHWMFBlendLoopStageEP24ChiFeature2RequestObjecthhh+0x6a8>
   300e8: 34 00 00 14  	b	0x301b8 <_ZNK23ChiFeature2HWmultiframe25ProcessHWMFBlendLoopStageEP24ChiFeature2RequestObjecthhh+0x6b8>
   300f0: 03 20 00 36  	tbz	w3, #0, 0x304f0 <_ZNK23ChiFeature2HWmultiframe25ProcessHWMFBlendLoopStageEP24ChiFeature2RequestObjecthhh+0x9f0>
   300f4: e6 00 00 b0  	adrp	x6, 0x4d000 <_ZNK23ChiFeature2HWmultiframe25ProcessHWMFBlendLoopStageEP24ChiFeature2RequestObjecthhh+0x668>
   30104: 81 02 00 54  	b.ne	0x30154 <_ZNK23ChiFeature2HWmultiframe25ProcessHWMFBlendLoopStageEP24ChiFeature2RequestObjecthhh+0x654>
   30108: fa fe ff d0  	adrp	x26, 0xe000 <_ZNK23ChiFeature2HWmultiframe25ProcessHWMFBlendLoopStageEP24ChiFeature2RequestObjecthhh+0x580>
   30124: 21 ff ff 90  	adrp	x1, 0x14000 <_ZNK23ChiFeature2HWmultiframe25ProcessHWMFBlendLoopStageEP24ChiFeature2RequestObjecthhh+0x5b4>
   30128: e2 fe ff b0  	adrp	x2, 0xd000 <_ZNK23ChiFeature2HWmultiframe25ProcessHWMFBlendLoopStageEP24ChiFeature2RequestObjecthhh+0x59c>
   3012c: 25 ff ff 90  	adrp	x5, 0x14000 <_ZNK23ChiFeature2HWmultiframe25ProcessHWMFBlendLoopStageEP24ChiFeature2RequestObjecthhh+0x5bc>
   30154: fc fe ff d0  	adrp	x28, 0xe000 <_ZNK23ChiFeature2HWmultiframe25ProcessHWMFBlendLoopStageEP24ChiFeature2RequestObjecthhh+0x5cc>
   30170: 01 ff ff f0  	adrp	x1, 0x13000 <_ZNK23ChiFeature2HWmultiframe25ProcessHWMFBlendLoopStageEP24ChiFeature2RequestObjecthhh+0x5fc>
   30178: e0 fe ff b0  	adrp	x0, 0xd000 <_ZNK23ChiFeature2HWmultiframe25ProcessHWMFBlendLoopStageEP24ChiFeature2RequestObjecthhh+0x5ec>
   3017c: 23 ff ff 90  	adrp	x3, 0x14000 <_ZNK23ChiFeature2HWmultiframe25ProcessHWMFBlendLoopStageEP24ChiFeature2RequestObjecthhh+0x60c>
   30180: e5 fe ff b0  	adrp	x5, 0xd000 <_ZNK23ChiFeature2HWmultiframe25ProcessHWMFBlendLoopStageEP24ChiFeature2RequestObjecthhh+0x5f4>
   301a0: c0 5f 00 94  	bl	0x480a0 <_ZN6ChiLog9LogSystemEPKcS1_S1_S1_iS1_z@plt>
   301a4: d3 00 00 14  	b	0x304f0 <_ZNK23ChiFeature2HWmultiframe25ProcessHWMFBlendLoopStageEP24ChiFeature2RequestObjecthhh+0x9f0>
   301c4: e3 60 00 94  	bl	0x48550 <_ZNK15ChiFeature2Base19DumpInputMetaBufferEP29ChiFeature2BufferMetadataInfoPKcj@plt>
   301d4: 41 07 00 54  	b.ne	0x302bc <_ZNK23ChiFeature2HWmultiframe25ProcessHWMFBlendLoopStageEP24ChiFeature2RequestObjecthhh+0x7bc>
   301dc: f0 07 00 37  	tbnz	w16, #0, 0x302d8 <_ZNK23ChiFeature2HWmultiframe25ProcessHWMFBlendLoopStageEP24ChiFeature2RequestObjecthhh+0x7d8>
   301ec: 3f 00 00 14  	b	0x302e8 <_ZNK23ChiFeature2HWmultiframe25ProcessHWMFBlendLoopStageEP24ChiFeature2RequestObjecthhh+0x7e8>
   30204: 66 fe ff 17  	b	0x2fb9c <_ZNK23ChiFeature2HWmultiframe25ProcessHWMFBlendLoopStageEP24ChiFeature2RequestObjecthhh+0x9c>
   3021c: 9d fe ff 17  	b	0x2fc90 <_ZNK23ChiFeature2HWmultiframe25ProcessHWMFBlendLoopStageEP24ChiFeature2RequestObjecthhh+0x190>
   30234: d7 fe ff 17  	b	0x2fd90 <_ZNK23ChiFeature2HWmultiframe25ProcessHWMFBlendLoopStageEP24ChiFeature2RequestObjecthhh+0x290>
   3024c: e0 fe ff 17  	b	0x2fdcc <_ZNK23ChiFeature2HWmultiframe25ProcessHWMFBlendLoopStageEP24ChiFeature2RequestObjecthhh+0x2cc>
   30264: 2b ff ff 17  	b	0x2ff10 <_ZNK23ChiFeature2HWmultiframe25ProcessHWMFBlendLoopStageEP24ChiFeature2RequestObjecthhh+0x410>
   30280: 66 ff ff 17  	b	0x30018 <_ZNK23ChiFeature2HWmultiframe25ProcessHWMFBlendLoopStageEP24ChiFeature2RequestObjecthhh+0x518>
   30298: 63 ff ff 17  	b	0x30024 <_ZNK23ChiFeature2HWmultiframe25ProcessHWMFBlendLoopStageEP24ChiFeature2RequestObjecthhh+0x524>
   302b8: 82 ff ff 17  	b	0x300c0 <_ZNK23ChiFeature2HWmultiframe25ProcessHWMFBlendLoopStageEP24ChiFeature2RequestObjecthhh+0x5c0>
   302d4: 70 f8 07 36  	tbz	w16, #0, 0x301e0 <_ZNK23ChiFeature2HWmultiframe25ProcessHWMFBlendLoopStageEP24ChiFeature2RequestObjecthhh+0x6e0>
   302f8: 8a 60 00 94  	bl	0x48520 <_ZNK15ChiFeature2Base20DumpInputImageBufferEP29ChiFeature2BufferMetadataInfoPKcj@plt>
   30304: b1 06 18 36  	tbz	w17, #3, 0x303d8 <_ZNK23ChiFeature2HWmultiframe25ProcessHWMFBlendLoopStageEP24ChiFeature2RequestObjecthhh+0x8d8>
   30308: e0 00 00 b0  	adrp	x0, 0x4d000 <_ZNK23ChiFeature2HWmultiframe25ProcessHWMFBlendLoopStageEP24ChiFeature2RequestObjecthhh+0x87c>
   30318: 41 03 00 54  	b.ne	0x30380 <_ZNK23ChiFeature2HWmultiframe25ProcessHWMFBlendLoopStageEP24ChiFeature2RequestObjecthhh+0x880>
   30324: fb fe ff d0  	adrp	x27, 0xe000 <_ZNK23ChiFeature2HWmultiframe25ProcessHWMFBlendLoopStageEP24ChiFeature2RequestObjecthhh+0x79c>
   30340: 21 ff ff 90  	adrp	x1, 0x14000 <_ZNK23ChiFeature2HWmultiframe25ProcessHWMFBlendLoopStageEP24ChiFeature2RequestObjecthhh+0x7d0>
   30344: c2 fe ff f0  	adrp	x2, 0xb000 <_ZNK23ChiFeature2HWmultiframe25ProcessHWMFBlendLoopStageEP24ChiFeature2RequestObjecthhh+0x7b0>
   30348: 25 ff ff 90  	adrp	x5, 0x14000 <_ZNK23ChiFeature2HWmultiframe25ProcessHWMFBlendLoopStageEP24ChiFeature2RequestObjecthhh+0x7d8>
   30380: fa fe ff d0  	adrp	x26, 0xe000 <_ZNK23ChiFeature2HWmultiframe25ProcessHWMFBlendLoopStageEP24ChiFeature2RequestObjecthhh+0x7f8>
   3039c: 01 ff ff 90  	adrp	x1, 0x10000 <_ZNK23ChiFeature2HWmultiframe25ProcessHWMFBlendLoopStageEP24ChiFeature2RequestObjecthhh+0x81c>
   303a4: 20 ff ff 90  	adrp	x0, 0x14000 <_ZNK23ChiFeature2HWmultiframe25ProcessHWMFBlendLoopStageEP24ChiFeature2RequestObjecthhh+0x834>
   303a8: 23 ff ff 90  	adrp	x3, 0x14000 <_ZNK23ChiFeature2HWmultiframe25ProcessHWMFBlendLoopStageEP24ChiFeature2RequestObjecthhh+0x838>
   303ac: 05 ff ff 90  	adrp	x5, 0x10000 <_ZNK23ChiFeature2HWmultiframe25ProcessHWMFBlendLoopStageEP24ChiFeature2RequestObjecthhh+0x82c>
   303d4: 33 5f 00 94  	bl	0x480a0 <_ZN6ChiLog9LogSystemEPKcS1_S1_S1_iS1_z@plt>
   303e8: e1 5a 00 54  	b.ne	0x30f44 <_ZNK23ChiFeature2HWmultiframe25ProcessHWMFBlendLoopStageEP24ChiFeature2RequestObjecthhh+0x1444>
   303f8: b6 07 00 94  	bl	0x322d0 <_ZNK23ChiFeature2HWmultiframe26FetchSpecificInputPortDataEj28ChiFeature2PortDirectionType19ChiFeature2PortTypeP21ChiFeature2Identifier+0x378>
   30400: a0 01 00 35  	cbnz	w0, 0x30434 <_ZNK23ChiFeature2HWmultiframe25ProcessHWMFBlendLoopStageEP24ChiFeature2RequestObjecthhh+0x934>
   30410: 61 5a 00 54  	b.ne	0x30f5c <_ZNK23ChiFeature2HWmultiframe25ProcessHWMFBlendLoopStageEP24ChiFeature2RequestObjecthhh+0x145c>
   30420: 84 f1 ff 97  	bl	0x2ca30 <_ZNK23ChiFeature2HWmultiframe25IsRDIRequiredInPostFilterEPKN15ChiFeature2Base22ChiFeaturePipelineDataEi+0xca8>
   30424: f8 00 00 b0  	adrp	x24, 0x4d000 <_ZNK23ChiFeature2HWmultiframe25ProcessHWMFBlendLoopStageEP24ChiFeature2RequestObjecthhh+0x998>
   30430: a0 07 00 34  	cbz	w0, 0x30524 <_ZNK23ChiFeature2HWmultiframe25ProcessHWMFBlendLoopStageEP24ChiFeature2RequestObjecthhh+0xa24>
   30438: c2 05 00 36  	tbz	w2, #0, 0x304f0 <_ZNK23ChiFeature2HWmultiframe25ProcessHWMFBlendLoopStageEP24ChiFeature2RequestObjecthhh+0x9f0>
   3043c: e5 00 00 b0  	adrp	x5, 0x4d000 <_ZNK23ChiFeature2HWmultiframe25ProcessHWMFBlendLoopStageEP24ChiFeature2RequestObjecthhh+0x9b0>
   3044c: 81 02 00 54  	b.ne	0x3049c <_ZNK23ChiFeature2HWmultiframe25ProcessHWMFBlendLoopStageEP24ChiFeature2RequestObjecthhh+0x99c>
   30450: f7 fe ff d0  	adrp	x23, 0xe000 <_ZNK23ChiFeature2HWmultiframe25ProcessHWMFBlendLoopStageEP24ChiFeature2RequestObjecthhh+0x8c8>
   3046c: 21 ff ff 90  	adrp	x1, 0x14000 <_ZNK23ChiFeature2HWmultiframe25ProcessHWMFBlendLoopStageEP24ChiFeature2RequestObjecthhh+0x8fc>
   30470: 02 ff ff 90  	adrp	x2, 0x10000 <_ZNK23ChiFeature2HWmultiframe25ProcessHWMFBlendLoopStageEP24ChiFeature2RequestObjecthhh+0x8f0>
   30474: 25 ff ff 90  	adrp	x5, 0x14000 <_ZNK23ChiFeature2HWmultiframe25ProcessHWMFBlendLoopStageEP24ChiFeature2RequestObjecthhh+0x904>
   3049c: fb fe ff d0  	adrp	x27, 0xe000 <_ZNK23ChiFeature2HWmultiframe25ProcessHWMFBlendLoopStageEP24ChiFeature2RequestObjecthhh+0x914>
   304b8: 01 ff ff f0  	adrp	x1, 0x13000 <_ZNK23ChiFeature2HWmultiframe25ProcessHWMFBlendLoopStageEP24ChiFeature2RequestObjecthhh+0x944>
   304c0: e0 fe ff b0  	adrp	x0, 0xd000 <_ZNK23ChiFeature2HWmultiframe25ProcessHWMFBlendLoopStageEP24ChiFeature2RequestObjecthhh+0x934>
   304c4: 23 ff ff 90  	adrp	x3, 0x14000 <_ZNK23ChiFeature2HWmultiframe25ProcessHWMFBlendLoopStageEP24ChiFeature2RequestObjecthhh+0x954>
   304c8: e5 fe ff 90  	adrp	x5, 0xc000 <_ZNK23ChiFeature2HWmultiframe25ProcessHWMFBlendLoopStageEP24ChiFeature2RequestObjecthhh+0x938>
   304e8: ee 5e 00 94  	bl	0x480a0 <_ZN6ChiLog9LogSystemEPKcS1_S1_S1_iS1_z@plt>
   304fc: 21 60 00 54  	b.ne	0x31100 <_ZNK23ChiFeature2HWmultiframe25ProcessHWMFBlendLoopStageEP24ChiFeature2RequestObjecthhh+0x1600>
   30530: 21 52 00 54  	b.ne	0x30f74 <_ZNK23ChiFeature2HWmultiframe25ProcessHWMFBlendLoopStageEP24ChiFeature2RequestObjecthhh+0x1474>
   30540: 81 52 00 54  	b.ne	0x30f90 <_ZNK23ChiFeature2HWmultiframe25ProcessHWMFBlendLoopStageEP24ChiFeature2RequestObjecthhh+0x1490>
   3054c: dd 5e 00 94  	bl	0x480c0 <_ZNK15ChiFeature2Base21GetFeaturePrivContextEP24ChiFeature2RequestObject@plt>
   30550: 80 03 00 b4  	cbz	x0, 0x305c0 <_ZNK23ChiFeature2HWmultiframe25ProcessHWMFBlendLoopStageEP24ChiFeature2RequestObjecthhh+0xac0>
   3055c: 22 03 00 54  	b.hs	0x305c0 <_ZNK23ChiFeature2HWmultiframe25ProcessHWMFBlendLoopStageEP24ChiFeature2RequestObjecthhh+0xac0>
   30574: e0 00 00 b0  	adrp	x0, 0x4d000 <_ZNK23ChiFeature2HWmultiframe25ProcessHWMFBlendLoopStageEP24ChiFeature2RequestObjecthhh+0xae8>
   3058c: 61 55 00 54  	b.ne	0x31038 <_ZNK23ChiFeature2HWmultiframe25ProcessHWMFBlendLoopStageEP24ChiFeature2RequestObjecthhh+0x1538>
   30594: 09 56 00 b4  	cbz	x9, 0x31054 <_ZNK23ChiFeature2HWmultiframe25ProcessHWMFBlendLoopStageEP24ChiFeature2RequestObjecthhh+0x1554>
   305a0: a0 55 00 54  	b.eq	0x31054 <_ZNK23ChiFeature2HWmultiframe25ProcessHWMFBlendLoopStageEP24ChiFeature2RequestObjecthhh+0x1554>
   305bc: 03 00 00 14  	b	0x305c8 <_ZNK23ChiFeature2HWmultiframe25ProcessHWMFBlendLoopStageEP24ChiFeature2RequestObjecthhh+0xac8>
   305cc: fb 00 00 b0  	adrp	x27, 0x4d000 <_ZNK23ChiFeature2HWmultiframe25ProcessHWMFBlendLoopStageEP24ChiFeature2RequestObjecthhh+0xb40>
   305e8: 01 4e 00 54  	b.ne	0x30fa8 <_ZNK23ChiFeature2HWmultiframe25ProcessHWMFBlendLoopStageEP24ChiFeature2RequestObjecthhh+0x14a8>
   30604: eb 5f 00 94  	bl	0x485b0 <_ZNK23ChiFeature2HWmultiframe16SelectInputPortsEP21ChiFeature2PortIdListP24ChiFeature2RequestObject@plt>
   30634: 61 4c 00 54  	b.ne	0x30fc0 <_ZNK23ChiFeature2HWmultiframe25ProcessHWMFBlendLoopStageEP24ChiFeature2RequestObjecthhh+0x14c0>
   30648: c6 5f 00 94  	bl	0x48560 <_ZNK15ChiFeature2Base25PopulatePortConfigurationEP24ChiFeature2RequestObjectPK21ChiFeature2PortIdListS4_@plt>
   3064c: 33 01 00 34  	cbz	w19, 0x30670 <_ZNK23ChiFeature2HWmultiframe25ProcessHWMFBlendLoopStageEP24ChiFeature2RequestObjecthhh+0xb70>
   30660: e1 00 00 54  	b.ne	0x3067c <_ZNK23ChiFeature2HWmultiframe25ProcessHWMFBlendLoopStageEP24ChiFeature2RequestObjecthhh+0xb7c>
   30668: e2 00 00 54  	b.hs	0x30684 <_ZNK23ChiFeature2HWmultiframe25ProcessHWMFBlendLoopStageEP24ChiFeature2RequestObjecthhh+0xb84>
   3066c: a7 02 00 14  	b	0x31108 <_ZNK23ChiFeature2HWmultiframe25ProcessHWMFBlendLoopStageEP24ChiFeature2RequestObjecthhh+0x1608>
   30678: 70 00 00 14  	b	0x30838 <_ZNK23ChiFeature2HWmultiframe25ProcessHWMFBlendLoopStageEP24ChiFeature2RequestObjecthhh+0xd38>
   30680: 43 54 00 54  	b.lo	0x31108 <_ZNK23ChiFeature2HWmultiframe25ProcessHWMFBlendLoopStageEP24ChiFeature2RequestObjecthhh+0x1608>
   30688: 9b 00 00 34  	cbz	w27, 0x30698 <_ZNK23ChiFeature2HWmultiframe25ProcessHWMFBlendLoopStageEP24ChiFeature2RequestObjecthhh+0xb98>
   30694: 0e 00 00 14  	b	0x306cc <_ZNK23ChiFeature2HWmultiframe25ProcessHWMFBlendLoopStageEP24ChiFeature2RequestObjecthhh+0xbcc>
   306a0: 68 53 00 54  	b.hi	0x3110c <_ZNK23ChiFeature2HWmultiframe25ProcessHWMFBlendLoopStageEP24ChiFeature2RequestObjecthhh+0x160c>
   306e4: fb 00 00 b0  	adrp	x27, 0x4d000 <_ZNK23ChiFeature2HWmultiframe25ProcessHWMFBlendLoopStageEP24ChiFeature2RequestObjecthhh+0xc58>
   306f0: a0 5f 00 94  	bl	0x48570 <_ZN24ChiFeature2RequestObject13SetBufferInfoE31ChiFeature2RequestObjectOpsTypePK21ChiFeature2IdentifierPvmihh@plt>
   30714: 97 5f 00 94  	bl	0x48570 <_ZN24ChiFeature2RequestObject13SetBufferInfoE31ChiFeature2RequestObjectOpsTypePK21ChiFeature2IdentifierPvmihh@plt>
   3071c: ef 00 00 b0  	adrp	x15, 0x4d000 <_ZNK23ChiFeature2HWmultiframe25ProcessHWMFBlendLoopStageEP24ChiFeature2RequestObjecthhh+0xc90>
   30738: e8 06 18 36  	tbz	w8, #3, 0x30814 <_ZNK23ChiFeature2HWmultiframe25ProcessHWMFBlendLoopStageEP24ChiFeature2RequestObjecthhh+0xd14>
   3073c: ec 00 00 b0  	adrp	x12, 0x4d000 <_ZNK23ChiFeature2HWmultiframe25ProcessHWMFBlendLoopStageEP24ChiFeature2RequestObjecthhh+0xcb0>
   3074c: 01 03 00 54  	b.ne	0x307ac <_ZNK23ChiFeature2HWmultiframe25ProcessHWMFBlendLoopStageEP24ChiFeature2RequestObjecthhh+0xcac>
   30750: fb fe ff d0  	adrp	x27, 0xe000 <_ZNK23ChiFeature2HWmultiframe25ProcessHWMFBlendLoopStageEP24ChiFeature2RequestObjecthhh+0xbc8>
   3076c: 21 ff ff 90  	adrp	x1, 0x14000 <_ZNK23ChiFeature2HWmultiframe25ProcessHWMFBlendLoopStageEP24ChiFeature2RequestObjecthhh+0xbfc>
   30770: 02 ff ff 90  	adrp	x2, 0x10000 <_ZNK23ChiFeature2HWmultiframe25ProcessHWMFBlendLoopStageEP24ChiFeature2RequestObjecthhh+0xbf0>
   30774: 25 ff ff 90  	adrp	x5, 0x14000 <_ZNK23ChiFeature2HWmultiframe25ProcessHWMFBlendLoopStageEP24ChiFeature2RequestObjecthhh+0xc04>
   307ac: fa fe ff d0  	adrp	x26, 0xe000 <_ZNK23ChiFeature2HWmultiframe25ProcessHWMFBlendLoopStageEP24ChiFeature2RequestObjecthhh+0xc24>
   307d0: 20 ff ff 90  	adrp	x0, 0x14000 <_ZNK23ChiFeature2HWmultiframe25ProcessHWMFBlendLoopStageEP24ChiFeature2RequestObjecthhh+0xc60>
   307d4: 01 ff ff 90  	adrp	x1, 0x10000 <_ZNK23ChiFeature2HWmultiframe25ProcessHWMFBlendLoopStageEP24ChiFeature2RequestObjecthhh+0xc54>
   307d8: 23 ff ff 90  	adrp	x3, 0x14000 <_ZNK23ChiFeature2HWmultiframe25ProcessHWMFBlendLoopStageEP24ChiFeature2RequestObjecthhh+0xc68>
   307dc: e5 fe ff 90  	adrp	x5, 0xc000 <_ZNK23ChiFeature2HWmultiframe25ProcessHWMFBlendLoopStageEP24ChiFeature2RequestObjecthhh+0xc4c>
   30808: 26 5e 00 94  	bl	0x480a0 <_ZN6ChiLog9LogSystemEPKcS1_S1_S1_iS1_z@plt>
   3080c: fb 00 00 b0  	adrp	x27, 0x4d000 <_ZNK23ChiFeature2HWmultiframe25ProcessHWMFBlendLoopStageEP24ChiFeature2RequestObjecthhh+0xd80>
   30820: 81 3e 00 54  	b.ne	0x30ff0 <_ZNK23ChiFeature2HWmultiframe25ProcessHWMFBlendLoopStageEP24ChiFeature2RequestObjecthhh+0x14f0>
   3082c: 55 5f 00 94  	bl	0x48580 <_ZNK15ChiFeature2Base22SubmitRequestToSessionEP24ChiFeature2RequestObject@plt>
   30834: e0 13 00 35  	cbnz	w0, 0x30ab0 <_ZNK23ChiFeature2HWmultiframe25ProcessHWMFBlendLoopStageEP24ChiFeature2RequestObjecthhh+0xfb0>
   30840: 69 13 00 54  	b.ls	0x30aac <_ZNK23ChiFeature2HWmultiframe25ProcessHWMFBlendLoopStageEP24ChiFeature2RequestObjecthhh+0xfac>
   30850: c1 3d 00 54  	b.ne	0x31008 <_ZNK23ChiFeature2HWmultiframe25ProcessHWMFBlendLoopStageEP24ChiFeature2RequestObjecthhh+0x1508>
   3085c: 09 f2 ff 97  	bl	0x2d080 <_ZNK23ChiFeature2HWmultiframe22PrepareAllDependenciesEP24ChiFeature2RequestObject+0x448>
   30860: 80 2d 00 b4  	cbz	x0, 0x30e10 <_ZNK23ChiFeature2HWmultiframe25ProcessHWMFBlendLoopStageEP24ChiFeature2RequestObjecthhh+0x1310>
   30878: 41 41 00 54  	b.ne	0x310a0 <_ZNK23ChiFeature2HWmultiframe25ProcessHWMFBlendLoopStageEP24ChiFeature2RequestObjecthhh+0x15a0>
   3088c: 41 5f 00 94  	bl	0x48590 <_ZNK15ChiFeature2Base40GetNumDependencyListsFromStageDescriptorEPK26ChiFeature2StageDescriptorhh@plt>
   308a4: a1 40 00 54  	b.ne	0x310b8 <_ZNK23ChiFeature2HWmultiframe25ProcessHWMFBlendLoopStageEP24ChiFeature2RequestObjecthhh+0x15b8>
   308c0: 50 5e 00 94  	bl	0x48200 <_ZNK15ChiFeature2Base35SetNextStageInfoFromStageDescriptorEP24ChiFeature2RequestObjectPK26ChiFeature2StageDescriptorhh@plt>
   308c8: 80 2a 00 54  	b.eq	0x30e18 <_ZNK23ChiFeature2HWmultiframe25ProcessHWMFBlendLoopStageEP24ChiFeature2RequestObjecthhh+0x1318>
   308d0: e7 00 00 b0  	adrp	x7, 0x4d000 <_ZNK23ChiFeature2HWmultiframe25ProcessHWMFBlendLoopStageEP24ChiFeature2RequestObjecthhh+0xe44>
   308f8: 06 00 00 14  	b	0x30910 <_ZNK23ChiFeature2HWmultiframe25ProcessHWMFBlendLoopStageEP24ChiFeature2RequestObjecthhh+0xe10>
   3090c: 80 28 00 54  	b.eq	0x30e1c <_ZNK23ChiFeature2HWmultiframe25ProcessHWMFBlendLoopStageEP24ChiFeature2RequestObjecthhh+0x131c>
   30918: 61 0a 00 54  	b.ne	0x30a64 <_ZNK23ChiFeature2HWmultiframe25ProcessHWMFBlendLoopStageEP24ChiFeature2RequestObjecthhh+0xf64>
   30930: 38 5e 00 94  	bl	0x48210 <_ZNK15ChiFeature2Base36GetDependencyListFromStageDescriptorEPK26ChiFeature2StageDescriptorhhh@plt>
   30934: 40 fe ff b4  	cbz	x0, 0x308fc <_ZNK23ChiFeature2HWmultiframe25ProcessHWMFBlendLoopStageEP24ChiFeature2RequestObjecthhh+0xdfc>
   30940: 09 02 00 34  	cbz	w9, 0x30980 <_ZNK23ChiFeature2HWmultiframe25ProcessHWMFBlendLoopStageEP24ChiFeature2RequestObjecthhh+0xe80>
   30948: e9 00 00 b0  	adrp	x9, 0x4d000 <_ZNK23ChiFeature2HWmultiframe25ProcessHWMFBlendLoopStageEP24ChiFeature2RequestObjecthhh+0xebc>
   30958: 21 09 00 54  	b.ne	0x30a7c <_ZNK23ChiFeature2HWmultiframe25ProcessHWMFBlendLoopStageEP24ChiFeature2RequestObjecthhh+0xf7c>
   30974: 2b 5e 00 94  	bl	0x48220 <_ZNK15ChiFeature2Base23PopulateStageDependencyEP24ChiFeature2RequestObjecthPK26ChiFeature2InputDependencyh@plt>
   3097c: e1 ff ff 17  	b	0x30900 <_ZNK23ChiFeature2HWmultiframe25ProcessHWMFBlendLoopStageEP24ChiFeature2RequestObjecthhh+0xe00>
   3098c: 69 02 00 34  	cbz	w9, 0x309d8 <_ZNK23ChiFeature2HWmultiframe25ProcessHWMFBlendLoopStageEP24ChiFeature2RequestObjecthhh+0xed8>
   30998: 05 00 00 14  	b	0x309ac <_ZNK23ChiFeature2HWmultiframe25ProcessHWMFBlendLoopStageEP24ChiFeature2RequestObjecthhh+0xeac>
   309a8: 22 01 00 54  	b.hs	0x309cc <_ZNK23ChiFeature2HWmultiframe25ProcessHWMFBlendLoopStageEP24ChiFeature2RequestObjecthhh+0xecc>
   309b8: 2a ff ff 35  	cbnz	w10, 0x3099c <_ZNK23ChiFeature2HWmultiframe25ProcessHWMFBlendLoopStageEP24ChiFeature2RequestObjecthhh+0xe9c>
   309c0: 0a 08 00 94  	bl	0x329e8 <_ZNK23ChiFeature2HWmultiframe16SelectInputPortsEP21ChiFeature2PortIdListP24ChiFeature2RequestObject+0x5a8>
   309c8: f5 ff ff 17  	b	0x3099c <_ZNK23ChiFeature2HWmultiframe25ProcessHWMFBlendLoopStageEP24ChiFeature2RequestObjecthhh+0xe9c>
   309d4: 03 00 00 14  	b	0x309e0 <_ZNK23ChiFeature2HWmultiframe25ProcessHWMFBlendLoopStageEP24ChiFeature2RequestObjecthhh+0xee0>
   309f4: eb 00 00 b0  	adrp	x11, 0x4d000 <_ZNK23ChiFeature2HWmultiframe25ProcessHWMFBlendLoopStageEP24ChiFeature2RequestObjecthhh+0xf68>
   30a14: 01 04 00 54  	b.ne	0x30a94 <_ZNK23ChiFeature2HWmultiframe25ProcessHWMFBlendLoopStageEP24ChiFeature2RequestObjecthhh+0xf94>
   30a28: 0e 5e 00 94  	bl	0x48260 <_ZNK15ChiFeature2Base23PopulateDependencyPortsEP24ChiFeature2RequestObjecthPK26ChiFeature2InputDependency@plt>
   30a30: 80 f6 ff b4  	cbz	x0, 0x30900 <_ZNK23ChiFeature2HWmultiframe25ProcessHWMFBlendLoopStageEP24ChiFeature2RequestObjecthhh+0xe00>
   30a58: 6a 35 00 b5  	cbnz	x10, 0x31104 <_ZNK23ChiFeature2HWmultiframe25ProcessHWMFBlendLoopStageEP24ChiFeature2RequestObjecthhh+0x1604>
   30a60: a8 ff ff 17  	b	0x30900 <_ZNK23ChiFeature2HWmultiframe25ProcessHWMFBlendLoopStageEP24ChiFeature2RequestObjecthhh+0xe00>
   30a78: a9 ff ff 17  	b	0x3091c <_ZNK23ChiFeature2HWmultiframe25ProcessHWMFBlendLoopStageEP24ChiFeature2RequestObjecthhh+0xe1c>
   30a90: b3 ff ff 17  	b	0x3095c <_ZNK23ChiFeature2HWmultiframe25ProcessHWMFBlendLoopStageEP24ChiFeature2RequestObjecthhh+0xe5c>
   30aa8: dc ff ff 17  	b	0x30a18 <_ZNK23ChiFeature2HWmultiframe25ProcessHWMFBlendLoopStageEP24ChiFeature2RequestObjecthhh+0xf18>
   30abc: e1 28 00 54  	b.ne	0x30fd8 <_ZNK23ChiFeature2HWmultiframe25ProcessHWMFBlendLoopStageEP24ChiFeature2RequestObjecthhh+0x14d8>
   30ad8: a9 21 00 54  	b.ls	0x30f0c <_ZNK23ChiFeature2HWmultiframe25ProcessHWMFBlendLoopStageEP24ChiFeature2RequestObjecthhh+0x140c>
   30aec: a1 29 00 54  	b.ne	0x31020 <_ZNK23ChiFeature2HWmultiframe25ProcessHWMFBlendLoopStageEP24ChiFeature2RequestObjecthhh+0x1520>
   30af8: 62 f1 ff 97  	bl	0x2d080 <_ZNK23ChiFeature2HWmultiframe22PrepareAllDependenciesEP24ChiFeature2RequestObject+0x448>
   30afc: 80 20 00 b4  	cbz	x0, 0x30f0c <_ZNK23ChiFeature2HWmultiframe25ProcessHWMFBlendLoopStageEP24ChiFeature2RequestObjecthhh+0x140c>
   30b10: 01 2e 00 54  	b.ne	0x310d0 <_ZNK23ChiFeature2HWmultiframe25ProcessHWMFBlendLoopStageEP24ChiFeature2RequestObjecthhh+0x15d0>
   30b24: 9b 5e 00 94  	bl	0x48590 <_ZNK15ChiFeature2Base40GetNumDependencyListsFromStageDescriptorEPK26ChiFeature2StageDescriptorhh@plt>
   30b28: 33 1f 00 34  	cbz	w19, 0x30f0c <_ZNK23ChiFeature2HWmultiframe25ProcessHWMFBlendLoopStageEP24ChiFeature2RequestObjecthhh+0x140c>
   30b48: 01 2d 00 54  	b.ne	0x310e8 <_ZNK23ChiFeature2HWmultiframe25ProcessHWMFBlendLoopStageEP24ChiFeature2RequestObjecthhh+0x15e8>
   30b60: a8 5d 00 94  	bl	0x48200 <_ZNK15ChiFeature2Base35SetNextStageInfoFromStageDescriptorEP24ChiFeature2RequestObjectPK26ChiFeature2StageDescriptorhh@plt>
   30b68: 20 16 00 54  	b.eq	0x30e2c <_ZNK23ChiFeature2HWmultiframe25ProcessHWMFBlendLoopStageEP24ChiFeature2RequestObjecthhh+0x132c>
   30b8c: 1b 00 00 14  	b	0x30bf8 <_ZNK23ChiFeature2HWmultiframe25ProcessHWMFBlendLoopStageEP24ChiFeature2RequestObjecthhh+0x10f8>
   30b90: f3 fe ff d0  	adrp	x19, 0xe000 <_ZNK23ChiFeature2HWmultiframe25ProcessHWMFBlendLoopStageEP24ChiFeature2RequestObjecthhh+0x1008>
   30bac: 01 ff ff 90  	adrp	x1, 0x10000 <_ZNK23ChiFeature2HWmultiframe25ProcessHWMFBlendLoopStageEP24ChiFeature2RequestObjecthhh+0x102c>
   30bb4: 20 ff ff 90  	adrp	x0, 0x14000 <_ZNK23ChiFeature2HWmultiframe25ProcessHWMFBlendLoopStageEP24ChiFeature2RequestObjecthhh+0x1044>
   30bb8: 23 ff ff 90  	adrp	x3, 0x14000 <_ZNK23ChiFeature2HWmultiframe25ProcessHWMFBlendLoopStageEP24ChiFeature2RequestObjecthhh+0x1048>
   30bbc: 25 ff ff 90  	adrp	x5, 0x14000 <_ZNK23ChiFeature2HWmultiframe25ProcessHWMFBlendLoopStageEP24ChiFeature2RequestObjecthhh+0x104c>
   30be4: 2f 5d 00 94  	bl	0x480a0 <_ZN6ChiLog9LogSystemEPKcS1_S1_S1_iS1_z@plt>
   30bf4: c0 11 00 54  	b.eq	0x30e2c <_ZNK23ChiFeature2HWmultiframe25ProcessHWMFBlendLoopStageEP24ChiFeature2RequestObjecthhh+0x132c>
   30c00: 41 0e 00 54  	b.ne	0x30dc8 <_ZNK23ChiFeature2HWmultiframe25ProcessHWMFBlendLoopStageEP24ChiFeature2RequestObjecthhh+0x12c8>
   30c18: 7e 5d 00 94  	bl	0x48210 <_ZNK15ChiFeature2Base36GetDependencyListFromStageDescriptorEPK26ChiFeature2StageDescriptorhhh@plt>
   30c1c: 80 09 00 b4  	cbz	x0, 0x30d4c <_ZNK23ChiFeature2HWmultiframe25ProcessHWMFBlendLoopStageEP24ChiFeature2RequestObjecthhh+0x124c>
   30c28: 2e 02 00 34  	cbz	w14, 0x30c6c <_ZNK23ChiFeature2HWmultiframe25ProcessHWMFBlendLoopStageEP24ChiFeature2RequestObjecthhh+0x116c>
   30c30: e8 00 00 b0  	adrp	x8, 0x4d000 <_ZNK23ChiFeature2HWmultiframe25ProcessHWMFBlendLoopStageEP24ChiFeature2RequestObjecthhh+0x11a4>
   30c40: 01 0d 00 54  	b.ne	0x30de0 <_ZNK23ChiFeature2HWmultiframe25ProcessHWMFBlendLoopStageEP24ChiFeature2RequestObjecthhh+0x12e0>
   30c50: c3 25 00 54  	b.lo	0x31108 <_ZNK23ChiFeature2HWmultiframe25ProcessHWMFBlendLoopStageEP24ChiFeature2RequestObjecthhh+0x1608>
   30c64: 6f 5d 00 94  	bl	0x48220 <_ZNK15ChiFeature2Base23PopulateStageDependencyEP24ChiFeature2RequestObjecthPK26ChiFeature2InputDependencyh@plt>
   30c68: 39 00 00 14  	b	0x30d4c <_ZNK23ChiFeature2HWmultiframe25ProcessHWMFBlendLoopStageEP24ChiFeature2RequestObjecthhh+0x124c>
   30c78: 68 02 00 34  	cbz	w8, 0x30cc4 <_ZNK23ChiFeature2HWmultiframe25ProcessHWMFBlendLoopStageEP24ChiFeature2RequestObjecthhh+0x11c4>
   30c84: 05 00 00 14  	b	0x30c98 <_ZNK23ChiFeature2HWmultiframe25ProcessHWMFBlendLoopStageEP24ChiFeature2RequestObjecthhh+0x1198>
   30c94: 22 01 00 54  	b.hs	0x30cb8 <_ZNK23ChiFeature2HWmultiframe25ProcessHWMFBlendLoopStageEP24ChiFeature2RequestObjecthhh+0x11b8>
   30ca4: 30 ff ff 35  	cbnz	w16, 0x30c88 <_ZNK23ChiFeature2HWmultiframe25ProcessHWMFBlendLoopStageEP24ChiFeature2RequestObjecthhh+0x1188>
   30cac: 4f 07 00 94  	bl	0x329e8 <_ZNK23ChiFeature2HWmultiframe16SelectInputPortsEP21ChiFeature2PortIdListP24ChiFeature2RequestObject+0x5a8>
   30cb4: f5 ff ff 17  	b	0x30c88 <_ZNK23ChiFeature2HWmultiframe25ProcessHWMFBlendLoopStageEP24ChiFeature2RequestObjecthhh+0x1188>
   30cc0: 03 00 00 14  	b	0x30ccc <_ZNK23ChiFeature2HWmultiframe25ProcessHWMFBlendLoopStageEP24ChiFeature2RequestObjecthhh+0x11cc>
   30ce0: ea 00 00 b0  	adrp	x10, 0x4d000 <_ZNK23ChiFeature2HWmultiframe25ProcessHWMFBlendLoopStageEP24ChiFeature2RequestObjecthhh+0x1254>
   30cfc: e1 07 00 54  	b.ne	0x30df8 <_ZNK23ChiFeature2HWmultiframe25ProcessHWMFBlendLoopStageEP24ChiFeature2RequestObjecthhh+0x12f8>
   30d10: 54 5d 00 94  	bl	0x48260 <_ZNK15ChiFeature2Base23PopulateDependencyPortsEP24ChiFeature2RequestObjecthPK26ChiFeature2InputDependency@plt>
   30d18: 80 01 00 b4  	cbz	x0, 0x30d48 <_ZNK23ChiFeature2HWmultiframe25ProcessHWMFBlendLoopStageEP24ChiFeature2RequestObjecthhh+0x1248>
   30d40: 3a 1e 00 b5  	cbnz	x26, 0x31104 <_ZNK23ChiFeature2HWmultiframe25ProcessHWMFBlendLoopStageEP24ChiFeature2RequestObjecthhh+0x1604>
   30d4c: ee 00 00 b0  	adrp	x14, 0x4d000 <_ZNK23ChiFeature2HWmultiframe25ProcessHWMFBlendLoopStageEP24ChiFeature2RequestObjecthhh+0x12c0>
   30d58: 91 f4 1f 36  	tbz	w17, #3, 0x30be8 <_ZNK23ChiFeature2HWmultiframe25ProcessHWMFBlendLoopStageEP24ChiFeature2RequestObjecthhh+0x10e8>
   30d5c: e1 00 00 b0  	adrp	x1, 0x4d000 <_ZNK23ChiFeature2HWmultiframe25ProcessHWMFBlendLoopStageEP24ChiFeature2RequestObjecthhh+0x12d0>
   30d6c: 21 f1 ff 54  	b.ne	0x30b90 <_ZNK23ChiFeature2HWmultiframe25ProcessHWMFBlendLoopStageEP24ChiFeature2RequestObjecthhh+0x1090>
   30d70: f3 fe ff d0  	adrp	x19, 0xe000 <_ZNK23ChiFeature2HWmultiframe25ProcessHWMFBlendLoopStageEP24ChiFeature2RequestObjecthhh+0x11e8>
   30d8c: 21 ff ff 90  	adrp	x1, 0x14000 <_ZNK23ChiFeature2HWmultiframe25ProcessHWMFBlendLoopStageEP24ChiFeature2RequestObjecthhh+0x121c>
   30d90: 22 ff ff 90  	adrp	x2, 0x14000 <_ZNK23ChiFeature2HWmultiframe25ProcessHWMFBlendLoopStageEP24ChiFeature2RequestObjecthhh+0x1220>
   30d94: 25 ff ff 90  	adrp	x5, 0x14000 <_ZNK23ChiFeature2HWmultiframe25ProcessHWMFBlendLoopStageEP24ChiFeature2RequestObjecthhh+0x1224>
   30dc4: 73 ff ff 17  	b	0x30b90 <_ZNK23ChiFeature2HWmultiframe25ProcessHWMFBlendLoopStageEP24ChiFeature2RequestObjecthhh+0x1090>
   30ddc: 8a ff ff 17  	b	0x30c04 <_ZNK23ChiFeature2HWmultiframe25ProcessHWMFBlendLoopStageEP24ChiFeature2RequestObjecthhh+0x1104>
   30df4: 94 ff ff 17  	b	0x30c44 <_ZNK23ChiFeature2HWmultiframe25ProcessHWMFBlendLoopStageEP24ChiFeature2RequestObjecthhh+0x1144>
   30e0c: bd ff ff 17  	b	0x30d00 <_ZNK23ChiFeature2HWmultiframe25ProcessHWMFBlendLoopStageEP24ChiFeature2RequestObjecthhh+0x1200>
   30e14: 3e 00 00 14  	b	0x30f0c <_ZNK23ChiFeature2HWmultiframe25ProcessHWMFBlendLoopStageEP24ChiFeature2RequestObjecthhh+0x140c>
   30e1c: f4 00 00 b0  	adrp	x20, 0x4d000 <_ZNK23ChiFeature2HWmultiframe25ProcessHWMFBlendLoopStageEP24ChiFeature2RequestObjecthhh+0x1390>
   30e28: 7c 00 18 37  	tbnz	w28, #3, 0x30e34 <_ZNK23ChiFeature2HWmultiframe25ProcessHWMFBlendLoopStageEP24ChiFeature2RequestObjecthhh+0x1334>
   30e30: 37 00 00 14  	b	0x30f0c <_ZNK23ChiFeature2HWmultiframe25ProcessHWMFBlendLoopStageEP24ChiFeature2RequestObjecthhh+0x140c>
   30e34: fc 00 00 b0  	adrp	x28, 0x4d000 <_ZNK23ChiFeature2HWmultiframe25ProcessHWMFBlendLoopStageEP24ChiFeature2RequestObjecthhh+0x13a8>
   30e4c: 01 03 00 54  	b.ne	0x30eac <_ZNK23ChiFeature2HWmultiframe25ProcessHWMFBlendLoopStageEP24ChiFeature2RequestObjecthhh+0x13ac>
   30e50: f4 fe ff d0  	adrp	x20, 0xe000 <_ZNK23ChiFeature2HWmultiframe25ProcessHWMFBlendLoopStageEP24ChiFeature2RequestObjecthhh+0x12c8>
   30e6c: 21 ff ff 90  	adrp	x1, 0x14000 <_ZNK23ChiFeature2HWmultiframe25ProcessHWMFBlendLoopStageEP24ChiFeature2RequestObjecthhh+0x12fc>
   30e70: c2 fe ff f0  	adrp	x2, 0xb000 <_ZNK23ChiFeature2HWmultiframe25ProcessHWMFBlendLoopStageEP24ChiFeature2RequestObjecthhh+0x12dc>
   30e74: 25 ff ff 90  	adrp	x5, 0x14000 <_ZNK23ChiFeature2HWmultiframe25ProcessHWMFBlendLoopStageEP24ChiFeature2RequestObjecthhh+0x1304>
   30eac: f4 fe ff d0  	adrp	x20, 0xe000 <_ZNK23ChiFeature2HWmultiframe25ProcessHWMFBlendLoopStageEP24ChiFeature2RequestObjecthhh+0x1324>
   30ed0: 20 ff ff 90  	adrp	x0, 0x14000 <_ZNK23ChiFeature2HWmultiframe25ProcessHWMFBlendLoopStageEP24ChiFeature2RequestObjecthhh+0x1360>
   30ed4: 01 ff ff 90  	adrp	x1, 0x10000 <_ZNK23ChiFeature2HWmultiframe25ProcessHWMFBlendLoopStageEP24ChiFeature2RequestObjecthhh+0x1354>
   30ed8: 23 ff ff 90  	adrp	x3, 0x14000 <_ZNK23ChiFeature2HWmultiframe25ProcessHWMFBlendLoopStageEP24ChiFeature2RequestObjecthhh+0x1368>
   30edc: 05 ff ff 90  	adrp	x5, 0x10000 <_ZNK23ChiFeature2HWmultiframe25ProcessHWMFBlendLoopStageEP24ChiFeature2RequestObjecthhh+0x135c>
   30f08: 66 5c 00 94  	bl	0x480a0 <_ZN6ChiLog9LogSystemEPKcS1_S1_S1_iS1_z@plt>
   30f10: 00 af ff b4  	cbz	x0, 0x304f0 <_ZNK23ChiFeature2HWmultiframe25ProcessHWMFBlendLoopStageEP24ChiFeature2RequestObjecthhh+0x9f0>
   30f38: 62 0e 00 b5  	cbnz	x2, 0x31104 <_ZNK23ChiFeature2HWmultiframe25ProcessHWMFBlendLoopStageEP24ChiFeature2RequestObjecthhh+0x1604>
   30f40: 6c fd ff 17  	b	0x304f0 <_ZNK23ChiFeature2HWmultiframe25ProcessHWMFBlendLoopStageEP24ChiFeature2RequestObjecthhh+0x9f0>
   30f58: 25 fd ff 17  	b	0x303ec <_ZNK23ChiFeature2HWmultiframe25ProcessHWMFBlendLoopStageEP24ChiFeature2RequestObjecthhh+0x8ec>
   30f70: 29 fd ff 17  	b	0x30414 <_ZNK23ChiFeature2HWmultiframe25ProcessHWMFBlendLoopStageEP24ChiFeature2RequestObjecthhh+0x914>
   30f8c: 6a fd ff 17  	b	0x30534 <_ZNK23ChiFeature2HWmultiframe25ProcessHWMFBlendLoopStageEP24ChiFeature2RequestObjecthhh+0xa34>
   30fa4: 68 fd ff 17  	b	0x30544 <_ZNK23ChiFeature2HWmultiframe25ProcessHWMFBlendLoopStageEP24ChiFeature2RequestObjecthhh+0xa44>
   30fbc: 8c fd ff 17  	b	0x305ec <_ZNK23ChiFeature2HWmultiframe25ProcessHWMFBlendLoopStageEP24ChiFeature2RequestObjecthhh+0xaec>
   30fd4: 99 fd ff 17  	b	0x30638 <_ZNK23ChiFeature2HWmultiframe25ProcessHWMFBlendLoopStageEP24ChiFeature2RequestObjecthhh+0xb38>
   30fec: b5 fe ff 17  	b	0x30ac0 <_ZNK23ChiFeature2HWmultiframe25ProcessHWMFBlendLoopStageEP24ChiFeature2RequestObjecthhh+0xfc0>
   31004: 08 fe ff 17  	b	0x30824 <_ZNK23ChiFeature2HWmultiframe25ProcessHWMFBlendLoopStageEP24ChiFeature2RequestObjecthhh+0xd24>
   3101c: 0e fe ff 17  	b	0x30854 <_ZNK23ChiFeature2HWmultiframe25ProcessHWMFBlendLoopStageEP24ChiFeature2RequestObjecthhh+0xd54>
   31034: af fe ff 17  	b	0x30af0 <_ZNK23ChiFeature2HWmultiframe25ProcessHWMFBlendLoopStageEP24ChiFeature2RequestObjecthhh+0xff0>
   31050: 49 aa ff b5  	cbnz	x9, 0x30598 <_ZNK23ChiFeature2HWmultiframe25ProcessHWMFBlendLoopStageEP24ChiFeature2RequestObjecthhh+0xa98>
   31058: 70 00 00 b4  	cbz	x16, 0x31064 <_ZNK23ChiFeature2HWmultiframe25ProcessHWMFBlendLoopStageEP24ChiFeature2RequestObjecthhh+0x1564>
   31060: 07 01 10 37  	tbnz	w7, #2, 0x31080 <_ZNK23ChiFeature2HWmultiframe25ProcessHWMFBlendLoopStageEP24ChiFeature2RequestObjecthhh+0x1580>
   3107c: 53 fd ff 17  	b	0x305c8 <_ZNK23ChiFeature2HWmultiframe25ProcessHWMFBlendLoopStageEP24ChiFeature2RequestObjecthhh+0xac8>
   3109c: 4b fd ff 17  	b	0x305c8 <_ZNK23ChiFeature2HWmultiframe25ProcessHWMFBlendLoopStageEP24ChiFeature2RequestObjecthhh+0xac8>
   310b4: f2 fd ff 17  	b	0x3087c <_ZNK23ChiFeature2HWmultiframe25ProcessHWMFBlendLoopStageEP24ChiFeature2RequestObjecthhh+0xd7c>
   310cc: f7 fd ff 17  	b	0x308a8 <_ZNK23ChiFeature2HWmultiframe25ProcessHWMFBlendLoopStageEP24ChiFeature2RequestObjecthhh+0xda8>
   310e4: 8c fe ff 17  	b	0x30b14 <_ZNK23ChiFeature2HWmultiframe25ProcessHWMFBlendLoopStageEP24ChiFeature2RequestObjecthhh+0x1014>
