   13e54: 10 9b 12 9c  	ldr	q16, 0x391b4 <_ZN11ChiMetadata16ReadDataFromFileEPKcRNSt3__16vectorIhNS2_9allocatorIhEEEE+0x26c>
   13f6c: 10 9b 12 9c  	ldr	q16, 0x392cc <_ZN11ChiMetadata19ParseAndSetMetadataERNSt3__16vectorIhNS0_9allocatorIhEEEE+0x7c>
   13f9c: 10 9b 12 9c  	ldr	q16, 0x392fc <_ZN11ChiMetadata19ParseAndSetMetadataERNSt3__16vectorIhNS0_9allocatorIhEEEE+0xac>
   13fcc: 10 9b 12 9c  	ldr	q16, 0x3932c <_ZN11ChiMetadata19ParseAndSetMetadataERNSt3__16vectorIhNS0_9allocatorIhEEEE+0xdc>
   1402c: 10 9b 12 9c  	ldr	q16, 0x3938c <_ZN11ChiMetadata19ParseAndSetMetadataERNSt3__16vectorIhNS0_9allocatorIhEEEE+0x13c>
   1405c: 10 9b 12 9c  	ldr	q16, 0x393bc <_ZN11ChiMetadata19ParseAndSetMetadataERNSt3__16vectorIhNS0_9allocatorIhEEEE+0x16c>
   140bc: 10 9b 12 9c  	ldr	q16, 0x3941c <_ZN11ChiMetadata19ParseAndSetMetadataERNSt3__16vectorIhNS0_9allocatorIhEEEE+0x1cc>
   140ec: 10 9b 12 9c  	ldr	q16, 0x3944c <_ZN11ChiMetadata19ParseAndSetMetadataERNSt3__16vectorIhNS0_9allocatorIhEEEE+0x1fc>
   1411c: 10 9b 12 9c  	ldr	q16, 0x3947c <_ZN11ChiMetadata19ParseAndSetMetadataERNSt3__16vectorIhNS0_9allocatorIhEEEE+0x22c>
   1414c: 10 9b 12 9c  	ldr	q16, 0x394ac <_ZN11ChiMetadata19ParseAndSetMetadataERNSt3__16vectorIhNS0_9allocatorIhEEEE+0x25c>
   1417c: 10 9b 12 9c  	ldr	q16, 0x394dc <_ZN11ChiMetadata19ParseAndSetMetadataERNSt3__16vectorIhNS0_9allocatorIhEEEE+0x28c>
   141ac: 10 9b 12 9c  	ldr	q16, 0x3950c <_ZN11ChiMetadata19ParseAndSetMetadataERNSt3__16vectorIhNS0_9allocatorIhEEEE+0x2bc>
   141dc: 10 9b 12 9c  	ldr	q16, 0x3953c <_ZN11ChiMetadata19ParseAndSetMetadataERNSt3__16vectorIhNS0_9allocatorIhEEEE+0x2ec>
   1420c: 10 9b 12 9c  	ldr	q16, 0x3956c <_ZN11ChiMetadata19ParseAndSetMetadataERNSt3__16vectorIhNS0_9allocatorIhEEEE+0x31c>
   1429c: 10 9b 12 9c  	ldr	q16, 0x395fc <_ZN11ChiMetadata6SetTagEjPKvjj+0x4>
   143bc: 10 9b 12 9c  	ldr	q16, 0x3971c <_ZN11ChiMetadata6CreateEPKc+0x114>
   1444c: 10 9b 12 9c  	ldr	q16, 0x397ac <_ZN11ChiMetadata6CreateEPKc+0x1a4>
   14814: 10 9b 12 9c  	ldr	q16, 0x39b74 <_ZN11ChiMetadata15DestroyInternalEb+0x34>
   1503c: 10 9b 12 9c  	ldr	q16, 0x3a39c <_ZN11ChiMetadata14ReferenceCountEv+0x5c>
   151fc: 10 9b 12 9c  	ldr	q16, 0x3a55c <_ZN11ChiMetadata12AddReferenceEPKc+0x1bc>
   15544: 10 9b 12 9c  	ldr	q16, 0x3a8a4 <_ZN11ChiMetadata16ReleaseReferenceEPKc+0x1dc>
   155d0: 04 95 06 9c  	ldr	q4, 0x22870 <_ZNK14ChiFeature2HDR21MergeBPSNRMConfigDataEP11ChiMetadataS1_S1_P15ChiFeature2Hinti+0x6c0>
   155f4: 20 93 02 9c  	ldr	q0, 0x1a858 <_ZNK14ChiFeature2HDR16OnPrepareRequestEP24ChiFeature2RequestObject+0x300>
   1563c: 10 9b 12 9c  	ldr	q16, 0x3a99c <_ZN11ChiMetadata16ReleaseReferenceEPKc+0x2d4>
   1570c: 10 9b 12 9c  	ldr	q16, 0x3aa6c <_ZN11ChiMetadata8IteratorC2ERS_+0x4>
   15934: 10 9b 12 9c  	ldr	q16, 0x3ac94 <_ZN18ChiMetadataManager10MetaClientC2Ev+0x124>
   15b5c: 10 9b 12 9c  	ldr	q16, 0x3aebc <_ZN18ChiMetadataManager10MetaClient14ReleaseBuffersEv+0x17c>
   15b8c: 10 9b 12 9c  	ldr	q16, 0x3aeec <_ZN18ChiMetadataManager10MetaClient14ReleaseBuffersEv+0x1ac>
   15bec: 10 9b 12 9c  	ldr	q16, 0x3af4c <_ZN18ChiMetadataManager10MetaClient14ReleaseBuffersEv+0x20c>
   15c74: 10 9b 12 9c  	ldr	q16, 0x3afd4 <_ZN18ChiMetadataManager10MetaClient14ReleaseBuffersEv+0x294>
   15ca4: 10 9b 12 9c  	ldr	q16, 0x3b004 <_ZN18ChiMetadataManager10MetaClient14ReleaseBuffersEv+0x2c4>
   15cf4: 10 9b 12 9c  	ldr	q16, 0x3b054 <_ZN18ChiMetadataManager10MetaClient12TrackBuffersERNSt3__16chrono10time_pointINS2_12steady_clockENS2_8durationIxNS1_5ratioILl1ELl1000000000EEEEEEEj+0x4>
   15d24: 10 9b 12 9c  	ldr	q16, 0x3b084 <_ZN18ChiMetadataManager10MetaClient12TrackBuffersERNSt3__16chrono10time_pointINS2_12steady_clockENS2_8durationIxNS1_5ratioILl1ELl1000000000EEEEEEEj+0x34>
   15d7c: 10 9b 12 9c  	ldr	q16, 0x3b0dc <_ZN18ChiMetadataManager10MetaClient12TrackBuffersERNSt3__16chrono10time_pointINS2_12steady_clockENS2_8durationIxNS1_5ratioILl1ELl1000000000EEEEEEEj+0x8c>
   15dd4: 10 9b 12 9c  	ldr	q16, 0x3b134 <_ZN18ChiMetadataManager10MetaClient12TrackBuffersERNSt3__16chrono10time_pointINS2_12steady_clockENS2_8durationIxNS1_5ratioILl1ELl1000000000EEEEEEEj+0xe4>
   15e04: 10 9b 12 9c  	ldr	q16, 0x3b164 <_ZN18ChiMetadataManager10MetaClient12TrackBuffersERNSt3__16chrono10time_pointINS2_12steady_clockENS2_8durationIxNS1_5ratioILl1ELl1000000000EEEEEEEj+0x114>
   15f0c: 10 9b 12 9c  	ldr	q16, 0x3b26c <_ZN18ChiMetadataManager10MetaClient12TrackBuffersERNSt3__16chrono10time_pointINS2_12steady_clockENS2_8durationIxNS1_5ratioILl1ELl1000000000EEEEEEEj+0x21c>
   15f64: 10 9b 12 9c  	ldr	q16, 0x3b2c4 <_ZN18ChiMetadataManager10MetaClient12TrackBuffersERNSt3__16chrono10time_pointINS2_12steady_clockENS2_8durationIxNS1_5ratioILl1ELl1000000000EEEEEEEj+0x274>
   15fe4: 10 9b 12 9c  	ldr	q16, 0x3b344 <_ZN18ChiMetadataManager10MetaClient15AllocateBuffersEPjjjjj+0x3c>
   16014: 10 9b 12 9c  	ldr	q16, 0x3b374 <_ZN18ChiMetadataManager10MetaClient15AllocateBuffersEPjjjjj+0x6c>
   16064: 10 9b 12 9c  	ldr	q16, 0x3b3c4 <_ZN18ChiMetadataManager10MetaClient15AllocateBuffersEPjjjjj+0xbc>
   160b4: 10 9b 12 9c  	ldr	q16, 0x3b414 <_ZN18ChiMetadataManager10MetaClient15AllocateBuffersEPjjjjj+0x10c>
   160e4: 10 9b 12 9c  	ldr	q16, 0x3b444 <_ZN18ChiMetadataManager10MetaClient15AllocateBuffersEPjjjjj+0x13c>
   1613c: 10 9b 12 9c  	ldr	q16, 0x3b49c <_ZN18ChiMetadataManager10MetaClient15AllocateBuffersEPjjjjj+0x194>
   17018: 42 ac 00 14  	b	0x42120 <_ZN7android8hardware11hidl_stringD1Ev@plt>
   171d4: db ab 00 94  	bl	0x42140 <_ZN7android8hardware11hidl_stringC1EPKc@plt>
   1720c: cd ab 00 94  	bl	0x42140 <_ZN7android8hardware11hidl_stringC1EPKc@plt>
   17234: c3 ab 00 94  	bl	0x42140 <_ZN7android8hardware11hidl_stringC1EPKc@plt>
   1725c: b9 ab 00 94  	bl	0x42140 <_ZN7android8hardware11hidl_stringC1EPKc@plt>
   17284: af ab 00 94  	bl	0x42140 <_ZN7android8hardware11hidl_stringC1EPKc@plt>
   172ac: a5 ab 00 94  	bl	0x42140 <_ZN7android8hardware11hidl_stringC1EPKc@plt>
   172d4: 9b ab 00 94  	bl	0x42140 <_ZN7android8hardware11hidl_stringC1EPKc@plt>
   172fc: 91 ab 00 94  	bl	0x42140 <_ZN7android8hardware11hidl_stringC1EPKc@plt>
   17324: 87 ab 00 94  	bl	0x42140 <_ZN7android8hardware11hidl_stringC1EPKc@plt>
   1734c: 7d ab 00 94  	bl	0x42140 <_ZN7android8hardware11hidl_stringC1EPKc@plt>
   17374: 73 ab 00 94  	bl	0x42140 <_ZN7android8hardware11hidl_stringC1EPKc@plt>
   1739c: 69 ab 00 94  	bl	0x42140 <_ZN7android8hardware11hidl_stringC1EPKc@plt>
   173c4: 5f ab 00 94  	bl	0x42140 <_ZN7android8hardware11hidl_stringC1EPKc@plt>
   173ec: 55 ab 00 94  	bl	0x42140 <_ZN7android8hardware11hidl_stringC1EPKc@plt>
   17414: 4b ab 00 94  	bl	0x42140 <_ZN7android8hardware11hidl_stringC1EPKc@plt>
   1743c: 41 ab 00 94  	bl	0x42140 <_ZN7android8hardware11hidl_stringC1EPKc@plt>
   17464: 37 ab 00 94  	bl	0x42140 <_ZN7android8hardware11hidl_stringC1EPKc@plt>
   1748c: 2d ab 00 94  	bl	0x42140 <_ZN7android8hardware11hidl_stringC1EPKc@plt>
   174b4: 23 ab 00 94  	bl	0x42140 <_ZN7android8hardware11hidl_stringC1EPKc@plt>
   174dc: 19 ab 00 94  	bl	0x42140 <_ZN7android8hardware11hidl_stringC1EPKc@plt>
   17504: 0f ab 00 94  	bl	0x42140 <_ZN7android8hardware11hidl_stringC1EPKc@plt>
   17a94: b7 a9 00 94  	bl	0x42170 <_ZN7android8hardware11hidl_stringC1ERKNSt3__112basic_stringIcNS2_11char_traitsIcEENS2_9allocatorIcEEEE@plt>
   17abc: ad a9 00 94  	bl	0x42170 <_ZN7android8hardware11hidl_stringC1ERKNSt3__112basic_stringIcNS2_11char_traitsIcEENS2_9allocatorIcEEEE@plt>
   17ae4: a3 a9 00 94  	bl	0x42170 <_ZN7android8hardware11hidl_stringC1ERKNSt3__112basic_stringIcNS2_11char_traitsIcEENS2_9allocatorIcEEEE@plt>
   17b0c: 99 a9 00 94  	bl	0x42170 <_ZN7android8hardware11hidl_stringC1ERKNSt3__112basic_stringIcNS2_11char_traitsIcEENS2_9allocatorIcEEEE@plt>
   17b34: 8f a9 00 94  	bl	0x42170 <_ZN7android8hardware11hidl_stringC1ERKNSt3__112basic_stringIcNS2_11char_traitsIcEENS2_9allocatorIcEEEE@plt>
   17b5c: 85 a9 00 94  	bl	0x42170 <_ZN7android8hardware11hidl_stringC1ERKNSt3__112basic_stringIcNS2_11char_traitsIcEENS2_9allocatorIcEEEE@plt>
   17b84: 7b a9 00 94  	bl	0x42170 <_ZN7android8hardware11hidl_stringC1ERKNSt3__112basic_stringIcNS2_11char_traitsIcEENS2_9allocatorIcEEEE@plt>
   17bac: 71 a9 00 94  	bl	0x42170 <_ZN7android8hardware11hidl_stringC1ERKNSt3__112basic_stringIcNS2_11char_traitsIcEENS2_9allocatorIcEEEE@plt>
   17bd4: 67 a9 00 94  	bl	0x42170 <_ZN7android8hardware11hidl_stringC1ERKNSt3__112basic_stringIcNS2_11char_traitsIcEENS2_9allocatorIcEEEE@plt>
   17bfc: 5d a9 00 94  	bl	0x42170 <_ZN7android8hardware11hidl_stringC1ERKNSt3__112basic_stringIcNS2_11char_traitsIcEENS2_9allocatorIcEEEE@plt>
   17c24: 53 a9 00 94  	bl	0x42170 <_ZN7android8hardware11hidl_stringC1ERKNSt3__112basic_stringIcNS2_11char_traitsIcEENS2_9allocatorIcEEEE@plt>
   17c4c: 49 a9 00 94  	bl	0x42170 <_ZN7android8hardware11hidl_stringC1ERKNSt3__112basic_stringIcNS2_11char_traitsIcEENS2_9allocatorIcEEEE@plt>
   17c74: 3f a9 00 94  	bl	0x42170 <_ZN7android8hardware11hidl_stringC1ERKNSt3__112basic_stringIcNS2_11char_traitsIcEENS2_9allocatorIcEEEE@plt>
   17c9c: 35 a9 00 94  	bl	0x42170 <_ZN7android8hardware11hidl_stringC1ERKNSt3__112basic_stringIcNS2_11char_traitsIcEENS2_9allocatorIcEEEE@plt>
   17cc4: 2b a9 00 94  	bl	0x42170 <_ZN7android8hardware11hidl_stringC1ERKNSt3__112basic_stringIcNS2_11char_traitsIcEENS2_9allocatorIcEEEE@plt>
   17cec: 21 a9 00 94  	bl	0x42170 <_ZN7android8hardware11hidl_stringC1ERKNSt3__112basic_stringIcNS2_11char_traitsIcEENS2_9allocatorIcEEEE@plt>
   17d14: 17 a9 00 94  	bl	0x42170 <_ZN7android8hardware11hidl_stringC1ERKNSt3__112basic_stringIcNS2_11char_traitsIcEENS2_9allocatorIcEEEE@plt>
   17d3c: 0d a9 00 94  	bl	0x42170 <_ZN7android8hardware11hidl_stringC1ERKNSt3__112basic_stringIcNS2_11char_traitsIcEENS2_9allocatorIcEEEE@plt>
   17d64: 03 a9 00 94  	bl	0x42170 <_ZN7android8hardware11hidl_stringC1ERKNSt3__112basic_stringIcNS2_11char_traitsIcEENS2_9allocatorIcEEEE@plt>
   17d8c: f9 a8 00 94  	bl	0x42170 <_ZN7android8hardware11hidl_stringC1ERKNSt3__112basic_stringIcNS2_11char_traitsIcEENS2_9allocatorIcEEEE@plt>
   17db4: ef a8 00 94  	bl	0x42170 <_ZN7android8hardware11hidl_stringC1ERKNSt3__112basic_stringIcNS2_11char_traitsIcEENS2_9allocatorIcEEEE@plt>
   17ddc: e5 a8 00 94  	bl	0x42170 <_ZN7android8hardware11hidl_stringC1ERKNSt3__112basic_stringIcNS2_11char_traitsIcEENS2_9allocatorIcEEEE@plt>
   17e04: db a8 00 94  	bl	0x42170 <_ZN7android8hardware11hidl_stringC1ERKNSt3__112basic_stringIcNS2_11char_traitsIcEENS2_9allocatorIcEEEE@plt>
   17e2c: d1 a8 00 94  	bl	0x42170 <_ZN7android8hardware11hidl_stringC1ERKNSt3__112basic_stringIcNS2_11char_traitsIcEENS2_9allocatorIcEEEE@plt>
   17e54: c7 a8 00 94  	bl	0x42170 <_ZN7android8hardware11hidl_stringC1ERKNSt3__112basic_stringIcNS2_11char_traitsIcEENS2_9allocatorIcEEEE@plt>
   17e7c: bd a8 00 94  	bl	0x42170 <_ZN7android8hardware11hidl_stringC1ERKNSt3__112basic_stringIcNS2_11char_traitsIcEENS2_9allocatorIcEEEE@plt>
   17ea0: b8 a8 00 94  	bl	0x42180 <_ZNSt3__112basic_stringIcNS_11char_traitsIcEENS_9allocatorIcEEEC1ERKS5_@plt>
   17ec8: ae a8 00 94  	bl	0x42180 <_ZNSt3__112basic_stringIcNS_11char_traitsIcEENS_9allocatorIcEEEC1ERKS5_@plt>
   17ef0: a4 a8 00 94  	bl	0x42180 <_ZNSt3__112basic_stringIcNS_11char_traitsIcEENS_9allocatorIcEEEC1ERKS5_@plt>
   17f18: 9a a8 00 94  	bl	0x42180 <_ZNSt3__112basic_stringIcNS_11char_traitsIcEENS_9allocatorIcEEEC1ERKS5_@plt>
0000000000019f10 <_ZN14ChiFeature2HDR6CreateEP26ChiFeature2CreateInputInfo>:
   19f74: 49 01 00 f0  	adrp	x9, 0x44000 <_ZN14ChiFeature2HDR6CreateEP26ChiFeature2CreateInputInfo+0x110>
   19fb0: 80 06 00 b4  	cbz	x0, 0x1a080 <_ZN14ChiFeature2HDR6CreateEP26ChiFeature2CreateInputInfo+0x170>
   19fbc: 75 a0 00 94  	bl	0x42190 <_ZN15ChiFeature2Base10InitializeEP26ChiFeature2CreateInputInfo@plt>
   19fc0: 20 0c 00 34  	cbz	w0, 0x1a144 <_ZN14ChiFeature2HDR6CreateEP26ChiFeature2CreateInputInfo+0x234>
   19fc4: 4a 01 00 f0  	adrp	x10, 0x44000 <_ZN14ChiFeature2HDR6CreateEP26ChiFeature2CreateInputInfo+0x160>
   19fd0: e9 04 00 36  	tbz	w9, #0, 0x1a06c <_ZN14ChiFeature2HDR6CreateEP26ChiFeature2CreateInputInfo+0x15c>
   19fd4: 4c 01 00 f0  	adrp	x12, 0x44000 <_ZN14ChiFeature2HDR6CreateEP26ChiFeature2CreateInputInfo+0x170>
   19fd8: b4 ff ff f0  	adrp	x20, 0x10000 <_ZN14ChiFeature2HDR6CreateEP26ChiFeature2CreateInputInfo+0xa4>
   19fec: 01 02 00 54  	b.ne	0x1a02c <_ZN14ChiFeature2HDR6CreateEP26ChiFeature2CreateInputInfo+0x11c>
   1a004: c1 ff ff 90  	adrp	x1, 0x12000 <_ZN14ChiFeature2HDR6CreateEP26ChiFeature2CreateInputInfo+0xd4>
   1a008: a2 ff ff f0  	adrp	x2, 0x11000 <_ZN14ChiFeature2HDR6CreateEP26ChiFeature2CreateInputInfo+0xd4>
   1a00c: a5 ff ff f0  	adrp	x5, 0x11000 <_ZN14ChiFeature2HDR6CreateEP26ChiFeature2CreateInputInfo+0xd8>
   1a040: c1 ff ff 90  	adrp	x1, 0x12000 <_ZN14ChiFeature2HDR6CreateEP26ChiFeature2CreateInputInfo+0x110>
   1a048: 80 ff ff b0  	adrp	x0, 0xb000 <_ZN14ChiFeature2HDR6CreateEP26ChiFeature2CreateInputInfo+0xfc>
   1a04c: a3 ff ff f0  	adrp	x3, 0x11000 <_ZN14ChiFeature2HDR6CreateEP26ChiFeature2CreateInputInfo+0x118>
   1a050: a5 ff ff 90  	adrp	x5, 0xe000 <_ZN14ChiFeature2HDR6CreateEP26ChiFeature2CreateInputInfo+0x110>
   1a068: 56 a0 00 94  	bl	0x421c0 <_ZN6ChiLog9LogSystemEPKcS1_S1_S1_iS1_z@plt>
   1a07c: 2d 00 00 14  	b	0x1a130 <_ZN14ChiFeature2HDR6CreateEP26ChiFeature2CreateInputInfo+0x220>
   1a080: 4f 01 00 d0  	adrp	x15, 0x44000 <_ZN14ChiFeature2HDR6CreateEP26ChiFeature2CreateInputInfo+0x218>
   1a08c: 2b 05 00 36  	tbz	w11, #0, 0x1a130 <_ZN14ChiFeature2HDR6CreateEP26ChiFeature2CreateInputInfo+0x220>
   1a090: 50 01 00 d0  	adrp	x16, 0x44000 <_ZN14ChiFeature2HDR6CreateEP26ChiFeature2CreateInputInfo+0x228>
   1a0a0: 41 02 00 54  	b.ne	0x1a0e8 <_ZN14ChiFeature2HDR6CreateEP26ChiFeature2CreateInputInfo+0x1d8>
   1a0a4: b4 ff ff d0  	adrp	x20, 0x10000 <_ZN14ChiFeature2HDR6CreateEP26ChiFeature2CreateInputInfo+0x16c>
   1a0c0: c1 ff ff 90  	adrp	x1, 0x12000 <_ZN14ChiFeature2HDR6CreateEP26ChiFeature2CreateInputInfo+0x190>
   1a0c4: 82 ff ff f0  	adrp	x2, 0xd000 <_ZN14ChiFeature2HDR6CreateEP26ChiFeature2CreateInputInfo+0x180>
   1a0c8: a5 ff ff f0  	adrp	x5, 0x11000 <_ZN14ChiFeature2HDR6CreateEP26ChiFeature2CreateInputInfo+0x194>
   1a0e8: b4 ff ff d0  	adrp	x20, 0x10000 <_ZN14ChiFeature2HDR6CreateEP26ChiFeature2CreateInputInfo+0x1b0>
   1a104: c1 ff ff 90  	adrp	x1, 0x12000 <_ZN14ChiFeature2HDR6CreateEP26ChiFeature2CreateInputInfo+0x1d4>
   1a10c: 80 ff ff b0  	adrp	x0, 0xb000 <_ZN14ChiFeature2HDR6CreateEP26ChiFeature2CreateInputInfo+0x1c0>
   1a110: a3 ff ff f0  	adrp	x3, 0x11000 <_ZN14ChiFeature2HDR6CreateEP26ChiFeature2CreateInputInfo+0x1dc>
   1a114: a5 ff ff b0  	adrp	x5, 0xf000 <_ZN14ChiFeature2HDR6CreateEP26ChiFeature2CreateInputInfo+0x1d8>
   1a12c: 25 a0 00 94  	bl	0x421c0 <_ZN6ChiLog9LogSystemEPKcS1_S1_S1_iS1_z@plt>
   1a144: 6e 01 00 b0  	adrp	x14, 0x47000 <_ZN14ChiFeature2HDR32OnProcessingDependenciesCompleteEP24ChiFeature2RequestObjecth+0x48>
000000000001a160 <_ZN14ChiFeature2HDR7DestroyEv>:
   1a160: 80 00 00 b4  	cbz	x0, 0x1a170 <_ZN14ChiFeature2HDR7DestroyEv+0x10>
000000000001a178 <_ZN14ChiFeature2HDRD2Ev>:
   1a178: 16 a0 00 14  	b	0x421d0 <_ZN15ChiFeature2BaseD2Ev@plt>
000000000001a180 <_ZN14ChiFeature2HDRD0Ev>:
   1a190: 10 a0 00 94  	bl	0x421d0 <_ZN15ChiFeature2BaseD2Ev@plt>
000000000001a1a8 <_ZN14ChiFeature2HDR7DoFlushEv>:
000000000001a1b0 <_ZN14ChiFeature2HDR32OnProcessingDependenciesCompleteEP24ChiFeature2RequestObjecth>:
   1a1dc: a9 11 00 35  	cbnz	w9, 0x1a410 <_ZN14ChiFeature2HDR32OnProcessingDependenciesCompleteEP24ChiFeature2RequestObjecth+0x260>
   1a1f0: fc 9f 00 94  	bl	0x421e0 <_ZN24ChiFeature2RequestObject32AllOutputPortsProcessingCompleteEv@plt>
   1a1f8: c1 10 00 54  	b.ne	0x1a410 <_ZN14ChiFeature2HDR32OnProcessingDependenciesCompleteEP24ChiFeature2RequestObjecth+0x260>
   1a208: 41 10 00 54  	b.ne	0x1a410 <_ZN14ChiFeature2HDR32OnProcessingDependenciesCompleteEP24ChiFeature2RequestObjecth+0x260>
   1a220: f4 9f 00 94  	bl	0x421f0 <_ZNK15ChiFeature2Base19GetCurrentStageInfoEP24ChiFeature2RequestObjectP20ChiFeature2StageInfo@plt>
   1a224: 79 0f 00 b4  	cbz	x25, 0x1a410 <_ZN14ChiFeature2HDR32OnProcessingDependenciesCompleteEP24ChiFeature2RequestObjecth+0x260>
   1a244: 61 0e 00 54  	b.ne	0x1a410 <_ZN14ChiFeature2HDR32OnProcessingDependenciesCompleteEP24ChiFeature2RequestObjecth+0x260>
   1a250: c0 00 00 54  	b.eq	0x1a268 <_ZN14ChiFeature2HDR32OnProcessingDependenciesCompleteEP24ChiFeature2RequestObjecth+0xb8>
   1a264: 61 0d 00 54  	b.ne	0x1a410 <_ZN14ChiFeature2HDR32OnProcessingDependenciesCompleteEP24ChiFeature2RequestObjecth+0x260>
   1a268: 59 01 00 d0  	adrp	x25, 0x44000 <_ZN14ChiFeature2HDR32OnProcessingDependenciesCompleteEP24ChiFeature2RequestObjecth+0x160>
   1a274: 2d 05 28 36  	tbz	w13, #5, 0x1a318 <_ZN14ChiFeature2HDR32OnProcessingDependenciesCompleteEP24ChiFeature2RequestObjecth+0x168>
   1a278: 49 01 00 d0  	adrp	x9, 0x44000 <_ZN14ChiFeature2HDR32OnProcessingDependenciesCompleteEP24ChiFeature2RequestObjecth+0x170>
   1a27c: b7 ff ff d0  	adrp	x23, 0x10000 <_ZN14ChiFeature2HDR32OnProcessingDependenciesCompleteEP24ChiFeature2RequestObjecth+0xa4>
   1a290: 21 02 00 54  	b.ne	0x1a2d4 <_ZN14ChiFeature2HDR32OnProcessingDependenciesCompleteEP24ChiFeature2RequestObjecth+0x124>
   1a2a8: c1 ff ff 90  	adrp	x1, 0x12000 <_ZN14ChiFeature2HDR32OnProcessingDependenciesCompleteEP24ChiFeature2RequestObjecth+0xd8>
   1a2ac: 82 ff ff f0  	adrp	x2, 0xd000 <_ZN14ChiFeature2HDR32OnProcessingDependenciesCompleteEP24ChiFeature2RequestObjecth+0xc8>
   1a2b0: a5 ff ff 90  	adrp	x5, 0xe000 <_ZN14ChiFeature2HDR32OnProcessingDependenciesCompleteEP24ChiFeature2RequestObjecth+0xd0>
   1a2e8: a1 ff ff b0  	adrp	x1, 0xf000 <_ZN14ChiFeature2HDR32OnProcessingDependenciesCompleteEP24ChiFeature2RequestObjecth+0x10c>
   1a2f0: a0 ff ff f0  	adrp	x0, 0x11000 <_ZN14ChiFeature2HDR32OnProcessingDependenciesCompleteEP24ChiFeature2RequestObjecth+0x11c>
   1a2f4: a3 ff ff 90  	adrp	x3, 0xe000 <_ZN14ChiFeature2HDR32OnProcessingDependenciesCompleteEP24ChiFeature2RequestObjecth+0x114>
   1a2f8: a5 ff ff f0  	adrp	x5, 0x11000 <_ZN14ChiFeature2HDR32OnProcessingDependenciesCompleteEP24ChiFeature2RequestObjecth+0x124>
   1a314: ab 9f 00 94  	bl	0x421c0 <_ZN6ChiLog9LogSystemEPKcS1_S1_S1_iS1_z@plt>
   1a338: 42 06 00 54  	b.hs	0x1a400 <_ZN14ChiFeature2HDR32OnProcessingDependenciesCompleteEP24ChiFeature2RequestObjecth+0x250>
   1a340: 2f 06 00 36  	tbz	w15, #0, 0x1a404 <_ZN14ChiFeature2HDR32OnProcessingDependenciesCompleteEP24ChiFeature2RequestObjecth+0x254>
   1a344: 4a 01 00 d0  	adrp	x10, 0x44000 <_ZN14ChiFeature2HDR32OnProcessingDependenciesCompleteEP24ChiFeature2RequestObjecth+0x23c>
   1a348: 96 ff ff d0  	adrp	x22, 0xc000 <_ZN14ChiFeature2HDR32OnProcessingDependenciesCompleteEP24ChiFeature2RequestObjecth+0x160>
   1a35c: 81 02 00 54  	b.ne	0x1a3ac <_ZN14ChiFeature2HDR32OnProcessingDependenciesCompleteEP24ChiFeature2RequestObjecth+0x1fc>
   1a378: c1 ff ff 90  	adrp	x1, 0x12000 <_ZN14ChiFeature2HDR32OnProcessingDependenciesCompleteEP24ChiFeature2RequestObjecth+0x1a8>
   1a37c: 82 ff ff d0  	adrp	x2, 0xc000 <_ZN14ChiFeature2HDR32OnProcessingDependenciesCompleteEP24ChiFeature2RequestObjecth+0x194>
   1a380: 85 ff ff 90  	adrp	x5, 0xa000 <_ZN14ChiFeature2HDR32OnProcessingDependenciesCompleteEP24ChiFeature2RequestObjecth+0x190>
   1a3c8: 80 ff ff b0  	adrp	x0, 0xb000 <_ZN14ChiFeature2HDR32OnProcessingDependenciesCompleteEP24ChiFeature2RequestObjecth+0x1dc>
   1a3cc: c1 ff ff 90  	adrp	x1, 0x12000 <_ZN14ChiFeature2HDR32OnProcessingDependenciesCompleteEP24ChiFeature2RequestObjecth+0x1fc>
   1a3d0: 83 ff ff 90  	adrp	x3, 0xa000 <_ZN14ChiFeature2HDR32OnProcessingDependenciesCompleteEP24ChiFeature2RequestObjecth+0x1e0>
   1a3d4: a5 ff ff b0  	adrp	x5, 0xf000 <_ZN14ChiFeature2HDR32OnProcessingDependenciesCompleteEP24ChiFeature2RequestObjecth+0x1f8>
   1a3f8: 72 9f 00 94  	bl	0x421c0 <_ZN6ChiLog9LogSystemEPKcS1_S1_S1_iS1_z@plt>
   1a3fc: 02 00 00 14  	b	0x1a404 <_ZN14ChiFeature2HDR32OnProcessingDependenciesCompleteEP24ChiFeature2RequestObjecth+0x254>
   1a40c: 7d 9f 00 94  	bl	0x42200 <_ZNK15ChiFeature2Base21ProcessFeatureMessageEP28ChiFeature2MessageDescriptor@plt>
   1a41c: 01 01 00 54  	b.ne	0x1a43c <_ZN14ChiFeature2HDR32OnProcessingDependenciesCompleteEP24ChiFeature2RequestObjecth+0x28c>
000000000001a440 <_ZN14ChiFeature2HDR16OnPipelineCreateEP21ChiFeature2Identifier>:
   1a44c: a1 02 00 b4  	cbz	x1, 0x1a4a0 <_ZN14ChiFeature2HDR16OnPipelineCreateEP21ChiFeature2Identifier+0x60>
   1a460: 82 01 00 54  	b.hs	0x1a490 <_ZN14ChiFeature2HDR16OnPipelineCreateEP21ChiFeature2Identifier+0x50>
   1a468: 48 01 00 b4  	cbz	x8, 0x1a490 <_ZN14ChiFeature2HDR16OnPipelineCreateEP21ChiFeature2Identifier+0x50>
   1a47c: a2 00 00 54  	b.hs	0x1a490 <_ZN14ChiFeature2HDR16OnPipelineCreateEP21ChiFeature2Identifier+0x50>
   1a484: 6b 00 00 b4  	cbz	x11, 0x1a490 <_ZN14ChiFeature2HDR16OnPipelineCreateEP21ChiFeature2Identifier+0x50>
   1a4a0: 4c 01 00 d0  	adrp	x12, 0x44000 <_ZN14ChiFeature2HDR16OnPipelineCreateEP21ChiFeature2Identifier+0x108>
   1a4ac: 29 ff 07 36  	tbz	w9, #0, 0x1a490 <_ZN14ChiFeature2HDR16OnPipelineCreateEP21ChiFeature2Identifier+0x50>
   1a4b0: 4d 01 00 d0  	adrp	x13, 0x44000 <_ZNK14ChiFeature2HDR16OnPrepareRequestEP24ChiFeature2RequestObject>
   1a4b4: b3 ff ff d0  	adrp	x19, 0x10000 <_ZN14ChiFeature2HDR16OnPipelineCreateEP21ChiFeature2Identifier+0x4c>
   1a4c8: 01 02 00 54  	b.ne	0x1a508 <_ZN14ChiFeature2HDR16OnPipelineCreateEP21ChiFeature2Identifier+0xc8>
   1a4e0: c1 ff ff 90  	adrp	x1, 0x12000 <_ZN14ChiFeature2HDR16OnPipelineCreateEP21ChiFeature2Identifier+0x80>
   1a4e4: a2 ff ff f0  	adrp	x2, 0x11000 <_ZN14ChiFeature2HDR16OnPipelineCreateEP21ChiFeature2Identifier+0x80>
   1a4e8: 85 ff ff f0  	adrp	x5, 0xd000 <_ZN14ChiFeature2HDR16OnPipelineCreateEP21ChiFeature2Identifier+0x74>
   1a51c: c1 ff ff 90  	adrp	x1, 0x12000 <_ZN14ChiFeature2HDR16OnPipelineCreateEP21ChiFeature2Identifier+0xbc>
   1a524: 80 ff ff b0  	adrp	x0, 0xb000 <_ZN14ChiFeature2HDR16OnPipelineCreateEP21ChiFeature2Identifier+0xa8>
   1a528: 83 ff ff f0  	adrp	x3, 0xd000 <_ZN14ChiFeature2HDR16OnPipelineCreateEP21ChiFeature2Identifier+0xb4>
   1a52c: 85 ff ff f0  	adrp	x5, 0xd000 <_ZN14ChiFeature2HDR16OnPipelineCreateEP21ChiFeature2Identifier+0xb8>
   1a544: 1f 9f 00 94  	bl	0x421c0 <_ZN6ChiLog9LogSystemEPKcS1_S1_S1_iS1_z@plt>
000000000001a558 <_ZNK14ChiFeature2HDR16OnPrepareRequestEP24ChiFeature2RequestObject>:
   1a57c: 41 02 00 b4  	cbz	x1, 0x1a5c4 <_ZNK14ChiFeature2HDR16OnPrepareRequestEP24ChiFeature2RequestObject+0x6c>
   1a598: a0 15 00 b4  	cbz	x0, 0x1a84c <_ZNK14ChiFeature2HDR16OnPrepareRequestEP24ChiFeature2RequestObject+0x2f4>
   1a5b0: 78 06 00 b4  	cbz	x24, 0x1a67c <_ZNK14ChiFeature2HDR16OnPrepareRequestEP24ChiFeature2RequestObject+0x124>
   1a5b8: 28 06 00 34  	cbz	w8, 0x1a67c <_ZNK14ChiFeature2HDR16OnPrepareRequestEP24ChiFeature2RequestObject+0x124>
   1a5c0: 31 00 00 14  	b	0x1a684 <_ZNK14ChiFeature2HDR16OnPrepareRequestEP24ChiFeature2RequestObject+0x12c>
   1a5c4: 51 01 00 d0  	adrp	x17, 0x44000 <_ZNK14ChiFeature2HDR16OnPrepareRequestEP24ChiFeature2RequestObject+0x114>
   1a5d0: 30 05 00 36  	tbz	w16, #0, 0x1a674 <_ZNK14ChiFeature2HDR16OnPrepareRequestEP24ChiFeature2RequestObject+0x11c>
   1a5d4: 41 01 00 d0  	adrp	x1, 0x44000 <_ZNK14ChiFeature2HDR16OnPrepareRequestEP24ChiFeature2RequestObject+0x124>
   1a5e4: 41 02 00 54  	b.ne	0x1a62c <_ZNK14ChiFeature2HDR16OnPrepareRequestEP24ChiFeature2RequestObject+0xd4>
   1a5e8: b6 ff ff d0  	adrp	x22, 0x10000 <_ZNK14ChiFeature2HDR16OnPrepareRequestEP24ChiFeature2RequestObject+0x68>
   1a604: c1 ff ff 90  	adrp	x1, 0x12000 <_ZNK14ChiFeature2HDR16OnPrepareRequestEP24ChiFeature2RequestObject+0x8c>
   1a608: 82 ff ff b0  	adrp	x2, 0xb000 <_ZNK14ChiFeature2HDR16OnPrepareRequestEP24ChiFeature2RequestObject+0x74>
   1a60c: a5 ff ff b0  	adrp	x5, 0xf000 <_ZNK14ChiFeature2HDR16OnPrepareRequestEP24ChiFeature2RequestObject+0x88>
   1a62c: b6 ff ff d0  	adrp	x22, 0x10000 <_ZNK14ChiFeature2HDR16OnPrepareRequestEP24ChiFeature2RequestObject+0xac>
   1a648: c1 ff ff 90  	adrp	x1, 0x12000 <_ZNK14ChiFeature2HDR16OnPrepareRequestEP24ChiFeature2RequestObject+0xd0>
   1a650: 80 ff ff b0  	adrp	x0, 0xb000 <_ZNK14ChiFeature2HDR16OnPrepareRequestEP24ChiFeature2RequestObject+0xbc>
   1a654: a3 ff ff b0  	adrp	x3, 0xf000 <_ZNK14ChiFeature2HDR16OnPrepareRequestEP24ChiFeature2RequestObject+0xd0>
   1a658: a5 ff ff d0  	adrp	x5, 0x10000 <_ZNK14ChiFeature2HDR16OnPrepareRequestEP24ChiFeature2RequestObject+0xd8>
   1a670: d4 9e 00 94  	bl	0x421c0 <_ZN6ChiLog9LogSystemEPKcS1_S1_S1_iS1_z@plt>
   1a678: b8 00 00 14  	b	0x1a958 <_ZNK14ChiFeature2HDR16OnPrepareRequestEP24ChiFeature2RequestObject+0x400>
   1a684: 58 01 00 d0  	adrp	x24, 0x44000 <_ZNK14ChiFeature2HDR16OnPrepareRequestEP24ChiFeature2RequestObject+0x1d4>
   1a69c: 2c 05 18 36  	tbz	w12, #3, 0x1a740 <_ZNK14ChiFeature2HDR16OnPrepareRequestEP24ChiFeature2RequestObject+0x1e8>
   1a6a0: 4e 01 00 d0  	adrp	x14, 0x44000 <_ZNK14ChiFeature2HDR16OnPrepareRequestEP24ChiFeature2RequestObject+0x1f0>
   1a6a4: b6 ff ff d0  	adrp	x22, 0x10000 <_ZNK14ChiFeature2HDR16OnPrepareRequestEP24ChiFeature2RequestObject+0x124>
   1a6b8: 21 02 00 54  	b.ne	0x1a6fc <_ZNK14ChiFeature2HDR16OnPrepareRequestEP24ChiFeature2RequestObject+0x1a4>
   1a6d4: c1 ff ff 90  	adrp	x1, 0x12000 <_ZNK14ChiFeature2HDR16OnPrepareRequestEP24ChiFeature2RequestObject+0x15c>
   1a6d8: a2 ff ff b0  	adrp	x2, 0xf000 <_ZNK14ChiFeature2HDR16OnPrepareRequestEP24ChiFeature2RequestObject+0x154>
   1a6dc: a5 ff ff b0  	adrp	x5, 0xf000 <_ZNK14ChiFeature2HDR16OnPrepareRequestEP24ChiFeature2RequestObject+0x158>
   1a718: c0 ff ff 90  	adrp	x0, 0x12000 <_ZNK14ChiFeature2HDR16OnPrepareRequestEP24ChiFeature2RequestObject+0x1a0>
   1a71c: a1 ff ff 90  	adrp	x1, 0xe000 <_ZNK14ChiFeature2HDR16OnPrepareRequestEP24ChiFeature2RequestObject+0x194>
   1a720: a3 ff ff b0  	adrp	x3, 0xf000 <_ZNK14ChiFeature2HDR16OnPrepareRequestEP24ChiFeature2RequestObject+0x19c>
   1a724: 85 ff ff f0  	adrp	x5, 0xd000 <_ZNK14ChiFeature2HDR16OnPrepareRequestEP24ChiFeature2RequestObject+0x198>
   1a73c: a1 9e 00 94  	bl	0x421c0 <_ZN6ChiLog9LogSystemEPKcS1_S1_S1_iS1_z@plt>
   1a74c: bd 9e 00 94  	bl	0x42240 <_ZNK24ChiFeature2RequestObject20GetAppRequestSettingEPP11ChiMetadata@plt>
   1a754: 08 07 00 b4  	cbz	x8, 0x1a834 <_ZNK14ChiFeature2HDR16OnPrepareRequestEP24ChiFeature2RequestObject+0x2dc>
   1a778: e9 05 00 b4  	cbz	x9, 0x1a834 <_ZNK14ChiFeature2HDR16OnPrepareRequestEP24ChiFeature2RequestObject+0x2dc>
   1a788: 6e 05 28 36  	tbz	w14, #5, 0x1a834 <_ZNK14ChiFeature2HDR16OnPrepareRequestEP24ChiFeature2RequestObject+0x2dc>
   1a78c: 4f 01 00 d0  	adrp	x15, 0x44000 <_ZNK14ChiFeature2HDR16OnPrepareRequestEP24ChiFeature2RequestObject+0x2dc>
   1a79c: 61 02 00 54  	b.ne	0x1a7e8 <_ZNK14ChiFeature2HDR16OnPrepareRequestEP24ChiFeature2RequestObject+0x290>
   1a7a0: b6 ff ff d0  	adrp	x22, 0x10000 <_ZNK14ChiFeature2HDR16OnPrepareRequestEP24ChiFeature2RequestObject+0x220>
   1a7c0: c1 ff ff 90  	adrp	x1, 0x12000 <_ZNK14ChiFeature2HDR16OnPrepareRequestEP24ChiFeature2RequestObject+0x248>
   1a7c4: 82 ff ff f0  	adrp	x2, 0xd000 <_ZNK14ChiFeature2HDR16OnPrepareRequestEP24ChiFeature2RequestObject+0x238>
   1a7c8: a5 ff ff b0  	adrp	x5, 0xf000 <_ZNK14ChiFeature2HDR16OnPrepareRequestEP24ChiFeature2RequestObject+0x244>
   1a7e8: b6 ff ff d0  	adrp	x22, 0x10000 <_ZNK14ChiFeature2HDR16OnPrepareRequestEP24ChiFeature2RequestObject+0x268>
   1a80c: a0 ff ff f0  	adrp	x0, 0x11000 <_ZNK14ChiFeature2HDR16OnPrepareRequestEP24ChiFeature2RequestObject+0x290>
   1a810: a1 ff ff b0  	adrp	x1, 0xf000 <_ZNK14ChiFeature2HDR16OnPrepareRequestEP24ChiFeature2RequestObject+0x28c>
   1a814: a3 ff ff b0  	adrp	x3, 0xf000 <_ZNK14ChiFeature2HDR16OnPrepareRequestEP24ChiFeature2RequestObject+0x290>
   1a818: a5 ff ff 90  	adrp	x5, 0xe000 <_ZNK14ChiFeature2HDR16OnPrepareRequestEP24ChiFeature2RequestObject+0x290>
   1a830: 64 9e 00 94  	bl	0x421c0 <_ZN6ChiLog9LogSystemEPKcS1_S1_S1_iS1_z@plt>
   1a840: 84 9e 00 94  	bl	0x42250 <_ZNK15ChiFeature2Base21SetFeaturePrivContextEP24ChiFeature2RequestObjectPv@plt>
   1a848: 2f 00 00 14  	b	0x1a904 <_ZNK14ChiFeature2HDR16OnPrepareRequestEP24ChiFeature2RequestObject+0x3ac>
   1a84c: 4b 01 00 d0  	adrp	x11, 0x44000 <_ZNK14ChiFeature2HDR16OnPrepareRequestEP24ChiFeature2RequestObject+0x39c>
   1a85c: 29 05 00 36  	tbz	w9, #0, 0x1a900 <_ZNK14ChiFeature2HDR16OnPrepareRequestEP24ChiFeature2RequestObject+0x3a8>
   1a860: 4c 01 00 d0  	adrp	x12, 0x44000 <_ZNK14ChiFeature2HDR16OnPrepareRequestEP24ChiFeature2RequestObject+0x3b0>
   1a870: 41 02 00 54  	b.ne	0x1a8b8 <_ZNK14ChiFeature2HDR16OnPrepareRequestEP24ChiFeature2RequestObject+0x360>
   1a874: b6 ff ff d0  	adrp	x22, 0x10000 <_ZNK14ChiFeature2HDR16OnPrepareRequestEP24ChiFeature2RequestObject+0x2f4>
   1a890: c1 ff ff 90  	adrp	x1, 0x12000 <_ZNK14ChiFeature2HDR16OnPrepareRequestEP24ChiFeature2RequestObject+0x318>
   1a894: a2 ff ff 90  	adrp	x2, 0xe000 <_ZNK14ChiFeature2HDR16OnPrepareRequestEP24ChiFeature2RequestObject+0x30c>
   1a898: a5 ff ff b0  	adrp	x5, 0xf000 <_ZNK14ChiFeature2HDR16OnPrepareRequestEP24ChiFeature2RequestObject+0x314>
   1a8b8: b6 ff ff d0  	adrp	x22, 0x10000 <_ZNK14ChiFeature2HDR16OnPrepareRequestEP24ChiFeature2RequestObject+0x338>
   1a8d4: c1 ff ff 90  	adrp	x1, 0x12000 <_ZNK14ChiFeature2HDR16OnPrepareRequestEP24ChiFeature2RequestObject+0x35c>
   1a8dc: 80 ff ff b0  	adrp	x0, 0xb000 <_ZNK14ChiFeature2HDR16OnPrepareRequestEP24ChiFeature2RequestObject+0x348>
   1a8e0: a3 ff ff b0  	adrp	x3, 0xf000 <_ZNK14ChiFeature2HDR16OnPrepareRequestEP24ChiFeature2RequestObject+0x35c>
   1a8e4: a5 ff ff d0  	adrp	x5, 0x10000 <_ZNK14ChiFeature2HDR16OnPrepareRequestEP24ChiFeature2RequestObject+0x364>
   1a8fc: 31 9e 00 94  	bl	0x421c0 <_ZN6ChiLog9LogSystemEPKcS1_S1_S1_iS1_z@plt>
   1a90c: 55 9e 00 94  	bl	0x42260 <_ZNK24ChiFeature2RequestObject23GetUsecaseRequestObjectEv@plt>
   1a914: a1 ff ff d0  	adrp	x1, 0x10000 <_ZNK14ChiFeature2HDR16OnPrepareRequestEP24ChiFeature2RequestObject+0x394>
   1a91c: a2 ff ff f0  	adrp	x2, 0x11000 <_ZNK14ChiFeature2HDR16OnPrepareRequestEP24ChiFeature2RequestObject+0x3a0>
   1a940: ca 00 00 b4  	cbz	x10, 0x1a958 <_ZNK14ChiFeature2HDR16OnPrepareRequestEP24ChiFeature2RequestObject+0x400>
   1a94c: 61 00 00 54  	b.ne	0x1a958 <_ZNK14ChiFeature2HDR16OnPrepareRequestEP24ChiFeature2RequestObject+0x400>
   1a964: 01 01 00 54  	b.ne	0x1a984 <_ZNK14ChiFeature2HDR16OnPrepareRequestEP24ChiFeature2RequestObject+0x42c>
000000000001a988 <_ZN14ChiFeature2HDR11OnDumpEventEimjP24ChiFeature2RequestObject>:
   1a9d8: 84 12 00 b4  	cbz	x4, 0x1ac28 <_ZN14ChiFeature2HDR11OnDumpEventEimjP24ChiFeature2RequestObject+0x2a0>
   1a9f0: 20 9e 00 94  	bl	0x42270 <_ZNK15ChiFeature2Base21GetFeaturePrivContextEP24ChiFeature2RequestObject@plt>
   1a9f4: 20 17 00 b4  	cbz	x0, 0x1acd8 <_ZN14ChiFeature2HDR11OnDumpEventEimjP24ChiFeature2RequestObject+0x350>
   1a9fc: 82 ff ff b0  	adrp	x2, 0xb000 <_ZN14ChiFeature2HDR11OnDumpEventEimjP24ChiFeature2RequestObject+0x38>
   1aa14: 1b 9e 00 94  	bl	0x42280 <_ZN8CdkUtils8SNPrintFEPcmPKcz@plt>
   1aa20: a0 06 00 54  	b.eq	0x1aaf4 <_ZN14ChiFeature2HDR11OnDumpEventEimjP24ChiFeature2RequestObject+0x16c>
   1aaf4: 98 ff ff b0  	adrp	x24, 0xb000 <_ZN14ChiFeature2HDR11OnDumpEventEimjP24ChiFeature2RequestObject+0x130>
   1aaf8: b9 ff ff f0  	adrp	x25, 0x11000 <_ZN14ChiFeature2HDR11OnDumpEventEimjP24ChiFeature2RequestObject+0x14c>
   1ab18: ea 9d 00 94  	bl	0x422c0 <_ZN8ChxUtils7DPrintFEiPKcz@plt>
   1ab1c: a1 ff ff 90  	adrp	x1, 0xe000 <_ZN14ChiFeature2HDR11OnDumpEventEimjP24ChiFeature2RequestObject+0x164>
   1ab30: e4 9d 00 94  	bl	0x422c0 <_ZN8ChxUtils7DPrintFEiPKcz@plt>
   1ab44: df 9d 00 94  	bl	0x422c0 <_ZN8ChxUtils7DPrintFEiPKcz@plt>
   1ab4c: a1 ff ff d0  	adrp	x1, 0x10000 <_ZN14ChiFeature2HDR11OnDumpEventEimjP24ChiFeature2RequestObject+0x19c>
   1ab64: d7 9d 00 94  	bl	0x422c0 <_ZN8ChxUtils7DPrintFEiPKcz@plt>
   1ab68: c1 ff ff 90  	adrp	x1, 0x12000 <_ZN14ChiFeature2HDR11OnDumpEventEimjP24ChiFeature2RequestObject+0x1c0>
   1ab80: d0 9d 00 94  	bl	0x422c0 <_ZN8ChxUtils7DPrintFEiPKcz@plt>
   1ab88: 81 ff ff f0  	adrp	x1, 0xd000 <_ZN14ChiFeature2HDR11OnDumpEventEimjP24ChiFeature2RequestObject+0x1cc>
   1aba0: c8 9d 00 94  	bl	0x422c0 <_ZN8ChxUtils7DPrintFEiPKcz@plt>
   1aba8: a1 ff ff f0  	adrp	x1, 0x11000 <_ZN14ChiFeature2HDR11OnDumpEventEimjP24ChiFeature2RequestObject+0x1fc>
   1abc0: c0 9d 00 94  	bl	0x422c0 <_ZN8ChxUtils7DPrintFEiPKcz@plt>
   1abc4: c3 9d 00 94  	bl	0x422d0 <_ZN15ExtensionModule11GetInstanceEv@plt>
   1abd4: 60 0e 00 54  	b.eq	0x1ada0 <_ZN14ChiFeature2HDR11OnDumpEventEimjP24ChiFeature2RequestObject+0x418>
   1abf0: a1 0c 00 54  	b.ne	0x1ad84 <_ZN14ChiFeature2HDR11OnDumpEventEimjP24ChiFeature2RequestObject+0x3fc>
   1abf8: a1 0c 00 54  	b.ne	0x1ad8c <_ZN14ChiFeature2HDR11OnDumpEventEimjP24ChiFeature2RequestObject+0x404>
   1ac08: 21 0c 00 54  	b.ne	0x1ad8c <_ZN14ChiFeature2HDR11OnDumpEventEimjP24ChiFeature2RequestObject+0x404>
   1ac1c: 81 11 00 54  	b.ne	0x1ae4c <_ZN14ChiFeature2HDR11OnDumpEventEimjP24ChiFeature2RequestObject+0x4c4>
   1ac24: 60 00 00 14  	b	0x1ada4 <_ZN14ChiFeature2HDR11OnDumpEventEimjP24ChiFeature2RequestObject+0x41c>
   1ac28: 4a 01 00 d0  	adrp	x10, 0x44000 <_ZN14ChiFeature2HDR11OnDumpEventEimjP24ChiFeature2RequestObject+0x348>
   1ac34: 48 0f 00 36  	tbz	w8, #0, 0x1ae1c <_ZN14ChiFeature2HDR11OnDumpEventEimjP24ChiFeature2RequestObject+0x494>
   1ac38: 4b 01 00 d0  	adrp	x11, 0x44000 <_ZN14ChiFeature2HDR11OnDumpEventEimjP24ChiFeature2RequestObject+0x358>
   1ac48: 41 02 00 54  	b.ne	0x1ac90 <_ZN14ChiFeature2HDR11OnDumpEventEimjP24ChiFeature2RequestObject+0x308>
   1ac4c: b6 ff ff d0  	adrp	x22, 0x10000 <_ZN14ChiFeature2HDR11OnDumpEventEimjP24ChiFeature2RequestObject+0x29c>
   1ac68: c1 ff ff 90  	adrp	x1, 0x12000 <_ZN14ChiFeature2HDR11OnDumpEventEimjP24ChiFeature2RequestObject+0x2c0>
   1ac6c: a2 ff ff f0  	adrp	x2, 0x11000 <_ZN14ChiFeature2HDR11OnDumpEventEimjP24ChiFeature2RequestObject+0x2c0>
   1ac70: a5 ff ff b0  	adrp	x5, 0xf000 <_ZN14ChiFeature2HDR11OnDumpEventEimjP24ChiFeature2RequestObject+0x2bc>
   1ac90: b6 ff ff d0  	adrp	x22, 0x10000 <_ZN14ChiFeature2HDR11OnDumpEventEimjP24ChiFeature2RequestObject+0x2e0>
   1acac: c1 ff ff 90  	adrp	x1, 0x12000 <_ZN14ChiFeature2HDR11OnDumpEventEimjP24ChiFeature2RequestObject+0x304>
   1acb4: 80 ff ff b0  	adrp	x0, 0xb000 <_ZN14ChiFeature2HDR11OnDumpEventEimjP24ChiFeature2RequestObject+0x2f0>
   1acb8: a3 ff ff b0  	adrp	x3, 0xf000 <_ZN14ChiFeature2HDR11OnDumpEventEimjP24ChiFeature2RequestObject+0x304>
   1acbc: 85 ff ff d0  	adrp	x5, 0xc000 <_ZN14ChiFeature2HDR11OnDumpEventEimjP24ChiFeature2RequestObject+0x2fc>
   1acd4: 2a 00 00 14  	b	0x1ad7c <_ZN14ChiFeature2HDR11OnDumpEventEimjP24ChiFeature2RequestObject+0x3f4>
   1acd8: 41 01 00 d0  	adrp	x1, 0x44000 <_ZN14ChiFeature2HDR11OnDumpEventEimjP24ChiFeature2RequestObject+0x3f8>
   1ace4: cc 09 00 36  	tbz	w12, #0, 0x1ae1c <_ZN14ChiFeature2HDR11OnDumpEventEimjP24ChiFeature2RequestObject+0x494>
   1ace8: 42 01 00 d0  	adrp	x2, 0x44000 <_ZN14ChiFeature2HDR11OnDumpEventEimjP24ChiFeature2RequestObject+0x408>
   1acec: b6 ff ff d0  	adrp	x22, 0x10000 <_ZN14ChiFeature2HDR11OnDumpEventEimjP24ChiFeature2RequestObject+0x33c>
   1ad00: 01 02 00 54  	b.ne	0x1ad40 <_ZN14ChiFeature2HDR11OnDumpEventEimjP24ChiFeature2RequestObject+0x3b8>
   1ad18: c1 ff ff 90  	adrp	x1, 0x12000 <_ZN14ChiFeature2HDR11OnDumpEventEimjP24ChiFeature2RequestObject+0x370>
   1ad1c: a2 ff ff 90  	adrp	x2, 0xe000 <_ZN14ChiFeature2HDR11OnDumpEventEimjP24ChiFeature2RequestObject+0x364>
   1ad20: a5 ff ff b0  	adrp	x5, 0xf000 <_ZN14ChiFeature2HDR11OnDumpEventEimjP24ChiFeature2RequestObject+0x36c>
   1ad54: c1 ff ff 90  	adrp	x1, 0x12000 <_ZN14ChiFeature2HDR11OnDumpEventEimjP24ChiFeature2RequestObject+0x3ac>
   1ad5c: 80 ff ff b0  	adrp	x0, 0xb000 <_ZN14ChiFeature2HDR11OnDumpEventEimjP24ChiFeature2RequestObject+0x398>
   1ad60: a3 ff ff b0  	adrp	x3, 0xf000 <_ZN14ChiFeature2HDR11OnDumpEventEimjP24ChiFeature2RequestObject+0x3ac>
   1ad64: 85 ff ff b0  	adrp	x5, 0xb000 <_ZN14ChiFeature2HDR11OnDumpEventEimjP24ChiFeature2RequestObject+0x3a0>
   1ad7c: 11 9d 00 94  	bl	0x421c0 <_ZN6ChiLog9LogSystemEPKcS1_S1_S1_iS1_z@plt>
   1ad80: 27 00 00 14  	b	0x1ae1c <_ZN14ChiFeature2HDR11OnDumpEventEimjP24ChiFeature2RequestObject+0x494>
   1ad88: c1 00 00 54  	b.ne	0x1ada0 <_ZN14ChiFeature2HDR11OnDumpEventEimjP24ChiFeature2RequestObject+0x418>
   1ad9c: 02 00 00 14  	b	0x1ada4 <_ZN14ChiFeature2HDR11OnDumpEventEimjP24ChiFeature2RequestObject+0x41c>
   1ada4: b8 ff ff f0  	adrp	x24, 0x11000 <_ZN14ChiFeature2HDR11OnDumpEventEimjP24ChiFeature2RequestObject+0x3f8>
   1ada8: 81 ff ff 90  	adrp	x1, 0xa000 <_ZN14ChiFeature2HDR11OnDumpEventEimjP24ChiFeature2RequestObject+0x3e0>
   1adc0: 40 9d 00 94  	bl	0x422c0 <_ZN8ChxUtils7DPrintFEiPKcz@plt>
   1adc4: 43 9d 00 94  	bl	0x422d0 <_ZN15ExtensionModule11GetInstanceEv@plt>
   1adcc: 81 ff ff b0  	adrp	x1, 0xb000 <_ZN14ChiFeature2HDR11OnDumpEventEimjP24ChiFeature2RequestObject+0x408>
   1ade4: 37 9d 00 94  	bl	0x422c0 <_ZN8ChxUtils7DPrintFEiPKcz@plt>
   1adec: a1 ff ff 90  	adrp	x1, 0xe000 <_ZN14ChiFeature2HDR11OnDumpEventEimjP24ChiFeature2RequestObject+0x434>
   1ae00: 30 9d 00 94  	bl	0x422c0 <_ZN8ChxUtils7DPrintFEiPKcz@plt>
   1ae04: 81 ff ff b0  	adrp	x1, 0xb000 <_ZN14ChiFeature2HDR11OnDumpEventEimjP24ChiFeature2RequestObject+0x440>
   1ae18: 2a 9d 00 94  	bl	0x422c0 <_ZN8ChxUtils7DPrintFEiPKcz@plt>
   1ae28: 81 01 00 54  	b.ne	0x1ae58 <_ZN14ChiFeature2HDR11OnDumpEventEimjP24ChiFeature2RequestObject+0x4d0>
   1ae54: d1 ff ff 17  	b	0x1ad98 <_ZN14ChiFeature2HDR11OnDumpEventEimjP24ChiFeature2RequestObject+0x410>
000000000001ae60 <_ZN8CdkUtils8SNPrintFEPcmPKcz>:
   1aef8: c1 00 00 54  	b.ne	0x1af10 <_ZN8CdkUtils8SNPrintFEPcmPKcz+0xb0>
000000000001af18 <_ZN14ChiFeature2HDR23OnPreparePipelineCreateEP21ChiFeature2Identifier>:
   1af40: ec 9c 00 94  	bl	0x422f0 <_ZN15ChiFeature2Base23OnPreparePipelineCreateEP21ChiFeature2Identifier@plt>
   1af44: 40 04 00 35  	cbnz	w0, 0x1afcc <_ZN14ChiFeature2HDR23OnPreparePipelineCreateEP21ChiFeature2Identifier+0xb4>
   1af48: 13 04 00 b4  	cbz	x19, 0x1afc8 <_ZN14ChiFeature2HDR23OnPreparePipelineCreateEP21ChiFeature2Identifier+0xb0>
   1af5c: 62 03 00 54  	b.hs	0x1afc8 <_ZN14ChiFeature2HDR23OnPreparePipelineCreateEP21ChiFeature2Identifier+0xb0>
   1af64: 28 03 00 b4  	cbz	x8, 0x1afc8 <_ZN14ChiFeature2HDR23OnPreparePipelineCreateEP21ChiFeature2Identifier+0xb0>
   1af78: 82 02 00 54  	b.hs	0x1afc8 <_ZN14ChiFeature2HDR23OnPreparePipelineCreateEP21ChiFeature2Identifier+0xb0>
   1af80: 4c 02 00 b4  	cbz	x12, 0x1afc8 <_ZN14ChiFeature2HDR23OnPreparePipelineCreateEP21ChiFeature2Identifier+0xb0>
   1af88: 0d 02 00 b4  	cbz	x13, 0x1afc8 <_ZN14ChiFeature2HDR23OnPreparePipelineCreateEP21ChiFeature2Identifier+0xb0>
   1af90: c9 01 00 b4  	cbz	x9, 0x1afc8 <_ZN14ChiFeature2HDR23OnPreparePipelineCreateEP21ChiFeature2Identifier+0xb0>
   1af98: c1 ff ff 90  	adrp	x1, 0x12000 <_ZN14ChiFeature2HDR23OnPreparePipelineCreateEP21ChiFeature2Identifier+0x60>
   1afa0: a2 ff ff b0  	adrp	x2, 0xf000 <_ZN14ChiFeature2HDR23OnPreparePipelineCreateEP21ChiFeature2Identifier+0x5c>
   1afc4: 02 00 00 14  	b	0x1afcc <_ZN14ChiFeature2HDR23OnPreparePipelineCreateEP21ChiFeature2Identifier+0xb4>
   1afd8: c1 00 00 54  	b.ne	0x1aff0 <_ZN14ChiFeature2HDR23OnPreparePipelineCreateEP21ChiFeature2Identifier+0xd8>
000000000001aff8 <_ZNK14ChiFeature2HDR28OnPopulateDependencySettingsEP24ChiFeature2RequestObjecthPK21ChiFeature2IdentifierP11ChiMetadata>:
   1b030: b4 9c 00 94  	bl	0x42300 <_ZNK15ChiFeature2Base28OnPopulateDependencySettingsEP24ChiFeature2RequestObjecthPK21ChiFeature2IdentifierP11ChiMetadata@plt>
   1b04c: f3 0e 00 b4  	cbz	x19, 0x1b228 <_ZNK14ChiFeature2HDR28OnPopulateDependencySettingsEP24ChiFeature2RequestObjecthPK21ChiFeature2IdentifierP11ChiMetadata+0x230>
   1b050: d9 0e 00 b4  	cbz	x25, 0x1b228 <_ZNK14ChiFeature2HDR28OnPopulateDependencySettingsEP24ChiFeature2RequestObjecthPK21ChiFeature2IdentifierP11ChiMetadata+0x230>
   1b068: 80 0f 00 54  	b.eq	0x1b258 <_ZNK14ChiFeature2HDR28OnPopulateDependencySettingsEP24ChiFeature2RequestObjecthPK21ChiFeature2IdentifierP11ChiMetadata+0x260>
   1b074: c0 0f 00 54  	b.eq	0x1b26c <_ZNK14ChiFeature2HDR28OnPopulateDependencySettingsEP24ChiFeature2RequestObjecthPK21ChiFeature2IdentifierP11ChiMetadata+0x274>
   1b080: 00 10 00 54  	b.eq	0x1b280 <_ZNK14ChiFeature2HDR28OnPopulateDependencySettingsEP24ChiFeature2RequestObjecthPK21ChiFeature2IdentifierP11ChiMetadata+0x288>
   1b08c: 40 10 00 54  	b.eq	0x1b294 <_ZNK14ChiFeature2HDR28OnPopulateDependencySettingsEP24ChiFeature2RequestObjecthPK21ChiFeature2IdentifierP11ChiMetadata+0x29c>
   1b09c: c0 03 00 54  	b.eq	0x1b114 <_ZNK14ChiFeature2HDR28OnPopulateDependencySettingsEP24ChiFeature2RequestObjecthPK21ChiFeature2IdentifierP11ChiMetadata+0x11c>
   1b0a4: 8b 9c 00 94  	bl	0x422d0 <_ZN15ExtensionModule11GetInstanceEv@plt>
   1b0e4: a1 ff ff f0  	adrp	x1, 0x12000 <_ZNK14ChiFeature2HDR28OnPopulateDependencySettingsEP24ChiFeature2RequestObjecthPK21ChiFeature2IdentifierP11ChiMetadata+0xc8>
   1b0ec: a2 ff ff 90  	adrp	x2, 0xf000 <_ZNK14ChiFeature2HDR28OnPopulateDependencySettingsEP24ChiFeature2RequestObjecthPK21ChiFeature2IdentifierP11ChiMetadata+0xc4>
   1b11c: a0 0c 00 54  	b.eq	0x1b2b0 <_ZNK14ChiFeature2HDR28OnPopulateDependencySettingsEP24ChiFeature2RequestObjecthPK21ChiFeature2IdentifierP11ChiMetadata+0x2b8>
   1b128: 00 0e 00 54  	b.eq	0x1b2e8 <_ZNK14ChiFeature2HDR28OnPopulateDependencySettingsEP24ChiFeature2RequestObjecthPK21ChiFeature2IdentifierP11ChiMetadata+0x2f0>
   1b134: 81 01 00 54  	b.ne	0x1b164 <_ZNK14ChiFeature2HDR28OnPopulateDependencySettingsEP24ChiFeature2RequestObjecthPK21ChiFeature2IdentifierP11ChiMetadata+0x16c>
   1b1a0: 4c 9c 00 94  	bl	0x422d0 <_ZN15ExtensionModule11GetInstanceEv@plt>
   1b1e4: 21 02 00 54  	b.ne	0x1b228 <_ZNK14ChiFeature2HDR28OnPopulateDependencySettingsEP24ChiFeature2RequestObjecthPK21ChiFeature2IdentifierP11ChiMetadata+0x230>
   1b1f0: 20 9c 00 94  	bl	0x42270 <_ZNK15ChiFeature2Base21GetFeaturePrivContextEP24ChiFeature2RequestObject@plt>
   1b204: 21 01 00 54  	b.ne	0x1b228 <_ZNK14ChiFeature2HDR28OnPopulateDependencySettingsEP24ChiFeature2RequestObjecthPK21ChiFeature2IdentifierP11ChiMetadata+0x230>
   1b208: 32 9c 00 94  	bl	0x422d0 <_ZN15ExtensionModule11GetInstanceEv@plt>
   1b234: 81 07 00 54  	b.ne	0x1b324 <_ZNK14ChiFeature2HDR28OnPopulateDependencySettingsEP24ChiFeature2RequestObjecthPK21ChiFeature2IdentifierP11ChiMetadata+0x32c>
   1b268: 81 f0 ff 54  	b.ne	0x1b078 <_ZNK14ChiFeature2HDR28OnPopulateDependencySettingsEP24ChiFeature2RequestObjecthPK21ChiFeature2IdentifierP11ChiMetadata+0x80>
   1b27c: 41 f0 ff 54  	b.ne	0x1b084 <_ZNK14ChiFeature2HDR28OnPopulateDependencySettingsEP24ChiFeature2RequestObjecthPK21ChiFeature2IdentifierP11ChiMetadata+0x8c>
   1b290: 01 f0 ff 54  	b.ne	0x1b090 <_ZNK14ChiFeature2HDR28OnPopulateDependencySettingsEP24ChiFeature2RequestObjecthPK21ChiFeature2IdentifierP11ChiMetadata+0x98>
   1b2a8: c1 ef ff 54  	b.ne	0x1b0a0 <_ZNK14ChiFeature2HDR28OnPopulateDependencySettingsEP24ChiFeature2RequestObjecthPK21ChiFeature2IdentifierP11ChiMetadata+0xa8>
   1b2ac: 9a ff ff 17  	b	0x1b114 <_ZNK14ChiFeature2HDR28OnPopulateDependencySettingsEP24ChiFeature2RequestObjecthPK21ChiFeature2IdentifierP11ChiMetadata+0x11c>
   1b2e4: 41 f2 ff 54  	b.ne	0x1b12c <_ZNK14ChiFeature2HDR28OnPopulateDependencySettingsEP24ChiFeature2RequestObjecthPK21ChiFeature2IdentifierP11ChiMetadata+0x134>
   1b31c: e0 f0 ff 54  	b.eq	0x1b138 <_ZNK14ChiFeature2HDR28OnPopulateDependencySettingsEP24ChiFeature2RequestObjecthPK21ChiFeature2IdentifierP11ChiMetadata+0x140>
   1b320: 91 ff ff 17  	b	0x1b164 <_ZNK14ChiFeature2HDR28OnPopulateDependencySettingsEP24ChiFeature2RequestObjecthPK21ChiFeature2IdentifierP11ChiMetadata+0x16c>
000000000001b328 <_ZNK14ChiFeature2HDR28OnSelectFlowToExecuteRequestEP24ChiFeature2RequestObject>:
   1b334: cb 9b 00 94  	bl	0x42260 <_ZNK24ChiFeature2RequestObject23GetUsecaseRequestObjectEv@plt>
000000000001b350 <_ZNK14ChiFeature2HDR18Replace3ADebugDataEP11ChiMetadataS1_j>:
   1b37c: c1 06 00 b4  	cbz	x1, 0x1b454 <_ZNK14ChiFeature2HDR18Replace3ADebugDataEP11ChiMetadataS1_j+0x104>
   1b380: b4 06 00 b4  	cbz	x20, 0x1b454 <_ZNK14ChiFeature2HDR18Replace3ADebugDataEP11ChiMetadataS1_j+0x104>
   1b390: a3 0c 00 54  	b.lo	0x1b524 <_ZNK14ChiFeature2HDR18Replace3ADebugDataEP11ChiMetadataS1_j+0x1d4>
   1b394: 4a 01 00 b0  	adrp	x10, 0x44000 <_ZNK14ChiFeature2HDR18Replace3ADebugDataEP11ChiMetadataS1_j+0xe8>
   1b3a0: 2b 06 00 36  	tbz	w11, #0, 0x1b464 <_ZNK14ChiFeature2HDR18Replace3ADebugDataEP11ChiMetadataS1_j+0x114>
   1b3a4: 4b 01 00 b0  	adrp	x11, 0x44000 <_ZNK14ChiFeature2HDR18Replace3ADebugDataEP11ChiMetadataS1_j+0xf8>
   1b3b4: 61 02 00 54  	b.ne	0x1b400 <_ZNK14ChiFeature2HDR18Replace3ADebugDataEP11ChiMetadataS1_j+0xb0>
   1b3b8: b6 ff ff b0  	adrp	x22, 0x10000 <_ZNK14ChiFeature2HDR18Replace3ADebugDataEP11ChiMetadataS1_j+0x3c>
   1b3d4: a1 ff ff f0  	adrp	x1, 0x12000 <_ZNK14ChiFeature2HDR18Replace3ADebugDataEP11ChiMetadataS1_j+0x60>
   1b3d8: a2 ff ff f0  	adrp	x2, 0x12000 <_ZNK14ChiFeature2HDR18Replace3ADebugDataEP11ChiMetadataS1_j+0x64>
   1b3dc: 85 ff ff 90  	adrp	x5, 0xb000 <_ZNK14ChiFeature2HDR18Replace3ADebugDataEP11ChiMetadataS1_j+0x4c>
   1b400: b6 ff ff b0  	adrp	x22, 0x10000 <_ZNK14ChiFeature2HDR18Replace3ADebugDataEP11ChiMetadataS1_j+0x84>
   1b41c: a1 ff ff f0  	adrp	x1, 0x12000 <_ZNK14ChiFeature2HDR18Replace3ADebugDataEP11ChiMetadataS1_j+0xa8>
   1b424: 80 ff ff 90  	adrp	x0, 0xb000 <_ZNK14ChiFeature2HDR18Replace3ADebugDataEP11ChiMetadataS1_j+0x94>
   1b428: 83 ff ff 90  	adrp	x3, 0xb000 <_ZNK14ChiFeature2HDR18Replace3ADebugDataEP11ChiMetadataS1_j+0x98>
   1b42c: a5 ff ff b0  	adrp	x5, 0x10000 <_ZNK14ChiFeature2HDR18Replace3ADebugDataEP11ChiMetadataS1_j+0xb0>
   1b448: 5e 9b 00 94  	bl	0x421c0 <_ZN6ChiLog9LogSystemEPKcS1_S1_S1_iS1_z@plt>
   1b450: 1e 01 00 14  	b	0x1b8c8 <_ZNK14ChiFeature2HDR18Replace3ADebugDataEP11ChiMetadataS1_j+0x578>
   1b454: 48 01 00 b0  	adrp	x8, 0x44000 <_ZNK14ChiFeature2HDR18Replace3ADebugDataEP11ChiMetadataS1_j+0x1a8>
   1b460: 6a 00 00 37  	tbnz	w10, #0, 0x1b46c <_ZNK14ChiFeature2HDR18Replace3ADebugDataEP11ChiMetadataS1_j+0x11c>
   1b468: 18 01 00 14  	b	0x1b8c8 <_ZNK14ChiFeature2HDR18Replace3ADebugDataEP11ChiMetadataS1_j+0x578>
   1b46c: 49 01 00 b0  	adrp	x9, 0x44000 <_ZNK14ChiFeature2HDR18Replace3ADebugDataEP11ChiMetadataS1_j+0x1c0>
   1b47c: 81 02 00 54  	b.ne	0x1b4cc <_ZNK14ChiFeature2HDR18Replace3ADebugDataEP11ChiMetadataS1_j+0x17c>
   1b480: b6 ff ff b0  	adrp	x22, 0x10000 <_ZNK14ChiFeature2HDR18Replace3ADebugDataEP11ChiMetadataS1_j+0x104>
   1b49c: a1 ff ff f0  	adrp	x1, 0x12000 <_ZNK14ChiFeature2HDR18Replace3ADebugDataEP11ChiMetadataS1_j+0x128>
   1b4a0: a2 ff ff f0  	adrp	x2, 0x12000 <_ZNK14ChiFeature2HDR18Replace3ADebugDataEP11ChiMetadataS1_j+0x12c>
   1b4a4: 85 ff ff 90  	adrp	x5, 0xb000 <_ZNK14ChiFeature2HDR18Replace3ADebugDataEP11ChiMetadataS1_j+0x114>
   1b4cc: b6 ff ff b0  	adrp	x22, 0x10000 <_ZNK14ChiFeature2HDR18Replace3ADebugDataEP11ChiMetadataS1_j+0x150>
   1b4e8: a1 ff ff f0  	adrp	x1, 0x12000 <_ZNK14ChiFeature2HDR18Replace3ADebugDataEP11ChiMetadataS1_j+0x174>
   1b4f0: 80 ff ff 90  	adrp	x0, 0xb000 <_ZNK14ChiFeature2HDR18Replace3ADebugDataEP11ChiMetadataS1_j+0x160>
   1b4f4: 83 ff ff 90  	adrp	x3, 0xb000 <_ZNK14ChiFeature2HDR18Replace3ADebugDataEP11ChiMetadataS1_j+0x164>
   1b4f8: 85 ff ff b0  	adrp	x5, 0xc000 <_ZNK14ChiFeature2HDR18Replace3ADebugDataEP11ChiMetadataS1_j+0x16c>
   1b518: 2a 9b 00 94  	bl	0x421c0 <_ZN6ChiLog9LogSystemEPKcS1_S1_S1_iS1_z@plt>
   1b520: ea 00 00 14  	b	0x1b8c8 <_ZNK14ChiFeature2HDR18Replace3ADebugDataEP11ChiMetadataS1_j+0x578>
   1b524: 6b 9b 00 94  	bl	0x422d0 <_ZN15ExtensionModule11GetInstanceEv@plt>
   1b548: 0a 0c 00 b4  	cbz	x10, 0x1b6c8 <_ZNK14ChiFeature2HDR18Replace3ADebugDataEP11ChiMetadataS1_j+0x378>
   1b54c: 61 9b 00 94  	bl	0x422d0 <_ZN15ExtensionModule11GetInstanceEv@plt>
   1b574: d8 0a 00 b5  	cbnz	x24, 0x1b6cc <_ZNK14ChiFeature2HDR18Replace3ADebugDataEP11ChiMetadataS1_j+0x37c>
   1b578: 58 01 00 b0  	adrp	x24, 0x44000 <_ZNK14ChiFeature2HDR18Replace3ADebugDataEP11ChiMetadataS1_j+0x2cc>
   1b584: 48 05 30 36  	tbz	w8, #6, 0x1b62c <_ZNK14ChiFeature2HDR18Replace3ADebugDataEP11ChiMetadataS1_j+0x2dc>
   1b588: 4c 01 00 b0  	adrp	x12, 0x44000 <_ZNK14ChiFeature2HDR18Replace3ADebugDataEP11ChiMetadataS1_j+0x2dc>
   1b58c: b6 ff ff b0  	adrp	x22, 0x10000 <_ZNK14ChiFeature2HDR18Replace3ADebugDataEP11ChiMetadataS1_j+0x210>
   1b5a0: 21 02 00 54  	b.ne	0x1b5e4 <_ZNK14ChiFeature2HDR18Replace3ADebugDataEP11ChiMetadataS1_j+0x294>
   1b5b8: a1 ff ff f0  	adrp	x1, 0x12000 <_ZNK14ChiFeature2HDR18Replace3ADebugDataEP11ChiMetadataS1_j+0x244>
   1b5bc: a2 ff ff d0  	adrp	x2, 0x11000 <_ZNK14ChiFeature2HDR18Replace3ADebugDataEP11ChiMetadataS1_j+0x244>
   1b5c0: 85 ff ff d0  	adrp	x5, 0xd000 <_ZNK14ChiFeature2HDR18Replace3ADebugDataEP11ChiMetadataS1_j+0x238>
   1b5f8: 81 ff ff 90  	adrp	x1, 0xb000 <_ZNK14ChiFeature2HDR18Replace3ADebugDataEP11ChiMetadataS1_j+0x268>
   1b600: a0 ff ff b0  	adrp	x0, 0x10000 <_ZNK14ChiFeature2HDR18Replace3ADebugDataEP11ChiMetadataS1_j+0x284>
   1b604: 83 ff ff d0  	adrp	x3, 0xd000 <_ZNK14ChiFeature2HDR18Replace3ADebugDataEP11ChiMetadataS1_j+0x27c>
   1b608: 85 ff ff b0  	adrp	x5, 0xc000 <_ZNK14ChiFeature2HDR18Replace3ADebugDataEP11ChiMetadataS1_j+0x27c>
   1b624: e7 9a 00 94  	bl	0x421c0 <_ZN6ChiLog9LogSystemEPKcS1_S1_S1_iS1_z@plt>
   1b62c: e8 04 18 36  	tbz	w8, #3, 0x1b6c8 <_ZNK14ChiFeature2HDR18Replace3ADebugDataEP11ChiMetadataS1_j+0x378>
   1b630: 4d 01 00 b0  	adrp	x13, 0x44000 <_ZNK14ChiFeature2HDR18Replace3ADebugDataEP11ChiMetadataS1_j+0x384>
   1b634: b6 ff ff b0  	adrp	x22, 0x10000 <_ZNK14ChiFeature2HDR18Replace3ADebugDataEP11ChiMetadataS1_j+0x2b8>
   1b648: 01 02 00 54  	b.ne	0x1b688 <_ZNK14ChiFeature2HDR18Replace3ADebugDataEP11ChiMetadataS1_j+0x338>
   1b660: a1 ff ff f0  	adrp	x1, 0x12000 <_ZNK14ChiFeature2HDR18Replace3ADebugDataEP11ChiMetadataS1_j+0x2ec>
   1b664: 82 ff ff 90  	adrp	x2, 0xb000 <_ZNK14ChiFeature2HDR18Replace3ADebugDataEP11ChiMetadataS1_j+0x2d4>
   1b668: 85 ff ff 90  	adrp	x5, 0xb000 <_ZNK14ChiFeature2HDR18Replace3ADebugDataEP11ChiMetadataS1_j+0x2d8>
   1b69c: 81 ff ff f0  	adrp	x1, 0xe000 <_ZNK14ChiFeature2HDR18Replace3ADebugDataEP11ChiMetadataS1_j+0x318>
   1b6a4: a0 ff ff f0  	adrp	x0, 0x12000 <_ZNK14ChiFeature2HDR18Replace3ADebugDataEP11ChiMetadataS1_j+0x330>
   1b6a8: 83 ff ff 90  	adrp	x3, 0xb000 <_ZNK14ChiFeature2HDR18Replace3ADebugDataEP11ChiMetadataS1_j+0x318>
   1b6ac: a5 ff ff 90  	adrp	x5, 0xf000 <_ZNK14ChiFeature2HDR18Replace3ADebugDataEP11ChiMetadataS1_j+0x32c>
   1b6c4: bf 9a 00 94  	bl	0x421c0 <_ZN6ChiLog9LogSystemEPKcS1_S1_S1_iS1_z@plt>
   1b6cc: 01 9b 00 94  	bl	0x422d0 <_ZN15ExtensionModule11GetInstanceEv@plt>
   1b6f0: ad 0e 00 b4  	cbz	x13, 0x1b8c4 <_ZNK14ChiFeature2HDR18Replace3ADebugDataEP11ChiMetadataS1_j+0x574>
   1b6f4: f7 9a 00 94  	bl	0x422d0 <_ZN15ExtensionModule11GetInstanceEv@plt>
   1b71c: 94 07 00 b4  	cbz	x20, 0x1b80c <_ZNK14ChiFeature2HDR18Replace3ADebugDataEP11ChiMetadataS1_j+0x4bc>
   1b720: ec 9a 00 94  	bl	0x422d0 <_ZN15ExtensionModule11GetInstanceEv@plt>
   1b740: 50 01 00 b0  	adrp	x16, 0x44000 <_ZNK14ChiFeature2HDR18Replace3ADebugDataEP11ChiMetadataS1_j+0x494>
   1b750: 38 0d 00 b4  	cbz	x24, 0x1b8f4 <_ZNK14ChiFeature2HDR18Replace3ADebugDataEP11ChiMetadataS1_j+0x5a4>
   1b754: a9 0b 18 36  	tbz	w9, #3, 0x1b8c8 <_ZNK14ChiFeature2HDR18Replace3ADebugDataEP11ChiMetadataS1_j+0x578>
   1b758: 51 01 00 b0  	adrp	x17, 0x44000 <_ZNK14ChiFeature2HDR18Replace3ADebugDataEP11ChiMetadataS1_j+0x4ac>
   1b768: 81 02 00 54  	b.ne	0x1b7b8 <_ZNK14ChiFeature2HDR18Replace3ADebugDataEP11ChiMetadataS1_j+0x468>
   1b76c: b6 ff ff b0  	adrp	x22, 0x10000 <_ZNK14ChiFeature2HDR18Replace3ADebugDataEP11ChiMetadataS1_j+0x3f0>
   1b790: a1 ff ff f0  	adrp	x1, 0x12000 <_ZNK14ChiFeature2HDR18Replace3ADebugDataEP11ChiMetadataS1_j+0x41c>
   1b794: 62 ff ff f0  	adrp	x2, 0xa000 <_ZNK14ChiFeature2HDR18Replace3ADebugDataEP11ChiMetadataS1_j+0x400>
   1b798: 85 ff ff 90  	adrp	x5, 0xb000 <_ZNK14ChiFeature2HDR18Replace3ADebugDataEP11ChiMetadataS1_j+0x408>
   1b7b8: b6 ff ff b0  	adrp	x22, 0x10000 <_ZNK14ChiFeature2HDR18Replace3ADebugDataEP11ChiMetadataS1_j+0x43c>
   1b7e0: a0 ff ff f0  	adrp	x0, 0x12000 <_ZNK14ChiFeature2HDR18Replace3ADebugDataEP11ChiMetadataS1_j+0x46c>
   1b7e4: 81 ff ff f0  	adrp	x1, 0xe000 <_ZNK14ChiFeature2HDR18Replace3ADebugDataEP11ChiMetadataS1_j+0x460>
   1b7e8: 83 ff ff 90  	adrp	x3, 0xb000 <_ZNK14ChiFeature2HDR18Replace3ADebugDataEP11ChiMetadataS1_j+0x458>
   1b7ec: 85 ff ff b0  	adrp	x5, 0xc000 <_ZNK14ChiFeature2HDR18Replace3ADebugDataEP11ChiMetadataS1_j+0x460>
   1b804: 6f 9a 00 94  	bl	0x421c0 <_ZN6ChiLog9LogSystemEPKcS1_S1_S1_iS1_z@plt>
   1b808: 30 00 00 14  	b	0x1b8c8 <_ZNK14ChiFeature2HDR18Replace3ADebugDataEP11ChiMetadataS1_j+0x578>
   1b80c: 4e 01 00 b0  	adrp	x14, 0x44000 <_ZNK14ChiFeature2HDR18Replace3ADebugDataEP11ChiMetadataS1_j+0x560>
   1b818: 6c 05 30 36  	tbz	w12, #6, 0x1b8c4 <_ZNK14ChiFeature2HDR18Replace3ADebugDataEP11ChiMetadataS1_j+0x574>
   1b81c: 4f 01 00 b0  	adrp	x15, 0x44000 <_ZNK14ChiFeature2HDR18Replace3ADebugDataEP11ChiMetadataS1_j+0x570>
   1b82c: 61 02 00 54  	b.ne	0x1b878 <_ZNK14ChiFeature2HDR18Replace3ADebugDataEP11ChiMetadataS1_j+0x528>
   1b830: b6 ff ff b0  	adrp	x22, 0x10000 <_ZNK14ChiFeature2HDR18Replace3ADebugDataEP11ChiMetadataS1_j+0x4b4>
   1b84c: a1 ff ff f0  	adrp	x1, 0x12000 <_ZNK14ChiFeature2HDR18Replace3ADebugDataEP11ChiMetadataS1_j+0x4d8>
   1b850: a2 ff ff d0  	adrp	x2, 0x11000 <_ZNK14ChiFeature2HDR18Replace3ADebugDataEP11ChiMetadataS1_j+0x4d8>
   1b854: 85 ff ff d0  	adrp	x5, 0xd000 <_ZNK14ChiFeature2HDR18Replace3ADebugDataEP11ChiMetadataS1_j+0x4cc>
   1b878: b6 ff ff b0  	adrp	x22, 0x10000 <_ZNK14ChiFeature2HDR18Replace3ADebugDataEP11ChiMetadataS1_j+0x4fc>
   1b894: 81 ff ff 90  	adrp	x1, 0xb000 <_ZNK14ChiFeature2HDR18Replace3ADebugDataEP11ChiMetadataS1_j+0x504>
   1b89c: a0 ff ff b0  	adrp	x0, 0x10000 <_ZNK14ChiFeature2HDR18Replace3ADebugDataEP11ChiMetadataS1_j+0x520>
   1b8a0: 83 ff ff d0  	adrp	x3, 0xd000 <_ZNK14ChiFeature2HDR18Replace3ADebugDataEP11ChiMetadataS1_j+0x518>
   1b8a4: 85 ff ff b0  	adrp	x5, 0xc000 <_ZNK14ChiFeature2HDR18Replace3ADebugDataEP11ChiMetadataS1_j+0x518>
   1b8c0: 40 9a 00 94  	bl	0x421c0 <_ZN6ChiLog9LogSystemEPKcS1_S1_S1_iS1_z@plt>
   1b8d4: 41 06 00 54  	b.ne	0x1b99c <_ZNK14ChiFeature2HDR18Replace3ADebugDataEP11ChiMetadataS1_j+0x64c>
   1b8f4: a9 fe 1f 36  	tbz	w9, #3, 0x1b8c8 <_ZNK14ChiFeature2HDR18Replace3ADebugDataEP11ChiMetadataS1_j+0x578>
   1b8f8: 41 01 00 b0  	adrp	x1, 0x44000 <_ZNK14ChiFeature2HDR18Replace3ADebugDataEP11ChiMetadataS1_j+0x64c>
   1b908: 41 02 00 54  	b.ne	0x1b950 <_ZNK14ChiFeature2HDR18Replace3ADebugDataEP11ChiMetadataS1_j+0x600>
   1b90c: b6 ff ff b0  	adrp	x22, 0x10000 <_ZNK14ChiFeature2HDR18Replace3ADebugDataEP11ChiMetadataS1_j+0x590>
   1b928: a1 ff ff f0  	adrp	x1, 0x12000 <_ZNK14ChiFeature2HDR18Replace3ADebugDataEP11ChiMetadataS1_j+0x5b4>
   1b92c: a2 ff ff f0  	adrp	x2, 0x12000 <_ZNK14ChiFeature2HDR18Replace3ADebugDataEP11ChiMetadataS1_j+0x5b8>
   1b930: 85 ff ff 90  	adrp	x5, 0xb000 <_ZNK14ChiFeature2HDR18Replace3ADebugDataEP11ChiMetadataS1_j+0x5a0>
   1b950: b6 ff ff b0  	adrp	x22, 0x10000 <_ZNK14ChiFeature2HDR18Replace3ADebugDataEP11ChiMetadataS1_j+0x5d4>
   1b96c: 81 ff ff f0  	adrp	x1, 0xe000 <_ZNK14ChiFeature2HDR18Replace3ADebugDataEP11ChiMetadataS1_j+0x5e8>
   1b974: a0 ff ff f0  	adrp	x0, 0x12000 <_ZNK14ChiFeature2HDR18Replace3ADebugDataEP11ChiMetadataS1_j+0x600>
   1b978: 83 ff ff 90  	adrp	x3, 0xb000 <_ZNK14ChiFeature2HDR18Replace3ADebugDataEP11ChiMetadataS1_j+0x5e8>
   1b97c: a5 ff ff d0  	adrp	x5, 0x11000 <_ZNK14ChiFeature2HDR18Replace3ADebugDataEP11ChiMetadataS1_j+0x604>
   1b994: 0b 9a 00 94  	bl	0x421c0 <_ZN6ChiLog9LogSystemEPKcS1_S1_S1_iS1_z@plt>
   1b998: cc ff ff 17  	b	0x1b8c8 <_ZNK14ChiFeature2HDR18Replace3ADebugDataEP11ChiMetadataS1_j+0x578>
000000000001b9a0 <_ZNK14ChiFeature2HDR20MergeAECFrameControlEP11ChiMetadataS1_S1_P15ChiFeature2Hint>:
   1b9e8: 41 07 00 b4  	cbz	x1, 0x1bad0 <_ZNK14ChiFeature2HDR20MergeAECFrameControlEP11ChiMetadataS1_S1_P15ChiFeature2Hint+0x130>
   1b9ec: 33 07 00 b4  	cbz	x19, 0x1bad0 <_ZNK14ChiFeature2HDR20MergeAECFrameControlEP11ChiMetadataS1_S1_P15ChiFeature2Hint+0x130>
   1b9f0: b6 ff ff b0  	adrp	x22, 0x10000 <_ZNK14ChiFeature2HDR20MergeAECFrameControlEP11ChiMetadataS1_S1_P15ChiFeature2Hint+0x24>
   1b9f4: 98 ff ff b0  	adrp	x24, 0xc000 <_ZNK14ChiFeature2HDR20MergeAECFrameControlEP11ChiMetadataS1_S1_P15ChiFeature2Hint+0x18>
   1ba54: f4 09 00 b4  	cbz	x20, 0x1bb90 <_ZNK14ChiFeature2HDR20MergeAECFrameControlEP11ChiMetadataS1_S1_P15ChiFeature2Hint+0x1f0>
   1ba58: d6 09 00 b4  	cbz	x22, 0x1bb90 <_ZNK14ChiFeature2HDR20MergeAECFrameControlEP11ChiMetadataS1_S1_P15ChiFeature2Hint+0x1f0>
   1ba7c: 37 10 00 b4  	cbz	x23, 0x1bc80 <_ZNK14ChiFeature2HDR20MergeAECFrameControlEP11ChiMetadataS1_S1_P15ChiFeature2Hint+0x2e0>
   1ba84: e1 0f 00 54  	b.ne	0x1bc80 <_ZNK14ChiFeature2HDR20MergeAECFrameControlEP11ChiMetadataS1_S1_P15ChiFeature2Hint+0x2e0>
   1ba8c: a1 ff ff b0  	adrp	x1, 0x10000 <_ZNK14ChiFeature2HDR20MergeAECFrameControlEP11ChiMetadataS1_S1_P15ChiFeature2Hint+0xc0>
   1ba94: 82 ff ff b0  	adrp	x2, 0xc000 <_ZNK14ChiFeature2HDR20MergeAECFrameControlEP11ChiMetadataS1_S1_P15ChiFeature2Hint+0xb8>
   1bab4: ca 0f 00 b4  	cbz	x10, 0x1bcac <_ZNK14ChiFeature2HDR20MergeAECFrameControlEP11ChiMetadataS1_S1_P15ChiFeature2Hint+0x30c>
   1bacc: a5 00 00 14  	b	0x1bd60 <_ZNK14ChiFeature2HDR20MergeAECFrameControlEP11ChiMetadataS1_S1_P15ChiFeature2Hint+0x3c0>
   1bad0: 4c 01 00 b0  	adrp	x12, 0x44000 <_ZNK14ChiFeature2HDR20MergeAECFrameControlEP11ChiMetadataS1_S1_P15ChiFeature2Hint+0x1d4>
   1badc: 68 0b 00 36  	tbz	w8, #0, 0x1bc48 <_ZNK14ChiFeature2HDR20MergeAECFrameControlEP11ChiMetadataS1_S1_P15ChiFeature2Hint+0x2a8>
   1bae0: 4d 01 00 b0  	adrp	x13, 0x44000 <_ZNK14ChiFeature2HDR20MergeAECFrameControlEP11ChiMetadataS1_S1_P15ChiFeature2Hint+0x1e4>
   1baf0: 81 02 00 54  	b.ne	0x1bb40 <_ZNK14ChiFeature2HDR20MergeAECFrameControlEP11ChiMetadataS1_S1_P15ChiFeature2Hint+0x1a0>
   1baf4: b5 ff ff b0  	adrp	x21, 0x10000 <_ZNK14ChiFeature2HDR20MergeAECFrameControlEP11ChiMetadataS1_S1_P15ChiFeature2Hint+0x128>
   1bb10: a1 ff ff f0  	adrp	x1, 0x12000 <_ZNK14ChiFeature2HDR20MergeAECFrameControlEP11ChiMetadataS1_S1_P15ChiFeature2Hint+0x14c>
   1bb14: 82 ff ff 90  	adrp	x2, 0xb000 <_ZNK14ChiFeature2HDR20MergeAECFrameControlEP11ChiMetadataS1_S1_P15ChiFeature2Hint+0x134>
   1bb18: 85 ff ff 90  	adrp	x5, 0xb000 <_ZNK14ChiFeature2HDR20MergeAECFrameControlEP11ChiMetadataS1_S1_P15ChiFeature2Hint+0x138>
   1bb40: b5 ff ff b0  	adrp	x21, 0x10000 <_ZNK14ChiFeature2HDR20MergeAECFrameControlEP11ChiMetadataS1_S1_P15ChiFeature2Hint+0x174>
   1bb5c: a1 ff ff f0  	adrp	x1, 0x12000 <_ZNK14ChiFeature2HDR20MergeAECFrameControlEP11ChiMetadataS1_S1_P15ChiFeature2Hint+0x198>
   1bb64: 80 ff ff 90  	adrp	x0, 0xb000 <_ZNK14ChiFeature2HDR20MergeAECFrameControlEP11ChiMetadataS1_S1_P15ChiFeature2Hint+0x184>
   1bb68: 83 ff ff 90  	adrp	x3, 0xb000 <_ZNK14ChiFeature2HDR20MergeAECFrameControlEP11ChiMetadataS1_S1_P15ChiFeature2Hint+0x188>
   1bb6c: a5 ff ff d0  	adrp	x5, 0x11000 <_ZNK14ChiFeature2HDR20MergeAECFrameControlEP11ChiMetadataS1_S1_P15ChiFeature2Hint+0x1a4>
   1bb8c: 2e 00 00 14  	b	0x1bc44 <_ZNK14ChiFeature2HDR20MergeAECFrameControlEP11ChiMetadataS1_S1_P15ChiFeature2Hint+0x2a4>
   1bb90: 45 01 00 b0  	adrp	x5, 0x44000 <_ZNK14ChiFeature2HDR20MergeAECFrameControlEP11ChiMetadataS1_S1_P15ChiFeature2Hint+0x294>
   1bb9c: 6b 05 00 36  	tbz	w11, #0, 0x1bc48 <_ZNK14ChiFeature2HDR20MergeAECFrameControlEP11ChiMetadataS1_S1_P15ChiFeature2Hint+0x2a8>
   1bba0: 46 01 00 b0  	adrp	x6, 0x44000 <_ZNK14ChiFeature2HDR20MergeAECFrameControlEP11ChiMetadataS1_S1_P15ChiFeature2Hint+0x2a4>
   1bba4: b3 ff ff b0  	adrp	x19, 0x10000 <_ZNK14ChiFeature2HDR20MergeAECFrameControlEP11ChiMetadataS1_S1_P15ChiFeature2Hint+0x1d8>
   1bbb8: 41 02 00 54  	b.ne	0x1bc00 <_ZNK14ChiFeature2HDR20MergeAECFrameControlEP11ChiMetadataS1_S1_P15ChiFeature2Hint+0x260>
   1bbd0: a1 ff ff f0  	adrp	x1, 0x12000 <_ZNK14ChiFeature2HDR20MergeAECFrameControlEP11ChiMetadataS1_S1_P15ChiFeature2Hint+0x20c>
   1bbd4: 82 ff ff d0  	adrp	x2, 0xd000 <_ZNK14ChiFeature2HDR20MergeAECFrameControlEP11ChiMetadataS1_S1_P15ChiFeature2Hint+0x1fc>
   1bbd8: 85 ff ff 90  	adrp	x5, 0xb000 <_ZNK14ChiFeature2HDR20MergeAECFrameControlEP11ChiMetadataS1_S1_P15ChiFeature2Hint+0x1f8>
   1bc14: a1 ff ff f0  	adrp	x1, 0x12000 <_ZNK14ChiFeature2HDR20MergeAECFrameControlEP11ChiMetadataS1_S1_P15ChiFeature2Hint+0x250>
   1bc1c: 80 ff ff 90  	adrp	x0, 0xb000 <_ZNK14ChiFeature2HDR20MergeAECFrameControlEP11ChiMetadataS1_S1_P15ChiFeature2Hint+0x23c>
   1bc20: 83 ff ff 90  	adrp	x3, 0xb000 <_ZNK14ChiFeature2HDR20MergeAECFrameControlEP11ChiMetadataS1_S1_P15ChiFeature2Hint+0x240>
   1bc24: a5 ff ff b0  	adrp	x5, 0x10000 <_ZNK14ChiFeature2HDR20MergeAECFrameControlEP11ChiMetadataS1_S1_P15ChiFeature2Hint+0x258>
   1bc44: 5f 99 00 94  	bl	0x421c0 <_ZN6ChiLog9LogSystemEPKcS1_S1_S1_iS1_z@plt>
   1bc58: 81 17 00 54  	b.ne	0x1bf48 <_ZNK14ChiFeature2HDR20MergeAECFrameControlEP11ChiMetadataS1_S1_P15ChiFeature2Hint+0x5a8>
   1bc84: 01 01 00 54  	b.ne	0x1bca4 <_ZNK14ChiFeature2HDR20MergeAECFrameControlEP11ChiMetadataS1_S1_P15ChiFeature2Hint+0x304>
   1bca0: 30 00 00 14  	b	0x1bd60 <_ZNK14ChiFeature2HDR20MergeAECFrameControlEP11ChiMetadataS1_S1_P15ChiFeature2Hint+0x3c0>
   1bca8: 2e 00 00 14  	b	0x1bd60 <_ZNK14ChiFeature2HDR20MergeAECFrameControlEP11ChiMetadataS1_S1_P15ChiFeature2Hint+0x3c0>
   1bcac: 4e 01 00 b0  	adrp	x14, 0x44000 <_ZNK14ChiFeature2HDR20MergeAECFrameControlEP11ChiMetadataS1_S1_P15ChiFeature2Hint+0x3b0>
   1bcb8: 29 05 00 36  	tbz	w9, #0, 0x1bd5c <_ZNK14ChiFeature2HDR20MergeAECFrameControlEP11ChiMetadataS1_S1_P15ChiFeature2Hint+0x3bc>
   1bcbc: 4f 01 00 b0  	adrp	x15, 0x44000 <_ZNK14ChiFeature2HDR20MergeAECFrameControlEP11ChiMetadataS1_S1_P15ChiFeature2Hint+0x3c0>
   1bccc: 41 02 00 54  	b.ne	0x1bd14 <_ZNK14ChiFeature2HDR20MergeAECFrameControlEP11ChiMetadataS1_S1_P15ChiFeature2Hint+0x374>
   1bcd0: b6 ff ff b0  	adrp	x22, 0x10000 <_ZNK14ChiFeature2HDR20MergeAECFrameControlEP11ChiMetadataS1_S1_P15ChiFeature2Hint+0x304>
   1bcec: a1 ff ff f0  	adrp	x1, 0x12000 <_ZNK14ChiFeature2HDR20MergeAECFrameControlEP11ChiMetadataS1_S1_P15ChiFeature2Hint+0x328>
   1bcf0: 82 ff ff 90  	adrp	x2, 0xb000 <_ZNK14ChiFeature2HDR20MergeAECFrameControlEP11ChiMetadataS1_S1_P15ChiFeature2Hint+0x310>
   1bcf4: 85 ff ff 90  	adrp	x5, 0xb000 <_ZNK14ChiFeature2HDR20MergeAECFrameControlEP11ChiMetadataS1_S1_P15ChiFeature2Hint+0x314>
   1bd14: b8 ff ff b0  	adrp	x24, 0x10000 <_ZNK14ChiFeature2HDR20MergeAECFrameControlEP11ChiMetadataS1_S1_P15ChiFeature2Hint+0x348>
   1bd30: a1 ff ff f0  	adrp	x1, 0x12000 <_ZNK14ChiFeature2HDR20MergeAECFrameControlEP11ChiMetadataS1_S1_P15ChiFeature2Hint+0x36c>
   1bd38: 80 ff ff 90  	adrp	x0, 0xb000 <_ZNK14ChiFeature2HDR20MergeAECFrameControlEP11ChiMetadataS1_S1_P15ChiFeature2Hint+0x358>
   1bd3c: 83 ff ff 90  	adrp	x3, 0xb000 <_ZNK14ChiFeature2HDR20MergeAECFrameControlEP11ChiMetadataS1_S1_P15ChiFeature2Hint+0x35c>
   1bd40: a5 ff ff f0  	adrp	x5, 0x12000 <_ZNK14ChiFeature2HDR20MergeAECFrameControlEP11ChiMetadataS1_S1_P15ChiFeature2Hint+0x37c>
   1bd58: 1a 99 00 94  	bl	0x421c0 <_ZN6ChiLog9LogSystemEPKcS1_S1_S1_iS1_z@plt>
   1bd60: 5c 99 00 94  	bl	0x422d0 <_ZN15ExtensionModule11GetInstanceEv@plt>
   1bd70: 60 03 00 54  	b.eq	0x1bddc <_ZNK14ChiFeature2HDR20MergeAECFrameControlEP11ChiMetadataS1_S1_P15ChiFeature2Hint+0x43c>
   1bd8c: c1 01 00 54  	b.ne	0x1bdc4 <_ZNK14ChiFeature2HDR20MergeAECFrameControlEP11ChiMetadataS1_S1_P15ChiFeature2Hint+0x424>
   1bd94: c1 01 00 54  	b.ne	0x1bdcc <_ZNK14ChiFeature2HDR20MergeAECFrameControlEP11ChiMetadataS1_S1_P15ChiFeature2Hint+0x42c>
   1bda4: 41 01 00 54  	b.ne	0x1bdcc <_ZNK14ChiFeature2HDR20MergeAECFrameControlEP11ChiMetadataS1_S1_P15ChiFeature2Hint+0x42c>
   1bdb8: a0 09 00 54  	b.eq	0x1beec <_ZNK14ChiFeature2HDR20MergeAECFrameControlEP11ChiMetadataS1_S1_P15ChiFeature2Hint+0x54c>
   1bdc0: 04 00 00 14  	b	0x1bdd0 <_ZNK14ChiFeature2HDR20MergeAECFrameControlEP11ChiMetadataS1_S1_P15ChiFeature2Hint+0x430>
   1bdc8: a1 00 00 54  	b.ne	0x1bddc <_ZNK14ChiFeature2HDR20MergeAECFrameControlEP11ChiMetadataS1_S1_P15ChiFeature2Hint+0x43c>
   1bdd8: a0 08 00 54  	b.eq	0x1beec <_ZNK14ChiFeature2HDR20MergeAECFrameControlEP11ChiMetadataS1_S1_P15ChiFeature2Hint+0x54c>
   1bde0: 42 01 00 b0  	adrp	x2, 0x44000 <_ZNK14ChiFeature2HDR20MergeAECFrameControlEP11ChiMetadataS1_S1_P15ChiFeature2Hint+0x4e4>
   1be04: 4a 07 28 36  	tbz	w10, #5, 0x1beec <_ZNK14ChiFeature2HDR20MergeAECFrameControlEP11ChiMetadataS1_S1_P15ChiFeature2Hint+0x54c>
   1be08: 43 01 00 b0  	adrp	x3, 0x44000 <_ZNK14ChiFeature2HDR20MergeAECFrameControlEP11ChiMetadataS1_S1_P15ChiFeature2Hint+0x50c>
   1be24: 21 03 00 54  	b.ne	0x1be88 <_ZNK14ChiFeature2HDR20MergeAECFrameControlEP11ChiMetadataS1_S1_P15ChiFeature2Hint+0x4e8>
   1be28: b5 ff ff b0  	adrp	x21, 0x10000 <_ZNK14ChiFeature2HDR20MergeAECFrameControlEP11ChiMetadataS1_S1_P15ChiFeature2Hint+0x45c>
   1be58: a1 ff ff f0  	adrp	x1, 0x12000 <_ZNK14ChiFeature2HDR20MergeAECFrameControlEP11ChiMetadataS1_S1_P15ChiFeature2Hint+0x494>
   1be5c: a2 ff ff f0  	adrp	x2, 0x12000 <_ZNK14ChiFeature2HDR20MergeAECFrameControlEP11ChiMetadataS1_S1_P15ChiFeature2Hint+0x498>
   1be64: 85 ff ff 90  	adrp	x5, 0xb000 <_ZNK14ChiFeature2HDR20MergeAECFrameControlEP11ChiMetadataS1_S1_P15ChiFeature2Hint+0x484>
   1be88: b6 ff ff b0  	adrp	x22, 0x10000 <_ZNK14ChiFeature2HDR20MergeAECFrameControlEP11ChiMetadataS1_S1_P15ChiFeature2Hint+0x4bc>
   1bebc: a0 ff ff d0  	adrp	x0, 0x11000 <_ZNK14ChiFeature2HDR20MergeAECFrameControlEP11ChiMetadataS1_S1_P15ChiFeature2Hint+0x4f4>
   1bec4: a1 ff ff 90  	adrp	x1, 0xf000 <_ZNK14ChiFeature2HDR20MergeAECFrameControlEP11ChiMetadataS1_S1_P15ChiFeature2Hint+0x4f4>
   1becc: 83 ff ff 90  	adrp	x3, 0xb000 <_ZNK14ChiFeature2HDR20MergeAECFrameControlEP11ChiMetadataS1_S1_P15ChiFeature2Hint+0x4ec>
   1bed0: a5 ff ff b0  	adrp	x5, 0x10000 <_ZNK14ChiFeature2HDR20MergeAECFrameControlEP11ChiMetadataS1_S1_P15ChiFeature2Hint+0x504>
   1bee8: b6 98 00 94  	bl	0x421c0 <_ZN6ChiLog9LogSystemEPKcS1_S1_S1_iS1_z@plt>
   1bef0: a1 ff ff b0  	adrp	x1, 0x10000 <_ZNK14ChiFeature2HDR20MergeAECFrameControlEP11ChiMetadataS1_S1_P15ChiFeature2Hint+0x524>
   1bef4: 82 ff ff b0  	adrp	x2, 0xc000 <_ZNK14ChiFeature2HDR20MergeAECFrameControlEP11ChiMetadataS1_S1_P15ChiFeature2Hint+0x518>
   1bf44: c0 e8 ff 54  	b.eq	0x1bc5c <_ZNK14ChiFeature2HDR20MergeAECFrameControlEP11ChiMetadataS1_S1_P15ChiFeature2Hint+0x2bc>
000000000001bf50 <_ZNK14ChiFeature2HDR23QLLMergeAECFrameControlEP11ChiMetadataS1_S1_23ChiFeature2ExposureType>:
   1bf80: 5c 01 00 b0  	adrp	x28, 0x44000 <_ZNK14ChiFeature2HDR23QLLMergeAECFrameControlEP11ChiMetadataS1_S1_23ChiFeature2ExposureType+0xd4>
   1bfbc: 41 05 00 b4  	cbz	x1, 0x1c064 <_ZNK14ChiFeature2HDR23QLLMergeAECFrameControlEP11ChiMetadataS1_S1_23ChiFeature2ExposureType+0x114>
   1bfc0: 35 05 00 b4  	cbz	x21, 0x1c064 <_ZNK14ChiFeature2HDR23QLLMergeAECFrameControlEP11ChiMetadataS1_S1_23ChiFeature2ExposureType+0x114>
   1bfc8: b7 ff ff b0  	adrp	x23, 0x10000 <_ZNK14ChiFeature2HDR23QLLMergeAECFrameControlEP11ChiMetadataS1_S1_23ChiFeature2ExposureType+0x4c>
   1bfcc: 9a ff ff b0  	adrp	x26, 0xc000 <_ZNK14ChiFeature2HDR23QLLMergeAECFrameControlEP11ChiMetadataS1_S1_23ChiFeature2ExposureType+0x40>
   1c028: 36 08 00 b4  	cbz	x22, 0x1c12c <_ZNK14ChiFeature2HDR23QLLMergeAECFrameControlEP11ChiMetadataS1_S1_23ChiFeature2ExposureType+0x1dc>
   1c030: a1 ff ff 90  	adrp	x1, 0x10000 <_ZNK14ChiFeature2HDR23QLLMergeAECFrameControlEP11ChiMetadataS1_S1_23ChiFeature2ExposureType+0xb0>
   1c038: 82 ff ff 90  	adrp	x2, 0xc000 <_ZNK14ChiFeature2HDR23QLLMergeAECFrameControlEP11ChiMetadataS1_S1_23ChiFeature2ExposureType+0xa8>
   1c05c: fb 06 00 b5  	cbnz	x27, 0x1c138 <_ZNK14ChiFeature2HDR23QLLMergeAECFrameControlEP11ChiMetadataS1_S1_23ChiFeature2ExposureType+0x1e8>
   1c060: 6b 00 00 14  	b	0x1c20c <_ZNK14ChiFeature2HDR23QLLMergeAECFrameControlEP11ChiMetadataS1_S1_23ChiFeature2ExposureType+0x2bc>
   1c068: 6b 00 00 37  	tbnz	w11, #0, 0x1c074 <_ZNK14ChiFeature2HDR23QLLMergeAECFrameControlEP11ChiMetadataS1_S1_23ChiFeature2ExposureType+0x124>
   1c070: ea 02 00 14  	b	0x1cc18 <_ZNK14ChiFeature2HDR23QLLMergeAECFrameControlEP11ChiMetadataS1_S1_23ChiFeature2ExposureType+0xcc8>
   1c074: 4a 01 00 90  	adrp	x10, 0x44000 <_ZNK14ChiFeature2HDR23QLLMergeAECFrameControlEP11ChiMetadataS1_S1_23ChiFeature2ExposureType+0x1c4>
   1c084: 81 02 00 54  	b.ne	0x1c0d4 <_ZNK14ChiFeature2HDR23QLLMergeAECFrameControlEP11ChiMetadataS1_S1_23ChiFeature2ExposureType+0x184>
   1c088: b3 ff ff 90  	adrp	x19, 0x10000 <_ZNK14ChiFeature2HDR23QLLMergeAECFrameControlEP11ChiMetadataS1_S1_23ChiFeature2ExposureType+0x108>
   1c0a4: a1 ff ff d0  	adrp	x1, 0x12000 <_ZNK14ChiFeature2HDR23QLLMergeAECFrameControlEP11ChiMetadataS1_S1_23ChiFeature2ExposureType+0x12c>
   1c0a8: 62 ff ff f0  	adrp	x2, 0xb000 <_ZNK14ChiFeature2HDR23QLLMergeAECFrameControlEP11ChiMetadataS1_S1_23ChiFeature2ExposureType+0x114>
   1c0ac: a5 ff ff d0  	adrp	x5, 0x12000 <_ZNK14ChiFeature2HDR23QLLMergeAECFrameControlEP11ChiMetadataS1_S1_23ChiFeature2ExposureType+0x134>
   1c0d4: b3 ff ff 90  	adrp	x19, 0x10000 <_ZNK14ChiFeature2HDR23QLLMergeAECFrameControlEP11ChiMetadataS1_S1_23ChiFeature2ExposureType+0x154>
   1c0f0: a1 ff ff d0  	adrp	x1, 0x12000 <_ZNK14ChiFeature2HDR23QLLMergeAECFrameControlEP11ChiMetadataS1_S1_23ChiFeature2ExposureType+0x178>
   1c0f8: 60 ff ff f0  	adrp	x0, 0xb000 <_ZNK14ChiFeature2HDR23QLLMergeAECFrameControlEP11ChiMetadataS1_S1_23ChiFeature2ExposureType+0x164>
   1c0fc: a3 ff ff d0  	adrp	x3, 0x12000 <_ZNK14ChiFeature2HDR23QLLMergeAECFrameControlEP11ChiMetadataS1_S1_23ChiFeature2ExposureType+0x184>
   1c100: a5 ff ff b0  	adrp	x5, 0x11000 <_ZNK14ChiFeature2HDR23QLLMergeAECFrameControlEP11ChiMetadataS1_S1_23ChiFeature2ExposureType+0x184>
   1c120: 28 98 00 94  	bl	0x421c0 <_ZN6ChiLog9LogSystemEPKcS1_S1_S1_iS1_z@plt>
   1c128: bc 02 00 14  	b	0x1cc18 <_ZNK14ChiFeature2HDR23QLLMergeAECFrameControlEP11ChiMetadataS1_S1_23ChiFeature2ExposureType+0xcc8>
   1c134: db 06 00 b4  	cbz	x27, 0x1c20c <_ZNK14ChiFeature2HDR23QLLMergeAECFrameControlEP11ChiMetadataS1_S1_23ChiFeature2ExposureType+0x2bc>
   1c138: b7 06 00 b4  	cbz	x23, 0x1c20c <_ZNK14ChiFeature2HDR23QLLMergeAECFrameControlEP11ChiMetadataS1_S1_23ChiFeature2ExposureType+0x2bc>
   1c14c: 3a 0c 00 b5  	cbnz	x26, 0x1c2d0 <_ZNK14ChiFeature2HDR23QLLMergeAECFrameControlEP11ChiMetadataS1_S1_23ChiFeature2ExposureType+0x380>
   1c154: ed 0b 00 34  	cbz	w13, 0x1c2d0 <_ZNK14ChiFeature2HDR23QLLMergeAECFrameControlEP11ChiMetadataS1_S1_23ChiFeature2ExposureType+0x380>
   1c15c: 4e 0b 00 36  	tbz	w14, #0, 0x1c2c4 <_ZNK14ChiFeature2HDR23QLLMergeAECFrameControlEP11ChiMetadataS1_S1_23ChiFeature2ExposureType+0x374>
   1c160: 4c 01 00 90  	adrp	x12, 0x44000 <_ZNK14ChiFeature2HDR23QLLMergeAECFrameControlEP11ChiMetadataS1_S1_23ChiFeature2ExposureType+0x2b0>
   1c174: 41 02 00 54  	b.ne	0x1c1bc <_ZNK14ChiFeature2HDR23QLLMergeAECFrameControlEP11ChiMetadataS1_S1_23ChiFeature2ExposureType+0x26c>
   1c178: b7 ff ff 90  	adrp	x23, 0x10000 <_ZNK14ChiFeature2HDR23QLLMergeAECFrameControlEP11ChiMetadataS1_S1_23ChiFeature2ExposureType+0x1f8>
   1c194: a1 ff ff d0  	adrp	x1, 0x12000 <_ZNK14ChiFeature2HDR23QLLMergeAECFrameControlEP11ChiMetadataS1_S1_23ChiFeature2ExposureType+0x21c>
   1c198: a2 ff ff 90  	adrp	x2, 0x10000 <_ZNK14ChiFeature2HDR23QLLMergeAECFrameControlEP11ChiMetadataS1_S1_23ChiFeature2ExposureType+0x218>
   1c19c: a5 ff ff d0  	adrp	x5, 0x12000 <_ZNK14ChiFeature2HDR23QLLMergeAECFrameControlEP11ChiMetadataS1_S1_23ChiFeature2ExposureType+0x224>
   1c1bc: b3 ff ff 90  	adrp	x19, 0x10000 <_ZNK14ChiFeature2HDR23QLLMergeAECFrameControlEP11ChiMetadataS1_S1_23ChiFeature2ExposureType+0x23c>
   1c1d8: a1 ff ff d0  	adrp	x1, 0x12000 <_ZNK14ChiFeature2HDR23QLLMergeAECFrameControlEP11ChiMetadataS1_S1_23ChiFeature2ExposureType+0x260>
   1c1e0: 60 ff ff f0  	adrp	x0, 0xb000 <_ZNK14ChiFeature2HDR23QLLMergeAECFrameControlEP11ChiMetadataS1_S1_23ChiFeature2ExposureType+0x24c>
   1c1e4: a3 ff ff d0  	adrp	x3, 0x12000 <_ZNK14ChiFeature2HDR23QLLMergeAECFrameControlEP11ChiMetadataS1_S1_23ChiFeature2ExposureType+0x26c>
   1c1e8: 85 ff ff d0  	adrp	x5, 0xe000 <_ZNK14ChiFeature2HDR23QLLMergeAECFrameControlEP11ChiMetadataS1_S1_23ChiFeature2ExposureType+0x260>
   1c200: f0 97 00 94  	bl	0x421c0 <_ZN6ChiLog9LogSystemEPKcS1_S1_S1_iS1_z@plt>
   1c208: 84 02 00 14  	b	0x1cc18 <_ZNK14ChiFeature2HDR23QLLMergeAECFrameControlEP11ChiMetadataS1_S1_23ChiFeature2ExposureType+0xcc8>
   1c210: ac 05 00 36  	tbz	w12, #0, 0x1c2c4 <_ZNK14ChiFeature2HDR23QLLMergeAECFrameControlEP11ChiMetadataS1_S1_23ChiFeature2ExposureType+0x374>
   1c214: 4b 01 00 90  	adrp	x11, 0x44000 <_ZNK14ChiFeature2HDR23QLLMergeAECFrameControlEP11ChiMetadataS1_S1_23ChiFeature2ExposureType+0x364>
   1c224: 81 02 00 54  	b.ne	0x1c274 <_ZNK14ChiFeature2HDR23QLLMergeAECFrameControlEP11ChiMetadataS1_S1_23ChiFeature2ExposureType+0x324>
   1c228: b3 ff ff 90  	adrp	x19, 0x10000 <_ZNK14ChiFeature2HDR23QLLMergeAECFrameControlEP11ChiMetadataS1_S1_23ChiFeature2ExposureType+0x2a8>
   1c244: a1 ff ff d0  	adrp	x1, 0x12000 <_ZNK14ChiFeature2HDR23QLLMergeAECFrameControlEP11ChiMetadataS1_S1_23ChiFeature2ExposureType+0x2cc>
   1c248: 82 ff ff d0  	adrp	x2, 0xe000 <_ZNK14ChiFeature2HDR23QLLMergeAECFrameControlEP11ChiMetadataS1_S1_23ChiFeature2ExposureType+0x2c0>
   1c24c: a5 ff ff d0  	adrp	x5, 0x12000 <_ZNK14ChiFeature2HDR23QLLMergeAECFrameControlEP11ChiMetadataS1_S1_23ChiFeature2ExposureType+0x2d4>
   1c274: ba ff ff 90  	adrp	x26, 0x10000 <_ZNK14ChiFeature2HDR23QLLMergeAECFrameControlEP11ChiMetadataS1_S1_23ChiFeature2ExposureType+0x2f4>
   1c290: a1 ff ff d0  	adrp	x1, 0x12000 <_ZNK14ChiFeature2HDR23QLLMergeAECFrameControlEP11ChiMetadataS1_S1_23ChiFeature2ExposureType+0x318>
   1c298: 60 ff ff f0  	adrp	x0, 0xb000 <_ZNK14ChiFeature2HDR23QLLMergeAECFrameControlEP11ChiMetadataS1_S1_23ChiFeature2ExposureType+0x304>
   1c29c: a3 ff ff d0  	adrp	x3, 0x12000 <_ZNK14ChiFeature2HDR23QLLMergeAECFrameControlEP11ChiMetadataS1_S1_23ChiFeature2ExposureType+0x324>
   1c2a0: 65 ff ff d0  	adrp	x5, 0xa000 <_ZNK14ChiFeature2HDR23QLLMergeAECFrameControlEP11ChiMetadataS1_S1_23ChiFeature2ExposureType+0x308>
   1c2c0: c0 97 00 94  	bl	0x421c0 <_ZN6ChiLog9LogSystemEPKcS1_S1_S1_iS1_z@plt>
   1c2cc: 53 02 00 14  	b	0x1cc18 <_ZNK14ChiFeature2HDR23QLLMergeAECFrameControlEP11ChiMetadataS1_S1_23ChiFeature2ExposureType+0xcc8>
   1c2d0: 00 98 00 94  	bl	0x422d0 <_ZN15ExtensionModule11GetInstanceEv@plt>
   1c2e0: 40 07 00 54  	b.eq	0x1c3c8 <_ZNK14ChiFeature2HDR23QLLMergeAECFrameControlEP11ChiMetadataS1_S1_23ChiFeature2ExposureType+0x478>
   1c2fc: 01 02 00 54  	b.ne	0x1c33c <_ZNK14ChiFeature2HDR23QLLMergeAECFrameControlEP11ChiMetadataS1_S1_23ChiFeature2ExposureType+0x3ec>
   1c304: 01 02 00 54  	b.ne	0x1c344 <_ZNK14ChiFeature2HDR23QLLMergeAECFrameControlEP11ChiMetadataS1_S1_23ChiFeature2ExposureType+0x3f4>
   1c314: 81 01 00 54  	b.ne	0x1c344 <_ZNK14ChiFeature2HDR23QLLMergeAECFrameControlEP11ChiMetadataS1_S1_23ChiFeature2ExposureType+0x3f4>
   1c328: 81 54 00 54  	b.ne	0x1cdb8 <_ZNK14ChiFeature2HDR23QLLMergeAECFrameControlEP11ChiMetadataS1_S1_23ChiFeature2ExposureType+0xe68>
   1c334: 00 05 00 54  	b.eq	0x1c3d4 <_ZNK14ChiFeature2HDR23QLLMergeAECFrameControlEP11ChiMetadataS1_S1_23ChiFeature2ExposureType+0x484>
   1c338: 09 00 00 14  	b	0x1c35c <_ZNK14ChiFeature2HDR23QLLMergeAECFrameControlEP11ChiMetadataS1_S1_23ChiFeature2ExposureType+0x40c>
   1c340: 41 04 00 54  	b.ne	0x1c3c8 <_ZNK14ChiFeature2HDR23QLLMergeAECFrameControlEP11ChiMetadataS1_S1_23ChiFeature2ExposureType+0x478>
   1c358: e0 03 00 54  	b.eq	0x1c3d4 <_ZNK14ChiFeature2HDR23QLLMergeAECFrameControlEP11ChiMetadataS1_S1_23ChiFeature2ExposureType+0x484>
   1c360: c0 05 00 54  	b.eq	0x1c418 <_ZNK14ChiFeature2HDR23QLLMergeAECFrameControlEP11ChiMetadataS1_S1_23ChiFeature2ExposureType+0x4c8>
   1c368: 61 08 00 54  	b.ne	0x1c474 <_ZNK14ChiFeature2HDR23QLLMergeAECFrameControlEP11ChiMetadataS1_S1_23ChiFeature2ExposureType+0x524>
   1c37c: f9 10 00 34  	cbz	w25, 0x1c598 <_ZNK14ChiFeature2HDR23QLLMergeAECFrameControlEP11ChiMetadataS1_S1_23ChiFeature2ExposureType+0x648>
   1c3c4: 87 00 00 14  	b	0x1c5e0 <_ZNK14ChiFeature2HDR23QLLMergeAECFrameControlEP11ChiMetadataS1_S1_23ChiFeature2ExposureType+0x690>
   1c3d0: 61 fc ff 54  	b.ne	0x1c35c <_ZNK14ChiFeature2HDR23QLLMergeAECFrameControlEP11ChiMetadataS1_S1_23ChiFeature2ExposureType+0x40c>
   1c3d8: e0 0b 00 54  	b.eq	0x1c554 <_ZNK14ChiFeature2HDR23QLLMergeAECFrameControlEP11ChiMetadataS1_S1_23ChiFeature2ExposureType+0x604>
   1c3e0: e0 09 00 54  	b.eq	0x1c51c <_ZNK14ChiFeature2HDR23QLLMergeAECFrameControlEP11ChiMetadataS1_S1_23ChiFeature2ExposureType+0x5cc>
   1c3e8: e1 0c 00 54  	b.ne	0x1c584 <_ZNK14ChiFeature2HDR23QLLMergeAECFrameControlEP11ChiMetadataS1_S1_23ChiFeature2ExposureType+0x634>
   1c3fc: b9 20 00 34  	cbz	w25, 0x1c810 <_ZNK14ChiFeature2HDR23QLLMergeAECFrameControlEP11ChiMetadataS1_S1_23ChiFeature2ExposureType+0x8c0>
   1c414: 03 01 00 14  	b	0x1c820 <_ZNK14ChiFeature2HDR23QLLMergeAECFrameControlEP11ChiMetadataS1_S1_23ChiFeature2ExposureType+0x8d0>
   1c428: b9 0e 00 34  	cbz	w25, 0x1c5fc <_ZNK14ChiFeature2HDR23QLLMergeAECFrameControlEP11ChiMetadataS1_S1_23ChiFeature2ExposureType+0x6ac>
   1c470: 75 00 00 14  	b	0x1c644 <_ZNK14ChiFeature2HDR23QLLMergeAECFrameControlEP11ChiMetadataS1_S1_23ChiFeature2ExposureType+0x6f4>
   1c478: a0 08 00 36  	tbz	w0, #0, 0x1c58c <_ZNK14ChiFeature2HDR23QLLMergeAECFrameControlEP11ChiMetadataS1_S1_23ChiFeature2ExposureType+0x63c>
   1c47c: 43 01 00 90  	adrp	x3, 0x44000 <_ZNK14ChiFeature2HDR23QLLMergeAECFrameControlEP11ChiMetadataS1_S1_23ChiFeature2ExposureType+0x5cc>
   1c480: b7 ff ff 90  	adrp	x23, 0x10000 <_ZNK14ChiFeature2HDR23QLLMergeAECFrameControlEP11ChiMetadataS1_S1_23ChiFeature2ExposureType+0x500>
   1c498: 21 02 00 54  	b.ne	0x1c4dc <_ZNK14ChiFeature2HDR23QLLMergeAECFrameControlEP11ChiMetadataS1_S1_23ChiFeature2ExposureType+0x58c>
   1c4b0: a1 ff ff d0  	adrp	x1, 0x12000 <_ZNK14ChiFeature2HDR23QLLMergeAECFrameControlEP11ChiMetadataS1_S1_23ChiFeature2ExposureType+0x538>
   1c4b4: 82 ff ff 90  	adrp	x2, 0xc000 <_ZNK14ChiFeature2HDR23QLLMergeAECFrameControlEP11ChiMetadataS1_S1_23ChiFeature2ExposureType+0x524>
   1c4b8: a5 ff ff d0  	adrp	x5, 0x12000 <_ZNK14ChiFeature2HDR23QLLMergeAECFrameControlEP11ChiMetadataS1_S1_23ChiFeature2ExposureType+0x540>
   1c4f0: a1 ff ff d0  	adrp	x1, 0x12000 <_ZNK14ChiFeature2HDR23QLLMergeAECFrameControlEP11ChiMetadataS1_S1_23ChiFeature2ExposureType+0x578>
   1c4f8: 60 ff ff f0  	adrp	x0, 0xb000 <_ZNK14ChiFeature2HDR23QLLMergeAECFrameControlEP11ChiMetadataS1_S1_23ChiFeature2ExposureType+0x564>
   1c4fc: a3 ff ff d0  	adrp	x3, 0x12000 <_ZNK14ChiFeature2HDR23QLLMergeAECFrameControlEP11ChiMetadataS1_S1_23ChiFeature2ExposureType+0x584>
   1c500: a5 ff ff 90  	adrp	x5, 0x10000 <_ZNK14ChiFeature2HDR23QLLMergeAECFrameControlEP11ChiMetadataS1_S1_23ChiFeature2ExposureType+0x580>
   1c518: 22 02 00 14  	b	0x1cda0 <_ZNK14ChiFeature2HDR23QLLMergeAECFrameControlEP11ChiMetadataS1_S1_23ChiFeature2ExposureType+0xe50>
   1c52c: 79 14 00 34  	cbz	w25, 0x1c7b8 <_ZNK14ChiFeature2HDR23QLLMergeAECFrameControlEP11ChiMetadataS1_S1_23ChiFeature2ExposureType+0x868>
   1c550: a2 00 00 14  	b	0x1c7d8 <_ZNK14ChiFeature2HDR23QLLMergeAECFrameControlEP11ChiMetadataS1_S1_23ChiFeature2ExposureType+0x888>
   1c554: ba 00 00 b4  	cbz	x26, 0x1c568 <_ZNK14ChiFeature2HDR23QLLMergeAECFrameControlEP11ChiMetadataS1_S1_23ChiFeature2ExposureType+0x618>
   1c568: 19 18 00 34  	cbz	w25, 0x1c868 <_ZNK14ChiFeature2HDR23QLLMergeAECFrameControlEP11ChiMetadataS1_S1_23ChiFeature2ExposureType+0x918>
   1c580: be 00 00 14  	b	0x1c878 <_ZNK14ChiFeature2HDR23QLLMergeAECFrameControlEP11ChiMetadataS1_S1_23ChiFeature2ExposureType+0x928>
   1c588: af 3b 00 37  	tbnz	w15, #0, 0x1ccfc <_ZNK14ChiFeature2HDR23QLLMergeAECFrameControlEP11ChiMetadataS1_S1_23ChiFeature2ExposureType+0xdac>
   1c594: a1 01 00 14  	b	0x1cc18 <_ZNK14ChiFeature2HDR23QLLMergeAECFrameControlEP11ChiMetadataS1_S1_23ChiFeature2ExposureType+0xcc8>
   1c5f0: d0 08 18 37  	tbnz	w16, #3, 0x1c708 <_ZNK14ChiFeature2HDR23QLLMergeAECFrameControlEP11ChiMetadataS1_S1_23ChiFeature2ExposureType+0x7b8>
   1c5f8: b1 00 00 14  	b	0x1c8bc <_ZNK14ChiFeature2HDR23QLLMergeAECFrameControlEP11ChiMetadataS1_S1_23ChiFeature2ExposureType+0x96c>
   1c654: 71 05 18 36  	tbz	w17, #3, 0x1c700 <_ZNK14ChiFeature2HDR23QLLMergeAECFrameControlEP11ChiMetadataS1_S1_23ChiFeature2ExposureType+0x7b0>
   1c658: 42 01 00 90  	adrp	x2, 0x44000 <_ZNK14ChiFeature2HDR23QLLMergeAECFrameControlEP11ChiMetadataS1_S1_23ChiFeature2ExposureType+0x7a8>
   1c668: 61 02 00 54  	b.ne	0x1c6b4 <_ZNK14ChiFeature2HDR23QLLMergeAECFrameControlEP11ChiMetadataS1_S1_23ChiFeature2ExposureType+0x764>
   1c66c: b7 ff ff 90  	adrp	x23, 0x10000 <_ZNK14ChiFeature2HDR23QLLMergeAECFrameControlEP11ChiMetadataS1_S1_23ChiFeature2ExposureType+0x6ec>
   1c688: a1 ff ff d0  	adrp	x1, 0x12000 <_ZNK14ChiFeature2HDR23QLLMergeAECFrameControlEP11ChiMetadataS1_S1_23ChiFeature2ExposureType+0x710>
   1c68c: a2 ff ff d0  	adrp	x2, 0x12000 <_ZNK14ChiFeature2HDR23QLLMergeAECFrameControlEP11ChiMetadataS1_S1_23ChiFeature2ExposureType+0x714>
   1c690: a5 ff ff d0  	adrp	x5, 0x12000 <_ZNK14ChiFeature2HDR23QLLMergeAECFrameControlEP11ChiMetadataS1_S1_23ChiFeature2ExposureType+0x718>
   1c6b4: b3 ff ff 90  	adrp	x19, 0x10000 <_ZNK14ChiFeature2HDR23QLLMergeAECFrameControlEP11ChiMetadataS1_S1_23ChiFeature2ExposureType+0x734>
   1c6d0: 81 ff ff d0  	adrp	x1, 0xe000 <_ZNK14ChiFeature2HDR23QLLMergeAECFrameControlEP11ChiMetadataS1_S1_23ChiFeature2ExposureType+0x748>
   1c6d8: a0 ff ff d0  	adrp	x0, 0x12000 <_ZNK14ChiFeature2HDR23QLLMergeAECFrameControlEP11ChiMetadataS1_S1_23ChiFeature2ExposureType+0x760>
   1c6dc: a3 ff ff d0  	adrp	x3, 0x12000 <_ZNK14ChiFeature2HDR23QLLMergeAECFrameControlEP11ChiMetadataS1_S1_23ChiFeature2ExposureType+0x764>
   1c6e0: 85 ff ff d0  	adrp	x5, 0xe000 <_ZNK14ChiFeature2HDR23QLLMergeAECFrameControlEP11ChiMetadataS1_S1_23ChiFeature2ExposureType+0x758>
   1c6fc: b1 96 00 94  	bl	0x421c0 <_ZN6ChiLog9LogSystemEPKcS1_S1_S1_iS1_z@plt>
   1c704: 6e 00 00 14  	b	0x1c8bc <_ZNK14ChiFeature2HDR23QLLMergeAECFrameControlEP11ChiMetadataS1_S1_23ChiFeature2ExposureType+0x96c>
   1c708: 41 01 00 90  	adrp	x1, 0x44000 <_ZNK14ChiFeature2HDR23QLLMergeAECFrameControlEP11ChiMetadataS1_S1_23ChiFeature2ExposureType+0x858>
   1c718: 61 02 00 54  	b.ne	0x1c764 <_ZNK14ChiFeature2HDR23QLLMergeAECFrameControlEP11ChiMetadataS1_S1_23ChiFeature2ExposureType+0x814>
   1c71c: b3 ff ff 90  	adrp	x19, 0x10000 <_ZNK14ChiFeature2HDR23QLLMergeAECFrameControlEP11ChiMetadataS1_S1_23ChiFeature2ExposureType+0x79c>
   1c738: a1 ff ff d0  	adrp	x1, 0x12000 <_ZNK14ChiFeature2HDR23QLLMergeAECFrameControlEP11ChiMetadataS1_S1_23ChiFeature2ExposureType+0x7c0>
   1c73c: a2 ff ff d0  	adrp	x2, 0x12000 <_ZNK14ChiFeature2HDR23QLLMergeAECFrameControlEP11ChiMetadataS1_S1_23ChiFeature2ExposureType+0x7c4>
   1c740: a5 ff ff d0  	adrp	x5, 0x12000 <_ZNK14ChiFeature2HDR23QLLMergeAECFrameControlEP11ChiMetadataS1_S1_23ChiFeature2ExposureType+0x7c8>
   1c764: ba ff ff 90  	adrp	x26, 0x10000 <_ZNK14ChiFeature2HDR23QLLMergeAECFrameControlEP11ChiMetadataS1_S1_23ChiFeature2ExposureType+0x7e4>
   1c780: 81 ff ff d0  	adrp	x1, 0xe000 <_ZNK14ChiFeature2HDR23QLLMergeAECFrameControlEP11ChiMetadataS1_S1_23ChiFeature2ExposureType+0x7f8>
   1c788: a0 ff ff d0  	adrp	x0, 0x12000 <_ZNK14ChiFeature2HDR23QLLMergeAECFrameControlEP11ChiMetadataS1_S1_23ChiFeature2ExposureType+0x810>
   1c78c: a3 ff ff d0  	adrp	x3, 0x12000 <_ZNK14ChiFeature2HDR23QLLMergeAECFrameControlEP11ChiMetadataS1_S1_23ChiFeature2ExposureType+0x814>
   1c790: a5 ff ff b0  	adrp	x5, 0x11000 <_ZNK14ChiFeature2HDR23QLLMergeAECFrameControlEP11ChiMetadataS1_S1_23ChiFeature2ExposureType+0x814>
   1c7ac: 85 96 00 94  	bl	0x421c0 <_ZN6ChiLog9LogSystemEPKcS1_S1_S1_iS1_z@plt>
   1c7b4: 42 00 00 14  	b	0x1c8bc <_ZNK14ChiFeature2HDR23QLLMergeAECFrameControlEP11ChiMetadataS1_S1_23ChiFeature2ExposureType+0x96c>
   1c80c: 2c 00 00 14  	b	0x1c8bc <_ZNK14ChiFeature2HDR23QLLMergeAECFrameControlEP11ChiMetadataS1_S1_23ChiFeature2ExposureType+0x96c>
   1c864: 16 00 00 14  	b	0x1c8bc <_ZNK14ChiFeature2HDR23QLLMergeAECFrameControlEP11ChiMetadataS1_S1_23ChiFeature2ExposureType+0x96c>
   1c8b8: d6 27 00 b4  	cbz	x22, 0x1cdb0 <_ZNK14ChiFeature2HDR23QLLMergeAECFrameControlEP11ChiMetadataS1_S1_23ChiFeature2ExposureType+0xe60>
   1c8c0: a8 00 18 37  	tbnz	w8, #3, 0x1c8d4 <_ZNK14ChiFeature2HDR23QLLMergeAECFrameControlEP11ChiMetadataS1_S1_23ChiFeature2ExposureType+0x984>
   1c8c4: c8 06 18 37  	tbnz	w8, #3, 0x1c99c <_ZNK14ChiFeature2HDR23QLLMergeAECFrameControlEP11ChiMetadataS1_S1_23ChiFeature2ExposureType+0xa4c>
   1c8c8: e8 0c 18 37  	tbnz	w8, #3, 0x1ca64 <_ZNK14ChiFeature2HDR23QLLMergeAECFrameControlEP11ChiMetadataS1_S1_23ChiFeature2ExposureType+0xb14>
   1c8cc: 08 13 18 37  	tbnz	w8, #3, 0x1cb2c <_ZNK14ChiFeature2HDR23QLLMergeAECFrameControlEP11ChiMetadataS1_S1_23ChiFeature2ExposureType+0xbdc>
   1c8d0: c7 00 00 14  	b	0x1cbec <_ZNK14ChiFeature2HDR23QLLMergeAECFrameControlEP11ChiMetadataS1_S1_23ChiFeature2ExposureType+0xc9c>
   1c8d4: 44 01 00 90  	adrp	x4, 0x44000 <_ZNK14ChiFeature2HDR23QLLMergeAECFrameControlEP11ChiMetadataS1_S1_23ChiFeature2ExposureType+0xa24>
   1c8e4: c1 02 00 54  	b.ne	0x1c93c <_ZNK14ChiFeature2HDR23QLLMergeAECFrameControlEP11ChiMetadataS1_S1_23ChiFeature2ExposureType+0x9ec>
   1c8e8: ba ff ff 90  	adrp	x26, 0x10000 <_ZNK14ChiFeature2HDR23QLLMergeAECFrameControlEP11ChiMetadataS1_S1_23ChiFeature2ExposureType+0x968>
   1c90c: a1 ff ff d0  	adrp	x1, 0x12000 <_ZNK14ChiFeature2HDR23QLLMergeAECFrameControlEP11ChiMetadataS1_S1_23ChiFeature2ExposureType+0x994>
   1c910: 62 ff ff d0  	adrp	x2, 0xa000 <_ZNK14ChiFeature2HDR23QLLMergeAECFrameControlEP11ChiMetadataS1_S1_23ChiFeature2ExposureType+0x978>
   1c914: a5 ff ff d0  	adrp	x5, 0x12000 <_ZNK14ChiFeature2HDR23QLLMergeAECFrameControlEP11ChiMetadataS1_S1_23ChiFeature2ExposureType+0x99c>
   1c93c: b7 ff ff 90  	adrp	x23, 0x10000 <_ZNK14ChiFeature2HDR23QLLMergeAECFrameControlEP11ChiMetadataS1_S1_23ChiFeature2ExposureType+0x9bc>
   1c964: a0 ff ff d0  	adrp	x0, 0x12000 <_ZNK14ChiFeature2HDR23QLLMergeAECFrameControlEP11ChiMetadataS1_S1_23ChiFeature2ExposureType+0x9ec>
   1c968: 81 ff ff d0  	adrp	x1, 0xe000 <_ZNK14ChiFeature2HDR23QLLMergeAECFrameControlEP11ChiMetadataS1_S1_23ChiFeature2ExposureType+0x9e0>
   1c96c: a3 ff ff d0  	adrp	x3, 0x12000 <_ZNK14ChiFeature2HDR23QLLMergeAECFrameControlEP11ChiMetadataS1_S1_23ChiFeature2ExposureType+0x9f4>
   1c970: 85 ff ff d0  	adrp	x5, 0xe000 <_ZNK14ChiFeature2HDR23QLLMergeAECFrameControlEP11ChiMetadataS1_S1_23ChiFeature2ExposureType+0x9e8>
   1c990: 0c 96 00 94  	bl	0x421c0 <_ZN6ChiLog9LogSystemEPKcS1_S1_S1_iS1_z@plt>
   1c998: 88 f9 1f 36  	tbz	w8, #3, 0x1c8c8 <_ZNK14ChiFeature2HDR23QLLMergeAECFrameControlEP11ChiMetadataS1_S1_23ChiFeature2ExposureType+0x978>
   1c99c: 45 01 00 90  	adrp	x5, 0x44000 <_ZNK14ChiFeature2HDR23QLLMergeAECFrameControlEP11ChiMetadataS1_S1_23ChiFeature2ExposureType+0xaec>
   1c9ac: c1 02 00 54  	b.ne	0x1ca04 <_ZNK14ChiFeature2HDR23QLLMergeAECFrameControlEP11ChiMetadataS1_S1_23ChiFeature2ExposureType+0xab4>
   1c9b0: ba ff ff 90  	adrp	x26, 0x10000 <_ZNK14ChiFeature2HDR23QLLMergeAECFrameControlEP11ChiMetadataS1_S1_23ChiFeature2ExposureType+0xa30>
   1c9d0: a1 ff ff d0  	adrp	x1, 0x12000 <_ZNK14ChiFeature2HDR23QLLMergeAECFrameControlEP11ChiMetadataS1_S1_23ChiFeature2ExposureType+0xa58>
   1c9d8: 62 ff ff f0  	adrp	x2, 0xb000 <_ZNK14ChiFeature2HDR23QLLMergeAECFrameControlEP11ChiMetadataS1_S1_23ChiFeature2ExposureType+0xa44>
   1c9dc: a5 ff ff d0  	adrp	x5, 0x12000 <_ZNK14ChiFeature2HDR23QLLMergeAECFrameControlEP11ChiMetadataS1_S1_23ChiFeature2ExposureType+0xa64>
   1ca04: b7 ff ff 90  	adrp	x23, 0x10000 <_ZNK14ChiFeature2HDR23QLLMergeAECFrameControlEP11ChiMetadataS1_S1_23ChiFeature2ExposureType+0xa84>
   1ca24: 81 ff ff d0  	adrp	x1, 0xe000 <_ZNK14ChiFeature2HDR23QLLMergeAECFrameControlEP11ChiMetadataS1_S1_23ChiFeature2ExposureType+0xa9c>
   1ca30: a0 ff ff d0  	adrp	x0, 0x12000 <_ZNK14ChiFeature2HDR23QLLMergeAECFrameControlEP11ChiMetadataS1_S1_23ChiFeature2ExposureType+0xab8>
   1ca34: a3 ff ff d0  	adrp	x3, 0x12000 <_ZNK14ChiFeature2HDR23QLLMergeAECFrameControlEP11ChiMetadataS1_S1_23ChiFeature2ExposureType+0xabc>
   1ca3c: 85 ff ff b0  	adrp	x5, 0xd000 <_ZNK14ChiFeature2HDR23QLLMergeAECFrameControlEP11ChiMetadataS1_S1_23ChiFeature2ExposureType+0xab0>
   1ca58: da 95 00 94  	bl	0x421c0 <_ZN6ChiLog9LogSystemEPKcS1_S1_S1_iS1_z@plt>
   1ca60: 68 f3 1f 36  	tbz	w8, #3, 0x1c8cc <_ZNK14ChiFeature2HDR23QLLMergeAECFrameControlEP11ChiMetadataS1_S1_23ChiFeature2ExposureType+0x97c>
   1ca64: 46 01 00 90  	adrp	x6, 0x44000 <_ZNK14ChiFeature2HDR23QLLMergeAECFrameControlEP11ChiMetadataS1_S1_23ChiFeature2ExposureType+0xbb4>
   1ca74: c1 02 00 54  	b.ne	0x1cacc <_ZNK14ChiFeature2HDR23QLLMergeAECFrameControlEP11ChiMetadataS1_S1_23ChiFeature2ExposureType+0xb7c>
   1ca78: ba ff ff 90  	adrp	x26, 0x10000 <_ZNK14ChiFeature2HDR23QLLMergeAECFrameControlEP11ChiMetadataS1_S1_23ChiFeature2ExposureType+0xaf8>
   1ca98: a1 ff ff d0  	adrp	x1, 0x12000 <_ZNK14ChiFeature2HDR23QLLMergeAECFrameControlEP11ChiMetadataS1_S1_23ChiFeature2ExposureType+0xb20>
   1caa0: 62 ff ff d0  	adrp	x2, 0xa000 <_ZNK14ChiFeature2HDR23QLLMergeAECFrameControlEP11ChiMetadataS1_S1_23ChiFeature2ExposureType+0xb08>
   1caa4: a5 ff ff d0  	adrp	x5, 0x12000 <_ZNK14ChiFeature2HDR23QLLMergeAECFrameControlEP11ChiMetadataS1_S1_23ChiFeature2ExposureType+0xb2c>
   1cacc: b7 ff ff 90  	adrp	x23, 0x10000 <_ZNK14ChiFeature2HDR23QLLMergeAECFrameControlEP11ChiMetadataS1_S1_23ChiFeature2ExposureType+0xb4c>
   1caec: 81 ff ff d0  	adrp	x1, 0xe000 <_ZNK14ChiFeature2HDR23QLLMergeAECFrameControlEP11ChiMetadataS1_S1_23ChiFeature2ExposureType+0xb64>
   1caf8: a0 ff ff d0  	adrp	x0, 0x12000 <_ZNK14ChiFeature2HDR23QLLMergeAECFrameControlEP11ChiMetadataS1_S1_23ChiFeature2ExposureType+0xb80>
   1cafc: a3 ff ff d0  	adrp	x3, 0x12000 <_ZNK14ChiFeature2HDR23QLLMergeAECFrameControlEP11ChiMetadataS1_S1_23ChiFeature2ExposureType+0xb84>
   1cb04: 65 ff ff d0  	adrp	x5, 0xa000 <_ZNK14ChiFeature2HDR23QLLMergeAECFrameControlEP11ChiMetadataS1_S1_23ChiFeature2ExposureType+0xb6c>
   1cb20: a8 95 00 94  	bl	0x421c0 <_ZN6ChiLog9LogSystemEPKcS1_S1_S1_iS1_z@plt>
   1cb28: 28 06 18 36  	tbz	w8, #3, 0x1cbec <_ZNK14ChiFeature2HDR23QLLMergeAECFrameControlEP11ChiMetadataS1_S1_23ChiFeature2ExposureType+0xc9c>
   1cb2c: 47 01 00 90  	adrp	x7, 0x44000 <_ZNK14ChiFeature2HDR23QLLMergeAECFrameControlEP11ChiMetadataS1_S1_23ChiFeature2ExposureType+0xc7c>
   1cb3c: c1 02 00 54  	b.ne	0x1cb94 <_ZNK14ChiFeature2HDR23QLLMergeAECFrameControlEP11ChiMetadataS1_S1_23ChiFeature2ExposureType+0xc44>
   1cb40: ba ff ff 90  	adrp	x26, 0x10000 <_ZNK14ChiFeature2HDR23QLLMergeAECFrameControlEP11ChiMetadataS1_S1_23ChiFeature2ExposureType+0xbc0>
   1cb60: a1 ff ff d0  	adrp	x1, 0x12000 <_ZNK14ChiFeature2HDR23QLLMergeAECFrameControlEP11ChiMetadataS1_S1_23ChiFeature2ExposureType+0xbe8>
   1cb68: a2 ff ff d0  	adrp	x2, 0x12000 <_ZNK14ChiFeature2HDR23QLLMergeAECFrameControlEP11ChiMetadataS1_S1_23ChiFeature2ExposureType+0xbf0>
   1cb6c: a5 ff ff d0  	adrp	x5, 0x12000 <_ZNK14ChiFeature2HDR23QLLMergeAECFrameControlEP11ChiMetadataS1_S1_23ChiFeature2ExposureType+0xbf4>
   1cb94: b7 ff ff 90  	adrp	x23, 0x10000 <_ZNK14ChiFeature2HDR23QLLMergeAECFrameControlEP11ChiMetadataS1_S1_23ChiFeature2ExposureType+0xc14>
   1cbb4: 81 ff ff d0  	adrp	x1, 0xe000 <_ZNK14ChiFeature2HDR23QLLMergeAECFrameControlEP11ChiMetadataS1_S1_23ChiFeature2ExposureType+0xc2c>
   1cbc0: a0 ff ff d0  	adrp	x0, 0x12000 <_ZNK14ChiFeature2HDR23QLLMergeAECFrameControlEP11ChiMetadataS1_S1_23ChiFeature2ExposureType+0xc48>
   1cbc4: a3 ff ff d0  	adrp	x3, 0x12000 <_ZNK14ChiFeature2HDR23QLLMergeAECFrameControlEP11ChiMetadataS1_S1_23ChiFeature2ExposureType+0xc4c>
   1cbcc: 85 ff ff d0  	adrp	x5, 0xe000 <_ZNK14ChiFeature2HDR23QLLMergeAECFrameControlEP11ChiMetadataS1_S1_23ChiFeature2ExposureType+0xc44>
   1cbe8: 76 95 00 94  	bl	0x421c0 <_ZN6ChiLog9LogSystemEPKcS1_S1_S1_iS1_z@plt>
   1cbf0: a1 ff ff 90  	adrp	x1, 0x10000 <_ZNK14ChiFeature2HDR23QLLMergeAECFrameControlEP11ChiMetadataS1_S1_23ChiFeature2ExposureType+0xc70>
   1cbf8: 82 ff ff 90  	adrp	x2, 0xc000 <_ZNK14ChiFeature2HDR23QLLMergeAECFrameControlEP11ChiMetadataS1_S1_23ChiFeature2ExposureType+0xc68>
   1cc1c: 62 05 18 36  	tbz	w2, #3, 0x1ccc8 <_ZNK14ChiFeature2HDR23QLLMergeAECFrameControlEP11ChiMetadataS1_S1_23ChiFeature2ExposureType+0xd78>
   1cc20: 53 01 00 90  	adrp	x19, 0x44000 <_ZNK14ChiFeature2HDR23QLLMergeAECFrameControlEP11ChiMetadataS1_S1_23ChiFeature2ExposureType+0xd70>
   1cc30: 61 02 00 54  	b.ne	0x1cc7c <_ZNK14ChiFeature2HDR23QLLMergeAECFrameControlEP11ChiMetadataS1_S1_23ChiFeature2ExposureType+0xd2c>
   1cc34: b3 ff ff 90  	adrp	x19, 0x10000 <_ZNK14ChiFeature2HDR23QLLMergeAECFrameControlEP11ChiMetadataS1_S1_23ChiFeature2ExposureType+0xcb4>
   1cc50: a1 ff ff d0  	adrp	x1, 0x12000 <_ZNK14ChiFeature2HDR23QLLMergeAECFrameControlEP11ChiMetadataS1_S1_23ChiFeature2ExposureType+0xcd8>
   1cc54: 82 ff ff 90  	adrp	x2, 0xc000 <_ZNK14ChiFeature2HDR23QLLMergeAECFrameControlEP11ChiMetadataS1_S1_23ChiFeature2ExposureType+0xcc4>
   1cc58: a5 ff ff d0  	adrp	x5, 0x12000 <_ZNK14ChiFeature2HDR23QLLMergeAECFrameControlEP11ChiMetadataS1_S1_23ChiFeature2ExposureType+0xce0>
   1cc7c: ba ff ff 90  	adrp	x26, 0x10000 <_ZNK14ChiFeature2HDR23QLLMergeAECFrameControlEP11ChiMetadataS1_S1_23ChiFeature2ExposureType+0xcfc>
   1cc98: 81 ff ff d0  	adrp	x1, 0xe000 <_ZNK14ChiFeature2HDR23QLLMergeAECFrameControlEP11ChiMetadataS1_S1_23ChiFeature2ExposureType+0xd10>
   1cca0: a0 ff ff d0  	adrp	x0, 0x12000 <_ZNK14ChiFeature2HDR23QLLMergeAECFrameControlEP11ChiMetadataS1_S1_23ChiFeature2ExposureType+0xd28>
   1cca4: a3 ff ff d0  	adrp	x3, 0x12000 <_ZNK14ChiFeature2HDR23QLLMergeAECFrameControlEP11ChiMetadataS1_S1_23ChiFeature2ExposureType+0xd2c>
   1cca8: 85 ff ff d0  	adrp	x5, 0xe000 <_ZNK14ChiFeature2HDR23QLLMergeAECFrameControlEP11ChiMetadataS1_S1_23ChiFeature2ExposureType+0xd20>
   1ccc4: 3f 95 00 94  	bl	0x421c0 <_ZN6ChiLog9LogSystemEPKcS1_S1_S1_iS1_z@plt>
   1ccd4: e1 07 00 54  	b.ne	0x1cdd0 <_ZNK14ChiFeature2HDR23QLLMergeAECFrameControlEP11ChiMetadataS1_S1_23ChiFeature2ExposureType+0xe80>
   1ccfc: 51 01 00 90  	adrp	x17, 0x44000 <_ZNK14ChiFeature2HDR23QLLMergeAECFrameControlEP11ChiMetadataS1_S1_23ChiFeature2ExposureType+0xe4c>
   1cd10: 61 02 00 54  	b.ne	0x1cd5c <_ZNK14ChiFeature2HDR23QLLMergeAECFrameControlEP11ChiMetadataS1_S1_23ChiFeature2ExposureType+0xe0c>
   1cd14: ba ff ff 90  	adrp	x26, 0x10000 <_ZNK14ChiFeature2HDR23QLLMergeAECFrameControlEP11ChiMetadataS1_S1_23ChiFeature2ExposureType+0xd94>
   1cd30: a1 ff ff d0  	adrp	x1, 0x12000 <_ZNK14ChiFeature2HDR23QLLMergeAECFrameControlEP11ChiMetadataS1_S1_23ChiFeature2ExposureType+0xdb8>
   1cd34: a2 ff ff 90  	adrp	x2, 0x10000 <_ZNK14ChiFeature2HDR23QLLMergeAECFrameControlEP11ChiMetadataS1_S1_23ChiFeature2ExposureType+0xdb4>
   1cd38: a5 ff ff d0  	adrp	x5, 0x12000 <_ZNK14ChiFeature2HDR23QLLMergeAECFrameControlEP11ChiMetadataS1_S1_23ChiFeature2ExposureType+0xdc0>
   1cd5c: b7 ff ff 90  	adrp	x23, 0x10000 <_ZNK14ChiFeature2HDR23QLLMergeAECFrameControlEP11ChiMetadataS1_S1_23ChiFeature2ExposureType+0xddc>
   1cd78: a1 ff ff d0  	adrp	x1, 0x12000 <_ZNK14ChiFeature2HDR23QLLMergeAECFrameControlEP11ChiMetadataS1_S1_23ChiFeature2ExposureType+0xe00>
   1cd80: 60 ff ff f0  	adrp	x0, 0xb000 <_ZNK14ChiFeature2HDR23QLLMergeAECFrameControlEP11ChiMetadataS1_S1_23ChiFeature2ExposureType+0xdec>
   1cd84: a3 ff ff d0  	adrp	x3, 0x12000 <_ZNK14ChiFeature2HDR23QLLMergeAECFrameControlEP11ChiMetadataS1_S1_23ChiFeature2ExposureType+0xe0c>
   1cd88: 85 ff ff f0  	adrp	x5, 0xf000 <_ZNK14ChiFeature2HDR23QLLMergeAECFrameControlEP11ChiMetadataS1_S1_23ChiFeature2ExposureType+0xe04>
   1cda4: 07 95 00 94  	bl	0x421c0 <_ZN6ChiLog9LogSystemEPKcS1_S1_S1_iS1_z@plt>
   1cdac: 9b ff ff 17  	b	0x1cc18 <_ZNK14ChiFeature2HDR23QLLMergeAECFrameControlEP11ChiMetadataS1_S1_23ChiFeature2ExposureType+0xcc8>
   1cdb4: 99 ff ff 17  	b	0x1cc18 <_ZNK14ChiFeature2HDR23QLLMergeAECFrameControlEP11ChiMetadataS1_S1_23ChiFeature2ExposureType+0xcc8>
   1cdc8: 60 b0 ff 54  	b.eq	0x1c3d4 <_ZNK14ChiFeature2HDR23QLLMergeAECFrameControlEP11ChiMetadataS1_S1_23ChiFeature2ExposureType+0x484>
   1cdcc: 64 fd ff 17  	b	0x1c35c <_ZNK14ChiFeature2HDR23QLLMergeAECFrameControlEP11ChiMetadataS1_S1_23ChiFeature2ExposureType+0x40c>
000000000001cdd8 <_ZNK14ChiFeature2HDR24QLLMergeParsedBhistStatsEP11ChiMetadataS1_S1_23ChiFeature2ExposureType>:
   1cdf8: 5b 01 00 90  	adrp	x27, 0x44000 <_ZNK14ChiFeature2HDR24QLLMergeParsedBhistStatsEP11ChiMetadataS1_S1_23ChiFeature2ExposureType+0xc0>
   1ce14: c1 03 00 b4  	cbz	x1, 0x1ce8c <_ZNK14ChiFeature2HDR24QLLMergeParsedBhistStatsEP11ChiMetadataS1_S1_23ChiFeature2ExposureType+0xb4>
   1ce18: b4 03 00 b4  	cbz	x20, 0x1ce8c <_ZNK14ChiFeature2HDR24QLLMergeParsedBhistStatsEP11ChiMetadataS1_S1_23ChiFeature2ExposureType+0xb4>
   1ce28: 2a 95 00 94  	bl	0x422d0 <_ZN15ExtensionModule11GetInstanceEv@plt>
   1ce38: 40 0e 00 54  	b.eq	0x1d000 <_ZNK14ChiFeature2HDR24QLLMergeParsedBhistStatsEP11ChiMetadataS1_S1_23ChiFeature2ExposureType+0x228>
   1ce54: 01 08 00 54  	b.ne	0x1cf54 <_ZNK14ChiFeature2HDR24QLLMergeParsedBhistStatsEP11ChiMetadataS1_S1_23ChiFeature2ExposureType+0x17c>
   1ce5c: 01 08 00 54  	b.ne	0x1cf5c <_ZNK14ChiFeature2HDR24QLLMergeParsedBhistStatsEP11ChiMetadataS1_S1_23ChiFeature2ExposureType+0x184>
   1ce6c: 81 07 00 54  	b.ne	0x1cf5c <_ZNK14ChiFeature2HDR24QLLMergeParsedBhistStatsEP11ChiMetadataS1_S1_23ChiFeature2ExposureType+0x184>
   1ce80: 60 07 00 54  	b.eq	0x1cf6c <_ZNK14ChiFeature2HDR24QLLMergeParsedBhistStatsEP11ChiMetadataS1_S1_23ChiFeature2ExposureType+0x194>
   1ce88: 36 00 00 14  	b	0x1cf60 <_ZNK14ChiFeature2HDR24QLLMergeParsedBhistStatsEP11ChiMetadataS1_S1_23ChiFeature2ExposureType+0x188>
   1ce90: 6a 00 00 37  	tbnz	w10, #0, 0x1ce9c <_ZNK14ChiFeature2HDR24QLLMergeParsedBhistStatsEP11ChiMetadataS1_S1_23ChiFeature2ExposureType+0xc4>
   1ce98: e7 00 00 14  	b	0x1d234 <_ZNK14ChiFeature2HDR24QLLMergeParsedBhistStatsEP11ChiMetadataS1_S1_23ChiFeature2ExposureType+0x45c>
   1ce9c: 4b 01 00 90  	adrp	x11, 0x44000 <_ZNK14ChiFeature2HDR24QLLMergeParsedBhistStatsEP11ChiMetadataS1_S1_23ChiFeature2ExposureType+0x164>
   1ceac: 81 02 00 54  	b.ne	0x1cefc <_ZNK14ChiFeature2HDR24QLLMergeParsedBhistStatsEP11ChiMetadataS1_S1_23ChiFeature2ExposureType+0x124>
   1ceb0: b8 ff ff 90  	adrp	x24, 0x10000 <_ZNK14ChiFeature2HDR24QLLMergeParsedBhistStatsEP11ChiMetadataS1_S1_23ChiFeature2ExposureType+0xa8>
   1cecc: a1 ff ff d0  	adrp	x1, 0x12000 <_ZNK14ChiFeature2HDR24QLLMergeParsedBhistStatsEP11ChiMetadataS1_S1_23ChiFeature2ExposureType+0xcc>
   1ced0: 62 ff ff f0  	adrp	x2, 0xb000 <_ZNK14ChiFeature2HDR24QLLMergeParsedBhistStatsEP11ChiMetadataS1_S1_23ChiFeature2ExposureType+0xb4>
   1ced4: 85 ff ff f0  	adrp	x5, 0xf000 <_ZNK14ChiFeature2HDR24QLLMergeParsedBhistStatsEP11ChiMetadataS1_S1_23ChiFeature2ExposureType+0xc8>
   1cefc: b9 ff ff 90  	adrp	x25, 0x10000 <_ZNK14ChiFeature2HDR24QLLMergeParsedBhistStatsEP11ChiMetadataS1_S1_23ChiFeature2ExposureType+0xf4>
   1cf18: a1 ff ff d0  	adrp	x1, 0x12000 <_ZNK14ChiFeature2HDR24QLLMergeParsedBhistStatsEP11ChiMetadataS1_S1_23ChiFeature2ExposureType+0x118>
   1cf20: 60 ff ff f0  	adrp	x0, 0xb000 <_ZNK14ChiFeature2HDR24QLLMergeParsedBhistStatsEP11ChiMetadataS1_S1_23ChiFeature2ExposureType+0x104>
   1cf24: 83 ff ff f0  	adrp	x3, 0xf000 <_ZNK14ChiFeature2HDR24QLLMergeParsedBhistStatsEP11ChiMetadataS1_S1_23ChiFeature2ExposureType+0x118>
   1cf28: a5 ff ff b0  	adrp	x5, 0x11000 <_ZNK14ChiFeature2HDR24QLLMergeParsedBhistStatsEP11ChiMetadataS1_S1_23ChiFeature2ExposureType+0x124>
   1cf48: 9e 94 00 94  	bl	0x421c0 <_ZN6ChiLog9LogSystemEPKcS1_S1_S1_iS1_z@plt>
   1cf50: b9 00 00 14  	b	0x1d234 <_ZNK14ChiFeature2HDR24QLLMergeParsedBhistStatsEP11ChiMetadataS1_S1_23ChiFeature2ExposureType+0x45c>
   1cf58: 41 05 00 54  	b.ne	0x1d000 <_ZNK14ChiFeature2HDR24QLLMergeParsedBhistStatsEP11ChiMetadataS1_S1_23ChiFeature2ExposureType+0x228>
   1cf68: c1 04 00 54  	b.ne	0x1d000 <_ZNK14ChiFeature2HDR24QLLMergeParsedBhistStatsEP11ChiMetadataS1_S1_23ChiFeature2ExposureType+0x228>
   1cf6c: 96 ff ff b0  	adrp	x22, 0xd000 <_ZNK14ChiFeature2HDR24QLLMergeParsedBhistStatsEP11ChiMetadataS1_S1_23ChiFeature2ExposureType+0x158>
   1cf70: 79 ff ff f0  	adrp	x25, 0xb000 <_ZNK14ChiFeature2HDR24QLLMergeParsedBhistStatsEP11ChiMetadataS1_S1_23ChiFeature2ExposureType+0x154>
   1cfc4: 97 06 00 b4  	cbz	x23, 0x1d094 <_ZNK14ChiFeature2HDR24QLLMergeParsedBhistStatsEP11ChiMetadataS1_S1_23ChiFeature2ExposureType+0x2bc>
   1cfcc: 81 ff ff b0  	adrp	x1, 0xd000 <_ZNK14ChiFeature2HDR24QLLMergeParsedBhistStatsEP11ChiMetadataS1_S1_23ChiFeature2ExposureType+0x1b8>
   1cfd4: 62 ff ff f0  	adrp	x2, 0xb000 <_ZNK14ChiFeature2HDR24QLLMergeParsedBhistStatsEP11ChiMetadataS1_S1_23ChiFeature2ExposureType+0x1b8>
   1cff8: 58 05 00 b5  	cbnz	x24, 0x1d0a0 <_ZNK14ChiFeature2HDR24QLLMergeParsedBhistStatsEP11ChiMetadataS1_S1_23ChiFeature2ExposureType+0x2c8>
   1cffc: 5d 00 00 14  	b	0x1d170 <_ZNK14ChiFeature2HDR24QLLMergeParsedBhistStatsEP11ChiMetadataS1_S1_23ChiFeature2ExposureType+0x398>
   1d000: 96 ff ff 90  	adrp	x22, 0xd000 <_ZNK14ChiFeature2HDR24QLLMergeParsedBhistStatsEP11ChiMetadataS1_S1_23ChiFeature2ExposureType+0x1e8>
   1d004: 79 ff ff d0  	adrp	x25, 0xb000 <_ZNK14ChiFeature2HDR24QLLMergeParsedBhistStatsEP11ChiMetadataS1_S1_23ChiFeature2ExposureType+0x1e4>
   1d058: f7 01 00 b4  	cbz	x23, 0x1d094 <_ZNK14ChiFeature2HDR24QLLMergeParsedBhistStatsEP11ChiMetadataS1_S1_23ChiFeature2ExposureType+0x2bc>
   1d060: 81 ff ff 90  	adrp	x1, 0xd000 <_ZNK14ChiFeature2HDR24QLLMergeParsedBhistStatsEP11ChiMetadataS1_S1_23ChiFeature2ExposureType+0x248>
   1d068: 62 ff ff d0  	adrp	x2, 0xb000 <_ZNK14ChiFeature2HDR24QLLMergeParsedBhistStatsEP11ChiMetadataS1_S1_23ChiFeature2ExposureType+0x248>
   1d08c: b8 00 00 b5  	cbnz	x24, 0x1d0a0 <_ZNK14ChiFeature2HDR24QLLMergeParsedBhistStatsEP11ChiMetadataS1_S1_23ChiFeature2ExposureType+0x2c8>
   1d090: 38 00 00 14  	b	0x1d170 <_ZNK14ChiFeature2HDR24QLLMergeParsedBhistStatsEP11ChiMetadataS1_S1_23ChiFeature2ExposureType+0x398>
   1d09c: b8 06 00 b4  	cbz	x24, 0x1d170 <_ZNK14ChiFeature2HDR24QLLMergeParsedBhistStatsEP11ChiMetadataS1_S1_23ChiFeature2ExposureType+0x398>
   1d0a0: 96 06 00 b4  	cbz	x22, 0x1d170 <_ZNK14ChiFeature2HDR24QLLMergeParsedBhistStatsEP11ChiMetadataS1_S1_23ChiFeature2ExposureType+0x398>
   1d0b4: 39 13 00 b5  	cbnz	x25, 0x1d318 <_ZNK14ChiFeature2HDR24QLLMergeParsedBhistStatsEP11ChiMetadataS1_S1_23ChiFeature2ExposureType+0x540>
   1d0bc: ec 12 00 34  	cbz	w12, 0x1d318 <_ZNK14ChiFeature2HDR24QLLMergeParsedBhistStatsEP11ChiMetadataS1_S1_23ChiFeature2ExposureType+0x540>
   1d0c4: ad 05 00 36  	tbz	w13, #0, 0x1d178 <_ZNK14ChiFeature2HDR24QLLMergeParsedBhistStatsEP11ChiMetadataS1_S1_23ChiFeature2ExposureType+0x3a0>
   1d0c8: 30 01 00 f0  	adrp	x16, 0x44000 <_ZNK14ChiFeature2HDR24QLLMergeParsedBhistStatsEP11ChiMetadataS1_S1_23ChiFeature2ExposureType+0x38c>
   1d0d8: 41 02 00 54  	b.ne	0x1d120 <_ZNK14ChiFeature2HDR24QLLMergeParsedBhistStatsEP11ChiMetadataS1_S1_23ChiFeature2ExposureType+0x348>
   1d0dc: 98 ff ff f0  	adrp	x24, 0x10000 <_ZNK14ChiFeature2HDR24QLLMergeParsedBhistStatsEP11ChiMetadataS1_S1_23ChiFeature2ExposureType+0x2d0>
   1d0f8: a1 ff ff b0  	adrp	x1, 0x12000 <_ZNK14ChiFeature2HDR24QLLMergeParsedBhistStatsEP11ChiMetadataS1_S1_23ChiFeature2ExposureType+0x2f4>
   1d0fc: 82 ff ff f0  	adrp	x2, 0x10000 <_ZNK14ChiFeature2HDR24QLLMergeParsedBhistStatsEP11ChiMetadataS1_S1_23ChiFeature2ExposureType+0x2f0>
   1d100: 85 ff ff d0  	adrp	x5, 0xf000 <_ZNK14ChiFeature2HDR24QLLMergeParsedBhistStatsEP11ChiMetadataS1_S1_23ChiFeature2ExposureType+0x2f0>
   1d120: 96 ff ff f0  	adrp	x22, 0x10000 <_ZNK14ChiFeature2HDR24QLLMergeParsedBhistStatsEP11ChiMetadataS1_S1_23ChiFeature2ExposureType+0x314>
   1d13c: a1 ff ff b0  	adrp	x1, 0x12000 <_ZNK14ChiFeature2HDR24QLLMergeParsedBhistStatsEP11ChiMetadataS1_S1_23ChiFeature2ExposureType+0x338>
   1d144: 60 ff ff d0  	adrp	x0, 0xb000 <_ZNK14ChiFeature2HDR24QLLMergeParsedBhistStatsEP11ChiMetadataS1_S1_23ChiFeature2ExposureType+0x324>
   1d148: 83 ff ff d0  	adrp	x3, 0xf000 <_ZNK14ChiFeature2HDR24QLLMergeParsedBhistStatsEP11ChiMetadataS1_S1_23ChiFeature2ExposureType+0x338>
   1d14c: 65 ff ff f0  	adrp	x5, 0xc000 <_ZNK14ChiFeature2HDR24QLLMergeParsedBhistStatsEP11ChiMetadataS1_S1_23ChiFeature2ExposureType+0x330>
   1d164: 17 94 00 94  	bl	0x421c0 <_ZN6ChiLog9LogSystemEPKcS1_S1_S1_iS1_z@plt>
   1d16c: 32 00 00 14  	b	0x1d234 <_ZNK14ChiFeature2HDR24QLLMergeParsedBhistStatsEP11ChiMetadataS1_S1_23ChiFeature2ExposureType+0x45c>
   1d174: 6b 00 00 37  	tbnz	w11, #0, 0x1d180 <_ZNK14ChiFeature2HDR24QLLMergeParsedBhistStatsEP11ChiMetadataS1_S1_23ChiFeature2ExposureType+0x3a8>
   1d17c: 2e 00 00 14  	b	0x1d234 <_ZNK14ChiFeature2HDR24QLLMergeParsedBhistStatsEP11ChiMetadataS1_S1_23ChiFeature2ExposureType+0x45c>
   1d180: 2f 01 00 f0  	adrp	x15, 0x44000 <_ZNK14ChiFeature2HDR24QLLMergeParsedBhistStatsEP11ChiMetadataS1_S1_23ChiFeature2ExposureType+0x444>
   1d190: 81 02 00 54  	b.ne	0x1d1e0 <_ZNK14ChiFeature2HDR24QLLMergeParsedBhistStatsEP11ChiMetadataS1_S1_23ChiFeature2ExposureType+0x408>
   1d194: 99 ff ff f0  	adrp	x25, 0x10000 <_ZNK14ChiFeature2HDR24QLLMergeParsedBhistStatsEP11ChiMetadataS1_S1_23ChiFeature2ExposureType+0x388>
   1d1b0: a1 ff ff b0  	adrp	x1, 0x12000 <_ZNK14ChiFeature2HDR24QLLMergeParsedBhistStatsEP11ChiMetadataS1_S1_23ChiFeature2ExposureType+0x3ac>
   1d1b4: 82 ff ff f0  	adrp	x2, 0x10000 <_ZNK14ChiFeature2HDR24QLLMergeParsedBhistStatsEP11ChiMetadataS1_S1_23ChiFeature2ExposureType+0x3a8>
   1d1b8: 85 ff ff d0  	adrp	x5, 0xf000 <_ZNK14ChiFeature2HDR24QLLMergeParsedBhistStatsEP11ChiMetadataS1_S1_23ChiFeature2ExposureType+0x3a8>
   1d1e0: 99 ff ff f0  	adrp	x25, 0x10000 <_ZNK14ChiFeature2HDR24QLLMergeParsedBhistStatsEP11ChiMetadataS1_S1_23ChiFeature2ExposureType+0x3d4>
   1d1fc: a1 ff ff b0  	adrp	x1, 0x12000 <_ZNK14ChiFeature2HDR24QLLMergeParsedBhistStatsEP11ChiMetadataS1_S1_23ChiFeature2ExposureType+0x3f8>
   1d204: 60 ff ff d0  	adrp	x0, 0xb000 <_ZNK14ChiFeature2HDR24QLLMergeParsedBhistStatsEP11ChiMetadataS1_S1_23ChiFeature2ExposureType+0x3e4>
   1d208: 83 ff ff d0  	adrp	x3, 0xf000 <_ZNK14ChiFeature2HDR24QLLMergeParsedBhistStatsEP11ChiMetadataS1_S1_23ChiFeature2ExposureType+0x3f8>
   1d20c: 65 ff ff b0  	adrp	x5, 0xa000 <_ZNK14ChiFeature2HDR24QLLMergeParsedBhistStatsEP11ChiMetadataS1_S1_23ChiFeature2ExposureType+0x3e8>
   1d22c: e5 93 00 94  	bl	0x421c0 <_ZN6ChiLog9LogSystemEPKcS1_S1_S1_iS1_z@plt>
   1d238: 66 05 18 36  	tbz	w6, #3, 0x1d2e4 <_ZNK14ChiFeature2HDR24QLLMergeParsedBhistStatsEP11ChiMetadataS1_S1_23ChiFeature2ExposureType+0x50c>
   1d23c: 34 01 00 f0  	adrp	x20, 0x44000 <_ZNK14ChiFeature2HDR24QLLMergeParsedBhistStatsEP11ChiMetadataS1_S1_23ChiFeature2ExposureType+0x500>
   1d24c: 61 02 00 54  	b.ne	0x1d298 <_ZNK14ChiFeature2HDR24QLLMergeParsedBhistStatsEP11ChiMetadataS1_S1_23ChiFeature2ExposureType+0x4c0>
   1d250: 96 ff ff f0  	adrp	x22, 0x10000 <_ZNK14ChiFeature2HDR24QLLMergeParsedBhistStatsEP11ChiMetadataS1_S1_23ChiFeature2ExposureType+0x444>
   1d26c: a1 ff ff b0  	adrp	x1, 0x12000 <_ZNK14ChiFeature2HDR24QLLMergeParsedBhistStatsEP11ChiMetadataS1_S1_23ChiFeature2ExposureType+0x468>
   1d270: 62 ff ff d0  	adrp	x2, 0xb000 <_ZNK14ChiFeature2HDR24QLLMergeParsedBhistStatsEP11ChiMetadataS1_S1_23ChiFeature2ExposureType+0x450>
   1d274: 85 ff ff d0  	adrp	x5, 0xf000 <_ZNK14ChiFeature2HDR24QLLMergeParsedBhistStatsEP11ChiMetadataS1_S1_23ChiFeature2ExposureType+0x464>
   1d298: 99 ff ff f0  	adrp	x25, 0x10000 <_ZNK14ChiFeature2HDR24QLLMergeParsedBhistStatsEP11ChiMetadataS1_S1_23ChiFeature2ExposureType+0x48c>
   1d2b4: 81 ff ff b0  	adrp	x1, 0xe000 <_ZNK14ChiFeature2HDR24QLLMergeParsedBhistStatsEP11ChiMetadataS1_S1_23ChiFeature2ExposureType+0x4a0>
   1d2bc: a0 ff ff b0  	adrp	x0, 0x12000 <_ZNK14ChiFeature2HDR24QLLMergeParsedBhistStatsEP11ChiMetadataS1_S1_23ChiFeature2ExposureType+0x4b8>
   1d2c0: 83 ff ff d0  	adrp	x3, 0xf000 <_ZNK14ChiFeature2HDR24QLLMergeParsedBhistStatsEP11ChiMetadataS1_S1_23ChiFeature2ExposureType+0x4b0>
   1d2c4: 85 ff ff f0  	adrp	x5, 0x10000 <_ZNK14ChiFeature2HDR24QLLMergeParsedBhistStatsEP11ChiMetadataS1_S1_23ChiFeature2ExposureType+0x4b8>
   1d2e0: b8 93 00 94  	bl	0x421c0 <_ZN6ChiLog9LogSystemEPKcS1_S1_S1_iS1_z@plt>
   1d2f0: e1 38 00 54  	b.ne	0x1da0c <_ZNK14ChiFeature2HDR24QLLMergeParsedBhistStatsEP11ChiMetadataS1_S1_23ChiFeature2ExposureType+0xc34>
   1d31c: e0 0e 00 54  	b.eq	0x1d4f8 <_ZNK14ChiFeature2HDR24QLLMergeParsedBhistStatsEP11ChiMetadataS1_S1_23ChiFeature2ExposureType+0x720>
   1d324: 80 07 00 54  	b.eq	0x1d414 <_ZNK14ChiFeature2HDR24QLLMergeParsedBhistStatsEP11ChiMetadataS1_S1_23ChiFeature2ExposureType+0x63c>
   1d32c: 81 15 00 54  	b.ne	0x1d5dc <_ZNK14ChiFeature2HDR24QLLMergeParsedBhistStatsEP11ChiMetadataS1_S1_23ChiFeature2ExposureType+0x804>
   1d334: 81 ff ff 90  	adrp	x1, 0xd000 <_ZNK14ChiFeature2HDR24QLLMergeParsedBhistStatsEP11ChiMetadataS1_S1_23ChiFeature2ExposureType+0x51c>
   1d33c: 62 ff ff d0  	adrp	x2, 0xb000 <_ZNK14ChiFeature2HDR24QLLMergeParsedBhistStatsEP11ChiMetadataS1_S1_23ChiFeature2ExposureType+0x51c>
   1d354: 01 1a 00 54  	b.ne	0x1d694 <_ZNK14ChiFeature2HDR24QLLMergeParsedBhistStatsEP11ChiMetadataS1_S1_23ChiFeature2ExposureType+0x8bc>
   1d360: a0 2b 00 34  	cbz	w0, 0x1d8d4 <_ZNK14ChiFeature2HDR24QLLMergeParsedBhistStatsEP11ChiMetadataS1_S1_23ChiFeature2ExposureType+0xafc>
   1d36c: 4e f6 07 36  	tbz	w14, #0, 0x1d234 <_ZNK14ChiFeature2HDR24QLLMergeParsedBhistStatsEP11ChiMetadataS1_S1_23ChiFeature2ExposureType+0x45c>
   1d370: 31 01 00 f0  	adrp	x17, 0x44000 <_ZNK14ChiFeature2HDR24QLLMergeParsedBhistStatsEP11ChiMetadataS1_S1_23ChiFeature2ExposureType+0x634>
   1d380: 41 02 00 54  	b.ne	0x1d3c8 <_ZNK14ChiFeature2HDR24QLLMergeParsedBhistStatsEP11ChiMetadataS1_S1_23ChiFeature2ExposureType+0x5f0>
   1d384: 99 ff ff f0  	adrp	x25, 0x10000 <_ZNK14ChiFeature2HDR24QLLMergeParsedBhistStatsEP11ChiMetadataS1_S1_23ChiFeature2ExposureType+0x578>
   1d3a0: a1 ff ff b0  	adrp	x1, 0x12000 <_ZNK14ChiFeature2HDR24QLLMergeParsedBhistStatsEP11ChiMetadataS1_S1_23ChiFeature2ExposureType+0x59c>
   1d3a4: 62 ff ff d0  	adrp	x2, 0xb000 <_ZNK14ChiFeature2HDR24QLLMergeParsedBhistStatsEP11ChiMetadataS1_S1_23ChiFeature2ExposureType+0x584>
   1d3a8: 85 ff ff d0  	adrp	x5, 0xf000 <_ZNK14ChiFeature2HDR24QLLMergeParsedBhistStatsEP11ChiMetadataS1_S1_23ChiFeature2ExposureType+0x598>
   1d3c8: 98 ff ff f0  	adrp	x24, 0x10000 <_ZNK14ChiFeature2HDR24QLLMergeParsedBhistStatsEP11ChiMetadataS1_S1_23ChiFeature2ExposureType+0x5bc>
   1d3e4: a1 ff ff b0  	adrp	x1, 0x12000 <_ZNK14ChiFeature2HDR24QLLMergeParsedBhistStatsEP11ChiMetadataS1_S1_23ChiFeature2ExposureType+0x5e0>
   1d3ec: 60 ff ff d0  	adrp	x0, 0xb000 <_ZNK14ChiFeature2HDR24QLLMergeParsedBhistStatsEP11ChiMetadataS1_S1_23ChiFeature2ExposureType+0x5cc>
   1d3f0: 83 ff ff d0  	adrp	x3, 0xf000 <_ZNK14ChiFeature2HDR24QLLMergeParsedBhistStatsEP11ChiMetadataS1_S1_23ChiFeature2ExposureType+0x5e0>
   1d3f4: 85 ff ff f0  	adrp	x5, 0x10000 <_ZNK14ChiFeature2HDR24QLLMergeParsedBhistStatsEP11ChiMetadataS1_S1_23ChiFeature2ExposureType+0x5e8>
   1d40c: 6d 93 00 94  	bl	0x421c0 <_ZN6ChiLog9LogSystemEPKcS1_S1_S1_iS1_z@plt>
   1d410: 89 ff ff 17  	b	0x1d234 <_ZNK14ChiFeature2HDR24QLLMergeParsedBhistStatsEP11ChiMetadataS1_S1_23ChiFeature2ExposureType+0x45c>
   1d418: 81 ff ff 90  	adrp	x1, 0xd000 <_ZNK14ChiFeature2HDR24QLLMergeParsedBhistStatsEP11ChiMetadataS1_S1_23ChiFeature2ExposureType+0x600>
   1d420: 62 ff ff d0  	adrp	x2, 0xb000 <_ZNK14ChiFeature2HDR24QLLMergeParsedBhistStatsEP11ChiMetadataS1_S1_23ChiFeature2ExposureType+0x600>
   1d444: 01 0d 00 54  	b.ne	0x1d5e4 <_ZNK14ChiFeature2HDR24QLLMergeParsedBhistStatsEP11ChiMetadataS1_S1_23ChiFeature2ExposureType+0x80c>
   1d448: 93 1d 00 34  	cbz	w19, 0x1d7f8 <_ZNK14ChiFeature2HDR24QLLMergeParsedBhistStatsEP11ChiMetadataS1_S1_23ChiFeature2ExposureType+0xa20>
   1d450: 20 ef 07 36  	tbz	w0, #0, 0x1d234 <_ZNK14ChiFeature2HDR24QLLMergeParsedBhistStatsEP11ChiMetadataS1_S1_23ChiFeature2ExposureType+0x45c>
   1d454: 24 01 00 f0  	adrp	x4, 0x44000 <_ZNK14ChiFeature2HDR24QLLMergeParsedBhistStatsEP11ChiMetadataS1_S1_23ChiFeature2ExposureType+0x718>
   1d464: 41 02 00 54  	b.ne	0x1d4ac <_ZNK14ChiFeature2HDR24QLLMergeParsedBhistStatsEP11ChiMetadataS1_S1_23ChiFeature2ExposureType+0x6d4>
   1d468: 99 ff ff f0  	adrp	x25, 0x10000 <_ZNK14ChiFeature2HDR24QLLMergeParsedBhistStatsEP11ChiMetadataS1_S1_23ChiFeature2ExposureType+0x65c>
   1d484: a1 ff ff b0  	adrp	x1, 0x12000 <_ZNK14ChiFeature2HDR24QLLMergeParsedBhistStatsEP11ChiMetadataS1_S1_23ChiFeature2ExposureType+0x680>
   1d488: a2 ff ff b0  	adrp	x2, 0x12000 <_ZNK14ChiFeature2HDR24QLLMergeParsedBhistStatsEP11ChiMetadataS1_S1_23ChiFeature2ExposureType+0x684>
   1d48c: 85 ff ff d0  	adrp	x5, 0xf000 <_ZNK14ChiFeature2HDR24QLLMergeParsedBhistStatsEP11ChiMetadataS1_S1_23ChiFeature2ExposureType+0x67c>
   1d4ac: 98 ff ff f0  	adrp	x24, 0x10000 <_ZNK14ChiFeature2HDR24QLLMergeParsedBhistStatsEP11ChiMetadataS1_S1_23ChiFeature2ExposureType+0x6a0>
   1d4c8: a1 ff ff b0  	adrp	x1, 0x12000 <_ZNK14ChiFeature2HDR24QLLMergeParsedBhistStatsEP11ChiMetadataS1_S1_23ChiFeature2ExposureType+0x6c4>
   1d4d0: 60 ff ff d0  	adrp	x0, 0xb000 <_ZNK14ChiFeature2HDR24QLLMergeParsedBhistStatsEP11ChiMetadataS1_S1_23ChiFeature2ExposureType+0x6b0>
   1d4d4: 83 ff ff d0  	adrp	x3, 0xf000 <_ZNK14ChiFeature2HDR24QLLMergeParsedBhistStatsEP11ChiMetadataS1_S1_23ChiFeature2ExposureType+0x6c4>
   1d4d8: 65 ff ff b0  	adrp	x5, 0xa000 <_ZNK14ChiFeature2HDR24QLLMergeParsedBhistStatsEP11ChiMetadataS1_S1_23ChiFeature2ExposureType+0x6b4>
   1d4f0: 34 93 00 94  	bl	0x421c0 <_ZN6ChiLog9LogSystemEPKcS1_S1_S1_iS1_z@plt>
   1d4f4: 50 ff ff 17  	b	0x1d234 <_ZNK14ChiFeature2HDR24QLLMergeParsedBhistStatsEP11ChiMetadataS1_S1_23ChiFeature2ExposureType+0x45c>
   1d4fc: 61 12 00 54  	b.ne	0x1d748 <_ZNK14ChiFeature2HDR24QLLMergeParsedBhistStatsEP11ChiMetadataS1_S1_23ChiFeature2ExposureType+0x970>
   1d504: 81 ff ff 90  	adrp	x1, 0xd000 <_ZNK14ChiFeature2HDR24QLLMergeParsedBhistStatsEP11ChiMetadataS1_S1_23ChiFeature2ExposureType+0x6ec>
   1d50c: 62 ff ff d0  	adrp	x2, 0xb000 <_ZNK14ChiFeature2HDR24QLLMergeParsedBhistStatsEP11ChiMetadataS1_S1_23ChiFeature2ExposureType+0x6ec>
   1d528: c0 1e 00 34  	cbz	w0, 0x1d900 <_ZNK14ChiFeature2HDR24QLLMergeParsedBhistStatsEP11ChiMetadataS1_S1_23ChiFeature2ExposureType+0xb28>
   1d534: 03 e8 07 36  	tbz	w3, #0, 0x1d234 <_ZNK14ChiFeature2HDR24QLLMergeParsedBhistStatsEP11ChiMetadataS1_S1_23ChiFeature2ExposureType+0x45c>
   1d538: 26 01 00 f0  	adrp	x6, 0x44000 <_ZNK14ChiFeature2HDR24QLLMergeParsedBhistStatsEP11ChiMetadataS1_S1_23ChiFeature2ExposureType+0x7fc>
   1d548: 41 02 00 54  	b.ne	0x1d590 <_ZNK14ChiFeature2HDR24QLLMergeParsedBhistStatsEP11ChiMetadataS1_S1_23ChiFeature2ExposureType+0x7b8>
   1d54c: 98 ff ff f0  	adrp	x24, 0x10000 <_ZNK14ChiFeature2HDR24QLLMergeParsedBhistStatsEP11ChiMetadataS1_S1_23ChiFeature2ExposureType+0x740>
   1d568: a1 ff ff b0  	adrp	x1, 0x12000 <_ZNK14ChiFeature2HDR24QLLMergeParsedBhistStatsEP11ChiMetadataS1_S1_23ChiFeature2ExposureType+0x764>
   1d56c: a2 ff ff b0  	adrp	x2, 0x12000 <_ZNK14ChiFeature2HDR24QLLMergeParsedBhistStatsEP11ChiMetadataS1_S1_23ChiFeature2ExposureType+0x768>
   1d570: 85 ff ff d0  	adrp	x5, 0xf000 <_ZNK14ChiFeature2HDR24QLLMergeParsedBhistStatsEP11ChiMetadataS1_S1_23ChiFeature2ExposureType+0x760>
   1d590: 96 ff ff f0  	adrp	x22, 0x10000 <_ZNK14ChiFeature2HDR24QLLMergeParsedBhistStatsEP11ChiMetadataS1_S1_23ChiFeature2ExposureType+0x784>
   1d5ac: a1 ff ff b0  	adrp	x1, 0x12000 <_ZNK14ChiFeature2HDR24QLLMergeParsedBhistStatsEP11ChiMetadataS1_S1_23ChiFeature2ExposureType+0x7a8>
   1d5b4: 60 ff ff d0  	adrp	x0, 0xb000 <_ZNK14ChiFeature2HDR24QLLMergeParsedBhistStatsEP11ChiMetadataS1_S1_23ChiFeature2ExposureType+0x794>
   1d5b8: 83 ff ff d0  	adrp	x3, 0xf000 <_ZNK14ChiFeature2HDR24QLLMergeParsedBhistStatsEP11ChiMetadataS1_S1_23ChiFeature2ExposureType+0x7a8>
   1d5bc: 65 ff ff b0  	adrp	x5, 0xa000 <_ZNK14ChiFeature2HDR24QLLMergeParsedBhistStatsEP11ChiMetadataS1_S1_23ChiFeature2ExposureType+0x798>
   1d5d4: fb 92 00 94  	bl	0x421c0 <_ZN6ChiLog9LogSystemEPKcS1_S1_S1_iS1_z@plt>
   1d5d8: 17 ff ff 17  	b	0x1d234 <_ZNK14ChiFeature2HDR24QLLMergeParsedBhistStatsEP11ChiMetadataS1_S1_23ChiFeature2ExposureType+0x45c>
   1d5e0: 15 ff ff 17  	b	0x1d234 <_ZNK14ChiFeature2HDR24QLLMergeParsedBhistStatsEP11ChiMetadataS1_S1_23ChiFeature2ExposureType+0x45c>
   1d5e4: 93 e2 ff 34  	cbz	w19, 0x1d234 <_ZNK14ChiFeature2HDR24QLLMergeParsedBhistStatsEP11ChiMetadataS1_S1_23ChiFeature2ExposureType+0x45c>
   1d5ec: 42 e2 07 36  	tbz	w2, #0, 0x1d234 <_ZNK14ChiFeature2HDR24QLLMergeParsedBhistStatsEP11ChiMetadataS1_S1_23ChiFeature2ExposureType+0x45c>
   1d5f0: 25 01 00 f0  	adrp	x5, 0x44000 <_ZNK14ChiFeature2HDR24QLLMergeParsedBhistStatsEP11ChiMetadataS1_S1_23ChiFeature2ExposureType+0x8b4>
   1d600: 41 02 00 54  	b.ne	0x1d648 <_ZNK14ChiFeature2HDR24QLLMergeParsedBhistStatsEP11ChiMetadataS1_S1_23ChiFeature2ExposureType+0x870>
   1d604: 96 ff ff f0  	adrp	x22, 0x10000 <_ZNK14ChiFeature2HDR24QLLMergeParsedBhistStatsEP11ChiMetadataS1_S1_23ChiFeature2ExposureType+0x7f8>
   1d620: a1 ff ff b0  	adrp	x1, 0x12000 <_ZNK14ChiFeature2HDR24QLLMergeParsedBhistStatsEP11ChiMetadataS1_S1_23ChiFeature2ExposureType+0x81c>
   1d624: a2 ff ff b0  	adrp	x2, 0x12000 <_ZNK14ChiFeature2HDR24QLLMergeParsedBhistStatsEP11ChiMetadataS1_S1_23ChiFeature2ExposureType+0x820>
   1d628: 85 ff ff d0  	adrp	x5, 0xf000 <_ZNK14ChiFeature2HDR24QLLMergeParsedBhistStatsEP11ChiMetadataS1_S1_23ChiFeature2ExposureType+0x818>
   1d648: 99 ff ff f0  	adrp	x25, 0x10000 <_ZNK14ChiFeature2HDR24QLLMergeParsedBhistStatsEP11ChiMetadataS1_S1_23ChiFeature2ExposureType+0x83c>
   1d664: a1 ff ff b0  	adrp	x1, 0x12000 <_ZNK14ChiFeature2HDR24QLLMergeParsedBhistStatsEP11ChiMetadataS1_S1_23ChiFeature2ExposureType+0x860>
   1d66c: 60 ff ff d0  	adrp	x0, 0xb000 <_ZNK14ChiFeature2HDR24QLLMergeParsedBhistStatsEP11ChiMetadataS1_S1_23ChiFeature2ExposureType+0x84c>
   1d670: 83 ff ff d0  	adrp	x3, 0xf000 <_ZNK14ChiFeature2HDR24QLLMergeParsedBhistStatsEP11ChiMetadataS1_S1_23ChiFeature2ExposureType+0x860>
   1d674: 65 ff ff b0  	adrp	x5, 0xa000 <_ZNK14ChiFeature2HDR24QLLMergeParsedBhistStatsEP11ChiMetadataS1_S1_23ChiFeature2ExposureType+0x850>
   1d68c: cd 92 00 94  	bl	0x421c0 <_ZN6ChiLog9LogSystemEPKcS1_S1_S1_iS1_z@plt>
   1d690: e9 fe ff 17  	b	0x1d234 <_ZNK14ChiFeature2HDR24QLLMergeParsedBhistStatsEP11ChiMetadataS1_S1_23ChiFeature2ExposureType+0x45c>
   1d6a0: a0 dc ff 34  	cbz	w0, 0x1d234 <_ZNK14ChiFeature2HDR24QLLMergeParsedBhistStatsEP11ChiMetadataS1_S1_23ChiFeature2ExposureType+0x45c>
   1d6a8: 6f dc 07 36  	tbz	w15, #0, 0x1d234 <_ZNK14ChiFeature2HDR24QLLMergeParsedBhistStatsEP11ChiMetadataS1_S1_23ChiFeature2ExposureType+0x45c>
   1d6ac: 21 01 00 f0  	adrp	x1, 0x44000 <_ZNK14ChiFeature2HDR24QLLMergeParsedBhistStatsEP11ChiMetadataS1_S1_23ChiFeature2ExposureType+0x970>
   1d6b0: 96 ff ff f0  	adrp	x22, 0x10000 <_ZNK14ChiFeature2HDR24QLLMergeParsedBhistStatsEP11ChiMetadataS1_S1_23ChiFeature2ExposureType+0x8a4>
   1d6c4: 01 02 00 54  	b.ne	0x1d704 <_ZNK14ChiFeature2HDR24QLLMergeParsedBhistStatsEP11ChiMetadataS1_S1_23ChiFeature2ExposureType+0x92c>
   1d6dc: a1 ff ff b0  	adrp	x1, 0x12000 <_ZNK14ChiFeature2HDR24QLLMergeParsedBhistStatsEP11ChiMetadataS1_S1_23ChiFeature2ExposureType+0x8d8>
   1d6e0: 82 ff ff d0  	adrp	x2, 0xf000 <_ZNK14ChiFeature2HDR24QLLMergeParsedBhistStatsEP11ChiMetadataS1_S1_23ChiFeature2ExposureType+0x8d0>
   1d6e4: 85 ff ff d0  	adrp	x5, 0xf000 <_ZNK14ChiFeature2HDR24QLLMergeParsedBhistStatsEP11ChiMetadataS1_S1_23ChiFeature2ExposureType+0x8d4>
   1d718: a1 ff ff b0  	adrp	x1, 0x12000 <_ZNK14ChiFeature2HDR24QLLMergeParsedBhistStatsEP11ChiMetadataS1_S1_23ChiFeature2ExposureType+0x914>
   1d720: 60 ff ff d0  	adrp	x0, 0xb000 <_ZNK14ChiFeature2HDR24QLLMergeParsedBhistStatsEP11ChiMetadataS1_S1_23ChiFeature2ExposureType+0x900>
   1d724: 83 ff ff d0  	adrp	x3, 0xf000 <_ZNK14ChiFeature2HDR24QLLMergeParsedBhistStatsEP11ChiMetadataS1_S1_23ChiFeature2ExposureType+0x914>
   1d728: 85 ff ff d0  	adrp	x5, 0xf000 <_ZNK14ChiFeature2HDR24QLLMergeParsedBhistStatsEP11ChiMetadataS1_S1_23ChiFeature2ExposureType+0x918>
   1d740: a0 92 00 94  	bl	0x421c0 <_ZN6ChiLog9LogSystemEPKcS1_S1_S1_iS1_z@plt>
   1d744: bc fe ff 17  	b	0x1d234 <_ZNK14ChiFeature2HDR24QLLMergeParsedBhistStatsEP11ChiMetadataS1_S1_23ChiFeature2ExposureType+0x45c>
   1d74c: 25 05 00 36  	tbz	w5, #0, 0x1d7f0 <_ZNK14ChiFeature2HDR24QLLMergeParsedBhistStatsEP11ChiMetadataS1_S1_23ChiFeature2ExposureType+0xa18>
   1d750: 27 01 00 f0  	adrp	x7, 0x44000 <_ZNK14ChiFeature2HDR24QLLMergeParsedBhistStatsEP11ChiMetadataS1_S1_23ChiFeature2ExposureType+0xa14>
   1d760: 41 02 00 54  	b.ne	0x1d7a8 <_ZNK14ChiFeature2HDR24QLLMergeParsedBhistStatsEP11ChiMetadataS1_S1_23ChiFeature2ExposureType+0x9d0>
   1d764: 99 ff ff f0  	adrp	x25, 0x10000 <_ZNK14ChiFeature2HDR24QLLMergeParsedBhistStatsEP11ChiMetadataS1_S1_23ChiFeature2ExposureType+0x958>
   1d780: a1 ff ff b0  	adrp	x1, 0x12000 <_ZNK14ChiFeature2HDR24QLLMergeParsedBhistStatsEP11ChiMetadataS1_S1_23ChiFeature2ExposureType+0x97c>
   1d784: a2 ff ff b0  	adrp	x2, 0x12000 <_ZNK14ChiFeature2HDR24QLLMergeParsedBhistStatsEP11ChiMetadataS1_S1_23ChiFeature2ExposureType+0x980>
   1d788: 85 ff ff d0  	adrp	x5, 0xf000 <_ZNK14ChiFeature2HDR24QLLMergeParsedBhistStatsEP11ChiMetadataS1_S1_23ChiFeature2ExposureType+0x978>
   1d7a8: 98 ff ff f0  	adrp	x24, 0x10000 <_ZNK14ChiFeature2HDR24QLLMergeParsedBhistStatsEP11ChiMetadataS1_S1_23ChiFeature2ExposureType+0x99c>
   1d7c4: a1 ff ff b0  	adrp	x1, 0x12000 <_ZNK14ChiFeature2HDR24QLLMergeParsedBhistStatsEP11ChiMetadataS1_S1_23ChiFeature2ExposureType+0x9c0>
   1d7cc: 60 ff ff d0  	adrp	x0, 0xb000 <_ZNK14ChiFeature2HDR24QLLMergeParsedBhistStatsEP11ChiMetadataS1_S1_23ChiFeature2ExposureType+0x9ac>
   1d7d0: 83 ff ff d0  	adrp	x3, 0xf000 <_ZNK14ChiFeature2HDR24QLLMergeParsedBhistStatsEP11ChiMetadataS1_S1_23ChiFeature2ExposureType+0x9c0>
   1d7d4: 85 ff ff d0  	adrp	x5, 0xf000 <_ZNK14ChiFeature2HDR24QLLMergeParsedBhistStatsEP11ChiMetadataS1_S1_23ChiFeature2ExposureType+0x9c4>
   1d7ec: 75 92 00 94  	bl	0x421c0 <_ZN6ChiLog9LogSystemEPKcS1_S1_S1_iS1_z@plt>
   1d7f4: 90 fe ff 17  	b	0x1d234 <_ZNK14ChiFeature2HDR24QLLMergeParsedBhistStatsEP11ChiMetadataS1_S1_23ChiFeature2ExposureType+0x45c>
   1d7fc: 81 ff ff 90  	adrp	x1, 0xd000 <_ZNK14ChiFeature2HDR24QLLMergeParsedBhistStatsEP11ChiMetadataS1_S1_23ChiFeature2ExposureType+0x9e4>
   1d804: 62 ff ff d0  	adrp	x2, 0xb000 <_ZNK14ChiFeature2HDR24QLLMergeParsedBhistStatsEP11ChiMetadataS1_S1_23ChiFeature2ExposureType+0x9e4>
   1d820: 80 08 00 34  	cbz	w0, 0x1d930 <_ZNK14ChiFeature2HDR24QLLMergeParsedBhistStatsEP11ChiMetadataS1_S1_23ChiFeature2ExposureType+0xb58>
   1d82c: 51 d0 07 36  	tbz	w17, #0, 0x1d234 <_ZNK14ChiFeature2HDR24QLLMergeParsedBhistStatsEP11ChiMetadataS1_S1_23ChiFeature2ExposureType+0x45c>
   1d830: 23 01 00 f0  	adrp	x3, 0x44000 <_ZNK14ChiFeature2HDR24QLLMergeParsedBhistStatsEP11ChiMetadataS1_S1_23ChiFeature2ExposureType+0xaf4>
   1d840: 41 02 00 54  	b.ne	0x1d888 <_ZNK14ChiFeature2HDR24QLLMergeParsedBhistStatsEP11ChiMetadataS1_S1_23ChiFeature2ExposureType+0xab0>
   1d844: 98 ff ff f0  	adrp	x24, 0x10000 <_ZNK14ChiFeature2HDR24QLLMergeParsedBhistStatsEP11ChiMetadataS1_S1_23ChiFeature2ExposureType+0xa38>
   1d860: a1 ff ff b0  	adrp	x1, 0x12000 <_ZNK14ChiFeature2HDR24QLLMergeParsedBhistStatsEP11ChiMetadataS1_S1_23ChiFeature2ExposureType+0xa5c>
   1d864: 82 ff ff f0  	adrp	x2, 0x10000 <_ZNK14ChiFeature2HDR24QLLMergeParsedBhistStatsEP11ChiMetadataS1_S1_23ChiFeature2ExposureType+0xa58>
   1d868: 85 ff ff d0  	adrp	x5, 0xf000 <_ZNK14ChiFeature2HDR24QLLMergeParsedBhistStatsEP11ChiMetadataS1_S1_23ChiFeature2ExposureType+0xa58>
   1d888: 96 ff ff f0  	adrp	x22, 0x10000 <_ZNK14ChiFeature2HDR24QLLMergeParsedBhistStatsEP11ChiMetadataS1_S1_23ChiFeature2ExposureType+0xa7c>
   1d8a4: a1 ff ff b0  	adrp	x1, 0x12000 <_ZNK14ChiFeature2HDR24QLLMergeParsedBhistStatsEP11ChiMetadataS1_S1_23ChiFeature2ExposureType+0xaa0>
   1d8ac: 60 ff ff d0  	adrp	x0, 0xb000 <_ZNK14ChiFeature2HDR24QLLMergeParsedBhistStatsEP11ChiMetadataS1_S1_23ChiFeature2ExposureType+0xa8c>
   1d8b0: 83 ff ff d0  	adrp	x3, 0xf000 <_ZNK14ChiFeature2HDR24QLLMergeParsedBhistStatsEP11ChiMetadataS1_S1_23ChiFeature2ExposureType+0xaa0>
   1d8b4: 65 ff ff d0  	adrp	x5, 0xb000 <_ZNK14ChiFeature2HDR24QLLMergeParsedBhistStatsEP11ChiMetadataS1_S1_23ChiFeature2ExposureType+0xa94>
   1d8cc: 3d 92 00 94  	bl	0x421c0 <_ZN6ChiLog9LogSystemEPKcS1_S1_S1_iS1_z@plt>
   1d8d0: 59 fe ff 17  	b	0x1d234 <_ZNK14ChiFeature2HDR24QLLMergeParsedBhistStatsEP11ChiMetadataS1_S1_23ChiFeature2ExposureType+0x45c>
   1d8d8: 81 ff ff 90  	adrp	x1, 0xd000 <_ZNK14ChiFeature2HDR24QLLMergeParsedBhistStatsEP11ChiMetadataS1_S1_23ChiFeature2ExposureType+0xac0>
   1d8e0: 62 ff ff d0  	adrp	x2, 0xb000 <_ZNK14ChiFeature2HDR24QLLMergeParsedBhistStatsEP11ChiMetadataS1_S1_23ChiFeature2ExposureType+0xac0>
   1d8fc: 0b 00 00 14  	b	0x1d928 <_ZNK14ChiFeature2HDR24QLLMergeParsedBhistStatsEP11ChiMetadataS1_S1_23ChiFeature2ExposureType+0xb50>
   1d904: 81 ff ff 90  	adrp	x1, 0xd000 <_ZNK14ChiFeature2HDR24QLLMergeParsedBhistStatsEP11ChiMetadataS1_S1_23ChiFeature2ExposureType+0xaec>
   1d90c: 62 ff ff d0  	adrp	x2, 0xb000 <_ZNK14ChiFeature2HDR24QLLMergeParsedBhistStatsEP11ChiMetadataS1_S1_23ChiFeature2ExposureType+0xaec>
   1d92c: 42 fe ff 17  	b	0x1d234 <_ZNK14ChiFeature2HDR24QLLMergeParsedBhistStatsEP11ChiMetadataS1_S1_23ChiFeature2ExposureType+0x45c>
   1d934: 81 ff ff 90  	adrp	x1, 0xd000 <_ZNK14ChiFeature2HDR24QLLMergeParsedBhistStatsEP11ChiMetadataS1_S1_23ChiFeature2ExposureType+0xb1c>
   1d93c: 62 ff ff d0  	adrp	x2, 0xb000 <_ZNK14ChiFeature2HDR24QLLMergeParsedBhistStatsEP11ChiMetadataS1_S1_23ChiFeature2ExposureType+0xb1c>
   1d95c: c0 c6 ff 34  	cbz	w0, 0x1d234 <_ZNK14ChiFeature2HDR24QLLMergeParsedBhistStatsEP11ChiMetadataS1_S1_23ChiFeature2ExposureType+0x45c>
   1d964: 90 c6 07 36  	tbz	w16, #0, 0x1d234 <_ZNK14ChiFeature2HDR24QLLMergeParsedBhistStatsEP11ChiMetadataS1_S1_23ChiFeature2ExposureType+0x45c>
   1d968: 22 01 00 f0  	adrp	x2, 0x44000 <_ZNK14ChiFeature2HDR24QLLMergeParsedBhistStatsEP11ChiMetadataS1_S1_23ChiFeature2ExposureType+0xc2c>
   1d978: 41 02 00 54  	b.ne	0x1d9c0 <_ZNK14ChiFeature2HDR24QLLMergeParsedBhistStatsEP11ChiMetadataS1_S1_23ChiFeature2ExposureType+0xbe8>
   1d97c: 96 ff ff f0  	adrp	x22, 0x10000 <_ZNK14ChiFeature2HDR24QLLMergeParsedBhistStatsEP11ChiMetadataS1_S1_23ChiFeature2ExposureType+0xb70>
   1d998: a1 ff ff b0  	adrp	x1, 0x12000 <_ZNK14ChiFeature2HDR24QLLMergeParsedBhistStatsEP11ChiMetadataS1_S1_23ChiFeature2ExposureType+0xb94>
   1d99c: 82 ff ff f0  	adrp	x2, 0x10000 <_ZNK14ChiFeature2HDR24QLLMergeParsedBhistStatsEP11ChiMetadataS1_S1_23ChiFeature2ExposureType+0xb90>
   1d9a0: 85 ff ff d0  	adrp	x5, 0xf000 <_ZNK14ChiFeature2HDR24QLLMergeParsedBhistStatsEP11ChiMetadataS1_S1_23ChiFeature2ExposureType+0xb90>
   1d9c0: 99 ff ff f0  	adrp	x25, 0x10000 <_ZNK14ChiFeature2HDR24QLLMergeParsedBhistStatsEP11ChiMetadataS1_S1_23ChiFeature2ExposureType+0xbb4>
   1d9dc: a1 ff ff b0  	adrp	x1, 0x12000 <_ZNK14ChiFeature2HDR24QLLMergeParsedBhistStatsEP11ChiMetadataS1_S1_23ChiFeature2ExposureType+0xbd8>
   1d9e4: 60 ff ff d0  	adrp	x0, 0xb000 <_ZNK14ChiFeature2HDR24QLLMergeParsedBhistStatsEP11ChiMetadataS1_S1_23ChiFeature2ExposureType+0xbc4>
   1d9e8: 83 ff ff d0  	adrp	x3, 0xf000 <_ZNK14ChiFeature2HDR24QLLMergeParsedBhistStatsEP11ChiMetadataS1_S1_23ChiFeature2ExposureType+0xbd8>
   1d9ec: 85 ff ff f0  	adrp	x5, 0x10000 <_ZNK14ChiFeature2HDR24QLLMergeParsedBhistStatsEP11ChiMetadataS1_S1_23ChiFeature2ExposureType+0xbe0>
   1da04: ef 91 00 94  	bl	0x421c0 <_ZN6ChiLog9LogSystemEPKcS1_S1_S1_iS1_z@plt>
   1da08: 0b fe ff 17  	b	0x1d234 <_ZNK14ChiFeature2HDR24QLLMergeParsedBhistStatsEP11ChiMetadataS1_S1_23ChiFeature2ExposureType+0x45c>
000000000001da10 <_ZNK14ChiFeature2HDR21MergeParsedBhistStatsEP11ChiMetadataS1_S1_P15ChiFeature2Hinti>:
   1da48: a1 05 00 b4  	cbz	x1, 0x1dafc <_ZNK14ChiFeature2HDR21MergeParsedBhistStatsEP11ChiMetadataS1_S1_P15ChiFeature2Hinti+0xec>
   1da4c: 93 05 00 b4  	cbz	x19, 0x1dafc <_ZNK14ChiFeature2HDR21MergeParsedBhistStatsEP11ChiMetadataS1_S1_P15ChiFeature2Hinti+0xec>
   1da60: 09 0b 18 37  	tbnz	w9, #3, 0x1dbc0 <_ZNK14ChiFeature2HDR21MergeParsedBhistStatsEP11ChiMetadataS1_S1_P15ChiFeature2Hinti+0x1b0>
   1da64: 9a ff ff 90  	adrp	x26, 0xd000 <_ZNK14ChiFeature2HDR21MergeParsedBhistStatsEP11ChiMetadataS1_S1_P15ChiFeature2Hinti+0x14>
   1da68: 7b ff ff d0  	adrp	x27, 0xb000 <_ZNK14ChiFeature2HDR21MergeParsedBhistStatsEP11ChiMetadataS1_S1_P15ChiFeature2Hinti+0x10>
   1dac0: 21 0b 00 54  	b.ne	0x1dc24 <_ZNK14ChiFeature2HDR21MergeParsedBhistStatsEP11ChiMetadataS1_S1_P15ChiFeature2Hinti+0x214>
   1dac4: 16 0b 00 b4  	cbz	x22, 0x1dc24 <_ZNK14ChiFeature2HDR21MergeParsedBhistStatsEP11ChiMetadataS1_S1_P15ChiFeature2Hinti+0x214>
   1dacc: 81 ff ff 90  	adrp	x1, 0xd000 <_ZNK14ChiFeature2HDR21MergeParsedBhistStatsEP11ChiMetadataS1_S1_P15ChiFeature2Hinti+0x7c>
   1dad4: 62 ff ff d0  	adrp	x2, 0xb000 <_ZNK14ChiFeature2HDR21MergeParsedBhistStatsEP11ChiMetadataS1_S1_P15ChiFeature2Hinti+0x7c>
   1daf4: 60 15 00 54  	b.eq	0x1dda0 <_ZNK14ChiFeature2HDR21MergeParsedBhistStatsEP11ChiMetadataS1_S1_P15ChiFeature2Hinti+0x390>
   1daf8: b6 00 00 14  	b	0x1ddd0 <_ZNK14ChiFeature2HDR21MergeParsedBhistStatsEP11ChiMetadataS1_S1_P15ChiFeature2Hinti+0x3c0>
   1dafc: 28 01 00 f0  	adrp	x8, 0x44000 <_ZNK14ChiFeature2HDR21MergeParsedBhistStatsEP11ChiMetadataS1_S1_P15ChiFeature2Hinti+0x188>
   1db08: 88 16 00 36  	tbz	w8, #0, 0x1ddd8 <_ZNK14ChiFeature2HDR21MergeParsedBhistStatsEP11ChiMetadataS1_S1_P15ChiFeature2Hinti+0x3c8>
   1db0c: 29 01 00 f0  	adrp	x9, 0x44000 <_ZNK14ChiFeature2HDR21MergeParsedBhistStatsEP11ChiMetadataS1_S1_P15ChiFeature2Hinti+0x198>
   1db1c: 81 02 00 54  	b.ne	0x1db6c <_ZNK14ChiFeature2HDR21MergeParsedBhistStatsEP11ChiMetadataS1_S1_P15ChiFeature2Hinti+0x15c>
   1db20: 99 ff ff f0  	adrp	x25, 0x10000 <_ZNK14ChiFeature2HDR21MergeParsedBhistStatsEP11ChiMetadataS1_S1_P15ChiFeature2Hinti+0xdc>
   1db3c: a1 ff ff b0  	adrp	x1, 0x12000 <_ZNK14ChiFeature2HDR21MergeParsedBhistStatsEP11ChiMetadataS1_S1_P15ChiFeature2Hinti+0x100>
   1db40: 62 ff ff d0  	adrp	x2, 0xb000 <_ZNK14ChiFeature2HDR21MergeParsedBhistStatsEP11ChiMetadataS1_S1_P15ChiFeature2Hinti+0xe8>
   1db44: 85 ff ff d0  	adrp	x5, 0xf000 <_ZNK14ChiFeature2HDR21MergeParsedBhistStatsEP11ChiMetadataS1_S1_P15ChiFeature2Hinti+0xfc>
   1db6c: 99 ff ff f0  	adrp	x25, 0x10000 <_ZNK14ChiFeature2HDR21MergeParsedBhistStatsEP11ChiMetadataS1_S1_P15ChiFeature2Hinti+0x128>
   1db88: a1 ff ff b0  	adrp	x1, 0x12000 <_ZNK14ChiFeature2HDR21MergeParsedBhistStatsEP11ChiMetadataS1_S1_P15ChiFeature2Hinti+0x14c>
   1db90: 60 ff ff d0  	adrp	x0, 0xb000 <_ZNK14ChiFeature2HDR21MergeParsedBhistStatsEP11ChiMetadataS1_S1_P15ChiFeature2Hinti+0x138>
   1db94: 83 ff ff d0  	adrp	x3, 0xf000 <_ZNK14ChiFeature2HDR21MergeParsedBhistStatsEP11ChiMetadataS1_S1_P15ChiFeature2Hinti+0x14c>
   1db98: a5 ff ff 90  	adrp	x5, 0x11000 <_ZNK14ChiFeature2HDR21MergeParsedBhistStatsEP11ChiMetadataS1_S1_P15ChiFeature2Hinti+0x158>
   1dbb8: 82 91 00 94  	bl	0x421c0 <_ZN6ChiLog9LogSystemEPKcS1_S1_S1_iS1_z@plt>
   1dbbc: 87 00 00 14  	b	0x1ddd8 <_ZNK14ChiFeature2HDR21MergeParsedBhistStatsEP11ChiMetadataS1_S1_P15ChiFeature2Hinti+0x3c8>
   1dbc4: 81 ff ff 90  	adrp	x1, 0xd000 <_ZNK14ChiFeature2HDR21MergeParsedBhistStatsEP11ChiMetadataS1_S1_P15ChiFeature2Hinti+0x174>
   1dbcc: 62 ff ff d0  	adrp	x2, 0xb000 <_ZNK14ChiFeature2HDR21MergeParsedBhistStatsEP11ChiMetadataS1_S1_P15ChiFeature2Hinti+0x174>
   1dbf0: 41 02 00 54  	b.ne	0x1dc38 <_ZNK14ChiFeature2HDR21MergeParsedBhistStatsEP11ChiMetadataS1_S1_P15ChiFeature2Hinti+0x228>
   1dbf4: 36 02 00 b4  	cbz	x22, 0x1dc38 <_ZNK14ChiFeature2HDR21MergeParsedBhistStatsEP11ChiMetadataS1_S1_P15ChiFeature2Hinti+0x228>
   1dbfc: 81 ff ff 90  	adrp	x1, 0xd000 <_ZNK14ChiFeature2HDR21MergeParsedBhistStatsEP11ChiMetadataS1_S1_P15ChiFeature2Hinti+0x1ac>
   1dc04: 62 ff ff d0  	adrp	x2, 0xb000 <_ZNK14ChiFeature2HDR21MergeParsedBhistStatsEP11ChiMetadataS1_S1_P15ChiFeature2Hinti+0x1ac>
   1dc20: 6d 00 00 14  	b	0x1ddd4 <_ZNK14ChiFeature2HDR21MergeParsedBhistStatsEP11ChiMetadataS1_S1_P15ChiFeature2Hinti+0x3c4>
   1dc24: 16 06 00 b4  	cbz	x22, 0x1dce4 <_ZNK14ChiFeature2HDR21MergeParsedBhistStatsEP11ChiMetadataS1_S1_P15ChiFeature2Hinti+0x2d4>
   1dc30: 80 0b 00 54  	b.eq	0x1dda0 <_ZNK14ChiFeature2HDR21MergeParsedBhistStatsEP11ChiMetadataS1_S1_P15ChiFeature2Hinti+0x390>
   1dc34: 67 00 00 14  	b	0x1ddd0 <_ZNK14ChiFeature2HDR21MergeParsedBhistStatsEP11ChiMetadataS1_S1_P15ChiFeature2Hinti+0x3c0>
   1dc38: 76 14 00 b5  	cbnz	x22, 0x1dec4 <_ZNK14ChiFeature2HDR21MergeParsedBhistStatsEP11ChiMetadataS1_S1_P15ChiFeature2Hinti+0x4b4>
   1dc3c: 2a 01 00 f0  	adrp	x10, 0x44000 <_ZNK14ChiFeature2HDR21MergeParsedBhistStatsEP11ChiMetadataS1_S1_P15ChiFeature2Hinti+0x2c8>
   1dc48: 8a 0c 08 36  	tbz	w10, #1, 0x1ddd8 <_ZNK14ChiFeature2HDR21MergeParsedBhistStatsEP11ChiMetadataS1_S1_P15ChiFeature2Hinti+0x3c8>
   1dc4c: 2b 01 00 f0  	adrp	x11, 0x44000 <_ZNK14ChiFeature2HDR21MergeParsedBhistStatsEP11ChiMetadataS1_S1_P15ChiFeature2Hinti+0x2d8>
   1dc50: 96 ff ff f0  	adrp	x22, 0x10000 <_ZNK14ChiFeature2HDR21MergeParsedBhistStatsEP11ChiMetadataS1_S1_P15ChiFeature2Hinti+0x20c>
   1dc64: 01 02 00 54  	b.ne	0x1dca4 <_ZNK14ChiFeature2HDR21MergeParsedBhistStatsEP11ChiMetadataS1_S1_P15ChiFeature2Hinti+0x294>
   1dc7c: a1 ff ff b0  	adrp	x1, 0x12000 <_ZNK14ChiFeature2HDR21MergeParsedBhistStatsEP11ChiMetadataS1_S1_P15ChiFeature2Hinti+0x240>
   1dc80: 82 ff ff b0  	adrp	x2, 0xe000 <_ZNK14ChiFeature2HDR21MergeParsedBhistStatsEP11ChiMetadataS1_S1_P15ChiFeature2Hinti+0x234>
   1dc84: 85 ff ff d0  	adrp	x5, 0xf000 <_ZNK14ChiFeature2HDR21MergeParsedBhistStatsEP11ChiMetadataS1_S1_P15ChiFeature2Hinti+0x23c>
   1dcb8: 61 ff ff f0  	adrp	x1, 0xc000 <_ZNK14ChiFeature2HDR21MergeParsedBhistStatsEP11ChiMetadataS1_S1_P15ChiFeature2Hinti+0x264>
   1dcc0: 80 ff ff d0  	adrp	x0, 0xf000 <_ZNK14ChiFeature2HDR21MergeParsedBhistStatsEP11ChiMetadataS1_S1_P15ChiFeature2Hinti+0x278>
   1dcc4: 83 ff ff d0  	adrp	x3, 0xf000 <_ZNK14ChiFeature2HDR21MergeParsedBhistStatsEP11ChiMetadataS1_S1_P15ChiFeature2Hinti+0x27c>
   1dcc8: 65 ff ff d0  	adrp	x5, 0xb000 <_ZNK14ChiFeature2HDR21MergeParsedBhistStatsEP11ChiMetadataS1_S1_P15ChiFeature2Hinti+0x270>
   1dce0: 49 01 00 14  	b	0x1e204 <_ZNK14ChiFeature2HDR21MergeParsedBhistStatsEP11ChiMetadataS1_S1_P15ChiFeature2Hinti+0x7f4>
   1dce4: 2c 01 00 f0  	adrp	x12, 0x44000 <_ZNK14ChiFeature2HDR21MergeParsedBhistStatsEP11ChiMetadataS1_S1_P15ChiFeature2Hinti+0x370>
   1dcf0: 2b 05 08 36  	tbz	w11, #1, 0x1dd94 <_ZNK14ChiFeature2HDR21MergeParsedBhistStatsEP11ChiMetadataS1_S1_P15ChiFeature2Hinti+0x384>
   1dcf4: 2d 01 00 f0  	adrp	x13, 0x44000 <_ZNK14ChiFeature2HDR21MergeParsedBhistStatsEP11ChiMetadataS1_S1_P15ChiFeature2Hinti+0x380>
   1dd04: 41 02 00 54  	b.ne	0x1dd4c <_ZNK14ChiFeature2HDR21MergeParsedBhistStatsEP11ChiMetadataS1_S1_P15ChiFeature2Hinti+0x33c>
   1dd08: 9a ff ff f0  	adrp	x26, 0x10000 <_ZNK14ChiFeature2HDR21MergeParsedBhistStatsEP11ChiMetadataS1_S1_P15ChiFeature2Hinti+0x2c4>
   1dd24: a1 ff ff b0  	adrp	x1, 0x12000 <_ZNK14ChiFeature2HDR21MergeParsedBhistStatsEP11ChiMetadataS1_S1_P15ChiFeature2Hinti+0x2e8>
   1dd28: 82 ff ff b0  	adrp	x2, 0xe000 <_ZNK14ChiFeature2HDR21MergeParsedBhistStatsEP11ChiMetadataS1_S1_P15ChiFeature2Hinti+0x2dc>
   1dd2c: 85 ff ff d0  	adrp	x5, 0xf000 <_ZNK14ChiFeature2HDR21MergeParsedBhistStatsEP11ChiMetadataS1_S1_P15ChiFeature2Hinti+0x2e4>
   1dd4c: 9b ff ff f0  	adrp	x27, 0x10000 <_ZNK14ChiFeature2HDR21MergeParsedBhistStatsEP11ChiMetadataS1_S1_P15ChiFeature2Hinti+0x308>
   1dd68: 61 ff ff f0  	adrp	x1, 0xc000 <_ZNK14ChiFeature2HDR21MergeParsedBhistStatsEP11ChiMetadataS1_S1_P15ChiFeature2Hinti+0x314>
   1dd70: 80 ff ff d0  	adrp	x0, 0xf000 <_ZNK14ChiFeature2HDR21MergeParsedBhistStatsEP11ChiMetadataS1_S1_P15ChiFeature2Hinti+0x328>
   1dd74: 83 ff ff d0  	adrp	x3, 0xf000 <_ZNK14ChiFeature2HDR21MergeParsedBhistStatsEP11ChiMetadataS1_S1_P15ChiFeature2Hinti+0x32c>
   1dd78: 65 ff ff d0  	adrp	x5, 0xb000 <_ZNK14ChiFeature2HDR21MergeParsedBhistStatsEP11ChiMetadataS1_S1_P15ChiFeature2Hinti+0x320>
   1dd90: 0c 91 00 94  	bl	0x421c0 <_ZN6ChiLog9LogSystemEPKcS1_S1_S1_iS1_z@plt>
   1dd9c: a1 01 00 54  	b.ne	0x1ddd0 <_ZNK14ChiFeature2HDR21MergeParsedBhistStatsEP11ChiMetadataS1_S1_P15ChiFeature2Hinti+0x3c0>
   1dda0: 99 01 00 b4  	cbz	x25, 0x1ddd0 <_ZNK14ChiFeature2HDR21MergeParsedBhistStatsEP11ChiMetadataS1_S1_P15ChiFeature2Hinti+0x3c0>
   1dda8: 81 ff ff 90  	adrp	x1, 0xd000 <_ZNK14ChiFeature2HDR21MergeParsedBhistStatsEP11ChiMetadataS1_S1_P15ChiFeature2Hinti+0x358>
   1ddb0: 62 ff ff d0  	adrp	x2, 0xb000 <_ZNK14ChiFeature2HDR21MergeParsedBhistStatsEP11ChiMetadataS1_S1_P15ChiFeature2Hinti+0x358>
   1ddcc: 02 00 00 14  	b	0x1ddd4 <_ZNK14ChiFeature2HDR21MergeParsedBhistStatsEP11ChiMetadataS1_S1_P15ChiFeature2Hinti+0x3c4>
   1ddd0: 59 1c 00 b4  	cbz	x25, 0x1e158 <_ZNK14ChiFeature2HDR21MergeParsedBhistStatsEP11ChiMetadataS1_S1_P15ChiFeature2Hinti+0x748>
   1ddd4: 80 07 00 34  	cbz	w0, 0x1dec4 <_ZNK14ChiFeature2HDR21MergeParsedBhistStatsEP11ChiMetadataS1_S1_P15ChiFeature2Hinti+0x4b4>
   1ddd8: 27 01 00 f0  	adrp	x7, 0x44000 <_ZNK14ChiFeature2HDR21MergeParsedBhistStatsEP11ChiMetadataS1_S1_P15ChiFeature2Hinti+0x464>
   1dde4: 62 05 00 36  	tbz	w2, #0, 0x1de90 <_ZNK14ChiFeature2HDR21MergeParsedBhistStatsEP11ChiMetadataS1_S1_P15ChiFeature2Hinti+0x480>
   1dde8: 33 01 00 f0  	adrp	x19, 0x44000 <_ZNK14ChiFeature2HDR21MergeParsedBhistStatsEP11ChiMetadataS1_S1_P15ChiFeature2Hinti+0x474>
   1ddf8: 61 02 00 54  	b.ne	0x1de44 <_ZNK14ChiFeature2HDR21MergeParsedBhistStatsEP11ChiMetadataS1_S1_P15ChiFeature2Hinti+0x434>
   1ddfc: 9a ff ff f0  	adrp	x26, 0x10000 <_ZNK14ChiFeature2HDR21MergeParsedBhistStatsEP11ChiMetadataS1_S1_P15ChiFeature2Hinti+0x3b8>
   1de18: a1 ff ff b0  	adrp	x1, 0x12000 <_ZNK14ChiFeature2HDR21MergeParsedBhistStatsEP11ChiMetadataS1_S1_P15ChiFeature2Hinti+0x3dc>
   1de1c: 62 ff ff f0  	adrp	x2, 0xc000 <_ZNK14ChiFeature2HDR21MergeParsedBhistStatsEP11ChiMetadataS1_S1_P15ChiFeature2Hinti+0x3c8>
   1de20: 85 ff ff d0  	adrp	x5, 0xf000 <_ZNK14ChiFeature2HDR21MergeParsedBhistStatsEP11ChiMetadataS1_S1_P15ChiFeature2Hinti+0x3d8>
   1de44: 9b ff ff f0  	adrp	x27, 0x10000 <_ZNK14ChiFeature2HDR21MergeParsedBhistStatsEP11ChiMetadataS1_S1_P15ChiFeature2Hinti+0x400>
   1de60: a1 ff ff b0  	adrp	x1, 0x12000 <_ZNK14ChiFeature2HDR21MergeParsedBhistStatsEP11ChiMetadataS1_S1_P15ChiFeature2Hinti+0x424>
   1de68: 60 ff ff d0  	adrp	x0, 0xb000 <_ZNK14ChiFeature2HDR21MergeParsedBhistStatsEP11ChiMetadataS1_S1_P15ChiFeature2Hinti+0x410>
   1de6c: 83 ff ff d0  	adrp	x3, 0xf000 <_ZNK14ChiFeature2HDR21MergeParsedBhistStatsEP11ChiMetadataS1_S1_P15ChiFeature2Hinti+0x424>
   1de70: a5 ff ff 90  	adrp	x5, 0x11000 <_ZNK14ChiFeature2HDR21MergeParsedBhistStatsEP11ChiMetadataS1_S1_P15ChiFeature2Hinti+0x430>
   1de8c: cd 90 00 94  	bl	0x421c0 <_ZN6ChiLog9LogSystemEPKcS1_S1_S1_iS1_z@plt>
   1dea0: e1 22 00 54  	b.ne	0x1e2fc <_ZNK14ChiFeature2HDR21MergeParsedBhistStatsEP11ChiMetadataS1_S1_P15ChiFeature2Hinti+0x8ec>
   1dec4: d7 04 00 b4  	cbz	x23, 0x1df5c <_ZNK14ChiFeature2HDR21MergeParsedBhistStatsEP11ChiMetadataS1_S1_P15ChiFeature2Hinti+0x54c>
   1decc: 81 04 00 54  	b.ne	0x1df5c <_ZNK14ChiFeature2HDR21MergeParsedBhistStatsEP11ChiMetadataS1_S1_P15ChiFeature2Hinti+0x54c>
   1ded4: 4d 0a 18 37  	tbnz	w13, #3, 0x1e01c <_ZNK14ChiFeature2HDR21MergeParsedBhistStatsEP11ChiMetadataS1_S1_P15ChiFeature2Hinti+0x60c>
   1ded8: 99 ff ff 90  	adrp	x25, 0xd000 <_ZNK14ChiFeature2HDR21MergeParsedBhistStatsEP11ChiMetadataS1_S1_P15ChiFeature2Hinti+0x488>
   1dedc: 7a ff ff d0  	adrp	x26, 0xb000 <_ZNK14ChiFeature2HDR21MergeParsedBhistStatsEP11ChiMetadataS1_S1_P15ChiFeature2Hinti+0x484>
   1df30: 43 0a 00 b4  	cbz	x3, 0x1e078 <_ZNK14ChiFeature2HDR21MergeParsedBhistStatsEP11ChiMetadataS1_S1_P15ChiFeature2Hinti+0x668>
   1df38: 81 ff ff 90  	adrp	x1, 0xd000 <_ZNK14ChiFeature2HDR21MergeParsedBhistStatsEP11ChiMetadataS1_S1_P15ChiFeature2Hinti+0x4e8>
   1df40: 62 ff ff d0  	adrp	x2, 0xb000 <_ZNK14ChiFeature2HDR21MergeParsedBhistStatsEP11ChiMetadataS1_S1_P15ChiFeature2Hinti+0x4e8>
   1df58: 74 00 00 14  	b	0x1e128 <_ZNK14ChiFeature2HDR21MergeParsedBhistStatsEP11ChiMetadataS1_S1_P15ChiFeature2Hinti+0x718>
   1df60: b7 f9 ff b5  	cbnz	x23, 0x1de94 <_ZNK14ChiFeature2HDR21MergeParsedBhistStatsEP11ChiMetadataS1_S1_P15ChiFeature2Hinti+0x484>
   1df68: 61 f9 ff 54  	b.ne	0x1de94 <_ZNK14ChiFeature2HDR21MergeParsedBhistStatsEP11ChiMetadataS1_S1_P15ChiFeature2Hinti+0x484>
   1df6c: 25 01 00 f0  	adrp	x5, 0x44000 <_ZNK14ChiFeature2HDR21MergeParsedBhistStatsEP11ChiMetadataS1_S1_P15ChiFeature2Hinti+0x5f8>
   1df78: d1 f8 0f 36  	tbz	w17, #1, 0x1de90 <_ZNK14ChiFeature2HDR21MergeParsedBhistStatsEP11ChiMetadataS1_S1_P15ChiFeature2Hinti+0x480>
   1df7c: 26 01 00 f0  	adrp	x6, 0x44000 <_ZNK14ChiFeature2HDR21MergeParsedBhistStatsEP11ChiMetadataS1_S1_P15ChiFeature2Hinti+0x608>
   1df8c: 41 02 00 54  	b.ne	0x1dfd4 <_ZNK14ChiFeature2HDR21MergeParsedBhistStatsEP11ChiMetadataS1_S1_P15ChiFeature2Hinti+0x5c4>
   1df90: 99 ff ff f0  	adrp	x25, 0x10000 <_ZNK14ChiFeature2HDR21MergeParsedBhistStatsEP11ChiMetadataS1_S1_P15ChiFeature2Hinti+0x54c>
   1dfac: a1 ff ff b0  	adrp	x1, 0x12000 <_ZNK14ChiFeature2HDR21MergeParsedBhistStatsEP11ChiMetadataS1_S1_P15ChiFeature2Hinti+0x570>
   1dfb0: 82 ff ff f0  	adrp	x2, 0x10000 <_ZNK14ChiFeature2HDR21MergeParsedBhistStatsEP11ChiMetadataS1_S1_P15ChiFeature2Hinti+0x56c>
   1dfb4: 85 ff ff d0  	adrp	x5, 0xf000 <_ZNK14ChiFeature2HDR21MergeParsedBhistStatsEP11ChiMetadataS1_S1_P15ChiFeature2Hinti+0x56c>
   1dfd4: 96 ff ff f0  	adrp	x22, 0x10000 <_ZNK14ChiFeature2HDR21MergeParsedBhistStatsEP11ChiMetadataS1_S1_P15ChiFeature2Hinti+0x590>
   1dff0: 61 ff ff f0  	adrp	x1, 0xc000 <_ZNK14ChiFeature2HDR21MergeParsedBhistStatsEP11ChiMetadataS1_S1_P15ChiFeature2Hinti+0x59c>
   1dff8: 80 ff ff d0  	adrp	x0, 0xf000 <_ZNK14ChiFeature2HDR21MergeParsedBhistStatsEP11ChiMetadataS1_S1_P15ChiFeature2Hinti+0x5b0>
   1dffc: 83 ff ff d0  	adrp	x3, 0xf000 <_ZNK14ChiFeature2HDR21MergeParsedBhistStatsEP11ChiMetadataS1_S1_P15ChiFeature2Hinti+0x5b4>
   1e000: a5 ff ff 90  	adrp	x5, 0x12000 <_ZNK14ChiFeature2HDR21MergeParsedBhistStatsEP11ChiMetadataS1_S1_P15ChiFeature2Hinti+0x5c0>
   1e018: e5 00 00 14  	b	0x1e3ac <_ZNK14ChiFeature2HDR21MergeParsedBhistStatsEP11ChiMetadataS1_S1_P15ChiFeature2Hinti+0x99c>
   1e01c: 7a ff ff f0  	adrp	x26, 0xd000 <_ZNK14ChiFeature2HDR21MergeParsedBhistStatsEP11ChiMetadataS1_S1_P15ChiFeature2Hinti+0x5c8>
   1e020: 7b ff ff b0  	adrp	x27, 0xb000 <_ZNK14ChiFeature2HDR21MergeParsedBhistStatsEP11ChiMetadataS1_S1_P15ChiFeature2Hinti+0x5c4>
   1e074: 03 f6 ff b5  	cbnz	x3, 0x1df34 <_ZNK14ChiFeature2HDR21MergeParsedBhistStatsEP11ChiMetadataS1_S1_P15ChiFeature2Hinti+0x524>
   1e078: 30 01 00 d0  	adrp	x16, 0x44000 <_ZNK14ChiFeature2HDR21MergeParsedBhistStatsEP11ChiMetadataS1_S1_P15ChiFeature2Hinti+0x700>
   1e084: 2e 05 08 36  	tbz	w14, #1, 0x1e128 <_ZNK14ChiFeature2HDR21MergeParsedBhistStatsEP11ChiMetadataS1_S1_P15ChiFeature2Hinti+0x718>
   1e088: 31 01 00 d0  	adrp	x17, 0x44000 <_ZNK14ChiFeature2HDR21MergeParsedBhistStatsEP11ChiMetadataS1_S1_P15ChiFeature2Hinti+0x710>
   1e098: 41 02 00 54  	b.ne	0x1e0e0 <_ZNK14ChiFeature2HDR21MergeParsedBhistStatsEP11ChiMetadataS1_S1_P15ChiFeature2Hinti+0x6d0>
   1e09c: 9b ff ff d0  	adrp	x27, 0x10000 <_ZNK14ChiFeature2HDR21MergeParsedBhistStatsEP11ChiMetadataS1_S1_P15ChiFeature2Hinti+0x654>
   1e0b8: a1 ff ff 90  	adrp	x1, 0x12000 <_ZNK14ChiFeature2HDR21MergeParsedBhistStatsEP11ChiMetadataS1_S1_P15ChiFeature2Hinti+0x678>
   1e0bc: a2 ff ff 90  	adrp	x2, 0x12000 <_ZNK14ChiFeature2HDR21MergeParsedBhistStatsEP11ChiMetadataS1_S1_P15ChiFeature2Hinti+0x67c>
   1e0c0: 85 ff ff b0  	adrp	x5, 0xf000 <_ZNK14ChiFeature2HDR21MergeParsedBhistStatsEP11ChiMetadataS1_S1_P15ChiFeature2Hinti+0x674>
   1e0e0: 99 ff ff d0  	adrp	x25, 0x10000 <_ZNK14ChiFeature2HDR21MergeParsedBhistStatsEP11ChiMetadataS1_S1_P15ChiFeature2Hinti+0x698>
   1e0fc: 61 ff ff d0  	adrp	x1, 0xc000 <_ZNK14ChiFeature2HDR21MergeParsedBhistStatsEP11ChiMetadataS1_S1_P15ChiFeature2Hinti+0x6a4>
   1e104: 80 ff ff b0  	adrp	x0, 0xf000 <_ZNK14ChiFeature2HDR21MergeParsedBhistStatsEP11ChiMetadataS1_S1_P15ChiFeature2Hinti+0x6b8>
   1e108: 83 ff ff b0  	adrp	x3, 0xf000 <_ZNK14ChiFeature2HDR21MergeParsedBhistStatsEP11ChiMetadataS1_S1_P15ChiFeature2Hinti+0x6bc>
   1e10c: 85 ff ff b0  	adrp	x5, 0xf000 <_ZNK14ChiFeature2HDR21MergeParsedBhistStatsEP11ChiMetadataS1_S1_P15ChiFeature2Hinti+0x6c0>
   1e124: 27 90 00 94  	bl	0x421c0 <_ZN6ChiLog9LogSystemEPKcS1_S1_S1_iS1_z@plt>
   1e128: 36 07 00 b4  	cbz	x22, 0x1e20c <_ZNK14ChiFeature2HDR21MergeParsedBhistStatsEP11ChiMetadataS1_S1_P15ChiFeature2Hinti+0x7fc>
   1e130: 61 ff ff f0  	adrp	x1, 0xd000 <_ZNK14ChiFeature2HDR21MergeParsedBhistStatsEP11ChiMetadataS1_S1_P15ChiFeature2Hinti+0x6dc>
   1e138: 62 ff ff b0  	adrp	x2, 0xb000 <_ZNK14ChiFeature2HDR21MergeParsedBhistStatsEP11ChiMetadataS1_S1_P15ChiFeature2Hinti+0x6dc>
   1e154: 5a 00 00 14  	b	0x1e2bc <_ZNK14ChiFeature2HDR21MergeParsedBhistStatsEP11ChiMetadataS1_S1_P15ChiFeature2Hinti+0x8ac>
   1e158: 2e 01 00 d0  	adrp	x14, 0x44000 <_ZNK14ChiFeature2HDR21MergeParsedBhistStatsEP11ChiMetadataS1_S1_P15ChiFeature2Hinti+0x7e0>
   1e164: ac e3 0f 36  	tbz	w12, #1, 0x1ddd8 <_ZNK14ChiFeature2HDR21MergeParsedBhistStatsEP11ChiMetadataS1_S1_P15ChiFeature2Hinti+0x3c8>
   1e168: 2f 01 00 d0  	adrp	x15, 0x44000 <_ZNK14ChiFeature2HDR21MergeParsedBhistStatsEP11ChiMetadataS1_S1_P15ChiFeature2Hinti+0x7f0>
   1e178: 41 02 00 54  	b.ne	0x1e1c0 <_ZNK14ChiFeature2HDR21MergeParsedBhistStatsEP11ChiMetadataS1_S1_P15ChiFeature2Hinti+0x7b0>
   1e17c: 96 ff ff d0  	adrp	x22, 0x10000 <_ZNK14ChiFeature2HDR21MergeParsedBhistStatsEP11ChiMetadataS1_S1_P15ChiFeature2Hinti+0x734>
   1e198: a1 ff ff 90  	adrp	x1, 0x12000 <_ZNK14ChiFeature2HDR21MergeParsedBhistStatsEP11ChiMetadataS1_S1_P15ChiFeature2Hinti+0x758>
   1e19c: 62 ff ff b0  	adrp	x2, 0xb000 <_ZNK14ChiFeature2HDR21MergeParsedBhistStatsEP11ChiMetadataS1_S1_P15ChiFeature2Hinti+0x740>
   1e1a0: 85 ff ff b0  	adrp	x5, 0xf000 <_ZNK14ChiFeature2HDR21MergeParsedBhistStatsEP11ChiMetadataS1_S1_P15ChiFeature2Hinti+0x754>
   1e1c0: 99 ff ff d0  	adrp	x25, 0x10000 <_ZNK14ChiFeature2HDR21MergeParsedBhistStatsEP11ChiMetadataS1_S1_P15ChiFeature2Hinti+0x778>
   1e1dc: 61 ff ff d0  	adrp	x1, 0xc000 <_ZNK14ChiFeature2HDR21MergeParsedBhistStatsEP11ChiMetadataS1_S1_P15ChiFeature2Hinti+0x784>
   1e1e4: 80 ff ff b0  	adrp	x0, 0xf000 <_ZNK14ChiFeature2HDR21MergeParsedBhistStatsEP11ChiMetadataS1_S1_P15ChiFeature2Hinti+0x798>
   1e1e8: 83 ff ff b0  	adrp	x3, 0xf000 <_ZNK14ChiFeature2HDR21MergeParsedBhistStatsEP11ChiMetadataS1_S1_P15ChiFeature2Hinti+0x79c>
   1e1ec: 85 ff ff b0  	adrp	x5, 0xf000 <_ZNK14ChiFeature2HDR21MergeParsedBhistStatsEP11ChiMetadataS1_S1_P15ChiFeature2Hinti+0x7a0>
   1e204: ef 8f 00 94  	bl	0x421c0 <_ZN6ChiLog9LogSystemEPKcS1_S1_S1_iS1_z@plt>
   1e208: f4 fe ff 17  	b	0x1ddd8 <_ZNK14ChiFeature2HDR21MergeParsedBhistStatsEP11ChiMetadataS1_S1_P15ChiFeature2Hinti+0x3c8>
   1e20c: 21 01 00 d0  	adrp	x1, 0x44000 <_ZNK14ChiFeature2HDR21MergeParsedBhistStatsEP11ChiMetadataS1_S1_P15ChiFeature2Hinti+0x894>
   1e218: 2f 05 08 36  	tbz	w15, #1, 0x1e2bc <_ZNK14ChiFeature2HDR21MergeParsedBhistStatsEP11ChiMetadataS1_S1_P15ChiFeature2Hinti+0x8ac>
   1e21c: 22 01 00 d0  	adrp	x2, 0x44000 <_ZNK14ChiFeature2HDR21MergeParsedBhistStatsEP11ChiMetadataS1_S1_P15ChiFeature2Hinti+0x8a4>
   1e22c: 41 02 00 54  	b.ne	0x1e274 <_ZNK14ChiFeature2HDR21MergeParsedBhistStatsEP11ChiMetadataS1_S1_P15ChiFeature2Hinti+0x864>
   1e230: 96 ff ff d0  	adrp	x22, 0x10000 <_ZNK14ChiFeature2HDR21MergeParsedBhistStatsEP11ChiMetadataS1_S1_P15ChiFeature2Hinti+0x7e8>
   1e24c: a1 ff ff 90  	adrp	x1, 0x12000 <_ZNK14ChiFeature2HDR21MergeParsedBhistStatsEP11ChiMetadataS1_S1_P15ChiFeature2Hinti+0x80c>
   1e250: 82 ff ff 90  	adrp	x2, 0xe000 <_ZNK14ChiFeature2HDR21MergeParsedBhistStatsEP11ChiMetadataS1_S1_P15ChiFeature2Hinti+0x800>
   1e254: 85 ff ff b0  	adrp	x5, 0xf000 <_ZNK14ChiFeature2HDR21MergeParsedBhistStatsEP11ChiMetadataS1_S1_P15ChiFeature2Hinti+0x808>
   1e274: 9a ff ff d0  	adrp	x26, 0x10000 <_ZNK14ChiFeature2HDR21MergeParsedBhistStatsEP11ChiMetadataS1_S1_P15ChiFeature2Hinti+0x82c>
   1e290: 61 ff ff d0  	adrp	x1, 0xc000 <_ZNK14ChiFeature2HDR21MergeParsedBhistStatsEP11ChiMetadataS1_S1_P15ChiFeature2Hinti+0x838>
   1e298: 80 ff ff b0  	adrp	x0, 0xf000 <_ZNK14ChiFeature2HDR21MergeParsedBhistStatsEP11ChiMetadataS1_S1_P15ChiFeature2Hinti+0x84c>
   1e29c: 83 ff ff b0  	adrp	x3, 0xf000 <_ZNK14ChiFeature2HDR21MergeParsedBhistStatsEP11ChiMetadataS1_S1_P15ChiFeature2Hinti+0x850>
   1e2a0: 65 ff ff b0  	adrp	x5, 0xb000 <_ZNK14ChiFeature2HDR21MergeParsedBhistStatsEP11ChiMetadataS1_S1_P15ChiFeature2Hinti+0x844>
   1e2b8: c2 8f 00 94  	bl	0x421c0 <_ZN6ChiLog9LogSystemEPKcS1_S1_S1_iS1_z@plt>
   1e2bc: 35 02 00 35  	cbnz	w21, 0x1e300 <_ZNK14ChiFeature2HDR21MergeParsedBhistStatsEP11ChiMetadataS1_S1_P15ChiFeature2Hinti+0x8f0>
   1e2c0: 14 02 00 b4  	cbz	x20, 0x1e300 <_ZNK14ChiFeature2HDR21MergeParsedBhistStatsEP11ChiMetadataS1_S1_P15ChiFeature2Hinti+0x8f0>
   1e2c8: 61 ff ff f0  	adrp	x1, 0xd000 <_ZNK14ChiFeature2HDR21MergeParsedBhistStatsEP11ChiMetadataS1_S1_P15ChiFeature2Hinti+0x874>
   1e2d0: 62 ff ff b0  	adrp	x2, 0xb000 <_ZNK14ChiFeature2HDR21MergeParsedBhistStatsEP11ChiMetadataS1_S1_P15ChiFeature2Hinti+0x874>
   1e2f8: 60 dd ff 54  	b.eq	0x1dea4 <_ZNK14ChiFeature2HDR21MergeParsedBhistStatsEP11ChiMetadataS1_S1_P15ChiFeature2Hinti+0x494>
   1e300: 23 01 00 d0  	adrp	x3, 0x44000 <_ZNK14ChiFeature2HDR21MergeParsedBhistStatsEP11ChiMetadataS1_S1_P15ChiFeature2Hinti+0x988>
   1e30c: 30 dc 0f 36  	tbz	w16, #1, 0x1de90 <_ZNK14ChiFeature2HDR21MergeParsedBhistStatsEP11ChiMetadataS1_S1_P15ChiFeature2Hinti+0x480>
   1e310: 24 01 00 d0  	adrp	x4, 0x44000 <_ZNK14ChiFeature2HDR21MergeParsedBhistStatsEP11ChiMetadataS1_S1_P15ChiFeature2Hinti+0x998>
   1e320: 41 02 00 54  	b.ne	0x1e368 <_ZNK14ChiFeature2HDR21MergeParsedBhistStatsEP11ChiMetadataS1_S1_P15ChiFeature2Hinti+0x958>
   1e324: 94 ff ff d0  	adrp	x20, 0x10000 <_ZNK14ChiFeature2HDR21MergeParsedBhistStatsEP11ChiMetadataS1_S1_P15ChiFeature2Hinti+0x8dc>
   1e340: a1 ff ff 90  	adrp	x1, 0x12000 <_ZNK14ChiFeature2HDR21MergeParsedBhistStatsEP11ChiMetadataS1_S1_P15ChiFeature2Hinti+0x900>
   1e344: 62 ff ff b0  	adrp	x2, 0xb000 <_ZNK14ChiFeature2HDR21MergeParsedBhistStatsEP11ChiMetadataS1_S1_P15ChiFeature2Hinti+0x8e8>
   1e348: 85 ff ff b0  	adrp	x5, 0xf000 <_ZNK14ChiFeature2HDR21MergeParsedBhistStatsEP11ChiMetadataS1_S1_P15ChiFeature2Hinti+0x8fc>
   1e368: 9b ff ff d0  	adrp	x27, 0x10000 <_ZNK14ChiFeature2HDR21MergeParsedBhistStatsEP11ChiMetadataS1_S1_P15ChiFeature2Hinti+0x920>
   1e384: 61 ff ff d0  	adrp	x1, 0xc000 <_ZNK14ChiFeature2HDR21MergeParsedBhistStatsEP11ChiMetadataS1_S1_P15ChiFeature2Hinti+0x92c>
   1e38c: 80 ff ff b0  	adrp	x0, 0xf000 <_ZNK14ChiFeature2HDR21MergeParsedBhistStatsEP11ChiMetadataS1_S1_P15ChiFeature2Hinti+0x940>
   1e390: 83 ff ff b0  	adrp	x3, 0xf000 <_ZNK14ChiFeature2HDR21MergeParsedBhistStatsEP11ChiMetadataS1_S1_P15ChiFeature2Hinti+0x944>
   1e394: 85 ff ff b0  	adrp	x5, 0xf000 <_ZNK14ChiFeature2HDR21MergeParsedBhistStatsEP11ChiMetadataS1_S1_P15ChiFeature2Hinti+0x948>
   1e3ac: 85 8f 00 94  	bl	0x421c0 <_ZN6ChiLog9LogSystemEPKcS1_S1_S1_iS1_z@plt>
   1e3b0: b8 fe ff 17  	b	0x1de90 <_ZNK14ChiFeature2HDR21MergeParsedBhistStatsEP11ChiMetadataS1_S1_P15ChiFeature2Hinti+0x480>
000000000001e3b8 <_ZNK14ChiFeature2HDR24MergeParsedHDRBHistStatsEP11ChiMetadataS1_S1_P15ChiFeature2Hint>:
   1e3f0: 81 05 00 b4  	cbz	x1, 0x1e4a0 <_ZNK14ChiFeature2HDR24MergeParsedHDRBHistStatsEP11ChiMetadataS1_S1_P15ChiFeature2Hint+0xe8>
   1e3f4: 73 05 00 b4  	cbz	x19, 0x1e4a0 <_ZNK14ChiFeature2HDR24MergeParsedHDRBHistStatsEP11ChiMetadataS1_S1_P15ChiFeature2Hint+0xe8>
   1e404: 09 0b 18 37  	tbnz	w9, #3, 0x1e564 <_ZNK14ChiFeature2HDR24MergeParsedHDRBHistStatsEP11ChiMetadataS1_S1_P15ChiFeature2Hint+0x1ac>
   1e408: 99 ff ff f0  	adrp	x25, 0x11000 <_ZNK14ChiFeature2HDR24MergeParsedHDRBHistStatsEP11ChiMetadataS1_S1_P15ChiFeature2Hint+0x1c>
   1e40c: 7a ff ff b0  	adrp	x26, 0xb000 <_ZNK14ChiFeature2HDR24MergeParsedHDRBHistStatsEP11ChiMetadataS1_S1_P15ChiFeature2Hint+0x8>
   1e464: 21 0b 00 54  	b.ne	0x1e5c8 <_ZNK14ChiFeature2HDR24MergeParsedHDRBHistStatsEP11ChiMetadataS1_S1_P15ChiFeature2Hint+0x210>
   1e468: 15 0b 00 b4  	cbz	x21, 0x1e5c8 <_ZNK14ChiFeature2HDR24MergeParsedHDRBHistStatsEP11ChiMetadataS1_S1_P15ChiFeature2Hint+0x210>
   1e470: 81 ff ff f0  	adrp	x1, 0x11000 <_ZNK14ChiFeature2HDR24MergeParsedHDRBHistStatsEP11ChiMetadataS1_S1_P15ChiFeature2Hint+0x84>
   1e478: 62 ff ff b0  	adrp	x2, 0xb000 <_ZNK14ChiFeature2HDR24MergeParsedHDRBHistStatsEP11ChiMetadataS1_S1_P15ChiFeature2Hint+0x74>
   1e498: 60 15 00 54  	b.eq	0x1e744 <_ZNK14ChiFeature2HDR24MergeParsedHDRBHistStatsEP11ChiMetadataS1_S1_P15ChiFeature2Hint+0x38c>
   1e49c: b6 00 00 14  	b	0x1e774 <_ZNK14ChiFeature2HDR24MergeParsedHDRBHistStatsEP11ChiMetadataS1_S1_P15ChiFeature2Hint+0x3bc>
   1e4a0: 28 01 00 d0  	adrp	x8, 0x44000 <_ZNK14ChiFeature2HDR24MergeParsedHDRBHistStatsEP11ChiMetadataS1_S1_P15ChiFeature2Hint+0x180>
   1e4ac: 88 16 00 36  	tbz	w8, #0, 0x1e77c <_ZNK14ChiFeature2HDR24MergeParsedHDRBHistStatsEP11ChiMetadataS1_S1_P15ChiFeature2Hint+0x3c4>
   1e4b0: 29 01 00 d0  	adrp	x9, 0x44000 <_ZNK14ChiFeature2HDR24MergeParsedHDRBHistStatsEP11ChiMetadataS1_S1_P15ChiFeature2Hint+0x190>
   1e4c0: 81 02 00 54  	b.ne	0x1e510 <_ZNK14ChiFeature2HDR24MergeParsedHDRBHistStatsEP11ChiMetadataS1_S1_P15ChiFeature2Hint+0x158>
   1e4c4: 98 ff ff d0  	adrp	x24, 0x10000 <_ZNK14ChiFeature2HDR24MergeParsedHDRBHistStatsEP11ChiMetadataS1_S1_P15ChiFeature2Hint+0xd4>
   1e4e0: a1 ff ff 90  	adrp	x1, 0x12000 <_ZNK14ChiFeature2HDR24MergeParsedHDRBHistStatsEP11ChiMetadataS1_S1_P15ChiFeature2Hint+0xf8>
   1e4e4: 62 ff ff b0  	adrp	x2, 0xb000 <_ZNK14ChiFeature2HDR24MergeParsedHDRBHistStatsEP11ChiMetadataS1_S1_P15ChiFeature2Hint+0xe0>
   1e4e8: a5 ff ff 90  	adrp	x5, 0x12000 <_ZNK14ChiFeature2HDR24MergeParsedHDRBHistStatsEP11ChiMetadataS1_S1_P15ChiFeature2Hint+0x100>
   1e510: 98 ff ff d0  	adrp	x24, 0x10000 <_ZNK14ChiFeature2HDR24MergeParsedHDRBHistStatsEP11ChiMetadataS1_S1_P15ChiFeature2Hint+0x120>
   1e52c: a1 ff ff 90  	adrp	x1, 0x12000 <_ZNK14ChiFeature2HDR24MergeParsedHDRBHistStatsEP11ChiMetadataS1_S1_P15ChiFeature2Hint+0x144>
   1e534: 60 ff ff b0  	adrp	x0, 0xb000 <_ZNK14ChiFeature2HDR24MergeParsedHDRBHistStatsEP11ChiMetadataS1_S1_P15ChiFeature2Hint+0x130>
   1e538: a3 ff ff 90  	adrp	x3, 0x12000 <_ZNK14ChiFeature2HDR24MergeParsedHDRBHistStatsEP11ChiMetadataS1_S1_P15ChiFeature2Hint+0x150>
   1e53c: 85 ff ff f0  	adrp	x5, 0x11000 <_ZNK14ChiFeature2HDR24MergeParsedHDRBHistStatsEP11ChiMetadataS1_S1_P15ChiFeature2Hint+0x150>
   1e55c: 19 8f 00 94  	bl	0x421c0 <_ZN6ChiLog9LogSystemEPKcS1_S1_S1_iS1_z@plt>
   1e560: 87 00 00 14  	b	0x1e77c <_ZNK14ChiFeature2HDR24MergeParsedHDRBHistStatsEP11ChiMetadataS1_S1_P15ChiFeature2Hint+0x3c4>
   1e568: 81 ff ff f0  	adrp	x1, 0x11000 <_ZNK14ChiFeature2HDR24MergeParsedHDRBHistStatsEP11ChiMetadataS1_S1_P15ChiFeature2Hint+0x17c>
   1e570: 62 ff ff b0  	adrp	x2, 0xb000 <_ZNK14ChiFeature2HDR24MergeParsedHDRBHistStatsEP11ChiMetadataS1_S1_P15ChiFeature2Hint+0x16c>
   1e594: 41 02 00 54  	b.ne	0x1e5dc <_ZNK14ChiFeature2HDR24MergeParsedHDRBHistStatsEP11ChiMetadataS1_S1_P15ChiFeature2Hint+0x224>
   1e598: 35 02 00 b4  	cbz	x21, 0x1e5dc <_ZNK14ChiFeature2HDR24MergeParsedHDRBHistStatsEP11ChiMetadataS1_S1_P15ChiFeature2Hint+0x224>
   1e5a0: 81 ff ff f0  	adrp	x1, 0x11000 <_ZNK14ChiFeature2HDR24MergeParsedHDRBHistStatsEP11ChiMetadataS1_S1_P15ChiFeature2Hint+0x1b4>
   1e5a8: 62 ff ff b0  	adrp	x2, 0xb000 <_ZNK14ChiFeature2HDR24MergeParsedHDRBHistStatsEP11ChiMetadataS1_S1_P15ChiFeature2Hint+0x1a4>
   1e5c4: 6d 00 00 14  	b	0x1e778 <_ZNK14ChiFeature2HDR24MergeParsedHDRBHistStatsEP11ChiMetadataS1_S1_P15ChiFeature2Hint+0x3c0>
   1e5c8: 15 06 00 b4  	cbz	x21, 0x1e688 <_ZNK14ChiFeature2HDR24MergeParsedHDRBHistStatsEP11ChiMetadataS1_S1_P15ChiFeature2Hint+0x2d0>
   1e5d4: 80 0b 00 54  	b.eq	0x1e744 <_ZNK14ChiFeature2HDR24MergeParsedHDRBHistStatsEP11ChiMetadataS1_S1_P15ChiFeature2Hint+0x38c>
   1e5d8: 67 00 00 14  	b	0x1e774 <_ZNK14ChiFeature2HDR24MergeParsedHDRBHistStatsEP11ChiMetadataS1_S1_P15ChiFeature2Hint+0x3bc>
   1e5dc: 75 14 00 b5  	cbnz	x21, 0x1e868 <_ZNK14ChiFeature2HDR24MergeParsedHDRBHistStatsEP11ChiMetadataS1_S1_P15ChiFeature2Hint+0x4b0>
   1e5e0: 2a 01 00 d0  	adrp	x10, 0x44000 <_ZNK14ChiFeature2HDR24MergeParsedHDRBHistStatsEP11ChiMetadataS1_S1_P15ChiFeature2Hint+0x2c0>
   1e5ec: 8a 0c 00 36  	tbz	w10, #0, 0x1e77c <_ZNK14ChiFeature2HDR24MergeParsedHDRBHistStatsEP11ChiMetadataS1_S1_P15ChiFeature2Hint+0x3c4>
   1e5f0: 2b 01 00 d0  	adrp	x11, 0x44000 <_ZNK14ChiFeature2HDR24MergeParsedHDRBHistStatsEP11ChiMetadataS1_S1_P15ChiFeature2Hint+0x2d0>
   1e5f4: 95 ff ff d0  	adrp	x21, 0x10000 <_ZNK14ChiFeature2HDR24MergeParsedHDRBHistStatsEP11ChiMetadataS1_S1_P15ChiFeature2Hint+0x204>
   1e608: 01 02 00 54  	b.ne	0x1e648 <_ZNK14ChiFeature2HDR24MergeParsedHDRBHistStatsEP11ChiMetadataS1_S1_P15ChiFeature2Hint+0x290>
   1e620: a1 ff ff 90  	adrp	x1, 0x12000 <_ZNK14ChiFeature2HDR24MergeParsedHDRBHistStatsEP11ChiMetadataS1_S1_P15ChiFeature2Hint+0x238>
   1e624: 82 ff ff b0  	adrp	x2, 0xf000 <_ZNK14ChiFeature2HDR24MergeParsedHDRBHistStatsEP11ChiMetadataS1_S1_P15ChiFeature2Hint+0x230>
   1e628: a5 ff ff 90  	adrp	x5, 0x12000 <_ZNK14ChiFeature2HDR24MergeParsedHDRBHistStatsEP11ChiMetadataS1_S1_P15ChiFeature2Hint+0x240>
   1e65c: a1 ff ff 90  	adrp	x1, 0x12000 <_ZNK14ChiFeature2HDR24MergeParsedHDRBHistStatsEP11ChiMetadataS1_S1_P15ChiFeature2Hint+0x274>
   1e664: 60 ff ff b0  	adrp	x0, 0xb000 <_ZNK14ChiFeature2HDR24MergeParsedHDRBHistStatsEP11ChiMetadataS1_S1_P15ChiFeature2Hint+0x260>
   1e668: a3 ff ff 90  	adrp	x3, 0x12000 <_ZNK14ChiFeature2HDR24MergeParsedHDRBHistStatsEP11ChiMetadataS1_S1_P15ChiFeature2Hint+0x280>
   1e66c: 85 ff ff f0  	adrp	x5, 0x11000 <_ZNK14ChiFeature2HDR24MergeParsedHDRBHistStatsEP11ChiMetadataS1_S1_P15ChiFeature2Hint+0x280>
   1e684: 49 01 00 14  	b	0x1eba8 <_ZNK14ChiFeature2HDR24MergeParsedHDRBHistStatsEP11ChiMetadataS1_S1_P15ChiFeature2Hint+0x7f0>
   1e688: 2c 01 00 d0  	adrp	x12, 0x44000 <_ZNK14ChiFeature2HDR24MergeParsedHDRBHistStatsEP11ChiMetadataS1_S1_P15ChiFeature2Hint+0x368>
   1e694: 2b 05 00 36  	tbz	w11, #0, 0x1e738 <_ZNK14ChiFeature2HDR24MergeParsedHDRBHistStatsEP11ChiMetadataS1_S1_P15ChiFeature2Hint+0x380>
   1e698: 2d 01 00 d0  	adrp	x13, 0x44000 <_ZNK14ChiFeature2HDR24MergeParsedHDRBHistStatsEP11ChiMetadataS1_S1_P15ChiFeature2Hint+0x378>
   1e6a8: 41 02 00 54  	b.ne	0x1e6f0 <_ZNK14ChiFeature2HDR24MergeParsedHDRBHistStatsEP11ChiMetadataS1_S1_P15ChiFeature2Hint+0x338>
   1e6ac: 99 ff ff d0  	adrp	x25, 0x10000 <_ZNK14ChiFeature2HDR24MergeParsedHDRBHistStatsEP11ChiMetadataS1_S1_P15ChiFeature2Hint+0x2bc>
   1e6c8: a1 ff ff 90  	adrp	x1, 0x12000 <_ZNK14ChiFeature2HDR24MergeParsedHDRBHistStatsEP11ChiMetadataS1_S1_P15ChiFeature2Hint+0x2e0>
   1e6cc: 82 ff ff b0  	adrp	x2, 0xf000 <_ZNK14ChiFeature2HDR24MergeParsedHDRBHistStatsEP11ChiMetadataS1_S1_P15ChiFeature2Hint+0x2d8>
   1e6d0: a5 ff ff 90  	adrp	x5, 0x12000 <_ZNK14ChiFeature2HDR24MergeParsedHDRBHistStatsEP11ChiMetadataS1_S1_P15ChiFeature2Hint+0x2e8>
   1e6f0: 9a ff ff d0  	adrp	x26, 0x10000 <_ZNK14ChiFeature2HDR24MergeParsedHDRBHistStatsEP11ChiMetadataS1_S1_P15ChiFeature2Hint+0x300>
   1e70c: a1 ff ff 90  	adrp	x1, 0x12000 <_ZNK14ChiFeature2HDR24MergeParsedHDRBHistStatsEP11ChiMetadataS1_S1_P15ChiFeature2Hint+0x324>
   1e714: 60 ff ff b0  	adrp	x0, 0xb000 <_ZNK14ChiFeature2HDR24MergeParsedHDRBHistStatsEP11ChiMetadataS1_S1_P15ChiFeature2Hint+0x310>
   1e718: a3 ff ff 90  	adrp	x3, 0x12000 <_ZNK14ChiFeature2HDR24MergeParsedHDRBHistStatsEP11ChiMetadataS1_S1_P15ChiFeature2Hint+0x330>
   1e71c: 85 ff ff f0  	adrp	x5, 0x11000 <_ZNK14ChiFeature2HDR24MergeParsedHDRBHistStatsEP11ChiMetadataS1_S1_P15ChiFeature2Hint+0x330>
   1e734: a3 8e 00 94  	bl	0x421c0 <_ZN6ChiLog9LogSystemEPKcS1_S1_S1_iS1_z@plt>
   1e740: a1 01 00 54  	b.ne	0x1e774 <_ZNK14ChiFeature2HDR24MergeParsedHDRBHistStatsEP11ChiMetadataS1_S1_P15ChiFeature2Hint+0x3bc>
   1e744: 98 01 00 b4  	cbz	x24, 0x1e774 <_ZNK14ChiFeature2HDR24MergeParsedHDRBHistStatsEP11ChiMetadataS1_S1_P15ChiFeature2Hint+0x3bc>
   1e74c: 81 ff ff f0  	adrp	x1, 0x11000 <_ZNK14ChiFeature2HDR24MergeParsedHDRBHistStatsEP11ChiMetadataS1_S1_P15ChiFeature2Hint+0x360>
   1e754: 62 ff ff b0  	adrp	x2, 0xb000 <_ZNK14ChiFeature2HDR24MergeParsedHDRBHistStatsEP11ChiMetadataS1_S1_P15ChiFeature2Hint+0x350>
   1e770: 02 00 00 14  	b	0x1e778 <_ZNK14ChiFeature2HDR24MergeParsedHDRBHistStatsEP11ChiMetadataS1_S1_P15ChiFeature2Hint+0x3c0>
   1e774: 58 1c 00 b4  	cbz	x24, 0x1eafc <_ZNK14ChiFeature2HDR24MergeParsedHDRBHistStatsEP11ChiMetadataS1_S1_P15ChiFeature2Hint+0x744>
   1e778: 80 07 00 34  	cbz	w0, 0x1e868 <_ZNK14ChiFeature2HDR24MergeParsedHDRBHistStatsEP11ChiMetadataS1_S1_P15ChiFeature2Hint+0x4b0>
   1e77c: 27 01 00 d0  	adrp	x7, 0x44000 <_ZNK14ChiFeature2HDR24MergeParsedHDRBHistStatsEP11ChiMetadataS1_S1_P15ChiFeature2Hint+0x45c>
   1e788: 62 05 00 36  	tbz	w2, #0, 0x1e834 <_ZNK14ChiFeature2HDR24MergeParsedHDRBHistStatsEP11ChiMetadataS1_S1_P15ChiFeature2Hint+0x47c>
   1e78c: 33 01 00 d0  	adrp	x19, 0x44000 <_ZNK14ChiFeature2HDR24MergeParsedHDRBHistStatsEP11ChiMetadataS1_S1_P15ChiFeature2Hint+0x46c>
   1e79c: 61 02 00 54  	b.ne	0x1e7e8 <_ZNK14ChiFeature2HDR24MergeParsedHDRBHistStatsEP11ChiMetadataS1_S1_P15ChiFeature2Hint+0x430>
   1e7a0: 99 ff ff d0  	adrp	x25, 0x10000 <_ZNK14ChiFeature2HDR24MergeParsedHDRBHistStatsEP11ChiMetadataS1_S1_P15ChiFeature2Hint+0x3b0>
   1e7bc: a1 ff ff 90  	adrp	x1, 0x12000 <_ZNK14ChiFeature2HDR24MergeParsedHDRBHistStatsEP11ChiMetadataS1_S1_P15ChiFeature2Hint+0x3d4>
   1e7c0: 82 ff ff d0  	adrp	x2, 0x10000 <_ZNK14ChiFeature2HDR24MergeParsedHDRBHistStatsEP11ChiMetadataS1_S1_P15ChiFeature2Hint+0x3d0>
   1e7c4: a5 ff ff 90  	adrp	x5, 0x12000 <_ZNK14ChiFeature2HDR24MergeParsedHDRBHistStatsEP11ChiMetadataS1_S1_P15ChiFeature2Hint+0x3dc>
   1e7e8: 9a ff ff d0  	adrp	x26, 0x10000 <_ZNK14ChiFeature2HDR24MergeParsedHDRBHistStatsEP11ChiMetadataS1_S1_P15ChiFeature2Hint+0x3f8>
   1e804: a1 ff ff 90  	adrp	x1, 0x12000 <_ZNK14ChiFeature2HDR24MergeParsedHDRBHistStatsEP11ChiMetadataS1_S1_P15ChiFeature2Hint+0x41c>
   1e80c: 60 ff ff b0  	adrp	x0, 0xb000 <_ZNK14ChiFeature2HDR24MergeParsedHDRBHistStatsEP11ChiMetadataS1_S1_P15ChiFeature2Hint+0x408>
   1e810: a3 ff ff 90  	adrp	x3, 0x12000 <_ZNK14ChiFeature2HDR24MergeParsedHDRBHistStatsEP11ChiMetadataS1_S1_P15ChiFeature2Hint+0x428>
   1e814: 65 ff ff f0  	adrp	x5, 0xd000 <_ZNK14ChiFeature2HDR24MergeParsedHDRBHistStatsEP11ChiMetadataS1_S1_P15ChiFeature2Hint+0x418>
   1e830: 64 8e 00 94  	bl	0x421c0 <_ZN6ChiLog9LogSystemEPKcS1_S1_S1_iS1_z@plt>
   1e844: c1 22 00 54  	b.ne	0x1ec9c <_ZNK14ChiFeature2HDR24MergeParsedHDRBHistStatsEP11ChiMetadataS1_S1_P15ChiFeature2Hint+0x8e4>
   1e868: d6 04 00 b4  	cbz	x22, 0x1e900 <_ZNK14ChiFeature2HDR24MergeParsedHDRBHistStatsEP11ChiMetadataS1_S1_P15ChiFeature2Hint+0x548>
   1e870: 81 04 00 54  	b.ne	0x1e900 <_ZNK14ChiFeature2HDR24MergeParsedHDRBHistStatsEP11ChiMetadataS1_S1_P15ChiFeature2Hint+0x548>
   1e878: 4d 0a 18 37  	tbnz	w13, #3, 0x1e9c0 <_ZNK14ChiFeature2HDR24MergeParsedHDRBHistStatsEP11ChiMetadataS1_S1_P15ChiFeature2Hint+0x608>
   1e87c: 98 ff ff f0  	adrp	x24, 0x11000 <_ZNK14ChiFeature2HDR24MergeParsedHDRBHistStatsEP11ChiMetadataS1_S1_P15ChiFeature2Hint+0x490>
   1e880: 79 ff ff b0  	adrp	x25, 0xb000 <_ZNK14ChiFeature2HDR24MergeParsedHDRBHistStatsEP11ChiMetadataS1_S1_P15ChiFeature2Hint+0x47c>
   1e8d4: 43 0a 00 b4  	cbz	x3, 0x1ea1c <_ZNK14ChiFeature2HDR24MergeParsedHDRBHistStatsEP11ChiMetadataS1_S1_P15ChiFeature2Hint+0x664>
   1e8dc: 81 ff ff f0  	adrp	x1, 0x11000 <_ZNK14ChiFeature2HDR24MergeParsedHDRBHistStatsEP11ChiMetadataS1_S1_P15ChiFeature2Hint+0x4f0>
   1e8e4: 62 ff ff b0  	adrp	x2, 0xb000 <_ZNK14ChiFeature2HDR24MergeParsedHDRBHistStatsEP11ChiMetadataS1_S1_P15ChiFeature2Hint+0x4e0>
   1e8fc: 74 00 00 14  	b	0x1eacc <_ZNK14ChiFeature2HDR24MergeParsedHDRBHistStatsEP11ChiMetadataS1_S1_P15ChiFeature2Hint+0x714>
   1e904: b6 f9 ff b5  	cbnz	x22, 0x1e838 <_ZNK14ChiFeature2HDR24MergeParsedHDRBHistStatsEP11ChiMetadataS1_S1_P15ChiFeature2Hint+0x480>
   1e90c: 61 f9 ff 54  	b.ne	0x1e838 <_ZNK14ChiFeature2HDR24MergeParsedHDRBHistStatsEP11ChiMetadataS1_S1_P15ChiFeature2Hint+0x480>
   1e910: 25 01 00 d0  	adrp	x5, 0x44000 <_ZNK14ChiFeature2HDR24MergeParsedHDRBHistStatsEP11ChiMetadataS1_S1_P15ChiFeature2Hint+0x5f0>
   1e91c: d1 f8 07 36  	tbz	w17, #0, 0x1e834 <_ZNK14ChiFeature2HDR24MergeParsedHDRBHistStatsEP11ChiMetadataS1_S1_P15ChiFeature2Hint+0x47c>
   1e920: 26 01 00 d0  	adrp	x6, 0x44000 <_ZNK14ChiFeature2HDR24MergeParsedHDRBHistStatsEP11ChiMetadataS1_S1_P15ChiFeature2Hint+0x600>
   1e930: 41 02 00 54  	b.ne	0x1e978 <_ZNK14ChiFeature2HDR24MergeParsedHDRBHistStatsEP11ChiMetadataS1_S1_P15ChiFeature2Hint+0x5c0>
   1e934: 98 ff ff d0  	adrp	x24, 0x10000 <_ZNK14ChiFeature2HDR24MergeParsedHDRBHistStatsEP11ChiMetadataS1_S1_P15ChiFeature2Hint+0x544>
   1e950: a1 ff ff 90  	adrp	x1, 0x12000 <_ZNK14ChiFeature2HDR24MergeParsedHDRBHistStatsEP11ChiMetadataS1_S1_P15ChiFeature2Hint+0x568>
   1e954: 82 ff ff b0  	adrp	x2, 0xf000 <_ZNK14ChiFeature2HDR24MergeParsedHDRBHistStatsEP11ChiMetadataS1_S1_P15ChiFeature2Hint+0x560>
   1e958: a5 ff ff 90  	adrp	x5, 0x12000 <_ZNK14ChiFeature2HDR24MergeParsedHDRBHistStatsEP11ChiMetadataS1_S1_P15ChiFeature2Hint+0x570>
   1e978: 95 ff ff d0  	adrp	x21, 0x10000 <_ZNK14ChiFeature2HDR24MergeParsedHDRBHistStatsEP11ChiMetadataS1_S1_P15ChiFeature2Hint+0x588>
   1e994: a1 ff ff 90  	adrp	x1, 0x12000 <_ZNK14ChiFeature2HDR24MergeParsedHDRBHistStatsEP11ChiMetadataS1_S1_P15ChiFeature2Hint+0x5ac>
   1e99c: 60 ff ff b0  	adrp	x0, 0xb000 <_ZNK14ChiFeature2HDR24MergeParsedHDRBHistStatsEP11ChiMetadataS1_S1_P15ChiFeature2Hint+0x598>
   1e9a0: a3 ff ff 90  	adrp	x3, 0x12000 <_ZNK14ChiFeature2HDR24MergeParsedHDRBHistStatsEP11ChiMetadataS1_S1_P15ChiFeature2Hint+0x5b8>
   1e9a4: a5 ff ff 90  	adrp	x5, 0x12000 <_ZNK14ChiFeature2HDR24MergeParsedHDRBHistStatsEP11ChiMetadataS1_S1_P15ChiFeature2Hint+0x5bc>
   1e9bc: e4 00 00 14  	b	0x1ed4c <_ZNK14ChiFeature2HDR24MergeParsedHDRBHistStatsEP11ChiMetadataS1_S1_P15ChiFeature2Hint+0x994>
   1e9c0: 99 ff ff f0  	adrp	x25, 0x11000 <_ZNK14ChiFeature2HDR24MergeParsedHDRBHistStatsEP11ChiMetadataS1_S1_P15ChiFeature2Hint+0x5d4>
   1e9c4: 7a ff ff b0  	adrp	x26, 0xb000 <_ZNK14ChiFeature2HDR24MergeParsedHDRBHistStatsEP11ChiMetadataS1_S1_P15ChiFeature2Hint+0x5c0>
   1ea18: 03 f6 ff b5  	cbnz	x3, 0x1e8d8 <_ZNK14ChiFeature2HDR24MergeParsedHDRBHistStatsEP11ChiMetadataS1_S1_P15ChiFeature2Hint+0x520>
   1ea1c: 30 01 00 d0  	adrp	x16, 0x44000 <_ZNK14ChiFeature2HDR24MergeParsedHDRBHistStatsEP11ChiMetadataS1_S1_P15ChiFeature2Hint+0x6fc>
   1ea28: 2e 05 00 36  	tbz	w14, #0, 0x1eacc <_ZNK14ChiFeature2HDR24MergeParsedHDRBHistStatsEP11ChiMetadataS1_S1_P15ChiFeature2Hint+0x714>
   1ea2c: 31 01 00 d0  	adrp	x17, 0x44000 <_ZNK14ChiFeature2HDR24MergeParsedHDRBHistStatsEP11ChiMetadataS1_S1_P15ChiFeature2Hint+0x70c>
   1ea3c: 41 02 00 54  	b.ne	0x1ea84 <_ZNK14ChiFeature2HDR24MergeParsedHDRBHistStatsEP11ChiMetadataS1_S1_P15ChiFeature2Hint+0x6cc>
   1ea40: 9a ff ff d0  	adrp	x26, 0x10000 <_ZNK14ChiFeature2HDR24MergeParsedHDRBHistStatsEP11ChiMetadataS1_S1_P15ChiFeature2Hint+0x650>
   1ea5c: a1 ff ff 90  	adrp	x1, 0x12000 <_ZNK14ChiFeature2HDR24MergeParsedHDRBHistStatsEP11ChiMetadataS1_S1_P15ChiFeature2Hint+0x674>
   1ea60: 82 ff ff f0  	adrp	x2, 0x11000 <_ZNK14ChiFeature2HDR24MergeParsedHDRBHistStatsEP11ChiMetadataS1_S1_P15ChiFeature2Hint+0x674>
   1ea64: a5 ff ff 90  	adrp	x5, 0x12000 <_ZNK14ChiFeature2HDR24MergeParsedHDRBHistStatsEP11ChiMetadataS1_S1_P15ChiFeature2Hint+0x67c>
   1ea84: 98 ff ff d0  	adrp	x24, 0x10000 <_ZNK14ChiFeature2HDR24MergeParsedHDRBHistStatsEP11ChiMetadataS1_S1_P15ChiFeature2Hint+0x694>
   1eaa0: a1 ff ff 90  	adrp	x1, 0x12000 <_ZNK14ChiFeature2HDR24MergeParsedHDRBHistStatsEP11ChiMetadataS1_S1_P15ChiFeature2Hint+0x6b8>
   1eaa8: 60 ff ff b0  	adrp	x0, 0xb000 <_ZNK14ChiFeature2HDR24MergeParsedHDRBHistStatsEP11ChiMetadataS1_S1_P15ChiFeature2Hint+0x6a4>
   1eaac: a3 ff ff 90  	adrp	x3, 0x12000 <_ZNK14ChiFeature2HDR24MergeParsedHDRBHistStatsEP11ChiMetadataS1_S1_P15ChiFeature2Hint+0x6c4>
   1eab0: 85 ff ff f0  	adrp	x5, 0x11000 <_ZNK14ChiFeature2HDR24MergeParsedHDRBHistStatsEP11ChiMetadataS1_S1_P15ChiFeature2Hint+0x6c4>
   1eac8: be 8d 00 94  	bl	0x421c0 <_ZN6ChiLog9LogSystemEPKcS1_S1_S1_iS1_z@plt>
   1eacc: 35 07 00 b4  	cbz	x21, 0x1ebb0 <_ZNK14ChiFeature2HDR24MergeParsedHDRBHistStatsEP11ChiMetadataS1_S1_P15ChiFeature2Hint+0x7f8>
   1ead4: 81 ff ff f0  	adrp	x1, 0x11000 <_ZNK14ChiFeature2HDR24MergeParsedHDRBHistStatsEP11ChiMetadataS1_S1_P15ChiFeature2Hint+0x6e8>
   1eadc: 62 ff ff b0  	adrp	x2, 0xb000 <_ZNK14ChiFeature2HDR24MergeParsedHDRBHistStatsEP11ChiMetadataS1_S1_P15ChiFeature2Hint+0x6d8>
   1eaf8: 5a 00 00 14  	b	0x1ec60 <_ZNK14ChiFeature2HDR24MergeParsedHDRBHistStatsEP11ChiMetadataS1_S1_P15ChiFeature2Hint+0x8a8>
   1eafc: 2e 01 00 d0  	adrp	x14, 0x44000 <_ZNK14ChiFeature2HDR24MergeParsedHDRBHistStatsEP11ChiMetadataS1_S1_P15ChiFeature2Hint+0x7dc>
   1eb08: ac e3 07 36  	tbz	w12, #0, 0x1e77c <_ZNK14ChiFeature2HDR24MergeParsedHDRBHistStatsEP11ChiMetadataS1_S1_P15ChiFeature2Hint+0x3c4>
   1eb0c: 2f 01 00 d0  	adrp	x15, 0x44000 <_ZNK14ChiFeature2HDR24MergeParsedHDRBHistStatsEP11ChiMetadataS1_S1_P15ChiFeature2Hint+0x7ec>
   1eb1c: 41 02 00 54  	b.ne	0x1eb64 <_ZNK14ChiFeature2HDR24MergeParsedHDRBHistStatsEP11ChiMetadataS1_S1_P15ChiFeature2Hint+0x7ac>
   1eb20: 95 ff ff d0  	adrp	x21, 0x10000 <_ZNK14ChiFeature2HDR24MergeParsedHDRBHistStatsEP11ChiMetadataS1_S1_P15ChiFeature2Hint+0x730>
   1eb3c: a1 ff ff 90  	adrp	x1, 0x12000 <_ZNK14ChiFeature2HDR24MergeParsedHDRBHistStatsEP11ChiMetadataS1_S1_P15ChiFeature2Hint+0x754>
   1eb40: 82 ff ff b0  	adrp	x2, 0xf000 <_ZNK14ChiFeature2HDR24MergeParsedHDRBHistStatsEP11ChiMetadataS1_S1_P15ChiFeature2Hint+0x74c>
   1eb44: a5 ff ff 90  	adrp	x5, 0x12000 <_ZNK14ChiFeature2HDR24MergeParsedHDRBHistStatsEP11ChiMetadataS1_S1_P15ChiFeature2Hint+0x75c>
   1eb64: 98 ff ff d0  	adrp	x24, 0x10000 <_ZNK14ChiFeature2HDR24MergeParsedHDRBHistStatsEP11ChiMetadataS1_S1_P15ChiFeature2Hint+0x774>
   1eb80: a1 ff ff 90  	adrp	x1, 0x12000 <_ZNK14ChiFeature2HDR24MergeParsedHDRBHistStatsEP11ChiMetadataS1_S1_P15ChiFeature2Hint+0x798>
   1eb88: 60 ff ff b0  	adrp	x0, 0xb000 <_ZNK14ChiFeature2HDR24MergeParsedHDRBHistStatsEP11ChiMetadataS1_S1_P15ChiFeature2Hint+0x784>
   1eb8c: a3 ff ff 90  	adrp	x3, 0x12000 <_ZNK14ChiFeature2HDR24MergeParsedHDRBHistStatsEP11ChiMetadataS1_S1_P15ChiFeature2Hint+0x7a4>
   1eb90: 65 ff ff f0  	adrp	x5, 0xd000 <_ZNK14ChiFeature2HDR24MergeParsedHDRBHistStatsEP11ChiMetadataS1_S1_P15ChiFeature2Hint+0x794>
   1eba8: 86 8d 00 94  	bl	0x421c0 <_ZN6ChiLog9LogSystemEPKcS1_S1_S1_iS1_z@plt>
   1ebac: f4 fe ff 17  	b	0x1e77c <_ZNK14ChiFeature2HDR24MergeParsedHDRBHistStatsEP11ChiMetadataS1_S1_P15ChiFeature2Hint+0x3c4>
   1ebb0: 21 01 00 d0  	adrp	x1, 0x44000 <_ZNK14ChiFeature2HDR24MergeParsedHDRBHistStatsEP11ChiMetadataS1_S1_P15ChiFeature2Hint+0x890>
   1ebbc: 2f 05 00 36  	tbz	w15, #0, 0x1ec60 <_ZNK14ChiFeature2HDR24MergeParsedHDRBHistStatsEP11ChiMetadataS1_S1_P15ChiFeature2Hint+0x8a8>
   1ebc0: 22 01 00 d0  	adrp	x2, 0x44000 <_ZNK14ChiFeature2HDR24MergeParsedHDRBHistStatsEP11ChiMetadataS1_S1_P15ChiFeature2Hint+0x8a0>
   1ebd0: 41 02 00 54  	b.ne	0x1ec18 <_ZNK14ChiFeature2HDR24MergeParsedHDRBHistStatsEP11ChiMetadataS1_S1_P15ChiFeature2Hint+0x860>
   1ebd4: 95 ff ff d0  	adrp	x21, 0x10000 <_ZNK14ChiFeature2HDR24MergeParsedHDRBHistStatsEP11ChiMetadataS1_S1_P15ChiFeature2Hint+0x7e4>
   1ebf0: a1 ff ff 90  	adrp	x1, 0x12000 <_ZNK14ChiFeature2HDR24MergeParsedHDRBHistStatsEP11ChiMetadataS1_S1_P15ChiFeature2Hint+0x808>
   1ebf4: 82 ff ff b0  	adrp	x2, 0xf000 <_ZNK14ChiFeature2HDR24MergeParsedHDRBHistStatsEP11ChiMetadataS1_S1_P15ChiFeature2Hint+0x800>
   1ebf8: a5 ff ff 90  	adrp	x5, 0x12000 <_ZNK14ChiFeature2HDR24MergeParsedHDRBHistStatsEP11ChiMetadataS1_S1_P15ChiFeature2Hint+0x810>
   1ec18: 99 ff ff d0  	adrp	x25, 0x10000 <_ZNK14ChiFeature2HDR24MergeParsedHDRBHistStatsEP11ChiMetadataS1_S1_P15ChiFeature2Hint+0x828>
   1ec34: a1 ff ff 90  	adrp	x1, 0x12000 <_ZNK14ChiFeature2HDR24MergeParsedHDRBHistStatsEP11ChiMetadataS1_S1_P15ChiFeature2Hint+0x84c>
   1ec3c: 60 ff ff b0  	adrp	x0, 0xb000 <_ZNK14ChiFeature2HDR24MergeParsedHDRBHistStatsEP11ChiMetadataS1_S1_P15ChiFeature2Hint+0x838>
   1ec40: a3 ff ff 90  	adrp	x3, 0x12000 <_ZNK14ChiFeature2HDR24MergeParsedHDRBHistStatsEP11ChiMetadataS1_S1_P15ChiFeature2Hint+0x858>
   1ec44: 85 ff ff f0  	adrp	x5, 0x11000 <_ZNK14ChiFeature2HDR24MergeParsedHDRBHistStatsEP11ChiMetadataS1_S1_P15ChiFeature2Hint+0x858>
   1ec5c: 59 8d 00 94  	bl	0x421c0 <_ZN6ChiLog9LogSystemEPKcS1_S1_S1_iS1_z@plt>
   1ec60: 14 02 00 b4  	cbz	x20, 0x1eca0 <_ZNK14ChiFeature2HDR24MergeParsedHDRBHistStatsEP11ChiMetadataS1_S1_P15ChiFeature2Hint+0x8e8>
   1ec68: 81 ff ff f0  	adrp	x1, 0x11000 <_ZNK14ChiFeature2HDR24MergeParsedHDRBHistStatsEP11ChiMetadataS1_S1_P15ChiFeature2Hint+0x87c>
   1ec70: 62 ff ff b0  	adrp	x2, 0xb000 <_ZNK14ChiFeature2HDR24MergeParsedHDRBHistStatsEP11ChiMetadataS1_S1_P15ChiFeature2Hint+0x86c>
   1ec98: 80 dd ff 54  	b.eq	0x1e848 <_ZNK14ChiFeature2HDR24MergeParsedHDRBHistStatsEP11ChiMetadataS1_S1_P15ChiFeature2Hint+0x490>
   1eca0: 23 01 00 d0  	adrp	x3, 0x44000 <_ZNK14ChiFeature2HDR24MergeParsedHDRBHistStatsEP11ChiMetadataS1_S1_P15ChiFeature2Hint+0x980>
   1ecac: 50 dc 07 36  	tbz	w16, #0, 0x1e834 <_ZNK14ChiFeature2HDR24MergeParsedHDRBHistStatsEP11ChiMetadataS1_S1_P15ChiFeature2Hint+0x47c>
   1ecb0: 24 01 00 d0  	adrp	x4, 0x44000 <_ZNK14ChiFeature2HDR24MergeParsedHDRBHistStatsEP11ChiMetadataS1_S1_P15ChiFeature2Hint+0x990>
   1ecc0: 41 02 00 54  	b.ne	0x1ed08 <_ZNK14ChiFeature2HDR24MergeParsedHDRBHistStatsEP11ChiMetadataS1_S1_P15ChiFeature2Hint+0x950>
   1ecc4: 94 ff ff d0  	adrp	x20, 0x10000 <_ZNK14ChiFeature2HDR24MergeParsedHDRBHistStatsEP11ChiMetadataS1_S1_P15ChiFeature2Hint+0x8d4>
   1ece0: a1 ff ff 90  	adrp	x1, 0x12000 <_ZNK14ChiFeature2HDR24MergeParsedHDRBHistStatsEP11ChiMetadataS1_S1_P15ChiFeature2Hint+0x8f8>
   1ece4: 82 ff ff b0  	adrp	x2, 0xf000 <_ZNK14ChiFeature2HDR24MergeParsedHDRBHistStatsEP11ChiMetadataS1_S1_P15ChiFeature2Hint+0x8f0>
   1ece8: a5 ff ff 90  	adrp	x5, 0x12000 <_ZNK14ChiFeature2HDR24MergeParsedHDRBHistStatsEP11ChiMetadataS1_S1_P15ChiFeature2Hint+0x900>
   1ed08: 9a ff ff d0  	adrp	x26, 0x10000 <_ZNK14ChiFeature2HDR24MergeParsedHDRBHistStatsEP11ChiMetadataS1_S1_P15ChiFeature2Hint+0x918>
   1ed24: a1 ff ff 90  	adrp	x1, 0x12000 <_ZNK14ChiFeature2HDR24MergeParsedHDRBHistStatsEP11ChiMetadataS1_S1_P15ChiFeature2Hint+0x93c>
   1ed2c: 60 ff ff b0  	adrp	x0, 0xb000 <_ZNK14ChiFeature2HDR24MergeParsedHDRBHistStatsEP11ChiMetadataS1_S1_P15ChiFeature2Hint+0x928>
   1ed30: a3 ff ff 90  	adrp	x3, 0x12000 <_ZNK14ChiFeature2HDR24MergeParsedHDRBHistStatsEP11ChiMetadataS1_S1_P15ChiFeature2Hint+0x948>
   1ed34: 65 ff ff f0  	adrp	x5, 0xd000 <_ZNK14ChiFeature2HDR24MergeParsedHDRBHistStatsEP11ChiMetadataS1_S1_P15ChiFeature2Hint+0x938>
   1ed4c: 1d 8d 00 94  	bl	0x421c0 <_ZN6ChiLog9LogSystemEPKcS1_S1_S1_iS1_z@plt>
   1ed50: b9 fe ff 17  	b	0x1e834 <_ZNK14ChiFeature2HDR24MergeParsedHDRBHistStatsEP11ChiMetadataS1_S1_P15ChiFeature2Hint+0x47c>
000000000001ed58 <_ZNK14ChiFeature2HDR26MergeParsedTintlessBGStatsEP11ChiMetadataS1_S1_P15ChiFeature2Hinti>:
   1ed90: c1 05 00 b4  	cbz	x1, 0x1ee48 <_ZNK14ChiFeature2HDR26MergeParsedTintlessBGStatsEP11ChiMetadataS1_S1_P15ChiFeature2Hinti+0xf0>
   1ed94: b3 05 00 b4  	cbz	x19, 0x1ee48 <_ZNK14ChiFeature2HDR26MergeParsedTintlessBGStatsEP11ChiMetadataS1_S1_P15ChiFeature2Hinti+0xf0>
   1eda8: 29 0b 18 37  	tbnz	w9, #3, 0x1ef0c <_ZNK14ChiFeature2HDR26MergeParsedTintlessBGStatsEP11ChiMetadataS1_S1_P15ChiFeature2Hinti+0x1b4>
   1edac: 9a ff ff d0  	adrp	x26, 0x10000 <_ZNK14ChiFeature2HDR26MergeParsedTintlessBGStatsEP11ChiMetadataS1_S1_P15ChiFeature2Hinti+0x1c>
   1edb0: 7b ff ff b0  	adrp	x27, 0xb000 <_ZNK14ChiFeature2HDR26MergeParsedTintlessBGStatsEP11ChiMetadataS1_S1_P15ChiFeature2Hinti+0xc>
   1ee08: 61 0b 00 54  	b.ne	0x1ef74 <_ZNK14ChiFeature2HDR26MergeParsedTintlessBGStatsEP11ChiMetadataS1_S1_P15ChiFeature2Hinti+0x21c>
   1ee0c: 56 0b 00 b4  	cbz	x22, 0x1ef74 <_ZNK14ChiFeature2HDR26MergeParsedTintlessBGStatsEP11ChiMetadataS1_S1_P15ChiFeature2Hinti+0x21c>
   1ee14: 81 ff ff d0  	adrp	x1, 0x10000 <_ZNK14ChiFeature2HDR26MergeParsedTintlessBGStatsEP11ChiMetadataS1_S1_P15ChiFeature2Hinti+0x84>
   1ee1c: 62 ff ff b0  	adrp	x2, 0xb000 <_ZNK14ChiFeature2HDR26MergeParsedTintlessBGStatsEP11ChiMetadataS1_S1_P15ChiFeature2Hinti+0x78>
   1ee40: 80 15 00 54  	b.eq	0x1f0f0 <_ZNK14ChiFeature2HDR26MergeParsedTintlessBGStatsEP11ChiMetadataS1_S1_P15ChiFeature2Hinti+0x398>
   1ee44: b8 00 00 14  	b	0x1f124 <_ZNK14ChiFeature2HDR26MergeParsedTintlessBGStatsEP11ChiMetadataS1_S1_P15ChiFeature2Hinti+0x3cc>
   1ee48: 28 01 00 d0  	adrp	x8, 0x44000 <_ZNK14ChiFeature2HDR26MergeParsedTintlessBGStatsEP11ChiMetadataS1_S1_P15ChiFeature2Hinti+0x188>
   1ee54: c8 16 00 36  	tbz	w8, #0, 0x1f12c <_ZNK14ChiFeature2HDR26MergeParsedTintlessBGStatsEP11ChiMetadataS1_S1_P15ChiFeature2Hinti+0x3d4>
   1ee58: 29 01 00 d0  	adrp	x9, 0x44000 <_ZNK14ChiFeature2HDR26MergeParsedTintlessBGStatsEP11ChiMetadataS1_S1_P15ChiFeature2Hinti+0x198>
   1ee68: 81 02 00 54  	b.ne	0x1eeb8 <_ZNK14ChiFeature2HDR26MergeParsedTintlessBGStatsEP11ChiMetadataS1_S1_P15ChiFeature2Hinti+0x160>
   1ee6c: 99 ff ff d0  	adrp	x25, 0x10000 <_ZNK14ChiFeature2HDR26MergeParsedTintlessBGStatsEP11ChiMetadataS1_S1_P15ChiFeature2Hinti+0xdc>
   1ee88: a1 ff ff 90  	adrp	x1, 0x12000 <_ZNK14ChiFeature2HDR26MergeParsedTintlessBGStatsEP11ChiMetadataS1_S1_P15ChiFeature2Hinti+0x100>
   1ee8c: 62 ff ff b0  	adrp	x2, 0xb000 <_ZNK14ChiFeature2HDR26MergeParsedTintlessBGStatsEP11ChiMetadataS1_S1_P15ChiFeature2Hinti+0xe8>
   1ee90: 85 ff ff f0  	adrp	x5, 0x11000 <_ZNK14ChiFeature2HDR26MergeParsedTintlessBGStatsEP11ChiMetadataS1_S1_P15ChiFeature2Hinti+0x104>
   1eeb8: 99 ff ff d0  	adrp	x25, 0x10000 <_ZNK14ChiFeature2HDR26MergeParsedTintlessBGStatsEP11ChiMetadataS1_S1_P15ChiFeature2Hinti+0x128>
   1eed4: a1 ff ff 90  	adrp	x1, 0x12000 <_ZNK14ChiFeature2HDR26MergeParsedTintlessBGStatsEP11ChiMetadataS1_S1_P15ChiFeature2Hinti+0x14c>
   1eedc: 60 ff ff b0  	adrp	x0, 0xb000 <_ZNK14ChiFeature2HDR26MergeParsedTintlessBGStatsEP11ChiMetadataS1_S1_P15ChiFeature2Hinti+0x138>
   1eee0: 83 ff ff f0  	adrp	x3, 0x11000 <_ZNK14ChiFeature2HDR26MergeParsedTintlessBGStatsEP11ChiMetadataS1_S1_P15ChiFeature2Hinti+0x154>
   1eee4: 85 ff ff f0  	adrp	x5, 0x11000 <_ZNK14ChiFeature2HDR26MergeParsedTintlessBGStatsEP11ChiMetadataS1_S1_P15ChiFeature2Hinti+0x158>
   1ef04: af 8c 00 94  	bl	0x421c0 <_ZN6ChiLog9LogSystemEPKcS1_S1_S1_iS1_z@plt>
   1ef08: 89 00 00 14  	b	0x1f12c <_ZNK14ChiFeature2HDR26MergeParsedTintlessBGStatsEP11ChiMetadataS1_S1_P15ChiFeature2Hinti+0x3d4>
   1ef10: 81 ff ff d0  	adrp	x1, 0x10000 <_ZNK14ChiFeature2HDR26MergeParsedTintlessBGStatsEP11ChiMetadataS1_S1_P15ChiFeature2Hinti+0x180>
   1ef18: 62 ff ff b0  	adrp	x2, 0xb000 <_ZNK14ChiFeature2HDR26MergeParsedTintlessBGStatsEP11ChiMetadataS1_S1_P15ChiFeature2Hinti+0x174>
   1ef3c: 61 02 00 54  	b.ne	0x1ef88 <_ZNK14ChiFeature2HDR26MergeParsedTintlessBGStatsEP11ChiMetadataS1_S1_P15ChiFeature2Hinti+0x230>
   1ef40: 56 02 00 b4  	cbz	x22, 0x1ef88 <_ZNK14ChiFeature2HDR26MergeParsedTintlessBGStatsEP11ChiMetadataS1_S1_P15ChiFeature2Hinti+0x230>
   1ef48: 81 ff ff d0  	adrp	x1, 0x10000 <_ZNK14ChiFeature2HDR26MergeParsedTintlessBGStatsEP11ChiMetadataS1_S1_P15ChiFeature2Hinti+0x1b8>
   1ef50: 62 ff ff b0  	adrp	x2, 0xb000 <_ZNK14ChiFeature2HDR26MergeParsedTintlessBGStatsEP11ChiMetadataS1_S1_P15ChiFeature2Hinti+0x1ac>
   1ef70: 6e 00 00 14  	b	0x1f128 <_ZNK14ChiFeature2HDR26MergeParsedTintlessBGStatsEP11ChiMetadataS1_S1_P15ChiFeature2Hinti+0x3d0>
   1ef74: 16 06 00 b4  	cbz	x22, 0x1f034 <_ZNK14ChiFeature2HDR26MergeParsedTintlessBGStatsEP11ChiMetadataS1_S1_P15ChiFeature2Hinti+0x2dc>
   1ef80: 80 0b 00 54  	b.eq	0x1f0f0 <_ZNK14ChiFeature2HDR26MergeParsedTintlessBGStatsEP11ChiMetadataS1_S1_P15ChiFeature2Hinti+0x398>
   1ef84: 68 00 00 14  	b	0x1f124 <_ZNK14ChiFeature2HDR26MergeParsedTintlessBGStatsEP11ChiMetadataS1_S1_P15ChiFeature2Hinti+0x3cc>
   1ef88: 96 14 00 b5  	cbnz	x22, 0x1f218 <_ZNK14ChiFeature2HDR26MergeParsedTintlessBGStatsEP11ChiMetadataS1_S1_P15ChiFeature2Hinti+0x4c0>
   1ef8c: 2a 01 00 d0  	adrp	x10, 0x44000 <_ZNK14ChiFeature2HDR26MergeParsedTintlessBGStatsEP11ChiMetadataS1_S1_P15ChiFeature2Hinti+0x2cc>
   1ef98: aa 0c 08 36  	tbz	w10, #1, 0x1f12c <_ZNK14ChiFeature2HDR26MergeParsedTintlessBGStatsEP11ChiMetadataS1_S1_P15ChiFeature2Hinti+0x3d4>
   1ef9c: 2b 01 00 d0  	adrp	x11, 0x44000 <_ZNK14ChiFeature2HDR26MergeParsedTintlessBGStatsEP11ChiMetadataS1_S1_P15ChiFeature2Hinti+0x2dc>
   1efa0: 96 ff ff d0  	adrp	x22, 0x10000 <_ZNK14ChiFeature2HDR26MergeParsedTintlessBGStatsEP11ChiMetadataS1_S1_P15ChiFeature2Hinti+0x210>
   1efb4: 01 02 00 54  	b.ne	0x1eff4 <_ZNK14ChiFeature2HDR26MergeParsedTintlessBGStatsEP11ChiMetadataS1_S1_P15ChiFeature2Hinti+0x29c>
   1efcc: a1 ff ff 90  	adrp	x1, 0x12000 <_ZNK14ChiFeature2HDR26MergeParsedTintlessBGStatsEP11ChiMetadataS1_S1_P15ChiFeature2Hinti+0x244>
   1efd0: 62 ff ff f0  	adrp	x2, 0xd000 <_ZNK14ChiFeature2HDR26MergeParsedTintlessBGStatsEP11ChiMetadataS1_S1_P15ChiFeature2Hinti+0x234>
   1efd4: 85 ff ff f0  	adrp	x5, 0x11000 <_ZNK14ChiFeature2HDR26MergeParsedTintlessBGStatsEP11ChiMetadataS1_S1_P15ChiFeature2Hinti+0x248>
   1f008: 61 ff ff b0  	adrp	x1, 0xc000 <_ZNK14ChiFeature2HDR26MergeParsedTintlessBGStatsEP11ChiMetadataS1_S1_P15ChiFeature2Hinti+0x264>
   1f010: 80 ff ff 90  	adrp	x0, 0xf000 <_ZNK14ChiFeature2HDR26MergeParsedTintlessBGStatsEP11ChiMetadataS1_S1_P15ChiFeature2Hinti+0x278>
   1f014: 83 ff ff d0  	adrp	x3, 0x11000 <_ZNK14ChiFeature2HDR26MergeParsedTintlessBGStatsEP11ChiMetadataS1_S1_P15ChiFeature2Hinti+0x284>
   1f018: 85 ff ff 90  	adrp	x5, 0xf000 <_ZNK14ChiFeature2HDR26MergeParsedTintlessBGStatsEP11ChiMetadataS1_S1_P15ChiFeature2Hinti+0x280>
   1f030: 4c 01 00 14  	b	0x1f560 <_ZNK14ChiFeature2HDR26MergeParsedTintlessBGStatsEP11ChiMetadataS1_S1_P15ChiFeature2Hinti+0x808>
   1f034: 2c 01 00 b0  	adrp	x12, 0x44000 <_ZNK14ChiFeature2HDR26MergeParsedTintlessBGStatsEP11ChiMetadataS1_S1_P15ChiFeature2Hinti+0x370>
   1f040: 2b 05 08 36  	tbz	w11, #1, 0x1f0e4 <_ZNK14ChiFeature2HDR26MergeParsedTintlessBGStatsEP11ChiMetadataS1_S1_P15ChiFeature2Hinti+0x38c>
   1f044: 2d 01 00 b0  	adrp	x13, 0x44000 <_ZNK14ChiFeature2HDR26MergeParsedTintlessBGStatsEP11ChiMetadataS1_S1_P15ChiFeature2Hinti+0x380>
   1f054: 41 02 00 54  	b.ne	0x1f09c <_ZNK14ChiFeature2HDR26MergeParsedTintlessBGStatsEP11ChiMetadataS1_S1_P15ChiFeature2Hinti+0x344>
   1f058: 9a ff ff b0  	adrp	x26, 0x10000 <_ZNK14ChiFeature2HDR26MergeParsedTintlessBGStatsEP11ChiMetadataS1_S1_P15ChiFeature2Hinti+0x2c4>
   1f074: 81 ff ff f0  	adrp	x1, 0x12000 <_ZNK14ChiFeature2HDR26MergeParsedTintlessBGStatsEP11ChiMetadataS1_S1_P15ChiFeature2Hinti+0x2e8>
   1f078: 62 ff ff d0  	adrp	x2, 0xd000 <_ZNK14ChiFeature2HDR26MergeParsedTintlessBGStatsEP11ChiMetadataS1_S1_P15ChiFeature2Hinti+0x2d8>
   1f07c: 85 ff ff d0  	adrp	x5, 0x11000 <_ZNK14ChiFeature2HDR26MergeParsedTintlessBGStatsEP11ChiMetadataS1_S1_P15ChiFeature2Hinti+0x2ec>
   1f09c: 9b ff ff b0  	adrp	x27, 0x10000 <_ZNK14ChiFeature2HDR26MergeParsedTintlessBGStatsEP11ChiMetadataS1_S1_P15ChiFeature2Hinti+0x308>
   1f0b8: 61 ff ff b0  	adrp	x1, 0xc000 <_ZNK14ChiFeature2HDR26MergeParsedTintlessBGStatsEP11ChiMetadataS1_S1_P15ChiFeature2Hinti+0x314>
   1f0c0: 80 ff ff 90  	adrp	x0, 0xf000 <_ZNK14ChiFeature2HDR26MergeParsedTintlessBGStatsEP11ChiMetadataS1_S1_P15ChiFeature2Hinti+0x328>
   1f0c4: 83 ff ff d0  	adrp	x3, 0x11000 <_ZNK14ChiFeature2HDR26MergeParsedTintlessBGStatsEP11ChiMetadataS1_S1_P15ChiFeature2Hinti+0x334>
   1f0c8: 85 ff ff 90  	adrp	x5, 0xf000 <_ZNK14ChiFeature2HDR26MergeParsedTintlessBGStatsEP11ChiMetadataS1_S1_P15ChiFeature2Hinti+0x330>
   1f0e0: 38 8c 00 94  	bl	0x421c0 <_ZN6ChiLog9LogSystemEPKcS1_S1_S1_iS1_z@plt>
   1f0ec: c1 01 00 54  	b.ne	0x1f124 <_ZNK14ChiFeature2HDR26MergeParsedTintlessBGStatsEP11ChiMetadataS1_S1_P15ChiFeature2Hinti+0x3cc>
   1f0f0: b9 01 00 b4  	cbz	x25, 0x1f124 <_ZNK14ChiFeature2HDR26MergeParsedTintlessBGStatsEP11ChiMetadataS1_S1_P15ChiFeature2Hinti+0x3cc>
   1f0f8: 81 ff ff b0  	adrp	x1, 0x10000 <_ZNK14ChiFeature2HDR26MergeParsedTintlessBGStatsEP11ChiMetadataS1_S1_P15ChiFeature2Hinti+0x364>
   1f100: 62 ff ff 90  	adrp	x2, 0xb000 <_ZNK14ChiFeature2HDR26MergeParsedTintlessBGStatsEP11ChiMetadataS1_S1_P15ChiFeature2Hinti+0x358>
   1f120: 02 00 00 14  	b	0x1f128 <_ZNK14ChiFeature2HDR26MergeParsedTintlessBGStatsEP11ChiMetadataS1_S1_P15ChiFeature2Hinti+0x3d0>
   1f124: 99 1c 00 b4  	cbz	x25, 0x1f4b4 <_ZNK14ChiFeature2HDR26MergeParsedTintlessBGStatsEP11ChiMetadataS1_S1_P15ChiFeature2Hinti+0x75c>
   1f128: 80 07 00 34  	cbz	w0, 0x1f218 <_ZNK14ChiFeature2HDR26MergeParsedTintlessBGStatsEP11ChiMetadataS1_S1_P15ChiFeature2Hinti+0x4c0>
   1f12c: 27 01 00 b0  	adrp	x7, 0x44000 <_ZNK14ChiFeature2HDR26MergeParsedTintlessBGStatsEP11ChiMetadataS1_S1_P15ChiFeature2Hinti+0x468>
   1f138: 62 05 00 36  	tbz	w2, #0, 0x1f1e4 <_ZNK14ChiFeature2HDR26MergeParsedTintlessBGStatsEP11ChiMetadataS1_S1_P15ChiFeature2Hinti+0x48c>
   1f13c: 33 01 00 b0  	adrp	x19, 0x44000 <_ZNK14ChiFeature2HDR26MergeParsedTintlessBGStatsEP11ChiMetadataS1_S1_P15ChiFeature2Hinti+0x478>
   1f14c: 61 02 00 54  	b.ne	0x1f198 <_ZNK14ChiFeature2HDR26MergeParsedTintlessBGStatsEP11ChiMetadataS1_S1_P15ChiFeature2Hinti+0x440>
   1f150: 9a ff ff b0  	adrp	x26, 0x10000 <_ZNK14ChiFeature2HDR26MergeParsedTintlessBGStatsEP11ChiMetadataS1_S1_P15ChiFeature2Hinti+0x3bc>
   1f16c: 81 ff ff f0  	adrp	x1, 0x12000 <_ZNK14ChiFeature2HDR26MergeParsedTintlessBGStatsEP11ChiMetadataS1_S1_P15ChiFeature2Hinti+0x3e0>
   1f170: 82 ff ff 90  	adrp	x2, 0xf000 <_ZNK14ChiFeature2HDR26MergeParsedTintlessBGStatsEP11ChiMetadataS1_S1_P15ChiFeature2Hinti+0x3d8>
   1f174: 85 ff ff d0  	adrp	x5, 0x11000 <_ZNK14ChiFeature2HDR26MergeParsedTintlessBGStatsEP11ChiMetadataS1_S1_P15ChiFeature2Hinti+0x3e4>
   1f198: 9b ff ff b0  	adrp	x27, 0x10000 <_ZNK14ChiFeature2HDR26MergeParsedTintlessBGStatsEP11ChiMetadataS1_S1_P15ChiFeature2Hinti+0x404>
   1f1b4: 81 ff ff f0  	adrp	x1, 0x12000 <_ZNK14ChiFeature2HDR26MergeParsedTintlessBGStatsEP11ChiMetadataS1_S1_P15ChiFeature2Hinti+0x428>
   1f1bc: 60 ff ff 90  	adrp	x0, 0xb000 <_ZNK14ChiFeature2HDR26MergeParsedTintlessBGStatsEP11ChiMetadataS1_S1_P15ChiFeature2Hinti+0x414>
   1f1c0: 83 ff ff d0  	adrp	x3, 0x11000 <_ZNK14ChiFeature2HDR26MergeParsedTintlessBGStatsEP11ChiMetadataS1_S1_P15ChiFeature2Hinti+0x430>
   1f1c4: 85 ff ff b0  	adrp	x5, 0x10000 <_ZNK14ChiFeature2HDR26MergeParsedTintlessBGStatsEP11ChiMetadataS1_S1_P15ChiFeature2Hinti+0x430>
   1f1e0: f8 8b 00 94  	bl	0x421c0 <_ZN6ChiLog9LogSystemEPKcS1_S1_S1_iS1_z@plt>
   1f1f4: 41 23 00 54  	b.ne	0x1f65c <_ZNK14ChiFeature2HDR26MergeParsedTintlessBGStatsEP11ChiMetadataS1_S1_P15ChiFeature2Hinti+0x904>
   1f218: f7 04 00 b4  	cbz	x23, 0x1f2b4 <_ZNK14ChiFeature2HDR26MergeParsedTintlessBGStatsEP11ChiMetadataS1_S1_P15ChiFeature2Hinti+0x55c>
   1f220: a1 04 00 54  	b.ne	0x1f2b4 <_ZNK14ChiFeature2HDR26MergeParsedTintlessBGStatsEP11ChiMetadataS1_S1_P15ChiFeature2Hinti+0x55c>
   1f228: 6d 0a 18 37  	tbnz	w13, #3, 0x1f374 <_ZNK14ChiFeature2HDR26MergeParsedTintlessBGStatsEP11ChiMetadataS1_S1_P15ChiFeature2Hinti+0x61c>
   1f22c: 99 ff ff b0  	adrp	x25, 0x10000 <_ZNK14ChiFeature2HDR26MergeParsedTintlessBGStatsEP11ChiMetadataS1_S1_P15ChiFeature2Hinti+0x498>
   1f230: 7a ff ff 90  	adrp	x26, 0xb000 <_ZNK14ChiFeature2HDR26MergeParsedTintlessBGStatsEP11ChiMetadataS1_S1_P15ChiFeature2Hinti+0x488>
   1f284: 63 0a 00 b4  	cbz	x3, 0x1f3d0 <_ZNK14ChiFeature2HDR26MergeParsedTintlessBGStatsEP11ChiMetadataS1_S1_P15ChiFeature2Hinti+0x678>
   1f28c: 81 ff ff b0  	adrp	x1, 0x10000 <_ZNK14ChiFeature2HDR26MergeParsedTintlessBGStatsEP11ChiMetadataS1_S1_P15ChiFeature2Hinti+0x4f8>
   1f294: 62 ff ff 90  	adrp	x2, 0xb000 <_ZNK14ChiFeature2HDR26MergeParsedTintlessBGStatsEP11ChiMetadataS1_S1_P15ChiFeature2Hinti+0x4ec>
   1f2b0: 74 00 00 14  	b	0x1f480 <_ZNK14ChiFeature2HDR26MergeParsedTintlessBGStatsEP11ChiMetadataS1_S1_P15ChiFeature2Hinti+0x728>
   1f2b8: 97 f9 ff b5  	cbnz	x23, 0x1f1e8 <_ZNK14ChiFeature2HDR26MergeParsedTintlessBGStatsEP11ChiMetadataS1_S1_P15ChiFeature2Hinti+0x490>
   1f2c0: 41 f9 ff 54  	b.ne	0x1f1e8 <_ZNK14ChiFeature2HDR26MergeParsedTintlessBGStatsEP11ChiMetadataS1_S1_P15ChiFeature2Hinti+0x490>
   1f2c4: 25 01 00 b0  	adrp	x5, 0x44000 <_ZNK14ChiFeature2HDR26MergeParsedTintlessBGStatsEP11ChiMetadataS1_S1_P15ChiFeature2Hinti+0x600>
   1f2d0: b1 f8 0f 36  	tbz	w17, #1, 0x1f1e4 <_ZNK14ChiFeature2HDR26MergeParsedTintlessBGStatsEP11ChiMetadataS1_S1_P15ChiFeature2Hinti+0x48c>
   1f2d4: 26 01 00 b0  	adrp	x6, 0x44000 <_ZNK14ChiFeature2HDR26MergeParsedTintlessBGStatsEP11ChiMetadataS1_S1_P15ChiFeature2Hinti+0x610>
   1f2e4: 41 02 00 54  	b.ne	0x1f32c <_ZNK14ChiFeature2HDR26MergeParsedTintlessBGStatsEP11ChiMetadataS1_S1_P15ChiFeature2Hinti+0x5d4>
   1f2e8: 99 ff ff b0  	adrp	x25, 0x10000 <_ZNK14ChiFeature2HDR26MergeParsedTintlessBGStatsEP11ChiMetadataS1_S1_P15ChiFeature2Hinti+0x554>
   1f304: 81 ff ff f0  	adrp	x1, 0x12000 <_ZNK14ChiFeature2HDR26MergeParsedTintlessBGStatsEP11ChiMetadataS1_S1_P15ChiFeature2Hinti+0x578>
   1f308: 82 ff ff b0  	adrp	x2, 0x10000 <_ZNK14ChiFeature2HDR26MergeParsedTintlessBGStatsEP11ChiMetadataS1_S1_P15ChiFeature2Hinti+0x574>
   1f30c: 85 ff ff d0  	adrp	x5, 0x11000 <_ZNK14ChiFeature2HDR26MergeParsedTintlessBGStatsEP11ChiMetadataS1_S1_P15ChiFeature2Hinti+0x57c>
   1f32c: 96 ff ff b0  	adrp	x22, 0x10000 <_ZNK14ChiFeature2HDR26MergeParsedTintlessBGStatsEP11ChiMetadataS1_S1_P15ChiFeature2Hinti+0x598>
   1f348: 61 ff ff b0  	adrp	x1, 0xc000 <_ZNK14ChiFeature2HDR26MergeParsedTintlessBGStatsEP11ChiMetadataS1_S1_P15ChiFeature2Hinti+0x5a4>
   1f350: 80 ff ff 90  	adrp	x0, 0xf000 <_ZNK14ChiFeature2HDR26MergeParsedTintlessBGStatsEP11ChiMetadataS1_S1_P15ChiFeature2Hinti+0x5b8>
   1f354: 83 ff ff d0  	adrp	x3, 0x11000 <_ZNK14ChiFeature2HDR26MergeParsedTintlessBGStatsEP11ChiMetadataS1_S1_P15ChiFeature2Hinti+0x5c4>
   1f358: 85 ff ff f0  	adrp	x5, 0x12000 <_ZNK14ChiFeature2HDR26MergeParsedTintlessBGStatsEP11ChiMetadataS1_S1_P15ChiFeature2Hinti+0x5cc>
   1f370: e7 00 00 14  	b	0x1f70c <_ZNK14ChiFeature2HDR26MergeParsedTintlessBGStatsEP11ChiMetadataS1_S1_P15ChiFeature2Hinti+0x9b4>
   1f374: 9a ff ff b0  	adrp	x26, 0x10000 <_ZNK14ChiFeature2HDR26MergeParsedTintlessBGStatsEP11ChiMetadataS1_S1_P15ChiFeature2Hinti+0x5e0>
   1f378: 7b ff ff 90  	adrp	x27, 0xb000 <_ZNK14ChiFeature2HDR26MergeParsedTintlessBGStatsEP11ChiMetadataS1_S1_P15ChiFeature2Hinti+0x5d0>
   1f3cc: e3 f5 ff b5  	cbnz	x3, 0x1f288 <_ZNK14ChiFeature2HDR26MergeParsedTintlessBGStatsEP11ChiMetadataS1_S1_P15ChiFeature2Hinti+0x530>
   1f3d0: 30 01 00 b0  	adrp	x16, 0x44000 <_ZNK14ChiFeature2HDR26MergeParsedTintlessBGStatsEP11ChiMetadataS1_S1_P15ChiFeature2Hinti+0x70c>
   1f3dc: 2e 05 08 36  	tbz	w14, #1, 0x1f480 <_ZNK14ChiFeature2HDR26MergeParsedTintlessBGStatsEP11ChiMetadataS1_S1_P15ChiFeature2Hinti+0x728>
   1f3e0: 31 01 00 b0  	adrp	x17, 0x44000 <_ZNK14ChiFeature2HDR26MergeParsedTintlessBGStatsEP11ChiMetadataS1_S1_P15ChiFeature2Hinti+0x71c>
   1f3f0: 41 02 00 54  	b.ne	0x1f438 <_ZNK14ChiFeature2HDR26MergeParsedTintlessBGStatsEP11ChiMetadataS1_S1_P15ChiFeature2Hinti+0x6e0>
   1f3f4: 9b ff ff b0  	adrp	x27, 0x10000 <_ZNK14ChiFeature2HDR26MergeParsedTintlessBGStatsEP11ChiMetadataS1_S1_P15ChiFeature2Hinti+0x660>
   1f410: 81 ff ff f0  	adrp	x1, 0x12000 <_ZNK14ChiFeature2HDR26MergeParsedTintlessBGStatsEP11ChiMetadataS1_S1_P15ChiFeature2Hinti+0x684>
   1f414: 82 ff ff f0  	adrp	x2, 0x12000 <_ZNK14ChiFeature2HDR26MergeParsedTintlessBGStatsEP11ChiMetadataS1_S1_P15ChiFeature2Hinti+0x688>
   1f418: 85 ff ff d0  	adrp	x5, 0x11000 <_ZNK14ChiFeature2HDR26MergeParsedTintlessBGStatsEP11ChiMetadataS1_S1_P15ChiFeature2Hinti+0x688>
   1f438: 99 ff ff b0  	adrp	x25, 0x10000 <_ZNK14ChiFeature2HDR26MergeParsedTintlessBGStatsEP11ChiMetadataS1_S1_P15ChiFeature2Hinti+0x6a4>
   1f454: 61 ff ff b0  	adrp	x1, 0xc000 <_ZNK14ChiFeature2HDR26MergeParsedTintlessBGStatsEP11ChiMetadataS1_S1_P15ChiFeature2Hinti+0x6b0>
   1f45c: 80 ff ff 90  	adrp	x0, 0xf000 <_ZNK14ChiFeature2HDR26MergeParsedTintlessBGStatsEP11ChiMetadataS1_S1_P15ChiFeature2Hinti+0x6c4>
   1f460: 83 ff ff d0  	adrp	x3, 0x11000 <_ZNK14ChiFeature2HDR26MergeParsedTintlessBGStatsEP11ChiMetadataS1_S1_P15ChiFeature2Hinti+0x6d0>
   1f464: 65 ff ff 90  	adrp	x5, 0xb000 <_ZNK14ChiFeature2HDR26MergeParsedTintlessBGStatsEP11ChiMetadataS1_S1_P15ChiFeature2Hinti+0x6bc>
   1f47c: 51 8b 00 94  	bl	0x421c0 <_ZN6ChiLog9LogSystemEPKcS1_S1_S1_iS1_z@plt>
   1f480: 56 07 00 b4  	cbz	x22, 0x1f568 <_ZNK14ChiFeature2HDR26MergeParsedTintlessBGStatsEP11ChiMetadataS1_S1_P15ChiFeature2Hinti+0x810>
   1f488: 81 ff ff b0  	adrp	x1, 0x10000 <_ZNK14ChiFeature2HDR26MergeParsedTintlessBGStatsEP11ChiMetadataS1_S1_P15ChiFeature2Hinti+0x6f4>
   1f490: 62 ff ff 90  	adrp	x2, 0xb000 <_ZNK14ChiFeature2HDR26MergeParsedTintlessBGStatsEP11ChiMetadataS1_S1_P15ChiFeature2Hinti+0x6e8>
   1f4b0: 5a 00 00 14  	b	0x1f618 <_ZNK14ChiFeature2HDR26MergeParsedTintlessBGStatsEP11ChiMetadataS1_S1_P15ChiFeature2Hinti+0x8c0>
   1f4b4: 2e 01 00 b0  	adrp	x14, 0x44000 <_ZNK14ChiFeature2HDR26MergeParsedTintlessBGStatsEP11ChiMetadataS1_S1_P15ChiFeature2Hinti+0x7f0>
   1f4c0: 6c e3 0f 36  	tbz	w12, #1, 0x1f12c <_ZNK14ChiFeature2HDR26MergeParsedTintlessBGStatsEP11ChiMetadataS1_S1_P15ChiFeature2Hinti+0x3d4>
   1f4c4: 2f 01 00 b0  	adrp	x15, 0x44000 <_ZNK14ChiFeature2HDR26MergeParsedTintlessBGStatsEP11ChiMetadataS1_S1_P15ChiFeature2Hinti+0x800>
   1f4d4: 41 02 00 54  	b.ne	0x1f51c <_ZNK14ChiFeature2HDR26MergeParsedTintlessBGStatsEP11ChiMetadataS1_S1_P15ChiFeature2Hinti+0x7c4>
   1f4d8: 96 ff ff b0  	adrp	x22, 0x10000 <_ZNK14ChiFeature2HDR26MergeParsedTintlessBGStatsEP11ChiMetadataS1_S1_P15ChiFeature2Hinti+0x744>
   1f4f4: 81 ff ff f0  	adrp	x1, 0x12000 <_ZNK14ChiFeature2HDR26MergeParsedTintlessBGStatsEP11ChiMetadataS1_S1_P15ChiFeature2Hinti+0x768>
   1f4f8: 82 ff ff d0  	adrp	x2, 0x11000 <_ZNK14ChiFeature2HDR26MergeParsedTintlessBGStatsEP11ChiMetadataS1_S1_P15ChiFeature2Hinti+0x768>
   1f4fc: 85 ff ff d0  	adrp	x5, 0x11000 <_ZNK14ChiFeature2HDR26MergeParsedTintlessBGStatsEP11ChiMetadataS1_S1_P15ChiFeature2Hinti+0x76c>
   1f51c: 99 ff ff b0  	adrp	x25, 0x10000 <_ZNK14ChiFeature2HDR26MergeParsedTintlessBGStatsEP11ChiMetadataS1_S1_P15ChiFeature2Hinti+0x788>
   1f538: 61 ff ff b0  	adrp	x1, 0xc000 <_ZNK14ChiFeature2HDR26MergeParsedTintlessBGStatsEP11ChiMetadataS1_S1_P15ChiFeature2Hinti+0x794>
   1f540: 80 ff ff 90  	adrp	x0, 0xf000 <_ZNK14ChiFeature2HDR26MergeParsedTintlessBGStatsEP11ChiMetadataS1_S1_P15ChiFeature2Hinti+0x7a8>
   1f544: 83 ff ff d0  	adrp	x3, 0x11000 <_ZNK14ChiFeature2HDR26MergeParsedTintlessBGStatsEP11ChiMetadataS1_S1_P15ChiFeature2Hinti+0x7b4>
   1f548: 65 ff ff b0  	adrp	x5, 0xc000 <_ZNK14ChiFeature2HDR26MergeParsedTintlessBGStatsEP11ChiMetadataS1_S1_P15ChiFeature2Hinti+0x7a4>
   1f560: 18 8b 00 94  	bl	0x421c0 <_ZN6ChiLog9LogSystemEPKcS1_S1_S1_iS1_z@plt>
   1f564: f2 fe ff 17  	b	0x1f12c <_ZNK14ChiFeature2HDR26MergeParsedTintlessBGStatsEP11ChiMetadataS1_S1_P15ChiFeature2Hinti+0x3d4>
   1f568: 21 01 00 b0  	adrp	x1, 0x44000 <_ZNK14ChiFeature2HDR26MergeParsedTintlessBGStatsEP11ChiMetadataS1_S1_P15ChiFeature2Hinti+0x8a4>
   1f574: 2f 05 08 36  	tbz	w15, #1, 0x1f618 <_ZNK14ChiFeature2HDR26MergeParsedTintlessBGStatsEP11ChiMetadataS1_S1_P15ChiFeature2Hinti+0x8c0>
   1f578: 22 01 00 b0  	adrp	x2, 0x44000 <_ZNK14ChiFeature2HDR26MergeParsedTintlessBGStatsEP11ChiMetadataS1_S1_P15ChiFeature2Hinti+0x8b4>
   1f588: 41 02 00 54  	b.ne	0x1f5d0 <_ZNK14ChiFeature2HDR26MergeParsedTintlessBGStatsEP11ChiMetadataS1_S1_P15ChiFeature2Hinti+0x878>
   1f58c: 96 ff ff b0  	adrp	x22, 0x10000 <_ZNK14ChiFeature2HDR26MergeParsedTintlessBGStatsEP11ChiMetadataS1_S1_P15ChiFeature2Hinti+0x7f8>
   1f5a8: 81 ff ff f0  	adrp	x1, 0x12000 <_ZNK14ChiFeature2HDR26MergeParsedTintlessBGStatsEP11ChiMetadataS1_S1_P15ChiFeature2Hinti+0x81c>
   1f5ac: 62 ff ff d0  	adrp	x2, 0xd000 <_ZNK14ChiFeature2HDR26MergeParsedTintlessBGStatsEP11ChiMetadataS1_S1_P15ChiFeature2Hinti+0x80c>
   1f5b0: 85 ff ff d0  	adrp	x5, 0x11000 <_ZNK14ChiFeature2HDR26MergeParsedTintlessBGStatsEP11ChiMetadataS1_S1_P15ChiFeature2Hinti+0x820>
   1f5d0: 9a ff ff b0  	adrp	x26, 0x10000 <_ZNK14ChiFeature2HDR26MergeParsedTintlessBGStatsEP11ChiMetadataS1_S1_P15ChiFeature2Hinti+0x83c>
   1f5ec: 61 ff ff b0  	adrp	x1, 0xc000 <_ZNK14ChiFeature2HDR26MergeParsedTintlessBGStatsEP11ChiMetadataS1_S1_P15ChiFeature2Hinti+0x848>
   1f5f4: 80 ff ff 90  	adrp	x0, 0xf000 <_ZNK14ChiFeature2HDR26MergeParsedTintlessBGStatsEP11ChiMetadataS1_S1_P15ChiFeature2Hinti+0x85c>
   1f5f8: 83 ff ff d0  	adrp	x3, 0x11000 <_ZNK14ChiFeature2HDR26MergeParsedTintlessBGStatsEP11ChiMetadataS1_S1_P15ChiFeature2Hinti+0x868>
   1f5fc: 65 ff ff d0  	adrp	x5, 0xd000 <_ZNK14ChiFeature2HDR26MergeParsedTintlessBGStatsEP11ChiMetadataS1_S1_P15ChiFeature2Hinti+0x85c>
   1f614: eb 8a 00 94  	bl	0x421c0 <_ZN6ChiLog9LogSystemEPKcS1_S1_S1_iS1_z@plt>
   1f618: 55 02 00 35  	cbnz	w21, 0x1f660 <_ZNK14ChiFeature2HDR26MergeParsedTintlessBGStatsEP11ChiMetadataS1_S1_P15ChiFeature2Hinti+0x908>
   1f61c: 34 02 00 b4  	cbz	x20, 0x1f660 <_ZNK14ChiFeature2HDR26MergeParsedTintlessBGStatsEP11ChiMetadataS1_S1_P15ChiFeature2Hinti+0x908>
   1f624: 81 ff ff b0  	adrp	x1, 0x10000 <_ZNK14ChiFeature2HDR26MergeParsedTintlessBGStatsEP11ChiMetadataS1_S1_P15ChiFeature2Hinti+0x890>
   1f62c: 62 ff ff 90  	adrp	x2, 0xb000 <_ZNK14ChiFeature2HDR26MergeParsedTintlessBGStatsEP11ChiMetadataS1_S1_P15ChiFeature2Hinti+0x884>
   1f658: 00 dd ff 54  	b.eq	0x1f1f8 <_ZNK14ChiFeature2HDR26MergeParsedTintlessBGStatsEP11ChiMetadataS1_S1_P15ChiFeature2Hinti+0x4a0>
   1f660: 23 01 00 b0  	adrp	x3, 0x44000 <_ZNK14ChiFeature2HDR26MergeParsedTintlessBGStatsEP11ChiMetadataS1_S1_P15ChiFeature2Hinti+0x99c>
   1f66c: d0 db 0f 36  	tbz	w16, #1, 0x1f1e4 <_ZNK14ChiFeature2HDR26MergeParsedTintlessBGStatsEP11ChiMetadataS1_S1_P15ChiFeature2Hinti+0x48c>
   1f670: 24 01 00 b0  	adrp	x4, 0x44000 <_ZNK14ChiFeature2HDR26MergeParsedTintlessBGStatsEP11ChiMetadataS1_S1_P15ChiFeature2Hinti+0x9ac>
   1f680: 41 02 00 54  	b.ne	0x1f6c8 <_ZNK14ChiFeature2HDR26MergeParsedTintlessBGStatsEP11ChiMetadataS1_S1_P15ChiFeature2Hinti+0x970>
   1f684: 94 ff ff b0  	adrp	x20, 0x10000 <_ZNK14ChiFeature2HDR26MergeParsedTintlessBGStatsEP11ChiMetadataS1_S1_P15ChiFeature2Hinti+0x8f0>
   1f6a0: 81 ff ff f0  	adrp	x1, 0x12000 <_ZNK14ChiFeature2HDR26MergeParsedTintlessBGStatsEP11ChiMetadataS1_S1_P15ChiFeature2Hinti+0x914>
   1f6a4: 62 ff ff d0  	adrp	x2, 0xd000 <_ZNK14ChiFeature2HDR26MergeParsedTintlessBGStatsEP11ChiMetadataS1_S1_P15ChiFeature2Hinti+0x904>
   1f6a8: 85 ff ff d0  	adrp	x5, 0x11000 <_ZNK14ChiFeature2HDR26MergeParsedTintlessBGStatsEP11ChiMetadataS1_S1_P15ChiFeature2Hinti+0x918>
   1f6c8: 9b ff ff b0  	adrp	x27, 0x10000 <_ZNK14ChiFeature2HDR26MergeParsedTintlessBGStatsEP11ChiMetadataS1_S1_P15ChiFeature2Hinti+0x934>
   1f6e4: 61 ff ff b0  	adrp	x1, 0xc000 <_ZNK14ChiFeature2HDR26MergeParsedTintlessBGStatsEP11ChiMetadataS1_S1_P15ChiFeature2Hinti+0x940>
   1f6ec: 80 ff ff 90  	adrp	x0, 0xf000 <_ZNK14ChiFeature2HDR26MergeParsedTintlessBGStatsEP11ChiMetadataS1_S1_P15ChiFeature2Hinti+0x954>
   1f6f0: 83 ff ff d0  	adrp	x3, 0x11000 <_ZNK14ChiFeature2HDR26MergeParsedTintlessBGStatsEP11ChiMetadataS1_S1_P15ChiFeature2Hinti+0x960>
   1f6f4: 65 ff ff d0  	adrp	x5, 0xd000 <_ZNK14ChiFeature2HDR26MergeParsedTintlessBGStatsEP11ChiMetadataS1_S1_P15ChiFeature2Hinti+0x954>
   1f70c: ad 8a 00 94  	bl	0x421c0 <_ZN6ChiLog9LogSystemEPKcS1_S1_S1_iS1_z@plt>
   1f710: b5 fe ff 17  	b	0x1f1e4 <_ZNK14ChiFeature2HDR26MergeParsedTintlessBGStatsEP11ChiMetadataS1_S1_P15ChiFeature2Hinti+0x48c>
000000000001f718 <_ZNK14ChiFeature2HDR21MergeParsedAWBBGStatsEP11ChiMetadataS1_S1_P15ChiFeature2Hinti>:
   1f73c: 3a 01 00 b0  	adrp	x26, 0x44000 <_ZNK14ChiFeature2HDR21MergeParsedAWBBGStatsEP11ChiMetadataS1_S1_P15ChiFeature2Hinti+0xb8>
   1f758: 01 06 00 b4  	cbz	x1, 0x1f818 <_ZNK14ChiFeature2HDR21MergeParsedAWBBGStatsEP11ChiMetadataS1_S1_P15ChiFeature2Hinti+0x100>
   1f75c: f3 05 00 b4  	cbz	x19, 0x1f818 <_ZNK14ChiFeature2HDR21MergeParsedAWBBGStatsEP11ChiMetadataS1_S1_P15ChiFeature2Hinti+0x100>
   1f770: 29 0b 18 37  	tbnz	w9, #3, 0x1f8d4 <_ZNK14ChiFeature2HDR21MergeParsedAWBBGStatsEP11ChiMetadataS1_S1_P15ChiFeature2Hinti+0x1bc>
   1f774: 9a ff ff d0  	adrp	x26, 0x11000 <_ZNK14ChiFeature2HDR21MergeParsedAWBBGStatsEP11ChiMetadataS1_S1_P15ChiFeature2Hinti+0x24>
   1f778: 7b ff ff 90  	adrp	x27, 0xb000 <_ZNK14ChiFeature2HDR21MergeParsedAWBBGStatsEP11ChiMetadataS1_S1_P15ChiFeature2Hinti+0x10>
   1f7d0: 61 0b 00 54  	b.ne	0x1f93c <_ZNK14ChiFeature2HDR21MergeParsedAWBBGStatsEP11ChiMetadataS1_S1_P15ChiFeature2Hinti+0x224>
   1f7d4: 56 0b 00 b4  	cbz	x22, 0x1f93c <_ZNK14ChiFeature2HDR21MergeParsedAWBBGStatsEP11ChiMetadataS1_S1_P15ChiFeature2Hinti+0x224>
   1f7dc: 81 ff ff d0  	adrp	x1, 0x11000 <_ZNK14ChiFeature2HDR21MergeParsedAWBBGStatsEP11ChiMetadataS1_S1_P15ChiFeature2Hinti+0x8c>
   1f7e4: 62 ff ff 90  	adrp	x2, 0xb000 <_ZNK14ChiFeature2HDR21MergeParsedAWBBGStatsEP11ChiMetadataS1_S1_P15ChiFeature2Hinti+0x7c>
   1f804: 3a 01 00 b0  	adrp	x26, 0x44000 <_ZNK14ChiFeature2HDR21MergeParsedAWBBGStatsEP11ChiMetadataS1_S1_P15ChiFeature2Hinti+0x180>
   1f810: 40 15 00 54  	b.eq	0x1fab8 <_ZNK14ChiFeature2HDR21MergeParsedAWBBGStatsEP11ChiMetadataS1_S1_P15ChiFeature2Hinti+0x3a0>
   1f814: b6 00 00 14  	b	0x1faec <_ZNK14ChiFeature2HDR21MergeParsedAWBBGStatsEP11ChiMetadataS1_S1_P15ChiFeature2Hinti+0x3d4>
   1f81c: c8 16 00 36  	tbz	w8, #0, 0x1faf4 <_ZNK14ChiFeature2HDR21MergeParsedAWBBGStatsEP11ChiMetadataS1_S1_P15ChiFeature2Hinti+0x3dc>
   1f820: 28 01 00 b0  	adrp	x8, 0x44000 <_ZNK14ChiFeature2HDR21MergeParsedAWBBGStatsEP11ChiMetadataS1_S1_P15ChiFeature2Hinti+0x19c>
   1f830: 81 02 00 54  	b.ne	0x1f880 <_ZNK14ChiFeature2HDR21MergeParsedAWBBGStatsEP11ChiMetadataS1_S1_P15ChiFeature2Hinti+0x168>
   1f834: 99 ff ff b0  	adrp	x25, 0x10000 <_ZNK14ChiFeature2HDR21MergeParsedAWBBGStatsEP11ChiMetadataS1_S1_P15ChiFeature2Hinti+0xe0>
   1f850: 81 ff ff f0  	adrp	x1, 0x12000 <_ZNK14ChiFeature2HDR21MergeParsedAWBBGStatsEP11ChiMetadataS1_S1_P15ChiFeature2Hinti+0x104>
   1f854: 62 ff ff 90  	adrp	x2, 0xb000 <_ZNK14ChiFeature2HDR21MergeParsedAWBBGStatsEP11ChiMetadataS1_S1_P15ChiFeature2Hinti+0xec>
   1f858: 65 ff ff f0  	adrp	x5, 0xe000 <_ZNK14ChiFeature2HDR21MergeParsedAWBBGStatsEP11ChiMetadataS1_S1_P15ChiFeature2Hinti+0xfc>
   1f880: 99 ff ff b0  	adrp	x25, 0x10000 <_ZNK14ChiFeature2HDR21MergeParsedAWBBGStatsEP11ChiMetadataS1_S1_P15ChiFeature2Hinti+0x12c>
   1f89c: 81 ff ff f0  	adrp	x1, 0x12000 <_ZNK14ChiFeature2HDR21MergeParsedAWBBGStatsEP11ChiMetadataS1_S1_P15ChiFeature2Hinti+0x150>
   1f8a4: 60 ff ff 90  	adrp	x0, 0xb000 <_ZNK14ChiFeature2HDR21MergeParsedAWBBGStatsEP11ChiMetadataS1_S1_P15ChiFeature2Hinti+0x13c>
   1f8a8: 63 ff ff f0  	adrp	x3, 0xe000 <_ZNK14ChiFeature2HDR21MergeParsedAWBBGStatsEP11ChiMetadataS1_S1_P15ChiFeature2Hinti+0x14c>
   1f8ac: 85 ff ff d0  	adrp	x5, 0x11000 <_ZNK14ChiFeature2HDR21MergeParsedAWBBGStatsEP11ChiMetadataS1_S1_P15ChiFeature2Hinti+0x15c>
   1f8cc: 3d 8a 00 94  	bl	0x421c0 <_ZN6ChiLog9LogSystemEPKcS1_S1_S1_iS1_z@plt>
   1f8d0: 89 00 00 14  	b	0x1faf4 <_ZNK14ChiFeature2HDR21MergeParsedAWBBGStatsEP11ChiMetadataS1_S1_P15ChiFeature2Hinti+0x3dc>
   1f8d8: 81 ff ff d0  	adrp	x1, 0x11000 <_ZNK14ChiFeature2HDR21MergeParsedAWBBGStatsEP11ChiMetadataS1_S1_P15ChiFeature2Hinti+0x188>
   1f8e0: 62 ff ff 90  	adrp	x2, 0xb000 <_ZNK14ChiFeature2HDR21MergeParsedAWBBGStatsEP11ChiMetadataS1_S1_P15ChiFeature2Hinti+0x178>
   1f904: a1 02 00 54  	b.ne	0x1f958 <_ZNK14ChiFeature2HDR21MergeParsedAWBBGStatsEP11ChiMetadataS1_S1_P15ChiFeature2Hinti+0x240>
   1f908: 96 02 00 b4  	cbz	x22, 0x1f958 <_ZNK14ChiFeature2HDR21MergeParsedAWBBGStatsEP11ChiMetadataS1_S1_P15ChiFeature2Hinti+0x240>
   1f910: 81 ff ff d0  	adrp	x1, 0x11000 <_ZNK14ChiFeature2HDR21MergeParsedAWBBGStatsEP11ChiMetadataS1_S1_P15ChiFeature2Hinti+0x1c0>
   1f918: 62 ff ff 90  	adrp	x2, 0xb000 <_ZNK14ChiFeature2HDR21MergeParsedAWBBGStatsEP11ChiMetadataS1_S1_P15ChiFeature2Hinti+0x1b0>
   1f938: 6e 00 00 14  	b	0x1faf0 <_ZNK14ChiFeature2HDR21MergeParsedAWBBGStatsEP11ChiMetadataS1_S1_P15ChiFeature2Hinti+0x3d8>
   1f93c: 3a 01 00 b0  	adrp	x26, 0x44000 <_ZNK14ChiFeature2HDR21MergeParsedAWBBGStatsEP11ChiMetadataS1_S1_P15ChiFeature2Hinti+0x2b8>
   1f944: d6 05 00 b4  	cbz	x22, 0x1f9fc <_ZNK14ChiFeature2HDR21MergeParsedAWBBGStatsEP11ChiMetadataS1_S1_P15ChiFeature2Hinti+0x2e4>
   1f950: 40 0b 00 54  	b.eq	0x1fab8 <_ZNK14ChiFeature2HDR21MergeParsedAWBBGStatsEP11ChiMetadataS1_S1_P15ChiFeature2Hinti+0x3a0>
   1f954: 66 00 00 14  	b	0x1faec <_ZNK14ChiFeature2HDR21MergeParsedAWBBGStatsEP11ChiMetadataS1_S1_P15ChiFeature2Hinti+0x3d4>
   1f958: f6 19 00 b5  	cbnz	x22, 0x1fc94 <_ZNK14ChiFeature2HDR21MergeParsedAWBBGStatsEP11ChiMetadataS1_S1_P15ChiFeature2Hinti+0x57c>
   1f960: aa 0c 08 36  	tbz	w10, #1, 0x1faf4 <_ZNK14ChiFeature2HDR21MergeParsedAWBBGStatsEP11ChiMetadataS1_S1_P15ChiFeature2Hinti+0x3dc>
   1f964: 29 01 00 b0  	adrp	x9, 0x44000 <_ZNK14ChiFeature2HDR21MergeParsedAWBBGStatsEP11ChiMetadataS1_S1_P15ChiFeature2Hinti+0x2e0>
   1f968: 96 ff ff b0  	adrp	x22, 0x10000 <_ZNK14ChiFeature2HDR21MergeParsedAWBBGStatsEP11ChiMetadataS1_S1_P15ChiFeature2Hinti+0x214>
   1f97c: 01 02 00 54  	b.ne	0x1f9bc <_ZNK14ChiFeature2HDR21MergeParsedAWBBGStatsEP11ChiMetadataS1_S1_P15ChiFeature2Hinti+0x2a4>
   1f994: 81 ff ff f0  	adrp	x1, 0x12000 <_ZNK14ChiFeature2HDR21MergeParsedAWBBGStatsEP11ChiMetadataS1_S1_P15ChiFeature2Hinti+0x248>
   1f998: 82 ff ff b0  	adrp	x2, 0x10000 <_ZNK14ChiFeature2HDR21MergeParsedAWBBGStatsEP11ChiMetadataS1_S1_P15ChiFeature2Hinti+0x244>
   1f99c: 65 ff ff f0  	adrp	x5, 0xe000 <_ZNK14ChiFeature2HDR21MergeParsedAWBBGStatsEP11ChiMetadataS1_S1_P15ChiFeature2Hinti+0x240>
   1f9d0: 61 ff ff b0  	adrp	x1, 0xc000 <_ZNK14ChiFeature2HDR21MergeParsedAWBBGStatsEP11ChiMetadataS1_S1_P15ChiFeature2Hinti+0x26c>
   1f9d8: 80 ff ff 90  	adrp	x0, 0xf000 <_ZNK14ChiFeature2HDR21MergeParsedAWBBGStatsEP11ChiMetadataS1_S1_P15ChiFeature2Hinti+0x280>
   1f9dc: 63 ff ff f0  	adrp	x3, 0xe000 <_ZNK14ChiFeature2HDR21MergeParsedAWBBGStatsEP11ChiMetadataS1_S1_P15ChiFeature2Hinti+0x280>
   1f9e0: 45 ff ff f0  	adrp	x5, 0xa000 <_ZNK14ChiFeature2HDR21MergeParsedAWBBGStatsEP11ChiMetadataS1_S1_P15ChiFeature2Hinti+0x274>
   1f9f8: 76 01 00 14  	b	0x1ffd0 <_ZNK14ChiFeature2HDR21MergeParsedAWBBGStatsEP11ChiMetadataS1_S1_P15ChiFeature2Hinti+0x8b8>
   1fa00: 6b 05 08 36  	tbz	w11, #1, 0x1faac <_ZNK14ChiFeature2HDR21MergeParsedAWBBGStatsEP11ChiMetadataS1_S1_P15ChiFeature2Hinti+0x394>
   1fa04: 2a 01 00 b0  	adrp	x10, 0x44000 <_ZNK14ChiFeature2HDR21MergeParsedAWBBGStatsEP11ChiMetadataS1_S1_P15ChiFeature2Hinti+0x380>
   1fa14: 81 02 00 54  	b.ne	0x1fa64 <_ZNK14ChiFeature2HDR21MergeParsedAWBBGStatsEP11ChiMetadataS1_S1_P15ChiFeature2Hinti+0x34c>
   1fa18: 9a ff ff b0  	adrp	x26, 0x10000 <_ZNK14ChiFeature2HDR21MergeParsedAWBBGStatsEP11ChiMetadataS1_S1_P15ChiFeature2Hinti+0x2c4>
   1fa34: 81 ff ff f0  	adrp	x1, 0x12000 <_ZNK14ChiFeature2HDR21MergeParsedAWBBGStatsEP11ChiMetadataS1_S1_P15ChiFeature2Hinti+0x2e8>
   1fa3c: 3a 01 00 b0  	adrp	x26, 0x44000 <_ZNK14ChiFeature2HDR21MergeParsedAWBBGStatsEP11ChiMetadataS1_S1_P15ChiFeature2Hinti+0x3b8>
   1fa40: 82 ff ff b0  	adrp	x2, 0x10000 <_ZNK14ChiFeature2HDR21MergeParsedAWBBGStatsEP11ChiMetadataS1_S1_P15ChiFeature2Hinti+0x2ec>
   1fa44: 65 ff ff f0  	adrp	x5, 0xe000 <_ZNK14ChiFeature2HDR21MergeParsedAWBBGStatsEP11ChiMetadataS1_S1_P15ChiFeature2Hinti+0x2e8>
   1fa64: 9b ff ff b0  	adrp	x27, 0x10000 <_ZNK14ChiFeature2HDR21MergeParsedAWBBGStatsEP11ChiMetadataS1_S1_P15ChiFeature2Hinti+0x310>
   1fa80: 61 ff ff b0  	adrp	x1, 0xc000 <_ZNK14ChiFeature2HDR21MergeParsedAWBBGStatsEP11ChiMetadataS1_S1_P15ChiFeature2Hinti+0x31c>
   1fa88: 80 ff ff 90  	adrp	x0, 0xf000 <_ZNK14ChiFeature2HDR21MergeParsedAWBBGStatsEP11ChiMetadataS1_S1_P15ChiFeature2Hinti+0x330>
   1fa8c: 63 ff ff f0  	adrp	x3, 0xe000 <_ZNK14ChiFeature2HDR21MergeParsedAWBBGStatsEP11ChiMetadataS1_S1_P15ChiFeature2Hinti+0x330>
   1fa90: 65 ff ff d0  	adrp	x5, 0xd000 <_ZNK14ChiFeature2HDR21MergeParsedAWBBGStatsEP11ChiMetadataS1_S1_P15ChiFeature2Hinti+0x330>
   1faa8: c6 89 00 94  	bl	0x421c0 <_ZN6ChiLog9LogSystemEPKcS1_S1_S1_iS1_z@plt>
   1fab4: c1 01 00 54  	b.ne	0x1faec <_ZNK14ChiFeature2HDR21MergeParsedAWBBGStatsEP11ChiMetadataS1_S1_P15ChiFeature2Hinti+0x3d4>
   1fab8: b9 01 00 b4  	cbz	x25, 0x1faec <_ZNK14ChiFeature2HDR21MergeParsedAWBBGStatsEP11ChiMetadataS1_S1_P15ChiFeature2Hinti+0x3d4>
   1fac0: 81 ff ff d0  	adrp	x1, 0x11000 <_ZNK14ChiFeature2HDR21MergeParsedAWBBGStatsEP11ChiMetadataS1_S1_P15ChiFeature2Hinti+0x370>
   1fac8: 62 ff ff 90  	adrp	x2, 0xb000 <_ZNK14ChiFeature2HDR21MergeParsedAWBBGStatsEP11ChiMetadataS1_S1_P15ChiFeature2Hinti+0x360>
   1fae8: 02 00 00 14  	b	0x1faf0 <_ZNK14ChiFeature2HDR21MergeParsedAWBBGStatsEP11ChiMetadataS1_S1_P15ChiFeature2Hinti+0x3d8>
   1faec: 19 22 00 b4  	cbz	x25, 0x1ff2c <_ZNK14ChiFeature2HDR21MergeParsedAWBBGStatsEP11ChiMetadataS1_S1_P15ChiFeature2Hinti+0x814>
   1faf0: 20 0d 00 34  	cbz	w0, 0x1fc94 <_ZNK14ChiFeature2HDR21MergeParsedAWBBGStatsEP11ChiMetadataS1_S1_P15ChiFeature2Hinti+0x57c>
   1faf8: a2 05 00 36  	tbz	w2, #0, 0x1fbac <_ZNK14ChiFeature2HDR21MergeParsedAWBBGStatsEP11ChiMetadataS1_S1_P15ChiFeature2Hinti+0x494>
   1fafc: 30 01 00 b0  	adrp	x16, 0x44000 <_ZNK14ChiFeature2HDR21MergeParsedAWBBGStatsEP11ChiMetadataS1_S1_P15ChiFeature2Hinti+0x478>
   1fb0c: a1 02 00 54  	b.ne	0x1fb60 <_ZNK14ChiFeature2HDR21MergeParsedAWBBGStatsEP11ChiMetadataS1_S1_P15ChiFeature2Hinti+0x448>
   1fb14: 9a ff ff b0  	adrp	x26, 0x10000 <_ZNK14ChiFeature2HDR21MergeParsedAWBBGStatsEP11ChiMetadataS1_S1_P15ChiFeature2Hinti+0x3c0>
   1fb30: 81 ff ff f0  	adrp	x1, 0x12000 <_ZNK14ChiFeature2HDR21MergeParsedAWBBGStatsEP11ChiMetadataS1_S1_P15ChiFeature2Hinti+0x3e4>
   1fb34: 62 ff ff f0  	adrp	x2, 0xe000 <_ZNK14ChiFeature2HDR21MergeParsedAWBBGStatsEP11ChiMetadataS1_S1_P15ChiFeature2Hinti+0x3d8>
   1fb38: 65 ff ff f0  	adrp	x5, 0xe000 <_ZNK14ChiFeature2HDR21MergeParsedAWBBGStatsEP11ChiMetadataS1_S1_P15ChiFeature2Hinti+0x3dc>
   1fb60: 9b ff ff b0  	adrp	x27, 0x10000 <_ZNK14ChiFeature2HDR21MergeParsedAWBBGStatsEP11ChiMetadataS1_S1_P15ChiFeature2Hinti+0x40c>
   1fb7c: 81 ff ff f0  	adrp	x1, 0x12000 <_ZNK14ChiFeature2HDR21MergeParsedAWBBGStatsEP11ChiMetadataS1_S1_P15ChiFeature2Hinti+0x430>
   1fb84: 60 ff ff 90  	adrp	x0, 0xb000 <_ZNK14ChiFeature2HDR21MergeParsedAWBBGStatsEP11ChiMetadataS1_S1_P15ChiFeature2Hinti+0x41c>
   1fb88: 63 ff ff f0  	adrp	x3, 0xe000 <_ZNK14ChiFeature2HDR21MergeParsedAWBBGStatsEP11ChiMetadataS1_S1_P15ChiFeature2Hinti+0x42c>
   1fb8c: 45 ff ff f0  	adrp	x5, 0xa000 <_ZNK14ChiFeature2HDR21MergeParsedAWBBGStatsEP11ChiMetadataS1_S1_P15ChiFeature2Hinti+0x420>
   1fba8: 86 89 00 94  	bl	0x421c0 <_ZN6ChiLog9LogSystemEPKcS1_S1_S1_iS1_z@plt>
   1fbb4: 63 05 18 36  	tbz	w3, #3, 0x1fc60 <_ZNK14ChiFeature2HDR21MergeParsedAWBBGStatsEP11ChiMetadataS1_S1_P15ChiFeature2Hinti+0x548>
   1fbb8: 31 01 00 b0  	adrp	x17, 0x44000 <_ZNK14ChiFeature2HDR21MergeParsedAWBBGStatsEP11ChiMetadataS1_S1_P15ChiFeature2Hinti+0x534>
   1fbc8: 61 02 00 54  	b.ne	0x1fc14 <_ZNK14ChiFeature2HDR21MergeParsedAWBBGStatsEP11ChiMetadataS1_S1_P15ChiFeature2Hinti+0x4fc>
   1fbcc: 94 ff ff b0  	adrp	x20, 0x10000 <_ZNK14ChiFeature2HDR21MergeParsedAWBBGStatsEP11ChiMetadataS1_S1_P15ChiFeature2Hinti+0x478>
   1fbe8: 81 ff ff f0  	adrp	x1, 0x12000 <_ZNK14ChiFeature2HDR21MergeParsedAWBBGStatsEP11ChiMetadataS1_S1_P15ChiFeature2Hinti+0x49c>
   1fbec: 62 ff ff b0  	adrp	x2, 0xc000 <_ZNK14ChiFeature2HDR21MergeParsedAWBBGStatsEP11ChiMetadataS1_S1_P15ChiFeature2Hinti+0x488>
   1fbf0: 65 ff ff f0  	adrp	x5, 0xe000 <_ZNK14ChiFeature2HDR21MergeParsedAWBBGStatsEP11ChiMetadataS1_S1_P15ChiFeature2Hinti+0x494>
   1fc14: 99 ff ff b0  	adrp	x25, 0x10000 <_ZNK14ChiFeature2HDR21MergeParsedAWBBGStatsEP11ChiMetadataS1_S1_P15ChiFeature2Hinti+0x4c0>
   1fc30: 61 ff ff f0  	adrp	x1, 0xe000 <_ZNK14ChiFeature2HDR21MergeParsedAWBBGStatsEP11ChiMetadataS1_S1_P15ChiFeature2Hinti+0x4d4>
   1fc38: 80 ff ff f0  	adrp	x0, 0x12000 <_ZNK14ChiFeature2HDR21MergeParsedAWBBGStatsEP11ChiMetadataS1_S1_P15ChiFeature2Hinti+0x4ec>
   1fc3c: 63 ff ff f0  	adrp	x3, 0xe000 <_ZNK14ChiFeature2HDR21MergeParsedAWBBGStatsEP11ChiMetadataS1_S1_P15ChiFeature2Hinti+0x4e0>
   1fc40: 45 ff ff f0  	adrp	x5, 0xa000 <_ZNK14ChiFeature2HDR21MergeParsedAWBBGStatsEP11ChiMetadataS1_S1_P15ChiFeature2Hinti+0x4d4>
   1fc5c: 59 89 00 94  	bl	0x421c0 <_ZN6ChiLog9LogSystemEPKcS1_S1_S1_iS1_z@plt>
   1fc6c: 01 28 00 54  	b.ne	0x2016c <_ZNK14ChiFeature2HDR21MergeParsedAWBBGStatsEP11ChiMetadataS1_S1_P15ChiFeature2Hinti+0xa54>
   1fc94: 37 05 00 b4  	cbz	x23, 0x1fd38 <_ZNK14ChiFeature2HDR21MergeParsedAWBBGStatsEP11ChiMetadataS1_S1_P15ChiFeature2Hinti+0x620>
   1fc9c: e1 04 00 54  	b.ne	0x1fd38 <_ZNK14ChiFeature2HDR21MergeParsedAWBBGStatsEP11ChiMetadataS1_S1_P15ChiFeature2Hinti+0x620>
   1fca8: 4d 0a 18 37  	tbnz	w13, #3, 0x1fdf0 <_ZNK14ChiFeature2HDR21MergeParsedAWBBGStatsEP11ChiMetadataS1_S1_P15ChiFeature2Hinti+0x6d8>
   1fcac: 99 ff ff d0  	adrp	x25, 0x11000 <_ZNK14ChiFeature2HDR21MergeParsedAWBBGStatsEP11ChiMetadataS1_S1_P15ChiFeature2Hinti+0x55c>
   1fcb0: 7a ff ff 90  	adrp	x26, 0xb000 <_ZNK14ChiFeature2HDR21MergeParsedAWBBGStatsEP11ChiMetadataS1_S1_P15ChiFeature2Hinti+0x548>
   1fd08: 43 0a 00 b4  	cbz	x3, 0x1fe50 <_ZNK14ChiFeature2HDR21MergeParsedAWBBGStatsEP11ChiMetadataS1_S1_P15ChiFeature2Hinti+0x738>
   1fd10: 81 ff ff d0  	adrp	x1, 0x11000 <_ZNK14ChiFeature2HDR21MergeParsedAWBBGStatsEP11ChiMetadataS1_S1_P15ChiFeature2Hinti+0x5c0>
   1fd18: 62 ff ff 90  	adrp	x2, 0xb000 <_ZNK14ChiFeature2HDR21MergeParsedAWBBGStatsEP11ChiMetadataS1_S1_P15ChiFeature2Hinti+0x5b0>
   1fd34: 71 00 00 14  	b	0x1fef8 <_ZNK14ChiFeature2HDR21MergeParsedAWBBGStatsEP11ChiMetadataS1_S1_P15ChiFeature2Hinti+0x7e0>
   1fd3c: b7 f3 ff b5  	cbnz	x23, 0x1fbb0 <_ZNK14ChiFeature2HDR21MergeParsedAWBBGStatsEP11ChiMetadataS1_S1_P15ChiFeature2Hinti+0x498>
   1fd44: 61 f3 ff 54  	b.ne	0x1fbb0 <_ZNK14ChiFeature2HDR21MergeParsedAWBBGStatsEP11ChiMetadataS1_S1_P15ChiFeature2Hinti+0x498>
   1fd4c: 11 f3 0f 36  	tbz	w17, #1, 0x1fbac <_ZNK14ChiFeature2HDR21MergeParsedAWBBGStatsEP11ChiMetadataS1_S1_P15ChiFeature2Hinti+0x494>
   1fd50: 2f 01 00 b0  	adrp	x15, 0x44000 <_ZNK14ChiFeature2HDR21MergeParsedAWBBGStatsEP11ChiMetadataS1_S1_P15ChiFeature2Hinti+0x6cc>
   1fd60: 41 02 00 54  	b.ne	0x1fda8 <_ZNK14ChiFeature2HDR21MergeParsedAWBBGStatsEP11ChiMetadataS1_S1_P15ChiFeature2Hinti+0x690>
   1fd64: 99 ff ff b0  	adrp	x25, 0x10000 <_ZNK14ChiFeature2HDR21MergeParsedAWBBGStatsEP11ChiMetadataS1_S1_P15ChiFeature2Hinti+0x610>
   1fd80: 81 ff ff f0  	adrp	x1, 0x12000 <_ZNK14ChiFeature2HDR21MergeParsedAWBBGStatsEP11ChiMetadataS1_S1_P15ChiFeature2Hinti+0x634>
   1fd84: 82 ff ff b0  	adrp	x2, 0x10000 <_ZNK14ChiFeature2HDR21MergeParsedAWBBGStatsEP11ChiMetadataS1_S1_P15ChiFeature2Hinti+0x630>
   1fd88: 65 ff ff f0  	adrp	x5, 0xe000 <_ZNK14ChiFeature2HDR21MergeParsedAWBBGStatsEP11ChiMetadataS1_S1_P15ChiFeature2Hinti+0x62c>
   1fda8: 96 ff ff b0  	adrp	x22, 0x10000 <_ZNK14ChiFeature2HDR21MergeParsedAWBBGStatsEP11ChiMetadataS1_S1_P15ChiFeature2Hinti+0x654>
   1fdc4: 61 ff ff b0  	adrp	x1, 0xc000 <_ZNK14ChiFeature2HDR21MergeParsedAWBBGStatsEP11ChiMetadataS1_S1_P15ChiFeature2Hinti+0x660>
   1fdcc: 80 ff ff 90  	adrp	x0, 0xf000 <_ZNK14ChiFeature2HDR21MergeParsedAWBBGStatsEP11ChiMetadataS1_S1_P15ChiFeature2Hinti+0x674>
   1fdd0: 63 ff ff f0  	adrp	x3, 0xe000 <_ZNK14ChiFeature2HDR21MergeParsedAWBBGStatsEP11ChiMetadataS1_S1_P15ChiFeature2Hinti+0x674>
   1fdd4: 85 ff ff f0  	adrp	x5, 0x12000 <_ZNK14ChiFeature2HDR21MergeParsedAWBBGStatsEP11ChiMetadataS1_S1_P15ChiFeature2Hinti+0x688>
   1fdec: de 00 00 14  	b	0x20164 <_ZNK14ChiFeature2HDR21MergeParsedAWBBGStatsEP11ChiMetadataS1_S1_P15ChiFeature2Hinti+0xa4c>
   1fdf0: 9a ff ff d0  	adrp	x26, 0x11000 <_ZNK14ChiFeature2HDR21MergeParsedAWBBGStatsEP11ChiMetadataS1_S1_P15ChiFeature2Hinti+0x6a0>
   1fdf4: 7b ff ff 90  	adrp	x27, 0xb000 <_ZNK14ChiFeature2HDR21MergeParsedAWBBGStatsEP11ChiMetadataS1_S1_P15ChiFeature2Hinti+0x68c>
   1fe4c: 03 f6 ff b5  	cbnz	x3, 0x1fd0c <_ZNK14ChiFeature2HDR21MergeParsedAWBBGStatsEP11ChiMetadataS1_S1_P15ChiFeature2Hinti+0x5f4>
   1fe54: 2e 05 08 36  	tbz	w14, #1, 0x1fef8 <_ZNK14ChiFeature2HDR21MergeParsedAWBBGStatsEP11ChiMetadataS1_S1_P15ChiFeature2Hinti+0x7e0>
   1fe58: 2c 01 00 b0  	adrp	x12, 0x44000 <_ZNK14ChiFeature2HDR21MergeParsedAWBBGStatsEP11ChiMetadataS1_S1_P15ChiFeature2Hinti+0x7d4>
   1fe68: 41 02 00 54  	b.ne	0x1feb0 <_ZNK14ChiFeature2HDR21MergeParsedAWBBGStatsEP11ChiMetadataS1_S1_P15ChiFeature2Hinti+0x798>
   1fe6c: 9b ff ff b0  	adrp	x27, 0x10000 <_ZNK14ChiFeature2HDR21MergeParsedAWBBGStatsEP11ChiMetadataS1_S1_P15ChiFeature2Hinti+0x718>
   1fe88: 81 ff ff f0  	adrp	x1, 0x12000 <_ZNK14ChiFeature2HDR21MergeParsedAWBBGStatsEP11ChiMetadataS1_S1_P15ChiFeature2Hinti+0x73c>
   1fe8c: 62 ff ff 90  	adrp	x2, 0xb000 <_ZNK14ChiFeature2HDR21MergeParsedAWBBGStatsEP11ChiMetadataS1_S1_P15ChiFeature2Hinti+0x724>
   1fe90: 65 ff ff f0  	adrp	x5, 0xe000 <_ZNK14ChiFeature2HDR21MergeParsedAWBBGStatsEP11ChiMetadataS1_S1_P15ChiFeature2Hinti+0x734>
   1feb0: 99 ff ff b0  	adrp	x25, 0x10000 <_ZNK14ChiFeature2HDR21MergeParsedAWBBGStatsEP11ChiMetadataS1_S1_P15ChiFeature2Hinti+0x75c>
   1fecc: 61 ff ff b0  	adrp	x1, 0xc000 <_ZNK14ChiFeature2HDR21MergeParsedAWBBGStatsEP11ChiMetadataS1_S1_P15ChiFeature2Hinti+0x768>
   1fed4: 80 ff ff 90  	adrp	x0, 0xf000 <_ZNK14ChiFeature2HDR21MergeParsedAWBBGStatsEP11ChiMetadataS1_S1_P15ChiFeature2Hinti+0x77c>
   1fed8: 63 ff ff f0  	adrp	x3, 0xe000 <_ZNK14ChiFeature2HDR21MergeParsedAWBBGStatsEP11ChiMetadataS1_S1_P15ChiFeature2Hinti+0x77c>
   1fedc: 85 ff ff d0  	adrp	x5, 0x11000 <_ZNK14ChiFeature2HDR21MergeParsedAWBBGStatsEP11ChiMetadataS1_S1_P15ChiFeature2Hinti+0x78c>
   1fef4: b3 88 00 94  	bl	0x421c0 <_ZN6ChiLog9LogSystemEPKcS1_S1_S1_iS1_z@plt>
   1fef8: 16 07 00 b4  	cbz	x22, 0x1ffd8 <_ZNK14ChiFeature2HDR21MergeParsedAWBBGStatsEP11ChiMetadataS1_S1_P15ChiFeature2Hinti+0x8c0>
   1ff00: 81 ff ff d0  	adrp	x1, 0x11000 <_ZNK14ChiFeature2HDR21MergeParsedAWBBGStatsEP11ChiMetadataS1_S1_P15ChiFeature2Hinti+0x7b0>
   1ff08: 62 ff ff 90  	adrp	x2, 0xb000 <_ZNK14ChiFeature2HDR21MergeParsedAWBBGStatsEP11ChiMetadataS1_S1_P15ChiFeature2Hinti+0x7a0>
   1ff28: 56 00 00 14  	b	0x20080 <_ZNK14ChiFeature2HDR21MergeParsedAWBBGStatsEP11ChiMetadataS1_S1_P15ChiFeature2Hinti+0x968>
   1ff30: 2c de 0f 36  	tbz	w12, #1, 0x1faf4 <_ZNK14ChiFeature2HDR21MergeParsedAWBBGStatsEP11ChiMetadataS1_S1_P15ChiFeature2Hinti+0x3dc>
   1ff34: 2b 01 00 b0  	adrp	x11, 0x44000 <_ZNK14ChiFeature2HDR21MergeParsedAWBBGStatsEP11ChiMetadataS1_S1_P15ChiFeature2Hinti+0x8b0>
   1ff44: 41 02 00 54  	b.ne	0x1ff8c <_ZNK14ChiFeature2HDR21MergeParsedAWBBGStatsEP11ChiMetadataS1_S1_P15ChiFeature2Hinti+0x874>
   1ff48: 96 ff ff b0  	adrp	x22, 0x10000 <_ZNK14ChiFeature2HDR21MergeParsedAWBBGStatsEP11ChiMetadataS1_S1_P15ChiFeature2Hinti+0x7f4>
   1ff64: 81 ff ff f0  	adrp	x1, 0x12000 <_ZNK14ChiFeature2HDR21MergeParsedAWBBGStatsEP11ChiMetadataS1_S1_P15ChiFeature2Hinti+0x818>
   1ff68: 82 ff ff b0  	adrp	x2, 0x10000 <_ZNK14ChiFeature2HDR21MergeParsedAWBBGStatsEP11ChiMetadataS1_S1_P15ChiFeature2Hinti+0x814>
   1ff6c: 65 ff ff f0  	adrp	x5, 0xe000 <_ZNK14ChiFeature2HDR21MergeParsedAWBBGStatsEP11ChiMetadataS1_S1_P15ChiFeature2Hinti+0x810>
   1ff8c: 99 ff ff b0  	adrp	x25, 0x10000 <_ZNK14ChiFeature2HDR21MergeParsedAWBBGStatsEP11ChiMetadataS1_S1_P15ChiFeature2Hinti+0x838>
   1ffa8: 61 ff ff b0  	adrp	x1, 0xc000 <_ZNK14ChiFeature2HDR21MergeParsedAWBBGStatsEP11ChiMetadataS1_S1_P15ChiFeature2Hinti+0x844>
   1ffb0: 80 ff ff 90  	adrp	x0, 0xf000 <_ZNK14ChiFeature2HDR21MergeParsedAWBBGStatsEP11ChiMetadataS1_S1_P15ChiFeature2Hinti+0x858>
   1ffb4: 63 ff ff f0  	adrp	x3, 0xe000 <_ZNK14ChiFeature2HDR21MergeParsedAWBBGStatsEP11ChiMetadataS1_S1_P15ChiFeature2Hinti+0x858>
   1ffb8: 85 ff ff b0  	adrp	x5, 0x10000 <_ZNK14ChiFeature2HDR21MergeParsedAWBBGStatsEP11ChiMetadataS1_S1_P15ChiFeature2Hinti+0x864>
   1ffd0: 7c 88 00 94  	bl	0x421c0 <_ZN6ChiLog9LogSystemEPKcS1_S1_S1_iS1_z@plt>
   1ffd4: c8 fe ff 17  	b	0x1faf4 <_ZNK14ChiFeature2HDR21MergeParsedAWBBGStatsEP11ChiMetadataS1_S1_P15ChiFeature2Hinti+0x3dc>
   1ffdc: 4f 05 08 36  	tbz	w15, #1, 0x20084 <_ZNK14ChiFeature2HDR21MergeParsedAWBBGStatsEP11ChiMetadataS1_S1_P15ChiFeature2Hinti+0x96c>
   1ffe0: 2d 01 00 b0  	adrp	x13, 0x44000 <_ZNK14ChiFeature2HDR21MergeParsedAWBBGStatsEP11ChiMetadataS1_S1_P15ChiFeature2Hinti+0x95c>
   1fff0: 41 02 00 54  	b.ne	0x20038 <_ZNK14ChiFeature2HDR21MergeParsedAWBBGStatsEP11ChiMetadataS1_S1_P15ChiFeature2Hinti+0x920>
   1fff4: 96 ff ff b0  	adrp	x22, 0x10000 <_ZNK14ChiFeature2HDR21MergeParsedAWBBGStatsEP11ChiMetadataS1_S1_P15ChiFeature2Hinti+0x8a0>
   20010: 81 ff ff d0  	adrp	x1, 0x12000 <_ZNK14ChiFeature2HDR21MergeParsedAWBBGStatsEP11ChiMetadataS1_S1_P15ChiFeature2Hinti+0x8c0>
   20014: 82 ff ff 90  	adrp	x2, 0x10000 <_ZNK14ChiFeature2HDR21MergeParsedAWBBGStatsEP11ChiMetadataS1_S1_P15ChiFeature2Hinti+0x8bc>
   20018: 65 ff ff d0  	adrp	x5, 0xe000 <_ZNK14ChiFeature2HDR21MergeParsedAWBBGStatsEP11ChiMetadataS1_S1_P15ChiFeature2Hinti+0x8b8>
   20038: 9a ff ff 90  	adrp	x26, 0x10000 <_ZNK14ChiFeature2HDR21MergeParsedAWBBGStatsEP11ChiMetadataS1_S1_P15ChiFeature2Hinti+0x8e0>
   20054: 61 ff ff 90  	adrp	x1, 0xc000 <_ZNK14ChiFeature2HDR21MergeParsedAWBBGStatsEP11ChiMetadataS1_S1_P15ChiFeature2Hinti+0x8ec>
   2005c: 60 ff ff f0  	adrp	x0, 0xf000 <_ZNK14ChiFeature2HDR21MergeParsedAWBBGStatsEP11ChiMetadataS1_S1_P15ChiFeature2Hinti+0x900>
   20060: 63 ff ff d0  	adrp	x3, 0xe000 <_ZNK14ChiFeature2HDR21MergeParsedAWBBGStatsEP11ChiMetadataS1_S1_P15ChiFeature2Hinti+0x900>
   20064: 85 ff ff d0  	adrp	x5, 0x12000 <_ZNK14ChiFeature2HDR21MergeParsedAWBBGStatsEP11ChiMetadataS1_S1_P15ChiFeature2Hinti+0x914>
   2007c: 51 88 00 94  	bl	0x421c0 <_ZN6ChiLog9LogSystemEPKcS1_S1_S1_iS1_z@plt>
   20084: f5 01 00 35  	cbnz	w21, 0x200c0 <_ZNK14ChiFeature2HDR21MergeParsedAWBBGStatsEP11ChiMetadataS1_S1_P15ChiFeature2Hinti+0x9a8>
   20088: d8 01 00 b4  	cbz	x24, 0x200c0 <_ZNK14ChiFeature2HDR21MergeParsedAWBBGStatsEP11ChiMetadataS1_S1_P15ChiFeature2Hinti+0x9a8>
   20090: 81 ff ff b0  	adrp	x1, 0x11000 <_ZNK14ChiFeature2HDR21MergeParsedAWBBGStatsEP11ChiMetadataS1_S1_P15ChiFeature2Hinti+0x93c>
   20098: 42 ff ff f0  	adrp	x2, 0xb000 <_ZNK14ChiFeature2HDR21MergeParsedAWBBGStatsEP11ChiMetadataS1_S1_P15ChiFeature2Hinti+0x92c>
   200bc: bd fe ff 17  	b	0x1fbb0 <_ZNK14ChiFeature2HDR21MergeParsedAWBBGStatsEP11ChiMetadataS1_S1_P15ChiFeature2Hinti+0x498>
   200c4: 50 d7 0f 36  	tbz	w16, #1, 0x1fbac <_ZNK14ChiFeature2HDR21MergeParsedAWBBGStatsEP11ChiMetadataS1_S1_P15ChiFeature2Hinti+0x494>
   200c8: 2e 01 00 90  	adrp	x14, 0x44000 <_ZNK14ChiFeature2HDR21MergeParsedAWBBGStatsEP11ChiMetadataS1_S1_P15ChiFeature2Hinti+0xa40>
   200d8: 41 02 00 54  	b.ne	0x20120 <_ZNK14ChiFeature2HDR21MergeParsedAWBBGStatsEP11ChiMetadataS1_S1_P15ChiFeature2Hinti+0xa08>
   200dc: 94 ff ff 90  	adrp	x20, 0x10000 <_ZNK14ChiFeature2HDR21MergeParsedAWBBGStatsEP11ChiMetadataS1_S1_P15ChiFeature2Hinti+0x984>
   200f8: 81 ff ff d0  	adrp	x1, 0x12000 <_ZNK14ChiFeature2HDR21MergeParsedAWBBGStatsEP11ChiMetadataS1_S1_P15ChiFeature2Hinti+0x9a8>
   200fc: 62 ff ff b0  	adrp	x2, 0xd000 <_ZNK14ChiFeature2HDR21MergeParsedAWBBGStatsEP11ChiMetadataS1_S1_P15ChiFeature2Hinti+0x998>
   20100: 65 ff ff d0  	adrp	x5, 0xe000 <_ZNK14ChiFeature2HDR21MergeParsedAWBBGStatsEP11ChiMetadataS1_S1_P15ChiFeature2Hinti+0x9a0>
   20120: 9b ff ff 90  	adrp	x27, 0x10000 <_ZNK14ChiFeature2HDR21MergeParsedAWBBGStatsEP11ChiMetadataS1_S1_P15ChiFeature2Hinti+0x9c8>
   2013c: 61 ff ff 90  	adrp	x1, 0xc000 <_ZNK14ChiFeature2HDR21MergeParsedAWBBGStatsEP11ChiMetadataS1_S1_P15ChiFeature2Hinti+0x9d4>
   20144: 60 ff ff f0  	adrp	x0, 0xf000 <_ZNK14ChiFeature2HDR21MergeParsedAWBBGStatsEP11ChiMetadataS1_S1_P15ChiFeature2Hinti+0x9e8>
   20148: 63 ff ff d0  	adrp	x3, 0xe000 <_ZNK14ChiFeature2HDR21MergeParsedAWBBGStatsEP11ChiMetadataS1_S1_P15ChiFeature2Hinti+0x9e8>
   2014c: 65 ff ff b0  	adrp	x5, 0xd000 <_ZNK14ChiFeature2HDR21MergeParsedAWBBGStatsEP11ChiMetadataS1_S1_P15ChiFeature2Hinti+0x9e8>
   20164: 17 88 00 94  	bl	0x421c0 <_ZN6ChiLog9LogSystemEPKcS1_S1_S1_iS1_z@plt>
   20168: 91 fe ff 17  	b	0x1fbac <_ZNK14ChiFeature2HDR21MergeParsedAWBBGStatsEP11ChiMetadataS1_S1_P15ChiFeature2Hinti+0x494>
0000000000020170 <_ZNK14ChiFeature2HDR21MergeParsedHDRBEStatsEP11ChiMetadataS1_S1_P15ChiFeature2Hint>:
   201a8: a1 05 00 b4  	cbz	x1, 0x2025c <_ZNK14ChiFeature2HDR21MergeParsedHDRBEStatsEP11ChiMetadataS1_S1_P15ChiFeature2Hint+0xec>
   201ac: 93 05 00 b4  	cbz	x19, 0x2025c <_ZNK14ChiFeature2HDR21MergeParsedHDRBEStatsEP11ChiMetadataS1_S1_P15ChiFeature2Hint+0xec>
   201bc: 29 0b 18 37  	tbnz	w9, #3, 0x20320 <_ZNK14ChiFeature2HDR21MergeParsedHDRBEStatsEP11ChiMetadataS1_S1_P15ChiFeature2Hint+0x1b0>
   201c0: 59 ff ff f0  	adrp	x25, 0xb000 <_ZNK14ChiFeature2HDR21MergeParsedAWBBGStatsEP11ChiMetadataS1_S1_P15ChiFeature2Hinti+0xa54>
   201c4: 5a ff ff f0  	adrp	x26, 0xb000 <_ZNK14ChiFeature2HDR21MergeParsedHDRBEStatsEP11ChiMetadataS1_S1_P15ChiFeature2Hint>
   2021c: 61 0b 00 54  	b.ne	0x20388 <_ZNK14ChiFeature2HDR21MergeParsedHDRBEStatsEP11ChiMetadataS1_S1_P15ChiFeature2Hint+0x218>
   20220: 55 0b 00 b4  	cbz	x21, 0x20388 <_ZNK14ChiFeature2HDR21MergeParsedHDRBEStatsEP11ChiMetadataS1_S1_P15ChiFeature2Hint+0x218>
   20228: 41 ff ff f0  	adrp	x1, 0xb000 <_ZNK14ChiFeature2HDR21MergeParsedHDRBEStatsEP11ChiMetadataS1_S1_P15ChiFeature2Hint+0x64>
   20230: 42 ff ff f0  	adrp	x2, 0xb000 <_ZNK14ChiFeature2HDR21MergeParsedHDRBEStatsEP11ChiMetadataS1_S1_P15ChiFeature2Hint+0x6c>
   20254: 80 15 00 54  	b.eq	0x20504 <_ZNK14ChiFeature2HDR21MergeParsedHDRBEStatsEP11ChiMetadataS1_S1_P15ChiFeature2Hint+0x394>
   20258: b8 00 00 14  	b	0x20538 <_ZNK14ChiFeature2HDR21MergeParsedHDRBEStatsEP11ChiMetadataS1_S1_P15ChiFeature2Hint+0x3c8>
   2025c: 28 01 00 90  	adrp	x8, 0x44000 <_ZNK14ChiFeature2HDR21MergeParsedHDRBEStatsEP11ChiMetadataS1_S1_P15ChiFeature2Hint+0x17c>
   20268: c8 16 00 36  	tbz	w8, #0, 0x20540 <_ZNK14ChiFeature2HDR21MergeParsedHDRBEStatsEP11ChiMetadataS1_S1_P15ChiFeature2Hint+0x3d0>
   2026c: 29 01 00 90  	adrp	x9, 0x44000 <_ZNK14ChiFeature2HDR21MergeParsedHDRBEStatsEP11ChiMetadataS1_S1_P15ChiFeature2Hint+0x18c>
   2027c: 81 02 00 54  	b.ne	0x202cc <_ZNK14ChiFeature2HDR21MergeParsedHDRBEStatsEP11ChiMetadataS1_S1_P15ChiFeature2Hint+0x15c>
   20280: 98 ff ff 90  	adrp	x24, 0x10000 <_ZNK14ChiFeature2HDR21MergeParsedHDRBEStatsEP11ChiMetadataS1_S1_P15ChiFeature2Hint+0xd0>
   2029c: 81 ff ff d0  	adrp	x1, 0x12000 <_ZNK14ChiFeature2HDR21MergeParsedHDRBEStatsEP11ChiMetadataS1_S1_P15ChiFeature2Hint+0xf4>
   202a0: 42 ff ff f0  	adrp	x2, 0xb000 <_ZNK14ChiFeature2HDR21MergeParsedHDRBEStatsEP11ChiMetadataS1_S1_P15ChiFeature2Hint+0xdc>
   202a4: 65 ff ff b0  	adrp	x5, 0xd000 <_ZNK14ChiFeature2HDR21MergeParsedHDRBEStatsEP11ChiMetadataS1_S1_P15ChiFeature2Hint+0xe8>
   202cc: 98 ff ff 90  	adrp	x24, 0x10000 <_ZNK14ChiFeature2HDR21MergeParsedHDRBEStatsEP11ChiMetadataS1_S1_P15ChiFeature2Hint+0x11c>
   202e8: 81 ff ff d0  	adrp	x1, 0x12000 <_ZNK14ChiFeature2HDR21MergeParsedHDRBEStatsEP11ChiMetadataS1_S1_P15ChiFeature2Hint+0x140>
   202f0: 40 ff ff f0  	adrp	x0, 0xb000 <_ZNK14ChiFeature2HDR21MergeParsedHDRBEStatsEP11ChiMetadataS1_S1_P15ChiFeature2Hint+0x12c>
   202f4: 63 ff ff b0  	adrp	x3, 0xd000 <_ZNK14ChiFeature2HDR21MergeParsedHDRBEStatsEP11ChiMetadataS1_S1_P15ChiFeature2Hint+0x138>
   202f8: 85 ff ff b0  	adrp	x5, 0x11000 <_ZNK14ChiFeature2HDR21MergeParsedHDRBEStatsEP11ChiMetadataS1_S1_P15ChiFeature2Hint+0x14c>
   20318: aa 87 00 94  	bl	0x421c0 <_ZN6ChiLog9LogSystemEPKcS1_S1_S1_iS1_z@plt>
   2031c: 89 00 00 14  	b	0x20540 <_ZNK14ChiFeature2HDR21MergeParsedHDRBEStatsEP11ChiMetadataS1_S1_P15ChiFeature2Hint+0x3d0>
   20324: 41 ff ff f0  	adrp	x1, 0xb000 <_ZNK14ChiFeature2HDR21MergeParsedHDRBEStatsEP11ChiMetadataS1_S1_P15ChiFeature2Hint+0x160>
   2032c: 42 ff ff f0  	adrp	x2, 0xb000 <_ZNK14ChiFeature2HDR21MergeParsedHDRBEStatsEP11ChiMetadataS1_S1_P15ChiFeature2Hint+0x168>
   20350: 61 02 00 54  	b.ne	0x2039c <_ZNK14ChiFeature2HDR21MergeParsedHDRBEStatsEP11ChiMetadataS1_S1_P15ChiFeature2Hint+0x22c>
   20354: 55 02 00 b4  	cbz	x21, 0x2039c <_ZNK14ChiFeature2HDR21MergeParsedHDRBEStatsEP11ChiMetadataS1_S1_P15ChiFeature2Hint+0x22c>
   2035c: 41 ff ff f0  	adrp	x1, 0xb000 <_ZNK14ChiFeature2HDR21MergeParsedHDRBEStatsEP11ChiMetadataS1_S1_P15ChiFeature2Hint+0x198>
   20364: 42 ff ff f0  	adrp	x2, 0xb000 <_ZNK14ChiFeature2HDR21MergeParsedHDRBEStatsEP11ChiMetadataS1_S1_P15ChiFeature2Hint+0x1a0>
   20384: 6e 00 00 14  	b	0x2053c <_ZNK14ChiFeature2HDR21MergeParsedHDRBEStatsEP11ChiMetadataS1_S1_P15ChiFeature2Hint+0x3cc>
   20388: 15 06 00 b4  	cbz	x21, 0x20448 <_ZNK14ChiFeature2HDR21MergeParsedHDRBEStatsEP11ChiMetadataS1_S1_P15ChiFeature2Hint+0x2d8>
   20394: 80 0b 00 54  	b.eq	0x20504 <_ZNK14ChiFeature2HDR21MergeParsedHDRBEStatsEP11ChiMetadataS1_S1_P15ChiFeature2Hint+0x394>
   20398: 68 00 00 14  	b	0x20538 <_ZNK14ChiFeature2HDR21MergeParsedHDRBEStatsEP11ChiMetadataS1_S1_P15ChiFeature2Hint+0x3c8>
   2039c: 95 14 00 b5  	cbnz	x21, 0x2062c <_ZNK14ChiFeature2HDR21MergeParsedHDRBEStatsEP11ChiMetadataS1_S1_P15ChiFeature2Hint+0x4bc>
   203a0: 2a 01 00 90  	adrp	x10, 0x44000 <_ZNK14ChiFeature2HDR21MergeParsedHDRBEStatsEP11ChiMetadataS1_S1_P15ChiFeature2Hint+0x2c0>
   203ac: aa 0c 00 36  	tbz	w10, #0, 0x20540 <_ZNK14ChiFeature2HDR21MergeParsedHDRBEStatsEP11ChiMetadataS1_S1_P15ChiFeature2Hint+0x3d0>
   203b0: 2b 01 00 90  	adrp	x11, 0x44000 <_ZNK14ChiFeature2HDR21MergeParsedHDRBEStatsEP11ChiMetadataS1_S1_P15ChiFeature2Hint+0x2d0>
   203b4: 95 ff ff 90  	adrp	x21, 0x10000 <_ZNK14ChiFeature2HDR21MergeParsedHDRBEStatsEP11ChiMetadataS1_S1_P15ChiFeature2Hint+0x204>
   203c8: 01 02 00 54  	b.ne	0x20408 <_ZNK14ChiFeature2HDR21MergeParsedHDRBEStatsEP11ChiMetadataS1_S1_P15ChiFeature2Hint+0x298>
   203e0: 81 ff ff d0  	adrp	x1, 0x12000 <_ZNK14ChiFeature2HDR21MergeParsedHDRBEStatsEP11ChiMetadataS1_S1_P15ChiFeature2Hint+0x238>
   203e4: 62 ff ff 90  	adrp	x2, 0xc000 <_ZNK14ChiFeature2HDR21MergeParsedHDRBEStatsEP11ChiMetadataS1_S1_P15ChiFeature2Hint+0x224>
   203e8: 65 ff ff b0  	adrp	x5, 0xd000 <_ZNK14ChiFeature2HDR21MergeParsedHDRBEStatsEP11ChiMetadataS1_S1_P15ChiFeature2Hint+0x22c>
   2041c: 81 ff ff d0  	adrp	x1, 0x12000 <_ZNK14ChiFeature2HDR21MergeParsedHDRBEStatsEP11ChiMetadataS1_S1_P15ChiFeature2Hint+0x274>
   20424: 40 ff ff f0  	adrp	x0, 0xb000 <_ZNK14ChiFeature2HDR21MergeParsedHDRBEStatsEP11ChiMetadataS1_S1_P15ChiFeature2Hint+0x260>
   20428: 63 ff ff b0  	adrp	x3, 0xd000 <_ZNK14ChiFeature2HDR21MergeParsedHDRBEStatsEP11ChiMetadataS1_S1_P15ChiFeature2Hint+0x26c>
   2042c: 65 ff ff b0  	adrp	x5, 0xd000 <_ZNK14ChiFeature2HDR21MergeParsedHDRBEStatsEP11ChiMetadataS1_S1_P15ChiFeature2Hint+0x270>
   20444: 4c 01 00 14  	b	0x20974 <_ZNK14ChiFeature2HDR21MergeParsedHDRBEStatsEP11ChiMetadataS1_S1_P15ChiFeature2Hint+0x804>
   20448: 2c 01 00 90  	adrp	x12, 0x44000 <_ZNK14ChiFeature2HDR21MergeParsedHDRBEStatsEP11ChiMetadataS1_S1_P15ChiFeature2Hint+0x368>
   20454: 2b 05 00 36  	tbz	w11, #0, 0x204f8 <_ZNK14ChiFeature2HDR21MergeParsedHDRBEStatsEP11ChiMetadataS1_S1_P15ChiFeature2Hint+0x388>
   20458: 2d 01 00 90  	adrp	x13, 0x44000 <_ZNK14ChiFeature2HDR21MergeParsedHDRBEStatsEP11ChiMetadataS1_S1_P15ChiFeature2Hint+0x378>
   20468: 41 02 00 54  	b.ne	0x204b0 <_ZNK14ChiFeature2HDR21MergeParsedHDRBEStatsEP11ChiMetadataS1_S1_P15ChiFeature2Hint+0x340>
   2046c: 99 ff ff 90  	adrp	x25, 0x10000 <_ZNK14ChiFeature2HDR21MergeParsedHDRBEStatsEP11ChiMetadataS1_S1_P15ChiFeature2Hint+0x2bc>
   20488: 81 ff ff d0  	adrp	x1, 0x12000 <_ZNK14ChiFeature2HDR21MergeParsedHDRBEStatsEP11ChiMetadataS1_S1_P15ChiFeature2Hint+0x2e0>
   2048c: 62 ff ff b0  	adrp	x2, 0xd000 <_ZNK14ChiFeature2HDR21MergeParsedHDRBEStatsEP11ChiMetadataS1_S1_P15ChiFeature2Hint+0x2d0>
   20490: 65 ff ff b0  	adrp	x5, 0xd000 <_ZNK14ChiFeature2HDR21MergeParsedHDRBEStatsEP11ChiMetadataS1_S1_P15ChiFeature2Hint+0x2d4>
   204b0: 9a ff ff 90  	adrp	x26, 0x10000 <_ZNK14ChiFeature2HDR21MergeParsedHDRBEStatsEP11ChiMetadataS1_S1_P15ChiFeature2Hint+0x300>
   204cc: 81 ff ff d0  	adrp	x1, 0x12000 <_ZNK14ChiFeature2HDR21MergeParsedHDRBEStatsEP11ChiMetadataS1_S1_P15ChiFeature2Hint+0x324>
   204d4: 40 ff ff f0  	adrp	x0, 0xb000 <_ZNK14ChiFeature2HDR21MergeParsedHDRBEStatsEP11ChiMetadataS1_S1_P15ChiFeature2Hint+0x310>
   204d8: 63 ff ff b0  	adrp	x3, 0xd000 <_ZNK14ChiFeature2HDR21MergeParsedHDRBEStatsEP11ChiMetadataS1_S1_P15ChiFeature2Hint+0x31c>
   204dc: 45 ff ff d0  	adrp	x5, 0xa000 <_ZNK14ChiFeature2HDR21MergeParsedHDRBEStatsEP11ChiMetadataS1_S1_P15ChiFeature2Hint+0x314>
   204f4: 33 87 00 94  	bl	0x421c0 <_ZN6ChiLog9LogSystemEPKcS1_S1_S1_iS1_z@plt>
   20500: c1 01 00 54  	b.ne	0x20538 <_ZNK14ChiFeature2HDR21MergeParsedHDRBEStatsEP11ChiMetadataS1_S1_P15ChiFeature2Hint+0x3c8>
   20504: b8 01 00 b4  	cbz	x24, 0x20538 <_ZNK14ChiFeature2HDR21MergeParsedHDRBEStatsEP11ChiMetadataS1_S1_P15ChiFeature2Hint+0x3c8>
   2050c: 41 ff ff f0  	adrp	x1, 0xb000 <_ZNK14ChiFeature2HDR21MergeParsedHDRBEStatsEP11ChiMetadataS1_S1_P15ChiFeature2Hint+0x348>
   20514: 42 ff ff f0  	adrp	x2, 0xb000 <_ZNK14ChiFeature2HDR21MergeParsedHDRBEStatsEP11ChiMetadataS1_S1_P15ChiFeature2Hint+0x350>
   20534: 02 00 00 14  	b	0x2053c <_ZNK14ChiFeature2HDR21MergeParsedHDRBEStatsEP11ChiMetadataS1_S1_P15ChiFeature2Hint+0x3cc>
   20538: 98 1c 00 b4  	cbz	x24, 0x208c8 <_ZNK14ChiFeature2HDR21MergeParsedHDRBEStatsEP11ChiMetadataS1_S1_P15ChiFeature2Hint+0x758>
   2053c: 80 07 00 34  	cbz	w0, 0x2062c <_ZNK14ChiFeature2HDR21MergeParsedHDRBEStatsEP11ChiMetadataS1_S1_P15ChiFeature2Hint+0x4bc>
   20540: 27 01 00 90  	adrp	x7, 0x44000 <_ZNK14ChiFeature2HDR21MergeParsedHDRBEStatsEP11ChiMetadataS1_S1_P15ChiFeature2Hint+0x460>
   2054c: 62 05 00 36  	tbz	w2, #0, 0x205f8 <_ZNK14ChiFeature2HDR21MergeParsedHDRBEStatsEP11ChiMetadataS1_S1_P15ChiFeature2Hint+0x488>
   20550: 33 01 00 90  	adrp	x19, 0x44000 <_ZNK14ChiFeature2HDR21MergeParsedHDRBEStatsEP11ChiMetadataS1_S1_P15ChiFeature2Hint+0x470>
   20560: 61 02 00 54  	b.ne	0x205ac <_ZNK14ChiFeature2HDR21MergeParsedHDRBEStatsEP11ChiMetadataS1_S1_P15ChiFeature2Hint+0x43c>
   20564: 99 ff ff 90  	adrp	x25, 0x10000 <_ZNK14ChiFeature2HDR21MergeParsedHDRBEStatsEP11ChiMetadataS1_S1_P15ChiFeature2Hint+0x3b4>
   20580: 81 ff ff d0  	adrp	x1, 0x12000 <_ZNK14ChiFeature2HDR21MergeParsedHDRBEStatsEP11ChiMetadataS1_S1_P15ChiFeature2Hint+0x3d8>
   20584: 62 ff ff f0  	adrp	x2, 0xf000 <_ZNK14ChiFeature2HDR21MergeParsedHDRBEStatsEP11ChiMetadataS1_S1_P15ChiFeature2Hint+0x3d0>
   20588: 65 ff ff b0  	adrp	x5, 0xd000 <_ZNK14ChiFeature2HDR21MergeParsedHDRBEStatsEP11ChiMetadataS1_S1_P15ChiFeature2Hint+0x3cc>
   205ac: 9a ff ff 90  	adrp	x26, 0x10000 <_ZNK14ChiFeature2HDR21MergeParsedHDRBEStatsEP11ChiMetadataS1_S1_P15ChiFeature2Hint+0x3fc>
   205c8: 81 ff ff d0  	adrp	x1, 0x12000 <_ZNK14ChiFeature2HDR21MergeParsedHDRBEStatsEP11ChiMetadataS1_S1_P15ChiFeature2Hint+0x420>
   205d0: 40 ff ff f0  	adrp	x0, 0xb000 <_ZNK14ChiFeature2HDR21MergeParsedHDRBEStatsEP11ChiMetadataS1_S1_P15ChiFeature2Hint+0x40c>
   205d4: 63 ff ff b0  	adrp	x3, 0xd000 <_ZNK14ChiFeature2HDR21MergeParsedHDRBEStatsEP11ChiMetadataS1_S1_P15ChiFeature2Hint+0x418>
   205d8: 85 ff ff d0  	adrp	x5, 0x12000 <_ZNK14ChiFeature2HDR21MergeParsedHDRBEStatsEP11ChiMetadataS1_S1_P15ChiFeature2Hint+0x430>
   205f4: f3 86 00 94  	bl	0x421c0 <_ZN6ChiLog9LogSystemEPKcS1_S1_S1_iS1_z@plt>
   20608: 21 23 00 54  	b.ne	0x20a6c <_ZNK14ChiFeature2HDR21MergeParsedHDRBEStatsEP11ChiMetadataS1_S1_P15ChiFeature2Hint+0x8fc>
   2062c: f6 04 00 b4  	cbz	x22, 0x206c8 <_ZNK14ChiFeature2HDR21MergeParsedHDRBEStatsEP11ChiMetadataS1_S1_P15ChiFeature2Hint+0x558>
   20634: a1 04 00 54  	b.ne	0x206c8 <_ZNK14ChiFeature2HDR21MergeParsedHDRBEStatsEP11ChiMetadataS1_S1_P15ChiFeature2Hint+0x558>
   2063c: 6d 0a 18 37  	tbnz	w13, #3, 0x20788 <_ZNK14ChiFeature2HDR21MergeParsedHDRBEStatsEP11ChiMetadataS1_S1_P15ChiFeature2Hint+0x618>
   20640: 58 ff ff f0  	adrp	x24, 0xb000 <_ZNK14ChiFeature2HDR21MergeParsedHDRBEStatsEP11ChiMetadataS1_S1_P15ChiFeature2Hint+0x47c>
   20644: 59 ff ff f0  	adrp	x25, 0xb000 <_ZNK14ChiFeature2HDR21MergeParsedHDRBEStatsEP11ChiMetadataS1_S1_P15ChiFeature2Hint+0x480>
   20698: 63 0a 00 b4  	cbz	x3, 0x207e4 <_ZNK14ChiFeature2HDR21MergeParsedHDRBEStatsEP11ChiMetadataS1_S1_P15ChiFeature2Hint+0x674>
   206a0: 41 ff ff f0  	adrp	x1, 0xb000 <_ZNK14ChiFeature2HDR21MergeParsedHDRBEStatsEP11ChiMetadataS1_S1_P15ChiFeature2Hint+0x4dc>
   206a8: 42 ff ff f0  	adrp	x2, 0xb000 <_ZNK14ChiFeature2HDR21MergeParsedHDRBEStatsEP11ChiMetadataS1_S1_P15ChiFeature2Hint+0x4e4>
   206c4: 74 00 00 14  	b	0x20894 <_ZNK14ChiFeature2HDR21MergeParsedHDRBEStatsEP11ChiMetadataS1_S1_P15ChiFeature2Hint+0x724>
   206cc: 96 f9 ff b5  	cbnz	x22, 0x205fc <_ZNK14ChiFeature2HDR21MergeParsedHDRBEStatsEP11ChiMetadataS1_S1_P15ChiFeature2Hint+0x48c>
   206d4: 41 f9 ff 54  	b.ne	0x205fc <_ZNK14ChiFeature2HDR21MergeParsedHDRBEStatsEP11ChiMetadataS1_S1_P15ChiFeature2Hint+0x48c>
   206d8: 25 01 00 90  	adrp	x5, 0x44000 <_ZNK14ChiFeature2HDR21MergeParsedHDRBEStatsEP11ChiMetadataS1_S1_P15ChiFeature2Hint+0x5f8>
   206e4: b1 f8 07 36  	tbz	w17, #0, 0x205f8 <_ZNK14ChiFeature2HDR21MergeParsedHDRBEStatsEP11ChiMetadataS1_S1_P15ChiFeature2Hint+0x488>
   206e8: 26 01 00 90  	adrp	x6, 0x44000 <_ZNK14ChiFeature2HDR21MergeParsedHDRBEStatsEP11ChiMetadataS1_S1_P15ChiFeature2Hint+0x608>
   206f8: 41 02 00 54  	b.ne	0x20740 <_ZNK14ChiFeature2HDR21MergeParsedHDRBEStatsEP11ChiMetadataS1_S1_P15ChiFeature2Hint+0x5d0>
   206fc: 98 ff ff 90  	adrp	x24, 0x10000 <_ZNK14ChiFeature2HDR21MergeParsedHDRBEStatsEP11ChiMetadataS1_S1_P15ChiFeature2Hint+0x54c>
   20718: 81 ff ff d0  	adrp	x1, 0x12000 <_ZNK14ChiFeature2HDR21MergeParsedHDRBEStatsEP11ChiMetadataS1_S1_P15ChiFeature2Hint+0x570>
   2071c: 62 ff ff f0  	adrp	x2, 0xf000 <_ZNK14ChiFeature2HDR21MergeParsedHDRBEStatsEP11ChiMetadataS1_S1_P15ChiFeature2Hint+0x568>
   20720: 65 ff ff b0  	adrp	x5, 0xd000 <_ZNK14ChiFeature2HDR21MergeParsedHDRBEStatsEP11ChiMetadataS1_S1_P15ChiFeature2Hint+0x564>
   20740: 95 ff ff 90  	adrp	x21, 0x10000 <_ZNK14ChiFeature2HDR21MergeParsedHDRBEStatsEP11ChiMetadataS1_S1_P15ChiFeature2Hint+0x590>
   2075c: 81 ff ff d0  	adrp	x1, 0x12000 <_ZNK14ChiFeature2HDR21MergeParsedHDRBEStatsEP11ChiMetadataS1_S1_P15ChiFeature2Hint+0x5b4>
   20764: 40 ff ff f0  	adrp	x0, 0xb000 <_ZNK14ChiFeature2HDR21MergeParsedHDRBEStatsEP11ChiMetadataS1_S1_P15ChiFeature2Hint+0x5a0>
   20768: 63 ff ff b0  	adrp	x3, 0xd000 <_ZNK14ChiFeature2HDR21MergeParsedHDRBEStatsEP11ChiMetadataS1_S1_P15ChiFeature2Hint+0x5ac>
   2076c: 85 ff ff d0  	adrp	x5, 0x12000 <_ZNK14ChiFeature2HDR21MergeParsedHDRBEStatsEP11ChiMetadataS1_S1_P15ChiFeature2Hint+0x5c4>
   20784: e6 00 00 14  	b	0x20b1c <_ZNK14ChiFeature2HDR21MergeParsedHDRBEStatsEP11ChiMetadataS1_S1_P15ChiFeature2Hint+0x9ac>
   20788: 59 ff ff f0  	adrp	x25, 0xb000 <_ZNK14ChiFeature2HDR21MergeParsedHDRBEStatsEP11ChiMetadataS1_S1_P15ChiFeature2Hint+0x5c4>
   2078c: 5a ff ff f0  	adrp	x26, 0xb000 <_ZNK14ChiFeature2HDR21MergeParsedHDRBEStatsEP11ChiMetadataS1_S1_P15ChiFeature2Hint+0x5c8>
   207e0: e3 f5 ff b5  	cbnz	x3, 0x2069c <_ZNK14ChiFeature2HDR21MergeParsedHDRBEStatsEP11ChiMetadataS1_S1_P15ChiFeature2Hint+0x52c>
   207e4: 30 01 00 90  	adrp	x16, 0x44000 <_ZNK14ChiFeature2HDR21MergeParsedHDRBEStatsEP11ChiMetadataS1_S1_P15ChiFeature2Hint+0x704>
   207f0: 2e 05 00 36  	tbz	w14, #0, 0x20894 <_ZNK14ChiFeature2HDR21MergeParsedHDRBEStatsEP11ChiMetadataS1_S1_P15ChiFeature2Hint+0x724>
   207f4: 31 01 00 90  	adrp	x17, 0x44000 <_ZNK14ChiFeature2HDR21MergeParsedHDRBEStatsEP11ChiMetadataS1_S1_P15ChiFeature2Hint+0x714>
   20804: 41 02 00 54  	b.ne	0x2084c <_ZNK14ChiFeature2HDR21MergeParsedHDRBEStatsEP11ChiMetadataS1_S1_P15ChiFeature2Hint+0x6dc>
   20808: 9a ff ff 90  	adrp	x26, 0x10000 <_ZNK14ChiFeature2HDR21MergeParsedHDRBEStatsEP11ChiMetadataS1_S1_P15ChiFeature2Hint+0x658>
   20824: 81 ff ff d0  	adrp	x1, 0x12000 <_ZNK14ChiFeature2HDR21MergeParsedHDRBEStatsEP11ChiMetadataS1_S1_P15ChiFeature2Hint+0x67c>
   20828: 42 ff ff f0  	adrp	x2, 0xb000 <_ZNK14ChiFeature2HDR21MergeParsedHDRBEStatsEP11ChiMetadataS1_S1_P15ChiFeature2Hint+0x664>
   2082c: 65 ff ff b0  	adrp	x5, 0xd000 <_ZNK14ChiFeature2HDR21MergeParsedHDRBEStatsEP11ChiMetadataS1_S1_P15ChiFeature2Hint+0x670>
   2084c: 98 ff ff 90  	adrp	x24, 0x10000 <_ZNK14ChiFeature2HDR21MergeParsedHDRBEStatsEP11ChiMetadataS1_S1_P15ChiFeature2Hint+0x69c>
   20868: 81 ff ff d0  	adrp	x1, 0x12000 <_ZNK14ChiFeature2HDR21MergeParsedHDRBEStatsEP11ChiMetadataS1_S1_P15ChiFeature2Hint+0x6c0>
   20870: 40 ff ff f0  	adrp	x0, 0xb000 <_ZNK14ChiFeature2HDR21MergeParsedHDRBEStatsEP11ChiMetadataS1_S1_P15ChiFeature2Hint+0x6ac>
   20874: 63 ff ff b0  	adrp	x3, 0xd000 <_ZNK14ChiFeature2HDR21MergeParsedHDRBEStatsEP11ChiMetadataS1_S1_P15ChiFeature2Hint+0x6b8>
   20878: 45 ff ff d0  	adrp	x5, 0xa000 <_ZNK14ChiFeature2HDR21MergeParsedHDRBEStatsEP11ChiMetadataS1_S1_P15ChiFeature2Hint+0x6b0>
   20890: 4c 86 00 94  	bl	0x421c0 <_ZN6ChiLog9LogSystemEPKcS1_S1_S1_iS1_z@plt>
   20894: 55 07 00 b4  	cbz	x21, 0x2097c <_ZNK14ChiFeature2HDR21MergeParsedHDRBEStatsEP11ChiMetadataS1_S1_P15ChiFeature2Hint+0x80c>
   2089c: 41 ff ff f0  	adrp	x1, 0xb000 <_ZNK14ChiFeature2HDR21MergeParsedHDRBEStatsEP11ChiMetadataS1_S1_P15ChiFeature2Hint+0x6d8>
   208a4: 42 ff ff f0  	adrp	x2, 0xb000 <_ZNK14ChiFeature2HDR21MergeParsedHDRBEStatsEP11ChiMetadataS1_S1_P15ChiFeature2Hint+0x6e0>
   208c4: 5a 00 00 14  	b	0x20a2c <_ZNK14ChiFeature2HDR21MergeParsedHDRBEStatsEP11ChiMetadataS1_S1_P15ChiFeature2Hint+0x8bc>
   208c8: 2e 01 00 90  	adrp	x14, 0x44000 <_ZNK14ChiFeature2HDR21MergeParsedHDRBEStatsEP11ChiMetadataS1_S1_P15ChiFeature2Hint+0x7e8>
   208d4: 6c e3 07 36  	tbz	w12, #0, 0x20540 <_ZNK14ChiFeature2HDR21MergeParsedHDRBEStatsEP11ChiMetadataS1_S1_P15ChiFeature2Hint+0x3d0>
   208d8: 2f 01 00 90  	adrp	x15, 0x44000 <_ZNK14ChiFeature2HDR21MergeParsedHDRBEStatsEP11ChiMetadataS1_S1_P15ChiFeature2Hint+0x7f8>
   208e8: 41 02 00 54  	b.ne	0x20930 <_ZNK14ChiFeature2HDR21MergeParsedHDRBEStatsEP11ChiMetadataS1_S1_P15ChiFeature2Hint+0x7c0>
   208ec: 95 ff ff 90  	adrp	x21, 0x10000 <_ZNK14ChiFeature2HDR21MergeParsedHDRBEStatsEP11ChiMetadataS1_S1_P15ChiFeature2Hint+0x73c>
   20908: 81 ff ff d0  	adrp	x1, 0x12000 <_ZNK14ChiFeature2HDR21MergeParsedHDRBEStatsEP11ChiMetadataS1_S1_P15ChiFeature2Hint+0x760>
   2090c: 62 ff ff b0  	adrp	x2, 0xd000 <_ZNK14ChiFeature2HDR21MergeParsedHDRBEStatsEP11ChiMetadataS1_S1_P15ChiFeature2Hint+0x750>
   20910: 65 ff ff b0  	adrp	x5, 0xd000 <_ZNK14ChiFeature2HDR21MergeParsedHDRBEStatsEP11ChiMetadataS1_S1_P15ChiFeature2Hint+0x754>
   20930: 98 ff ff 90  	adrp	x24, 0x10000 <_ZNK14ChiFeature2HDR21MergeParsedHDRBEStatsEP11ChiMetadataS1_S1_P15ChiFeature2Hint+0x780>
   2094c: 81 ff ff d0  	adrp	x1, 0x12000 <_ZNK14ChiFeature2HDR21MergeParsedHDRBEStatsEP11ChiMetadataS1_S1_P15ChiFeature2Hint+0x7a4>
   20954: 40 ff ff f0  	adrp	x0, 0xb000 <_ZNK14ChiFeature2HDR21MergeParsedHDRBEStatsEP11ChiMetadataS1_S1_P15ChiFeature2Hint+0x790>
   20958: 63 ff ff b0  	adrp	x3, 0xd000 <_ZNK14ChiFeature2HDR21MergeParsedHDRBEStatsEP11ChiMetadataS1_S1_P15ChiFeature2Hint+0x79c>
   2095c: 85 ff ff 90  	adrp	x5, 0x10000 <_ZNK14ChiFeature2HDR21MergeParsedHDRBEStatsEP11ChiMetadataS1_S1_P15ChiFeature2Hint+0x7ac>
   20974: 13 86 00 94  	bl	0x421c0 <_ZN6ChiLog9LogSystemEPKcS1_S1_S1_iS1_z@plt>
   20978: f2 fe ff 17  	b	0x20540 <_ZNK14ChiFeature2HDR21MergeParsedHDRBEStatsEP11ChiMetadataS1_S1_P15ChiFeature2Hint+0x3d0>
   2097c: 21 01 00 90  	adrp	x1, 0x44000 <_ZNK14ChiFeature2HDR21MergeParsedHDRBEStatsEP11ChiMetadataS1_S1_P15ChiFeature2Hint+0x89c>
   20988: 2f 05 00 36  	tbz	w15, #0, 0x20a2c <_ZNK14ChiFeature2HDR21MergeParsedHDRBEStatsEP11ChiMetadataS1_S1_P15ChiFeature2Hint+0x8bc>
   2098c: 22 01 00 90  	adrp	x2, 0x44000 <_ZNK14ChiFeature2HDR21MergeParsedHDRBEStatsEP11ChiMetadataS1_S1_P15ChiFeature2Hint+0x8ac>
   2099c: 41 02 00 54  	b.ne	0x209e4 <_ZNK14ChiFeature2HDR21MergeParsedHDRBEStatsEP11ChiMetadataS1_S1_P15ChiFeature2Hint+0x874>
   209a0: 95 ff ff 90  	adrp	x21, 0x10000 <_ZNK14ChiFeature2HDR21MergeParsedHDRBEStatsEP11ChiMetadataS1_S1_P15ChiFeature2Hint+0x7f0>
   209bc: 81 ff ff d0  	adrp	x1, 0x12000 <_ZNK14ChiFeature2HDR21MergeParsedHDRBEStatsEP11ChiMetadataS1_S1_P15ChiFeature2Hint+0x814>
   209c0: 82 ff ff d0  	adrp	x2, 0x12000 <_ZNK14ChiFeature2HDR21MergeParsedHDRBEStatsEP11ChiMetadataS1_S1_P15ChiFeature2Hint+0x818>
   209c4: 65 ff ff b0  	adrp	x5, 0xd000 <_ZNK14ChiFeature2HDR21MergeParsedHDRBEStatsEP11ChiMetadataS1_S1_P15ChiFeature2Hint+0x808>
   209e4: 99 ff ff 90  	adrp	x25, 0x10000 <_ZNK14ChiFeature2HDR21MergeParsedHDRBEStatsEP11ChiMetadataS1_S1_P15ChiFeature2Hint+0x834>
   20a00: 81 ff ff d0  	adrp	x1, 0x12000 <_ZNK14ChiFeature2HDR21MergeParsedHDRBEStatsEP11ChiMetadataS1_S1_P15ChiFeature2Hint+0x858>
   20a08: 40 ff ff f0  	adrp	x0, 0xb000 <_ZNK14ChiFeature2HDR21MergeParsedHDRBEStatsEP11ChiMetadataS1_S1_P15ChiFeature2Hint+0x844>
   20a0c: 63 ff ff b0  	adrp	x3, 0xd000 <_ZNK14ChiFeature2HDR21MergeParsedHDRBEStatsEP11ChiMetadataS1_S1_P15ChiFeature2Hint+0x850>
   20a10: 45 ff ff f0  	adrp	x5, 0xb000 <_ZNK14ChiFeature2HDR21MergeParsedHDRBEStatsEP11ChiMetadataS1_S1_P15ChiFeature2Hint+0x84c>
   20a28: e6 85 00 94  	bl	0x421c0 <_ZN6ChiLog9LogSystemEPKcS1_S1_S1_iS1_z@plt>
   20a2c: 34 02 00 b4  	cbz	x20, 0x20a70 <_ZNK14ChiFeature2HDR21MergeParsedHDRBEStatsEP11ChiMetadataS1_S1_P15ChiFeature2Hint+0x900>
   20a34: 41 ff ff f0  	adrp	x1, 0xb000 <_ZNK14ChiFeature2HDR21MergeParsedHDRBEStatsEP11ChiMetadataS1_S1_P15ChiFeature2Hint+0x870>
   20a3c: 42 ff ff f0  	adrp	x2, 0xb000 <_ZNK14ChiFeature2HDR21MergeParsedHDRBEStatsEP11ChiMetadataS1_S1_P15ChiFeature2Hint+0x878>
   20a68: 20 dd ff 54  	b.eq	0x2060c <_ZNK14ChiFeature2HDR21MergeParsedHDRBEStatsEP11ChiMetadataS1_S1_P15ChiFeature2Hint+0x49c>
   20a70: 23 01 00 90  	adrp	x3, 0x44000 <_ZNK14ChiFeature2HDR21MergeParsedHDRBEStatsEP11ChiMetadataS1_S1_P15ChiFeature2Hint+0x990>
   20a7c: f0 db 07 36  	tbz	w16, #0, 0x205f8 <_ZNK14ChiFeature2HDR21MergeParsedHDRBEStatsEP11ChiMetadataS1_S1_P15ChiFeature2Hint+0x488>
   20a80: 24 01 00 90  	adrp	x4, 0x44000 <_ZNK14ChiFeature2HDR21MergeParsedHDRBEStatsEP11ChiMetadataS1_S1_P15ChiFeature2Hint+0x9a0>
   20a90: 41 02 00 54  	b.ne	0x20ad8 <_ZNK14ChiFeature2HDR21MergeParsedHDRBEStatsEP11ChiMetadataS1_S1_P15ChiFeature2Hint+0x968>
   20a94: 94 ff ff 90  	adrp	x20, 0x10000 <_ZNK14ChiFeature2HDR21MergeParsedHDRBEStatsEP11ChiMetadataS1_S1_P15ChiFeature2Hint+0x8e4>
   20ab0: 81 ff ff d0  	adrp	x1, 0x12000 <_ZNK14ChiFeature2HDR21MergeParsedHDRBEStatsEP11ChiMetadataS1_S1_P15ChiFeature2Hint+0x908>
   20ab4: 82 ff ff b0  	adrp	x2, 0x11000 <_ZNK14ChiFeature2HDR21MergeParsedHDRBEStatsEP11ChiMetadataS1_S1_P15ChiFeature2Hint+0x908>
   20ab8: 65 ff ff b0  	adrp	x5, 0xd000 <_ZNK14ChiFeature2HDR21MergeParsedHDRBEStatsEP11ChiMetadataS1_S1_P15ChiFeature2Hint+0x8fc>
   20ad8: 9a ff ff 90  	adrp	x26, 0x10000 <_ZNK14ChiFeature2HDR21MergeParsedHDRBEStatsEP11ChiMetadataS1_S1_P15ChiFeature2Hint+0x928>
   20af4: 81 ff ff d0  	adrp	x1, 0x12000 <_ZNK14ChiFeature2HDR21MergeParsedHDRBEStatsEP11ChiMetadataS1_S1_P15ChiFeature2Hint+0x94c>
   20afc: 40 ff ff f0  	adrp	x0, 0xb000 <_ZNK14ChiFeature2HDR21MergeParsedHDRBEStatsEP11ChiMetadataS1_S1_P15ChiFeature2Hint+0x938>
   20b00: 63 ff ff b0  	adrp	x3, 0xd000 <_ZNK14ChiFeature2HDR21MergeParsedHDRBEStatsEP11ChiMetadataS1_S1_P15ChiFeature2Hint+0x944>
   20b04: 65 ff ff d0  	adrp	x5, 0xe000 <_ZNK14ChiFeature2HDR21MergeParsedHDRBEStatsEP11ChiMetadataS1_S1_P15ChiFeature2Hint+0x94c>
   20b1c: a9 85 00 94  	bl	0x421c0 <_ZN6ChiLog9LogSystemEPKcS1_S1_S1_iS1_z@plt>
   20b20: b6 fe ff 17  	b	0x205f8 <_ZNK14ChiFeature2HDR21MergeParsedHDRBEStatsEP11ChiMetadataS1_S1_P15ChiFeature2Hint+0x488>
0000000000020b28 <_ZNK14ChiFeature2HDR21MergeIFENRMConfigDataEP11ChiMetadataS1_S1_P15ChiFeature2Hinti>:
   20b4c: 3a 01 00 90  	adrp	x26, 0x44000 <_ZNK14ChiFeature2HDR21MergeIFENRMConfigDataEP11ChiMetadataS1_S1_P15ChiFeature2Hinti+0xb4>
   20b68: e1 05 00 b4  	cbz	x1, 0x20c24 <_ZNK14ChiFeature2HDR21MergeIFENRMConfigDataEP11ChiMetadataS1_S1_P15ChiFeature2Hinti+0xfc>
   20b6c: d3 05 00 b4  	cbz	x19, 0x20c24 <_ZNK14ChiFeature2HDR21MergeIFENRMConfigDataEP11ChiMetadataS1_S1_P15ChiFeature2Hinti+0xfc>
   20b80: 09 0b 18 37  	tbnz	w9, #3, 0x20ce0 <_ZNK14ChiFeature2HDR21MergeIFENRMConfigDataEP11ChiMetadataS1_S1_P15ChiFeature2Hinti+0x1b8>
   20b84: 7a ff ff 90  	adrp	x26, 0xc000 <_ZNK14ChiFeature2HDR21MergeIFENRMConfigDataEP11ChiMetadataS1_S1_P15ChiFeature2Hinti+0xc>
   20b88: 7b ff ff b0  	adrp	x27, 0xd000 <_ZNK14ChiFeature2HDR21MergeIFENRMConfigDataEP11ChiMetadataS1_S1_P15ChiFeature2Hinti+0x14>
   20be0: 21 0b 00 54  	b.ne	0x20d44 <_ZNK14ChiFeature2HDR21MergeIFENRMConfigDataEP11ChiMetadataS1_S1_P15ChiFeature2Hinti+0x21c>
   20be4: 16 0b 00 b4  	cbz	x22, 0x20d44 <_ZNK14ChiFeature2HDR21MergeIFENRMConfigDataEP11ChiMetadataS1_S1_P15ChiFeature2Hinti+0x21c>
   20bec: 61 ff ff 90  	adrp	x1, 0xc000 <_ZNK14ChiFeature2HDR21MergeIFENRMConfigDataEP11ChiMetadataS1_S1_P15ChiFeature2Hinti+0x74>
   20bf4: 62 ff ff b0  	adrp	x2, 0xd000 <_ZNK14ChiFeature2HDR21MergeIFENRMConfigDataEP11ChiMetadataS1_S1_P15ChiFeature2Hinti+0x80>
   20c10: 3a 01 00 90  	adrp	x26, 0x44000 <_ZNK14ChiFeature2HDR21MergeIFENRMConfigDataEP11ChiMetadataS1_S1_P15ChiFeature2Hinti+0x178>
   20c1c: 20 15 00 54  	b.eq	0x20ec0 <_ZNK14ChiFeature2HDR21MergeIFENRMConfigDataEP11ChiMetadataS1_S1_P15ChiFeature2Hinti+0x398>
   20c20: b4 00 00 14  	b	0x20ef0 <_ZNK14ChiFeature2HDR21MergeIFENRMConfigDataEP11ChiMetadataS1_S1_P15ChiFeature2Hinti+0x3c8>
   20c28: 88 16 00 36  	tbz	w8, #0, 0x20ef8 <_ZNK14ChiFeature2HDR21MergeIFENRMConfigDataEP11ChiMetadataS1_S1_P15ChiFeature2Hinti+0x3d0>
   20c2c: 28 01 00 90  	adrp	x8, 0x44000 <_ZNK14ChiFeature2HDR21MergeIFENRMConfigDataEP11ChiMetadataS1_S1_P15ChiFeature2Hinti+0x194>
   20c3c: 81 02 00 54  	b.ne	0x20c8c <_ZNK14ChiFeature2HDR21MergeIFENRMConfigDataEP11ChiMetadataS1_S1_P15ChiFeature2Hinti+0x164>
   20c40: 99 ff ff 90  	adrp	x25, 0x10000 <_ZNK14ChiFeature2HDR21MergeIFENRMConfigDataEP11ChiMetadataS1_S1_P15ChiFeature2Hinti+0xd8>
   20c5c: 81 ff ff d0  	adrp	x1, 0x12000 <_ZNK14ChiFeature2HDR21MergeIFENRMConfigDataEP11ChiMetadataS1_S1_P15ChiFeature2Hinti+0xfc>
   20c60: 42 ff ff f0  	adrp	x2, 0xb000 <_ZNK14ChiFeature2HDR21MergeIFENRMConfigDataEP11ChiMetadataS1_S1_P15ChiFeature2Hinti+0xe4>
   20c64: 65 ff ff b0  	adrp	x5, 0xd000 <_ZNK14ChiFeature2HDR21MergeIFENRMConfigDataEP11ChiMetadataS1_S1_P15ChiFeature2Hinti+0xf0>
   20c8c: 99 ff ff 90  	adrp	x25, 0x10000 <_ZNK14ChiFeature2HDR21MergeIFENRMConfigDataEP11ChiMetadataS1_S1_P15ChiFeature2Hinti+0x124>
   20ca8: 81 ff ff d0  	adrp	x1, 0x12000 <_ZNK14ChiFeature2HDR21MergeIFENRMConfigDataEP11ChiMetadataS1_S1_P15ChiFeature2Hinti+0x148>
   20cb0: 40 ff ff f0  	adrp	x0, 0xb000 <_ZNK14ChiFeature2HDR21MergeIFENRMConfigDataEP11ChiMetadataS1_S1_P15ChiFeature2Hinti+0x134>
   20cb4: 63 ff ff b0  	adrp	x3, 0xd000 <_ZNK14ChiFeature2HDR21MergeIFENRMConfigDataEP11ChiMetadataS1_S1_P15ChiFeature2Hinti+0x140>
   20cb8: 85 ff ff b0  	adrp	x5, 0x11000 <_ZNK14ChiFeature2HDR21MergeIFENRMConfigDataEP11ChiMetadataS1_S1_P15ChiFeature2Hinti+0x154>
   20cd8: 3a 85 00 94  	bl	0x421c0 <_ZN6ChiLog9LogSystemEPKcS1_S1_S1_iS1_z@plt>
   20cdc: 87 00 00 14  	b	0x20ef8 <_ZNK14ChiFeature2HDR21MergeIFENRMConfigDataEP11ChiMetadataS1_S1_P15ChiFeature2Hinti+0x3d0>
   20ce4: 61 ff ff 90  	adrp	x1, 0xc000 <_ZNK14ChiFeature2HDR21MergeIFENRMConfigDataEP11ChiMetadataS1_S1_P15ChiFeature2Hinti+0x16c>
   20cec: 62 ff ff b0  	adrp	x2, 0xd000 <_ZNK14ChiFeature2HDR21MergeIFENRMConfigDataEP11ChiMetadataS1_S1_P15ChiFeature2Hinti+0x178>
   20d10: 81 02 00 54  	b.ne	0x20d60 <_ZNK14ChiFeature2HDR21MergeIFENRMConfigDataEP11ChiMetadataS1_S1_P15ChiFeature2Hinti+0x238>
   20d14: 76 02 00 b4  	cbz	x22, 0x20d60 <_ZNK14ChiFeature2HDR21MergeIFENRMConfigDataEP11ChiMetadataS1_S1_P15ChiFeature2Hinti+0x238>
   20d1c: 61 ff ff 90  	adrp	x1, 0xc000 <_ZNK14ChiFeature2HDR21MergeIFENRMConfigDataEP11ChiMetadataS1_S1_P15ChiFeature2Hinti+0x1a4>
   20d24: 62 ff ff b0  	adrp	x2, 0xd000 <_ZNK14ChiFeature2HDR21MergeIFENRMConfigDataEP11ChiMetadataS1_S1_P15ChiFeature2Hinti+0x1b0>
   20d40: 6d 00 00 14  	b	0x20ef4 <_ZNK14ChiFeature2HDR21MergeIFENRMConfigDataEP11ChiMetadataS1_S1_P15ChiFeature2Hinti+0x3cc>
   20d44: 3a 01 00 90  	adrp	x26, 0x44000 <_ZNK14ChiFeature2HDR21MergeIFENRMConfigDataEP11ChiMetadataS1_S1_P15ChiFeature2Hinti+0x2ac>
   20d4c: d6 05 00 b4  	cbz	x22, 0x20e04 <_ZNK14ChiFeature2HDR21MergeIFENRMConfigDataEP11ChiMetadataS1_S1_P15ChiFeature2Hinti+0x2dc>
   20d58: 40 0b 00 54  	b.eq	0x20ec0 <_ZNK14ChiFeature2HDR21MergeIFENRMConfigDataEP11ChiMetadataS1_S1_P15ChiFeature2Hinti+0x398>
   20d5c: 65 00 00 14  	b	0x20ef0 <_ZNK14ChiFeature2HDR21MergeIFENRMConfigDataEP11ChiMetadataS1_S1_P15ChiFeature2Hinti+0x3c8>
   20d60: d6 19 00 b5  	cbnz	x22, 0x21098 <_ZNK14ChiFeature2HDR21MergeIFENRMConfigDataEP11ChiMetadataS1_S1_P15ChiFeature2Hinti+0x570>
   20d68: 8a 0c 00 36  	tbz	w10, #0, 0x20ef8 <_ZNK14ChiFeature2HDR21MergeIFENRMConfigDataEP11ChiMetadataS1_S1_P15ChiFeature2Hinti+0x3d0>
   20d6c: 29 01 00 90  	adrp	x9, 0x44000 <_ZNK14ChiFeature2HDR21MergeIFENRMConfigDataEP11ChiMetadataS1_S1_P15ChiFeature2Hinti+0x2d4>
   20d70: 96 ff ff 90  	adrp	x22, 0x10000 <_ZNK14ChiFeature2HDR21MergeIFENRMConfigDataEP11ChiMetadataS1_S1_P15ChiFeature2Hinti+0x208>
   20d84: 01 02 00 54  	b.ne	0x20dc4 <_ZNK14ChiFeature2HDR21MergeIFENRMConfigDataEP11ChiMetadataS1_S1_P15ChiFeature2Hinti+0x29c>
   20d9c: 81 ff ff d0  	adrp	x1, 0x12000 <_ZNK14ChiFeature2HDR21MergeIFENRMConfigDataEP11ChiMetadataS1_S1_P15ChiFeature2Hinti+0x23c>
   20da0: 62 ff ff f0  	adrp	x2, 0xf000 <_ZNK14ChiFeature2HDR21MergeIFENRMConfigDataEP11ChiMetadataS1_S1_P15ChiFeature2Hinti+0x234>
   20da4: 65 ff ff b0  	adrp	x5, 0xd000 <_ZNK14ChiFeature2HDR21MergeIFENRMConfigDataEP11ChiMetadataS1_S1_P15ChiFeature2Hinti+0x230>
   20dd8: 81 ff ff d0  	adrp	x1, 0x12000 <_ZNK14ChiFeature2HDR21MergeIFENRMConfigDataEP11ChiMetadataS1_S1_P15ChiFeature2Hinti+0x278>
   20de0: 40 ff ff f0  	adrp	x0, 0xb000 <_ZNK14ChiFeature2HDR21MergeIFENRMConfigDataEP11ChiMetadataS1_S1_P15ChiFeature2Hinti+0x264>
   20de4: 63 ff ff b0  	adrp	x3, 0xd000 <_ZNK14ChiFeature2HDR21MergeIFENRMConfigDataEP11ChiMetadataS1_S1_P15ChiFeature2Hinti+0x270>
   20de8: 65 ff ff d0  	adrp	x5, 0xe000 <_ZNK14ChiFeature2HDR21MergeIFENRMConfigDataEP11ChiMetadataS1_S1_P15ChiFeature2Hinti+0x278>
   20e00: 73 01 00 14  	b	0x213cc <_ZNK14ChiFeature2HDR21MergeIFENRMConfigDataEP11ChiMetadataS1_S1_P15ChiFeature2Hinti+0x8a4>
   20e08: 6b 05 00 36  	tbz	w11, #0, 0x20eb4 <_ZNK14ChiFeature2HDR21MergeIFENRMConfigDataEP11ChiMetadataS1_S1_P15ChiFeature2Hinti+0x38c>
   20e0c: 2a 01 00 90  	adrp	x10, 0x44000 <_ZNK14ChiFeature2HDR21MergeIFENRMConfigDataEP11ChiMetadataS1_S1_P15ChiFeature2Hinti+0x374>
   20e1c: 81 02 00 54  	b.ne	0x20e6c <_ZNK14ChiFeature2HDR21MergeIFENRMConfigDataEP11ChiMetadataS1_S1_P15ChiFeature2Hinti+0x344>
   20e20: 9a ff ff 90  	adrp	x26, 0x10000 <_ZNK14ChiFeature2HDR21MergeIFENRMConfigDataEP11ChiMetadataS1_S1_P15ChiFeature2Hinti+0x2b8>
   20e3c: 81 ff ff d0  	adrp	x1, 0x12000 <_ZNK14ChiFeature2HDR21MergeIFENRMConfigDataEP11ChiMetadataS1_S1_P15ChiFeature2Hinti+0x2dc>
   20e44: 3a 01 00 90  	adrp	x26, 0x44000 <_ZNK14ChiFeature2HDR21MergeIFENRMConfigDataEP11ChiMetadataS1_S1_P15ChiFeature2Hinti+0x3ac>
   20e48: 82 ff ff b0  	adrp	x2, 0x11000 <_ZNK14ChiFeature2HDR21MergeIFENRMConfigDataEP11ChiMetadataS1_S1_P15ChiFeature2Hinti+0x2e4>
   20e4c: 65 ff ff b0  	adrp	x5, 0xd000 <_ZNK14ChiFeature2HDR21MergeIFENRMConfigDataEP11ChiMetadataS1_S1_P15ChiFeature2Hinti+0x2d8>
   20e6c: 9b ff ff 90  	adrp	x27, 0x10000 <_ZNK14ChiFeature2HDR21MergeIFENRMConfigDataEP11ChiMetadataS1_S1_P15ChiFeature2Hinti+0x304>
   20e88: 81 ff ff d0  	adrp	x1, 0x12000 <_ZNK14ChiFeature2HDR21MergeIFENRMConfigDataEP11ChiMetadataS1_S1_P15ChiFeature2Hinti+0x328>
   20e90: 40 ff ff f0  	adrp	x0, 0xb000 <_ZNK14ChiFeature2HDR21MergeIFENRMConfigDataEP11ChiMetadataS1_S1_P15ChiFeature2Hinti+0x314>
   20e94: 63 ff ff b0  	adrp	x3, 0xd000 <_ZNK14ChiFeature2HDR21MergeIFENRMConfigDataEP11ChiMetadataS1_S1_P15ChiFeature2Hinti+0x320>
   20e98: 65 ff ff 90  	adrp	x5, 0xc000 <_ZNK14ChiFeature2HDR21MergeIFENRMConfigDataEP11ChiMetadataS1_S1_P15ChiFeature2Hinti+0x320>
   20eb0: c4 84 00 94  	bl	0x421c0 <_ZN6ChiLog9LogSystemEPKcS1_S1_S1_iS1_z@plt>
   20ebc: a1 01 00 54  	b.ne	0x20ef0 <_ZNK14ChiFeature2HDR21MergeIFENRMConfigDataEP11ChiMetadataS1_S1_P15ChiFeature2Hinti+0x3c8>
   20ec0: 99 01 00 b4  	cbz	x25, 0x20ef0 <_ZNK14ChiFeature2HDR21MergeIFENRMConfigDataEP11ChiMetadataS1_S1_P15ChiFeature2Hinti+0x3c8>
   20ec8: 61 ff ff 90  	adrp	x1, 0xc000 <_ZNK14ChiFeature2HDR21MergeIFENRMConfigDataEP11ChiMetadataS1_S1_P15ChiFeature2Hinti+0x350>
   20ed0: 62 ff ff b0  	adrp	x2, 0xd000 <_ZNK14ChiFeature2HDR21MergeIFENRMConfigDataEP11ChiMetadataS1_S1_P15ChiFeature2Hinti+0x35c>
   20eec: 02 00 00 14  	b	0x20ef4 <_ZNK14ChiFeature2HDR21MergeIFENRMConfigDataEP11ChiMetadataS1_S1_P15ChiFeature2Hinti+0x3cc>
   20ef0: d9 21 00 b4  	cbz	x25, 0x21328 <_ZNK14ChiFeature2HDR21MergeIFENRMConfigDataEP11ChiMetadataS1_S1_P15ChiFeature2Hinti+0x800>
   20ef4: 20 0d 00 34  	cbz	w0, 0x21098 <_ZNK14ChiFeature2HDR21MergeIFENRMConfigDataEP11ChiMetadataS1_S1_P15ChiFeature2Hinti+0x570>
   20efc: a2 05 00 36  	tbz	w2, #0, 0x20fb0 <_ZNK14ChiFeature2HDR21MergeIFENRMConfigDataEP11ChiMetadataS1_S1_P15ChiFeature2Hinti+0x488>
   20f00: 30 01 00 90  	adrp	x16, 0x44000 <_ZNK14ChiFeature2HDR21MergeIFENRMConfigDataEP11ChiMetadataS1_S1_P15ChiFeature2Hinti+0x468>
   20f10: a1 02 00 54  	b.ne	0x20f64 <_ZNK14ChiFeature2HDR21MergeIFENRMConfigDataEP11ChiMetadataS1_S1_P15ChiFeature2Hinti+0x43c>
   20f18: 9a ff ff 90  	adrp	x26, 0x10000 <_ZNK14ChiFeature2HDR21MergeIFENRMConfigDataEP11ChiMetadataS1_S1_P15ChiFeature2Hinti+0x3b0>
   20f34: 81 ff ff d0  	adrp	x1, 0x12000 <_ZNK14ChiFeature2HDR21MergeIFENRMConfigDataEP11ChiMetadataS1_S1_P15ChiFeature2Hinti+0x3d4>
   20f38: 62 ff ff f0  	adrp	x2, 0xf000 <_ZNK14ChiFeature2HDR21MergeIFENRMConfigDataEP11ChiMetadataS1_S1_P15ChiFeature2Hinti+0x3cc>
   20f3c: 65 ff ff b0  	adrp	x5, 0xd000 <_ZNK14ChiFeature2HDR21MergeIFENRMConfigDataEP11ChiMetadataS1_S1_P15ChiFeature2Hinti+0x3c8>
   20f64: 9b ff ff 90  	adrp	x27, 0x10000 <_ZNK14ChiFeature2HDR21MergeIFENRMConfigDataEP11ChiMetadataS1_S1_P15ChiFeature2Hinti+0x3fc>
   20f80: 81 ff ff d0  	adrp	x1, 0x12000 <_ZNK14ChiFeature2HDR21MergeIFENRMConfigDataEP11ChiMetadataS1_S1_P15ChiFeature2Hinti+0x420>
   20f88: 40 ff ff f0  	adrp	x0, 0xb000 <_ZNK14ChiFeature2HDR21MergeIFENRMConfigDataEP11ChiMetadataS1_S1_P15ChiFeature2Hinti+0x40c>
   20f8c: 63 ff ff b0  	adrp	x3, 0xd000 <_ZNK14ChiFeature2HDR21MergeIFENRMConfigDataEP11ChiMetadataS1_S1_P15ChiFeature2Hinti+0x418>
   20f90: 85 ff ff 90  	adrp	x5, 0x10000 <_ZNK14ChiFeature2HDR21MergeIFENRMConfigDataEP11ChiMetadataS1_S1_P15ChiFeature2Hinti+0x428>
   20fac: 85 84 00 94  	bl	0x421c0 <_ZN6ChiLog9LogSystemEPKcS1_S1_S1_iS1_z@plt>
   20fb8: 63 05 18 36  	tbz	w3, #3, 0x21064 <_ZNK14ChiFeature2HDR21MergeIFENRMConfigDataEP11ChiMetadataS1_S1_P15ChiFeature2Hinti+0x53c>
   20fbc: 31 01 00 90  	adrp	x17, 0x44000 <_ZNK14ChiFeature2HDR21MergeIFENRMConfigDataEP11ChiMetadataS1_S1_P15ChiFeature2Hinti+0x524>
   20fcc: 61 02 00 54  	b.ne	0x21018 <_ZNK14ChiFeature2HDR21MergeIFENRMConfigDataEP11ChiMetadataS1_S1_P15ChiFeature2Hinti+0x4f0>
   20fd0: 94 ff ff 90  	adrp	x20, 0x10000 <_ZNK14ChiFeature2HDR21MergeIFENRMConfigDataEP11ChiMetadataS1_S1_P15ChiFeature2Hinti+0x468>
   20fec: 81 ff ff d0  	adrp	x1, 0x12000 <_ZNK14ChiFeature2HDR21MergeIFENRMConfigDataEP11ChiMetadataS1_S1_P15ChiFeature2Hinti+0x48c>
   20ff0: 62 ff ff b0  	adrp	x2, 0xd000 <_ZNK14ChiFeature2HDR21MergeIFENRMConfigDataEP11ChiMetadataS1_S1_P15ChiFeature2Hinti+0x47c>
   20ff4: 65 ff ff b0  	adrp	x5, 0xd000 <_ZNK14ChiFeature2HDR21MergeIFENRMConfigDataEP11ChiMetadataS1_S1_P15ChiFeature2Hinti+0x480>
   21018: 79 ff ff f0  	adrp	x25, 0x10000 <_ZNK14ChiFeature2HDR21MergeIFENRMConfigDataEP11ChiMetadataS1_S1_P15ChiFeature2Hinti+0x4ac>
   21034: 61 ff ff b0  	adrp	x1, 0xe000 <_ZNK14ChiFeature2HDR21MergeIFENRMConfigDataEP11ChiMetadataS1_S1_P15ChiFeature2Hinti+0x4c0>
   2103c: 80 ff ff b0  	adrp	x0, 0x12000 <_ZNK14ChiFeature2HDR21MergeIFENRMConfigDataEP11ChiMetadataS1_S1_P15ChiFeature2Hinti+0x4d8>
   21040: 63 ff ff 90  	adrp	x3, 0xd000 <_ZNK14ChiFeature2HDR21MergeIFENRMConfigDataEP11ChiMetadataS1_S1_P15ChiFeature2Hinti+0x4c8>
   21044: 85 ff ff b0  	adrp	x5, 0x12000 <_ZNK14ChiFeature2HDR21MergeIFENRMConfigDataEP11ChiMetadataS1_S1_P15ChiFeature2Hinti+0x4e0>
   21060: 58 84 00 94  	bl	0x421c0 <_ZN6ChiLog9LogSystemEPKcS1_S1_S1_iS1_z@plt>
   21070: a1 27 00 54  	b.ne	0x21564 <_ZNK14ChiFeature2HDR21MergeIFENRMConfigDataEP11ChiMetadataS1_S1_P15ChiFeature2Hinti+0xa3c>
   21098: 17 05 00 b4  	cbz	x23, 0x21138 <_ZNK14ChiFeature2HDR21MergeIFENRMConfigDataEP11ChiMetadataS1_S1_P15ChiFeature2Hinti+0x610>
   210a0: c1 04 00 54  	b.ne	0x21138 <_ZNK14ChiFeature2HDR21MergeIFENRMConfigDataEP11ChiMetadataS1_S1_P15ChiFeature2Hinti+0x610>
   210ac: 2d 0a 18 37  	tbnz	w13, #3, 0x211f0 <_ZNK14ChiFeature2HDR21MergeIFENRMConfigDataEP11ChiMetadataS1_S1_P15ChiFeature2Hinti+0x6c8>
   210b0: 59 ff ff f0  	adrp	x25, 0xc000 <_ZNK14ChiFeature2HDR21MergeIFENRMConfigDataEP11ChiMetadataS1_S1_P15ChiFeature2Hinti+0x534>
   210b4: 7a ff ff 90  	adrp	x26, 0xd000 <_ZNK14ChiFeature2HDR21MergeIFENRMConfigDataEP11ChiMetadataS1_S1_P15ChiFeature2Hinti+0x53c>
   2110c: 23 0a 00 b4  	cbz	x3, 0x21250 <_ZNK14ChiFeature2HDR21MergeIFENRMConfigDataEP11ChiMetadataS1_S1_P15ChiFeature2Hinti+0x728>
   21114: 41 ff ff f0  	adrp	x1, 0xc000 <_ZNK14ChiFeature2HDR21MergeIFENRMConfigDataEP11ChiMetadataS1_S1_P15ChiFeature2Hinti+0x598>
   2111c: 62 ff ff 90  	adrp	x2, 0xd000 <_ZNK14ChiFeature2HDR21MergeIFENRMConfigDataEP11ChiMetadataS1_S1_P15ChiFeature2Hinti+0x5a4>
   21134: 71 00 00 14  	b	0x212f8 <_ZNK14ChiFeature2HDR21MergeIFENRMConfigDataEP11ChiMetadataS1_S1_P15ChiFeature2Hinti+0x7d0>
   2113c: d7 f3 ff b5  	cbnz	x23, 0x20fb4 <_ZNK14ChiFeature2HDR21MergeIFENRMConfigDataEP11ChiMetadataS1_S1_P15ChiFeature2Hinti+0x48c>
   21144: 81 f3 ff 54  	b.ne	0x20fb4 <_ZNK14ChiFeature2HDR21MergeIFENRMConfigDataEP11ChiMetadataS1_S1_P15ChiFeature2Hinti+0x48c>
   2114c: 31 f3 07 36  	tbz	w17, #0, 0x20fb0 <_ZNK14ChiFeature2HDR21MergeIFENRMConfigDataEP11ChiMetadataS1_S1_P15ChiFeature2Hinti+0x488>
   21150: 0f 01 00 f0  	adrp	x15, 0x44000 <_ZNK14ChiFeature2HDR21MergeIFENRMConfigDataEP11ChiMetadataS1_S1_P15ChiFeature2Hinti+0x6b4>
   21160: 41 02 00 54  	b.ne	0x211a8 <_ZNK14ChiFeature2HDR21MergeIFENRMConfigDataEP11ChiMetadataS1_S1_P15ChiFeature2Hinti+0x680>
   21164: 79 ff ff f0  	adrp	x25, 0x10000 <_ZNK14ChiFeature2HDR21MergeIFENRMConfigDataEP11ChiMetadataS1_S1_P15ChiFeature2Hinti+0x5f8>
   21180: 81 ff ff b0  	adrp	x1, 0x12000 <_ZNK14ChiFeature2HDR21MergeIFENRMConfigDataEP11ChiMetadataS1_S1_P15ChiFeature2Hinti+0x61c>
   21184: 62 ff ff d0  	adrp	x2, 0xf000 <_ZNK14ChiFeature2HDR21MergeIFENRMConfigDataEP11ChiMetadataS1_S1_P15ChiFeature2Hinti+0x614>
   21188: 65 ff ff 90  	adrp	x5, 0xd000 <_ZNK14ChiFeature2HDR21MergeIFENRMConfigDataEP11ChiMetadataS1_S1_P15ChiFeature2Hinti+0x610>
   211a8: 76 ff ff f0  	adrp	x22, 0x10000 <_ZNK14ChiFeature2HDR21MergeIFENRMConfigDataEP11ChiMetadataS1_S1_P15ChiFeature2Hinti+0x63c>
   211c4: 81 ff ff b0  	adrp	x1, 0x12000 <_ZNK14ChiFeature2HDR21MergeIFENRMConfigDataEP11ChiMetadataS1_S1_P15ChiFeature2Hinti+0x660>
   211cc: 40 ff ff d0  	adrp	x0, 0xb000 <_ZNK14ChiFeature2HDR21MergeIFENRMConfigDataEP11ChiMetadataS1_S1_P15ChiFeature2Hinti+0x64c>
   211d0: 63 ff ff 90  	adrp	x3, 0xd000 <_ZNK14ChiFeature2HDR21MergeIFENRMConfigDataEP11ChiMetadataS1_S1_P15ChiFeature2Hinti+0x658>
   211d4: 85 ff ff b0  	adrp	x5, 0x12000 <_ZNK14ChiFeature2HDR21MergeIFENRMConfigDataEP11ChiMetadataS1_S1_P15ChiFeature2Hinti+0x670>
   211ec: dc 00 00 14  	b	0x2155c <_ZNK14ChiFeature2HDR21MergeIFENRMConfigDataEP11ChiMetadataS1_S1_P15ChiFeature2Hinti+0xa34>
   211f0: 5a ff ff f0  	adrp	x26, 0xc000 <_ZNK14ChiFeature2HDR21MergeIFENRMConfigDataEP11ChiMetadataS1_S1_P15ChiFeature2Hinti+0x674>
   211f4: 7b ff ff 90  	adrp	x27, 0xd000 <_ZNK14ChiFeature2HDR21MergeIFENRMConfigDataEP11ChiMetadataS1_S1_P15ChiFeature2Hinti+0x67c>
   2124c: 23 f6 ff b5  	cbnz	x3, 0x21110 <_ZNK14ChiFeature2HDR21MergeIFENRMConfigDataEP11ChiMetadataS1_S1_P15ChiFeature2Hinti+0x5e8>
   21254: 2e 05 00 36  	tbz	w14, #0, 0x212f8 <_ZNK14ChiFeature2HDR21MergeIFENRMConfigDataEP11ChiMetadataS1_S1_P15ChiFeature2Hinti+0x7d0>
   21258: 0c 01 00 f0  	adrp	x12, 0x44000 <_ZNK14ChiFeature2HDR21MergeIFENRMConfigDataEP11ChiMetadataS1_S1_P15ChiFeature2Hinti+0x7bc>
   21268: 41 02 00 54  	b.ne	0x212b0 <_ZNK14ChiFeature2HDR21MergeIFENRMConfigDataEP11ChiMetadataS1_S1_P15ChiFeature2Hinti+0x788>
   2126c: 7b ff ff f0  	adrp	x27, 0x10000 <_ZNK14ChiFeature2HDR21MergeIFENRMConfigDataEP11ChiMetadataS1_S1_P15ChiFeature2Hinti+0x700>
   21288: 81 ff ff b0  	adrp	x1, 0x12000 <_ZNK14ChiFeature2HDR21MergeIFENRMConfigDataEP11ChiMetadataS1_S1_P15ChiFeature2Hinti+0x724>
   2128c: 42 ff ff f0  	adrp	x2, 0xc000 <_ZNK14ChiFeature2HDR21MergeIFENRMConfigDataEP11ChiMetadataS1_S1_P15ChiFeature2Hinti+0x710>
   21290: 65 ff ff 90  	adrp	x5, 0xd000 <_ZNK14ChiFeature2HDR21MergeIFENRMConfigDataEP11ChiMetadataS1_S1_P15ChiFeature2Hinti+0x718>
   212b0: 79 ff ff f0  	adrp	x25, 0x10000 <_ZNK14ChiFeature2HDR21MergeIFENRMConfigDataEP11ChiMetadataS1_S1_P15ChiFeature2Hinti+0x744>
   212cc: 81 ff ff b0  	adrp	x1, 0x12000 <_ZNK14ChiFeature2HDR21MergeIFENRMConfigDataEP11ChiMetadataS1_S1_P15ChiFeature2Hinti+0x768>
   212d4: 40 ff ff d0  	adrp	x0, 0xb000 <_ZNK14ChiFeature2HDR21MergeIFENRMConfigDataEP11ChiMetadataS1_S1_P15ChiFeature2Hinti+0x754>
   212d8: 63 ff ff 90  	adrp	x3, 0xd000 <_ZNK14ChiFeature2HDR21MergeIFENRMConfigDataEP11ChiMetadataS1_S1_P15ChiFeature2Hinti+0x760>
   212dc: 65 ff ff 90  	adrp	x5, 0xd000 <_ZNK14ChiFeature2HDR21MergeIFENRMConfigDataEP11ChiMetadataS1_S1_P15ChiFeature2Hinti+0x764>
   212f4: b3 83 00 94  	bl	0x421c0 <_ZN6ChiLog9LogSystemEPKcS1_S1_S1_iS1_z@plt>
   212f8: f6 06 00 b4  	cbz	x22, 0x213d4 <_ZNK14ChiFeature2HDR21MergeIFENRMConfigDataEP11ChiMetadataS1_S1_P15ChiFeature2Hinti+0x8ac>
   21300: 41 ff ff f0  	adrp	x1, 0xc000 <_ZNK14ChiFeature2HDR21MergeIFENRMConfigDataEP11ChiMetadataS1_S1_P15ChiFeature2Hinti+0x784>
   21308: 62 ff ff 90  	adrp	x2, 0xd000 <_ZNK14ChiFeature2HDR21MergeIFENRMConfigDataEP11ChiMetadataS1_S1_P15ChiFeature2Hinti+0x790>
   21324: 56 00 00 14  	b	0x2147c <_ZNK14ChiFeature2HDR21MergeIFENRMConfigDataEP11ChiMetadataS1_S1_P15ChiFeature2Hinti+0x954>
   2132c: 6c de 07 36  	tbz	w12, #0, 0x20ef8 <_ZNK14ChiFeature2HDR21MergeIFENRMConfigDataEP11ChiMetadataS1_S1_P15ChiFeature2Hinti+0x3d0>
   21330: 0b 01 00 f0  	adrp	x11, 0x44000 <_ZNK14ChiFeature2HDR21MergeIFENRMConfigDataEP11ChiMetadataS1_S1_P15ChiFeature2Hinti+0x894>
   21340: 41 02 00 54  	b.ne	0x21388 <_ZNK14ChiFeature2HDR21MergeIFENRMConfigDataEP11ChiMetadataS1_S1_P15ChiFeature2Hinti+0x860>
   21344: 76 ff ff f0  	adrp	x22, 0x10000 <_ZNK14ChiFeature2HDR21MergeIFENRMConfigDataEP11ChiMetadataS1_S1_P15ChiFeature2Hinti+0x7d8>
   21360: 81 ff ff b0  	adrp	x1, 0x12000 <_ZNK14ChiFeature2HDR21MergeIFENRMConfigDataEP11ChiMetadataS1_S1_P15ChiFeature2Hinti+0x7fc>
   21364: 62 ff ff 90  	adrp	x2, 0xd000 <_ZNK14ChiFeature2HDR21MergeIFENRMConfigDataEP11ChiMetadataS1_S1_P15ChiFeature2Hinti+0x7ec>
   21368: 65 ff ff 90  	adrp	x5, 0xd000 <_ZNK14ChiFeature2HDR21MergeIFENRMConfigDataEP11ChiMetadataS1_S1_P15ChiFeature2Hinti+0x7f0>
   21388: 79 ff ff f0  	adrp	x25, 0x10000 <_ZNK14ChiFeature2HDR21MergeIFENRMConfigDataEP11ChiMetadataS1_S1_P15ChiFeature2Hinti+0x81c>
   213a4: 81 ff ff b0  	adrp	x1, 0x12000 <_ZNK14ChiFeature2HDR21MergeIFENRMConfigDataEP11ChiMetadataS1_S1_P15ChiFeature2Hinti+0x840>
   213ac: 40 ff ff d0  	adrp	x0, 0xb000 <_ZNK14ChiFeature2HDR21MergeIFENRMConfigDataEP11ChiMetadataS1_S1_P15ChiFeature2Hinti+0x82c>
   213b0: 63 ff ff 90  	adrp	x3, 0xd000 <_ZNK14ChiFeature2HDR21MergeIFENRMConfigDataEP11ChiMetadataS1_S1_P15ChiFeature2Hinti+0x838>
   213b4: 45 ff ff b0  	adrp	x5, 0xa000 <_ZNK14ChiFeature2HDR21MergeIFENRMConfigDataEP11ChiMetadataS1_S1_P15ChiFeature2Hinti+0x830>
   213cc: 7d 83 00 94  	bl	0x421c0 <_ZN6ChiLog9LogSystemEPKcS1_S1_S1_iS1_z@plt>
   213d0: ca fe ff 17  	b	0x20ef8 <_ZNK14ChiFeature2HDR21MergeIFENRMConfigDataEP11ChiMetadataS1_S1_P15ChiFeature2Hinti+0x3d0>
   213d8: 4f 05 08 36  	tbz	w15, #1, 0x21480 <_ZNK14ChiFeature2HDR21MergeIFENRMConfigDataEP11ChiMetadataS1_S1_P15ChiFeature2Hinti+0x958>
   213dc: 0d 01 00 f0  	adrp	x13, 0x44000 <_ZNK14ChiFeature2HDR21MergeIFENRMConfigDataEP11ChiMetadataS1_S1_P15ChiFeature2Hinti+0x940>
   213ec: 41 02 00 54  	b.ne	0x21434 <_ZNK14ChiFeature2HDR21MergeIFENRMConfigDataEP11ChiMetadataS1_S1_P15ChiFeature2Hinti+0x90c>
   213f0: 76 ff ff f0  	adrp	x22, 0x10000 <_ZNK14ChiFeature2HDR21MergeIFENRMConfigDataEP11ChiMetadataS1_S1_P15ChiFeature2Hinti+0x884>
   2140c: 81 ff ff b0  	adrp	x1, 0x12000 <_ZNK14ChiFeature2HDR21MergeIFENRMConfigDataEP11ChiMetadataS1_S1_P15ChiFeature2Hinti+0x8a8>
   21410: 82 ff ff b0  	adrp	x2, 0x12000 <_ZNK14ChiFeature2HDR21MergeIFENRMConfigDataEP11ChiMetadataS1_S1_P15ChiFeature2Hinti+0x8ac>
   21414: 65 ff ff 90  	adrp	x5, 0xd000 <_ZNK14ChiFeature2HDR21MergeIFENRMConfigDataEP11ChiMetadataS1_S1_P15ChiFeature2Hinti+0x89c>
   21434: 7a ff ff f0  	adrp	x26, 0x10000 <_ZNK14ChiFeature2HDR21MergeIFENRMConfigDataEP11ChiMetadataS1_S1_P15ChiFeature2Hinti+0x8c8>
   21450: 41 ff ff f0  	adrp	x1, 0xc000 <_ZNK14ChiFeature2HDR21MergeIFENRMConfigDataEP11ChiMetadataS1_S1_P15ChiFeature2Hinti+0x8d4>
   21458: 60 ff ff d0  	adrp	x0, 0xf000 <_ZNK14ChiFeature2HDR21MergeIFENRMConfigDataEP11ChiMetadataS1_S1_P15ChiFeature2Hinti+0x8e8>
   2145c: 63 ff ff 90  	adrp	x3, 0xd000 <_ZNK14ChiFeature2HDR21MergeIFENRMConfigDataEP11ChiMetadataS1_S1_P15ChiFeature2Hinti+0x8e4>
   21460: 65 ff ff b0  	adrp	x5, 0xe000 <_ZNK14ChiFeature2HDR21MergeIFENRMConfigDataEP11ChiMetadataS1_S1_P15ChiFeature2Hinti+0x8ec>
   21478: 52 83 00 94  	bl	0x421c0 <_ZN6ChiLog9LogSystemEPKcS1_S1_S1_iS1_z@plt>
   21480: d5 01 00 35  	cbnz	w21, 0x214b8 <_ZNK14ChiFeature2HDR21MergeIFENRMConfigDataEP11ChiMetadataS1_S1_P15ChiFeature2Hinti+0x990>
   21484: b8 01 00 b4  	cbz	x24, 0x214b8 <_ZNK14ChiFeature2HDR21MergeIFENRMConfigDataEP11ChiMetadataS1_S1_P15ChiFeature2Hinti+0x990>
   2148c: 41 ff ff f0  	adrp	x1, 0xc000 <_ZNK14ChiFeature2HDR21MergeIFENRMConfigDataEP11ChiMetadataS1_S1_P15ChiFeature2Hinti+0x910>
   21494: 62 ff ff 90  	adrp	x2, 0xd000 <_ZNK14ChiFeature2HDR21MergeIFENRMConfigDataEP11ChiMetadataS1_S1_P15ChiFeature2Hinti+0x91c>
   214b4: c0 fe ff 17  	b	0x20fb4 <_ZNK14ChiFeature2HDR21MergeIFENRMConfigDataEP11ChiMetadataS1_S1_P15ChiFeature2Hinti+0x48c>
   214bc: b0 d7 07 36  	tbz	w16, #0, 0x20fb0 <_ZNK14ChiFeature2HDR21MergeIFENRMConfigDataEP11ChiMetadataS1_S1_P15ChiFeature2Hinti+0x488>
   214c0: 0e 01 00 f0  	adrp	x14, 0x44000 <_ZNK14ChiFeature2HDR21MergeIFENRMConfigDataEP11ChiMetadataS1_S1_P15ChiFeature2Hinti+0xa24>
   214d0: 41 02 00 54  	b.ne	0x21518 <_ZNK14ChiFeature2HDR21MergeIFENRMConfigDataEP11ChiMetadataS1_S1_P15ChiFeature2Hinti+0x9f0>
   214d4: 74 ff ff f0  	adrp	x20, 0x10000 <_ZNK14ChiFeature2HDR21MergeIFENRMConfigDataEP11ChiMetadataS1_S1_P15ChiFeature2Hinti+0x968>
   214f0: 81 ff ff b0  	adrp	x1, 0x12000 <_ZNK14ChiFeature2HDR21MergeIFENRMConfigDataEP11ChiMetadataS1_S1_P15ChiFeature2Hinti+0x98c>
   214f4: 62 ff ff 90  	adrp	x2, 0xd000 <_ZNK14ChiFeature2HDR21MergeIFENRMConfigDataEP11ChiMetadataS1_S1_P15ChiFeature2Hinti+0x97c>
   214f8: 65 ff ff 90  	adrp	x5, 0xd000 <_ZNK14ChiFeature2HDR21MergeIFENRMConfigDataEP11ChiMetadataS1_S1_P15ChiFeature2Hinti+0x980>
   21518: 7b ff ff f0  	adrp	x27, 0x10000 <_ZNK14ChiFeature2HDR21MergeIFENRMConfigDataEP11ChiMetadataS1_S1_P15ChiFeature2Hinti+0x9ac>
   21534: 81 ff ff b0  	adrp	x1, 0x12000 <_ZNK14ChiFeature2HDR21MergeIFENRMConfigDataEP11ChiMetadataS1_S1_P15ChiFeature2Hinti+0x9d0>
   2153c: 40 ff ff d0  	adrp	x0, 0xb000 <_ZNK14ChiFeature2HDR21MergeIFENRMConfigDataEP11ChiMetadataS1_S1_P15ChiFeature2Hinti+0x9bc>
   21540: 63 ff ff 90  	adrp	x3, 0xd000 <_ZNK14ChiFeature2HDR21MergeIFENRMConfigDataEP11ChiMetadataS1_S1_P15ChiFeature2Hinti+0x9c8>
   21544: 45 ff ff b0  	adrp	x5, 0xa000 <_ZNK14ChiFeature2HDR21MergeIFENRMConfigDataEP11ChiMetadataS1_S1_P15ChiFeature2Hinti+0x9c0>
   2155c: 19 83 00 94  	bl	0x421c0 <_ZN6ChiLog9LogSystemEPKcS1_S1_S1_iS1_z@plt>
   21560: 94 fe ff 17  	b	0x20fb0 <_ZNK14ChiFeature2HDR21MergeIFENRMConfigDataEP11ChiMetadataS1_S1_P15ChiFeature2Hinti+0x488>
0000000000021568 <_ZNK14ChiFeature2HDR24QLLMergeBPSNRMConfigDataEP11ChiMetadataS1_S1_23ChiFeature2ExposureType>:
   21588: 1b 01 00 f0  	adrp	x27, 0x44000 <_ZNK14ChiFeature2HDR24QLLMergeBPSNRMConfigDataEP11ChiMetadataS1_S1_23ChiFeature2ExposureType+0xac>
   215a4: c1 03 00 b4  	cbz	x1, 0x2161c <_ZNK14ChiFeature2HDR24QLLMergeBPSNRMConfigDataEP11ChiMetadataS1_S1_23ChiFeature2ExposureType+0xb4>
   215a8: b4 03 00 b4  	cbz	x20, 0x2161c <_ZNK14ChiFeature2HDR24QLLMergeBPSNRMConfigDataEP11ChiMetadataS1_S1_23ChiFeature2ExposureType+0xb4>
   215b8: 46 83 00 94  	bl	0x422d0 <_ZN15ExtensionModule11GetInstanceEv@plt>
   215c8: 40 0e 00 54  	b.eq	0x21790 <_ZNK14ChiFeature2HDR24QLLMergeBPSNRMConfigDataEP11ChiMetadataS1_S1_23ChiFeature2ExposureType+0x228>
   215e4: 01 08 00 54  	b.ne	0x216e4 <_ZNK14ChiFeature2HDR24QLLMergeBPSNRMConfigDataEP11ChiMetadataS1_S1_23ChiFeature2ExposureType+0x17c>
   215ec: 01 08 00 54  	b.ne	0x216ec <_ZNK14ChiFeature2HDR24QLLMergeBPSNRMConfigDataEP11ChiMetadataS1_S1_23ChiFeature2ExposureType+0x184>
   215fc: 81 07 00 54  	b.ne	0x216ec <_ZNK14ChiFeature2HDR24QLLMergeBPSNRMConfigDataEP11ChiMetadataS1_S1_23ChiFeature2ExposureType+0x184>
   21610: 60 07 00 54  	b.eq	0x216fc <_ZNK14ChiFeature2HDR24QLLMergeBPSNRMConfigDataEP11ChiMetadataS1_S1_23ChiFeature2ExposureType+0x194>
   21618: 36 00 00 14  	b	0x216f0 <_ZNK14ChiFeature2HDR24QLLMergeBPSNRMConfigDataEP11ChiMetadataS1_S1_23ChiFeature2ExposureType+0x188>
   21620: 6a 00 00 37  	tbnz	w10, #0, 0x2162c <_ZNK14ChiFeature2HDR24QLLMergeBPSNRMConfigDataEP11ChiMetadataS1_S1_23ChiFeature2ExposureType+0xc4>
   21628: ec 00 00 14  	b	0x219d8 <_ZNK14ChiFeature2HDR24QLLMergeBPSNRMConfigDataEP11ChiMetadataS1_S1_23ChiFeature2ExposureType+0x470>
   2162c: 0b 01 00 f0  	adrp	x11, 0x44000 <_ZNK14ChiFeature2HDR24QLLMergeBPSNRMConfigDataEP11ChiMetadataS1_S1_23ChiFeature2ExposureType+0x150>
   2163c: 81 02 00 54  	b.ne	0x2168c <_ZNK14ChiFeature2HDR24QLLMergeBPSNRMConfigDataEP11ChiMetadataS1_S1_23ChiFeature2ExposureType+0x124>
   21640: 78 ff ff f0  	adrp	x24, 0x10000 <_ZNK14ChiFeature2HDR24QLLMergeBPSNRMConfigDataEP11ChiMetadataS1_S1_23ChiFeature2ExposureType+0x94>
   2165c: 81 ff ff b0  	adrp	x1, 0x12000 <_ZNK14ChiFeature2HDR24QLLMergeBPSNRMConfigDataEP11ChiMetadataS1_S1_23ChiFeature2ExposureType+0xb8>
   21660: 42 ff ff d0  	adrp	x2, 0xb000 <_ZNK14ChiFeature2HDR24QLLMergeBPSNRMConfigDataEP11ChiMetadataS1_S1_23ChiFeature2ExposureType+0xa0>
   21664: 85 ff ff 90  	adrp	x5, 0x11000 <_ZNK14ChiFeature2HDR24QLLMergeBPSNRMConfigDataEP11ChiMetadataS1_S1_23ChiFeature2ExposureType+0xbc>
   2168c: 79 ff ff f0  	adrp	x25, 0x10000 <_ZNK14ChiFeature2HDR24QLLMergeBPSNRMConfigDataEP11ChiMetadataS1_S1_23ChiFeature2ExposureType+0xe0>
   216a8: 81 ff ff b0  	adrp	x1, 0x12000 <_ZNK14ChiFeature2HDR24QLLMergeBPSNRMConfigDataEP11ChiMetadataS1_S1_23ChiFeature2ExposureType+0x104>
   216b0: 40 ff ff d0  	adrp	x0, 0xb000 <_ZNK14ChiFeature2HDR24QLLMergeBPSNRMConfigDataEP11ChiMetadataS1_S1_23ChiFeature2ExposureType+0xf0>
   216b4: 83 ff ff 90  	adrp	x3, 0x11000 <_ZNK14ChiFeature2HDR24QLLMergeBPSNRMConfigDataEP11ChiMetadataS1_S1_23ChiFeature2ExposureType+0x10c>
   216b8: 85 ff ff 90  	adrp	x5, 0x11000 <_ZNK14ChiFeature2HDR24QLLMergeBPSNRMConfigDataEP11ChiMetadataS1_S1_23ChiFeature2ExposureType+0x110>
   216d8: ba 82 00 94  	bl	0x421c0 <_ZN6ChiLog9LogSystemEPKcS1_S1_S1_iS1_z@plt>
   216e0: be 00 00 14  	b	0x219d8 <_ZNK14ChiFeature2HDR24QLLMergeBPSNRMConfigDataEP11ChiMetadataS1_S1_23ChiFeature2ExposureType+0x470>
   216e8: 41 05 00 54  	b.ne	0x21790 <_ZNK14ChiFeature2HDR24QLLMergeBPSNRMConfigDataEP11ChiMetadataS1_S1_23ChiFeature2ExposureType+0x228>
   216f8: c1 04 00 54  	b.ne	0x21790 <_ZNK14ChiFeature2HDR24QLLMergeBPSNRMConfigDataEP11ChiMetadataS1_S1_23ChiFeature2ExposureType+0x228>
   216fc: 56 ff ff b0  	adrp	x22, 0xa000 <_ZNK14ChiFeature2HDR24QLLMergeBPSNRMConfigDataEP11ChiMetadataS1_S1_23ChiFeature2ExposureType+0x138>
   21700: 99 ff ff 90  	adrp	x25, 0x11000 <_ZNK14ChiFeature2HDR24QLLMergeBPSNRMConfigDataEP11ChiMetadataS1_S1_23ChiFeature2ExposureType+0x158>
   21750: 37 07 00 b4  	cbz	x23, 0x21834 <_ZNK14ChiFeature2HDR24QLLMergeBPSNRMConfigDataEP11ChiMetadataS1_S1_23ChiFeature2ExposureType+0x2cc>
   21758: 41 ff ff b0  	adrp	x1, 0xa000 <_ZNK14ChiFeature2HDR24QLLMergeBPSNRMConfigDataEP11ChiMetadataS1_S1_23ChiFeature2ExposureType+0x194>
   21760: 82 ff ff 90  	adrp	x2, 0x11000 <_ZNK14ChiFeature2HDR24QLLMergeBPSNRMConfigDataEP11ChiMetadataS1_S1_23ChiFeature2ExposureType+0x1b8>
   21788: f8 05 00 b5  	cbnz	x24, 0x21844 <_ZNK14ChiFeature2HDR24QLLMergeBPSNRMConfigDataEP11ChiMetadataS1_S1_23ChiFeature2ExposureType+0x2dc>
   2178c: 62 00 00 14  	b	0x21914 <_ZNK14ChiFeature2HDR24QLLMergeBPSNRMConfigDataEP11ChiMetadataS1_S1_23ChiFeature2ExposureType+0x3ac>
   21790: 58 ff ff b0  	adrp	x24, 0xa000 <_ZNK14ChiFeature2HDR24QLLMergeBPSNRMConfigDataEP11ChiMetadataS1_S1_23ChiFeature2ExposureType+0x1cc>
   21794: 99 ff ff 90  	adrp	x25, 0x11000 <_ZNK14ChiFeature2HDR24QLLMergeBPSNRMConfigDataEP11ChiMetadataS1_S1_23ChiFeature2ExposureType+0x1ec>
   217e8: f7 01 00 b4  	cbz	x23, 0x21824 <_ZNK14ChiFeature2HDR24QLLMergeBPSNRMConfigDataEP11ChiMetadataS1_S1_23ChiFeature2ExposureType+0x2bc>
   217f0: 41 ff ff b0  	adrp	x1, 0xa000 <_ZNK14ChiFeature2HDR24QLLMergeBPSNRMConfigDataEP11ChiMetadataS1_S1_23ChiFeature2ExposureType+0x22c>
   217f8: 82 ff ff 90  	adrp	x2, 0x11000 <_ZNK14ChiFeature2HDR24QLLMergeBPSNRMConfigDataEP11ChiMetadataS1_S1_23ChiFeature2ExposureType+0x250>
   2181c: 58 01 00 b5  	cbnz	x24, 0x21844 <_ZNK14ChiFeature2HDR24QLLMergeBPSNRMConfigDataEP11ChiMetadataS1_S1_23ChiFeature2ExposureType+0x2dc>
   21820: 3d 00 00 14  	b	0x21914 <_ZNK14ChiFeature2HDR24QLLMergeBPSNRMConfigDataEP11ChiMetadataS1_S1_23ChiFeature2ExposureType+0x3ac>
   2182c: d8 00 00 b5  	cbnz	x24, 0x21844 <_ZNK14ChiFeature2HDR24QLLMergeBPSNRMConfigDataEP11ChiMetadataS1_S1_23ChiFeature2ExposureType+0x2dc>
   21830: 39 00 00 14  	b	0x21914 <_ZNK14ChiFeature2HDR24QLLMergeBPSNRMConfigDataEP11ChiMetadataS1_S1_23ChiFeature2ExposureType+0x3ac>
   21840: b8 06 00 b4  	cbz	x24, 0x21914 <_ZNK14ChiFeature2HDR24QLLMergeBPSNRMConfigDataEP11ChiMetadataS1_S1_23ChiFeature2ExposureType+0x3ac>
   21844: 96 06 00 b4  	cbz	x22, 0x21914 <_ZNK14ChiFeature2HDR24QLLMergeBPSNRMConfigDataEP11ChiMetadataS1_S1_23ChiFeature2ExposureType+0x3ac>
   21858: 39 13 00 b5  	cbnz	x25, 0x21abc <_ZNK14ChiFeature2HDR24QLLMergeBPSNRMConfigDataEP11ChiMetadataS1_S1_23ChiFeature2ExposureType+0x554>
   21860: ec 12 00 34  	cbz	w12, 0x21abc <_ZNK14ChiFeature2HDR24QLLMergeBPSNRMConfigDataEP11ChiMetadataS1_S1_23ChiFeature2ExposureType+0x554>
   21868: ad 05 00 36  	tbz	w13, #0, 0x2191c <_ZNK14ChiFeature2HDR24QLLMergeBPSNRMConfigDataEP11ChiMetadataS1_S1_23ChiFeature2ExposureType+0x3b4>
   2186c: 10 01 00 f0  	adrp	x16, 0x44000 <_ZNK14ChiFeature2HDR24QLLMergeBPSNRMConfigDataEP11ChiMetadataS1_S1_23ChiFeature2ExposureType+0x390>
   2187c: 41 02 00 54  	b.ne	0x218c4 <_ZNK14ChiFeature2HDR24QLLMergeBPSNRMConfigDataEP11ChiMetadataS1_S1_23ChiFeature2ExposureType+0x35c>
   21880: 76 ff ff f0  	adrp	x22, 0x10000 <_ZNK14ChiFeature2HDR24QLLMergeBPSNRMConfigDataEP11ChiMetadataS1_S1_23ChiFeature2ExposureType+0x2d4>
   2189c: 81 ff ff b0  	adrp	x1, 0x12000 <_ZNK14ChiFeature2HDR24QLLMergeBPSNRMConfigDataEP11ChiMetadataS1_S1_23ChiFeature2ExposureType+0x2f8>
   218a0: 62 ff ff 90  	adrp	x2, 0xd000 <_ZNK14ChiFeature2HDR24QLLMergeBPSNRMConfigDataEP11ChiMetadataS1_S1_23ChiFeature2ExposureType+0x2e8>
   218a4: 85 ff ff 90  	adrp	x5, 0x11000 <_ZNK14ChiFeature2HDR24QLLMergeBPSNRMConfigDataEP11ChiMetadataS1_S1_23ChiFeature2ExposureType+0x2fc>
   218c4: 78 ff ff f0  	adrp	x24, 0x10000 <_ZNK14ChiFeature2HDR24QLLMergeBPSNRMConfigDataEP11ChiMetadataS1_S1_23ChiFeature2ExposureType+0x318>
   218e0: 81 ff ff b0  	adrp	x1, 0x12000 <_ZNK14ChiFeature2HDR24QLLMergeBPSNRMConfigDataEP11ChiMetadataS1_S1_23ChiFeature2ExposureType+0x33c>
   218e8: 40 ff ff d0  	adrp	x0, 0xb000 <_ZNK14ChiFeature2HDR24QLLMergeBPSNRMConfigDataEP11ChiMetadataS1_S1_23ChiFeature2ExposureType+0x328>
   218ec: 83 ff ff 90  	adrp	x3, 0x11000 <_ZNK14ChiFeature2HDR24QLLMergeBPSNRMConfigDataEP11ChiMetadataS1_S1_23ChiFeature2ExposureType+0x344>
   218f0: 45 ff ff d0  	adrp	x5, 0xb000 <_ZNK14ChiFeature2HDR24QLLMergeBPSNRMConfigDataEP11ChiMetadataS1_S1_23ChiFeature2ExposureType+0x330>
   21908: 2e 82 00 94  	bl	0x421c0 <_ZN6ChiLog9LogSystemEPKcS1_S1_S1_iS1_z@plt>
   21910: 32 00 00 14  	b	0x219d8 <_ZNK14ChiFeature2HDR24QLLMergeBPSNRMConfigDataEP11ChiMetadataS1_S1_23ChiFeature2ExposureType+0x470>
   21918: 6b 00 00 37  	tbnz	w11, #0, 0x21924 <_ZNK14ChiFeature2HDR24QLLMergeBPSNRMConfigDataEP11ChiMetadataS1_S1_23ChiFeature2ExposureType+0x3bc>
   21920: 2e 00 00 14  	b	0x219d8 <_ZNK14ChiFeature2HDR24QLLMergeBPSNRMConfigDataEP11ChiMetadataS1_S1_23ChiFeature2ExposureType+0x470>
   21924: 0f 01 00 f0  	adrp	x15, 0x44000 <_ZNK14ChiFeature2HDR24QLLMergeBPSNRMConfigDataEP11ChiMetadataS1_S1_23ChiFeature2ExposureType+0x448>
   21934: 81 02 00 54  	b.ne	0x21984 <_ZNK14ChiFeature2HDR24QLLMergeBPSNRMConfigDataEP11ChiMetadataS1_S1_23ChiFeature2ExposureType+0x41c>
   21938: 79 ff ff f0  	adrp	x25, 0x10000 <_ZNK14ChiFeature2HDR24QLLMergeBPSNRMConfigDataEP11ChiMetadataS1_S1_23ChiFeature2ExposureType+0x38c>
   21954: 81 ff ff b0  	adrp	x1, 0x12000 <_ZNK14ChiFeature2HDR24QLLMergeBPSNRMConfigDataEP11ChiMetadataS1_S1_23ChiFeature2ExposureType+0x3b0>
   21958: 62 ff ff 90  	adrp	x2, 0xd000 <_ZNK14ChiFeature2HDR24QLLMergeBPSNRMConfigDataEP11ChiMetadataS1_S1_23ChiFeature2ExposureType+0x3a0>
   2195c: 85 ff ff 90  	adrp	x5, 0x11000 <_ZNK14ChiFeature2HDR24QLLMergeBPSNRMConfigDataEP11ChiMetadataS1_S1_23ChiFeature2ExposureType+0x3b4>
   21984: 79 ff ff f0  	adrp	x25, 0x10000 <_ZNK14ChiFeature2HDR24QLLMergeBPSNRMConfigDataEP11ChiMetadataS1_S1_23ChiFeature2ExposureType+0x3d8>
   219a0: 81 ff ff b0  	adrp	x1, 0x12000 <_ZNK14ChiFeature2HDR24QLLMergeBPSNRMConfigDataEP11ChiMetadataS1_S1_23ChiFeature2ExposureType+0x3fc>
   219a8: 40 ff ff d0  	adrp	x0, 0xb000 <_ZNK14ChiFeature2HDR24QLLMergeBPSNRMConfigDataEP11ChiMetadataS1_S1_23ChiFeature2ExposureType+0x3e8>
   219ac: 83 ff ff 90  	adrp	x3, 0x11000 <_ZNK14ChiFeature2HDR24QLLMergeBPSNRMConfigDataEP11ChiMetadataS1_S1_23ChiFeature2ExposureType+0x404>
   219b0: 45 ff ff f0  	adrp	x5, 0xc000 <_ZNK14ChiFeature2HDR24QLLMergeBPSNRMConfigDataEP11ChiMetadataS1_S1_23ChiFeature2ExposureType+0x3f4>
   219d0: fc 81 00 94  	bl	0x421c0 <_ZN6ChiLog9LogSystemEPKcS1_S1_S1_iS1_z@plt>
   219dc: 66 05 18 36  	tbz	w6, #3, 0x21a88 <_ZNK14ChiFeature2HDR24QLLMergeBPSNRMConfigDataEP11ChiMetadataS1_S1_23ChiFeature2ExposureType+0x520>
   219e0: 14 01 00 f0  	adrp	x20, 0x44000 <_ZNK14ChiFeature2HDR24QLLMergeBPSNRMConfigDataEP11ChiMetadataS1_S1_23ChiFeature2ExposureType+0x504>
   219f0: 61 02 00 54  	b.ne	0x21a3c <_ZNK14ChiFeature2HDR24QLLMergeBPSNRMConfigDataEP11ChiMetadataS1_S1_23ChiFeature2ExposureType+0x4d4>
   219f4: 78 ff ff f0  	adrp	x24, 0x10000 <_ZNK14ChiFeature2HDR24QLLMergeBPSNRMConfigDataEP11ChiMetadataS1_S1_23ChiFeature2ExposureType+0x448>
   21a10: 81 ff ff b0  	adrp	x1, 0x12000 <_ZNK14ChiFeature2HDR24QLLMergeBPSNRMConfigDataEP11ChiMetadataS1_S1_23ChiFeature2ExposureType+0x46c>
   21a14: 62 ff ff d0  	adrp	x2, 0xf000 <_ZNK14ChiFeature2HDR24QLLMergeBPSNRMConfigDataEP11ChiMetadataS1_S1_23ChiFeature2ExposureType+0x464>
   21a18: 85 ff ff 90  	adrp	x5, 0x11000 <_ZNK14ChiFeature2HDR24QLLMergeBPSNRMConfigDataEP11ChiMetadataS1_S1_23ChiFeature2ExposureType+0x470>
   21a3c: 79 ff ff f0  	adrp	x25, 0x10000 <_ZNK14ChiFeature2HDR24QLLMergeBPSNRMConfigDataEP11ChiMetadataS1_S1_23ChiFeature2ExposureType+0x490>
   21a58: 61 ff ff b0  	adrp	x1, 0xe000 <_ZNK14ChiFeature2HDR24QLLMergeBPSNRMConfigDataEP11ChiMetadataS1_S1_23ChiFeature2ExposureType+0x4a4>
   21a60: 80 ff ff b0  	adrp	x0, 0x12000 <_ZNK14ChiFeature2HDR24QLLMergeBPSNRMConfigDataEP11ChiMetadataS1_S1_23ChiFeature2ExposureType+0x4bc>
   21a64: 83 ff ff 90  	adrp	x3, 0x11000 <_ZNK14ChiFeature2HDR24QLLMergeBPSNRMConfigDataEP11ChiMetadataS1_S1_23ChiFeature2ExposureType+0x4bc>
   21a68: 85 ff ff 90  	adrp	x5, 0x11000 <_ZNK14ChiFeature2HDR24QLLMergeBPSNRMConfigDataEP11ChiMetadataS1_S1_23ChiFeature2ExposureType+0x4c0>
   21a84: cf 81 00 94  	bl	0x421c0 <_ZN6ChiLog9LogSystemEPKcS1_S1_S1_iS1_z@plt>
   21a94: a1 38 00 54  	b.ne	0x221a8 <_ZNK14ChiFeature2HDR24QLLMergeBPSNRMConfigDataEP11ChiMetadataS1_S1_23ChiFeature2ExposureType+0xc40>
   21ac0: a0 0e 00 54  	b.eq	0x21c94 <_ZNK14ChiFeature2HDR24QLLMergeBPSNRMConfigDataEP11ChiMetadataS1_S1_23ChiFeature2ExposureType+0x72c>
   21ac8: 60 07 00 54  	b.eq	0x21bb4 <_ZNK14ChiFeature2HDR24QLLMergeBPSNRMConfigDataEP11ChiMetadataS1_S1_23ChiFeature2ExposureType+0x64c>
   21ad0: 21 15 00 54  	b.ne	0x21d74 <_ZNK14ChiFeature2HDR24QLLMergeBPSNRMConfigDataEP11ChiMetadataS1_S1_23ChiFeature2ExposureType+0x80c>
   21ad8: 41 ff ff b0  	adrp	x1, 0xa000 <_ZNK14ChiFeature2HDR24QLLMergeBPSNRMConfigDataEP11ChiMetadataS1_S1_23ChiFeature2ExposureType+0x514>
   21ae0: 82 ff ff 90  	adrp	x2, 0x11000 <_ZNK14ChiFeature2HDR24QLLMergeBPSNRMConfigDataEP11ChiMetadataS1_S1_23ChiFeature2ExposureType+0x538>
   21af8: 61 19 00 54  	b.ne	0x21e24 <_ZNK14ChiFeature2HDR24QLLMergeBPSNRMConfigDataEP11ChiMetadataS1_S1_23ChiFeature2ExposureType+0x8bc>
   21b04: 00 26 00 34  	cbz	w0, 0x21fc4 <_ZNK14ChiFeature2HDR24QLLMergeBPSNRMConfigDataEP11ChiMetadataS1_S1_23ChiFeature2ExposureType+0xa5c>
   21b10: 4e f6 07 36  	tbz	w14, #0, 0x219d8 <_ZNK14ChiFeature2HDR24QLLMergeBPSNRMConfigDataEP11ChiMetadataS1_S1_23ChiFeature2ExposureType+0x470>
   21b14: 11 01 00 f0  	adrp	x17, 0x44000 <_ZNK14ChiFeature2HDR24QLLMergeBPSNRMConfigDataEP11ChiMetadataS1_S1_23ChiFeature2ExposureType+0x638>
   21b24: 41 02 00 54  	b.ne	0x21b6c <_ZNK14ChiFeature2HDR24QLLMergeBPSNRMConfigDataEP11ChiMetadataS1_S1_23ChiFeature2ExposureType+0x604>
   21b28: 79 ff ff f0  	adrp	x25, 0x10000 <_ZNK14ChiFeature2HDR24QLLMergeBPSNRMConfigDataEP11ChiMetadataS1_S1_23ChiFeature2ExposureType+0x57c>
   21b44: 81 ff ff b0  	adrp	x1, 0x12000 <_ZNK14ChiFeature2HDR24QLLMergeBPSNRMConfigDataEP11ChiMetadataS1_S1_23ChiFeature2ExposureType+0x5a0>
   21b48: 62 ff ff 90  	adrp	x2, 0xd000 <_ZNK14ChiFeature2HDR24QLLMergeBPSNRMConfigDataEP11ChiMetadataS1_S1_23ChiFeature2ExposureType+0x590>
   21b4c: 85 ff ff 90  	adrp	x5, 0x11000 <_ZNK14ChiFeature2HDR24QLLMergeBPSNRMConfigDataEP11ChiMetadataS1_S1_23ChiFeature2ExposureType+0x5a4>
   21b6c: 76 ff ff f0  	adrp	x22, 0x10000 <_ZNK14ChiFeature2HDR24QLLMergeBPSNRMConfigDataEP11ChiMetadataS1_S1_23ChiFeature2ExposureType+0x5c0>
   21b88: 81 ff ff b0  	adrp	x1, 0x12000 <_ZNK14ChiFeature2HDR24QLLMergeBPSNRMConfigDataEP11ChiMetadataS1_S1_23ChiFeature2ExposureType+0x5e4>
   21b90: 40 ff ff d0  	adrp	x0, 0xb000 <_ZNK14ChiFeature2HDR24QLLMergeBPSNRMConfigDataEP11ChiMetadataS1_S1_23ChiFeature2ExposureType+0x5d0>
   21b94: 83 ff ff 90  	adrp	x3, 0x11000 <_ZNK14ChiFeature2HDR24QLLMergeBPSNRMConfigDataEP11ChiMetadataS1_S1_23ChiFeature2ExposureType+0x5ec>
   21b98: 85 ff ff 90  	adrp	x5, 0x11000 <_ZNK14ChiFeature2HDR24QLLMergeBPSNRMConfigDataEP11ChiMetadataS1_S1_23ChiFeature2ExposureType+0x5f0>
   21bb0: 7c 01 00 14  	b	0x221a0 <_ZNK14ChiFeature2HDR24QLLMergeBPSNRMConfigDataEP11ChiMetadataS1_S1_23ChiFeature2ExposureType+0xc38>
   21bb8: 41 ff ff b0  	adrp	x1, 0xa000 <_ZNK14ChiFeature2HDR24QLLMergeBPSNRMConfigDataEP11ChiMetadataS1_S1_23ChiFeature2ExposureType+0x5f4>
   21bc0: 82 ff ff 90  	adrp	x2, 0x11000 <_ZNK14ChiFeature2HDR24QLLMergeBPSNRMConfigDataEP11ChiMetadataS1_S1_23ChiFeature2ExposureType+0x618>
   21be4: a1 ef ff 54  	b.ne	0x219d8 <_ZNK14ChiFeature2HDR24QLLMergeBPSNRMConfigDataEP11ChiMetadataS1_S1_23ChiFeature2ExposureType+0x470>
   21be8: 33 18 00 34  	cbz	w19, 0x21eec <_ZNK14ChiFeature2HDR24QLLMergeBPSNRMConfigDataEP11ChiMetadataS1_S1_23ChiFeature2ExposureType+0x984>
   21bf0: 51 ef 07 36  	tbz	w17, #0, 0x219d8 <_ZNK14ChiFeature2HDR24QLLMergeBPSNRMConfigDataEP11ChiMetadataS1_S1_23ChiFeature2ExposureType+0x470>
   21bf4: 03 01 00 f0  	adrp	x3, 0x44000 <_ZNK14ChiFeature2HDR24QLLMergeBPSNRMConfigDataEP11ChiMetadataS1_S1_23ChiFeature2ExposureType+0x718>
   21c04: 41 02 00 54  	b.ne	0x21c4c <_ZNK14ChiFeature2HDR24QLLMergeBPSNRMConfigDataEP11ChiMetadataS1_S1_23ChiFeature2ExposureType+0x6e4>
   21c08: 79 ff ff f0  	adrp	x25, 0x10000 <_ZNK14ChiFeature2HDR24QLLMergeBPSNRMConfigDataEP11ChiMetadataS1_S1_23ChiFeature2ExposureType+0x65c>
   21c24: 81 ff ff b0  	adrp	x1, 0x12000 <_ZNK14ChiFeature2HDR24QLLMergeBPSNRMConfigDataEP11ChiMetadataS1_S1_23ChiFeature2ExposureType+0x680>
   21c28: 62 ff ff b0  	adrp	x2, 0xe000 <_ZNK14ChiFeature2HDR24QLLMergeBPSNRMConfigDataEP11ChiMetadataS1_S1_23ChiFeature2ExposureType+0x674>
   21c2c: 85 ff ff 90  	adrp	x5, 0x11000 <_ZNK14ChiFeature2HDR24QLLMergeBPSNRMConfigDataEP11ChiMetadataS1_S1_23ChiFeature2ExposureType+0x684>
   21c4c: 76 ff ff f0  	adrp	x22, 0x10000 <_ZNK14ChiFeature2HDR24QLLMergeBPSNRMConfigDataEP11ChiMetadataS1_S1_23ChiFeature2ExposureType+0x6a0>
   21c68: 81 ff ff b0  	adrp	x1, 0x12000 <_ZNK14ChiFeature2HDR24QLLMergeBPSNRMConfigDataEP11ChiMetadataS1_S1_23ChiFeature2ExposureType+0x6c4>
   21c70: 40 ff ff d0  	adrp	x0, 0xb000 <_ZNK14ChiFeature2HDR24QLLMergeBPSNRMConfigDataEP11ChiMetadataS1_S1_23ChiFeature2ExposureType+0x6b0>
   21c74: 83 ff ff 90  	adrp	x3, 0x11000 <_ZNK14ChiFeature2HDR24QLLMergeBPSNRMConfigDataEP11ChiMetadataS1_S1_23ChiFeature2ExposureType+0x6cc>
   21c78: 45 ff ff f0  	adrp	x5, 0xc000 <_ZNK14ChiFeature2HDR24QLLMergeBPSNRMConfigDataEP11ChiMetadataS1_S1_23ChiFeature2ExposureType+0x6bc>
   21c90: 44 01 00 14  	b	0x221a0 <_ZNK14ChiFeature2HDR24QLLMergeBPSNRMConfigDataEP11ChiMetadataS1_S1_23ChiFeature2ExposureType+0xc38>
   21c98: e1 0c 00 54  	b.ne	0x21e34 <_ZNK14ChiFeature2HDR24QLLMergeBPSNRMConfigDataEP11ChiMetadataS1_S1_23ChiFeature2ExposureType+0x8cc>
   21ca0: 41 ff ff b0  	adrp	x1, 0xa000 <_ZNK14ChiFeature2HDR24QLLMergeBPSNRMConfigDataEP11ChiMetadataS1_S1_23ChiFeature2ExposureType+0x6dc>
   21ca8: 82 ff ff 90  	adrp	x2, 0x11000 <_ZNK14ChiFeature2HDR24QLLMergeBPSNRMConfigDataEP11ChiMetadataS1_S1_23ChiFeature2ExposureType+0x700>
   21cc4: 80 19 00 34  	cbz	w0, 0x21ff4 <_ZNK14ChiFeature2HDR24QLLMergeBPSNRMConfigDataEP11ChiMetadataS1_S1_23ChiFeature2ExposureType+0xa8c>
   21cd0: 42 e8 07 36  	tbz	w2, #0, 0x219d8 <_ZNK14ChiFeature2HDR24QLLMergeBPSNRMConfigDataEP11ChiMetadataS1_S1_23ChiFeature2ExposureType+0x470>
   21cd4: 05 01 00 f0  	adrp	x5, 0x44000 <_ZNK14ChiFeature2HDR24QLLMergeBPSNRMConfigDataEP11ChiMetadataS1_S1_23ChiFeature2ExposureType+0x7f8>
   21ce4: 41 02 00 54  	b.ne	0x21d2c <_ZNK14ChiFeature2HDR24QLLMergeBPSNRMConfigDataEP11ChiMetadataS1_S1_23ChiFeature2ExposureType+0x7c4>
   21ce8: 76 ff ff f0  	adrp	x22, 0x10000 <_ZNK14ChiFeature2HDR24QLLMergeBPSNRMConfigDataEP11ChiMetadataS1_S1_23ChiFeature2ExposureType+0x73c>
   21d04: 81 ff ff b0  	adrp	x1, 0x12000 <_ZNK14ChiFeature2HDR24QLLMergeBPSNRMConfigDataEP11ChiMetadataS1_S1_23ChiFeature2ExposureType+0x760>
   21d08: 62 ff ff 90  	adrp	x2, 0xd000 <_ZNK14ChiFeature2HDR24QLLMergeBPSNRMConfigDataEP11ChiMetadataS1_S1_23ChiFeature2ExposureType+0x750>
   21d0c: 85 ff ff 90  	adrp	x5, 0x11000 <_ZNK14ChiFeature2HDR24QLLMergeBPSNRMConfigDataEP11ChiMetadataS1_S1_23ChiFeature2ExposureType+0x764>
   21d2c: 78 ff ff f0  	adrp	x24, 0x10000 <_ZNK14ChiFeature2HDR24QLLMergeBPSNRMConfigDataEP11ChiMetadataS1_S1_23ChiFeature2ExposureType+0x780>
   21d48: 81 ff ff b0  	adrp	x1, 0x12000 <_ZNK14ChiFeature2HDR24QLLMergeBPSNRMConfigDataEP11ChiMetadataS1_S1_23ChiFeature2ExposureType+0x7a4>
   21d50: 40 ff ff d0  	adrp	x0, 0xb000 <_ZNK14ChiFeature2HDR24QLLMergeBPSNRMConfigDataEP11ChiMetadataS1_S1_23ChiFeature2ExposureType+0x790>
   21d54: 83 ff ff 90  	adrp	x3, 0x11000 <_ZNK14ChiFeature2HDR24QLLMergeBPSNRMConfigDataEP11ChiMetadataS1_S1_23ChiFeature2ExposureType+0x7ac>
   21d58: 65 ff ff 90  	adrp	x5, 0xd000 <_ZNK14ChiFeature2HDR24QLLMergeBPSNRMConfigDataEP11ChiMetadataS1_S1_23ChiFeature2ExposureType+0x7a0>
   21d70: 0c 01 00 14  	b	0x221a0 <_ZNK14ChiFeature2HDR24QLLMergeBPSNRMConfigDataEP11ChiMetadataS1_S1_23ChiFeature2ExposureType+0xc38>
   21d78: 25 05 00 36  	tbz	w5, #0, 0x21e1c <_ZNK14ChiFeature2HDR24QLLMergeBPSNRMConfigDataEP11ChiMetadataS1_S1_23ChiFeature2ExposureType+0x8b4>
   21d7c: 07 01 00 f0  	adrp	x7, 0x44000 <_ZNK14ChiFeature2HDR24QLLMergeBPSNRMConfigDataEP11ChiMetadataS1_S1_23ChiFeature2ExposureType+0x8a0>
   21d80: 76 ff ff f0  	adrp	x22, 0x10000 <_ZNK14ChiFeature2HDR24QLLMergeBPSNRMConfigDataEP11ChiMetadataS1_S1_23ChiFeature2ExposureType+0x7d4>
   21d94: 21 02 00 54  	b.ne	0x21dd8 <_ZNK14ChiFeature2HDR24QLLMergeBPSNRMConfigDataEP11ChiMetadataS1_S1_23ChiFeature2ExposureType+0x870>
   21dac: 81 ff ff b0  	adrp	x1, 0x12000 <_ZNK14ChiFeature2HDR24QLLMergeBPSNRMConfigDataEP11ChiMetadataS1_S1_23ChiFeature2ExposureType+0x808>
   21db0: 42 ff ff f0  	adrp	x2, 0xc000 <_ZNK14ChiFeature2HDR24QLLMergeBPSNRMConfigDataEP11ChiMetadataS1_S1_23ChiFeature2ExposureType+0x7f4>
   21db4: 85 ff ff 90  	adrp	x5, 0x11000 <_ZNK14ChiFeature2HDR24QLLMergeBPSNRMConfigDataEP11ChiMetadataS1_S1_23ChiFeature2ExposureType+0x80c>
   21dec: 81 ff ff b0  	adrp	x1, 0x12000 <_ZNK14ChiFeature2HDR24QLLMergeBPSNRMConfigDataEP11ChiMetadataS1_S1_23ChiFeature2ExposureType+0x848>
   21df4: 40 ff ff d0  	adrp	x0, 0xb000 <_ZNK14ChiFeature2HDR24QLLMergeBPSNRMConfigDataEP11ChiMetadataS1_S1_23ChiFeature2ExposureType+0x834>
   21df8: 83 ff ff 90  	adrp	x3, 0x11000 <_ZNK14ChiFeature2HDR24QLLMergeBPSNRMConfigDataEP11ChiMetadataS1_S1_23ChiFeature2ExposureType+0x850>
   21dfc: 65 ff ff f0  	adrp	x5, 0x10000 <_ZNK14ChiFeature2HDR24QLLMergeBPSNRMConfigDataEP11ChiMetadataS1_S1_23ChiFeature2ExposureType+0x850>
   21e18: ea 80 00 94  	bl	0x421c0 <_ZN6ChiLog9LogSystemEPKcS1_S1_S1_iS1_z@plt>
   21e20: ee fe ff 17  	b	0x219d8 <_ZNK14ChiFeature2HDR24QLLMergeBPSNRMConfigDataEP11ChiMetadataS1_S1_23ChiFeature2ExposureType+0x470>
   21e30: ea fe ff 17  	b	0x219d8 <_ZNK14ChiFeature2HDR24QLLMergeBPSNRMConfigDataEP11ChiMetadataS1_S1_23ChiFeature2ExposureType+0x470>
   21e38: 63 00 00 37  	tbnz	w3, #0, 0x21e44 <_ZNK14ChiFeature2HDR24QLLMergeBPSNRMConfigDataEP11ChiMetadataS1_S1_23ChiFeature2ExposureType+0x8dc>
   21e40: e6 fe ff 17  	b	0x219d8 <_ZNK14ChiFeature2HDR24QLLMergeBPSNRMConfigDataEP11ChiMetadataS1_S1_23ChiFeature2ExposureType+0x470>
   21e44: 06 01 00 f0  	adrp	x6, 0x44000 <_ZNK14ChiFeature2HDR24QLLMergeBPSNRMConfigDataEP11ChiMetadataS1_S1_23ChiFeature2ExposureType+0x968>
   21e54: 41 02 00 54  	b.ne	0x21e9c <_ZNK14ChiFeature2HDR24QLLMergeBPSNRMConfigDataEP11ChiMetadataS1_S1_23ChiFeature2ExposureType+0x934>
   21e58: 79 ff ff f0  	adrp	x25, 0x10000 <_ZNK14ChiFeature2HDR24QLLMergeBPSNRMConfigDataEP11ChiMetadataS1_S1_23ChiFeature2ExposureType+0x8ac>
   21e74: 81 ff ff b0  	adrp	x1, 0x12000 <_ZNK14ChiFeature2HDR24QLLMergeBPSNRMConfigDataEP11ChiMetadataS1_S1_23ChiFeature2ExposureType+0x8d0>
   21e78: 42 ff ff f0  	adrp	x2, 0xc000 <_ZNK14ChiFeature2HDR24QLLMergeBPSNRMConfigDataEP11ChiMetadataS1_S1_23ChiFeature2ExposureType+0x8bc>
   21e7c: 85 ff ff 90  	adrp	x5, 0x11000 <_ZNK14ChiFeature2HDR24QLLMergeBPSNRMConfigDataEP11ChiMetadataS1_S1_23ChiFeature2ExposureType+0x8d4>
   21e9c: 76 ff ff f0  	adrp	x22, 0x10000 <_ZNK14ChiFeature2HDR24QLLMergeBPSNRMConfigDataEP11ChiMetadataS1_S1_23ChiFeature2ExposureType+0x8f0>
   21eb8: 81 ff ff b0  	adrp	x1, 0x12000 <_ZNK14ChiFeature2HDR24QLLMergeBPSNRMConfigDataEP11ChiMetadataS1_S1_23ChiFeature2ExposureType+0x914>
   21ec0: 40 ff ff d0  	adrp	x0, 0xb000 <_ZNK14ChiFeature2HDR24QLLMergeBPSNRMConfigDataEP11ChiMetadataS1_S1_23ChiFeature2ExposureType+0x900>
   21ec4: 83 ff ff 90  	adrp	x3, 0x11000 <_ZNK14ChiFeature2HDR24QLLMergeBPSNRMConfigDataEP11ChiMetadataS1_S1_23ChiFeature2ExposureType+0x91c>
   21ec8: 85 ff ff 90  	adrp	x5, 0x11000 <_ZNK14ChiFeature2HDR24QLLMergeBPSNRMConfigDataEP11ChiMetadataS1_S1_23ChiFeature2ExposureType+0x920>
   21ee0: b8 80 00 94  	bl	0x421c0 <_ZN6ChiLog9LogSystemEPKcS1_S1_S1_iS1_z@plt>
   21ee8: bc fe ff 17  	b	0x219d8 <_ZNK14ChiFeature2HDR24QLLMergeBPSNRMConfigDataEP11ChiMetadataS1_S1_23ChiFeature2ExposureType+0x470>
   21ef0: 41 ff ff b0  	adrp	x1, 0xa000 <_ZNK14ChiFeature2HDR24QLLMergeBPSNRMConfigDataEP11ChiMetadataS1_S1_23ChiFeature2ExposureType+0x92c>
   21ef8: 82 ff ff 90  	adrp	x2, 0x11000 <_ZNK14ChiFeature2HDR24QLLMergeBPSNRMConfigDataEP11ChiMetadataS1_S1_23ChiFeature2ExposureType+0x950>
   21f14: c0 0d 00 34  	cbz	w0, 0x220cc <_ZNK14ChiFeature2HDR24QLLMergeBPSNRMConfigDataEP11ChiMetadataS1_S1_23ChiFeature2ExposureType+0xb64>
   21f20: d0 d5 07 36  	tbz	w16, #0, 0x219d8 <_ZNK14ChiFeature2HDR24QLLMergeBPSNRMConfigDataEP11ChiMetadataS1_S1_23ChiFeature2ExposureType+0x470>
   21f24: 02 01 00 f0  	adrp	x2, 0x44000 <_ZNK14ChiFeature2HDR24QLLMergeBPSNRMConfigDataEP11ChiMetadataS1_S1_23ChiFeature2ExposureType+0xa48>
   21f34: 41 02 00 54  	b.ne	0x21f7c <_ZNK14ChiFeature2HDR24QLLMergeBPSNRMConfigDataEP11ChiMetadataS1_S1_23ChiFeature2ExposureType+0xa14>
   21f38: 76 ff ff f0  	adrp	x22, 0x10000 <_ZNK14ChiFeature2HDR24QLLMergeBPSNRMConfigDataEP11ChiMetadataS1_S1_23ChiFeature2ExposureType+0x98c>
   21f54: 81 ff ff b0  	adrp	x1, 0x12000 <_ZNK14ChiFeature2HDR24QLLMergeBPSNRMConfigDataEP11ChiMetadataS1_S1_23ChiFeature2ExposureType+0x9b0>
   21f58: 82 ff ff b0  	adrp	x2, 0x12000 <_ZNK14ChiFeature2HDR24QLLMergeBPSNRMConfigDataEP11ChiMetadataS1_S1_23ChiFeature2ExposureType+0x9b4>
   21f5c: 85 ff ff 90  	adrp	x5, 0x11000 <_ZNK14ChiFeature2HDR24QLLMergeBPSNRMConfigDataEP11ChiMetadataS1_S1_23ChiFeature2ExposureType+0x9b4>
   21f7c: 78 ff ff f0  	adrp	x24, 0x10000 <_ZNK14ChiFeature2HDR24QLLMergeBPSNRMConfigDataEP11ChiMetadataS1_S1_23ChiFeature2ExposureType+0x9d0>
   21f98: 81 ff ff b0  	adrp	x1, 0x12000 <_ZNK14ChiFeature2HDR24QLLMergeBPSNRMConfigDataEP11ChiMetadataS1_S1_23ChiFeature2ExposureType+0x9f4>
   21fa0: 40 ff ff d0  	adrp	x0, 0xb000 <_ZNK14ChiFeature2HDR24QLLMergeBPSNRMConfigDataEP11ChiMetadataS1_S1_23ChiFeature2ExposureType+0x9e0>
   21fa4: 83 ff ff 90  	adrp	x3, 0x11000 <_ZNK14ChiFeature2HDR24QLLMergeBPSNRMConfigDataEP11ChiMetadataS1_S1_23ChiFeature2ExposureType+0x9fc>
   21fa8: 85 ff ff b0  	adrp	x5, 0x12000 <_ZNK14ChiFeature2HDR24QLLMergeBPSNRMConfigDataEP11ChiMetadataS1_S1_23ChiFeature2ExposureType+0xa04>
   21fc0: 78 00 00 14  	b	0x221a0 <_ZNK14ChiFeature2HDR24QLLMergeBPSNRMConfigDataEP11ChiMetadataS1_S1_23ChiFeature2ExposureType+0xc38>
   21fc8: 41 ff ff b0  	adrp	x1, 0xa000 <_ZNK14ChiFeature2HDR24QLLMergeBPSNRMConfigDataEP11ChiMetadataS1_S1_23ChiFeature2ExposureType+0xa04>
   21fd0: 82 ff ff 90  	adrp	x2, 0x11000 <_ZNK14ChiFeature2HDR24QLLMergeBPSNRMConfigDataEP11ChiMetadataS1_S1_23ChiFeature2ExposureType+0xa28>
   21ff0: 7a fe ff 17  	b	0x219d8 <_ZNK14ChiFeature2HDR24QLLMergeBPSNRMConfigDataEP11ChiMetadataS1_S1_23ChiFeature2ExposureType+0x470>
   21ff8: 41 ff ff b0  	adrp	x1, 0xa000 <_ZNK14ChiFeature2HDR24QLLMergeBPSNRMConfigDataEP11ChiMetadataS1_S1_23ChiFeature2ExposureType+0xa34>
   22000: 62 ff ff f0  	adrp	x2, 0x11000 <_ZNK14ChiFeature2HDR24QLLMergeBPSNRMConfigDataEP11ChiMetadataS1_S1_23ChiFeature2ExposureType+0xa54>
   22020: c0 cd ff 34  	cbz	w0, 0x219d8 <_ZNK14ChiFeature2HDR24QLLMergeBPSNRMConfigDataEP11ChiMetadataS1_S1_23ChiFeature2ExposureType+0x470>
   22028: 80 cd 07 36  	tbz	w0, #0, 0x219d8 <_ZNK14ChiFeature2HDR24QLLMergeBPSNRMConfigDataEP11ChiMetadataS1_S1_23ChiFeature2ExposureType+0x470>
   2202c: 04 01 00 d0  	adrp	x4, 0x44000 <_ZNK14ChiFeature2HDR24QLLMergeBPSNRMConfigDataEP11ChiMetadataS1_S1_23ChiFeature2ExposureType+0xb4c>
   2203c: 41 02 00 54  	b.ne	0x22084 <_ZNK14ChiFeature2HDR24QLLMergeBPSNRMConfigDataEP11ChiMetadataS1_S1_23ChiFeature2ExposureType+0xb1c>
   22040: 78 ff ff d0  	adrp	x24, 0x10000 <_ZNK14ChiFeature2HDR24QLLMergeBPSNRMConfigDataEP11ChiMetadataS1_S1_23ChiFeature2ExposureType+0xa90>
   2205c: 81 ff ff 90  	adrp	x1, 0x12000 <_ZNK14ChiFeature2HDR24QLLMergeBPSNRMConfigDataEP11ChiMetadataS1_S1_23ChiFeature2ExposureType+0xab4>
   22060: 62 ff ff 90  	adrp	x2, 0xe000 <_ZNK14ChiFeature2HDR24QLLMergeBPSNRMConfigDataEP11ChiMetadataS1_S1_23ChiFeature2ExposureType+0xaa8>
   22064: 65 ff ff f0  	adrp	x5, 0x11000 <_ZNK14ChiFeature2HDR24QLLMergeBPSNRMConfigDataEP11ChiMetadataS1_S1_23ChiFeature2ExposureType+0xab8>
   22084: 79 ff ff d0  	adrp	x25, 0x10000 <_ZNK14ChiFeature2HDR24QLLMergeBPSNRMConfigDataEP11ChiMetadataS1_S1_23ChiFeature2ExposureType+0xad4>
   220a0: 81 ff ff 90  	adrp	x1, 0x12000 <_ZNK14ChiFeature2HDR24QLLMergeBPSNRMConfigDataEP11ChiMetadataS1_S1_23ChiFeature2ExposureType+0xaf8>
   220a8: 40 ff ff b0  	adrp	x0, 0xb000 <_ZNK14ChiFeature2HDR24QLLMergeBPSNRMConfigDataEP11ChiMetadataS1_S1_23ChiFeature2ExposureType+0xae4>
   220ac: 63 ff ff f0  	adrp	x3, 0x11000 <_ZNK14ChiFeature2HDR24QLLMergeBPSNRMConfigDataEP11ChiMetadataS1_S1_23ChiFeature2ExposureType+0xb00>
   220b0: 65 ff ff f0  	adrp	x5, 0x11000 <_ZNK14ChiFeature2HDR24QLLMergeBPSNRMConfigDataEP11ChiMetadataS1_S1_23ChiFeature2ExposureType+0xb04>
   220c8: 36 00 00 14  	b	0x221a0 <_ZNK14ChiFeature2HDR24QLLMergeBPSNRMConfigDataEP11ChiMetadataS1_S1_23ChiFeature2ExposureType+0xc38>
   220d0: 41 ff ff 90  	adrp	x1, 0xa000 <_ZNK14ChiFeature2HDR24QLLMergeBPSNRMConfigDataEP11ChiMetadataS1_S1_23ChiFeature2ExposureType+0xb08>
   220d8: 62 ff ff f0  	adrp	x2, 0x11000 <_ZNK14ChiFeature2HDR24QLLMergeBPSNRMConfigDataEP11ChiMetadataS1_S1_23ChiFeature2ExposureType+0xb2c>
   220f8: 00 c7 ff 34  	cbz	w0, 0x219d8 <_ZNK14ChiFeature2HDR24QLLMergeBPSNRMConfigDataEP11ChiMetadataS1_S1_23ChiFeature2ExposureType+0x470>
   22100: cf c6 07 36  	tbz	w15, #0, 0x219d8 <_ZNK14ChiFeature2HDR24QLLMergeBPSNRMConfigDataEP11ChiMetadataS1_S1_23ChiFeature2ExposureType+0x470>
   22104: 01 01 00 d0  	adrp	x1, 0x44000 <_ZNK14ChiFeature2HDR24QLLMergeBPSNRMConfigDataEP11ChiMetadataS1_S1_23ChiFeature2ExposureType+0xc24>
   22114: 41 02 00 54  	b.ne	0x2215c <_ZNK14ChiFeature2HDR24QLLMergeBPSNRMConfigDataEP11ChiMetadataS1_S1_23ChiFeature2ExposureType+0xbf4>
   22118: 78 ff ff d0  	adrp	x24, 0x10000 <_ZNK14ChiFeature2HDR24QLLMergeBPSNRMConfigDataEP11ChiMetadataS1_S1_23ChiFeature2ExposureType+0xb68>
   22134: 81 ff ff 90  	adrp	x1, 0x12000 <_ZNK14ChiFeature2HDR24QLLMergeBPSNRMConfigDataEP11ChiMetadataS1_S1_23ChiFeature2ExposureType+0xb8c>
   22138: 62 ff ff 90  	adrp	x2, 0xe000 <_ZNK14ChiFeature2HDR24QLLMergeBPSNRMConfigDataEP11ChiMetadataS1_S1_23ChiFeature2ExposureType+0xb80>
   2213c: 65 ff ff f0  	adrp	x5, 0x11000 <_ZNK14ChiFeature2HDR24QLLMergeBPSNRMConfigDataEP11ChiMetadataS1_S1_23ChiFeature2ExposureType+0xb90>
   2215c: 79 ff ff d0  	adrp	x25, 0x10000 <_ZNK14ChiFeature2HDR24QLLMergeBPSNRMConfigDataEP11ChiMetadataS1_S1_23ChiFeature2ExposureType+0xbac>
   22178: 81 ff ff 90  	adrp	x1, 0x12000 <_ZNK14ChiFeature2HDR24QLLMergeBPSNRMConfigDataEP11ChiMetadataS1_S1_23ChiFeature2ExposureType+0xbd0>
   22180: 40 ff ff b0  	adrp	x0, 0xb000 <_ZNK14ChiFeature2HDR24QLLMergeBPSNRMConfigDataEP11ChiMetadataS1_S1_23ChiFeature2ExposureType+0xbbc>
   22184: 63 ff ff f0  	adrp	x3, 0x11000 <_ZNK14ChiFeature2HDR24QLLMergeBPSNRMConfigDataEP11ChiMetadataS1_S1_23ChiFeature2ExposureType+0xbd8>
   22188: 85 ff ff 90  	adrp	x5, 0x12000 <_ZNK14ChiFeature2HDR24QLLMergeBPSNRMConfigDataEP11ChiMetadataS1_S1_23ChiFeature2ExposureType+0xbe0>
   221a0: 08 80 00 94  	bl	0x421c0 <_ZN6ChiLog9LogSystemEPKcS1_S1_S1_iS1_z@plt>
   221a4: 0d fe ff 17  	b	0x219d8 <_ZNK14ChiFeature2HDR24QLLMergeBPSNRMConfigDataEP11ChiMetadataS1_S1_23ChiFeature2ExposureType+0x470>
00000000000221b0 <_ZNK14ChiFeature2HDR21MergeBPSNRMConfigDataEP11ChiMetadataS1_S1_P15ChiFeature2Hinti>:
   221d4: 1a 01 00 d0  	adrp	x26, 0x44000 <_ZNK14ChiFeature2HDR21MergeBPSNRMConfigDataEP11ChiMetadataS1_S1_P15ChiFeature2Hinti+0xac>
   221f0: e1 05 00 b4  	cbz	x1, 0x222ac <_ZNK14ChiFeature2HDR21MergeBPSNRMConfigDataEP11ChiMetadataS1_S1_P15ChiFeature2Hinti+0xfc>
   221f4: d3 05 00 b4  	cbz	x19, 0x222ac <_ZNK14ChiFeature2HDR21MergeBPSNRMConfigDataEP11ChiMetadataS1_S1_P15ChiFeature2Hinti+0xfc>
   22208: 09 0b 18 37  	tbnz	w9, #3, 0x22368 <_ZNK14ChiFeature2HDR21MergeBPSNRMConfigDataEP11ChiMetadataS1_S1_P15ChiFeature2Hinti+0x1b8>
   2220c: 5a ff ff 90  	adrp	x26, 0xa000 <_ZNK14ChiFeature2HDR24QLLMergeBPSNRMConfigDataEP11ChiMetadataS1_S1_23ChiFeature2ExposureType+0xc44>
   22210: 7b ff ff f0  	adrp	x27, 0x11000 <_ZNK14ChiFeature2HDR21MergeBPSNRMConfigDataEP11ChiMetadataS1_S1_P15ChiFeature2Hinti+0x1c>
   22268: 21 0b 00 54  	b.ne	0x223cc <_ZNK14ChiFeature2HDR21MergeBPSNRMConfigDataEP11ChiMetadataS1_S1_P15ChiFeature2Hinti+0x21c>
   2226c: 16 0b 00 b4  	cbz	x22, 0x223cc <_ZNK14ChiFeature2HDR21MergeBPSNRMConfigDataEP11ChiMetadataS1_S1_P15ChiFeature2Hinti+0x21c>
   22274: 41 ff ff 90  	adrp	x1, 0xa000 <_ZNK14ChiFeature2HDR21MergeBPSNRMConfigDataEP11ChiMetadataS1_S1_P15ChiFeature2Hinti+0x64>
   2227c: 62 ff ff f0  	adrp	x2, 0x11000 <_ZNK14ChiFeature2HDR21MergeBPSNRMConfigDataEP11ChiMetadataS1_S1_P15ChiFeature2Hinti+0x88>
   22298: 1a 01 00 d0  	adrp	x26, 0x44000 <_ZNK14ChiFeature2HDR21MergeBPSNRMConfigDataEP11ChiMetadataS1_S1_P15ChiFeature2Hinti+0x170>
   222a4: 20 15 00 54  	b.eq	0x22548 <_ZNK14ChiFeature2HDR21MergeBPSNRMConfigDataEP11ChiMetadataS1_S1_P15ChiFeature2Hinti+0x398>
   222a8: b4 00 00 14  	b	0x22578 <_ZNK14ChiFeature2HDR21MergeBPSNRMConfigDataEP11ChiMetadataS1_S1_P15ChiFeature2Hinti+0x3c8>
   222b0: 88 16 00 36  	tbz	w8, #0, 0x22580 <_ZNK14ChiFeature2HDR21MergeBPSNRMConfigDataEP11ChiMetadataS1_S1_P15ChiFeature2Hinti+0x3d0>
   222b4: 08 01 00 d0  	adrp	x8, 0x44000 <_ZNK14ChiFeature2HDR21MergeBPSNRMConfigDataEP11ChiMetadataS1_S1_P15ChiFeature2Hinti+0x18c>
   222c4: 81 02 00 54  	b.ne	0x22314 <_ZNK14ChiFeature2HDR21MergeBPSNRMConfigDataEP11ChiMetadataS1_S1_P15ChiFeature2Hinti+0x164>
   222c8: 79 ff ff d0  	adrp	x25, 0x10000 <_ZNK14ChiFeature2HDR21MergeBPSNRMConfigDataEP11ChiMetadataS1_S1_P15ChiFeature2Hinti+0xd0>
   222e4: 81 ff ff 90  	adrp	x1, 0x12000 <_ZNK14ChiFeature2HDR21MergeBPSNRMConfigDataEP11ChiMetadataS1_S1_P15ChiFeature2Hinti+0xf4>
   222e8: 42 ff ff b0  	adrp	x2, 0xb000 <_ZNK14ChiFeature2HDR21MergeBPSNRMConfigDataEP11ChiMetadataS1_S1_P15ChiFeature2Hinti+0xdc>
   222ec: 85 ff ff 90  	adrp	x5, 0x12000 <_ZNK14ChiFeature2HDR21MergeBPSNRMConfigDataEP11ChiMetadataS1_S1_P15ChiFeature2Hinti+0xfc>
   22314: 79 ff ff d0  	adrp	x25, 0x10000 <_ZNK14ChiFeature2HDR21MergeBPSNRMConfigDataEP11ChiMetadataS1_S1_P15ChiFeature2Hinti+0x11c>
   22330: 81 ff ff 90  	adrp	x1, 0x12000 <_ZNK14ChiFeature2HDR21MergeBPSNRMConfigDataEP11ChiMetadataS1_S1_P15ChiFeature2Hinti+0x140>
   22338: 40 ff ff b0  	adrp	x0, 0xb000 <_ZNK14ChiFeature2HDR21MergeBPSNRMConfigDataEP11ChiMetadataS1_S1_P15ChiFeature2Hinti+0x12c>
   2233c: 83 ff ff 90  	adrp	x3, 0x12000 <_ZNK14ChiFeature2HDR21MergeBPSNRMConfigDataEP11ChiMetadataS1_S1_P15ChiFeature2Hinti+0x14c>
   22340: 65 ff ff f0  	adrp	x5, 0x11000 <_ZNK14ChiFeature2HDR21MergeBPSNRMConfigDataEP11ChiMetadataS1_S1_P15ChiFeature2Hinti+0x14c>
   22360: 98 7f 00 94  	bl	0x421c0 <_ZN6ChiLog9LogSystemEPKcS1_S1_S1_iS1_z@plt>
   22364: 87 00 00 14  	b	0x22580 <_ZNK14ChiFeature2HDR21MergeBPSNRMConfigDataEP11ChiMetadataS1_S1_P15ChiFeature2Hinti+0x3d0>
   2236c: 41 ff ff 90  	adrp	x1, 0xa000 <_ZNK14ChiFeature2HDR21MergeBPSNRMConfigDataEP11ChiMetadataS1_S1_P15ChiFeature2Hinti+0x15c>
   22374: 62 ff ff f0  	adrp	x2, 0x11000 <_ZNK14ChiFeature2HDR21MergeBPSNRMConfigDataEP11ChiMetadataS1_S1_P15ChiFeature2Hinti+0x180>
   22398: 81 02 00 54  	b.ne	0x223e8 <_ZNK14ChiFeature2HDR21MergeBPSNRMConfigDataEP11ChiMetadataS1_S1_P15ChiFeature2Hinti+0x238>
   2239c: 76 02 00 b4  	cbz	x22, 0x223e8 <_ZNK14ChiFeature2HDR21MergeBPSNRMConfigDataEP11ChiMetadataS1_S1_P15ChiFeature2Hinti+0x238>
   223a4: 41 ff ff 90  	adrp	x1, 0xa000 <_ZNK14ChiFeature2HDR21MergeBPSNRMConfigDataEP11ChiMetadataS1_S1_P15ChiFeature2Hinti+0x194>
   223ac: 62 ff ff f0  	adrp	x2, 0x11000 <_ZNK14ChiFeature2HDR21MergeBPSNRMConfigDataEP11ChiMetadataS1_S1_P15ChiFeature2Hinti+0x1b8>
   223c8: 6d 00 00 14  	b	0x2257c <_ZNK14ChiFeature2HDR21MergeBPSNRMConfigDataEP11ChiMetadataS1_S1_P15ChiFeature2Hinti+0x3cc>
   223cc: 1a 01 00 d0  	adrp	x26, 0x44000 <_ZNK14ChiFeature2HDR21MergeBPSNRMConfigDataEP11ChiMetadataS1_S1_P15ChiFeature2Hinti+0x2a4>
   223d4: d6 05 00 b4  	cbz	x22, 0x2248c <_ZNK14ChiFeature2HDR21MergeBPSNRMConfigDataEP11ChiMetadataS1_S1_P15ChiFeature2Hinti+0x2dc>
   223e0: 40 0b 00 54  	b.eq	0x22548 <_ZNK14ChiFeature2HDR21MergeBPSNRMConfigDataEP11ChiMetadataS1_S1_P15ChiFeature2Hinti+0x398>
   223e4: 65 00 00 14  	b	0x22578 <_ZNK14ChiFeature2HDR21MergeBPSNRMConfigDataEP11ChiMetadataS1_S1_P15ChiFeature2Hinti+0x3c8>
   223e8: d6 19 00 b5  	cbnz	x22, 0x22720 <_ZNK14ChiFeature2HDR21MergeBPSNRMConfigDataEP11ChiMetadataS1_S1_P15ChiFeature2Hinti+0x570>
   223f0: 8a 0c 00 36  	tbz	w10, #0, 0x22580 <_ZNK14ChiFeature2HDR21MergeBPSNRMConfigDataEP11ChiMetadataS1_S1_P15ChiFeature2Hinti+0x3d0>
   223f4: 09 01 00 d0  	adrp	x9, 0x44000 <_ZNK14ChiFeature2HDR21MergeBPSNRMConfigDataEP11ChiMetadataS1_S1_P15ChiFeature2Hinti+0x2cc>
   223f8: 76 ff ff d0  	adrp	x22, 0x10000 <_ZNK14ChiFeature2HDR21MergeBPSNRMConfigDataEP11ChiMetadataS1_S1_P15ChiFeature2Hinti+0x200>
   2240c: 01 02 00 54  	b.ne	0x2244c <_ZNK14ChiFeature2HDR21MergeBPSNRMConfigDataEP11ChiMetadataS1_S1_P15ChiFeature2Hinti+0x29c>
   22424: 81 ff ff 90  	adrp	x1, 0x12000 <_ZNK14ChiFeature2HDR21MergeBPSNRMConfigDataEP11ChiMetadataS1_S1_P15ChiFeature2Hinti+0x234>
   22428: 62 ff ff b0  	adrp	x2, 0xf000 <_ZNK14ChiFeature2HDR21MergeBPSNRMConfigDataEP11ChiMetadataS1_S1_P15ChiFeature2Hinti+0x22c>
   2242c: 85 ff ff 90  	adrp	x5, 0x12000 <_ZNK14ChiFeature2HDR21MergeBPSNRMConfigDataEP11ChiMetadataS1_S1_P15ChiFeature2Hinti+0x23c>
   22460: 81 ff ff 90  	adrp	x1, 0x12000 <_ZNK14ChiFeature2HDR21MergeBPSNRMConfigDataEP11ChiMetadataS1_S1_P15ChiFeature2Hinti+0x270>
   22468: 40 ff ff b0  	adrp	x0, 0xb000 <_ZNK14ChiFeature2HDR21MergeBPSNRMConfigDataEP11ChiMetadataS1_S1_P15ChiFeature2Hinti+0x25c>
   2246c: 83 ff ff 90  	adrp	x3, 0x12000 <_ZNK14ChiFeature2HDR21MergeBPSNRMConfigDataEP11ChiMetadataS1_S1_P15ChiFeature2Hinti+0x27c>
   22470: 65 ff ff 90  	adrp	x5, 0xe000 <_ZNK14ChiFeature2HDR21MergeBPSNRMConfigDataEP11ChiMetadataS1_S1_P15ChiFeature2Hinti+0x270>
   22488: 73 01 00 14  	b	0x22a54 <_ZNK14ChiFeature2HDR21MergeBPSNRMConfigDataEP11ChiMetadataS1_S1_P15ChiFeature2Hinti+0x8a4>
   22490: 6b 05 00 36  	tbz	w11, #0, 0x2253c <_ZNK14ChiFeature2HDR21MergeBPSNRMConfigDataEP11ChiMetadataS1_S1_P15ChiFeature2Hinti+0x38c>
   22494: 0a 01 00 d0  	adrp	x10, 0x44000 <_ZNK14ChiFeature2HDR21MergeBPSNRMConfigDataEP11ChiMetadataS1_S1_P15ChiFeature2Hinti+0x36c>
   224a4: 81 02 00 54  	b.ne	0x224f4 <_ZNK14ChiFeature2HDR21MergeBPSNRMConfigDataEP11ChiMetadataS1_S1_P15ChiFeature2Hinti+0x344>
   224a8: 7a ff ff d0  	adrp	x26, 0x10000 <_ZNK14ChiFeature2HDR21MergeBPSNRMConfigDataEP11ChiMetadataS1_S1_P15ChiFeature2Hinti+0x2b0>
   224c4: 81 ff ff 90  	adrp	x1, 0x12000 <_ZNK14ChiFeature2HDR21MergeBPSNRMConfigDataEP11ChiMetadataS1_S1_P15ChiFeature2Hinti+0x2d4>
   224cc: 1a 01 00 d0  	adrp	x26, 0x44000 <_ZNK14ChiFeature2HDR21MergeBPSNRMConfigDataEP11ChiMetadataS1_S1_P15ChiFeature2Hinti+0x3a4>
   224d0: 62 ff ff f0  	adrp	x2, 0x11000 <_ZNK14ChiFeature2HDR21MergeBPSNRMConfigDataEP11ChiMetadataS1_S1_P15ChiFeature2Hinti+0x2dc>
   224d4: 85 ff ff 90  	adrp	x5, 0x12000 <_ZNK14ChiFeature2HDR21MergeBPSNRMConfigDataEP11ChiMetadataS1_S1_P15ChiFeature2Hinti+0x2e4>
   224f4: 7b ff ff d0  	adrp	x27, 0x10000 <_ZNK14ChiFeature2HDR21MergeBPSNRMConfigDataEP11ChiMetadataS1_S1_P15ChiFeature2Hinti+0x2fc>
   22510: 81 ff ff 90  	adrp	x1, 0x12000 <_ZNK14ChiFeature2HDR21MergeBPSNRMConfigDataEP11ChiMetadataS1_S1_P15ChiFeature2Hinti+0x320>
   22518: 40 ff ff b0  	adrp	x0, 0xb000 <_ZNK14ChiFeature2HDR21MergeBPSNRMConfigDataEP11ChiMetadataS1_S1_P15ChiFeature2Hinti+0x30c>
   2251c: 83 ff ff 90  	adrp	x3, 0x12000 <_ZNK14ChiFeature2HDR21MergeBPSNRMConfigDataEP11ChiMetadataS1_S1_P15ChiFeature2Hinti+0x32c>
   22520: 45 ff ff d0  	adrp	x5, 0xc000 <_ZNK14ChiFeature2HDR21MergeBPSNRMConfigDataEP11ChiMetadataS1_S1_P15ChiFeature2Hinti+0x318>
   22538: 22 7f 00 94  	bl	0x421c0 <_ZN6ChiLog9LogSystemEPKcS1_S1_S1_iS1_z@plt>
   22544: a1 01 00 54  	b.ne	0x22578 <_ZNK14ChiFeature2HDR21MergeBPSNRMConfigDataEP11ChiMetadataS1_S1_P15ChiFeature2Hinti+0x3c8>
   22548: 99 01 00 b4  	cbz	x25, 0x22578 <_ZNK14ChiFeature2HDR21MergeBPSNRMConfigDataEP11ChiMetadataS1_S1_P15ChiFeature2Hinti+0x3c8>
   22550: 41 ff ff 90  	adrp	x1, 0xa000 <_ZNK14ChiFeature2HDR21MergeBPSNRMConfigDataEP11ChiMetadataS1_S1_P15ChiFeature2Hinti+0x340>
   22558: 62 ff ff f0  	adrp	x2, 0x11000 <_ZNK14ChiFeature2HDR21MergeBPSNRMConfigDataEP11ChiMetadataS1_S1_P15ChiFeature2Hinti+0x364>
   22574: 02 00 00 14  	b	0x2257c <_ZNK14ChiFeature2HDR21MergeBPSNRMConfigDataEP11ChiMetadataS1_S1_P15ChiFeature2Hinti+0x3cc>
   22578: d9 21 00 b4  	cbz	x25, 0x229b0 <_ZNK14ChiFeature2HDR21MergeBPSNRMConfigDataEP11ChiMetadataS1_S1_P15ChiFeature2Hinti+0x800>
   2257c: 20 0d 00 34  	cbz	w0, 0x22720 <_ZNK14ChiFeature2HDR21MergeBPSNRMConfigDataEP11ChiMetadataS1_S1_P15ChiFeature2Hinti+0x570>
   22584: a2 05 00 36  	tbz	w2, #0, 0x22638 <_ZNK14ChiFeature2HDR21MergeBPSNRMConfigDataEP11ChiMetadataS1_S1_P15ChiFeature2Hinti+0x488>
   22588: 10 01 00 d0  	adrp	x16, 0x44000 <_ZNK14ChiFeature2HDR21MergeBPSNRMConfigDataEP11ChiMetadataS1_S1_P15ChiFeature2Hinti+0x460>
   22598: a1 02 00 54  	b.ne	0x225ec <_ZNK14ChiFeature2HDR21MergeBPSNRMConfigDataEP11ChiMetadataS1_S1_P15ChiFeature2Hinti+0x43c>
   225a0: 7a ff ff d0  	adrp	x26, 0x10000 <_ZNK14ChiFeature2HDR21MergeBPSNRMConfigDataEP11ChiMetadataS1_S1_P15ChiFeature2Hinti+0x3a8>
   225bc: 81 ff ff 90  	adrp	x1, 0x12000 <_ZNK14ChiFeature2HDR21MergeBPSNRMConfigDataEP11ChiMetadataS1_S1_P15ChiFeature2Hinti+0x3cc>
   225c0: 62 ff ff b0  	adrp	x2, 0xf000 <_ZNK14ChiFeature2HDR21MergeBPSNRMConfigDataEP11ChiMetadataS1_S1_P15ChiFeature2Hinti+0x3c4>
   225c4: 85 ff ff 90  	adrp	x5, 0x12000 <_ZNK14ChiFeature2HDR21MergeBPSNRMConfigDataEP11ChiMetadataS1_S1_P15ChiFeature2Hinti+0x3d4>
   225ec: 7b ff ff d0  	adrp	x27, 0x10000 <_ZNK14ChiFeature2HDR21MergeBPSNRMConfigDataEP11ChiMetadataS1_S1_P15ChiFeature2Hinti+0x3f4>
   22608: 81 ff ff 90  	adrp	x1, 0x12000 <_ZNK14ChiFeature2HDR21MergeBPSNRMConfigDataEP11ChiMetadataS1_S1_P15ChiFeature2Hinti+0x418>
   22610: 40 ff ff b0  	adrp	x0, 0xb000 <_ZNK14ChiFeature2HDR21MergeBPSNRMConfigDataEP11ChiMetadataS1_S1_P15ChiFeature2Hinti+0x404>
   22614: 83 ff ff 90  	adrp	x3, 0x12000 <_ZNK14ChiFeature2HDR21MergeBPSNRMConfigDataEP11ChiMetadataS1_S1_P15ChiFeature2Hinti+0x424>
   22618: 65 ff ff d0  	adrp	x5, 0x10000 <_ZNK14ChiFeature2HDR21MergeBPSNRMConfigDataEP11ChiMetadataS1_S1_P15ChiFeature2Hinti+0x420>
   22634: e3 7e 00 94  	bl	0x421c0 <_ZN6ChiLog9LogSystemEPKcS1_S1_S1_iS1_z@plt>
   22640: 63 05 18 36  	tbz	w3, #3, 0x226ec <_ZNK14ChiFeature2HDR21MergeBPSNRMConfigDataEP11ChiMetadataS1_S1_P15ChiFeature2Hinti+0x53c>
   22644: 11 01 00 d0  	adrp	x17, 0x44000 <_ZNK14ChiFeature2HDR21MergeBPSNRMConfigDataEP11ChiMetadataS1_S1_P15ChiFeature2Hinti+0x51c>
   22654: 61 02 00 54  	b.ne	0x226a0 <_ZNK14ChiFeature2HDR21MergeBPSNRMConfigDataEP11ChiMetadataS1_S1_P15ChiFeature2Hinti+0x4f0>
   22658: 74 ff ff d0  	adrp	x20, 0x10000 <_ZNK14ChiFeature2HDR21MergeBPSNRMConfigDataEP11ChiMetadataS1_S1_P15ChiFeature2Hinti+0x460>
   22674: 81 ff ff 90  	adrp	x1, 0x12000 <_ZNK14ChiFeature2HDR21MergeBPSNRMConfigDataEP11ChiMetadataS1_S1_P15ChiFeature2Hinti+0x484>
   22678: 42 ff ff f0  	adrp	x2, 0xd000 <_ZNK14ChiFeature2HDR21MergeBPSNRMConfigDataEP11ChiMetadataS1_S1_P15ChiFeature2Hinti+0x474>
   2267c: 85 ff ff 90  	adrp	x5, 0x12000 <_ZNK14ChiFeature2HDR21MergeBPSNRMConfigDataEP11ChiMetadataS1_S1_P15ChiFeature2Hinti+0x48c>
   226a0: 79 ff ff d0  	adrp	x25, 0x10000 <_ZNK14ChiFeature2HDR21MergeBPSNRMConfigDataEP11ChiMetadataS1_S1_P15ChiFeature2Hinti+0x4a8>
   226bc: 61 ff ff 90  	adrp	x1, 0xe000 <_ZNK14ChiFeature2HDR21MergeBPSNRMConfigDataEP11ChiMetadataS1_S1_P15ChiFeature2Hinti+0x4bc>
   226c4: 80 ff ff 90  	adrp	x0, 0x12000 <_ZNK14ChiFeature2HDR21MergeBPSNRMConfigDataEP11ChiMetadataS1_S1_P15ChiFeature2Hinti+0x4d4>
   226c8: 83 ff ff 90  	adrp	x3, 0x12000 <_ZNK14ChiFeature2HDR21MergeBPSNRMConfigDataEP11ChiMetadataS1_S1_P15ChiFeature2Hinti+0x4d8>
   226cc: 85 ff ff 90  	adrp	x5, 0x12000 <_ZNK14ChiFeature2HDR21MergeBPSNRMConfigDataEP11ChiMetadataS1_S1_P15ChiFeature2Hinti+0x4dc>
   226e8: b6 7e 00 94  	bl	0x421c0 <_ZN6ChiLog9LogSystemEPKcS1_S1_S1_iS1_z@plt>
   226f8: a1 27 00 54  	b.ne	0x22bec <_ZNK14ChiFeature2HDR21MergeBPSNRMConfigDataEP11ChiMetadataS1_S1_P15ChiFeature2Hinti+0xa3c>
   22720: 17 05 00 b4  	cbz	x23, 0x227c0 <_ZNK14ChiFeature2HDR21MergeBPSNRMConfigDataEP11ChiMetadataS1_S1_P15ChiFeature2Hinti+0x610>
   22728: c1 04 00 54  	b.ne	0x227c0 <_ZNK14ChiFeature2HDR21MergeBPSNRMConfigDataEP11ChiMetadataS1_S1_P15ChiFeature2Hinti+0x610>
   22734: 2d 0a 18 37  	tbnz	w13, #3, 0x22878 <_ZNK14ChiFeature2HDR21MergeBPSNRMConfigDataEP11ChiMetadataS1_S1_P15ChiFeature2Hinti+0x6c8>
   22738: 59 ff ff 90  	adrp	x25, 0xa000 <_ZNK14ChiFeature2HDR21MergeBPSNRMConfigDataEP11ChiMetadataS1_S1_P15ChiFeature2Hinti+0x528>
   2273c: 7a ff ff f0  	adrp	x26, 0x11000 <_ZNK14ChiFeature2HDR21MergeBPSNRMConfigDataEP11ChiMetadataS1_S1_P15ChiFeature2Hinti+0x548>
   22794: 23 0a 00 b4  	cbz	x3, 0x228d8 <_ZNK14ChiFeature2HDR21MergeBPSNRMConfigDataEP11ChiMetadataS1_S1_P15ChiFeature2Hinti+0x728>
   2279c: 41 ff ff 90  	adrp	x1, 0xa000 <_ZNK14ChiFeature2HDR21MergeBPSNRMConfigDataEP11ChiMetadataS1_S1_P15ChiFeature2Hinti+0x58c>
   227a4: 62 ff ff f0  	adrp	x2, 0x11000 <_ZNK14ChiFeature2HDR21MergeBPSNRMConfigDataEP11ChiMetadataS1_S1_P15ChiFeature2Hinti+0x5b0>
   227bc: 71 00 00 14  	b	0x22980 <_ZNK14ChiFeature2HDR21MergeBPSNRMConfigDataEP11ChiMetadataS1_S1_P15ChiFeature2Hinti+0x7d0>
   227c4: d7 f3 ff b5  	cbnz	x23, 0x2263c <_ZNK14ChiFeature2HDR21MergeBPSNRMConfigDataEP11ChiMetadataS1_S1_P15ChiFeature2Hinti+0x48c>
   227cc: 81 f3 ff 54  	b.ne	0x2263c <_ZNK14ChiFeature2HDR21MergeBPSNRMConfigDataEP11ChiMetadataS1_S1_P15ChiFeature2Hinti+0x48c>
   227d4: 31 f3 07 36  	tbz	w17, #0, 0x22638 <_ZNK14ChiFeature2HDR21MergeBPSNRMConfigDataEP11ChiMetadataS1_S1_P15ChiFeature2Hinti+0x488>
   227d8: 0f 01 00 d0  	adrp	x15, 0x44000 <_ZNK14ChiFeature2HDR21MergeBPSNRMConfigDataEP11ChiMetadataS1_S1_P15ChiFeature2Hinti+0x6b0>
   227e8: 41 02 00 54  	b.ne	0x22830 <_ZNK14ChiFeature2HDR21MergeBPSNRMConfigDataEP11ChiMetadataS1_S1_P15ChiFeature2Hinti+0x680>
   227ec: 79 ff ff d0  	adrp	x25, 0x10000 <_ZNK14ChiFeature2HDR21MergeBPSNRMConfigDataEP11ChiMetadataS1_S1_P15ChiFeature2Hinti+0x5f4>
   22808: 81 ff ff 90  	adrp	x1, 0x12000 <_ZNK14ChiFeature2HDR21MergeBPSNRMConfigDataEP11ChiMetadataS1_S1_P15ChiFeature2Hinti+0x618>
   2280c: 62 ff ff b0  	adrp	x2, 0xf000 <_ZNK14ChiFeature2HDR21MergeBPSNRMConfigDataEP11ChiMetadataS1_S1_P15ChiFeature2Hinti+0x610>
   22810: 85 ff ff 90  	adrp	x5, 0x12000 <_ZNK14ChiFeature2HDR21MergeBPSNRMConfigDataEP11ChiMetadataS1_S1_P15ChiFeature2Hinti+0x620>
   22830: 76 ff ff d0  	adrp	x22, 0x10000 <_ZNK14ChiFeature2HDR21MergeBPSNRMConfigDataEP11ChiMetadataS1_S1_P15ChiFeature2Hinti+0x638>
   2284c: 81 ff ff 90  	adrp	x1, 0x12000 <_ZNK14ChiFeature2HDR21MergeBPSNRMConfigDataEP11ChiMetadataS1_S1_P15ChiFeature2Hinti+0x65c>
   22854: 40 ff ff b0  	adrp	x0, 0xb000 <_ZNK14ChiFeature2HDR21MergeBPSNRMConfigDataEP11ChiMetadataS1_S1_P15ChiFeature2Hinti+0x648>
   22858: 83 ff ff 90  	adrp	x3, 0x12000 <_ZNK14ChiFeature2HDR21MergeBPSNRMConfigDataEP11ChiMetadataS1_S1_P15ChiFeature2Hinti+0x668>
   2285c: 85 ff ff 90  	adrp	x5, 0x12000 <_ZNK14ChiFeature2HDR21MergeBPSNRMConfigDataEP11ChiMetadataS1_S1_P15ChiFeature2Hinti+0x66c>
   22874: dc 00 00 14  	b	0x22be4 <_ZNK14ChiFeature2HDR21MergeBPSNRMConfigDataEP11ChiMetadataS1_S1_P15ChiFeature2Hinti+0xa34>
   22878: 5a ff ff 90  	adrp	x26, 0xa000 <_ZNK14ChiFeature2HDR21MergeBPSNRMConfigDataEP11ChiMetadataS1_S1_P15ChiFeature2Hinti+0x668>
   2287c: 7b ff ff f0  	adrp	x27, 0x11000 <_ZNK14ChiFeature2HDR21MergeBPSNRMConfigDataEP11ChiMetadataS1_S1_P15ChiFeature2Hinti+0x688>
   228d4: 23 f6 ff b5  	cbnz	x3, 0x22798 <_ZNK14ChiFeature2HDR21MergeBPSNRMConfigDataEP11ChiMetadataS1_S1_P15ChiFeature2Hinti+0x5e8>
   228dc: 2e 05 00 36  	tbz	w14, #0, 0x22980 <_ZNK14ChiFeature2HDR21MergeBPSNRMConfigDataEP11ChiMetadataS1_S1_P15ChiFeature2Hinti+0x7d0>
   228e0: 0c 01 00 d0  	adrp	x12, 0x44000 <_ZNK14ChiFeature2HDR21MergeBPSNRMConfigDataEP11ChiMetadataS1_S1_P15ChiFeature2Hinti+0x7b8>
   228f0: 41 02 00 54  	b.ne	0x22938 <_ZNK14ChiFeature2HDR21MergeBPSNRMConfigDataEP11ChiMetadataS1_S1_P15ChiFeature2Hinti+0x788>
   228f4: 7b ff ff d0  	adrp	x27, 0x10000 <_ZNK14ChiFeature2HDR21MergeBPSNRMConfigDataEP11ChiMetadataS1_S1_P15ChiFeature2Hinti+0x6fc>
   22910: 81 ff ff 90  	adrp	x1, 0x12000 <_ZNK14ChiFeature2HDR21MergeBPSNRMConfigDataEP11ChiMetadataS1_S1_P15ChiFeature2Hinti+0x720>
   22914: 62 ff ff b0  	adrp	x2, 0xf000 <_ZNK14ChiFeature2HDR21MergeBPSNRMConfigDataEP11ChiMetadataS1_S1_P15ChiFeature2Hinti+0x718>
   22918: 85 ff ff 90  	adrp	x5, 0x12000 <_ZNK14ChiFeature2HDR21MergeBPSNRMConfigDataEP11ChiMetadataS1_S1_P15ChiFeature2Hinti+0x728>
   22938: 79 ff ff d0  	adrp	x25, 0x10000 <_ZNK14ChiFeature2HDR21MergeBPSNRMConfigDataEP11ChiMetadataS1_S1_P15ChiFeature2Hinti+0x740>
   22954: 81 ff ff 90  	adrp	x1, 0x12000 <_ZNK14ChiFeature2HDR21MergeBPSNRMConfigDataEP11ChiMetadataS1_S1_P15ChiFeature2Hinti+0x764>
   2295c: 40 ff ff b0  	adrp	x0, 0xb000 <_ZNK14ChiFeature2HDR21MergeBPSNRMConfigDataEP11ChiMetadataS1_S1_P15ChiFeature2Hinti+0x750>
   22960: 83 ff ff 90  	adrp	x3, 0x12000 <_ZNK14ChiFeature2HDR21MergeBPSNRMConfigDataEP11ChiMetadataS1_S1_P15ChiFeature2Hinti+0x770>
   22964: 65 ff ff f0  	adrp	x5, 0x11000 <_ZNK14ChiFeature2HDR21MergeBPSNRMConfigDataEP11ChiMetadataS1_S1_P15ChiFeature2Hinti+0x770>
   2297c: 11 7e 00 94  	bl	0x421c0 <_ZN6ChiLog9LogSystemEPKcS1_S1_S1_iS1_z@plt>
   22980: f6 06 00 b4  	cbz	x22, 0x22a5c <_ZNK14ChiFeature2HDR21MergeBPSNRMConfigDataEP11ChiMetadataS1_S1_P15ChiFeature2Hinti+0x8ac>
   22988: 41 ff ff 90  	adrp	x1, 0xa000 <_ZNK14ChiFeature2HDR21MergeBPSNRMConfigDataEP11ChiMetadataS1_S1_P15ChiFeature2Hinti+0x778>
   22990: 62 ff ff f0  	adrp	x2, 0x11000 <_ZNK14ChiFeature2HDR21MergeBPSNRMConfigDataEP11ChiMetadataS1_S1_P15ChiFeature2Hinti+0x79c>
   229ac: 56 00 00 14  	b	0x22b04 <_ZNK14ChiFeature2HDR21MergeBPSNRMConfigDataEP11ChiMetadataS1_S1_P15ChiFeature2Hinti+0x954>
   229b4: 6c de 07 36  	tbz	w12, #0, 0x22580 <_ZNK14ChiFeature2HDR21MergeBPSNRMConfigDataEP11ChiMetadataS1_S1_P15ChiFeature2Hinti+0x3d0>
   229b8: 0b 01 00 d0  	adrp	x11, 0x44000 <_ZNK14ChiFeature2HDR21MergeBPSNRMConfigDataEP11ChiMetadataS1_S1_P15ChiFeature2Hinti+0x890>
   229c8: 41 02 00 54  	b.ne	0x22a10 <_ZNK14ChiFeature2HDR21MergeBPSNRMConfigDataEP11ChiMetadataS1_S1_P15ChiFeature2Hinti+0x860>
   229cc: 76 ff ff d0  	adrp	x22, 0x10000 <_ZNK14ChiFeature2HDR21MergeBPSNRMConfigDataEP11ChiMetadataS1_S1_P15ChiFeature2Hinti+0x7d4>
   229e8: 81 ff ff 90  	adrp	x1, 0x12000 <_ZNK14ChiFeature2HDR21MergeBPSNRMConfigDataEP11ChiMetadataS1_S1_P15ChiFeature2Hinti+0x7f8>
   229ec: 42 ff ff f0  	adrp	x2, 0xd000 <_ZNK14ChiFeature2HDR21MergeBPSNRMConfigDataEP11ChiMetadataS1_S1_P15ChiFeature2Hinti+0x7e8>
   229f0: 85 ff ff 90  	adrp	x5, 0x12000 <_ZNK14ChiFeature2HDR21MergeBPSNRMConfigDataEP11ChiMetadataS1_S1_P15ChiFeature2Hinti+0x800>
   22a10: 79 ff ff d0  	adrp	x25, 0x10000 <_ZNK14ChiFeature2HDR21MergeBPSNRMConfigDataEP11ChiMetadataS1_S1_P15ChiFeature2Hinti+0x818>
   22a2c: 81 ff ff 90  	adrp	x1, 0x12000 <_ZNK14ChiFeature2HDR21MergeBPSNRMConfigDataEP11ChiMetadataS1_S1_P15ChiFeature2Hinti+0x83c>
   22a34: 40 ff ff b0  	adrp	x0, 0xb000 <_ZNK14ChiFeature2HDR21MergeBPSNRMConfigDataEP11ChiMetadataS1_S1_P15ChiFeature2Hinti+0x828>
   22a38: 83 ff ff 90  	adrp	x3, 0x12000 <_ZNK14ChiFeature2HDR21MergeBPSNRMConfigDataEP11ChiMetadataS1_S1_P15ChiFeature2Hinti+0x848>
   22a3c: 45 ff ff 90  	adrp	x5, 0xa000 <_ZNK14ChiFeature2HDR21MergeBPSNRMConfigDataEP11ChiMetadataS1_S1_P15ChiFeature2Hinti+0x82c>
   22a54: db 7d 00 94  	bl	0x421c0 <_ZN6ChiLog9LogSystemEPKcS1_S1_S1_iS1_z@plt>
   22a58: ca fe ff 17  	b	0x22580 <_ZNK14ChiFeature2HDR21MergeBPSNRMConfigDataEP11ChiMetadataS1_S1_P15ChiFeature2Hinti+0x3d0>
   22a60: 4f 05 08 36  	tbz	w15, #1, 0x22b08 <_ZNK14ChiFeature2HDR21MergeBPSNRMConfigDataEP11ChiMetadataS1_S1_P15ChiFeature2Hinti+0x958>
   22a64: 0d 01 00 d0  	adrp	x13, 0x44000 <_ZNK14ChiFeature2HDR21MergeBPSNRMConfigDataEP11ChiMetadataS1_S1_P15ChiFeature2Hinti+0x93c>
   22a74: 41 02 00 54  	b.ne	0x22abc <_ZNK14ChiFeature2HDR21MergeBPSNRMConfigDataEP11ChiMetadataS1_S1_P15ChiFeature2Hinti+0x90c>
   22a78: 76 ff ff d0  	adrp	x22, 0x10000 <_ZNK14ChiFeature2HDR21MergeBPSNRMConfigDataEP11ChiMetadataS1_S1_P15ChiFeature2Hinti+0x880>
   22a94: 81 ff ff 90  	adrp	x1, 0x12000 <_ZNK14ChiFeature2HDR21MergeBPSNRMConfigDataEP11ChiMetadataS1_S1_P15ChiFeature2Hinti+0x8a4>
   22a98: 82 ff ff 90  	adrp	x2, 0x12000 <_ZNK14ChiFeature2HDR21MergeBPSNRMConfigDataEP11ChiMetadataS1_S1_P15ChiFeature2Hinti+0x8a8>
   22a9c: 85 ff ff 90  	adrp	x5, 0x12000 <_ZNK14ChiFeature2HDR21MergeBPSNRMConfigDataEP11ChiMetadataS1_S1_P15ChiFeature2Hinti+0x8ac>
   22abc: 7a ff ff d0  	adrp	x26, 0x10000 <_ZNK14ChiFeature2HDR21MergeBPSNRMConfigDataEP11ChiMetadataS1_S1_P15ChiFeature2Hinti+0x8c4>
   22ad8: 41 ff ff d0  	adrp	x1, 0xc000 <_ZNK14ChiFeature2HDR21MergeBPSNRMConfigDataEP11ChiMetadataS1_S1_P15ChiFeature2Hinti+0x8d0>
   22ae0: 60 ff ff b0  	adrp	x0, 0xf000 <_ZNK14ChiFeature2HDR21MergeBPSNRMConfigDataEP11ChiMetadataS1_S1_P15ChiFeature2Hinti+0x8e4>
   22ae4: 83 ff ff 90  	adrp	x3, 0x12000 <_ZNK14ChiFeature2HDR21MergeBPSNRMConfigDataEP11ChiMetadataS1_S1_P15ChiFeature2Hinti+0x8f4>
   22ae8: 65 ff ff 90  	adrp	x5, 0xe000 <_ZNK14ChiFeature2HDR21MergeBPSNRMConfigDataEP11ChiMetadataS1_S1_P15ChiFeature2Hinti+0x8e8>
   22b00: b0 7d 00 94  	bl	0x421c0 <_ZN6ChiLog9LogSystemEPKcS1_S1_S1_iS1_z@plt>
   22b08: d5 01 00 35  	cbnz	w21, 0x22b40 <_ZNK14ChiFeature2HDR21MergeBPSNRMConfigDataEP11ChiMetadataS1_S1_P15ChiFeature2Hinti+0x990>
   22b0c: b8 01 00 b4  	cbz	x24, 0x22b40 <_ZNK14ChiFeature2HDR21MergeBPSNRMConfigDataEP11ChiMetadataS1_S1_P15ChiFeature2Hinti+0x990>
   22b14: 41 ff ff 90  	adrp	x1, 0xa000 <_ZNK14ChiFeature2HDR21MergeBPSNRMConfigDataEP11ChiMetadataS1_S1_P15ChiFeature2Hinti+0x904>
   22b1c: 62 ff ff f0  	adrp	x2, 0x11000 <_ZNK14ChiFeature2HDR21MergeBPSNRMConfigDataEP11ChiMetadataS1_S1_P15ChiFeature2Hinti+0x928>
   22b3c: c0 fe ff 17  	b	0x2263c <_ZNK14ChiFeature2HDR21MergeBPSNRMConfigDataEP11ChiMetadataS1_S1_P15ChiFeature2Hinti+0x48c>
   22b44: b0 d7 07 36  	tbz	w16, #0, 0x22638 <_ZNK14ChiFeature2HDR21MergeBPSNRMConfigDataEP11ChiMetadataS1_S1_P15ChiFeature2Hinti+0x488>
   22b48: 0e 01 00 d0  	adrp	x14, 0x44000 <_ZNK14ChiFeature2HDR21MergeBPSNRMConfigDataEP11ChiMetadataS1_S1_P15ChiFeature2Hinti+0xa20>
   22b58: 41 02 00 54  	b.ne	0x22ba0 <_ZNK14ChiFeature2HDR21MergeBPSNRMConfigDataEP11ChiMetadataS1_S1_P15ChiFeature2Hinti+0x9f0>
   22b5c: 74 ff ff d0  	adrp	x20, 0x10000 <_ZNK14ChiFeature2HDR21MergeBPSNRMConfigDataEP11ChiMetadataS1_S1_P15ChiFeature2Hinti+0x964>
   22b78: 81 ff ff 90  	adrp	x1, 0x12000 <_ZNK14ChiFeature2HDR21MergeBPSNRMConfigDataEP11ChiMetadataS1_S1_P15ChiFeature2Hinti+0x988>
   22b7c: 42 ff ff f0  	adrp	x2, 0xd000 <_ZNK14ChiFeature2HDR21MergeBPSNRMConfigDataEP11ChiMetadataS1_S1_P15ChiFeature2Hinti+0x978>
   22b80: 85 ff ff 90  	adrp	x5, 0x12000 <_ZNK14ChiFeature2HDR21MergeBPSNRMConfigDataEP11ChiMetadataS1_S1_P15ChiFeature2Hinti+0x990>
   22ba0: 7b ff ff d0  	adrp	x27, 0x10000 <_ZNK14ChiFeature2HDR21MergeBPSNRMConfigDataEP11ChiMetadataS1_S1_P15ChiFeature2Hinti+0x9a8>
   22bbc: 81 ff ff 90  	adrp	x1, 0x12000 <_ZNK14ChiFeature2HDR21MergeBPSNRMConfigDataEP11ChiMetadataS1_S1_P15ChiFeature2Hinti+0x9cc>
   22bc4: 40 ff ff b0  	adrp	x0, 0xb000 <_ZNK14ChiFeature2HDR21MergeBPSNRMConfigDataEP11ChiMetadataS1_S1_P15ChiFeature2Hinti+0x9b8>
   22bc8: 83 ff ff 90  	adrp	x3, 0x12000 <_ZNK14ChiFeature2HDR21MergeBPSNRMConfigDataEP11ChiMetadataS1_S1_P15ChiFeature2Hinti+0x9d8>
   22bcc: 45 ff ff 90  	adrp	x5, 0xa000 <_ZNK14ChiFeature2HDR21MergeBPSNRMConfigDataEP11ChiMetadataS1_S1_P15ChiFeature2Hinti+0x9bc>
   22be4: 77 7d 00 94  	bl	0x421c0 <_ZN6ChiLog9LogSystemEPKcS1_S1_S1_iS1_z@plt>
   22be8: 94 fe ff 17  	b	0x22638 <_ZNK14ChiFeature2HDR21MergeBPSNRMConfigDataEP11ChiMetadataS1_S1_P15ChiFeature2Hinti+0x488>
0000000000022bf0 <_ZNK14ChiFeature2HDR30MergeFourFrameParsedBhistStatsEP11ChiMetadataS1_S1_S1_P15ChiFeature2Hinti>:
   22c28: 61 08 00 b4  	cbz	x1, 0x22d34 <_ZNK14ChiFeature2HDR30MergeFourFrameParsedBhistStatsEP11ChiMetadataS1_S1_S1_P15ChiFeature2Hinti+0x144>
   22c2c: 53 08 00 b4  	cbz	x19, 0x22d34 <_ZNK14ChiFeature2HDR30MergeFourFrameParsedBhistStatsEP11ChiMetadataS1_S1_S1_P15ChiFeature2Hinti+0x144>
   22c34: 04 08 00 b4  	cbz	x4, 0x22d34 <_ZNK14ChiFeature2HDR30MergeFourFrameParsedBhistStatsEP11ChiMetadataS1_S1_S1_P15ChiFeature2Hinti+0x144>
   22c3c: e1 14 00 54  	b.ne	0x22ed8 <_ZNK14ChiFeature2HDR30MergeFourFrameParsedBhistStatsEP11ChiMetadataS1_S1_S1_P15ChiFeature2Hinti+0x2e8>
   22c40: 1b 01 00 d0  	adrp	x27, 0x44000 <_ZNK14ChiFeature2HDR30MergeFourFrameParsedBhistStatsEP11ChiMetadataS1_S1_S1_P15ChiFeature2Hinti+0xd8>
   22c50: 09 15 18 37  	tbnz	w9, #3, 0x22ef0 <_ZNK14ChiFeature2HDR30MergeFourFrameParsedBhistStatsEP11ChiMetadataS1_S1_S1_P15ChiFeature2Hinti+0x300>
   22c54: 5a ff ff f0  	adrp	x26, 0xd000 <_ZNK14ChiFeature2HDR30MergeFourFrameParsedBhistStatsEP11ChiMetadataS1_S1_S1_P15ChiFeature2Hinti+0x10>
   22c58: 5b ff ff b0  	adrp	x27, 0xb000 <_ZNK14ChiFeature2HDR30MergeFourFrameParsedBhistStatsEP11ChiMetadataS1_S1_S1_P15ChiFeature2Hinti+0xc>
   22cf8: f9 11 00 b4  	cbz	x25, 0x22f34 <_ZNK14ChiFeature2HDR30MergeFourFrameParsedBhistStatsEP11ChiMetadataS1_S1_S1_P15ChiFeature2Hinti+0x344>
   22d00: 41 ff ff f0  	adrp	x1, 0xd000 <_ZNK14ChiFeature2HDR30MergeFourFrameParsedBhistStatsEP11ChiMetadataS1_S1_S1_P15ChiFeature2Hinti+0xbc>
   22d08: 42 ff ff b0  	adrp	x2, 0xb000 <_ZNK14ChiFeature2HDR30MergeFourFrameParsedBhistStatsEP11ChiMetadataS1_S1_S1_P15ChiFeature2Hinti+0xbc>
   22d24: 1b 01 00 d0  	adrp	x27, 0x44000 <_ZNK14ChiFeature2HDR30MergeFourFrameParsedBhistStatsEP11ChiMetadataS1_S1_S1_P15ChiFeature2Hinti+0x1bc>
   22d2c: f7 0e 00 b5  	cbnz	x23, 0x22f08 <_ZNK14ChiFeature2HDR30MergeFourFrameParsedBhistStatsEP11ChiMetadataS1_S1_S1_P15ChiFeature2Hinti+0x318>
   22d30: ae 00 00 14  	b	0x22fe8 <_ZNK14ChiFeature2HDR30MergeFourFrameParsedBhistStatsEP11ChiMetadataS1_S1_S1_P15ChiFeature2Hinti+0x3f8>
   22d34: 18 01 00 d0  	adrp	x24, 0x44000 <_ZNK14ChiFeature2HDR30MergeFourFrameParsedBhistStatsEP11ChiMetadataS1_S1_S1_P15ChiFeature2Hinti+0x1cc>
   22d40: c8 05 00 36  	tbz	w8, #0, 0x22df8 <_ZNK14ChiFeature2HDR30MergeFourFrameParsedBhistStatsEP11ChiMetadataS1_S1_S1_P15ChiFeature2Hinti+0x208>
   22d44: 08 01 00 d0  	adrp	x8, 0x44000 <_ZNK14ChiFeature2HDR30MergeFourFrameParsedBhistStatsEP11ChiMetadataS1_S1_S1_P15ChiFeature2Hinti+0x1dc>
   22d54: 81 02 00 54  	b.ne	0x22da4 <_ZNK14ChiFeature2HDR30MergeFourFrameParsedBhistStatsEP11ChiMetadataS1_S1_S1_P15ChiFeature2Hinti+0x1b4>
   22d58: 77 ff ff d0  	adrp	x23, 0x10000 <_ZNK14ChiFeature2HDR30MergeFourFrameParsedBhistStatsEP11ChiMetadataS1_S1_S1_P15ChiFeature2Hinti+0x120>
   22d74: 81 ff ff 90  	adrp	x1, 0x12000 <_ZNK14ChiFeature2HDR30MergeFourFrameParsedBhistStatsEP11ChiMetadataS1_S1_S1_P15ChiFeature2Hinti+0x144>
   22d78: 42 ff ff b0  	adrp	x2, 0xb000 <_ZNK14ChiFeature2HDR30MergeFourFrameParsedBhistStatsEP11ChiMetadataS1_S1_S1_P15ChiFeature2Hinti+0x12c>
   22d7c: 65 ff ff f0  	adrp	x5, 0x11000 <_ZNK14ChiFeature2HDR30MergeFourFrameParsedBhistStatsEP11ChiMetadataS1_S1_S1_P15ChiFeature2Hinti+0x148>
   22da4: 79 ff ff d0  	adrp	x25, 0x10000 <_ZNK14ChiFeature2HDR30MergeFourFrameParsedBhistStatsEP11ChiMetadataS1_S1_S1_P15ChiFeature2Hinti+0x16c>
   22dc0: 81 ff ff 90  	adrp	x1, 0x12000 <_ZNK14ChiFeature2HDR30MergeFourFrameParsedBhistStatsEP11ChiMetadataS1_S1_S1_P15ChiFeature2Hinti+0x190>
   22dc8: 40 ff ff b0  	adrp	x0, 0xb000 <_ZNK14ChiFeature2HDR30MergeFourFrameParsedBhistStatsEP11ChiMetadataS1_S1_S1_P15ChiFeature2Hinti+0x17c>
   22dcc: 63 ff ff f0  	adrp	x3, 0x11000 <_ZNK14ChiFeature2HDR30MergeFourFrameParsedBhistStatsEP11ChiMetadataS1_S1_S1_P15ChiFeature2Hinti+0x198>
   22dd0: 65 ff ff f0  	adrp	x5, 0x11000 <_ZNK14ChiFeature2HDR30MergeFourFrameParsedBhistStatsEP11ChiMetadataS1_S1_S1_P15ChiFeature2Hinti+0x19c>
   22df0: f4 7c 00 94  	bl	0x421c0 <_ZN6ChiLog9LogSystemEPKcS1_S1_S1_iS1_z@plt>
   22df8: 68 05 00 36  	tbz	w8, #0, 0x22ea4 <_ZNK14ChiFeature2HDR30MergeFourFrameParsedBhistStatsEP11ChiMetadataS1_S1_S1_P15ChiFeature2Hinti+0x2b4>
   22dfc: 0d 01 00 d0  	adrp	x13, 0x44000 <_ZNK14ChiFeature2HDR30MergeFourFrameParsedBhistStatsEP11ChiMetadataS1_S1_S1_P15ChiFeature2Hinti+0x294>
   22e0c: 61 02 00 54  	b.ne	0x22e58 <_ZNK14ChiFeature2HDR30MergeFourFrameParsedBhistStatsEP11ChiMetadataS1_S1_S1_P15ChiFeature2Hinti+0x268>
   22e10: 7a ff ff d0  	adrp	x26, 0x10000 <_ZNK14ChiFeature2HDR30MergeFourFrameParsedBhistStatsEP11ChiMetadataS1_S1_S1_P15ChiFeature2Hinti+0x1d8>
   22e2c: 81 ff ff 90  	adrp	x1, 0x12000 <_ZNK14ChiFeature2HDR30MergeFourFrameParsedBhistStatsEP11ChiMetadataS1_S1_S1_P15ChiFeature2Hinti+0x1fc>
   22e30: 42 ff ff d0  	adrp	x2, 0xc000 <_ZNK14ChiFeature2HDR30MergeFourFrameParsedBhistStatsEP11ChiMetadataS1_S1_S1_P15ChiFeature2Hinti+0x1e8>
   22e34: 65 ff ff f0  	adrp	x5, 0x11000 <_ZNK14ChiFeature2HDR30MergeFourFrameParsedBhistStatsEP11ChiMetadataS1_S1_S1_P15ChiFeature2Hinti+0x200>
   22e58: 77 ff ff d0  	adrp	x23, 0x10000 <_ZNK14ChiFeature2HDR30MergeFourFrameParsedBhistStatsEP11ChiMetadataS1_S1_S1_P15ChiFeature2Hinti+0x220>
   22e74: 81 ff ff 90  	adrp	x1, 0x12000 <_ZNK14ChiFeature2HDR30MergeFourFrameParsedBhistStatsEP11ChiMetadataS1_S1_S1_P15ChiFeature2Hinti+0x244>
   22e7c: 40 ff ff b0  	adrp	x0, 0xb000 <_ZNK14ChiFeature2HDR30MergeFourFrameParsedBhistStatsEP11ChiMetadataS1_S1_S1_P15ChiFeature2Hinti+0x230>
   22e80: 63 ff ff f0  	adrp	x3, 0x11000 <_ZNK14ChiFeature2HDR30MergeFourFrameParsedBhistStatsEP11ChiMetadataS1_S1_S1_P15ChiFeature2Hinti+0x24c>
   22e84: 65 ff ff f0  	adrp	x5, 0x11000 <_ZNK14ChiFeature2HDR30MergeFourFrameParsedBhistStatsEP11ChiMetadataS1_S1_S1_P15ChiFeature2Hinti+0x250>
   22ea0: c8 7c 00 94  	bl	0x421c0 <_ZN6ChiLog9LogSystemEPKcS1_S1_S1_iS1_z@plt>
   22eb4: c1 01 00 54  	b.ne	0x22eec <_ZNK14ChiFeature2HDR30MergeFourFrameParsedBhistStatsEP11ChiMetadataS1_S1_S1_P15ChiFeature2Hinti+0x2fc>
   22ee8: 80 fe ff 54  	b.eq	0x22eb8 <_ZNK14ChiFeature2HDR30MergeFourFrameParsedBhistStatsEP11ChiMetadataS1_S1_S1_P15ChiFeature2Hinti+0x2c8>
   22f00: 2a 02 08 37  	tbnz	w10, #1, 0x22f44 <_ZNK14ChiFeature2HDR30MergeFourFrameParsedBhistStatsEP11ChiMetadataS1_S1_S1_P15ChiFeature2Hinti+0x354>
   22f04: 37 07 00 b4  	cbz	x23, 0x22fe8 <_ZNK14ChiFeature2HDR30MergeFourFrameParsedBhistStatsEP11ChiMetadataS1_S1_S1_P15ChiFeature2Hinti+0x3f8>
   22f0c: 41 ff ff f0  	adrp	x1, 0xd000 <_ZNK14ChiFeature2HDR30MergeFourFrameParsedBhistStatsEP11ChiMetadataS1_S1_S1_P15ChiFeature2Hinti+0x2c8>
   22f14: 42 ff ff b0  	adrp	x2, 0xb000 <_ZNK14ChiFeature2HDR30MergeFourFrameParsedBhistStatsEP11ChiMetadataS1_S1_S1_P15ChiFeature2Hinti+0x2c8>
   22f30: 5a 00 00 14  	b	0x23098 <_ZNK14ChiFeature2HDR30MergeFourFrameParsedBhistStatsEP11ChiMetadataS1_S1_S1_P15ChiFeature2Hinti+0x4a8>
   22f34: 1b 01 00 d0  	adrp	x27, 0x44000 <_ZNK14ChiFeature2HDR30MergeFourFrameParsedBhistStatsEP11ChiMetadataS1_S1_S1_P15ChiFeature2Hinti+0x3cc>
   22f40: 2a fe 0f 36  	tbz	w10, #1, 0x22f04 <_ZNK14ChiFeature2HDR30MergeFourFrameParsedBhistStatsEP11ChiMetadataS1_S1_S1_P15ChiFeature2Hinti+0x314>
   22f44: 09 01 00 d0  	adrp	x9, 0x44000 <_ZNK14ChiFeature2HDR30MergeFourFrameParsedBhistStatsEP11ChiMetadataS1_S1_S1_P15ChiFeature2Hinti+0x3dc>
   22f54: 41 02 00 54  	b.ne	0x22f9c <_ZNK14ChiFeature2HDR30MergeFourFrameParsedBhistStatsEP11ChiMetadataS1_S1_S1_P15ChiFeature2Hinti+0x3ac>
   22f58: 79 ff ff d0  	adrp	x25, 0x10000 <_ZNK14ChiFeature2HDR30MergeFourFrameParsedBhistStatsEP11ChiMetadataS1_S1_S1_P15ChiFeature2Hinti+0x320>
   22f74: 81 ff ff 90  	adrp	x1, 0x12000 <_ZNK14ChiFeature2HDR30MergeFourFrameParsedBhistStatsEP11ChiMetadataS1_S1_S1_P15ChiFeature2Hinti+0x344>
   22f78: 82 ff ff 90  	adrp	x2, 0x12000 <_ZNK14ChiFeature2HDR30MergeFourFrameParsedBhistStatsEP11ChiMetadataS1_S1_S1_P15ChiFeature2Hinti+0x348>
   22f7c: 65 ff ff f0  	adrp	x5, 0x11000 <_ZNK14ChiFeature2HDR30MergeFourFrameParsedBhistStatsEP11ChiMetadataS1_S1_S1_P15ChiFeature2Hinti+0x348>
   22f9c: 7a ff ff d0  	adrp	x26, 0x10000 <_ZNK14ChiFeature2HDR30MergeFourFrameParsedBhistStatsEP11ChiMetadataS1_S1_S1_P15ChiFeature2Hinti+0x364>
   22fb8: 41 ff ff d0  	adrp	x1, 0xc000 <_ZNK14ChiFeature2HDR30MergeFourFrameParsedBhistStatsEP11ChiMetadataS1_S1_S1_P15ChiFeature2Hinti+0x370>
   22fc0: 60 ff ff b0  	adrp	x0, 0xf000 <_ZNK14ChiFeature2HDR30MergeFourFrameParsedBhistStatsEP11ChiMetadataS1_S1_S1_P15ChiFeature2Hinti+0x384>
   22fc4: 63 ff ff f0  	adrp	x3, 0x11000 <_ZNK14ChiFeature2HDR30MergeFourFrameParsedBhistStatsEP11ChiMetadataS1_S1_S1_P15ChiFeature2Hinti+0x390>
   22fc8: 65 ff ff b0  	adrp	x5, 0xf000 <_ZNK14ChiFeature2HDR30MergeFourFrameParsedBhistStatsEP11ChiMetadataS1_S1_S1_P15ChiFeature2Hinti+0x38c>
   22fe0: 78 7c 00 94  	bl	0x421c0 <_ZN6ChiLog9LogSystemEPKcS1_S1_S1_iS1_z@plt>
   22fe4: 37 f9 ff b5  	cbnz	x23, 0x22f08 <_ZNK14ChiFeature2HDR30MergeFourFrameParsedBhistStatsEP11ChiMetadataS1_S1_S1_P15ChiFeature2Hinti+0x318>
   22fec: 6b 05 08 36  	tbz	w11, #1, 0x23098 <_ZNK14ChiFeature2HDR30MergeFourFrameParsedBhistStatsEP11ChiMetadataS1_S1_S1_P15ChiFeature2Hinti+0x4a8>
   22ff0: 0a 01 00 d0  	adrp	x10, 0x44000 <_ZNK14ChiFeature2HDR30MergeFourFrameParsedBhistStatsEP11ChiMetadataS1_S1_S1_P15ChiFeature2Hinti+0x488>
   23004: 41 02 00 54  	b.ne	0x2304c <_ZNK14ChiFeature2HDR30MergeFourFrameParsedBhistStatsEP11ChiMetadataS1_S1_S1_P15ChiFeature2Hinti+0x45c>
   23008: 77 ff ff b0  	adrp	x23, 0x10000 <_ZNK14ChiFeature2HDR30MergeFourFrameParsedBhistStatsEP11ChiMetadataS1_S1_S1_P15ChiFeature2Hinti+0x3cc>
   23024: 61 ff ff f0  	adrp	x1, 0x12000 <_ZNK14ChiFeature2HDR30MergeFourFrameParsedBhistStatsEP11ChiMetadataS1_S1_S1_P15ChiFeature2Hinti+0x3f0>
   23028: 42 ff ff f0  	adrp	x2, 0xe000 <_ZNK14ChiFeature2HDR30MergeFourFrameParsedBhistStatsEP11ChiMetadataS1_S1_S1_P15ChiFeature2Hinti+0x3e4>
   2302c: 65 ff ff d0  	adrp	x5, 0x11000 <_ZNK14ChiFeature2HDR30MergeFourFrameParsedBhistStatsEP11ChiMetadataS1_S1_S1_P15ChiFeature2Hinti+0x3f4>
   2304c: 7b ff ff b0  	adrp	x27, 0x10000 <_ZNK14ChiFeature2HDR30MergeFourFrameParsedBhistStatsEP11ChiMetadataS1_S1_S1_P15ChiFeature2Hinti+0x410>
   23068: 41 ff ff b0  	adrp	x1, 0xc000 <_ZNK14ChiFeature2HDR30MergeFourFrameParsedBhistStatsEP11ChiMetadataS1_S1_S1_P15ChiFeature2Hinti+0x41c>
   23070: 60 ff ff 90  	adrp	x0, 0xf000 <_ZNK14ChiFeature2HDR30MergeFourFrameParsedBhistStatsEP11ChiMetadataS1_S1_S1_P15ChiFeature2Hinti+0x430>
   23074: 63 ff ff d0  	adrp	x3, 0x11000 <_ZNK14ChiFeature2HDR30MergeFourFrameParsedBhistStatsEP11ChiMetadataS1_S1_S1_P15ChiFeature2Hinti+0x43c>
   23078: 45 ff ff 90  	adrp	x5, 0xb000 <_ZNK14ChiFeature2HDR30MergeFourFrameParsedBhistStatsEP11ChiMetadataS1_S1_S1_P15ChiFeature2Hinti+0x428>
   23090: 4c 7c 00 94  	bl	0x421c0 <_ZN6ChiLog9LogSystemEPKcS1_S1_S1_iS1_z@plt>
   23098: 96 01 00 b4  	cbz	x22, 0x230c8 <_ZNK14ChiFeature2HDR30MergeFourFrameParsedBhistStatsEP11ChiMetadataS1_S1_S1_P15ChiFeature2Hinti+0x4d8>
   230a0: 41 ff ff d0  	adrp	x1, 0xd000 <_ZNK14ChiFeature2HDR30MergeFourFrameParsedBhistStatsEP11ChiMetadataS1_S1_S1_P15ChiFeature2Hinti+0x458>
   230a8: 42 ff ff 90  	adrp	x2, 0xb000 <_ZNK14ChiFeature2HDR30MergeFourFrameParsedBhistStatsEP11ChiMetadataS1_S1_S1_P15ChiFeature2Hinti+0x458>
   230c4: 2b 00 00 14  	b	0x23170 <_ZNK14ChiFeature2HDR30MergeFourFrameParsedBhistStatsEP11ChiMetadataS1_S1_S1_P15ChiFeature2Hinti+0x580>
   230cc: 2c 05 08 36  	tbz	w12, #1, 0x23170 <_ZNK14ChiFeature2HDR30MergeFourFrameParsedBhistStatsEP11ChiMetadataS1_S1_S1_P15ChiFeature2Hinti+0x580>
   230d0: 0b 01 00 b0  	adrp	x11, 0x44000 <_ZNK14ChiFeature2HDR30MergeFourFrameParsedBhistStatsEP11ChiMetadataS1_S1_S1_P15ChiFeature2Hinti+0x564>
   230e0: 41 02 00 54  	b.ne	0x23128 <_ZNK14ChiFeature2HDR30MergeFourFrameParsedBhistStatsEP11ChiMetadataS1_S1_S1_P15ChiFeature2Hinti+0x538>
   230e4: 76 ff ff b0  	adrp	x22, 0x10000 <_ZNK14ChiFeature2HDR30MergeFourFrameParsedBhistStatsEP11ChiMetadataS1_S1_S1_P15ChiFeature2Hinti+0x4a8>
   23100: 61 ff ff f0  	adrp	x1, 0x12000 <_ZNK14ChiFeature2HDR30MergeFourFrameParsedBhistStatsEP11ChiMetadataS1_S1_S1_P15ChiFeature2Hinti+0x4cc>
   23104: 42 ff ff d0  	adrp	x2, 0xd000 <_ZNK14ChiFeature2HDR30MergeFourFrameParsedBhistStatsEP11ChiMetadataS1_S1_S1_P15ChiFeature2Hinti+0x4bc>
   23108: 65 ff ff d0  	adrp	x5, 0x11000 <_ZNK14ChiFeature2HDR30MergeFourFrameParsedBhistStatsEP11ChiMetadataS1_S1_S1_P15ChiFeature2Hinti+0x4d0>
   23128: 79 ff ff b0  	adrp	x25, 0x10000 <_ZNK14ChiFeature2HDR30MergeFourFrameParsedBhistStatsEP11ChiMetadataS1_S1_S1_P15ChiFeature2Hinti+0x4ec>
   23144: 41 ff ff b0  	adrp	x1, 0xc000 <_ZNK14ChiFeature2HDR30MergeFourFrameParsedBhistStatsEP11ChiMetadataS1_S1_S1_P15ChiFeature2Hinti+0x4f8>
   2314c: 60 ff ff 90  	adrp	x0, 0xf000 <_ZNK14ChiFeature2HDR30MergeFourFrameParsedBhistStatsEP11ChiMetadataS1_S1_S1_P15ChiFeature2Hinti+0x50c>
   23150: 63 ff ff d0  	adrp	x3, 0x11000 <_ZNK14ChiFeature2HDR30MergeFourFrameParsedBhistStatsEP11ChiMetadataS1_S1_S1_P15ChiFeature2Hinti+0x518>
   23154: 45 ff ff d0  	adrp	x5, 0xd000 <_ZNK14ChiFeature2HDR30MergeFourFrameParsedBhistStatsEP11ChiMetadataS1_S1_S1_P15ChiFeature2Hinti+0x50c>
   2316c: 15 7c 00 94  	bl	0x421c0 <_ZN6ChiLog9LogSystemEPKcS1_S1_S1_iS1_z@plt>
   23170: 34 02 00 35  	cbnz	w20, 0x231b4 <_ZNK14ChiFeature2HDR30MergeFourFrameParsedBhistStatsEP11ChiMetadataS1_S1_S1_P15ChiFeature2Hinti+0x5c4>
   23174: 15 02 00 b4  	cbz	x21, 0x231b4 <_ZNK14ChiFeature2HDR30MergeFourFrameParsedBhistStatsEP11ChiMetadataS1_S1_S1_P15ChiFeature2Hinti+0x5c4>
   2317c: 41 ff ff d0  	adrp	x1, 0xd000 <_ZNK14ChiFeature2HDR30MergeFourFrameParsedBhistStatsEP11ChiMetadataS1_S1_S1_P15ChiFeature2Hinti+0x534>
   23184: 42 ff ff 90  	adrp	x2, 0xb000 <_ZNK14ChiFeature2HDR30MergeFourFrameParsedBhistStatsEP11ChiMetadataS1_S1_S1_P15ChiFeature2Hinti+0x534>
   231ac: 60 e8 ff 54  	b.eq	0x22eb8 <_ZNK14ChiFeature2HDR30MergeFourFrameParsedBhistStatsEP11ChiMetadataS1_S1_S1_P15ChiFeature2Hinti+0x2c8>
   231b0: 4f ff ff 17  	b	0x22eec <_ZNK14ChiFeature2HDR30MergeFourFrameParsedBhistStatsEP11ChiMetadataS1_S1_S1_P15ChiFeature2Hinti+0x2fc>
   231b8: 6d e7 0f 36  	tbz	w13, #1, 0x22ea4 <_ZNK14ChiFeature2HDR30MergeFourFrameParsedBhistStatsEP11ChiMetadataS1_S1_S1_P15ChiFeature2Hinti+0x2b4>
   231bc: 0c 01 00 b0  	adrp	x12, 0x44000 <_ZNK14ChiFeature2HDR30MergeFourFrameParsedBhistStatsEP11ChiMetadataS1_S1_S1_P15ChiFeature2Hinti+0x650>
   231c0: 75 ff ff b0  	adrp	x21, 0x10000 <_ZNK14ChiFeature2HDR30MergeFourFrameParsedBhistStatsEP11ChiMetadataS1_S1_S1_P15ChiFeature2Hinti+0x584>
   231d4: 01 02 00 54  	b.ne	0x23214 <_ZNK14ChiFeature2HDR30MergeFourFrameParsedBhistStatsEP11ChiMetadataS1_S1_S1_P15ChiFeature2Hinti+0x624>
   231ec: 61 ff ff f0  	adrp	x1, 0x12000 <_ZNK14ChiFeature2HDR30MergeFourFrameParsedBhistStatsEP11ChiMetadataS1_S1_S1_P15ChiFeature2Hinti+0x5b8>
   231f0: 42 ff ff 90  	adrp	x2, 0xb000 <_ZNK14ChiFeature2HDR30MergeFourFrameParsedBhistStatsEP11ChiMetadataS1_S1_S1_P15ChiFeature2Hinti+0x5a0>
   231f4: 65 ff ff d0  	adrp	x5, 0x11000 <_ZNK14ChiFeature2HDR30MergeFourFrameParsedBhistStatsEP11ChiMetadataS1_S1_S1_P15ChiFeature2Hinti+0x5bc>
   23228: 41 ff ff b0  	adrp	x1, 0xc000 <_ZNK14ChiFeature2HDR30MergeFourFrameParsedBhistStatsEP11ChiMetadataS1_S1_S1_P15ChiFeature2Hinti+0x5dc>
   23230: 60 ff ff 90  	adrp	x0, 0xf000 <_ZNK14ChiFeature2HDR30MergeFourFrameParsedBhistStatsEP11ChiMetadataS1_S1_S1_P15ChiFeature2Hinti+0x5f0>
   23234: 63 ff ff d0  	adrp	x3, 0x11000 <_ZNK14ChiFeature2HDR30MergeFourFrameParsedBhistStatsEP11ChiMetadataS1_S1_S1_P15ChiFeature2Hinti+0x5fc>
   23238: 65 ff ff 90  	adrp	x5, 0xf000 <_ZNK14ChiFeature2HDR30MergeFourFrameParsedBhistStatsEP11ChiMetadataS1_S1_S1_P15ChiFeature2Hinti+0x5f8>
   23250: dc 7b 00 94  	bl	0x421c0 <_ZN6ChiLog9LogSystemEPKcS1_S1_S1_iS1_z@plt>
   23254: 14 ff ff 17  	b	0x22ea4 <_ZNK14ChiFeature2HDR30MergeFourFrameParsedBhistStatsEP11ChiMetadataS1_S1_S1_P15ChiFeature2Hinti+0x2b4>
0000000000023258 <_ZNK14ChiFeature2HDR30MergeFourFrameParsedAWBBGStatsEP11ChiMetadataS1_S1_S1_P15ChiFeature2Hinti>:
   2327c: 1c 01 00 b0  	adrp	x28, 0x44000 <_ZNK14ChiFeature2HDR30MergeFourFrameParsedAWBBGStatsEP11ChiMetadataS1_S1_S1_P15ChiFeature2Hinti+0xa8>
   23298: e1 07 00 b4  	cbz	x1, 0x23394 <_ZNK14ChiFeature2HDR30MergeFourFrameParsedAWBBGStatsEP11ChiMetadataS1_S1_S1_P15ChiFeature2Hinti+0x13c>
   2329c: d3 07 00 b4  	cbz	x19, 0x23394 <_ZNK14ChiFeature2HDR30MergeFourFrameParsedAWBBGStatsEP11ChiMetadataS1_S1_S1_P15ChiFeature2Hinti+0x13c>
   232a4: 84 07 00 b4  	cbz	x4, 0x23394 <_ZNK14ChiFeature2HDR30MergeFourFrameParsedAWBBGStatsEP11ChiMetadataS1_S1_S1_P15ChiFeature2Hinti+0x13c>
   232ac: 01 13 00 54  	b.ne	0x2350c <_ZNK14ChiFeature2HDR30MergeFourFrameParsedAWBBGStatsEP11ChiMetadataS1_S1_S1_P15ChiFeature2Hinti+0x2b4>
   232b8: 29 13 18 37  	tbnz	w9, #3, 0x2351c <_ZNK14ChiFeature2HDR30MergeFourFrameParsedAWBBGStatsEP11ChiMetadataS1_S1_S1_P15ChiFeature2Hinti+0x2c4>
   232c0: 5a ff ff 90  	adrp	x26, 0xb000 <_ZNK14ChiFeature2HDR30MergeFourFrameParsedAWBBGStatsEP11ChiMetadataS1_S1_S1_P15ChiFeature2Hinti+0x8>
   232c8: 76 ff ff d0  	adrp	x22, 0x11000 <_ZNK14ChiFeature2HDR30MergeFourFrameParsedAWBBGStatsEP11ChiMetadataS1_S1_S1_P15ChiFeature2Hinti+0x28>
   23360: 59 0e 00 b4  	cbz	x25, 0x23528 <_ZNK14ChiFeature2HDR30MergeFourFrameParsedAWBBGStatsEP11ChiMetadataS1_S1_S1_P15ChiFeature2Hinti+0x2d0>
   23368: 61 ff ff d0  	adrp	x1, 0x11000 <_ZNK14ChiFeature2HDR30MergeFourFrameParsedAWBBGStatsEP11ChiMetadataS1_S1_S1_P15ChiFeature2Hinti+0xc8>
   23370: 42 ff ff 90  	adrp	x2, 0xb000 <_ZNK14ChiFeature2HDR30MergeFourFrameParsedAWBBGStatsEP11ChiMetadataS1_S1_S1_P15ChiFeature2Hinti+0xb8>
   23390: 90 00 00 14  	b	0x235d0 <_ZNK14ChiFeature2HDR30MergeFourFrameParsedAWBBGStatsEP11ChiMetadataS1_S1_S1_P15ChiFeature2Hinti+0x378>
   23398: c8 05 00 36  	tbz	w8, #0, 0x23450 <_ZNK14ChiFeature2HDR30MergeFourFrameParsedAWBBGStatsEP11ChiMetadataS1_S1_S1_P15ChiFeature2Hinti+0x1f8>
   2339c: 08 01 00 b0  	adrp	x8, 0x44000 <_ZNK14ChiFeature2HDR30MergeFourFrameParsedAWBBGStatsEP11ChiMetadataS1_S1_S1_P15ChiFeature2Hinti+0x1c8>
   233ac: 81 02 00 54  	b.ne	0x233fc <_ZNK14ChiFeature2HDR30MergeFourFrameParsedAWBBGStatsEP11ChiMetadataS1_S1_S1_P15ChiFeature2Hinti+0x1a4>
   233b0: 77 ff ff b0  	adrp	x23, 0x10000 <_ZNK14ChiFeature2HDR30MergeFourFrameParsedAWBBGStatsEP11ChiMetadataS1_S1_S1_P15ChiFeature2Hinti+0x10c>
   233cc: 61 ff ff f0  	adrp	x1, 0x12000 <_ZNK14ChiFeature2HDR30MergeFourFrameParsedAWBBGStatsEP11ChiMetadataS1_S1_S1_P15ChiFeature2Hinti+0x130>
   233d0: 42 ff ff 90  	adrp	x2, 0xb000 <_ZNK14ChiFeature2HDR30MergeFourFrameParsedAWBBGStatsEP11ChiMetadataS1_S1_S1_P15ChiFeature2Hinti+0x118>
   233d4: 25 ff ff f0  	adrp	x5, 0xa000 <_ZNK14ChiFeature2HDR30MergeFourFrameParsedAWBBGStatsEP11ChiMetadataS1_S1_S1_P15ChiFeature2Hinti+0x118>
   233fc: 79 ff ff b0  	adrp	x25, 0x10000 <_ZNK14ChiFeature2HDR30MergeFourFrameParsedAWBBGStatsEP11ChiMetadataS1_S1_S1_P15ChiFeature2Hinti+0x158>
   23418: 61 ff ff f0  	adrp	x1, 0x12000 <_ZNK14ChiFeature2HDR30MergeFourFrameParsedAWBBGStatsEP11ChiMetadataS1_S1_S1_P15ChiFeature2Hinti+0x17c>
   23420: 40 ff ff 90  	adrp	x0, 0xb000 <_ZNK14ChiFeature2HDR30MergeFourFrameParsedAWBBGStatsEP11ChiMetadataS1_S1_S1_P15ChiFeature2Hinti+0x168>
   23424: 23 ff ff f0  	adrp	x3, 0xa000 <_ZNK14ChiFeature2HDR30MergeFourFrameParsedAWBBGStatsEP11ChiMetadataS1_S1_S1_P15ChiFeature2Hinti+0x168>
   23428: 65 ff ff d0  	adrp	x5, 0x11000 <_ZNK14ChiFeature2HDR30MergeFourFrameParsedAWBBGStatsEP11ChiMetadataS1_S1_S1_P15ChiFeature2Hinti+0x188>
   23448: 5e 7b 00 94  	bl	0x421c0 <_ZN6ChiLog9LogSystemEPKcS1_S1_S1_iS1_z@plt>
   23450: 68 05 00 36  	tbz	w8, #0, 0x234fc <_ZNK14ChiFeature2HDR30MergeFourFrameParsedAWBBGStatsEP11ChiMetadataS1_S1_S1_P15ChiFeature2Hinti+0x2a4>
   23454: 0d 01 00 b0  	adrp	x13, 0x44000 <_ZNK14ChiFeature2HDR30MergeFourFrameParsedAWBBGStatsEP11ChiMetadataS1_S1_S1_P15ChiFeature2Hinti+0x280>
   23464: 61 02 00 54  	b.ne	0x234b0 <_ZNK14ChiFeature2HDR30MergeFourFrameParsedAWBBGStatsEP11ChiMetadataS1_S1_S1_P15ChiFeature2Hinti+0x258>
   23468: 77 ff ff b0  	adrp	x23, 0x10000 <_ZNK14ChiFeature2HDR30MergeFourFrameParsedAWBBGStatsEP11ChiMetadataS1_S1_S1_P15ChiFeature2Hinti+0x1c4>
   23484: 61 ff ff f0  	adrp	x1, 0x12000 <_ZNK14ChiFeature2HDR30MergeFourFrameParsedAWBBGStatsEP11ChiMetadataS1_S1_S1_P15ChiFeature2Hinti+0x1e8>
   23488: 42 ff ff f0  	adrp	x2, 0xe000 <_ZNK14ChiFeature2HDR30MergeFourFrameParsedAWBBGStatsEP11ChiMetadataS1_S1_S1_P15ChiFeature2Hinti+0x1dc>
   2348c: 25 ff ff f0  	adrp	x5, 0xa000 <_ZNK14ChiFeature2HDR30MergeFourFrameParsedAWBBGStatsEP11ChiMetadataS1_S1_S1_P15ChiFeature2Hinti+0x1d0>
   234b0: 79 ff ff b0  	adrp	x25, 0x10000 <_ZNK14ChiFeature2HDR30MergeFourFrameParsedAWBBGStatsEP11ChiMetadataS1_S1_S1_P15ChiFeature2Hinti+0x20c>
   234cc: 61 ff ff f0  	adrp	x1, 0x12000 <_ZNK14ChiFeature2HDR30MergeFourFrameParsedAWBBGStatsEP11ChiMetadataS1_S1_S1_P15ChiFeature2Hinti+0x230>
   234d4: 40 ff ff 90  	adrp	x0, 0xb000 <_ZNK14ChiFeature2HDR30MergeFourFrameParsedAWBBGStatsEP11ChiMetadataS1_S1_S1_P15ChiFeature2Hinti+0x21c>
   234d8: 23 ff ff f0  	adrp	x3, 0xa000 <_ZNK14ChiFeature2HDR30MergeFourFrameParsedAWBBGStatsEP11ChiMetadataS1_S1_S1_P15ChiFeature2Hinti+0x21c>
   234dc: 25 ff ff f0  	adrp	x5, 0xa000 <_ZNK14ChiFeature2HDR30MergeFourFrameParsedAWBBGStatsEP11ChiMetadataS1_S1_S1_P15ChiFeature2Hinti+0x220>
   234f8: 32 7b 00 94  	bl	0x421c0 <_ZN6ChiLog9LogSystemEPKcS1_S1_S1_iS1_z@plt>
   23504: 2e 16 18 37  	tbnz	w14, #3, 0x237c8 <_ZNK14ChiFeature2HDR30MergeFourFrameParsedAWBBGStatsEP11ChiMetadataS1_S1_S1_P15ChiFeature2Hinti+0x570>
   23508: da 00 00 14  	b	0x23870 <_ZNK14ChiFeature2HDR30MergeFourFrameParsedAWBBGStatsEP11ChiMetadataS1_S1_S1_P15ChiFeature2Hinti+0x618>
   23514: ae 15 18 37  	tbnz	w14, #3, 0x237c8 <_ZNK14ChiFeature2HDR30MergeFourFrameParsedAWBBGStatsEP11ChiMetadataS1_S1_S1_P15ChiFeature2Hinti+0x570>
   23518: d6 00 00 14  	b	0x23870 <_ZNK14ChiFeature2HDR30MergeFourFrameParsedAWBBGStatsEP11ChiMetadataS1_S1_S1_P15ChiFeature2Hinti+0x618>
   2352c: 2a 05 08 36  	tbz	w10, #1, 0x235d0 <_ZNK14ChiFeature2HDR30MergeFourFrameParsedAWBBGStatsEP11ChiMetadataS1_S1_S1_P15ChiFeature2Hinti+0x378>
   23530: 09 01 00 b0  	adrp	x9, 0x44000 <_ZNK14ChiFeature2HDR30MergeFourFrameParsedAWBBGStatsEP11ChiMetadataS1_S1_S1_P15ChiFeature2Hinti+0x35c>
   23540: 41 02 00 54  	b.ne	0x23588 <_ZNK14ChiFeature2HDR30MergeFourFrameParsedAWBBGStatsEP11ChiMetadataS1_S1_S1_P15ChiFeature2Hinti+0x330>
   23544: 79 ff ff b0  	adrp	x25, 0x10000 <_ZNK14ChiFeature2HDR30MergeFourFrameParsedAWBBGStatsEP11ChiMetadataS1_S1_S1_P15ChiFeature2Hinti+0x2a0>
   23560: 61 ff ff f0  	adrp	x1, 0x12000 <_ZNK14ChiFeature2HDR30MergeFourFrameParsedAWBBGStatsEP11ChiMetadataS1_S1_S1_P15ChiFeature2Hinti+0x2c4>
   23564: 42 ff ff 90  	adrp	x2, 0xb000 <_ZNK14ChiFeature2HDR30MergeFourFrameParsedAWBBGStatsEP11ChiMetadataS1_S1_S1_P15ChiFeature2Hinti+0x2ac>
   23568: 25 ff ff f0  	adrp	x5, 0xa000 <_ZNK14ChiFeature2HDR30MergeFourFrameParsedAWBBGStatsEP11ChiMetadataS1_S1_S1_P15ChiFeature2Hinti+0x2ac>
   23588: 7a ff ff b0  	adrp	x26, 0x10000 <_ZNK14ChiFeature2HDR30MergeFourFrameParsedAWBBGStatsEP11ChiMetadataS1_S1_S1_P15ChiFeature2Hinti+0x2e4>
   235a4: 41 ff ff b0  	adrp	x1, 0xc000 <_ZNK14ChiFeature2HDR30MergeFourFrameParsedAWBBGStatsEP11ChiMetadataS1_S1_S1_P15ChiFeature2Hinti+0x2f0>
   235ac: 60 ff ff 90  	adrp	x0, 0xf000 <_ZNK14ChiFeature2HDR30MergeFourFrameParsedAWBBGStatsEP11ChiMetadataS1_S1_S1_P15ChiFeature2Hinti+0x304>
   235b0: 23 ff ff f0  	adrp	x3, 0xa000 <_ZNK14ChiFeature2HDR30MergeFourFrameParsedAWBBGStatsEP11ChiMetadataS1_S1_S1_P15ChiFeature2Hinti+0x2f4>
   235b4: 65 ff ff d0  	adrp	x5, 0x11000 <_ZNK14ChiFeature2HDR30MergeFourFrameParsedAWBBGStatsEP11ChiMetadataS1_S1_S1_P15ChiFeature2Hinti+0x314>
   235cc: fd 7a 00 94  	bl	0x421c0 <_ZN6ChiLog9LogSystemEPKcS1_S1_S1_iS1_z@plt>
   235d0: b7 01 00 b4  	cbz	x23, 0x23604 <_ZNK14ChiFeature2HDR30MergeFourFrameParsedAWBBGStatsEP11ChiMetadataS1_S1_S1_P15ChiFeature2Hinti+0x3ac>
   235d8: 61 ff ff d0  	adrp	x1, 0x11000 <_ZNK14ChiFeature2HDR30MergeFourFrameParsedAWBBGStatsEP11ChiMetadataS1_S1_S1_P15ChiFeature2Hinti+0x338>
   235e0: 42 ff ff 90  	adrp	x2, 0xb000 <_ZNK14ChiFeature2HDR30MergeFourFrameParsedAWBBGStatsEP11ChiMetadataS1_S1_S1_P15ChiFeature2Hinti+0x328>
   23600: 2b 00 00 14  	b	0x236ac <_ZNK14ChiFeature2HDR30MergeFourFrameParsedAWBBGStatsEP11ChiMetadataS1_S1_S1_P15ChiFeature2Hinti+0x454>
   23608: 2b 05 08 36  	tbz	w11, #1, 0x236ac <_ZNK14ChiFeature2HDR30MergeFourFrameParsedAWBBGStatsEP11ChiMetadataS1_S1_S1_P15ChiFeature2Hinti+0x454>
   2360c: 0a 01 00 b0  	adrp	x10, 0x44000 <_ZNK14ChiFeature2HDR30MergeFourFrameParsedAWBBGStatsEP11ChiMetadataS1_S1_S1_P15ChiFeature2Hinti+0x438>
   2361c: 41 02 00 54  	b.ne	0x23664 <_ZNK14ChiFeature2HDR30MergeFourFrameParsedAWBBGStatsEP11ChiMetadataS1_S1_S1_P15ChiFeature2Hinti+0x40c>
   23620: 77 ff ff b0  	adrp	x23, 0x10000 <_ZNK14ChiFeature2HDR30MergeFourFrameParsedAWBBGStatsEP11ChiMetadataS1_S1_S1_P15ChiFeature2Hinti+0x37c>
   2363c: 61 ff ff f0  	adrp	x1, 0x12000 <_ZNK14ChiFeature2HDR30MergeFourFrameParsedAWBBGStatsEP11ChiMetadataS1_S1_S1_P15ChiFeature2Hinti+0x3a0>
   23640: 62 ff ff b0  	adrp	x2, 0x10000 <_ZNK14ChiFeature2HDR30MergeFourFrameParsedAWBBGStatsEP11ChiMetadataS1_S1_S1_P15ChiFeature2Hinti+0x39c>
   23644: 25 ff ff f0  	adrp	x5, 0xa000 <_ZNK14ChiFeature2HDR30MergeFourFrameParsedAWBBGStatsEP11ChiMetadataS1_S1_S1_P15ChiFeature2Hinti+0x388>
   23664: 79 ff ff b0  	adrp	x25, 0x10000 <_ZNK14ChiFeature2HDR30MergeFourFrameParsedAWBBGStatsEP11ChiMetadataS1_S1_S1_P15ChiFeature2Hinti+0x3c0>
   23680: 41 ff ff b0  	adrp	x1, 0xc000 <_ZNK14ChiFeature2HDR30MergeFourFrameParsedAWBBGStatsEP11ChiMetadataS1_S1_S1_P15ChiFeature2Hinti+0x3cc>
   23688: 60 ff ff 90  	adrp	x0, 0xf000 <_ZNK14ChiFeature2HDR30MergeFourFrameParsedAWBBGStatsEP11ChiMetadataS1_S1_S1_P15ChiFeature2Hinti+0x3e0>
   2368c: 23 ff ff f0  	adrp	x3, 0xa000 <_ZNK14ChiFeature2HDR30MergeFourFrameParsedAWBBGStatsEP11ChiMetadataS1_S1_S1_P15ChiFeature2Hinti+0x3d0>
   23690: 65 ff ff f0  	adrp	x5, 0x12000 <_ZNK14ChiFeature2HDR30MergeFourFrameParsedAWBBGStatsEP11ChiMetadataS1_S1_S1_P15ChiFeature2Hinti+0x3f4>
   236a8: c6 7a 00 94  	bl	0x421c0 <_ZN6ChiLog9LogSystemEPKcS1_S1_S1_iS1_z@plt>
   236ac: b6 01 00 b4  	cbz	x22, 0x236e0 <_ZNK14ChiFeature2HDR30MergeFourFrameParsedAWBBGStatsEP11ChiMetadataS1_S1_S1_P15ChiFeature2Hinti+0x488>
   236b4: 61 ff ff d0  	adrp	x1, 0x11000 <_ZNK14ChiFeature2HDR30MergeFourFrameParsedAWBBGStatsEP11ChiMetadataS1_S1_S1_P15ChiFeature2Hinti+0x414>
   236bc: 42 ff ff 90  	adrp	x2, 0xb000 <_ZNK14ChiFeature2HDR30MergeFourFrameParsedAWBBGStatsEP11ChiMetadataS1_S1_S1_P15ChiFeature2Hinti+0x404>
   236dc: 2b 00 00 14  	b	0x23788 <_ZNK14ChiFeature2HDR30MergeFourFrameParsedAWBBGStatsEP11ChiMetadataS1_S1_S1_P15ChiFeature2Hinti+0x530>
   236e4: 2c 05 08 36  	tbz	w12, #1, 0x23788 <_ZNK14ChiFeature2HDR30MergeFourFrameParsedAWBBGStatsEP11ChiMetadataS1_S1_S1_P15ChiFeature2Hinti+0x530>
   236e8: 0b 01 00 b0  	adrp	x11, 0x44000 <_ZNK14ChiFeature2HDR30MergeFourFrameParsedAWBBGStatsEP11ChiMetadataS1_S1_S1_P15ChiFeature2Hinti+0x514>
   236f8: 41 02 00 54  	b.ne	0x23740 <_ZNK14ChiFeature2HDR30MergeFourFrameParsedAWBBGStatsEP11ChiMetadataS1_S1_S1_P15ChiFeature2Hinti+0x4e8>
   236fc: 76 ff ff b0  	adrp	x22, 0x10000 <_ZNK14ChiFeature2HDR30MergeFourFrameParsedAWBBGStatsEP11ChiMetadataS1_S1_S1_P15ChiFeature2Hinti+0x458>
   23718: 61 ff ff f0  	adrp	x1, 0x12000 <_ZNK14ChiFeature2HDR30MergeFourFrameParsedAWBBGStatsEP11ChiMetadataS1_S1_S1_P15ChiFeature2Hinti+0x47c>
   2371c: 62 ff ff d0  	adrp	x2, 0x11000 <_ZNK14ChiFeature2HDR30MergeFourFrameParsedAWBBGStatsEP11ChiMetadataS1_S1_S1_P15ChiFeature2Hinti+0x47c>
   23720: 25 ff ff f0  	adrp	x5, 0xa000 <_ZNK14ChiFeature2HDR30MergeFourFrameParsedAWBBGStatsEP11ChiMetadataS1_S1_S1_P15ChiFeature2Hinti+0x464>
   23740: 7a ff ff b0  	adrp	x26, 0x10000 <_ZNK14ChiFeature2HDR30MergeFourFrameParsedAWBBGStatsEP11ChiMetadataS1_S1_S1_P15ChiFeature2Hinti+0x49c>
   2375c: 41 ff ff b0  	adrp	x1, 0xc000 <_ZNK14ChiFeature2HDR30MergeFourFrameParsedAWBBGStatsEP11ChiMetadataS1_S1_S1_P15ChiFeature2Hinti+0x4a8>
   23764: 60 ff ff 90  	adrp	x0, 0xf000 <_ZNK14ChiFeature2HDR30MergeFourFrameParsedAWBBGStatsEP11ChiMetadataS1_S1_S1_P15ChiFeature2Hinti+0x4bc>
   23768: 23 ff ff f0  	adrp	x3, 0xa000 <_ZNK14ChiFeature2HDR30MergeFourFrameParsedAWBBGStatsEP11ChiMetadataS1_S1_S1_P15ChiFeature2Hinti+0x4ac>
   2376c: 65 ff ff f0  	adrp	x5, 0x12000 <_ZNK14ChiFeature2HDR30MergeFourFrameParsedAWBBGStatsEP11ChiMetadataS1_S1_S1_P15ChiFeature2Hinti+0x4d0>
   23784: 8f 7a 00 94  	bl	0x421c0 <_ZN6ChiLog9LogSystemEPKcS1_S1_S1_iS1_z@plt>
   23788: f4 08 00 35  	cbnz	w20, 0x238a4 <_ZNK14ChiFeature2HDR30MergeFourFrameParsedAWBBGStatsEP11ChiMetadataS1_S1_S1_P15ChiFeature2Hinti+0x64c>
   2378c: d5 08 00 b4  	cbz	x21, 0x238a4 <_ZNK14ChiFeature2HDR30MergeFourFrameParsedAWBBGStatsEP11ChiMetadataS1_S1_S1_P15ChiFeature2Hinti+0x64c>
   23794: 61 ff ff d0  	adrp	x1, 0x11000 <_ZNK14ChiFeature2HDR30MergeFourFrameParsedAWBBGStatsEP11ChiMetadataS1_S1_S1_P15ChiFeature2Hinti+0x4f4>
   2379c: 42 ff ff 90  	adrp	x2, 0xb000 <_ZNK14ChiFeature2HDR30MergeFourFrameParsedAWBBGStatsEP11ChiMetadataS1_S1_S1_P15ChiFeature2Hinti+0x4e4>
   237c4: 6e 05 18 36  	tbz	w14, #3, 0x23870 <_ZNK14ChiFeature2HDR30MergeFourFrameParsedAWBBGStatsEP11ChiMetadataS1_S1_S1_P15ChiFeature2Hinti+0x618>
   237c8: 0e 01 00 b0  	adrp	x14, 0x44000 <_ZNK14ChiFeature2HDR30MergeFourFrameParsedAWBBGStatsEP11ChiMetadataS1_S1_S1_P15ChiFeature2Hinti+0x5f4>
   237d8: 61 02 00 54  	b.ne	0x23824 <_ZNK14ChiFeature2HDR30MergeFourFrameParsedAWBBGStatsEP11ChiMetadataS1_S1_S1_P15ChiFeature2Hinti+0x5cc>
   237dc: 75 ff ff b0  	adrp	x21, 0x10000 <_ZNK14ChiFeature2HDR30MergeFourFrameParsedAWBBGStatsEP11ChiMetadataS1_S1_S1_P15ChiFeature2Hinti+0x538>
   237f8: 61 ff ff f0  	adrp	x1, 0x12000 <_ZNK14ChiFeature2HDR30MergeFourFrameParsedAWBBGStatsEP11ChiMetadataS1_S1_S1_P15ChiFeature2Hinti+0x55c>
   237fc: 42 ff ff b0  	adrp	x2, 0xc000 <_ZNK14ChiFeature2HDR30MergeFourFrameParsedAWBBGStatsEP11ChiMetadataS1_S1_S1_P15ChiFeature2Hinti+0x548>
   23800: 25 ff ff f0  	adrp	x5, 0xa000 <_ZNK14ChiFeature2HDR30MergeFourFrameParsedAWBBGStatsEP11ChiMetadataS1_S1_S1_P15ChiFeature2Hinti+0x544>
   23824: 76 ff ff b0  	adrp	x22, 0x10000 <_ZNK14ChiFeature2HDR30MergeFourFrameParsedAWBBGStatsEP11ChiMetadataS1_S1_S1_P15ChiFeature2Hinti+0x580>
   23840: 41 ff ff f0  	adrp	x1, 0xe000 <_ZNK14ChiFeature2HDR30MergeFourFrameParsedAWBBGStatsEP11ChiMetadataS1_S1_S1_P15ChiFeature2Hinti+0x594>
   23848: 60 ff ff f0  	adrp	x0, 0x12000 <_ZNK14ChiFeature2HDR30MergeFourFrameParsedAWBBGStatsEP11ChiMetadataS1_S1_S1_P15ChiFeature2Hinti+0x5ac>
   2384c: 23 ff ff f0  	adrp	x3, 0xa000 <_ZNK14ChiFeature2HDR30MergeFourFrameParsedAWBBGStatsEP11ChiMetadataS1_S1_S1_P15ChiFeature2Hinti+0x590>
   23850: 25 ff ff f0  	adrp	x5, 0xa000 <_ZNK14ChiFeature2HDR30MergeFourFrameParsedAWBBGStatsEP11ChiMetadataS1_S1_S1_P15ChiFeature2Hinti+0x594>
   2386c: 55 7a 00 94  	bl	0x421c0 <_ZN6ChiLog9LogSystemEPKcS1_S1_S1_iS1_z@plt>
   2387c: 61 06 00 54  	b.ne	0x23948 <_ZNK14ChiFeature2HDR30MergeFourFrameParsedAWBBGStatsEP11ChiMetadataS1_S1_S1_P15ChiFeature2Hinti+0x6f0>
   238a8: ad e2 0f 36  	tbz	w13, #1, 0x234fc <_ZNK14ChiFeature2HDR30MergeFourFrameParsedAWBBGStatsEP11ChiMetadataS1_S1_S1_P15ChiFeature2Hinti+0x2a4>
   238ac: 0c 01 00 b0  	adrp	x12, 0x44000 <_ZNK14ChiFeature2HDR30MergeFourFrameParsedAWBBGStatsEP11ChiMetadataS1_S1_S1_P15ChiFeature2Hinti+0x6d8>
   238b0: 75 ff ff b0  	adrp	x21, 0x10000 <_ZNK14ChiFeature2HDR30MergeFourFrameParsedAWBBGStatsEP11ChiMetadataS1_S1_S1_P15ChiFeature2Hinti+0x60c>
   238c4: 01 02 00 54  	b.ne	0x23904 <_ZNK14ChiFeature2HDR30MergeFourFrameParsedAWBBGStatsEP11ChiMetadataS1_S1_S1_P15ChiFeature2Hinti+0x6ac>
   238dc: 61 ff ff f0  	adrp	x1, 0x12000 <_ZNK14ChiFeature2HDR30MergeFourFrameParsedAWBBGStatsEP11ChiMetadataS1_S1_S1_P15ChiFeature2Hinti+0x640>
   238e0: 42 ff ff d0  	adrp	x2, 0xd000 <_ZNK14ChiFeature2HDR30MergeFourFrameParsedAWBBGStatsEP11ChiMetadataS1_S1_S1_P15ChiFeature2Hinti+0x630>
   238e4: 25 ff ff f0  	adrp	x5, 0xa000 <_ZNK14ChiFeature2HDR30MergeFourFrameParsedAWBBGStatsEP11ChiMetadataS1_S1_S1_P15ChiFeature2Hinti+0x628>
   23918: 41 ff ff b0  	adrp	x1, 0xc000 <_ZNK14ChiFeature2HDR30MergeFourFrameParsedAWBBGStatsEP11ChiMetadataS1_S1_S1_P15ChiFeature2Hinti+0x664>
   23920: 60 ff ff 90  	adrp	x0, 0xf000 <_ZNK14ChiFeature2HDR30MergeFourFrameParsedAWBBGStatsEP11ChiMetadataS1_S1_S1_P15ChiFeature2Hinti+0x678>
   23924: 23 ff ff f0  	adrp	x3, 0xa000 <_ZNK14ChiFeature2HDR30MergeFourFrameParsedAWBBGStatsEP11ChiMetadataS1_S1_S1_P15ChiFeature2Hinti+0x668>
   23928: 45 ff ff d0  	adrp	x5, 0xd000 <_ZNK14ChiFeature2HDR30MergeFourFrameParsedAWBBGStatsEP11ChiMetadataS1_S1_S1_P15ChiFeature2Hinti+0x678>
   23940: 20 7a 00 94  	bl	0x421c0 <_ZN6ChiLog9LogSystemEPKcS1_S1_S1_iS1_z@plt>
   23944: ee fe ff 17  	b	0x234fc <_ZNK14ChiFeature2HDR30MergeFourFrameParsedAWBBGStatsEP11ChiMetadataS1_S1_S1_P15ChiFeature2Hinti+0x2a4>
0000000000023950 <_ZNK14ChiFeature2HDR35MergeFourFrameParsedTintlessBGStatsEP11ChiMetadataS1_S1_S1_P15ChiFeature2Hinti>:
   23988: 21 08 00 b4  	cbz	x1, 0x23a8c <_ZNK14ChiFeature2HDR35MergeFourFrameParsedTintlessBGStatsEP11ChiMetadataS1_S1_S1_P15ChiFeature2Hinti+0x13c>
   2398c: 13 08 00 b4  	cbz	x19, 0x23a8c <_ZNK14ChiFeature2HDR35MergeFourFrameParsedTintlessBGStatsEP11ChiMetadataS1_S1_S1_P15ChiFeature2Hinti+0x13c>
   23994: c4 07 00 b4  	cbz	x4, 0x23a8c <_ZNK14ChiFeature2HDR35MergeFourFrameParsedTintlessBGStatsEP11ChiMetadataS1_S1_S1_P15ChiFeature2Hinti+0x13c>
   2399c: a1 14 00 54  	b.ne	0x23c30 <_ZNK14ChiFeature2HDR35MergeFourFrameParsedTintlessBGStatsEP11ChiMetadataS1_S1_S1_P15ChiFeature2Hinti+0x2e0>
   239a0: 1c 01 00 b0  	adrp	x28, 0x44000 <_ZNK14ChiFeature2HDR35MergeFourFrameParsedTintlessBGStatsEP11ChiMetadataS1_S1_S1_P15ChiFeature2Hinti+0xd4>
   239b0: c9 14 18 37  	tbnz	w9, #3, 0x23c48 <_ZNK14ChiFeature2HDR35MergeFourFrameParsedTintlessBGStatsEP11ChiMetadataS1_S1_S1_P15ChiFeature2Hinti+0x2f8>
   239b8: 5a ff ff 90  	adrp	x26, 0xb000 <_ZNK14ChiFeature2HDR35MergeFourFrameParsedTintlessBGStatsEP11ChiMetadataS1_S1_S1_P15ChiFeature2Hinti+0x8>
   239c0: 76 ff ff b0  	adrp	x22, 0x10000 <_ZNK14ChiFeature2HDR35MergeFourFrameParsedTintlessBGStatsEP11ChiMetadataS1_S1_S1_P15ChiFeature2Hinti+0x24>
   23a58: f9 0f 00 b4  	cbz	x25, 0x23c54 <_ZNK14ChiFeature2HDR35MergeFourFrameParsedTintlessBGStatsEP11ChiMetadataS1_S1_S1_P15ChiFeature2Hinti+0x304>
   23a60: 61 ff ff b0  	adrp	x1, 0x10000 <_ZNK14ChiFeature2HDR35MergeFourFrameParsedTintlessBGStatsEP11ChiMetadataS1_S1_S1_P15ChiFeature2Hinti+0xc4>
   23a68: 42 ff ff 90  	adrp	x2, 0xb000 <_ZNK14ChiFeature2HDR35MergeFourFrameParsedTintlessBGStatsEP11ChiMetadataS1_S1_S1_P15ChiFeature2Hinti+0xb8>
   23a88: 9d 00 00 14  	b	0x23cfc <_ZNK14ChiFeature2HDR35MergeFourFrameParsedTintlessBGStatsEP11ChiMetadataS1_S1_S1_P15ChiFeature2Hinti+0x3ac>
   23a8c: 18 01 00 b0  	adrp	x24, 0x44000 <_ZNK14ChiFeature2HDR35MergeFourFrameParsedTintlessBGStatsEP11ChiMetadataS1_S1_S1_P15ChiFeature2Hinti+0x1c0>
   23a98: c8 05 00 36  	tbz	w8, #0, 0x23b50 <_ZNK14ChiFeature2HDR35MergeFourFrameParsedTintlessBGStatsEP11ChiMetadataS1_S1_S1_P15ChiFeature2Hinti+0x200>
   23a9c: 08 01 00 b0  	adrp	x8, 0x44000 <_ZNK14ChiFeature2HDR35MergeFourFrameParsedTintlessBGStatsEP11ChiMetadataS1_S1_S1_P15ChiFeature2Hinti+0x1d0>
   23aac: 81 02 00 54  	b.ne	0x23afc <_ZNK14ChiFeature2HDR35MergeFourFrameParsedTintlessBGStatsEP11ChiMetadataS1_S1_S1_P15ChiFeature2Hinti+0x1ac>
   23ab0: 77 ff ff b0  	adrp	x23, 0x10000 <_ZNK14ChiFeature2HDR35MergeFourFrameParsedTintlessBGStatsEP11ChiMetadataS1_S1_S1_P15ChiFeature2Hinti+0x114>
   23acc: 61 ff ff f0  	adrp	x1, 0x12000 <_ZNK14ChiFeature2HDR35MergeFourFrameParsedTintlessBGStatsEP11ChiMetadataS1_S1_S1_P15ChiFeature2Hinti+0x138>
   23ad0: 42 ff ff 90  	adrp	x2, 0xb000 <_ZNK14ChiFeature2HDR35MergeFourFrameParsedTintlessBGStatsEP11ChiMetadataS1_S1_S1_P15ChiFeature2Hinti+0x120>
   23ad4: 45 ff ff b0  	adrp	x5, 0xc000 <_ZNK14ChiFeature2HDR35MergeFourFrameParsedTintlessBGStatsEP11ChiMetadataS1_S1_S1_P15ChiFeature2Hinti+0x128>
   23afc: 79 ff ff b0  	adrp	x25, 0x10000 <_ZNK14ChiFeature2HDR35MergeFourFrameParsedTintlessBGStatsEP11ChiMetadataS1_S1_S1_P15ChiFeature2Hinti+0x160>
   23b18: 61 ff ff f0  	adrp	x1, 0x12000 <_ZNK14ChiFeature2HDR35MergeFourFrameParsedTintlessBGStatsEP11ChiMetadataS1_S1_S1_P15ChiFeature2Hinti+0x184>
   23b20: 40 ff ff 90  	adrp	x0, 0xb000 <_ZNK14ChiFeature2HDR35MergeFourFrameParsedTintlessBGStatsEP11ChiMetadataS1_S1_S1_P15ChiFeature2Hinti+0x170>
   23b24: 43 ff ff b0  	adrp	x3, 0xc000 <_ZNK14ChiFeature2HDR35MergeFourFrameParsedTintlessBGStatsEP11ChiMetadataS1_S1_S1_P15ChiFeature2Hinti+0x178>
   23b28: 65 ff ff d0  	adrp	x5, 0x11000 <_ZNK14ChiFeature2HDR35MergeFourFrameParsedTintlessBGStatsEP11ChiMetadataS1_S1_S1_P15ChiFeature2Hinti+0x190>
   23b48: 9e 79 00 94  	bl	0x421c0 <_ZN6ChiLog9LogSystemEPKcS1_S1_S1_iS1_z@plt>
   23b50: 68 05 00 36  	tbz	w8, #0, 0x23bfc <_ZNK14ChiFeature2HDR35MergeFourFrameParsedTintlessBGStatsEP11ChiMetadataS1_S1_S1_P15ChiFeature2Hinti+0x2ac>
   23b54: 0d 01 00 b0  	adrp	x13, 0x44000 <_ZNK14ChiFeature2HDR35MergeFourFrameParsedTintlessBGStatsEP11ChiMetadataS1_S1_S1_P15ChiFeature2Hinti+0x288>
   23b64: 61 02 00 54  	b.ne	0x23bb0 <_ZNK14ChiFeature2HDR35MergeFourFrameParsedTintlessBGStatsEP11ChiMetadataS1_S1_S1_P15ChiFeature2Hinti+0x260>
   23b68: 77 ff ff b0  	adrp	x23, 0x10000 <_ZNK14ChiFeature2HDR35MergeFourFrameParsedTintlessBGStatsEP11ChiMetadataS1_S1_S1_P15ChiFeature2Hinti+0x1cc>
   23b84: 61 ff ff f0  	adrp	x1, 0x12000 <_ZNK14ChiFeature2HDR35MergeFourFrameParsedTintlessBGStatsEP11ChiMetadataS1_S1_S1_P15ChiFeature2Hinti+0x1f0>
   23b88: 62 ff ff 90  	adrp	x2, 0xf000 <_ZNK14ChiFeature2HDR35MergeFourFrameParsedTintlessBGStatsEP11ChiMetadataS1_S1_S1_P15ChiFeature2Hinti+0x1e8>
   23b8c: 45 ff ff b0  	adrp	x5, 0xc000 <_ZNK14ChiFeature2HDR35MergeFourFrameParsedTintlessBGStatsEP11ChiMetadataS1_S1_S1_P15ChiFeature2Hinti+0x1e0>
   23bb0: 79 ff ff b0  	adrp	x25, 0x10000 <_ZNK14ChiFeature2HDR35MergeFourFrameParsedTintlessBGStatsEP11ChiMetadataS1_S1_S1_P15ChiFeature2Hinti+0x214>
   23bcc: 61 ff ff f0  	adrp	x1, 0x12000 <_ZNK14ChiFeature2HDR35MergeFourFrameParsedTintlessBGStatsEP11ChiMetadataS1_S1_S1_P15ChiFeature2Hinti+0x238>
   23bd4: 40 ff ff 90  	adrp	x0, 0xb000 <_ZNK14ChiFeature2HDR35MergeFourFrameParsedTintlessBGStatsEP11ChiMetadataS1_S1_S1_P15ChiFeature2Hinti+0x224>
   23bd8: 43 ff ff b0  	adrp	x3, 0xc000 <_ZNK14ChiFeature2HDR35MergeFourFrameParsedTintlessBGStatsEP11ChiMetadataS1_S1_S1_P15ChiFeature2Hinti+0x22c>
   23bdc: 65 ff ff b0  	adrp	x5, 0x10000 <_ZNK14ChiFeature2HDR35MergeFourFrameParsedTintlessBGStatsEP11ChiMetadataS1_S1_S1_P15ChiFeature2Hinti+0x240>
   23bf8: 72 79 00 94  	bl	0x421c0 <_ZN6ChiLog9LogSystemEPKcS1_S1_S1_iS1_z@plt>
   23c0c: c1 01 00 54  	b.ne	0x23c44 <_ZNK14ChiFeature2HDR35MergeFourFrameParsedTintlessBGStatsEP11ChiMetadataS1_S1_S1_P15ChiFeature2Hinti+0x2f4>
   23c40: 80 fe ff 54  	b.eq	0x23c10 <_ZNK14ChiFeature2HDR35MergeFourFrameParsedTintlessBGStatsEP11ChiMetadataS1_S1_S1_P15ChiFeature2Hinti+0x2c0>
   23c58: 2a 05 08 36  	tbz	w10, #1, 0x23cfc <_ZNK14ChiFeature2HDR35MergeFourFrameParsedTintlessBGStatsEP11ChiMetadataS1_S1_S1_P15ChiFeature2Hinti+0x3ac>
   23c5c: 09 01 00 b0  	adrp	x9, 0x44000 <_ZNK14ChiFeature2HDR35MergeFourFrameParsedTintlessBGStatsEP11ChiMetadataS1_S1_S1_P15ChiFeature2Hinti+0x390>
   23c6c: 41 02 00 54  	b.ne	0x23cb4 <_ZNK14ChiFeature2HDR35MergeFourFrameParsedTintlessBGStatsEP11ChiMetadataS1_S1_S1_P15ChiFeature2Hinti+0x364>
   23c70: 79 ff ff b0  	adrp	x25, 0x10000 <_ZNK14ChiFeature2HDR35MergeFourFrameParsedTintlessBGStatsEP11ChiMetadataS1_S1_S1_P15ChiFeature2Hinti+0x2d4>
   23c8c: 61 ff ff f0  	adrp	x1, 0x12000 <_ZNK14ChiFeature2HDR35MergeFourFrameParsedTintlessBGStatsEP11ChiMetadataS1_S1_S1_P15ChiFeature2Hinti+0x2f8>
   23c90: 62 ff ff f0  	adrp	x2, 0x12000 <_ZNK14ChiFeature2HDR35MergeFourFrameParsedTintlessBGStatsEP11ChiMetadataS1_S1_S1_P15ChiFeature2Hinti+0x2fc>
   23c94: 45 ff ff b0  	adrp	x5, 0xc000 <_ZNK14ChiFeature2HDR35MergeFourFrameParsedTintlessBGStatsEP11ChiMetadataS1_S1_S1_P15ChiFeature2Hinti+0x2e8>
   23cb4: 7a ff ff b0  	adrp	x26, 0x10000 <_ZNK14ChiFeature2HDR35MergeFourFrameParsedTintlessBGStatsEP11ChiMetadataS1_S1_S1_P15ChiFeature2Hinti+0x318>
   23cd0: 41 ff ff b0  	adrp	x1, 0xc000 <_ZNK14ChiFeature2HDR35MergeFourFrameParsedTintlessBGStatsEP11ChiMetadataS1_S1_S1_P15ChiFeature2Hinti+0x324>
   23cd8: 60 ff ff 90  	adrp	x0, 0xf000 <_ZNK14ChiFeature2HDR35MergeFourFrameParsedTintlessBGStatsEP11ChiMetadataS1_S1_S1_P15ChiFeature2Hinti+0x338>
   23cdc: 43 ff ff b0  	adrp	x3, 0xc000 <_ZNK14ChiFeature2HDR35MergeFourFrameParsedTintlessBGStatsEP11ChiMetadataS1_S1_S1_P15ChiFeature2Hinti+0x330>
   23ce0: 45 ff ff 90  	adrp	x5, 0xb000 <_ZNK14ChiFeature2HDR35MergeFourFrameParsedTintlessBGStatsEP11ChiMetadataS1_S1_S1_P15ChiFeature2Hinti+0x330>
   23cf8: 32 79 00 94  	bl	0x421c0 <_ZN6ChiLog9LogSystemEPKcS1_S1_S1_iS1_z@plt>
   23cfc: b7 01 00 b4  	cbz	x23, 0x23d30 <_ZNK14ChiFeature2HDR35MergeFourFrameParsedTintlessBGStatsEP11ChiMetadataS1_S1_S1_P15ChiFeature2Hinti+0x3e0>
   23d04: 61 ff ff b0  	adrp	x1, 0x10000 <_ZNK14ChiFeature2HDR35MergeFourFrameParsedTintlessBGStatsEP11ChiMetadataS1_S1_S1_P15ChiFeature2Hinti+0x368>
   23d0c: 42 ff ff 90  	adrp	x2, 0xb000 <_ZNK14ChiFeature2HDR35MergeFourFrameParsedTintlessBGStatsEP11ChiMetadataS1_S1_S1_P15ChiFeature2Hinti+0x35c>
   23d2c: 2b 00 00 14  	b	0x23dd8 <_ZNK14ChiFeature2HDR35MergeFourFrameParsedTintlessBGStatsEP11ChiMetadataS1_S1_S1_P15ChiFeature2Hinti+0x488>
   23d34: 2b 05 08 36  	tbz	w11, #1, 0x23dd8 <_ZNK14ChiFeature2HDR35MergeFourFrameParsedTintlessBGStatsEP11ChiMetadataS1_S1_S1_P15ChiFeature2Hinti+0x488>
   23d38: 0a 01 00 b0  	adrp	x10, 0x44000 <_ZNK14ChiFeature2HDR35MergeFourFrameParsedTintlessBGStatsEP11ChiMetadataS1_S1_S1_P15ChiFeature2Hinti+0x46c>
   23d48: 41 02 00 54  	b.ne	0x23d90 <_ZNK14ChiFeature2HDR35MergeFourFrameParsedTintlessBGStatsEP11ChiMetadataS1_S1_S1_P15ChiFeature2Hinti+0x440>
   23d4c: 77 ff ff b0  	adrp	x23, 0x10000 <_ZNK14ChiFeature2HDR35MergeFourFrameParsedTintlessBGStatsEP11ChiMetadataS1_S1_S1_P15ChiFeature2Hinti+0x3b0>
   23d68: 61 ff ff f0  	adrp	x1, 0x12000 <_ZNK14ChiFeature2HDR35MergeFourFrameParsedTintlessBGStatsEP11ChiMetadataS1_S1_S1_P15ChiFeature2Hinti+0x3d4>
   23d6c: 42 ff ff d0  	adrp	x2, 0xd000 <_ZNK14ChiFeature2HDR35MergeFourFrameParsedTintlessBGStatsEP11ChiMetadataS1_S1_S1_P15ChiFeature2Hinti+0x3c4>
   23d70: 45 ff ff b0  	adrp	x5, 0xc000 <_ZNK14ChiFeature2HDR35MergeFourFrameParsedTintlessBGStatsEP11ChiMetadataS1_S1_S1_P15ChiFeature2Hinti+0x3c4>
   23d90: 79 ff ff b0  	adrp	x25, 0x10000 <_ZNK14ChiFeature2HDR35MergeFourFrameParsedTintlessBGStatsEP11ChiMetadataS1_S1_S1_P15ChiFeature2Hinti+0x3f4>
   23dac: 41 ff ff b0  	adrp	x1, 0xc000 <_ZNK14ChiFeature2HDR35MergeFourFrameParsedTintlessBGStatsEP11ChiMetadataS1_S1_S1_P15ChiFeature2Hinti+0x400>
   23db4: 60 ff ff 90  	adrp	x0, 0xf000 <_ZNK14ChiFeature2HDR35MergeFourFrameParsedTintlessBGStatsEP11ChiMetadataS1_S1_S1_P15ChiFeature2Hinti+0x414>
   23db8: 43 ff ff b0  	adrp	x3, 0xc000 <_ZNK14ChiFeature2HDR35MergeFourFrameParsedTintlessBGStatsEP11ChiMetadataS1_S1_S1_P15ChiFeature2Hinti+0x40c>
   23dbc: 45 ff ff d0  	adrp	x5, 0xd000 <_ZNK14ChiFeature2HDR35MergeFourFrameParsedTintlessBGStatsEP11ChiMetadataS1_S1_S1_P15ChiFeature2Hinti+0x414>
   23dd4: fb 78 00 94  	bl	0x421c0 <_ZN6ChiLog9LogSystemEPKcS1_S1_S1_iS1_z@plt>
   23dd8: b6 01 00 b4  	cbz	x22, 0x23e0c <_ZNK14ChiFeature2HDR35MergeFourFrameParsedTintlessBGStatsEP11ChiMetadataS1_S1_S1_P15ChiFeature2Hinti+0x4bc>
   23de0: 61 ff ff b0  	adrp	x1, 0x10000 <_ZNK14ChiFeature2HDR35MergeFourFrameParsedTintlessBGStatsEP11ChiMetadataS1_S1_S1_P15ChiFeature2Hinti+0x444>
   23de8: 42 ff ff 90  	adrp	x2, 0xb000 <_ZNK14ChiFeature2HDR35MergeFourFrameParsedTintlessBGStatsEP11ChiMetadataS1_S1_S1_P15ChiFeature2Hinti+0x438>
   23e08: 2b 00 00 14  	b	0x23eb4 <_ZNK14ChiFeature2HDR35MergeFourFrameParsedTintlessBGStatsEP11ChiMetadataS1_S1_S1_P15ChiFeature2Hinti+0x564>
   23e10: 2c 05 08 36  	tbz	w12, #1, 0x23eb4 <_ZNK14ChiFeature2HDR35MergeFourFrameParsedTintlessBGStatsEP11ChiMetadataS1_S1_S1_P15ChiFeature2Hinti+0x564>
   23e14: 0b 01 00 b0  	adrp	x11, 0x44000 <_ZNK14ChiFeature2HDR35MergeFourFrameParsedTintlessBGStatsEP11ChiMetadataS1_S1_S1_P15ChiFeature2Hinti+0x548>
   23e24: 41 02 00 54  	b.ne	0x23e6c <_ZNK14ChiFeature2HDR35MergeFourFrameParsedTintlessBGStatsEP11ChiMetadataS1_S1_S1_P15ChiFeature2Hinti+0x51c>
   23e28: 76 ff ff b0  	adrp	x22, 0x10000 <_ZNK14ChiFeature2HDR35MergeFourFrameParsedTintlessBGStatsEP11ChiMetadataS1_S1_S1_P15ChiFeature2Hinti+0x48c>
   23e44: 61 ff ff f0  	adrp	x1, 0x12000 <_ZNK14ChiFeature2HDR35MergeFourFrameParsedTintlessBGStatsEP11ChiMetadataS1_S1_S1_P15ChiFeature2Hinti+0x4b0>
   23e48: 62 ff ff 90  	adrp	x2, 0xf000 <_ZNK14ChiFeature2HDR35MergeFourFrameParsedTintlessBGStatsEP11ChiMetadataS1_S1_S1_P15ChiFeature2Hinti+0x4a8>
   23e4c: 45 ff ff b0  	adrp	x5, 0xc000 <_ZNK14ChiFeature2HDR35MergeFourFrameParsedTintlessBGStatsEP11ChiMetadataS1_S1_S1_P15ChiFeature2Hinti+0x4a0>
   23e6c: 7a ff ff b0  	adrp	x26, 0x10000 <_ZNK14ChiFeature2HDR35MergeFourFrameParsedTintlessBGStatsEP11ChiMetadataS1_S1_S1_P15ChiFeature2Hinti+0x4d0>
   23e88: 41 ff ff b0  	adrp	x1, 0xc000 <_ZNK14ChiFeature2HDR35MergeFourFrameParsedTintlessBGStatsEP11ChiMetadataS1_S1_S1_P15ChiFeature2Hinti+0x4dc>
   23e90: 60 ff ff 90  	adrp	x0, 0xf000 <_ZNK14ChiFeature2HDR35MergeFourFrameParsedTintlessBGStatsEP11ChiMetadataS1_S1_S1_P15ChiFeature2Hinti+0x4f0>
   23e94: 43 ff ff b0  	adrp	x3, 0xc000 <_ZNK14ChiFeature2HDR35MergeFourFrameParsedTintlessBGStatsEP11ChiMetadataS1_S1_S1_P15ChiFeature2Hinti+0x4e8>
   23e98: 65 ff ff b0  	adrp	x5, 0x10000 <_ZNK14ChiFeature2HDR35MergeFourFrameParsedTintlessBGStatsEP11ChiMetadataS1_S1_S1_P15ChiFeature2Hinti+0x4fc>
   23eb0: c4 78 00 94  	bl	0x421c0 <_ZN6ChiLog9LogSystemEPKcS1_S1_S1_iS1_z@plt>
   23eb4: 54 02 00 35  	cbnz	w20, 0x23efc <_ZNK14ChiFeature2HDR35MergeFourFrameParsedTintlessBGStatsEP11ChiMetadataS1_S1_S1_P15ChiFeature2Hinti+0x5ac>
   23eb8: 35 02 00 b4  	cbz	x21, 0x23efc <_ZNK14ChiFeature2HDR35MergeFourFrameParsedTintlessBGStatsEP11ChiMetadataS1_S1_S1_P15ChiFeature2Hinti+0x5ac>
   23ec0: 61 ff ff b0  	adrp	x1, 0x10000 <_ZNK14ChiFeature2HDR35MergeFourFrameParsedTintlessBGStatsEP11ChiMetadataS1_S1_S1_P15ChiFeature2Hinti+0x524>
   23ec8: 42 ff ff 90  	adrp	x2, 0xb000 <_ZNK14ChiFeature2HDR35MergeFourFrameParsedTintlessBGStatsEP11ChiMetadataS1_S1_S1_P15ChiFeature2Hinti+0x518>
   23ef4: e0 e8 ff 54  	b.eq	0x23c10 <_ZNK14ChiFeature2HDR35MergeFourFrameParsedTintlessBGStatsEP11ChiMetadataS1_S1_S1_P15ChiFeature2Hinti+0x2c0>
   23ef8: 53 ff ff 17  	b	0x23c44 <_ZNK14ChiFeature2HDR35MergeFourFrameParsedTintlessBGStatsEP11ChiMetadataS1_S1_S1_P15ChiFeature2Hinti+0x2f4>
   23f00: ed e7 0f 36  	tbz	w13, #1, 0x23bfc <_ZNK14ChiFeature2HDR35MergeFourFrameParsedTintlessBGStatsEP11ChiMetadataS1_S1_S1_P15ChiFeature2Hinti+0x2ac>
   23f04: 0c 01 00 b0  	adrp	x12, 0x44000 <_ZNK14ChiFeature2HDR35MergeFourFrameParsedTintlessBGStatsEP11ChiMetadataS1_S1_S1_P15ChiFeature2Hinti+0x638>
   23f08: 75 ff ff b0  	adrp	x21, 0x10000 <_ZNK14ChiFeature2HDR35MergeFourFrameParsedTintlessBGStatsEP11ChiMetadataS1_S1_S1_P15ChiFeature2Hinti+0x56c>
   23f1c: 01 02 00 54  	b.ne	0x23f5c <_ZNK14ChiFeature2HDR35MergeFourFrameParsedTintlessBGStatsEP11ChiMetadataS1_S1_S1_P15ChiFeature2Hinti+0x60c>
   23f34: 61 ff ff f0  	adrp	x1, 0x12000 <_ZNK14ChiFeature2HDR35MergeFourFrameParsedTintlessBGStatsEP11ChiMetadataS1_S1_S1_P15ChiFeature2Hinti+0x5a0>
   23f38: 42 ff ff d0  	adrp	x2, 0xd000 <_ZNK14ChiFeature2HDR35MergeFourFrameParsedTintlessBGStatsEP11ChiMetadataS1_S1_S1_P15ChiFeature2Hinti+0x590>
   23f3c: 45 ff ff b0  	adrp	x5, 0xc000 <_ZNK14ChiFeature2HDR35MergeFourFrameParsedTintlessBGStatsEP11ChiMetadataS1_S1_S1_P15ChiFeature2Hinti+0x590>
   23f70: 41 ff ff b0  	adrp	x1, 0xc000 <_ZNK14ChiFeature2HDR35MergeFourFrameParsedTintlessBGStatsEP11ChiMetadataS1_S1_S1_P15ChiFeature2Hinti+0x5c4>
   23f78: 60 ff ff 90  	adrp	x0, 0xf000 <_ZNK14ChiFeature2HDR35MergeFourFrameParsedTintlessBGStatsEP11ChiMetadataS1_S1_S1_P15ChiFeature2Hinti+0x5d8>
   23f7c: 43 ff ff b0  	adrp	x3, 0xc000 <_ZNK14ChiFeature2HDR35MergeFourFrameParsedTintlessBGStatsEP11ChiMetadataS1_S1_S1_P15ChiFeature2Hinti+0x5d0>
   23f80: 45 ff ff d0  	adrp	x5, 0xd000 <_ZNK14ChiFeature2HDR35MergeFourFrameParsedTintlessBGStatsEP11ChiMetadataS1_S1_S1_P15ChiFeature2Hinti+0x5d8>
   23f98: 8a 78 00 94  	bl	0x421c0 <_ZN6ChiLog9LogSystemEPKcS1_S1_S1_iS1_z@plt>
   23f9c: 18 ff ff 17  	b	0x23bfc <_ZNK14ChiFeature2HDR35MergeFourFrameParsedTintlessBGStatsEP11ChiMetadataS1_S1_S1_P15ChiFeature2Hinti+0x2ac>
0000000000023fa0 <_ZNK14ChiFeature2HDR30MergeFourFrameIFENRMConfigDataEP11ChiMetadataS1_S1_S1_P15ChiFeature2Hinti>:
   23fc4: 1c 01 00 b0  	adrp	x28, 0x44000 <_ZNK14ChiFeature2HDR30MergeFourFrameIFENRMConfigDataEP11ChiMetadataS1_S1_S1_P15ChiFeature2Hinti+0xa8>
   23fe4: a1 07 00 b4  	cbz	x1, 0x240d8 <_ZNK14ChiFeature2HDR30MergeFourFrameIFENRMConfigDataEP11ChiMetadataS1_S1_S1_P15ChiFeature2Hinti+0x138>
   23fe8: 93 07 00 b4  	cbz	x19, 0x240d8 <_ZNK14ChiFeature2HDR30MergeFourFrameIFENRMConfigDataEP11ChiMetadataS1_S1_S1_P15ChiFeature2Hinti+0x138>
   23fec: 76 07 00 b4  	cbz	x22, 0x240d8 <_ZNK14ChiFeature2HDR30MergeFourFrameIFENRMConfigDataEP11ChiMetadataS1_S1_S1_P15ChiFeature2Hinti+0x138>
   23ff4: 21 13 00 54  	b.ne	0x24258 <_ZNK14ChiFeature2HDR30MergeFourFrameIFENRMConfigDataEP11ChiMetadataS1_S1_S1_P15ChiFeature2Hinti+0x2b8>
   24000: 49 13 18 37  	tbnz	w9, #3, 0x24268 <_ZNK14ChiFeature2HDR30MergeFourFrameIFENRMConfigDataEP11ChiMetadataS1_S1_S1_P15ChiFeature2Hinti+0x2c8>
   24004: 59 ff ff 90  	adrp	x25, 0xc000 <_ZNK14ChiFeature2HDR30MergeFourFrameIFENRMConfigDataEP11ChiMetadataS1_S1_S1_P15ChiFeature2Hinti+0x4>
   24008: 5a ff ff b0  	adrp	x26, 0xd000 <_ZNK14ChiFeature2HDR30MergeFourFrameIFENRMConfigDataEP11ChiMetadataS1_S1_S1_P15ChiFeature2Hinti+0xc>
   240a8: 78 0e 00 b4  	cbz	x24, 0x24274 <_ZNK14ChiFeature2HDR30MergeFourFrameIFENRMConfigDataEP11ChiMetadataS1_S1_S1_P15ChiFeature2Hinti+0x2d4>
   240b0: 41 ff ff 90  	adrp	x1, 0xc000 <_ZNK14ChiFeature2HDR30MergeFourFrameIFENRMConfigDataEP11ChiMetadataS1_S1_S1_P15ChiFeature2Hinti+0xb0>
   240b8: 42 ff ff b0  	adrp	x2, 0xd000 <_ZNK14ChiFeature2HDR30MergeFourFrameIFENRMConfigDataEP11ChiMetadataS1_S1_S1_P15ChiFeature2Hinti+0xbc>
   240d4: 92 00 00 14  	b	0x2431c <_ZNK14ChiFeature2HDR30MergeFourFrameIFENRMConfigDataEP11ChiMetadataS1_S1_S1_P15ChiFeature2Hinti+0x37c>
   240dc: 08 06 00 36  	tbz	w8, #0, 0x2419c <_ZNK14ChiFeature2HDR30MergeFourFrameIFENRMConfigDataEP11ChiMetadataS1_S1_S1_P15ChiFeature2Hinti+0x1fc>
   240e0: 08 01 00 90  	adrp	x8, 0x44000 <_ZNK14ChiFeature2HDR30MergeFourFrameIFENRMConfigDataEP11ChiMetadataS1_S1_S1_P15ChiFeature2Hinti+0x1c0>
   240f0: a1 02 00 54  	b.ne	0x24144 <_ZNK14ChiFeature2HDR30MergeFourFrameIFENRMConfigDataEP11ChiMetadataS1_S1_S1_P15ChiFeature2Hinti+0x1a4>
   240f4: 78 ff ff 90  	adrp	x24, 0x10000 <_ZNK14ChiFeature2HDR30MergeFourFrameIFENRMConfigDataEP11ChiMetadataS1_S1_S1_P15ChiFeature2Hinti+0x104>
   24110: 61 ff ff d0  	adrp	x1, 0x12000 <_ZNK14ChiFeature2HDR30MergeFourFrameIFENRMConfigDataEP11ChiMetadataS1_S1_S1_P15ChiFeature2Hinti+0x128>
   24114: 22 ff ff f0  	adrp	x2, 0xb000 <_ZNK14ChiFeature2HDR30MergeFourFrameIFENRMConfigDataEP11ChiMetadataS1_S1_S1_P15ChiFeature2Hinti+0x110>
   24118: 45 ff ff 90  	adrp	x5, 0xc000 <_ZNK14ChiFeature2HDR30MergeFourFrameIFENRMConfigDataEP11ChiMetadataS1_S1_S1_P15ChiFeature2Hinti+0x118>
   24144: 78 ff ff 90  	adrp	x24, 0x10000 <_ZNK14ChiFeature2HDR30MergeFourFrameIFENRMConfigDataEP11ChiMetadataS1_S1_S1_P15ChiFeature2Hinti+0x154>
   24160: 61 ff ff d0  	adrp	x1, 0x12000 <_ZNK14ChiFeature2HDR30MergeFourFrameIFENRMConfigDataEP11ChiMetadataS1_S1_S1_P15ChiFeature2Hinti+0x178>
   24168: 20 ff ff f0  	adrp	x0, 0xb000 <_ZNK14ChiFeature2HDR30MergeFourFrameIFENRMConfigDataEP11ChiMetadataS1_S1_S1_P15ChiFeature2Hinti+0x164>
   2416c: 43 ff ff 90  	adrp	x3, 0xc000 <_ZNK14ChiFeature2HDR30MergeFourFrameIFENRMConfigDataEP11ChiMetadataS1_S1_S1_P15ChiFeature2Hinti+0x16c>
   24170: 45 ff ff f0  	adrp	x5, 0xf000 <_ZNK14ChiFeature2HDR30MergeFourFrameIFENRMConfigDataEP11ChiMetadataS1_S1_S1_P15ChiFeature2Hinti+0x17c>
   24194: 0b 78 00 94  	bl	0x421c0 <_ZN6ChiLog9LogSystemEPKcS1_S1_S1_iS1_z@plt>
   2419c: 68 05 00 36  	tbz	w8, #0, 0x24248 <_ZNK14ChiFeature2HDR30MergeFourFrameIFENRMConfigDataEP11ChiMetadataS1_S1_S1_P15ChiFeature2Hinti+0x2a8>
   241a0: 0d 01 00 90  	adrp	x13, 0x44000 <_ZNK14ChiFeature2HDR30MergeFourFrameIFENRMConfigDataEP11ChiMetadataS1_S1_S1_P15ChiFeature2Hinti+0x280>
   241b0: 61 02 00 54  	b.ne	0x241fc <_ZNK14ChiFeature2HDR30MergeFourFrameIFENRMConfigDataEP11ChiMetadataS1_S1_S1_P15ChiFeature2Hinti+0x25c>
   241b4: 79 ff ff 90  	adrp	x25, 0x10000 <_ZNK14ChiFeature2HDR30MergeFourFrameIFENRMConfigDataEP11ChiMetadataS1_S1_S1_P15ChiFeature2Hinti+0x1c4>
   241d0: 61 ff ff d0  	adrp	x1, 0x12000 <_ZNK14ChiFeature2HDR30MergeFourFrameIFENRMConfigDataEP11ChiMetadataS1_S1_S1_P15ChiFeature2Hinti+0x1e8>
   241d4: 42 ff ff f0  	adrp	x2, 0xf000 <_ZNK14ChiFeature2HDR30MergeFourFrameIFENRMConfigDataEP11ChiMetadataS1_S1_S1_P15ChiFeature2Hinti+0x1e0>
   241d8: 45 ff ff 90  	adrp	x5, 0xc000 <_ZNK14ChiFeature2HDR30MergeFourFrameIFENRMConfigDataEP11ChiMetadataS1_S1_S1_P15ChiFeature2Hinti+0x1d8>
   241fc: 77 ff ff 90  	adrp	x23, 0x10000 <_ZNK14ChiFeature2HDR30MergeFourFrameIFENRMConfigDataEP11ChiMetadataS1_S1_S1_P15ChiFeature2Hinti+0x20c>
   24218: 61 ff ff d0  	adrp	x1, 0x12000 <_ZNK14ChiFeature2HDR30MergeFourFrameIFENRMConfigDataEP11ChiMetadataS1_S1_S1_P15ChiFeature2Hinti+0x230>
   24220: 20 ff ff f0  	adrp	x0, 0xb000 <_ZNK14ChiFeature2HDR30MergeFourFrameIFENRMConfigDataEP11ChiMetadataS1_S1_S1_P15ChiFeature2Hinti+0x21c>
   24224: 43 ff ff 90  	adrp	x3, 0xc000 <_ZNK14ChiFeature2HDR30MergeFourFrameIFENRMConfigDataEP11ChiMetadataS1_S1_S1_P15ChiFeature2Hinti+0x224>
   24228: 65 ff ff 90  	adrp	x5, 0x10000 <_ZNK14ChiFeature2HDR30MergeFourFrameIFENRMConfigDataEP11ChiMetadataS1_S1_S1_P15ChiFeature2Hinti+0x238>
   24244: df 77 00 94  	bl	0x421c0 <_ZN6ChiLog9LogSystemEPKcS1_S1_S1_iS1_z@plt>
   24250: ce 15 18 37  	tbnz	w14, #3, 0x24508 <_ZNK14ChiFeature2HDR30MergeFourFrameIFENRMConfigDataEP11ChiMetadataS1_S1_S1_P15ChiFeature2Hinti+0x568>
   24254: d7 00 00 14  	b	0x245b0 <_ZNK14ChiFeature2HDR30MergeFourFrameIFENRMConfigDataEP11ChiMetadataS1_S1_S1_P15ChiFeature2Hinti+0x610>
   24260: 4e 15 18 37  	tbnz	w14, #3, 0x24508 <_ZNK14ChiFeature2HDR30MergeFourFrameIFENRMConfigDataEP11ChiMetadataS1_S1_S1_P15ChiFeature2Hinti+0x568>
   24264: d3 00 00 14  	b	0x245b0 <_ZNK14ChiFeature2HDR30MergeFourFrameIFENRMConfigDataEP11ChiMetadataS1_S1_S1_P15ChiFeature2Hinti+0x610>
   24278: 2a 05 00 36  	tbz	w10, #0, 0x2431c <_ZNK14ChiFeature2HDR30MergeFourFrameIFENRMConfigDataEP11ChiMetadataS1_S1_S1_P15ChiFeature2Hinti+0x37c>
   2427c: 09 01 00 90  	adrp	x9, 0x44000 <_ZNK14ChiFeature2HDR30MergeFourFrameIFENRMConfigDataEP11ChiMetadataS1_S1_S1_P15ChiFeature2Hinti+0x35c>
   2428c: 41 02 00 54  	b.ne	0x242d4 <_ZNK14ChiFeature2HDR30MergeFourFrameIFENRMConfigDataEP11ChiMetadataS1_S1_S1_P15ChiFeature2Hinti+0x334>
   24290: 78 ff ff 90  	adrp	x24, 0x10000 <_ZNK14ChiFeature2HDR30MergeFourFrameIFENRMConfigDataEP11ChiMetadataS1_S1_S1_P15ChiFeature2Hinti+0x2a0>
   242ac: 61 ff ff d0  	adrp	x1, 0x12000 <_ZNK14ChiFeature2HDR30MergeFourFrameIFENRMConfigDataEP11ChiMetadataS1_S1_S1_P15ChiFeature2Hinti+0x2c4>
   242b0: 42 ff ff 90  	adrp	x2, 0xc000 <_ZNK14ChiFeature2HDR30MergeFourFrameIFENRMConfigDataEP11ChiMetadataS1_S1_S1_P15ChiFeature2Hinti+0x2b0>
   242b4: 45 ff ff 90  	adrp	x5, 0xc000 <_ZNK14ChiFeature2HDR30MergeFourFrameIFENRMConfigDataEP11ChiMetadataS1_S1_S1_P15ChiFeature2Hinti+0x2b4>
   242d4: 79 ff ff 90  	adrp	x25, 0x10000 <_ZNK14ChiFeature2HDR30MergeFourFrameIFENRMConfigDataEP11ChiMetadataS1_S1_S1_P15ChiFeature2Hinti+0x2e4>
   242f0: 61 ff ff d0  	adrp	x1, 0x12000 <_ZNK14ChiFeature2HDR30MergeFourFrameIFENRMConfigDataEP11ChiMetadataS1_S1_S1_P15ChiFeature2Hinti+0x308>
   242f8: 20 ff ff f0  	adrp	x0, 0xb000 <_ZNK14ChiFeature2HDR30MergeFourFrameIFENRMConfigDataEP11ChiMetadataS1_S1_S1_P15ChiFeature2Hinti+0x2f4>
   242fc: 43 ff ff 90  	adrp	x3, 0xc000 <_ZNK14ChiFeature2HDR30MergeFourFrameIFENRMConfigDataEP11ChiMetadataS1_S1_S1_P15ChiFeature2Hinti+0x2fc>
   24300: 45 ff ff b0  	adrp	x5, 0xd000 <_ZNK14ChiFeature2HDR30MergeFourFrameIFENRMConfigDataEP11ChiMetadataS1_S1_S1_P15ChiFeature2Hinti+0x304>
   24318: aa 77 00 94  	bl	0x421c0 <_ZN6ChiLog9LogSystemEPKcS1_S1_S1_iS1_z@plt>
   2431c: 97 01 00 b4  	cbz	x23, 0x2434c <_ZNK14ChiFeature2HDR30MergeFourFrameIFENRMConfigDataEP11ChiMetadataS1_S1_S1_P15ChiFeature2Hinti+0x3ac>
   24324: 41 ff ff 90  	adrp	x1, 0xc000 <_ZNK14ChiFeature2HDR30MergeFourFrameIFENRMConfigDataEP11ChiMetadataS1_S1_S1_P15ChiFeature2Hinti+0x324>
   2432c: 42 ff ff b0  	adrp	x2, 0xd000 <_ZNK14ChiFeature2HDR30MergeFourFrameIFENRMConfigDataEP11ChiMetadataS1_S1_S1_P15ChiFeature2Hinti+0x330>
   24348: 2b 00 00 14  	b	0x243f4 <_ZNK14ChiFeature2HDR30MergeFourFrameIFENRMConfigDataEP11ChiMetadataS1_S1_S1_P15ChiFeature2Hinti+0x454>
   24350: 2b 05 08 36  	tbz	w11, #1, 0x243f4 <_ZNK14ChiFeature2HDR30MergeFourFrameIFENRMConfigDataEP11ChiMetadataS1_S1_S1_P15ChiFeature2Hinti+0x454>
   24354: 0a 01 00 90  	adrp	x10, 0x44000 <_ZNK14ChiFeature2HDR30MergeFourFrameIFENRMConfigDataEP11ChiMetadataS1_S1_S1_P15ChiFeature2Hinti+0x434>
   24364: 41 02 00 54  	b.ne	0x243ac <_ZNK14ChiFeature2HDR30MergeFourFrameIFENRMConfigDataEP11ChiMetadataS1_S1_S1_P15ChiFeature2Hinti+0x40c>
   24368: 77 ff ff 90  	adrp	x23, 0x10000 <_ZNK14ChiFeature2HDR30MergeFourFrameIFENRMConfigDataEP11ChiMetadataS1_S1_S1_P15ChiFeature2Hinti+0x378>
   24384: 61 ff ff d0  	adrp	x1, 0x12000 <_ZNK14ChiFeature2HDR30MergeFourFrameIFENRMConfigDataEP11ChiMetadataS1_S1_S1_P15ChiFeature2Hinti+0x39c>
   24388: 62 ff ff d0  	adrp	x2, 0x12000 <_ZNK14ChiFeature2HDR30MergeFourFrameIFENRMConfigDataEP11ChiMetadataS1_S1_S1_P15ChiFeature2Hinti+0x3a0>
   2438c: 45 ff ff 90  	adrp	x5, 0xc000 <_ZNK14ChiFeature2HDR30MergeFourFrameIFENRMConfigDataEP11ChiMetadataS1_S1_S1_P15ChiFeature2Hinti+0x38c>
   243ac: 7a ff ff 90  	adrp	x26, 0x10000 <_ZNK14ChiFeature2HDR30MergeFourFrameIFENRMConfigDataEP11ChiMetadataS1_S1_S1_P15ChiFeature2Hinti+0x3bc>
   243c8: 41 ff ff 90  	adrp	x1, 0xc000 <_ZNK14ChiFeature2HDR30MergeFourFrameIFENRMConfigDataEP11ChiMetadataS1_S1_S1_P15ChiFeature2Hinti+0x3c8>
   243d0: 40 ff ff f0  	adrp	x0, 0xf000 <_ZNK14ChiFeature2HDR30MergeFourFrameIFENRMConfigDataEP11ChiMetadataS1_S1_S1_P15ChiFeature2Hinti+0x3dc>
   243d4: 43 ff ff 90  	adrp	x3, 0xc000 <_ZNK14ChiFeature2HDR30MergeFourFrameIFENRMConfigDataEP11ChiMetadataS1_S1_S1_P15ChiFeature2Hinti+0x3d4>
   243d8: 45 ff ff d0  	adrp	x5, 0xe000 <_ZNK14ChiFeature2HDR30MergeFourFrameIFENRMConfigDataEP11ChiMetadataS1_S1_S1_P15ChiFeature2Hinti+0x3e0>
   243f0: 74 77 00 94  	bl	0x421c0 <_ZN6ChiLog9LogSystemEPKcS1_S1_S1_iS1_z@plt>
   243f4: 96 01 00 b4  	cbz	x22, 0x24424 <_ZNK14ChiFeature2HDR30MergeFourFrameIFENRMConfigDataEP11ChiMetadataS1_S1_S1_P15ChiFeature2Hinti+0x484>
   243fc: 41 ff ff 90  	adrp	x1, 0xc000 <_ZNK14ChiFeature2HDR30MergeFourFrameIFENRMConfigDataEP11ChiMetadataS1_S1_S1_P15ChiFeature2Hinti+0x3fc>
   24404: 42 ff ff b0  	adrp	x2, 0xd000 <_ZNK14ChiFeature2HDR30MergeFourFrameIFENRMConfigDataEP11ChiMetadataS1_S1_S1_P15ChiFeature2Hinti+0x408>
   24420: 2b 00 00 14  	b	0x244cc <_ZNK14ChiFeature2HDR30MergeFourFrameIFENRMConfigDataEP11ChiMetadataS1_S1_S1_P15ChiFeature2Hinti+0x52c>
   24428: 2c 05 08 36  	tbz	w12, #1, 0x244cc <_ZNK14ChiFeature2HDR30MergeFourFrameIFENRMConfigDataEP11ChiMetadataS1_S1_S1_P15ChiFeature2Hinti+0x52c>
   2442c: 0b 01 00 90  	adrp	x11, 0x44000 <_ZNK14ChiFeature2HDR30MergeFourFrameIFENRMConfigDataEP11ChiMetadataS1_S1_S1_P15ChiFeature2Hinti+0x50c>
   2443c: 41 02 00 54  	b.ne	0x24484 <_ZNK14ChiFeature2HDR30MergeFourFrameIFENRMConfigDataEP11ChiMetadataS1_S1_S1_P15ChiFeature2Hinti+0x4e4>
   24440: 76 ff ff 90  	adrp	x22, 0x10000 <_ZNK14ChiFeature2HDR30MergeFourFrameIFENRMConfigDataEP11ChiMetadataS1_S1_S1_P15ChiFeature2Hinti+0x450>
   2445c: 61 ff ff d0  	adrp	x1, 0x12000 <_ZNK14ChiFeature2HDR30MergeFourFrameIFENRMConfigDataEP11ChiMetadataS1_S1_S1_P15ChiFeature2Hinti+0x474>
   24460: 62 ff ff 90  	adrp	x2, 0x10000 <_ZNK14ChiFeature2HDR30MergeFourFrameIFENRMConfigDataEP11ChiMetadataS1_S1_S1_P15ChiFeature2Hinti+0x470>
   24464: 45 ff ff 90  	adrp	x5, 0xc000 <_ZNK14ChiFeature2HDR30MergeFourFrameIFENRMConfigDataEP11ChiMetadataS1_S1_S1_P15ChiFeature2Hinti+0x464>
   24484: 78 ff ff 90  	adrp	x24, 0x10000 <_ZNK14ChiFeature2HDR30MergeFourFrameIFENRMConfigDataEP11ChiMetadataS1_S1_S1_P15ChiFeature2Hinti+0x494>
   244a0: 41 ff ff 90  	adrp	x1, 0xc000 <_ZNK14ChiFeature2HDR30MergeFourFrameIFENRMConfigDataEP11ChiMetadataS1_S1_S1_P15ChiFeature2Hinti+0x4a0>
   244a8: 40 ff ff f0  	adrp	x0, 0xf000 <_ZNK14ChiFeature2HDR30MergeFourFrameIFENRMConfigDataEP11ChiMetadataS1_S1_S1_P15ChiFeature2Hinti+0x4b4>
   244ac: 43 ff ff 90  	adrp	x3, 0xc000 <_ZNK14ChiFeature2HDR30MergeFourFrameIFENRMConfigDataEP11ChiMetadataS1_S1_S1_P15ChiFeature2Hinti+0x4ac>
   244b0: 65 ff ff d0  	adrp	x5, 0x12000 <_ZNK14ChiFeature2HDR30MergeFourFrameIFENRMConfigDataEP11ChiMetadataS1_S1_S1_P15ChiFeature2Hinti+0x4c8>
   244c8: 3e 77 00 94  	bl	0x421c0 <_ZN6ChiLog9LogSystemEPKcS1_S1_S1_iS1_z@plt>
   244cc: d4 08 00 35  	cbnz	w20, 0x245e4 <_ZNK14ChiFeature2HDR30MergeFourFrameIFENRMConfigDataEP11ChiMetadataS1_S1_S1_P15ChiFeature2Hinti+0x644>
   244d0: b5 08 00 b4  	cbz	x21, 0x245e4 <_ZNK14ChiFeature2HDR30MergeFourFrameIFENRMConfigDataEP11ChiMetadataS1_S1_S1_P15ChiFeature2Hinti+0x644>
   244d8: 41 ff ff 90  	adrp	x1, 0xc000 <_ZNK14ChiFeature2HDR30MergeFourFrameIFENRMConfigDataEP11ChiMetadataS1_S1_S1_P15ChiFeature2Hinti+0x4d8>
   244e0: 42 ff ff b0  	adrp	x2, 0xd000 <_ZNK14ChiFeature2HDR30MergeFourFrameIFENRMConfigDataEP11ChiMetadataS1_S1_S1_P15ChiFeature2Hinti+0x4e4>
   24504: 6e 05 18 36  	tbz	w14, #3, 0x245b0 <_ZNK14ChiFeature2HDR30MergeFourFrameIFENRMConfigDataEP11ChiMetadataS1_S1_S1_P15ChiFeature2Hinti+0x610>
   24508: 0e 01 00 90  	adrp	x14, 0x44000 <_ZNK14ChiFeature2HDR30MergeFourFrameIFENRMConfigDataEP11ChiMetadataS1_S1_S1_P15ChiFeature2Hinti+0x5e8>
   24518: 61 02 00 54  	b.ne	0x24564 <_ZNK14ChiFeature2HDR30MergeFourFrameIFENRMConfigDataEP11ChiMetadataS1_S1_S1_P15ChiFeature2Hinti+0x5c4>
   2451c: 75 ff ff 90  	adrp	x21, 0x10000 <_ZNK14ChiFeature2HDR30MergeFourFrameIFENRMConfigDataEP11ChiMetadataS1_S1_S1_P15ChiFeature2Hinti+0x52c>
   24538: 61 ff ff d0  	adrp	x1, 0x12000 <_ZNK14ChiFeature2HDR30MergeFourFrameIFENRMConfigDataEP11ChiMetadataS1_S1_S1_P15ChiFeature2Hinti+0x550>
   2453c: 42 ff ff b0  	adrp	x2, 0xd000 <_ZNK14ChiFeature2HDR30MergeFourFrameIFENRMConfigDataEP11ChiMetadataS1_S1_S1_P15ChiFeature2Hinti+0x540>
   24540: 45 ff ff 90  	adrp	x5, 0xc000 <_ZNK14ChiFeature2HDR30MergeFourFrameIFENRMConfigDataEP11ChiMetadataS1_S1_S1_P15ChiFeature2Hinti+0x540>
   24564: 7a ff ff 90  	adrp	x26, 0x10000 <_ZNK14ChiFeature2HDR30MergeFourFrameIFENRMConfigDataEP11ChiMetadataS1_S1_S1_P15ChiFeature2Hinti+0x574>
   24580: 41 ff ff d0  	adrp	x1, 0xe000 <_ZNK14ChiFeature2HDR30MergeFourFrameIFENRMConfigDataEP11ChiMetadataS1_S1_S1_P15ChiFeature2Hinti+0x588>
   24588: 60 ff ff d0  	adrp	x0, 0x12000 <_ZNK14ChiFeature2HDR30MergeFourFrameIFENRMConfigDataEP11ChiMetadataS1_S1_S1_P15ChiFeature2Hinti+0x5a0>
   2458c: 43 ff ff 90  	adrp	x3, 0xc000 <_ZNK14ChiFeature2HDR30MergeFourFrameIFENRMConfigDataEP11ChiMetadataS1_S1_S1_P15ChiFeature2Hinti+0x58c>
   24590: 65 ff ff d0  	adrp	x5, 0x12000 <_ZNK14ChiFeature2HDR30MergeFourFrameIFENRMConfigDataEP11ChiMetadataS1_S1_S1_P15ChiFeature2Hinti+0x5a8>
   245ac: 05 77 00 94  	bl	0x421c0 <_ZN6ChiLog9LogSystemEPKcS1_S1_S1_iS1_z@plt>
   245bc: 61 06 00 54  	b.ne	0x24688 <_ZNK14ChiFeature2HDR30MergeFourFrameIFENRMConfigDataEP11ChiMetadataS1_S1_S1_P15ChiFeature2Hinti+0x6e8>
   245e8: 0d e3 07 36  	tbz	w13, #0, 0x24248 <_ZNK14ChiFeature2HDR30MergeFourFrameIFENRMConfigDataEP11ChiMetadataS1_S1_S1_P15ChiFeature2Hinti+0x2a8>
   245ec: 0c 01 00 90  	adrp	x12, 0x44000 <_ZNK14ChiFeature2HDR30MergeFourFrameIFENRMConfigDataEP11ChiMetadataS1_S1_S1_P15ChiFeature2Hinti+0x6cc>
   245f0: 75 ff ff 90  	adrp	x21, 0x10000 <_ZNK14ChiFeature2HDR30MergeFourFrameIFENRMConfigDataEP11ChiMetadataS1_S1_S1_P15ChiFeature2Hinti+0x600>
   24604: 01 02 00 54  	b.ne	0x24644 <_ZNK14ChiFeature2HDR30MergeFourFrameIFENRMConfigDataEP11ChiMetadataS1_S1_S1_P15ChiFeature2Hinti+0x6a4>
   2461c: 61 ff ff d0  	adrp	x1, 0x12000 <_ZNK14ChiFeature2HDR30MergeFourFrameIFENRMConfigDataEP11ChiMetadataS1_S1_S1_P15ChiFeature2Hinti+0x634>
   24620: 42 ff ff b0  	adrp	x2, 0xd000 <_ZNK14ChiFeature2HDR30MergeFourFrameIFENRMConfigDataEP11ChiMetadataS1_S1_S1_P15ChiFeature2Hinti+0x624>
   24624: 45 ff ff 90  	adrp	x5, 0xc000 <_ZNK14ChiFeature2HDR30MergeFourFrameIFENRMConfigDataEP11ChiMetadataS1_S1_S1_P15ChiFeature2Hinti+0x624>
   24658: 61 ff ff d0  	adrp	x1, 0x12000 <_ZNK14ChiFeature2HDR30MergeFourFrameIFENRMConfigDataEP11ChiMetadataS1_S1_S1_P15ChiFeature2Hinti+0x670>
   24660: 20 ff ff f0  	adrp	x0, 0xb000 <_ZNK14ChiFeature2HDR30MergeFourFrameIFENRMConfigDataEP11ChiMetadataS1_S1_S1_P15ChiFeature2Hinti+0x65c>
   24664: 43 ff ff 90  	adrp	x3, 0xc000 <_ZNK14ChiFeature2HDR30MergeFourFrameIFENRMConfigDataEP11ChiMetadataS1_S1_S1_P15ChiFeature2Hinti+0x664>
   24668: 25 ff ff d0  	adrp	x5, 0xa000 <_ZNK14ChiFeature2HDR30MergeFourFrameIFENRMConfigDataEP11ChiMetadataS1_S1_S1_P15ChiFeature2Hinti+0x660>
   24680: d0 76 00 94  	bl	0x421c0 <_ZN6ChiLog9LogSystemEPKcS1_S1_S1_iS1_z@plt>
   24684: f1 fe ff 17  	b	0x24248 <_ZNK14ChiFeature2HDR30MergeFourFrameIFENRMConfigDataEP11ChiMetadataS1_S1_S1_P15ChiFeature2Hinti+0x2a8>
0000000000024690 <_ZNK14ChiFeature2HDR30MergeFourFrameBPSNRMConfigDataEP11ChiMetadataS1_S1_S1_P15ChiFeature2Hinti>:
   246b4: 1c 01 00 90  	adrp	x28, 0x44000 <_ZNK14ChiFeature2HDR30MergeFourFrameBPSNRMConfigDataEP11ChiMetadataS1_S1_S1_P15ChiFeature2Hinti+0xa4>
   246d4: 81 07 00 b4  	cbz	x1, 0x247c4 <_ZNK14ChiFeature2HDR30MergeFourFrameBPSNRMConfigDataEP11ChiMetadataS1_S1_S1_P15ChiFeature2Hinti+0x134>
   246d8: 73 07 00 b4  	cbz	x19, 0x247c4 <_ZNK14ChiFeature2HDR30MergeFourFrameBPSNRMConfigDataEP11ChiMetadataS1_S1_S1_P15ChiFeature2Hinti+0x134>
   246dc: 56 07 00 b4  	cbz	x22, 0x247c4 <_ZNK14ChiFeature2HDR30MergeFourFrameBPSNRMConfigDataEP11ChiMetadataS1_S1_S1_P15ChiFeature2Hinti+0x134>
   246e4: 01 13 00 54  	b.ne	0x24944 <_ZNK14ChiFeature2HDR30MergeFourFrameBPSNRMConfigDataEP11ChiMetadataS1_S1_S1_P15ChiFeature2Hinti+0x2b4>
   246f0: 29 13 18 37  	tbnz	w9, #3, 0x24954 <_ZNK14ChiFeature2HDR30MergeFourFrameBPSNRMConfigDataEP11ChiMetadataS1_S1_S1_P15ChiFeature2Hinti+0x2c4>
   246f4: 39 ff ff d0  	adrp	x25, 0xa000 <_ZNK14ChiFeature2HDR30MergeFourFrameIFENRMConfigDataEP11ChiMetadataS1_S1_S1_P15ChiFeature2Hinti+0x6ec>
   246f8: 7a ff ff b0  	adrp	x26, 0x11000 <_ZNK14ChiFeature2HDR30MergeFourFrameBPSNRMConfigDataEP11ChiMetadataS1_S1_S1_P15ChiFeature2Hinti+0x1c>
   24798: 43 0e 00 b4  	cbz	x3, 0x24960 <_ZNK14ChiFeature2HDR30MergeFourFrameBPSNRMConfigDataEP11ChiMetadataS1_S1_S1_P15ChiFeature2Hinti+0x2d0>
   247a0: 21 ff ff d0  	adrp	x1, 0xa000 <_ZNK14ChiFeature2HDR30MergeFourFrameBPSNRMConfigDataEP11ChiMetadataS1_S1_S1_P15ChiFeature2Hinti+0xa8>
   247a8: 62 ff ff b0  	adrp	x2, 0x11000 <_ZNK14ChiFeature2HDR30MergeFourFrameBPSNRMConfigDataEP11ChiMetadataS1_S1_S1_P15ChiFeature2Hinti+0xcc>
   247c0: 92 00 00 14  	b	0x24a08 <_ZNK14ChiFeature2HDR30MergeFourFrameBPSNRMConfigDataEP11ChiMetadataS1_S1_S1_P15ChiFeature2Hinti+0x378>
   247c8: 08 06 00 36  	tbz	w8, #0, 0x24888 <_ZNK14ChiFeature2HDR30MergeFourFrameBPSNRMConfigDataEP11ChiMetadataS1_S1_S1_P15ChiFeature2Hinti+0x1f8>
   247cc: 08 01 00 90  	adrp	x8, 0x44000 <_ZNK14ChiFeature2HDR30MergeFourFrameBPSNRMConfigDataEP11ChiMetadataS1_S1_S1_P15ChiFeature2Hinti+0x1bc>
   247dc: a1 02 00 54  	b.ne	0x24830 <_ZNK14ChiFeature2HDR30MergeFourFrameBPSNRMConfigDataEP11ChiMetadataS1_S1_S1_P15ChiFeature2Hinti+0x1a0>
   247e0: 74 ff ff 90  	adrp	x20, 0x10000 <_ZNK14ChiFeature2HDR30MergeFourFrameBPSNRMConfigDataEP11ChiMetadataS1_S1_S1_P15ChiFeature2Hinti+0x100>
   247fc: 61 ff ff d0  	adrp	x1, 0x12000 <_ZNK14ChiFeature2HDR30MergeFourFrameBPSNRMConfigDataEP11ChiMetadataS1_S1_S1_P15ChiFeature2Hinti+0x124>
   24800: 22 ff ff f0  	adrp	x2, 0xb000 <_ZNK14ChiFeature2HDR30MergeFourFrameBPSNRMConfigDataEP11ChiMetadataS1_S1_S1_P15ChiFeature2Hinti+0x10c>
   24804: 65 ff ff 90  	adrp	x5, 0x10000 <_ZNK14ChiFeature2HDR30MergeFourFrameBPSNRMConfigDataEP11ChiMetadataS1_S1_S1_P15ChiFeature2Hinti+0x124>
   24830: 74 ff ff 90  	adrp	x20, 0x10000 <_ZNK14ChiFeature2HDR30MergeFourFrameBPSNRMConfigDataEP11ChiMetadataS1_S1_S1_P15ChiFeature2Hinti+0x150>
   2484c: 61 ff ff d0  	adrp	x1, 0x12000 <_ZNK14ChiFeature2HDR30MergeFourFrameBPSNRMConfigDataEP11ChiMetadataS1_S1_S1_P15ChiFeature2Hinti+0x174>
   24854: 20 ff ff f0  	adrp	x0, 0xb000 <_ZNK14ChiFeature2HDR30MergeFourFrameBPSNRMConfigDataEP11ChiMetadataS1_S1_S1_P15ChiFeature2Hinti+0x160>
   24858: 63 ff ff 90  	adrp	x3, 0x10000 <_ZNK14ChiFeature2HDR30MergeFourFrameBPSNRMConfigDataEP11ChiMetadataS1_S1_S1_P15ChiFeature2Hinti+0x178>
   2485c: 45 ff ff f0  	adrp	x5, 0xf000 <_ZNK14ChiFeature2HDR30MergeFourFrameBPSNRMConfigDataEP11ChiMetadataS1_S1_S1_P15ChiFeature2Hinti+0x178>
   24880: 50 76 00 94  	bl	0x421c0 <_ZN6ChiLog9LogSystemEPKcS1_S1_S1_iS1_z@plt>
   24888: 68 05 00 36  	tbz	w8, #0, 0x24934 <_ZNK14ChiFeature2HDR30MergeFourFrameBPSNRMConfigDataEP11ChiMetadataS1_S1_S1_P15ChiFeature2Hinti+0x2a4>
   2488c: 0d 01 00 90  	adrp	x13, 0x44000 <_ZNK14ChiFeature2HDR30MergeFourFrameBPSNRMConfigDataEP11ChiMetadataS1_S1_S1_P15ChiFeature2Hinti+0x27c>
   2489c: 61 02 00 54  	b.ne	0x248e8 <_ZNK14ChiFeature2HDR30MergeFourFrameBPSNRMConfigDataEP11ChiMetadataS1_S1_S1_P15ChiFeature2Hinti+0x258>
   248a0: 74 ff ff 90  	adrp	x20, 0x10000 <_ZNK14ChiFeature2HDR30MergeFourFrameBPSNRMConfigDataEP11ChiMetadataS1_S1_S1_P15ChiFeature2Hinti+0x1c0>
   248bc: 61 ff ff d0  	adrp	x1, 0x12000 <_ZNK14ChiFeature2HDR30MergeFourFrameBPSNRMConfigDataEP11ChiMetadataS1_S1_S1_P15ChiFeature2Hinti+0x1e4>
   248c0: 42 ff ff f0  	adrp	x2, 0xf000 <_ZNK14ChiFeature2HDR30MergeFourFrameBPSNRMConfigDataEP11ChiMetadataS1_S1_S1_P15ChiFeature2Hinti+0x1dc>
   248c4: 65 ff ff 90  	adrp	x5, 0x10000 <_ZNK14ChiFeature2HDR30MergeFourFrameBPSNRMConfigDataEP11ChiMetadataS1_S1_S1_P15ChiFeature2Hinti+0x1e4>
   248e8: 77 ff ff 90  	adrp	x23, 0x10000 <_ZNK14ChiFeature2HDR30MergeFourFrameBPSNRMConfigDataEP11ChiMetadataS1_S1_S1_P15ChiFeature2Hinti+0x208>
   24904: 61 ff ff d0  	adrp	x1, 0x12000 <_ZNK14ChiFeature2HDR30MergeFourFrameBPSNRMConfigDataEP11ChiMetadataS1_S1_S1_P15ChiFeature2Hinti+0x22c>
   2490c: 20 ff ff f0  	adrp	x0, 0xb000 <_ZNK14ChiFeature2HDR30MergeFourFrameBPSNRMConfigDataEP11ChiMetadataS1_S1_S1_P15ChiFeature2Hinti+0x218>
   24910: 63 ff ff 90  	adrp	x3, 0x10000 <_ZNK14ChiFeature2HDR30MergeFourFrameBPSNRMConfigDataEP11ChiMetadataS1_S1_S1_P15ChiFeature2Hinti+0x230>
   24914: 65 ff ff 90  	adrp	x5, 0x10000 <_ZNK14ChiFeature2HDR30MergeFourFrameBPSNRMConfigDataEP11ChiMetadataS1_S1_S1_P15ChiFeature2Hinti+0x234>
   24930: 24 76 00 94  	bl	0x421c0 <_ZN6ChiLog9LogSystemEPKcS1_S1_S1_iS1_z@plt>
   2493c: ce 15 18 37  	tbnz	w14, #3, 0x24bf4 <_ZNK14ChiFeature2HDR30MergeFourFrameBPSNRMConfigDataEP11ChiMetadataS1_S1_S1_P15ChiFeature2Hinti+0x564>
   24940: d7 00 00 14  	b	0x24c9c <_ZNK14ChiFeature2HDR30MergeFourFrameBPSNRMConfigDataEP11ChiMetadataS1_S1_S1_P15ChiFeature2Hinti+0x60c>
   2494c: 4e 15 18 37  	tbnz	w14, #3, 0x24bf4 <_ZNK14ChiFeature2HDR30MergeFourFrameBPSNRMConfigDataEP11ChiMetadataS1_S1_S1_P15ChiFeature2Hinti+0x564>
   24950: d3 00 00 14  	b	0x24c9c <_ZNK14ChiFeature2HDR30MergeFourFrameBPSNRMConfigDataEP11ChiMetadataS1_S1_S1_P15ChiFeature2Hinti+0x60c>
   24964: 2a 05 00 36  	tbz	w10, #0, 0x24a08 <_ZNK14ChiFeature2HDR30MergeFourFrameBPSNRMConfigDataEP11ChiMetadataS1_S1_S1_P15ChiFeature2Hinti+0x378>
   24968: 09 01 00 90  	adrp	x9, 0x44000 <_ZNK14ChiFeature2HDR30MergeFourFrameBPSNRMConfigDataEP11ChiMetadataS1_S1_S1_P15ChiFeature2Hinti+0x358>
   24978: 41 02 00 54  	b.ne	0x249c0 <_ZNK14ChiFeature2HDR30MergeFourFrameBPSNRMConfigDataEP11ChiMetadataS1_S1_S1_P15ChiFeature2Hinti+0x330>
   2497c: 79 ff ff 90  	adrp	x25, 0x10000 <_ZNK14ChiFeature2HDR30MergeFourFrameBPSNRMConfigDataEP11ChiMetadataS1_S1_S1_P15ChiFeature2Hinti+0x29c>
   24998: 61 ff ff d0  	adrp	x1, 0x12000 <_ZNK14ChiFeature2HDR30MergeFourFrameBPSNRMConfigDataEP11ChiMetadataS1_S1_S1_P15ChiFeature2Hinti+0x2c0>
   2499c: 42 ff ff f0  	adrp	x2, 0xf000 <_ZNK14ChiFeature2HDR30MergeFourFrameBPSNRMConfigDataEP11ChiMetadataS1_S1_S1_P15ChiFeature2Hinti+0x2b8>
   249a0: 65 ff ff 90  	adrp	x5, 0x10000 <_ZNK14ChiFeature2HDR30MergeFourFrameBPSNRMConfigDataEP11ChiMetadataS1_S1_S1_P15ChiFeature2Hinti+0x2c0>
   249c0: 7a ff ff 90  	adrp	x26, 0x10000 <_ZNK14ChiFeature2HDR30MergeFourFrameBPSNRMConfigDataEP11ChiMetadataS1_S1_S1_P15ChiFeature2Hinti+0x2e0>
   249dc: 61 ff ff d0  	adrp	x1, 0x12000 <_ZNK14ChiFeature2HDR30MergeFourFrameBPSNRMConfigDataEP11ChiMetadataS1_S1_S1_P15ChiFeature2Hinti+0x304>
   249e4: 20 ff ff f0  	adrp	x0, 0xb000 <_ZNK14ChiFeature2HDR30MergeFourFrameBPSNRMConfigDataEP11ChiMetadataS1_S1_S1_P15ChiFeature2Hinti+0x2f0>
   249e8: 63 ff ff 90  	adrp	x3, 0x10000 <_ZNK14ChiFeature2HDR30MergeFourFrameBPSNRMConfigDataEP11ChiMetadataS1_S1_S1_P15ChiFeature2Hinti+0x308>
   249ec: 65 ff ff b0  	adrp	x5, 0x11000 <_ZNK14ChiFeature2HDR30MergeFourFrameBPSNRMConfigDataEP11ChiMetadataS1_S1_S1_P15ChiFeature2Hinti+0x310>
   24a04: ef 75 00 94  	bl	0x421c0 <_ZN6ChiLog9LogSystemEPKcS1_S1_S1_iS1_z@plt>
   24a08: 97 01 00 b4  	cbz	x23, 0x24a38 <_ZNK14ChiFeature2HDR30MergeFourFrameBPSNRMConfigDataEP11ChiMetadataS1_S1_S1_P15ChiFeature2Hinti+0x3a8>
   24a10: 21 ff ff d0  	adrp	x1, 0xa000 <_ZNK14ChiFeature2HDR30MergeFourFrameBPSNRMConfigDataEP11ChiMetadataS1_S1_S1_P15ChiFeature2Hinti+0x318>
   24a18: 62 ff ff b0  	adrp	x2, 0x11000 <_ZNK14ChiFeature2HDR30MergeFourFrameBPSNRMConfigDataEP11ChiMetadataS1_S1_S1_P15ChiFeature2Hinti+0x33c>
   24a34: 2b 00 00 14  	b	0x24ae0 <_ZNK14ChiFeature2HDR30MergeFourFrameBPSNRMConfigDataEP11ChiMetadataS1_S1_S1_P15ChiFeature2Hinti+0x450>
   24a3c: 2b 05 08 36  	tbz	w11, #1, 0x24ae0 <_ZNK14ChiFeature2HDR30MergeFourFrameBPSNRMConfigDataEP11ChiMetadataS1_S1_S1_P15ChiFeature2Hinti+0x450>
   24a40: 0a 01 00 90  	adrp	x10, 0x44000 <_ZNK14ChiFeature2HDR30MergeFourFrameBPSNRMConfigDataEP11ChiMetadataS1_S1_S1_P15ChiFeature2Hinti+0x430>
   24a50: 41 02 00 54  	b.ne	0x24a98 <_ZNK14ChiFeature2HDR30MergeFourFrameBPSNRMConfigDataEP11ChiMetadataS1_S1_S1_P15ChiFeature2Hinti+0x408>
   24a54: 77 ff ff 90  	adrp	x23, 0x10000 <_ZNK14ChiFeature2HDR30MergeFourFrameBPSNRMConfigDataEP11ChiMetadataS1_S1_S1_P15ChiFeature2Hinti+0x374>
   24a70: 61 ff ff d0  	adrp	x1, 0x12000 <_ZNK14ChiFeature2HDR30MergeFourFrameBPSNRMConfigDataEP11ChiMetadataS1_S1_S1_P15ChiFeature2Hinti+0x398>
   24a74: 62 ff ff d0  	adrp	x2, 0x12000 <_ZNK14ChiFeature2HDR30MergeFourFrameBPSNRMConfigDataEP11ChiMetadataS1_S1_S1_P15ChiFeature2Hinti+0x39c>
   24a78: 65 ff ff 90  	adrp	x5, 0x10000 <_ZNK14ChiFeature2HDR30MergeFourFrameBPSNRMConfigDataEP11ChiMetadataS1_S1_S1_P15ChiFeature2Hinti+0x398>
   24a98: 79 ff ff 90  	adrp	x25, 0x10000 <_ZNK14ChiFeature2HDR30MergeFourFrameBPSNRMConfigDataEP11ChiMetadataS1_S1_S1_P15ChiFeature2Hinti+0x3b8>
   24ab4: 41 ff ff 90  	adrp	x1, 0xc000 <_ZNK14ChiFeature2HDR30MergeFourFrameBPSNRMConfigDataEP11ChiMetadataS1_S1_S1_P15ChiFeature2Hinti+0x3c4>
   24abc: 40 ff ff f0  	adrp	x0, 0xf000 <_ZNK14ChiFeature2HDR30MergeFourFrameBPSNRMConfigDataEP11ChiMetadataS1_S1_S1_P15ChiFeature2Hinti+0x3d8>
   24ac0: 63 ff ff 90  	adrp	x3, 0x10000 <_ZNK14ChiFeature2HDR30MergeFourFrameBPSNRMConfigDataEP11ChiMetadataS1_S1_S1_P15ChiFeature2Hinti+0x3e0>
   24ac4: 45 ff ff d0  	adrp	x5, 0xe000 <_ZNK14ChiFeature2HDR30MergeFourFrameBPSNRMConfigDataEP11ChiMetadataS1_S1_S1_P15ChiFeature2Hinti+0x3dc>
   24adc: b9 75 00 94  	bl	0x421c0 <_ZN6ChiLog9LogSystemEPKcS1_S1_S1_iS1_z@plt>
   24ae0: 96 01 00 b4  	cbz	x22, 0x24b10 <_ZNK14ChiFeature2HDR30MergeFourFrameBPSNRMConfigDataEP11ChiMetadataS1_S1_S1_P15ChiFeature2Hinti+0x480>
   24ae8: 21 ff ff d0  	adrp	x1, 0xa000 <_ZNK14ChiFeature2HDR30MergeFourFrameBPSNRMConfigDataEP11ChiMetadataS1_S1_S1_P15ChiFeature2Hinti+0x3f0>
   24af0: 62 ff ff b0  	adrp	x2, 0x11000 <_ZNK14ChiFeature2HDR30MergeFourFrameBPSNRMConfigDataEP11ChiMetadataS1_S1_S1_P15ChiFeature2Hinti+0x414>
   24b0c: 2b 00 00 14  	b	0x24bb8 <_ZNK14ChiFeature2HDR30MergeFourFrameBPSNRMConfigDataEP11ChiMetadataS1_S1_S1_P15ChiFeature2Hinti+0x528>
   24b14: 2c 05 08 36  	tbz	w12, #1, 0x24bb8 <_ZNK14ChiFeature2HDR30MergeFourFrameBPSNRMConfigDataEP11ChiMetadataS1_S1_S1_P15ChiFeature2Hinti+0x528>
   24b18: 0b 01 00 90  	adrp	x11, 0x44000 <_ZNK14ChiFeature2HDR30MergeFourFrameBPSNRMConfigDataEP11ChiMetadataS1_S1_S1_P15ChiFeature2Hinti+0x508>
   24b28: 41 02 00 54  	b.ne	0x24b70 <_ZNK14ChiFeature2HDR30MergeFourFrameBPSNRMConfigDataEP11ChiMetadataS1_S1_S1_P15ChiFeature2Hinti+0x4e0>
   24b2c: 76 ff ff 90  	adrp	x22, 0x10000 <_ZNK14ChiFeature2HDR30MergeFourFrameBPSNRMConfigDataEP11ChiMetadataS1_S1_S1_P15ChiFeature2Hinti+0x44c>
   24b48: 61 ff ff d0  	adrp	x1, 0x12000 <_ZNK14ChiFeature2HDR30MergeFourFrameBPSNRMConfigDataEP11ChiMetadataS1_S1_S1_P15ChiFeature2Hinti+0x470>
   24b4c: 62 ff ff 90  	adrp	x2, 0x10000 <_ZNK14ChiFeature2HDR30MergeFourFrameBPSNRMConfigDataEP11ChiMetadataS1_S1_S1_P15ChiFeature2Hinti+0x46c>
   24b50: 65 ff ff 90  	adrp	x5, 0x10000 <_ZNK14ChiFeature2HDR30MergeFourFrameBPSNRMConfigDataEP11ChiMetadataS1_S1_S1_P15ChiFeature2Hinti+0x470>
   24b70: 7a ff ff 90  	adrp	x26, 0x10000 <_ZNK14ChiFeature2HDR30MergeFourFrameBPSNRMConfigDataEP11ChiMetadataS1_S1_S1_P15ChiFeature2Hinti+0x490>
   24b8c: 41 ff ff 90  	adrp	x1, 0xc000 <_ZNK14ChiFeature2HDR30MergeFourFrameBPSNRMConfigDataEP11ChiMetadataS1_S1_S1_P15ChiFeature2Hinti+0x49c>
   24b94: 40 ff ff f0  	adrp	x0, 0xf000 <_ZNK14ChiFeature2HDR30MergeFourFrameBPSNRMConfigDataEP11ChiMetadataS1_S1_S1_P15ChiFeature2Hinti+0x4b0>
   24b98: 63 ff ff 90  	adrp	x3, 0x10000 <_ZNK14ChiFeature2HDR30MergeFourFrameBPSNRMConfigDataEP11ChiMetadataS1_S1_S1_P15ChiFeature2Hinti+0x4b8>
   24b9c: 65 ff ff d0  	adrp	x5, 0x12000 <_ZNK14ChiFeature2HDR30MergeFourFrameBPSNRMConfigDataEP11ChiMetadataS1_S1_S1_P15ChiFeature2Hinti+0x4c4>
   24bb4: 83 75 00 94  	bl	0x421c0 <_ZN6ChiLog9LogSystemEPKcS1_S1_S1_iS1_z@plt>
   24bb8: d4 08 00 35  	cbnz	w20, 0x24cd0 <_ZNK14ChiFeature2HDR30MergeFourFrameBPSNRMConfigDataEP11ChiMetadataS1_S1_S1_P15ChiFeature2Hinti+0x640>
   24bbc: b5 08 00 b4  	cbz	x21, 0x24cd0 <_ZNK14ChiFeature2HDR30MergeFourFrameBPSNRMConfigDataEP11ChiMetadataS1_S1_S1_P15ChiFeature2Hinti+0x640>
   24bc4: 21 ff ff d0  	adrp	x1, 0xa000 <_ZNK14ChiFeature2HDR30MergeFourFrameBPSNRMConfigDataEP11ChiMetadataS1_S1_S1_P15ChiFeature2Hinti+0x4cc>
   24bcc: 62 ff ff b0  	adrp	x2, 0x11000 <_ZNK14ChiFeature2HDR30MergeFourFrameBPSNRMConfigDataEP11ChiMetadataS1_S1_S1_P15ChiFeature2Hinti+0x4f0>
   24bf0: 6e 05 18 36  	tbz	w14, #3, 0x24c9c <_ZNK14ChiFeature2HDR30MergeFourFrameBPSNRMConfigDataEP11ChiMetadataS1_S1_S1_P15ChiFeature2Hinti+0x60c>
   24bf4: 0e 01 00 90  	adrp	x14, 0x44000 <_ZNK14ChiFeature2HDR30MergeFourFrameBPSNRMConfigDataEP11ChiMetadataS1_S1_S1_P15ChiFeature2Hinti+0x5e4>
   24c04: 61 02 00 54  	b.ne	0x24c50 <_ZNK14ChiFeature2HDR30MergeFourFrameBPSNRMConfigDataEP11ChiMetadataS1_S1_S1_P15ChiFeature2Hinti+0x5c0>
   24c08: 75 ff ff 90  	adrp	x21, 0x10000 <_ZNK14ChiFeature2HDR30MergeFourFrameBPSNRMConfigDataEP11ChiMetadataS1_S1_S1_P15ChiFeature2Hinti+0x528>
   24c24: 61 ff ff d0  	adrp	x1, 0x12000 <_ZNK14ChiFeature2HDR30MergeFourFrameBPSNRMConfigDataEP11ChiMetadataS1_S1_S1_P15ChiFeature2Hinti+0x54c>
   24c28: 42 ff ff b0  	adrp	x2, 0xd000 <_ZNK14ChiFeature2HDR30MergeFourFrameBPSNRMConfigDataEP11ChiMetadataS1_S1_S1_P15ChiFeature2Hinti+0x53c>
   24c2c: 65 ff ff 90  	adrp	x5, 0x10000 <_ZNK14ChiFeature2HDR30MergeFourFrameBPSNRMConfigDataEP11ChiMetadataS1_S1_S1_P15ChiFeature2Hinti+0x54c>
   24c50: 79 ff ff 90  	adrp	x25, 0x10000 <_ZNK14ChiFeature2HDR30MergeFourFrameBPSNRMConfigDataEP11ChiMetadataS1_S1_S1_P15ChiFeature2Hinti+0x570>
   24c6c: 41 ff ff d0  	adrp	x1, 0xe000 <_ZNK14ChiFeature2HDR30MergeFourFrameBPSNRMConfigDataEP11ChiMetadataS1_S1_S1_P15ChiFeature2Hinti+0x584>
   24c74: 60 ff ff d0  	adrp	x0, 0x12000 <_ZNK14ChiFeature2HDR30MergeFourFrameBPSNRMConfigDataEP11ChiMetadataS1_S1_S1_P15ChiFeature2Hinti+0x59c>
   24c78: 63 ff ff 90  	adrp	x3, 0x10000 <_ZNK14ChiFeature2HDR30MergeFourFrameBPSNRMConfigDataEP11ChiMetadataS1_S1_S1_P15ChiFeature2Hinti+0x598>
   24c7c: 65 ff ff d0  	adrp	x5, 0x12000 <_ZNK14ChiFeature2HDR30MergeFourFrameBPSNRMConfigDataEP11ChiMetadataS1_S1_S1_P15ChiFeature2Hinti+0x5a4>
   24c98: 4a 75 00 94  	bl	0x421c0 <_ZN6ChiLog9LogSystemEPKcS1_S1_S1_iS1_z@plt>
   24ca8: 61 06 00 54  	b.ne	0x24d74 <_ZNK14ChiFeature2HDR30MergeFourFrameBPSNRMConfigDataEP11ChiMetadataS1_S1_S1_P15ChiFeature2Hinti+0x6e4>
   24cd4: 0d e3 07 36  	tbz	w13, #0, 0x24934 <_ZNK14ChiFeature2HDR30MergeFourFrameBPSNRMConfigDataEP11ChiMetadataS1_S1_S1_P15ChiFeature2Hinti+0x2a4>
   24cd8: 0c 01 00 90  	adrp	x12, 0x44000 <_ZNK14ChiFeature2HDR30MergeFourFrameBPSNRMConfigDataEP11ChiMetadataS1_S1_S1_P15ChiFeature2Hinti+0x6c8>
   24cdc: 75 ff ff 90  	adrp	x21, 0x10000 <_ZNK14ChiFeature2HDR30MergeFourFrameBPSNRMConfigDataEP11ChiMetadataS1_S1_S1_P15ChiFeature2Hinti+0x5fc>
   24cf0: 01 02 00 54  	b.ne	0x24d30 <_ZNK14ChiFeature2HDR30MergeFourFrameBPSNRMConfigDataEP11ChiMetadataS1_S1_S1_P15ChiFeature2Hinti+0x6a0>
   24d08: 61 ff ff d0  	adrp	x1, 0x12000 <_ZNK14ChiFeature2HDR30MergeFourFrameBPSNRMConfigDataEP11ChiMetadataS1_S1_S1_P15ChiFeature2Hinti+0x630>
   24d0c: 42 ff ff b0  	adrp	x2, 0xd000 <_ZNK14ChiFeature2HDR30MergeFourFrameBPSNRMConfigDataEP11ChiMetadataS1_S1_S1_P15ChiFeature2Hinti+0x620>
   24d10: 65 ff ff 90  	adrp	x5, 0x10000 <_ZNK14ChiFeature2HDR30MergeFourFrameBPSNRMConfigDataEP11ChiMetadataS1_S1_S1_P15ChiFeature2Hinti+0x630>
   24d44: 61 ff ff d0  	adrp	x1, 0x12000 <_ZNK14ChiFeature2HDR30MergeFourFrameBPSNRMConfigDataEP11ChiMetadataS1_S1_S1_P15ChiFeature2Hinti+0x66c>
   24d4c: 20 ff ff f0  	adrp	x0, 0xb000 <_ZNK14ChiFeature2HDR30MergeFourFrameBPSNRMConfigDataEP11ChiMetadataS1_S1_S1_P15ChiFeature2Hinti+0x658>
   24d50: 63 ff ff 90  	adrp	x3, 0x10000 <_ZNK14ChiFeature2HDR30MergeFourFrameBPSNRMConfigDataEP11ChiMetadataS1_S1_S1_P15ChiFeature2Hinti+0x670>
   24d54: 25 ff ff d0  	adrp	x5, 0xa000 <_ZNK14ChiFeature2HDR30MergeFourFrameBPSNRMConfigDataEP11ChiMetadataS1_S1_S1_P15ChiFeature2Hinti+0x65c>
   24d6c: 15 75 00 94  	bl	0x421c0 <_ZN6ChiLog9LogSystemEPKcS1_S1_S1_iS1_z@plt>
   24d70: f1 fe ff 17  	b	0x24934 <_ZNK14ChiFeature2HDR30MergeFourFrameBPSNRMConfigDataEP11ChiMetadataS1_S1_S1_P15ChiFeature2Hinti+0x2a4>
0000000000024d78 <_ZNK14ChiFeature2HDR33MergeFourFrameParsedHDRBHistStatsEP11ChiMetadataS1_S1_S1_P15ChiFeature2Hint>:
   24db4: c1 07 00 b4  	cbz	x1, 0x24eac <_ZNK14ChiFeature2HDR33MergeFourFrameParsedHDRBHistStatsEP11ChiMetadataS1_S1_S1_P15ChiFeature2Hint+0x134>
   24db8: b3 07 00 b4  	cbz	x19, 0x24eac <_ZNK14ChiFeature2HDR33MergeFourFrameParsedHDRBHistStatsEP11ChiMetadataS1_S1_S1_P15ChiFeature2Hint+0x134>
   24dbc: 95 07 00 b4  	cbz	x21, 0x24eac <_ZNK14ChiFeature2HDR33MergeFourFrameParsedHDRBHistStatsEP11ChiMetadataS1_S1_S1_P15ChiFeature2Hint+0x134>
   24dc4: a1 14 00 54  	b.ne	0x25058 <_ZNK14ChiFeature2HDR33MergeFourFrameParsedHDRBHistStatsEP11ChiMetadataS1_S1_S1_P15ChiFeature2Hint+0x2e0>
   24dc8: 1b 01 00 90  	adrp	x27, 0x44000 <_ZNK14ChiFeature2HDR33MergeFourFrameParsedHDRBHistStatsEP11ChiMetadataS1_S1_S1_P15ChiFeature2Hint+0xd0>
   24dd4: e9 14 18 37  	tbnz	w9, #3, 0x25070 <_ZNK14ChiFeature2HDR33MergeFourFrameParsedHDRBHistStatsEP11ChiMetadataS1_S1_S1_P15ChiFeature2Hint+0x2f8>
   24dd8: 78 ff ff b0  	adrp	x24, 0x11000 <_ZNK14ChiFeature2HDR33MergeFourFrameParsedHDRBHistStatsEP11ChiMetadataS1_S1_S1_P15ChiFeature2Hint+0x14>
   24ddc: 39 ff ff f0  	adrp	x25, 0xb000 <_ZNK14ChiFeature2HDR33MergeFourFrameParsedHDRBHistStatsEP11ChiMetadataS1_S1_S1_P15ChiFeature2Hint>
   24e7c: 17 10 00 b4  	cbz	x23, 0x2507c <_ZNK14ChiFeature2HDR33MergeFourFrameParsedHDRBHistStatsEP11ChiMetadataS1_S1_S1_P15ChiFeature2Hint+0x304>
   24e84: 61 ff ff b0  	adrp	x1, 0x11000 <_ZNK14ChiFeature2HDR33MergeFourFrameParsedHDRBHistStatsEP11ChiMetadataS1_S1_S1_P15ChiFeature2Hint+0xc0>
   24e8c: 22 ff ff f0  	adrp	x2, 0xb000 <_ZNK14ChiFeature2HDR33MergeFourFrameParsedHDRBHistStatsEP11ChiMetadataS1_S1_S1_P15ChiFeature2Hint+0xb0>
   24ea8: 9f 00 00 14  	b	0x25124 <_ZNK14ChiFeature2HDR33MergeFourFrameParsedHDRBHistStatsEP11ChiMetadataS1_S1_S1_P15ChiFeature2Hint+0x3ac>
   24eac: 1b 01 00 90  	adrp	x27, 0x44000 <_ZNK14ChiFeature2HDR33MergeFourFrameParsedHDRBHistStatsEP11ChiMetadataS1_S1_S1_P15ChiFeature2Hint+0x1b4>
   24eb8: 08 06 00 36  	tbz	w8, #0, 0x24f78 <_ZNK14ChiFeature2HDR33MergeFourFrameParsedHDRBHistStatsEP11ChiMetadataS1_S1_S1_P15ChiFeature2Hint+0x200>
   24ebc: 08 01 00 90  	adrp	x8, 0x44000 <_ZNK14ChiFeature2HDR33MergeFourFrameParsedHDRBHistStatsEP11ChiMetadataS1_S1_S1_P15ChiFeature2Hint+0x1c4>
   24ecc: a1 02 00 54  	b.ne	0x24f20 <_ZNK14ChiFeature2HDR33MergeFourFrameParsedHDRBHistStatsEP11ChiMetadataS1_S1_S1_P15ChiFeature2Hint+0x1a8>
   24ed0: 77 ff ff 90  	adrp	x23, 0x10000 <_ZNK14ChiFeature2HDR33MergeFourFrameParsedHDRBHistStatsEP11ChiMetadataS1_S1_S1_P15ChiFeature2Hint+0x108>
   24eec: 61 ff ff d0  	adrp	x1, 0x12000 <_ZNK14ChiFeature2HDR33MergeFourFrameParsedHDRBHistStatsEP11ChiMetadataS1_S1_S1_P15ChiFeature2Hint+0x12c>
   24ef0: 22 ff ff f0  	adrp	x2, 0xb000 <_ZNK14ChiFeature2HDR33MergeFourFrameParsedHDRBHistStatsEP11ChiMetadataS1_S1_S1_P15ChiFeature2Hint+0x114>
   24ef4: 65 ff ff b0  	adrp	x5, 0x11000 <_ZNK14ChiFeature2HDR33MergeFourFrameParsedHDRBHistStatsEP11ChiMetadataS1_S1_S1_P15ChiFeature2Hint+0x130>
   24f20: 77 ff ff 90  	adrp	x23, 0x10000 <_ZNK14ChiFeature2HDR33MergeFourFrameParsedHDRBHistStatsEP11ChiMetadataS1_S1_S1_P15ChiFeature2Hint+0x158>
   24f3c: 61 ff ff d0  	adrp	x1, 0x12000 <_ZNK14ChiFeature2HDR33MergeFourFrameParsedHDRBHistStatsEP11ChiMetadataS1_S1_S1_P15ChiFeature2Hint+0x17c>
   24f44: 20 ff ff f0  	adrp	x0, 0xb000 <_ZNK14ChiFeature2HDR33MergeFourFrameParsedHDRBHistStatsEP11ChiMetadataS1_S1_S1_P15ChiFeature2Hint+0x168>
   24f48: 63 ff ff b0  	adrp	x3, 0x11000 <_ZNK14ChiFeature2HDR33MergeFourFrameParsedHDRBHistStatsEP11ChiMetadataS1_S1_S1_P15ChiFeature2Hint+0x184>
   24f4c: 45 ff ff f0  	adrp	x5, 0xf000 <_ZNK14ChiFeature2HDR33MergeFourFrameParsedHDRBHistStatsEP11ChiMetadataS1_S1_S1_P15ChiFeature2Hint+0x180>
   24f70: 94 74 00 94  	bl	0x421c0 <_ZN6ChiLog9LogSystemEPKcS1_S1_S1_iS1_z@plt>
   24f78: 68 05 00 36  	tbz	w8, #0, 0x25024 <_ZNK14ChiFeature2HDR33MergeFourFrameParsedHDRBHistStatsEP11ChiMetadataS1_S1_S1_P15ChiFeature2Hint+0x2ac>
   24f7c: 0d 01 00 90  	adrp	x13, 0x44000 <_ZNK14ChiFeature2HDR33MergeFourFrameParsedHDRBHistStatsEP11ChiMetadataS1_S1_S1_P15ChiFeature2Hint+0x284>
   24f8c: 61 02 00 54  	b.ne	0x24fd8 <_ZNK14ChiFeature2HDR33MergeFourFrameParsedHDRBHistStatsEP11ChiMetadataS1_S1_S1_P15ChiFeature2Hint+0x260>
   24f90: 78 ff ff 90  	adrp	x24, 0x10000 <_ZNK14ChiFeature2HDR33MergeFourFrameParsedHDRBHistStatsEP11ChiMetadataS1_S1_S1_P15ChiFeature2Hint+0x1c8>
   24fac: 61 ff ff d0  	adrp	x1, 0x12000 <_ZNK14ChiFeature2HDR33MergeFourFrameParsedHDRBHistStatsEP11ChiMetadataS1_S1_S1_P15ChiFeature2Hint+0x1ec>
   24fb0: 62 ff ff 90  	adrp	x2, 0x10000 <_ZNK14ChiFeature2HDR33MergeFourFrameParsedHDRBHistStatsEP11ChiMetadataS1_S1_S1_P15ChiFeature2Hint+0x1e8>
   24fb4: 65 ff ff b0  	adrp	x5, 0x11000 <_ZNK14ChiFeature2HDR33MergeFourFrameParsedHDRBHistStatsEP11ChiMetadataS1_S1_S1_P15ChiFeature2Hint+0x1f0>
   24fd8: 76 ff ff 90  	adrp	x22, 0x10000 <_ZNK14ChiFeature2HDR33MergeFourFrameParsedHDRBHistStatsEP11ChiMetadataS1_S1_S1_P15ChiFeature2Hint+0x210>
   24ff4: 61 ff ff d0  	adrp	x1, 0x12000 <_ZNK14ChiFeature2HDR33MergeFourFrameParsedHDRBHistStatsEP11ChiMetadataS1_S1_S1_P15ChiFeature2Hint+0x234>
   24ffc: 20 ff ff f0  	adrp	x0, 0xb000 <_ZNK14ChiFeature2HDR33MergeFourFrameParsedHDRBHistStatsEP11ChiMetadataS1_S1_S1_P15ChiFeature2Hint+0x220>
   25000: 63 ff ff 90  	adrp	x3, 0x11000 <_ZNK14ChiFeature2HDR33MergeFourFrameParsedHDRBHistStatsEP11ChiMetadataS1_S1_S1_P15ChiFeature2Hint+0x238>
   25004: 45 ff ff 90  	adrp	x5, 0xd000 <_ZNK14ChiFeature2HDR33MergeFourFrameParsedHDRBHistStatsEP11ChiMetadataS1_S1_S1_P15ChiFeature2Hint+0x22c>
   25020: 68 74 00 94  	bl	0x421c0 <_ZN6ChiLog9LogSystemEPKcS1_S1_S1_iS1_z@plt>
   25034: e1 16 00 54  	b.ne	0x25310 <_ZNK14ChiFeature2HDR33MergeFourFrameParsedHDRBHistStatsEP11ChiMetadataS1_S1_S1_P15ChiFeature2Hint+0x598>
   25068: 80 fe ff 54  	b.eq	0x25038 <_ZNK14ChiFeature2HDR33MergeFourFrameParsedHDRBHistStatsEP11ChiMetadataS1_S1_S1_P15ChiFeature2Hint+0x2c0>
   2506c: a9 00 00 14  	b	0x25310 <_ZNK14ChiFeature2HDR33MergeFourFrameParsedHDRBHistStatsEP11ChiMetadataS1_S1_S1_P15ChiFeature2Hint+0x598>
   25080: 2a 05 00 36  	tbz	w10, #0, 0x25124 <_ZNK14ChiFeature2HDR33MergeFourFrameParsedHDRBHistStatsEP11ChiMetadataS1_S1_S1_P15ChiFeature2Hint+0x3ac>
   25084: e9 00 00 f0  	adrp	x9, 0x44000 <_ZNK14ChiFeature2HDR33MergeFourFrameParsedHDRBHistStatsEP11ChiMetadataS1_S1_S1_P15ChiFeature2Hint+0x388>
   25094: 41 02 00 54  	b.ne	0x250dc <_ZNK14ChiFeature2HDR33MergeFourFrameParsedHDRBHistStatsEP11ChiMetadataS1_S1_S1_P15ChiFeature2Hint+0x364>
   25098: 57 ff ff f0  	adrp	x23, 0x10000 <_ZNK14ChiFeature2HDR33MergeFourFrameParsedHDRBHistStatsEP11ChiMetadataS1_S1_S1_P15ChiFeature2Hint+0x2cc>
   250b4: 61 ff ff b0  	adrp	x1, 0x12000 <_ZNK14ChiFeature2HDR33MergeFourFrameParsedHDRBHistStatsEP11ChiMetadataS1_S1_S1_P15ChiFeature2Hint+0x2f0>
   250b8: 62 ff ff 90  	adrp	x2, 0x11000 <_ZNK14ChiFeature2HDR33MergeFourFrameParsedHDRBHistStatsEP11ChiMetadataS1_S1_S1_P15ChiFeature2Hint+0x2f0>
   250bc: 65 ff ff 90  	adrp	x5, 0x11000 <_ZNK14ChiFeature2HDR33MergeFourFrameParsedHDRBHistStatsEP11ChiMetadataS1_S1_S1_P15ChiFeature2Hint+0x2f4>
   250dc: 58 ff ff f0  	adrp	x24, 0x10000 <_ZNK14ChiFeature2HDR33MergeFourFrameParsedHDRBHistStatsEP11ChiMetadataS1_S1_S1_P15ChiFeature2Hint+0x310>
   250f8: 61 ff ff b0  	adrp	x1, 0x12000 <_ZNK14ChiFeature2HDR33MergeFourFrameParsedHDRBHistStatsEP11ChiMetadataS1_S1_S1_P15ChiFeature2Hint+0x334>
   25100: 20 ff ff d0  	adrp	x0, 0xb000 <_ZNK14ChiFeature2HDR33MergeFourFrameParsedHDRBHistStatsEP11ChiMetadataS1_S1_S1_P15ChiFeature2Hint+0x320>
   25104: 63 ff ff 90  	adrp	x3, 0x11000 <_ZNK14ChiFeature2HDR33MergeFourFrameParsedHDRBHistStatsEP11ChiMetadataS1_S1_S1_P15ChiFeature2Hint+0x33c>
   25108: 65 ff ff 90  	adrp	x5, 0x11000 <_ZNK14ChiFeature2HDR33MergeFourFrameParsedHDRBHistStatsEP11ChiMetadataS1_S1_S1_P15ChiFeature2Hint+0x340>
   25120: 28 74 00 94  	bl	0x421c0 <_ZN6ChiLog9LogSystemEPKcS1_S1_S1_iS1_z@plt>
   25124: 96 01 00 b4  	cbz	x22, 0x25154 <_ZNK14ChiFeature2HDR33MergeFourFrameParsedHDRBHistStatsEP11ChiMetadataS1_S1_S1_P15ChiFeature2Hint+0x3dc>
   2512c: 61 ff ff 90  	adrp	x1, 0x11000 <_ZNK14ChiFeature2HDR33MergeFourFrameParsedHDRBHistStatsEP11ChiMetadataS1_S1_S1_P15ChiFeature2Hint+0x364>
   25134: 22 ff ff d0  	adrp	x2, 0xb000 <_ZNK14ChiFeature2HDR33MergeFourFrameParsedHDRBHistStatsEP11ChiMetadataS1_S1_S1_P15ChiFeature2Hint+0x354>
   25150: 2b 00 00 14  	b	0x251fc <_ZNK14ChiFeature2HDR33MergeFourFrameParsedHDRBHistStatsEP11ChiMetadataS1_S1_S1_P15ChiFeature2Hint+0x484>
   25158: 2b 05 00 36  	tbz	w11, #0, 0x251fc <_ZNK14ChiFeature2HDR33MergeFourFrameParsedHDRBHistStatsEP11ChiMetadataS1_S1_S1_P15ChiFeature2Hint+0x484>
   2515c: ea 00 00 f0  	adrp	x10, 0x44000 <_ZNK14ChiFeature2HDR33MergeFourFrameParsedHDRBHistStatsEP11ChiMetadataS1_S1_S1_P15ChiFeature2Hint+0x460>
   2516c: 41 02 00 54  	b.ne	0x251b4 <_ZNK14ChiFeature2HDR33MergeFourFrameParsedHDRBHistStatsEP11ChiMetadataS1_S1_S1_P15ChiFeature2Hint+0x43c>
   25170: 56 ff ff f0  	adrp	x22, 0x10000 <_ZNK14ChiFeature2HDR33MergeFourFrameParsedHDRBHistStatsEP11ChiMetadataS1_S1_S1_P15ChiFeature2Hint+0x3a4>
   2518c: 61 ff ff b0  	adrp	x1, 0x12000 <_ZNK14ChiFeature2HDR33MergeFourFrameParsedHDRBHistStatsEP11ChiMetadataS1_S1_S1_P15ChiFeature2Hint+0x3c8>
   25190: 42 ff ff d0  	adrp	x2, 0xf000 <_ZNK14ChiFeature2HDR33MergeFourFrameParsedHDRBHistStatsEP11ChiMetadataS1_S1_S1_P15ChiFeature2Hint+0x3c0>
   25194: 65 ff ff 90  	adrp	x5, 0x11000 <_ZNK14ChiFeature2HDR33MergeFourFrameParsedHDRBHistStatsEP11ChiMetadataS1_S1_S1_P15ChiFeature2Hint+0x3cc>
   251b4: 59 ff ff f0  	adrp	x25, 0x10000 <_ZNK14ChiFeature2HDR33MergeFourFrameParsedHDRBHistStatsEP11ChiMetadataS1_S1_S1_P15ChiFeature2Hint+0x3e8>
   251d0: 61 ff ff b0  	adrp	x1, 0x12000 <_ZNK14ChiFeature2HDR33MergeFourFrameParsedHDRBHistStatsEP11ChiMetadataS1_S1_S1_P15ChiFeature2Hint+0x40c>
   251d8: 20 ff ff d0  	adrp	x0, 0xb000 <_ZNK14ChiFeature2HDR33MergeFourFrameParsedHDRBHistStatsEP11ChiMetadataS1_S1_S1_P15ChiFeature2Hint+0x3f8>
   251dc: 63 ff ff 90  	adrp	x3, 0x11000 <_ZNK14ChiFeature2HDR33MergeFourFrameParsedHDRBHistStatsEP11ChiMetadataS1_S1_S1_P15ChiFeature2Hint+0x414>
   251e0: 65 ff ff 90  	adrp	x5, 0x11000 <_ZNK14ChiFeature2HDR33MergeFourFrameParsedHDRBHistStatsEP11ChiMetadataS1_S1_S1_P15ChiFeature2Hint+0x418>
   251f8: f2 73 00 94  	bl	0x421c0 <_ZN6ChiLog9LogSystemEPKcS1_S1_S1_iS1_z@plt>
   251fc: 95 01 00 b4  	cbz	x21, 0x2522c <_ZNK14ChiFeature2HDR33MergeFourFrameParsedHDRBHistStatsEP11ChiMetadataS1_S1_S1_P15ChiFeature2Hint+0x4b4>
   25204: 61 ff ff 90  	adrp	x1, 0x11000 <_ZNK14ChiFeature2HDR33MergeFourFrameParsedHDRBHistStatsEP11ChiMetadataS1_S1_S1_P15ChiFeature2Hint+0x43c>
   2520c: 22 ff ff d0  	adrp	x2, 0xb000 <_ZNK14ChiFeature2HDR33MergeFourFrameParsedHDRBHistStatsEP11ChiMetadataS1_S1_S1_P15ChiFeature2Hint+0x42c>
   25228: 2b 00 00 14  	b	0x252d4 <_ZNK14ChiFeature2HDR33MergeFourFrameParsedHDRBHistStatsEP11ChiMetadataS1_S1_S1_P15ChiFeature2Hint+0x55c>
   25230: 2c 05 00 36  	tbz	w12, #0, 0x252d4 <_ZNK14ChiFeature2HDR33MergeFourFrameParsedHDRBHistStatsEP11ChiMetadataS1_S1_S1_P15ChiFeature2Hint+0x55c>
   25234: eb 00 00 f0  	adrp	x11, 0x44000 <_ZNK14ChiFeature2HDR33MergeFourFrameParsedHDRBHistStatsEP11ChiMetadataS1_S1_S1_P15ChiFeature2Hint+0x538>
   25244: 41 02 00 54  	b.ne	0x2528c <_ZNK14ChiFeature2HDR33MergeFourFrameParsedHDRBHistStatsEP11ChiMetadataS1_S1_S1_P15ChiFeature2Hint+0x514>
   25248: 55 ff ff f0  	adrp	x21, 0x10000 <_ZNK14ChiFeature2HDR33MergeFourFrameParsedHDRBHistStatsEP11ChiMetadataS1_S1_S1_P15ChiFeature2Hint+0x47c>
   25264: 61 ff ff b0  	adrp	x1, 0x12000 <_ZNK14ChiFeature2HDR33MergeFourFrameParsedHDRBHistStatsEP11ChiMetadataS1_S1_S1_P15ChiFeature2Hint+0x4a0>
   25268: 42 ff ff f0  	adrp	x2, 0x10000 <_ZNK14ChiFeature2HDR33MergeFourFrameParsedHDRBHistStatsEP11ChiMetadataS1_S1_S1_P15ChiFeature2Hint+0x49c>
   2526c: 65 ff ff 90  	adrp	x5, 0x11000 <_ZNK14ChiFeature2HDR33MergeFourFrameParsedHDRBHistStatsEP11ChiMetadataS1_S1_S1_P15ChiFeature2Hint+0x4a4>
   2528c: 57 ff ff f0  	adrp	x23, 0x10000 <_ZNK14ChiFeature2HDR33MergeFourFrameParsedHDRBHistStatsEP11ChiMetadataS1_S1_S1_P15ChiFeature2Hint+0x4c0>
   252a8: 61 ff ff b0  	adrp	x1, 0x12000 <_ZNK14ChiFeature2HDR33MergeFourFrameParsedHDRBHistStatsEP11ChiMetadataS1_S1_S1_P15ChiFeature2Hint+0x4e4>
   252b0: 20 ff ff d0  	adrp	x0, 0xb000 <_ZNK14ChiFeature2HDR33MergeFourFrameParsedHDRBHistStatsEP11ChiMetadataS1_S1_S1_P15ChiFeature2Hint+0x4d0>
   252b4: 63 ff ff 90  	adrp	x3, 0x11000 <_ZNK14ChiFeature2HDR33MergeFourFrameParsedHDRBHistStatsEP11ChiMetadataS1_S1_S1_P15ChiFeature2Hint+0x4ec>
   252b8: 25 ff ff b0  	adrp	x5, 0xa000 <_ZNK14ChiFeature2HDR33MergeFourFrameParsedHDRBHistStatsEP11ChiMetadataS1_S1_S1_P15ChiFeature2Hint+0x4d4>
   252d0: bc 73 00 94  	bl	0x421c0 <_ZN6ChiLog9LogSystemEPKcS1_S1_S1_iS1_z@plt>
   252d4: 14 02 00 b4  	cbz	x20, 0x25314 <_ZNK14ChiFeature2HDR33MergeFourFrameParsedHDRBHistStatsEP11ChiMetadataS1_S1_S1_P15ChiFeature2Hint+0x59c>
   252dc: 61 ff ff 90  	adrp	x1, 0x11000 <_ZNK14ChiFeature2HDR33MergeFourFrameParsedHDRBHistStatsEP11ChiMetadataS1_S1_S1_P15ChiFeature2Hint+0x514>
   252e4: 22 ff ff d0  	adrp	x2, 0xb000 <_ZNK14ChiFeature2HDR33MergeFourFrameParsedHDRBHistStatsEP11ChiMetadataS1_S1_S1_P15ChiFeature2Hint+0x504>
   2530c: 60 e9 ff 54  	b.eq	0x25038 <_ZNK14ChiFeature2HDR33MergeFourFrameParsedHDRBHistStatsEP11ChiMetadataS1_S1_S1_P15ChiFeature2Hint+0x2c0>
   25318: 6d e8 07 36  	tbz	w13, #0, 0x25024 <_ZNK14ChiFeature2HDR33MergeFourFrameParsedHDRBHistStatsEP11ChiMetadataS1_S1_S1_P15ChiFeature2Hint+0x2ac>
   2531c: ec 00 00 f0  	adrp	x12, 0x44000 <_ZNK14ChiFeature2HDR33MergeFourFrameParsedHDRBHistStatsEP11ChiMetadataS1_S1_S1_P15ChiFeature2Hint+0x620>
   25320: 54 ff ff f0  	adrp	x20, 0x10000 <_ZNK14ChiFeature2HDR33MergeFourFrameParsedHDRBHistStatsEP11ChiMetadataS1_S1_S1_P15ChiFeature2Hint+0x554>
   25334: 01 02 00 54  	b.ne	0x25374 <_ZNK14ChiFeature2HDR33MergeFourFrameParsedHDRBHistStatsEP11ChiMetadataS1_S1_S1_P15ChiFeature2Hint+0x5fc>
   2534c: 61 ff ff b0  	adrp	x1, 0x12000 <_ZNK14ChiFeature2HDR33MergeFourFrameParsedHDRBHistStatsEP11ChiMetadataS1_S1_S1_P15ChiFeature2Hint+0x588>
   25350: 42 ff ff d0  	adrp	x2, 0xf000 <_ZNK14ChiFeature2HDR33MergeFourFrameParsedHDRBHistStatsEP11ChiMetadataS1_S1_S1_P15ChiFeature2Hint+0x580>
   25354: 65 ff ff 90  	adrp	x5, 0x11000 <_ZNK14ChiFeature2HDR33MergeFourFrameParsedHDRBHistStatsEP11ChiMetadataS1_S1_S1_P15ChiFeature2Hint+0x58c>
   25388: 61 ff ff b0  	adrp	x1, 0x12000 <_ZNK14ChiFeature2HDR33MergeFourFrameParsedHDRBHistStatsEP11ChiMetadataS1_S1_S1_P15ChiFeature2Hint+0x5c4>
   25390: 20 ff ff d0  	adrp	x0, 0xb000 <_ZNK14ChiFeature2HDR33MergeFourFrameParsedHDRBHistStatsEP11ChiMetadataS1_S1_S1_P15ChiFeature2Hint+0x5b0>
   25394: 63 ff ff 90  	adrp	x3, 0x11000 <_ZNK14ChiFeature2HDR33MergeFourFrameParsedHDRBHistStatsEP11ChiMetadataS1_S1_S1_P15ChiFeature2Hint+0x5cc>
   25398: 45 ff ff 90  	adrp	x5, 0xd000 <_ZNK14ChiFeature2HDR33MergeFourFrameParsedHDRBHistStatsEP11ChiMetadataS1_S1_S1_P15ChiFeature2Hint+0x5c0>
   253b0: 84 73 00 94  	bl	0x421c0 <_ZN6ChiLog9LogSystemEPKcS1_S1_S1_iS1_z@plt>
   253b4: 1c ff ff 17  	b	0x25024 <_ZNK14ChiFeature2HDR33MergeFourFrameParsedHDRBHistStatsEP11ChiMetadataS1_S1_S1_P15ChiFeature2Hint+0x2ac>
00000000000253b8 <_ZNK14ChiFeature2HDR30MergeFourFrameParsedHDRBEStatsEP11ChiMetadataS1_S1_S1_P15ChiFeature2Hint>:
   253f4: e1 07 00 b4  	cbz	x1, 0x254f0 <_ZNK14ChiFeature2HDR30MergeFourFrameParsedHDRBEStatsEP11ChiMetadataS1_S1_S1_P15ChiFeature2Hint+0x138>
   253f8: d3 07 00 b4  	cbz	x19, 0x254f0 <_ZNK14ChiFeature2HDR30MergeFourFrameParsedHDRBEStatsEP11ChiMetadataS1_S1_S1_P15ChiFeature2Hint+0x138>
   253fc: b5 07 00 b4  	cbz	x21, 0x254f0 <_ZNK14ChiFeature2HDR30MergeFourFrameParsedHDRBEStatsEP11ChiMetadataS1_S1_S1_P15ChiFeature2Hint+0x138>
   25404: c1 14 00 54  	b.ne	0x2569c <_ZNK14ChiFeature2HDR30MergeFourFrameParsedHDRBEStatsEP11ChiMetadataS1_S1_S1_P15ChiFeature2Hint+0x2e4>
   25408: fb 00 00 f0  	adrp	x27, 0x44000 <_ZNK14ChiFeature2HDR30MergeFourFrameParsedHDRBEStatsEP11ChiMetadataS1_S1_S1_P15ChiFeature2Hint+0xcc>
   25414: 09 15 18 37  	tbnz	w9, #3, 0x256b4 <_ZNK14ChiFeature2HDR30MergeFourFrameParsedHDRBEStatsEP11ChiMetadataS1_S1_S1_P15ChiFeature2Hint+0x2fc>
   25418: 38 ff ff d0  	adrp	x24, 0xb000 <_ZNK14ChiFeature2HDR33MergeFourFrameParsedHDRBHistStatsEP11ChiMetadataS1_S1_S1_P15ChiFeature2Hint+0x638>
   2541c: 39 ff ff d0  	adrp	x25, 0xb000 <_ZNK14ChiFeature2HDR33MergeFourFrameParsedHDRBHistStatsEP11ChiMetadataS1_S1_S1_P15ChiFeature2Hint+0x63c>
   254bc: 37 10 00 b4  	cbz	x23, 0x256c0 <_ZNK14ChiFeature2HDR30MergeFourFrameParsedHDRBEStatsEP11ChiMetadataS1_S1_S1_P15ChiFeature2Hint+0x308>
   254c4: 21 ff ff d0  	adrp	x1, 0xb000 <_ZNK14ChiFeature2HDR30MergeFourFrameParsedHDRBEStatsEP11ChiMetadataS1_S1_S1_P15ChiFeature2Hint+0xa4>
   254cc: 22 ff ff d0  	adrp	x2, 0xb000 <_ZNK14ChiFeature2HDR30MergeFourFrameParsedHDRBEStatsEP11ChiMetadataS1_S1_S1_P15ChiFeature2Hint+0xac>
   254ec: 9f 00 00 14  	b	0x25768 <_ZNK14ChiFeature2HDR30MergeFourFrameParsedHDRBEStatsEP11ChiMetadataS1_S1_S1_P15ChiFeature2Hint+0x3b0>
   254f0: fb 00 00 f0  	adrp	x27, 0x44000 <_ZNK14ChiFeature2HDR30MergeFourFrameParsedHDRBEStatsEP11ChiMetadataS1_S1_S1_P15ChiFeature2Hint+0x1b4>
   254fc: 08 06 00 36  	tbz	w8, #0, 0x255bc <_ZNK14ChiFeature2HDR30MergeFourFrameParsedHDRBEStatsEP11ChiMetadataS1_S1_S1_P15ChiFeature2Hint+0x204>
   25500: e8 00 00 f0  	adrp	x8, 0x44000 <_ZNK14ChiFeature2HDR30MergeFourFrameParsedHDRBEStatsEP11ChiMetadataS1_S1_S1_P15ChiFeature2Hint+0x1c4>
   25510: a1 02 00 54  	b.ne	0x25564 <_ZNK14ChiFeature2HDR30MergeFourFrameParsedHDRBEStatsEP11ChiMetadataS1_S1_S1_P15ChiFeature2Hint+0x1ac>
   25514: 57 ff ff f0  	adrp	x23, 0x10000 <_ZNK14ChiFeature2HDR30MergeFourFrameParsedHDRBEStatsEP11ChiMetadataS1_S1_S1_P15ChiFeature2Hint+0x108>
   25530: 61 ff ff b0  	adrp	x1, 0x12000 <_ZNK14ChiFeature2HDR30MergeFourFrameParsedHDRBEStatsEP11ChiMetadataS1_S1_S1_P15ChiFeature2Hint+0x12c>
   25534: 22 ff ff d0  	adrp	x2, 0xb000 <_ZNK14ChiFeature2HDR30MergeFourFrameParsedHDRBEStatsEP11ChiMetadataS1_S1_S1_P15ChiFeature2Hint+0x114>
   25538: 25 ff ff f0  	adrp	x5, 0xc000 <_ZNK14ChiFeature2HDR30MergeFourFrameParsedHDRBEStatsEP11ChiMetadataS1_S1_S1_P15ChiFeature2Hint+0x11c>
   25564: 57 ff ff f0  	adrp	x23, 0x10000 <_ZNK14ChiFeature2HDR30MergeFourFrameParsedHDRBEStatsEP11ChiMetadataS1_S1_S1_P15ChiFeature2Hint+0x158>
   25580: 61 ff ff b0  	adrp	x1, 0x12000 <_ZNK14ChiFeature2HDR30MergeFourFrameParsedHDRBEStatsEP11ChiMetadataS1_S1_S1_P15ChiFeature2Hint+0x17c>
   25588: 20 ff ff d0  	adrp	x0, 0xb000 <_ZNK14ChiFeature2HDR30MergeFourFrameParsedHDRBEStatsEP11ChiMetadataS1_S1_S1_P15ChiFeature2Hint+0x168>
   2558c: 23 ff ff f0  	adrp	x3, 0xc000 <_ZNK14ChiFeature2HDR30MergeFourFrameParsedHDRBEStatsEP11ChiMetadataS1_S1_S1_P15ChiFeature2Hint+0x170>
   25590: 45 ff ff d0  	adrp	x5, 0xf000 <_ZNK14ChiFeature2HDR30MergeFourFrameParsedHDRBEStatsEP11ChiMetadataS1_S1_S1_P15ChiFeature2Hint+0x180>
   255b4: 03 73 00 94  	bl	0x421c0 <_ZN6ChiLog9LogSystemEPKcS1_S1_S1_iS1_z@plt>
   255bc: 68 05 00 36  	tbz	w8, #0, 0x25668 <_ZNK14ChiFeature2HDR30MergeFourFrameParsedHDRBEStatsEP11ChiMetadataS1_S1_S1_P15ChiFeature2Hint+0x2b0>
   255c0: ed 00 00 f0  	adrp	x13, 0x44000 <_ZNK14ChiFeature2HDR30MergeFourFrameParsedHDRBEStatsEP11ChiMetadataS1_S1_S1_P15ChiFeature2Hint+0x284>
   255d0: 61 02 00 54  	b.ne	0x2561c <_ZNK14ChiFeature2HDR30MergeFourFrameParsedHDRBEStatsEP11ChiMetadataS1_S1_S1_P15ChiFeature2Hint+0x264>
   255d4: 58 ff ff f0  	adrp	x24, 0x10000 <_ZNK14ChiFeature2HDR30MergeFourFrameParsedHDRBEStatsEP11ChiMetadataS1_S1_S1_P15ChiFeature2Hint+0x1c8>
   255f0: 61 ff ff b0  	adrp	x1, 0x12000 <_ZNK14ChiFeature2HDR30MergeFourFrameParsedHDRBEStatsEP11ChiMetadataS1_S1_S1_P15ChiFeature2Hint+0x1ec>
   255f4: 42 ff ff d0  	adrp	x2, 0xf000 <_ZNK14ChiFeature2HDR30MergeFourFrameParsedHDRBEStatsEP11ChiMetadataS1_S1_S1_P15ChiFeature2Hint+0x1e4>
   255f8: 25 ff ff f0  	adrp	x5, 0xc000 <_ZNK14ChiFeature2HDR30MergeFourFrameParsedHDRBEStatsEP11ChiMetadataS1_S1_S1_P15ChiFeature2Hint+0x1dc>
   2561c: 56 ff ff f0  	adrp	x22, 0x10000 <_ZNK14ChiFeature2HDR30MergeFourFrameParsedHDRBEStatsEP11ChiMetadataS1_S1_S1_P15ChiFeature2Hint+0x210>
   25638: 61 ff ff b0  	adrp	x1, 0x12000 <_ZNK14ChiFeature2HDR30MergeFourFrameParsedHDRBEStatsEP11ChiMetadataS1_S1_S1_P15ChiFeature2Hint+0x234>
   25640: 20 ff ff d0  	adrp	x0, 0xb000 <_ZNK14ChiFeature2HDR30MergeFourFrameParsedHDRBEStatsEP11ChiMetadataS1_S1_S1_P15ChiFeature2Hint+0x220>
   25644: 23 ff ff f0  	adrp	x3, 0xc000 <_ZNK14ChiFeature2HDR30MergeFourFrameParsedHDRBEStatsEP11ChiMetadataS1_S1_S1_P15ChiFeature2Hint+0x228>
   25648: 65 ff ff b0  	adrp	x5, 0x12000 <_ZNK14ChiFeature2HDR30MergeFourFrameParsedHDRBEStatsEP11ChiMetadataS1_S1_S1_P15ChiFeature2Hint+0x244>
   25664: d7 72 00 94  	bl	0x421c0 <_ZN6ChiLog9LogSystemEPKcS1_S1_S1_iS1_z@plt>
   25678: 41 17 00 54  	b.ne	0x25960 <_ZNK14ChiFeature2HDR30MergeFourFrameParsedHDRBEStatsEP11ChiMetadataS1_S1_S1_P15ChiFeature2Hint+0x5a8>
   256ac: 80 fe ff 54  	b.eq	0x2567c <_ZNK14ChiFeature2HDR30MergeFourFrameParsedHDRBEStatsEP11ChiMetadataS1_S1_S1_P15ChiFeature2Hint+0x2c4>
   256b0: ac 00 00 14  	b	0x25960 <_ZNK14ChiFeature2HDR30MergeFourFrameParsedHDRBEStatsEP11ChiMetadataS1_S1_S1_P15ChiFeature2Hint+0x5a8>
   256c4: 2a 05 00 36  	tbz	w10, #0, 0x25768 <_ZNK14ChiFeature2HDR30MergeFourFrameParsedHDRBEStatsEP11ChiMetadataS1_S1_S1_P15ChiFeature2Hint+0x3b0>
   256c8: e9 00 00 f0  	adrp	x9, 0x44000 <_ZNK14ChiFeature2HDR30MergeFourFrameParsedHDRBEStatsEP11ChiMetadataS1_S1_S1_P15ChiFeature2Hint+0x38c>
   256d8: 41 02 00 54  	b.ne	0x25720 <_ZNK14ChiFeature2HDR30MergeFourFrameParsedHDRBEStatsEP11ChiMetadataS1_S1_S1_P15ChiFeature2Hint+0x368>
   256dc: 57 ff ff f0  	adrp	x23, 0x10000 <_ZNK14ChiFeature2HDR30MergeFourFrameParsedHDRBEStatsEP11ChiMetadataS1_S1_S1_P15ChiFeature2Hint+0x2d0>
   256f8: 61 ff ff b0  	adrp	x1, 0x12000 <_ZNK14ChiFeature2HDR30MergeFourFrameParsedHDRBEStatsEP11ChiMetadataS1_S1_S1_P15ChiFeature2Hint+0x2f4>
   256fc: 22 ff ff d0  	adrp	x2, 0xb000 <_ZNK14ChiFeature2HDR30MergeFourFrameParsedHDRBEStatsEP11ChiMetadataS1_S1_S1_P15ChiFeature2Hint+0x2dc>
   25700: 25 ff ff f0  	adrp	x5, 0xc000 <_ZNK14ChiFeature2HDR30MergeFourFrameParsedHDRBEStatsEP11ChiMetadataS1_S1_S1_P15ChiFeature2Hint+0x2e4>
   25720: 58 ff ff f0  	adrp	x24, 0x10000 <_ZNK14ChiFeature2HDR30MergeFourFrameParsedHDRBEStatsEP11ChiMetadataS1_S1_S1_P15ChiFeature2Hint+0x314>
   2573c: 61 ff ff b0  	adrp	x1, 0x12000 <_ZNK14ChiFeature2HDR30MergeFourFrameParsedHDRBEStatsEP11ChiMetadataS1_S1_S1_P15ChiFeature2Hint+0x338>
   25744: 20 ff ff d0  	adrp	x0, 0xb000 <_ZNK14ChiFeature2HDR30MergeFourFrameParsedHDRBEStatsEP11ChiMetadataS1_S1_S1_P15ChiFeature2Hint+0x324>
   25748: 23 ff ff f0  	adrp	x3, 0xc000 <_ZNK14ChiFeature2HDR30MergeFourFrameParsedHDRBEStatsEP11ChiMetadataS1_S1_S1_P15ChiFeature2Hint+0x32c>
   2574c: 25 ff ff b0  	adrp	x5, 0xa000 <_ZNK14ChiFeature2HDR30MergeFourFrameParsedHDRBEStatsEP11ChiMetadataS1_S1_S1_P15ChiFeature2Hint+0x328>
   25764: 97 72 00 94  	bl	0x421c0 <_ZN6ChiLog9LogSystemEPKcS1_S1_S1_iS1_z@plt>
   25768: b6 01 00 b4  	cbz	x22, 0x2579c <_ZNK14ChiFeature2HDR30MergeFourFrameParsedHDRBEStatsEP11ChiMetadataS1_S1_S1_P15ChiFeature2Hint+0x3e4>
   25770: 21 ff ff d0  	adrp	x1, 0xb000 <_ZNK14ChiFeature2HDR30MergeFourFrameParsedHDRBEStatsEP11ChiMetadataS1_S1_S1_P15ChiFeature2Hint+0x350>
   25778: 22 ff ff d0  	adrp	x2, 0xb000 <_ZNK14ChiFeature2HDR30MergeFourFrameParsedHDRBEStatsEP11ChiMetadataS1_S1_S1_P15ChiFeature2Hint+0x358>
   25798: 2b 00 00 14  	b	0x25844 <_ZNK14ChiFeature2HDR30MergeFourFrameParsedHDRBEStatsEP11ChiMetadataS1_S1_S1_P15ChiFeature2Hint+0x48c>
   257a0: 2b 05 00 36  	tbz	w11, #0, 0x25844 <_ZNK14ChiFeature2HDR30MergeFourFrameParsedHDRBEStatsEP11ChiMetadataS1_S1_S1_P15ChiFeature2Hint+0x48c>
   257a4: ea 00 00 f0  	adrp	x10, 0x44000 <_ZNK14ChiFeature2HDR30MergeFourFrameParsedHDRBEStatsEP11ChiMetadataS1_S1_S1_P15ChiFeature2Hint+0x468>
   257b4: 41 02 00 54  	b.ne	0x257fc <_ZNK14ChiFeature2HDR30MergeFourFrameParsedHDRBEStatsEP11ChiMetadataS1_S1_S1_P15ChiFeature2Hint+0x444>
   257b8: 56 ff ff f0  	adrp	x22, 0x10000 <_ZNK14ChiFeature2HDR30MergeFourFrameParsedHDRBEStatsEP11ChiMetadataS1_S1_S1_P15ChiFeature2Hint+0x3ac>
   257d4: 61 ff ff b0  	adrp	x1, 0x12000 <_ZNK14ChiFeature2HDR30MergeFourFrameParsedHDRBEStatsEP11ChiMetadataS1_S1_S1_P15ChiFeature2Hint+0x3d0>
   257d8: 62 ff ff b0  	adrp	x2, 0x12000 <_ZNK14ChiFeature2HDR30MergeFourFrameParsedHDRBEStatsEP11ChiMetadataS1_S1_S1_P15ChiFeature2Hint+0x3d4>
   257dc: 25 ff ff f0  	adrp	x5, 0xc000 <_ZNK14ChiFeature2HDR30MergeFourFrameParsedHDRBEStatsEP11ChiMetadataS1_S1_S1_P15ChiFeature2Hint+0x3c0>
   257fc: 59 ff ff f0  	adrp	x25, 0x10000 <_ZNK14ChiFeature2HDR30MergeFourFrameParsedHDRBEStatsEP11ChiMetadataS1_S1_S1_P15ChiFeature2Hint+0x3f0>
   25818: 61 ff ff b0  	adrp	x1, 0x12000 <_ZNK14ChiFeature2HDR30MergeFourFrameParsedHDRBEStatsEP11ChiMetadataS1_S1_S1_P15ChiFeature2Hint+0x414>
   25820: 20 ff ff d0  	adrp	x0, 0xb000 <_ZNK14ChiFeature2HDR30MergeFourFrameParsedHDRBEStatsEP11ChiMetadataS1_S1_S1_P15ChiFeature2Hint+0x400>
   25824: 23 ff ff f0  	adrp	x3, 0xc000 <_ZNK14ChiFeature2HDR30MergeFourFrameParsedHDRBEStatsEP11ChiMetadataS1_S1_S1_P15ChiFeature2Hint+0x408>
   25828: 25 ff ff d0  	adrp	x5, 0xb000 <_ZNK14ChiFeature2HDR30MergeFourFrameParsedHDRBEStatsEP11ChiMetadataS1_S1_S1_P15ChiFeature2Hint+0x408>
   25840: 60 72 00 94  	bl	0x421c0 <_ZN6ChiLog9LogSystemEPKcS1_S1_S1_iS1_z@plt>
   25844: b5 01 00 b4  	cbz	x21, 0x25878 <_ZNK14ChiFeature2HDR30MergeFourFrameParsedHDRBEStatsEP11ChiMetadataS1_S1_S1_P15ChiFeature2Hint+0x4c0>
   2584c: 21 ff ff d0  	adrp	x1, 0xb000 <_ZNK14ChiFeature2HDR30MergeFourFrameParsedHDRBEStatsEP11ChiMetadataS1_S1_S1_P15ChiFeature2Hint+0x42c>
   25854: 22 ff ff d0  	adrp	x2, 0xb000 <_ZNK14ChiFeature2HDR30MergeFourFrameParsedHDRBEStatsEP11ChiMetadataS1_S1_S1_P15ChiFeature2Hint+0x434>
   25874: 2b 00 00 14  	b	0x25920 <_ZNK14ChiFeature2HDR30MergeFourFrameParsedHDRBEStatsEP11ChiMetadataS1_S1_S1_P15ChiFeature2Hint+0x568>
   2587c: 2c 05 00 36  	tbz	w12, #0, 0x25920 <_ZNK14ChiFeature2HDR30MergeFourFrameParsedHDRBEStatsEP11ChiMetadataS1_S1_S1_P15ChiFeature2Hint+0x568>
   25880: eb 00 00 f0  	adrp	x11, 0x44000 <_ZNK14ChiFeature2HDR30MergeFourFrameParsedHDRBEStatsEP11ChiMetadataS1_S1_S1_P15ChiFeature2Hint+0x544>
   25890: 41 02 00 54  	b.ne	0x258d8 <_ZNK14ChiFeature2HDR30MergeFourFrameParsedHDRBEStatsEP11ChiMetadataS1_S1_S1_P15ChiFeature2Hint+0x520>
   25894: 55 ff ff f0  	adrp	x21, 0x10000 <_ZNK14ChiFeature2HDR30MergeFourFrameParsedHDRBEStatsEP11ChiMetadataS1_S1_S1_P15ChiFeature2Hint+0x488>
   258b0: 61 ff ff b0  	adrp	x1, 0x12000 <_ZNK14ChiFeature2HDR30MergeFourFrameParsedHDRBEStatsEP11ChiMetadataS1_S1_S1_P15ChiFeature2Hint+0x4ac>
   258b4: 22 ff ff f0  	adrp	x2, 0xc000 <_ZNK14ChiFeature2HDR30MergeFourFrameParsedHDRBEStatsEP11ChiMetadataS1_S1_S1_P15ChiFeature2Hint+0x498>
   258b8: 25 ff ff f0  	adrp	x5, 0xc000 <_ZNK14ChiFeature2HDR30MergeFourFrameParsedHDRBEStatsEP11ChiMetadataS1_S1_S1_P15ChiFeature2Hint+0x49c>
   258d8: 57 ff ff f0  	adrp	x23, 0x10000 <_ZNK14ChiFeature2HDR30MergeFourFrameParsedHDRBEStatsEP11ChiMetadataS1_S1_S1_P15ChiFeature2Hint+0x4cc>
   258f4: 61 ff ff b0  	adrp	x1, 0x12000 <_ZNK14ChiFeature2HDR30MergeFourFrameParsedHDRBEStatsEP11ChiMetadataS1_S1_S1_P15ChiFeature2Hint+0x4f0>
   258fc: 20 ff ff d0  	adrp	x0, 0xb000 <_ZNK14ChiFeature2HDR30MergeFourFrameParsedHDRBEStatsEP11ChiMetadataS1_S1_S1_P15ChiFeature2Hint+0x4dc>
   25900: 23 ff ff f0  	adrp	x3, 0xc000 <_ZNK14ChiFeature2HDR30MergeFourFrameParsedHDRBEStatsEP11ChiMetadataS1_S1_S1_P15ChiFeature2Hint+0x4e4>
   25904: 65 ff ff b0  	adrp	x5, 0x12000 <_ZNK14ChiFeature2HDR30MergeFourFrameParsedHDRBEStatsEP11ChiMetadataS1_S1_S1_P15ChiFeature2Hint+0x500>
   2591c: 29 72 00 94  	bl	0x421c0 <_ZN6ChiLog9LogSystemEPKcS1_S1_S1_iS1_z@plt>
   25920: 34 02 00 b4  	cbz	x20, 0x25964 <_ZNK14ChiFeature2HDR30MergeFourFrameParsedHDRBEStatsEP11ChiMetadataS1_S1_S1_P15ChiFeature2Hint+0x5ac>
   25928: 21 ff ff d0  	adrp	x1, 0xb000 <_ZNK14ChiFeature2HDR30MergeFourFrameParsedHDRBEStatsEP11ChiMetadataS1_S1_S1_P15ChiFeature2Hint+0x508>
   25930: 22 ff ff d0  	adrp	x2, 0xb000 <_ZNK14ChiFeature2HDR30MergeFourFrameParsedHDRBEStatsEP11ChiMetadataS1_S1_S1_P15ChiFeature2Hint+0x510>
   2595c: 00 e9 ff 54  	b.eq	0x2567c <_ZNK14ChiFeature2HDR30MergeFourFrameParsedHDRBEStatsEP11ChiMetadataS1_S1_S1_P15ChiFeature2Hint+0x2c4>
   25968: 0d e8 07 36  	tbz	w13, #0, 0x25668 <_ZNK14ChiFeature2HDR30MergeFourFrameParsedHDRBEStatsEP11ChiMetadataS1_S1_S1_P15ChiFeature2Hint+0x2b0>
   2596c: ec 00 00 f0  	adrp	x12, 0x44000 <_ZNK14ChiFeature2HDR30MergeFourFrameParsedHDRBEStatsEP11ChiMetadataS1_S1_S1_P15ChiFeature2Hint+0x630>
   25970: 54 ff ff f0  	adrp	x20, 0x10000 <_ZNK14ChiFeature2HDR30MergeFourFrameParsedHDRBEStatsEP11ChiMetadataS1_S1_S1_P15ChiFeature2Hint+0x564>
   25984: 01 02 00 54  	b.ne	0x259c4 <_ZNK14ChiFeature2HDR30MergeFourFrameParsedHDRBEStatsEP11ChiMetadataS1_S1_S1_P15ChiFeature2Hint+0x60c>
   2599c: 61 ff ff b0  	adrp	x1, 0x12000 <_ZNK14ChiFeature2HDR30MergeFourFrameParsedHDRBEStatsEP11ChiMetadataS1_S1_S1_P15ChiFeature2Hint+0x598>
   259a0: 62 ff ff 90  	adrp	x2, 0x11000 <_ZNK14ChiFeature2HDR30MergeFourFrameParsedHDRBEStatsEP11ChiMetadataS1_S1_S1_P15ChiFeature2Hint+0x598>
   259a4: 25 ff ff f0  	adrp	x5, 0xc000 <_ZNK14ChiFeature2HDR30MergeFourFrameParsedHDRBEStatsEP11ChiMetadataS1_S1_S1_P15ChiFeature2Hint+0x588>
   259d8: 61 ff ff b0  	adrp	x1, 0x12000 <_ZNK14ChiFeature2HDR30MergeFourFrameParsedHDRBEStatsEP11ChiMetadataS1_S1_S1_P15ChiFeature2Hint+0x5d4>
   259e0: 20 ff ff d0  	adrp	x0, 0xb000 <_ZNK14ChiFeature2HDR30MergeFourFrameParsedHDRBEStatsEP11ChiMetadataS1_S1_S1_P15ChiFeature2Hint+0x5c0>
   259e4: 23 ff ff f0  	adrp	x3, 0xc000 <_ZNK14ChiFeature2HDR30MergeFourFrameParsedHDRBEStatsEP11ChiMetadataS1_S1_S1_P15ChiFeature2Hint+0x5c8>
   259e8: 45 ff ff b0  	adrp	x5, 0xe000 <_ZNK14ChiFeature2HDR30MergeFourFrameParsedHDRBEStatsEP11ChiMetadataS1_S1_S1_P15ChiFeature2Hint+0x5d4>
   25a00: f0 71 00 94  	bl	0x421c0 <_ZN6ChiLog9LogSystemEPKcS1_S1_S1_iS1_z@plt>
   25a04: 19 ff ff 17  	b	0x25668 <_ZNK14ChiFeature2HDR30MergeFourFrameParsedHDRBEStatsEP11ChiMetadataS1_S1_S1_P15ChiFeature2Hint+0x2b0>
0000000000025a08 <_ZNK14ChiFeature2HDR31OnPopulateConfigurationSettingsEP24ChiFeature2RequestObjectPK21ChiFeature2IdentifierP11ChiMetadata>:
   25a54: 07 72 00 94  	bl	0x42270 <_ZNK15ChiFeature2Base21GetFeaturePrivContextEP24ChiFeature2RequestObject@plt>
   25a5c: 1d 72 00 94  	bl	0x422d0 <_ZN15ExtensionModule11GetInstanceEv@plt>
   25a74: 81 16 00 54  	b.ne	0x25d44 <_ZNK14ChiFeature2HDR31OnPopulateConfigurationSettingsEP24ChiFeature2RequestObjectPK21ChiFeature2IdentifierP11ChiMetadata+0x33c>
   25ab8: 60 00 00 54  	b.eq	0x25ac4 <_ZNK14ChiFeature2HDR31OnPopulateConfigurationSettingsEP24ChiFeature2RequestObjectPK21ChiFeature2IdentifierP11ChiMetadata+0xbc>
   25ac0: 30 00 00 14  	b	0x25b80 <_ZNK14ChiFeature2HDR31OnPopulateConfigurationSettingsEP24ChiFeature2RequestObjectPK21ChiFeature2IdentifierP11ChiMetadata+0x178>
   25ac4: e4 00 00 f0  	adrp	x4, 0x44000 <_ZNK14ChiFeature2HDR31OnPopulateConfigurationSettingsEP24ChiFeature2RequestObjectPK21ChiFeature2IdentifierP11ChiMetadata+0x138>
   25ad0: 69 05 00 36  	tbz	w9, #0, 0x25b7c <_ZNK14ChiFeature2HDR31OnPopulateConfigurationSettingsEP24ChiFeature2RequestObjectPK21ChiFeature2IdentifierP11ChiMetadata+0x174>
   25ad4: f3 00 00 f0  	adrp	x19, 0x44000 <_ZNK14ChiFeature2HDR31OnPopulateConfigurationSettingsEP24ChiFeature2RequestObjectPK21ChiFeature2IdentifierP11ChiMetadata+0x148>
   25ae0: 33 ff ff d0  	adrp	x19, 0xb000 <_ZNK14ChiFeature2HDR31OnPopulateConfigurationSettingsEP24ChiFeature2RequestObjectPK21ChiFeature2IdentifierP11ChiMetadata+0x70>
   25aec: 41 02 00 54  	b.ne	0x25b34 <_ZNK14ChiFeature2HDR31OnPopulateConfigurationSettingsEP24ChiFeature2RequestObjectPK21ChiFeature2IdentifierP11ChiMetadata+0x12c>
   25b04: 61 ff ff b0  	adrp	x1, 0x12000 <_ZNK14ChiFeature2HDR31OnPopulateConfigurationSettingsEP24ChiFeature2RequestObjectPK21ChiFeature2IdentifierP11ChiMetadata+0xb0>
   25b08: 42 ff ff d0  	adrp	x2, 0xf000 <_ZNK14ChiFeature2HDR31OnPopulateConfigurationSettingsEP24ChiFeature2RequestObjectPK21ChiFeature2IdentifierP11ChiMetadata+0xa8>
   25b0c: 45 ff ff 90  	adrp	x5, 0xd000 <_ZNK14ChiFeature2HDR31OnPopulateConfigurationSettingsEP24ChiFeature2RequestObjectPK21ChiFeature2IdentifierP11ChiMetadata+0xa4>
   25b48: 61 ff ff b0  	adrp	x1, 0x12000 <_ZNK14ChiFeature2HDR31OnPopulateConfigurationSettingsEP24ChiFeature2RequestObjectPK21ChiFeature2IdentifierP11ChiMetadata+0xf4>
   25b50: 20 ff ff d0  	adrp	x0, 0xb000 <_ZNK14ChiFeature2HDR31OnPopulateConfigurationSettingsEP24ChiFeature2RequestObjectPK21ChiFeature2IdentifierP11ChiMetadata+0xe0>
   25b54: 43 ff ff 90  	adrp	x3, 0xd000 <_ZNK14ChiFeature2HDR31OnPopulateConfigurationSettingsEP24ChiFeature2RequestObjectPK21ChiFeature2IdentifierP11ChiMetadata+0xec>
   25b58: 45 ff ff b0  	adrp	x5, 0xe000 <_ZNK14ChiFeature2HDR31OnPopulateConfigurationSettingsEP24ChiFeature2RequestObjectPK21ChiFeature2IdentifierP11ChiMetadata+0xf4>
   25b78: 92 71 00 94  	bl	0x421c0 <_ZN6ChiLog9LogSystemEPKcS1_S1_S1_iS1_z@plt>
   25b94: e3 71 00 94  	bl	0x42320 <_ZNK15ChiFeature2Base36GetDependencyListFromStageDescriptorEPK26ChiFeature2StageDescriptorhhh@plt>
   25b98: 00 07 00 b4  	cbz	x0, 0x25c78 <_ZNK14ChiFeature2HDR31OnPopulateConfigurationSettingsEP24ChiFeature2RequestObjectPK21ChiFeature2IdentifierP11ChiMetadata+0x270>
   25bb4: df 71 00 94  	bl	0x42330 <_ZNK15ChiFeature2Base19GetDumpFileBaseNameEP24ChiFeature2RequestObjectPcj@plt>
   25bc0: fc 0b 00 34  	cbz	w28, 0x25d3c <_ZNK14ChiFeature2HDR31OnPopulateConfigurationSettingsEP24ChiFeature2RequestObjectPK21ChiFeature2IdentifierP11ChiMetadata+0x334>
   25bfc: d1 71 00 94  	bl	0x42340 <_ZNK24ChiFeature2RequestObject13GetBufferInfoE31ChiFeature2RequestObjectOpsTypePK21ChiFeature2IdentifierPPvPmhh@plt>
   25c10: d0 71 00 94  	bl	0x42350 <_ZNK15ChiFeature2Base19DumpInputMetaBufferEP29ChiFeature2BufferMetadataInfoPKcj@plt>
   25c40: c0 71 00 94  	bl	0x42340 <_ZNK24ChiFeature2RequestObject13GetBufferInfoE31ChiFeature2RequestObjectOpsTypePK21ChiFeature2IdentifierPPvPmhh@plt>
   25c54: c3 71 00 94  	bl	0x42360 <_ZNK15ChiFeature2Base20DumpInputImageBufferEP29ChiFeature2BufferMetadataInfoPKcj@plt>
   25c70: 68 fb ff 54  	b.hi	0x25bdc <_ZNK14ChiFeature2HDR31OnPopulateConfigurationSettingsEP24ChiFeature2RequestObjectPK21ChiFeature2IdentifierP11ChiMetadata+0x1d4>
   25c74: 32 00 00 14  	b	0x25d3c <_ZNK14ChiFeature2HDR31OnPopulateConfigurationSettingsEP24ChiFeature2RequestObjectPK21ChiFeature2IdentifierP11ChiMetadata+0x334>
   25c78: f5 00 00 f0  	adrp	x21, 0x44000 <_ZNK14ChiFeature2HDR31OnPopulateConfigurationSettingsEP24ChiFeature2RequestObjectPK21ChiFeature2IdentifierP11ChiMetadata+0x2ec>
   25c8c: 8a 05 00 36  	tbz	w10, #0, 0x25d3c <_ZNK14ChiFeature2HDR31OnPopulateConfigurationSettingsEP24ChiFeature2RequestObjectPK21ChiFeature2IdentifierP11ChiMetadata+0x334>
   25c90: fa 00 00 f0  	adrp	x26, 0x44000 <_ZNK14ChiFeature2HDR31OnPopulateConfigurationSettingsEP24ChiFeature2RequestObjectPK21ChiFeature2IdentifierP11ChiMetadata+0x304>
   25ca0: 41 02 00 54  	b.ne	0x25ce8 <_ZNK14ChiFeature2HDR31OnPopulateConfigurationSettingsEP24ChiFeature2RequestObjectPK21ChiFeature2IdentifierP11ChiMetadata+0x2e0>
   25ca4: 58 ff ff f0  	adrp	x24, 0x10000 <_ZNK14ChiFeature2HDR31OnPopulateConfigurationSettingsEP24ChiFeature2RequestObjectPK21ChiFeature2IdentifierP11ChiMetadata+0x248>
   25cc0: 61 ff ff b0  	adrp	x1, 0x12000 <_ZNK14ChiFeature2HDR31OnPopulateConfigurationSettingsEP24ChiFeature2RequestObjectPK21ChiFeature2IdentifierP11ChiMetadata+0x26c>
   25cc4: 42 ff ff b0  	adrp	x2, 0xe000 <_ZNK14ChiFeature2HDR31OnPopulateConfigurationSettingsEP24ChiFeature2RequestObjectPK21ChiFeature2IdentifierP11ChiMetadata+0x260>
   25cc8: 45 ff ff f0  	adrp	x5, 0x10000 <_ZNK14ChiFeature2HDR31OnPopulateConfigurationSettingsEP24ChiFeature2RequestObjectPK21ChiFeature2IdentifierP11ChiMetadata+0x26c>
   25ce8: 5c ff ff f0  	adrp	x28, 0x10000 <_ZNK14ChiFeature2HDR31OnPopulateConfigurationSettingsEP24ChiFeature2RequestObjectPK21ChiFeature2IdentifierP11ChiMetadata+0x28c>
   25d04: 61 ff ff b0  	adrp	x1, 0x12000 <_ZNK14ChiFeature2HDR31OnPopulateConfigurationSettingsEP24ChiFeature2RequestObjectPK21ChiFeature2IdentifierP11ChiMetadata+0x2b0>
   25d0c: 20 ff ff d0  	adrp	x0, 0xb000 <_ZNK14ChiFeature2HDR31OnPopulateConfigurationSettingsEP24ChiFeature2RequestObjectPK21ChiFeature2IdentifierP11ChiMetadata+0x29c>
   25d10: 43 ff ff f0  	adrp	x3, 0x10000 <_ZNK14ChiFeature2HDR31OnPopulateConfigurationSettingsEP24ChiFeature2RequestObjectPK21ChiFeature2IdentifierP11ChiMetadata+0x2b4>
   25d14: 45 ff ff d0  	adrp	x5, 0xf000 <_ZNK14ChiFeature2HDR31OnPopulateConfigurationSettingsEP24ChiFeature2RequestObjectPK21ChiFeature2IdentifierP11ChiMetadata+0x2b4>
   25d2c: 25 71 00 94  	bl	0x421c0 <_ZN6ChiLog9LogSystemEPKcS1_S1_S1_iS1_z@plt>
   25d44: 5c 0e 00 b4  	cbz	x28, 0x25f0c <_ZNK14ChiFeature2HDR31OnPopulateConfigurationSettingsEP24ChiFeature2RequestObjectPK21ChiFeature2IdentifierP11ChiMetadata+0x504>
   25d58: 86 71 00 94  	bl	0x42370 <_ZNK15ChiFeature2Base31OnPopulateConfigurationSettingsEP24ChiFeature2RequestObjectPK21ChiFeature2IdentifierP11ChiMetadata@plt>
   25d5c: c0 05 00 34  	cbz	w0, 0x25e14 <_ZNK14ChiFeature2HDR31OnPopulateConfigurationSettingsEP24ChiFeature2RequestObjectPK21ChiFeature2IdentifierP11ChiMetadata+0x40c>
   25d60: f1 00 00 f0  	adrp	x17, 0x44000 <_ZNK14ChiFeature2HDR31OnPopulateConfigurationSettingsEP24ChiFeature2RequestObjectPK21ChiFeature2IdentifierP11ChiMetadata+0x3d4>
   25d6c: 4b 05 00 36  	tbz	w11, #0, 0x25e14 <_ZNK14ChiFeature2HDR31OnPopulateConfigurationSettingsEP24ChiFeature2RequestObjectPK21ChiFeature2IdentifierP11ChiMetadata+0x40c>
   25d70: e8 00 00 f0  	adrp	x8, 0x44000 <_ZNK14ChiFeature2HDR31OnPopulateConfigurationSettingsEP24ChiFeature2RequestObjectPK21ChiFeature2IdentifierP11ChiMetadata+0x3e4>
   25d74: 5b ff ff f0  	adrp	x27, 0x10000 <_ZNK14ChiFeature2HDR31OnPopulateConfigurationSettingsEP24ChiFeature2RequestObjectPK21ChiFeature2IdentifierP11ChiMetadata+0x318>
   25d8c: 21 02 00 54  	b.ne	0x25dd0 <_ZNK14ChiFeature2HDR31OnPopulateConfigurationSettingsEP24ChiFeature2RequestObjectPK21ChiFeature2IdentifierP11ChiMetadata+0x3c8>
   25da4: 61 ff ff b0  	adrp	x1, 0x12000 <_ZNK14ChiFeature2HDR31OnPopulateConfigurationSettingsEP24ChiFeature2RequestObjectPK21ChiFeature2IdentifierP11ChiMetadata+0x350>
   25da8: 22 ff ff f0  	adrp	x2, 0xc000 <_ZNK14ChiFeature2HDR31OnPopulateConfigurationSettingsEP24ChiFeature2RequestObjectPK21ChiFeature2IdentifierP11ChiMetadata+0x33c>
   25dac: 45 ff ff f0  	adrp	x5, 0x10000 <_ZNK14ChiFeature2HDR31OnPopulateConfigurationSettingsEP24ChiFeature2RequestObjectPK21ChiFeature2IdentifierP11ChiMetadata+0x350>
   25de4: 61 ff ff b0  	adrp	x1, 0x12000 <_ZNK14ChiFeature2HDR31OnPopulateConfigurationSettingsEP24ChiFeature2RequestObjectPK21ChiFeature2IdentifierP11ChiMetadata+0x390>
   25dec: 20 ff ff d0  	adrp	x0, 0xb000 <_ZNK14ChiFeature2HDR31OnPopulateConfigurationSettingsEP24ChiFeature2RequestObjectPK21ChiFeature2IdentifierP11ChiMetadata+0x37c>
   25df0: 43 ff ff f0  	adrp	x3, 0x10000 <_ZNK14ChiFeature2HDR31OnPopulateConfigurationSettingsEP24ChiFeature2RequestObjectPK21ChiFeature2IdentifierP11ChiMetadata+0x394>
   25df4: 25 ff ff d0  	adrp	x5, 0xb000 <_ZNK14ChiFeature2HDR31OnPopulateConfigurationSettingsEP24ChiFeature2RequestObjectPK21ChiFeature2IdentifierP11ChiMetadata+0x384>
   25e10: ec 70 00 94  	bl	0x421c0 <_ZN6ChiLog9LogSystemEPKcS1_S1_S1_iS1_z@plt>
   25e18: 61 ff ff b0  	adrp	x1, 0x12000 <_ZNK14ChiFeature2HDR31OnPopulateConfigurationSettingsEP24ChiFeature2RequestObjectPK21ChiFeature2IdentifierP11ChiMetadata+0x3c4>
   25e20: 22 ff ff b0  	adrp	x2, 0xa000 <_ZNK14ChiFeature2HDR31OnPopulateConfigurationSettingsEP24ChiFeature2RequestObjectPK21ChiFeature2IdentifierP11ChiMetadata+0x3ac>
   25e3c: 40 0c 00 34  	cbz	w0, 0x25fc4 <_ZNK14ChiFeature2HDR31OnPopulateConfigurationSettingsEP24ChiFeature2RequestObjectPK21ChiFeature2IdentifierP11ChiMetadata+0x5bc>
   25e40: e9 00 00 f0  	adrp	x9, 0x44000 <_ZNK14ChiFeature2HDR31OnPopulateConfigurationSettingsEP24ChiFeature2RequestObjectPK21ChiFeature2IdentifierP11ChiMetadata+0x4b4>
   25e50: ac b8 00 36  	tbz	w12, #0, 0x27564 <_ZNK14ChiFeature2HDR31OnPopulateConfigurationSettingsEP24ChiFeature2RequestObjectPK21ChiFeature2IdentifierP11ChiMetadata+0x1b5c>
   25e54: e9 00 00 f0  	adrp	x9, 0x44000 <_ZNK14ChiFeature2HDR31OnPopulateConfigurationSettingsEP24ChiFeature2RequestObjectPK21ChiFeature2IdentifierP11ChiMetadata+0x4c8>
   25e64: a1 02 00 54  	b.ne	0x25eb8 <_ZNK14ChiFeature2HDR31OnPopulateConfigurationSettingsEP24ChiFeature2RequestObjectPK21ChiFeature2IdentifierP11ChiMetadata+0x4b0>
   25e6c: 59 ff ff f0  	adrp	x25, 0x10000 <_ZNK14ChiFeature2HDR31OnPopulateConfigurationSettingsEP24ChiFeature2RequestObjectPK21ChiFeature2IdentifierP11ChiMetadata+0x410>
   25e88: 61 ff ff b0  	adrp	x1, 0x12000 <_ZNK14ChiFeature2HDR31OnPopulateConfigurationSettingsEP24ChiFeature2RequestObjectPK21ChiFeature2IdentifierP11ChiMetadata+0x434>
   25e8c: 42 ff ff f0  	adrp	x2, 0x10000 <_ZNK14ChiFeature2HDR31OnPopulateConfigurationSettingsEP24ChiFeature2RequestObjectPK21ChiFeature2IdentifierP11ChiMetadata+0x430>
   25e90: 45 ff ff f0  	adrp	x5, 0x10000 <_ZNK14ChiFeature2HDR31OnPopulateConfigurationSettingsEP24ChiFeature2RequestObjectPK21ChiFeature2IdentifierP11ChiMetadata+0x434>
   25eb8: 56 ff ff f0  	adrp	x22, 0x10000 <_ZNK14ChiFeature2HDR31OnPopulateConfigurationSettingsEP24ChiFeature2RequestObjectPK21ChiFeature2IdentifierP11ChiMetadata+0x45c>
   25ed4: 61 ff ff b0  	adrp	x1, 0x12000 <_ZNK14ChiFeature2HDR31OnPopulateConfigurationSettingsEP24ChiFeature2RequestObjectPK21ChiFeature2IdentifierP11ChiMetadata+0x480>
   25edc: 20 ff ff d0  	adrp	x0, 0xb000 <_ZNK14ChiFeature2HDR31OnPopulateConfigurationSettingsEP24ChiFeature2RequestObjectPK21ChiFeature2IdentifierP11ChiMetadata+0x46c>
   25ee0: 43 ff ff f0  	adrp	x3, 0x10000 <_ZNK14ChiFeature2HDR31OnPopulateConfigurationSettingsEP24ChiFeature2RequestObjectPK21ChiFeature2IdentifierP11ChiMetadata+0x484>
   25ee4: 25 ff ff d0  	adrp	x5, 0xb000 <_ZNK14ChiFeature2HDR31OnPopulateConfigurationSettingsEP24ChiFeature2RequestObjectPK21ChiFeature2IdentifierP11ChiMetadata+0x474>
   25f00: b0 70 00 94  	bl	0x421c0 <_ZN6ChiLog9LogSystemEPKcS1_S1_S1_iS1_z@plt>
   25f08: 97 05 00 14  	b	0x27564 <_ZNK14ChiFeature2HDR31OnPopulateConfigurationSettingsEP24ChiFeature2RequestObjectPK21ChiFeature2IdentifierP11ChiMetadata+0x1b5c>
   25f0c: f7 00 00 f0  	adrp	x23, 0x44000 <_ZNK14ChiFeature2HDR31OnPopulateConfigurationSettingsEP24ChiFeature2RequestObjectPK21ChiFeature2IdentifierP11ChiMetadata+0x580>
   25f18: 38 05 00 36  	tbz	w24, #0, 0x25fbc <_ZNK14ChiFeature2HDR31OnPopulateConfigurationSettingsEP24ChiFeature2RequestObjectPK21ChiFeature2IdentifierP11ChiMetadata+0x5b4>
   25f1c: f4 00 00 f0  	adrp	x20, 0x44000 <_ZNK14ChiFeature2HDR31OnPopulateConfigurationSettingsEP24ChiFeature2RequestObjectPK21ChiFeature2IdentifierP11ChiMetadata+0x590>
   25f2c: 41 02 00 54  	b.ne	0x25f74 <_ZNK14ChiFeature2HDR31OnPopulateConfigurationSettingsEP24ChiFeature2RequestObjectPK21ChiFeature2IdentifierP11ChiMetadata+0x56c>
   25f30: 59 ff ff f0  	adrp	x25, 0x10000 <_ZNK14ChiFeature2HDR31OnPopulateConfigurationSettingsEP24ChiFeature2RequestObjectPK21ChiFeature2IdentifierP11ChiMetadata+0x4d4>
   25f4c: 61 ff ff b0  	adrp	x1, 0x12000 <_ZNK14ChiFeature2HDR31OnPopulateConfigurationSettingsEP24ChiFeature2RequestObjectPK21ChiFeature2IdentifierP11ChiMetadata+0x4f8>
   25f50: 42 ff ff 90  	adrp	x2, 0xd000 <_ZNK14ChiFeature2HDR31OnPopulateConfigurationSettingsEP24ChiFeature2RequestObjectPK21ChiFeature2IdentifierP11ChiMetadata+0x4e8>
   25f54: 45 ff ff f0  	adrp	x5, 0x10000 <_ZNK14ChiFeature2HDR31OnPopulateConfigurationSettingsEP24ChiFeature2RequestObjectPK21ChiFeature2IdentifierP11ChiMetadata+0x4f8>
   25f74: 5a ff ff f0  	adrp	x26, 0x10000 <_ZNK14ChiFeature2HDR31OnPopulateConfigurationSettingsEP24ChiFeature2RequestObjectPK21ChiFeature2IdentifierP11ChiMetadata+0x518>
   25f90: 61 ff ff b0  	adrp	x1, 0x12000 <_ZNK14ChiFeature2HDR31OnPopulateConfigurationSettingsEP24ChiFeature2RequestObjectPK21ChiFeature2IdentifierP11ChiMetadata+0x53c>
   25f98: 20 ff ff d0  	adrp	x0, 0xb000 <_ZNK14ChiFeature2HDR31OnPopulateConfigurationSettingsEP24ChiFeature2RequestObjectPK21ChiFeature2IdentifierP11ChiMetadata+0x528>
   25f9c: 43 ff ff f0  	adrp	x3, 0x10000 <_ZNK14ChiFeature2HDR31OnPopulateConfigurationSettingsEP24ChiFeature2RequestObjectPK21ChiFeature2IdentifierP11ChiMetadata+0x540>
   25fa0: 25 ff ff f0  	adrp	x5, 0xc000 <_ZNK14ChiFeature2HDR31OnPopulateConfigurationSettingsEP24ChiFeature2RequestObjectPK21ChiFeature2IdentifierP11ChiMetadata+0x534>
   25fb8: 82 70 00 94  	bl	0x421c0 <_ZN6ChiLog9LogSystemEPKcS1_S1_S1_iS1_z@plt>
   25fc0: f7 05 00 14  	b	0x2779c <_ZNK14ChiFeature2HDR31OnPopulateConfigurationSettingsEP24ChiFeature2RequestObjectPK21ChiFeature2IdentifierP11ChiMetadata+0x1d94>
   25fcc: 20 02 00 b4  	cbz	x0, 0x26010 <_ZNK14ChiFeature2HDR31OnPopulateConfigurationSettingsEP24ChiFeature2RequestObjectPK21ChiFeature2IdentifierP11ChiMetadata+0x608>
   2601c: ed 13 00 34  	cbz	w13, 0x26298 <_ZNK14ChiFeature2HDR31OnPopulateConfigurationSettingsEP24ChiFeature2RequestObjectPK21ChiFeature2IdentifierP11ChiMetadata+0x890>
   26024: 5b ff ff d0  	adrp	x27, 0x10000 <_ZNK14ChiFeature2HDR31OnPopulateConfigurationSettingsEP24ChiFeature2RequestObjectPK21ChiFeature2IdentifierP11ChiMetadata+0x5c4>
   26028: 3a ff ff b0  	adrp	x26, 0xb000 <_ZNK14ChiFeature2HDR31OnPopulateConfigurationSettingsEP24ChiFeature2RequestObjectPK21ChiFeature2IdentifierP11ChiMetadata+0x5b4>
   2602c: 58 ff ff d0  	adrp	x24, 0x10000 <_ZNK14ChiFeature2HDR31OnPopulateConfigurationSettingsEP24ChiFeature2RequestObjectPK21ChiFeature2IdentifierP11ChiMetadata+0x5cc>
   26044: 1d 00 00 14  	b	0x260b8 <_ZNK14ChiFeature2HDR31OnPopulateConfigurationSettingsEP24ChiFeature2RequestObjectPK21ChiFeature2IdentifierP11ChiMetadata+0x6b0>
   26060: 41 ff ff 90  	adrp	x1, 0xe000 <_ZNK14ChiFeature2HDR31OnPopulateConfigurationSettingsEP24ChiFeature2RequestObjectPK21ChiFeature2IdentifierP11ChiMetadata+0x5f8>
   26070: 60 ff ff 90  	adrp	x0, 0x12000 <_ZNK14ChiFeature2HDR31OnPopulateConfigurationSettingsEP24ChiFeature2RequestObjectPK21ChiFeature2IdentifierP11ChiMetadata+0x618>
   26078: 43 ff ff d0  	adrp	x3, 0x10000 <_ZNK14ChiFeature2HDR31OnPopulateConfigurationSettingsEP24ChiFeature2RequestObjectPK21ChiFeature2IdentifierP11ChiMetadata+0x618>
   26080: 25 ff ff 90  	adrp	x5, 0xa000 <_ZNK14ChiFeature2HDR31OnPopulateConfigurationSettingsEP24ChiFeature2RequestObjectPK21ChiFeature2IdentifierP11ChiMetadata+0x608>
   2609c: 49 70 00 94  	bl	0x421c0 <_ZN6ChiLog9LogSystemEPKcS1_S1_S1_iS1_z@plt>
   260b4: 22 0f 00 54  	b.hs	0x26298 <_ZNK14ChiFeature2HDR31OnPopulateConfigurationSettingsEP24ChiFeature2RequestObjectPK21ChiFeature2IdentifierP11ChiMetadata+0x890>
   260cc: ad 70 00 94  	bl	0x42380 <_ZNK15ChiFeature2Base25GetExternalOutputSettingsEP24ChiFeature2RequestObjectPK21ChiFeature2Identifierhh@plt>
   260d0: 80 fe ff b4  	cbz	x0, 0x260a0 <_ZNK14ChiFeature2HDR31OnPopulateConfigurationSettingsEP24ChiFeature2RequestObjectPK21ChiFeature2IdentifierP11ChiMetadata+0x698>
   260e0: 22 ff ff d0  	adrp	x2, 0xc000 <_ZNK14ChiFeature2HDR31OnPopulateConfigurationSettingsEP24ChiFeature2RequestObjectPK21ChiFeature2IdentifierP11ChiMetadata+0x670>
   26100: d0 06 00 b4  	cbz	x16, 0x261d8 <_ZNK14ChiFeature2HDR31OnPopulateConfigurationSettingsEP24ChiFeature2RequestObjectPK21ChiFeature2IdentifierP11ChiMetadata+0x7d0>
   26108: e8 00 00 d0  	adrp	x8, 0x44000 <_ZNK14ChiFeature2HDR31OnPopulateConfigurationSettingsEP24ChiFeature2RequestObjectPK21ChiFeature2IdentifierP11ChiMetadata+0x778>
   26124: ae 05 18 36  	tbz	w14, #3, 0x261d8 <_ZNK14ChiFeature2HDR31OnPopulateConfigurationSettingsEP24ChiFeature2RequestObjectPK21ChiFeature2IdentifierP11ChiMetadata+0x7d0>
   26128: ed 00 00 d0  	adrp	x13, 0x44000 <_ZNK14ChiFeature2HDR31OnPopulateConfigurationSettingsEP24ChiFeature2RequestObjectPK21ChiFeature2IdentifierP11ChiMetadata+0x798>
   26138: 81 02 00 54  	b.ne	0x26188 <_ZNK14ChiFeature2HDR31OnPopulateConfigurationSettingsEP24ChiFeature2RequestObjectPK21ChiFeature2IdentifierP11ChiMetadata+0x780>
   26154: 61 ff ff 90  	adrp	x1, 0x12000 <_ZNK14ChiFeature2HDR31OnPopulateConfigurationSettingsEP24ChiFeature2RequestObjectPK21ChiFeature2IdentifierP11ChiMetadata+0x6fc>
   26158: 22 ff ff b0  	adrp	x2, 0xb000 <_ZNK14ChiFeature2HDR31OnPopulateConfigurationSettingsEP24ChiFeature2RequestObjectPK21ChiFeature2IdentifierP11ChiMetadata+0x6e4>
   2615c: 45 ff ff d0  	adrp	x5, 0x10000 <_ZNK14ChiFeature2HDR31OnPopulateConfigurationSettingsEP24ChiFeature2RequestObjectPK21ChiFeature2IdentifierP11ChiMetadata+0x6fc>
   261a0: 41 ff ff 90  	adrp	x1, 0xe000 <_ZNK14ChiFeature2HDR31OnPopulateConfigurationSettingsEP24ChiFeature2RequestObjectPK21ChiFeature2IdentifierP11ChiMetadata+0x738>
   261a8: 60 ff ff 90  	adrp	x0, 0x12000 <_ZNK14ChiFeature2HDR31OnPopulateConfigurationSettingsEP24ChiFeature2RequestObjectPK21ChiFeature2IdentifierP11ChiMetadata+0x750>
   261ac: 43 ff ff d0  	adrp	x3, 0x10000 <_ZNK14ChiFeature2HDR31OnPopulateConfigurationSettingsEP24ChiFeature2RequestObjectPK21ChiFeature2IdentifierP11ChiMetadata+0x74c>
   261b0: 25 ff ff d0  	adrp	x5, 0xc000 <_ZNK14ChiFeature2HDR31OnPopulateConfigurationSettingsEP24ChiFeature2RequestObjectPK21ChiFeature2IdentifierP11ChiMetadata+0x740>
   261d4: fb 6f 00 94  	bl	0x421c0 <_ZN6ChiLog9LogSystemEPKcS1_S1_S1_iS1_z@plt>
   26200: 0a f5 ff b4  	cbz	x10, 0x260a0 <_ZNK14ChiFeature2HDR31OnPopulateConfigurationSettingsEP24ChiFeature2RequestObjectPK21ChiFeature2IdentifierP11ChiMetadata+0x698>
   26218: ea 00 00 d0  	adrp	x10, 0x44000 <_ZNK14ChiFeature2HDR31OnPopulateConfigurationSettingsEP24ChiFeature2RequestObjectPK21ChiFeature2IdentifierP11ChiMetadata+0x888>
   26228: d0 f3 1f 36  	tbz	w16, #3, 0x260a0 <_ZNK14ChiFeature2HDR31OnPopulateConfigurationSettingsEP24ChiFeature2RequestObjectPK21ChiFeature2IdentifierP11ChiMetadata+0x698>
   2622c: ee 00 00 d0  	adrp	x14, 0x44000 <_ZNK14ChiFeature2HDR31OnPopulateConfigurationSettingsEP24ChiFeature2RequestObjectPK21ChiFeature2IdentifierP11ChiMetadata+0x89c>
   2623c: 61 f0 ff 54  	b.ne	0x26048 <_ZNK14ChiFeature2HDR31OnPopulateConfigurationSettingsEP24ChiFeature2RequestObjectPK21ChiFeature2IdentifierP11ChiMetadata+0x640>
   26258: 61 ff ff 90  	adrp	x1, 0x12000 <_ZNK14ChiFeature2HDR31OnPopulateConfigurationSettingsEP24ChiFeature2RequestObjectPK21ChiFeature2IdentifierP11ChiMetadata+0x800>
   26260: 22 ff ff f0  	adrp	x2, 0xd000 <_ZNK14ChiFeature2HDR31OnPopulateConfigurationSettingsEP24ChiFeature2RequestObjectPK21ChiFeature2IdentifierP11ChiMetadata+0x7f4>
   26268: 45 ff ff d0  	adrp	x5, 0x10000 <_ZNK14ChiFeature2HDR31OnPopulateConfigurationSettingsEP24ChiFeature2RequestObjectPK21ChiFeature2IdentifierP11ChiMetadata+0x808>
   26294: 6d ff ff 17  	b	0x26048 <_ZNK14ChiFeature2HDR31OnPopulateConfigurationSettingsEP24ChiFeature2RequestObjectPK21ChiFeature2IdentifierP11ChiMetadata+0x640>
   262a4: a0 36 00 54  	b.eq	0x26978 <_ZNK14ChiFeature2HDR31OnPopulateConfigurationSettingsEP24ChiFeature2RequestObjectPK21ChiFeature2IdentifierP11ChiMetadata+0xf70>
   262b0: c0 42 00 54  	b.eq	0x26b08 <_ZNK14ChiFeature2HDR31OnPopulateConfigurationSettingsEP24ChiFeature2RequestObjectPK21ChiFeature2IdentifierP11ChiMetadata+0x1100>
   262b8: 41 4b 00 54  	b.ne	0x26c20 <_ZNK14ChiFeature2HDR31OnPopulateConfigurationSettingsEP24ChiFeature2RequestObjectPK21ChiFeature2IdentifierP11ChiMetadata+0x1218>
   262bc: f0 00 00 d0  	adrp	x16, 0x44000 <_ZNK14ChiFeature2HDR31OnPopulateConfigurationSettingsEP24ChiFeature2RequestObjectPK21ChiFeature2IdentifierP11ChiMetadata+0x92c>
   262c8: 51 05 18 36  	tbz	w17, #3, 0x26370 <_ZNK14ChiFeature2HDR31OnPopulateConfigurationSettingsEP24ChiFeature2RequestObjectPK21ChiFeature2IdentifierP11ChiMetadata+0x968>
   262cc: eb 00 00 d0  	adrp	x11, 0x44000 <_ZNK14ChiFeature2HDR31OnPopulateConfigurationSettingsEP24ChiFeature2RequestObjectPK21ChiFeature2IdentifierP11ChiMetadata+0x93c>
   262dc: 61 02 00 54  	b.ne	0x26328 <_ZNK14ChiFeature2HDR31OnPopulateConfigurationSettingsEP24ChiFeature2RequestObjectPK21ChiFeature2IdentifierP11ChiMetadata+0x920>
   262e0: 5a ff ff d0  	adrp	x26, 0x10000 <_ZNK14ChiFeature2HDR31OnPopulateConfigurationSettingsEP24ChiFeature2RequestObjectPK21ChiFeature2IdentifierP11ChiMetadata+0x880>
   262fc: 61 ff ff 90  	adrp	x1, 0x12000 <_ZNK14ChiFeature2HDR31OnPopulateConfigurationSettingsEP24ChiFeature2RequestObjectPK21ChiFeature2IdentifierP11ChiMetadata+0x8a4>
   26300: 22 ff ff b0  	adrp	x2, 0xb000 <_ZNK14ChiFeature2HDR31OnPopulateConfigurationSettingsEP24ChiFeature2RequestObjectPK21ChiFeature2IdentifierP11ChiMetadata+0x88c>
   26304: 45 ff ff d0  	adrp	x5, 0x10000 <_ZNK14ChiFeature2HDR31OnPopulateConfigurationSettingsEP24ChiFeature2RequestObjectPK21ChiFeature2IdentifierP11ChiMetadata+0x8a4>
   26328: 53 ff ff d0  	adrp	x19, 0x10000 <_ZNK14ChiFeature2HDR31OnPopulateConfigurationSettingsEP24ChiFeature2RequestObjectPK21ChiFeature2IdentifierP11ChiMetadata+0x8c8>
   26344: 41 ff ff 90  	adrp	x1, 0xe000 <_ZNK14ChiFeature2HDR31OnPopulateConfigurationSettingsEP24ChiFeature2RequestObjectPK21ChiFeature2IdentifierP11ChiMetadata+0x8dc>
   2634c: 60 ff ff 90  	adrp	x0, 0x12000 <_ZNK14ChiFeature2HDR31OnPopulateConfigurationSettingsEP24ChiFeature2RequestObjectPK21ChiFeature2IdentifierP11ChiMetadata+0x8f4>
   26350: 43 ff ff d0  	adrp	x3, 0x10000 <_ZNK14ChiFeature2HDR31OnPopulateConfigurationSettingsEP24ChiFeature2RequestObjectPK21ChiFeature2IdentifierP11ChiMetadata+0x8f0>
   26354: 25 ff ff 90  	adrp	x5, 0xa000 <_ZNK14ChiFeature2HDR31OnPopulateConfigurationSettingsEP24ChiFeature2RequestObjectPK21ChiFeature2IdentifierP11ChiMetadata+0x8dc>
   2636c: 95 6f 00 94  	bl	0x421c0 <_ZN6ChiLog9LogSystemEPKcS1_S1_S1_iS1_z@plt>
   26384: ff 6f 00 94  	bl	0x42380 <_ZNK15ChiFeature2Base25GetExternalOutputSettingsEP24ChiFeature2RequestObjectPK21ChiFeature2Identifierhh@plt>
   263a0: f8 6f 00 94  	bl	0x42380 <_ZNK15ChiFeature2Base25GetExternalOutputSettingsEP24ChiFeature2RequestObjectPK21ChiFeature2Identifierhh@plt>
   263bc: f1 6f 00 94  	bl	0x42380 <_ZNK15ChiFeature2Base25GetExternalOutputSettingsEP24ChiFeature2RequestObjectPK21ChiFeature2Identifierhh@plt>
   263dc: ed 6f 00 94  	bl	0x42390 <_ZNK14ChiFeature2HDR20MergeAECFrameControlEP11ChiMetadataS1_S1_P15ChiFeature2Hint@plt>
   26400: e8 6f 00 94  	bl	0x423a0 <_ZNK14ChiFeature2HDR30MergeFourFrameParsedBhistStatsEP11ChiMetadataS1_S1_S1_P15ChiFeature2Hinti@plt>
   26420: e4 6f 00 94  	bl	0x423b0 <_ZNK14ChiFeature2HDR30MergeFourFrameParsedAWBBGStatsEP11ChiMetadataS1_S1_S1_P15ChiFeature2Hinti@plt>
   26440: e0 6f 00 94  	bl	0x423c0 <_ZNK14ChiFeature2HDR35MergeFourFrameParsedTintlessBGStatsEP11ChiMetadataS1_S1_S1_P15ChiFeature2Hinti@plt>
   26460: dc 6f 00 94  	bl	0x423d0 <_ZNK14ChiFeature2HDR30MergeFourFrameIFENRMConfigDataEP11ChiMetadataS1_S1_S1_P15ChiFeature2Hinti@plt>
   26484: d7 6f 00 94  	bl	0x423e0 <_ZNK14ChiFeature2HDR30MergeFourFrameBPSNRMConfigDataEP11ChiMetadataS1_S1_S1_P15ChiFeature2Hinti@plt>
   264a0: d4 6f 00 94  	bl	0x423f0 <_ZNK14ChiFeature2HDR33MergeFourFrameParsedHDRBHistStatsEP11ChiMetadataS1_S1_S1_P15ChiFeature2Hint@plt>
   264bc: d1 6f 00 94  	bl	0x42400 <_ZNK14ChiFeature2HDR30MergeFourFrameParsedHDRBEStatsEP11ChiMetadataS1_S1_S1_P15ChiFeature2Hint@plt>
   264d0: d0 6f 00 94  	bl	0x42410 <_ZNK14ChiFeature2HDR18Replace3ADebugDataEP11ChiMetadataS1_j@plt>
   264d8: fb 05 00 34  	cbz	w27, 0x26594 <_ZNK14ChiFeature2HDR31OnPopulateConfigurationSettingsEP24ChiFeature2RequestObjectPK21ChiFeature2IdentifierP11ChiMetadata+0xb8c>
   264dc: e1 00 00 d0  	adrp	x1, 0x44000 <_ZNK14ChiFeature2HDR31OnPopulateConfigurationSettingsEP24ChiFeature2RequestObjectPK21ChiFeature2IdentifierP11ChiMetadata+0xb4c>
   264e8: 62 05 00 36  	tbz	w2, #0, 0x26594 <_ZNK14ChiFeature2HDR31OnPopulateConfigurationSettingsEP24ChiFeature2RequestObjectPK21ChiFeature2IdentifierP11ChiMetadata+0xb8c>
   264ec: ec 00 00 d0  	adrp	x12, 0x44000 <_ZNK14ChiFeature2HDR31OnPopulateConfigurationSettingsEP24ChiFeature2RequestObjectPK21ChiFeature2IdentifierP11ChiMetadata+0xb5c>
   264fc: 61 02 00 54  	b.ne	0x26548 <_ZNK14ChiFeature2HDR31OnPopulateConfigurationSettingsEP24ChiFeature2RequestObjectPK21ChiFeature2IdentifierP11ChiMetadata+0xb40>
   26500: 58 ff ff d0  	adrp	x24, 0x10000 <_ZNK14ChiFeature2HDR31OnPopulateConfigurationSettingsEP24ChiFeature2RequestObjectPK21ChiFeature2IdentifierP11ChiMetadata+0xaa0>
   2651c: 61 ff ff 90  	adrp	x1, 0x12000 <_ZNK14ChiFeature2HDR31OnPopulateConfigurationSettingsEP24ChiFeature2RequestObjectPK21ChiFeature2IdentifierP11ChiMetadata+0xac4>
   26520: 42 ff ff 90  	adrp	x2, 0xe000 <_ZNK14ChiFeature2HDR31OnPopulateConfigurationSettingsEP24ChiFeature2RequestObjectPK21ChiFeature2IdentifierP11ChiMetadata+0xab8>
   26524: 45 ff ff d0  	adrp	x5, 0x10000 <_ZNK14ChiFeature2HDR31OnPopulateConfigurationSettingsEP24ChiFeature2RequestObjectPK21ChiFeature2IdentifierP11ChiMetadata+0xac4>
   26548: 56 ff ff d0  	adrp	x22, 0x10000 <_ZNK14ChiFeature2HDR31OnPopulateConfigurationSettingsEP24ChiFeature2RequestObjectPK21ChiFeature2IdentifierP11ChiMetadata+0xae8>
   26564: 61 ff ff 90  	adrp	x1, 0x12000 <_ZNK14ChiFeature2HDR31OnPopulateConfigurationSettingsEP24ChiFeature2RequestObjectPK21ChiFeature2IdentifierP11ChiMetadata+0xb0c>
   2656c: 20 ff ff b0  	adrp	x0, 0xb000 <_ZNK14ChiFeature2HDR31OnPopulateConfigurationSettingsEP24ChiFeature2RequestObjectPK21ChiFeature2IdentifierP11ChiMetadata+0xaf8>
   26570: 43 ff ff d0  	adrp	x3, 0x10000 <_ZNK14ChiFeature2HDR31OnPopulateConfigurationSettingsEP24ChiFeature2RequestObjectPK21ChiFeature2IdentifierP11ChiMetadata+0xb10>
   26574: 45 ff ff f0  	adrp	x5, 0x11000 <_ZNK14ChiFeature2HDR31OnPopulateConfigurationSettingsEP24ChiFeature2RequestObjectPK21ChiFeature2IdentifierP11ChiMetadata+0xb18>
   26590: 0c 6f 00 94  	bl	0x421c0 <_ZN6ChiLog9LogSystemEPKcS1_S1_S1_iS1_z@plt>
   26594: e7 00 00 d0  	adrp	x7, 0x44000 <_ZNK14ChiFeature2HDR31OnPopulateConfigurationSettingsEP24ChiFeature2RequestObjectPK21ChiFeature2IdentifierP11ChiMetadata+0xc04>
   265a4: e3 05 18 36  	tbz	w3, #3, 0x26660 <_ZNK14ChiFeature2HDR31OnPopulateConfigurationSettingsEP24ChiFeature2RequestObjectPK21ChiFeature2IdentifierP11ChiMetadata+0xc58>
   265a8: ed 00 00 d0  	adrp	x13, 0x44000 <_ZNK14ChiFeature2HDR31OnPopulateConfigurationSettingsEP24ChiFeature2RequestObjectPK21ChiFeature2IdentifierP11ChiMetadata+0xc18>
   265bc: 81 02 00 54  	b.ne	0x2660c <_ZNK14ChiFeature2HDR31OnPopulateConfigurationSettingsEP24ChiFeature2RequestObjectPK21ChiFeature2IdentifierP11ChiMetadata+0xc04>
   265c0: 5a ff ff d0  	adrp	x26, 0x10000 <_ZNK14ChiFeature2HDR31OnPopulateConfigurationSettingsEP24ChiFeature2RequestObjectPK21ChiFeature2IdentifierP11ChiMetadata+0xb60>
   265e0: 61 ff ff 90  	adrp	x1, 0x12000 <_ZNK14ChiFeature2HDR31OnPopulateConfigurationSettingsEP24ChiFeature2RequestObjectPK21ChiFeature2IdentifierP11ChiMetadata+0xb88>
   265e4: 42 ff ff b0  	adrp	x2, 0xf000 <_ZNK14ChiFeature2HDR31OnPopulateConfigurationSettingsEP24ChiFeature2RequestObjectPK21ChiFeature2IdentifierP11ChiMetadata+0xb80>
   265e8: 45 ff ff d0  	adrp	x5, 0x10000 <_ZNK14ChiFeature2HDR31OnPopulateConfigurationSettingsEP24ChiFeature2RequestObjectPK21ChiFeature2IdentifierP11ChiMetadata+0xb88>
   2660c: 53 ff ff d0  	adrp	x19, 0x10000 <_ZNK14ChiFeature2HDR31OnPopulateConfigurationSettingsEP24ChiFeature2RequestObjectPK21ChiFeature2IdentifierP11ChiMetadata+0xbac>
   26630: 60 ff ff 90  	adrp	x0, 0x12000 <_ZNK14ChiFeature2HDR31OnPopulateConfigurationSettingsEP24ChiFeature2RequestObjectPK21ChiFeature2IdentifierP11ChiMetadata+0xbd8>
   26634: 41 ff ff 90  	adrp	x1, 0xe000 <_ZNK14ChiFeature2HDR31OnPopulateConfigurationSettingsEP24ChiFeature2RequestObjectPK21ChiFeature2IdentifierP11ChiMetadata+0xbcc>
   26638: 43 ff ff d0  	adrp	x3, 0x10000 <_ZNK14ChiFeature2HDR31OnPopulateConfigurationSettingsEP24ChiFeature2RequestObjectPK21ChiFeature2IdentifierP11ChiMetadata+0xbd8>
   2663c: 45 ff ff d0  	adrp	x5, 0x10000 <_ZNK14ChiFeature2HDR31OnPopulateConfigurationSettingsEP24ChiFeature2RequestObjectPK21ChiFeature2IdentifierP11ChiMetadata+0xbdc>
   26658: da 6e 00 94  	bl	0x421c0 <_ZN6ChiLog9LogSystemEPKcS1_S1_S1_iS1_z@plt>
   266e0: 1a 6c 00 b4  	cbz	x26, 0x27460 <_ZNK14ChiFeature2HDR31OnPopulateConfigurationSettingsEP24ChiFeature2RequestObjectPK21ChiFeature2IdentifierP11ChiMetadata+0x1a58>
   266e4: f8 6b 00 b4  	cbz	x24, 0x27460 <_ZNK14ChiFeature2HDR31OnPopulateConfigurationSettingsEP24ChiFeature2RequestObjectPK21ChiFeature2IdentifierP11ChiMetadata+0x1a58>
   266ec: d3 73 00 b4  	cbz	x19, 0x27564 <_ZNK14ChiFeature2HDR31OnPopulateConfigurationSettingsEP24ChiFeature2RequestObjectPK21ChiFeature2IdentifierP11ChiMetadata+0x1b5c>
   266f4: eb 00 00 d0  	adrp	x11, 0x44000 <_ZNK14ChiFeature2HDR31OnPopulateConfigurationSettingsEP24ChiFeature2RequestObjectPK21ChiFeature2IdentifierP11ChiMetadata+0xd64>
   2672c: c1 06 18 36  	tbz	w1, #3, 0x26804 <_ZNK14ChiFeature2HDR31OnPopulateConfigurationSettingsEP24ChiFeature2RequestObjectPK21ChiFeature2IdentifierP11ChiMetadata+0xdfc>
   26730: ef 00 00 d0  	adrp	x15, 0x44000 <_ZNK14ChiFeature2HDR31OnPopulateConfigurationSettingsEP24ChiFeature2RequestObjectPK21ChiFeature2IdentifierP11ChiMetadata+0xda0>
   26740: 01 03 00 54  	b.ne	0x267a0 <_ZNK14ChiFeature2HDR31OnPopulateConfigurationSettingsEP24ChiFeature2RequestObjectPK21ChiFeature2IdentifierP11ChiMetadata+0xd98>
   26744: 5b ff ff d0  	adrp	x27, 0x10000 <_ZNK14ChiFeature2HDR31OnPopulateConfigurationSettingsEP24ChiFeature2RequestObjectPK21ChiFeature2IdentifierP11ChiMetadata+0xce4>
   26764: 61 ff ff 90  	adrp	x1, 0x12000 <_ZNK14ChiFeature2HDR31OnPopulateConfigurationSettingsEP24ChiFeature2RequestObjectPK21ChiFeature2IdentifierP11ChiMetadata+0xd0c>
   2676c: 42 ff ff f0  	adrp	x2, 0x11000 <_ZNK14ChiFeature2HDR31OnPopulateConfigurationSettingsEP24ChiFeature2RequestObjectPK21ChiFeature2IdentifierP11ChiMetadata+0xd10>
   26770: 45 ff ff d0  	adrp	x5, 0x10000 <_ZNK14ChiFeature2HDR31OnPopulateConfigurationSettingsEP24ChiFeature2RequestObjectPK21ChiFeature2IdentifierP11ChiMetadata+0xd10>
   267a0: 5c ff ff d0  	adrp	x28, 0x10000 <_ZNK14ChiFeature2HDR31OnPopulateConfigurationSettingsEP24ChiFeature2RequestObjectPK21ChiFeature2IdentifierP11ChiMetadata+0xd40>
   267bc: 41 ff ff 90  	adrp	x1, 0xe000 <_ZNK14ChiFeature2HDR31OnPopulateConfigurationSettingsEP24ChiFeature2RequestObjectPK21ChiFeature2IdentifierP11ChiMetadata+0xd54>
   267cc: 60 ff ff 90  	adrp	x0, 0x12000 <_ZNK14ChiFeature2HDR31OnPopulateConfigurationSettingsEP24ChiFeature2RequestObjectPK21ChiFeature2IdentifierP11ChiMetadata+0xd74>
   267d0: 43 ff ff d0  	adrp	x3, 0x10000 <_ZNK14ChiFeature2HDR31OnPopulateConfigurationSettingsEP24ChiFeature2RequestObjectPK21ChiFeature2IdentifierP11ChiMetadata+0xd70>
   267d4: 25 ff ff f0  	adrp	x5, 0xd000 <_ZNK14ChiFeature2HDR31OnPopulateConfigurationSettingsEP24ChiFeature2RequestObjectPK21ChiFeature2IdentifierP11ChiMetadata+0xd68>
   267fc: 71 6e 00 94  	bl	0x421c0 <_ZN6ChiLog9LogSystemEPKcS1_S1_S1_iS1_z@plt>
   26808: 61 ff ff 90  	adrp	x1, 0x12000 <_ZNK14ChiFeature2HDR31OnPopulateConfigurationSettingsEP24ChiFeature2RequestObjectPK21ChiFeature2IdentifierP11ChiMetadata+0xdb0>
   26810: 22 ff ff 90  	adrp	x2, 0xa000 <_ZNK14ChiFeature2HDR31OnPopulateConfigurationSettingsEP24ChiFeature2RequestObjectPK21ChiFeature2IdentifierP11ChiMetadata+0xd98>
   26834: a0 05 00 34  	cbz	w0, 0x268e8 <_ZNK14ChiFeature2HDR31OnPopulateConfigurationSettingsEP24ChiFeature2RequestObjectPK21ChiFeature2IdentifierP11ChiMetadata+0xee0>
   26838: e2 00 00 d0  	adrp	x2, 0x44000 <_ZNK14ChiFeature2HDR31OnPopulateConfigurationSettingsEP24ChiFeature2RequestObjectPK21ChiFeature2IdentifierP11ChiMetadata+0xea8>
   26844: 39 05 00 36  	tbz	w25, #0, 0x268e8 <_ZNK14ChiFeature2HDR31OnPopulateConfigurationSettingsEP24ChiFeature2RequestObjectPK21ChiFeature2IdentifierP11ChiMetadata+0xee0>
   26848: f0 00 00 d0  	adrp	x16, 0x44000 <_ZNK14ChiFeature2HDR31OnPopulateConfigurationSettingsEP24ChiFeature2RequestObjectPK21ChiFeature2IdentifierP11ChiMetadata+0xeb8>
   26858: 41 02 00 54  	b.ne	0x268a0 <_ZNK14ChiFeature2HDR31OnPopulateConfigurationSettingsEP24ChiFeature2RequestObjectPK21ChiFeature2IdentifierP11ChiMetadata+0xe98>
   2685c: 59 ff ff d0  	adrp	x25, 0x10000 <_ZNK14ChiFeature2HDR31OnPopulateConfigurationSettingsEP24ChiFeature2RequestObjectPK21ChiFeature2IdentifierP11ChiMetadata+0xdfc>
   26878: 61 ff ff 90  	adrp	x1, 0x12000 <_ZNK14ChiFeature2HDR31OnPopulateConfigurationSettingsEP24ChiFeature2RequestObjectPK21ChiFeature2IdentifierP11ChiMetadata+0xe20>
   2687c: 62 ff ff 90  	adrp	x2, 0x12000 <_ZNK14ChiFeature2HDR31OnPopulateConfigurationSettingsEP24ChiFeature2RequestObjectPK21ChiFeature2IdentifierP11ChiMetadata+0xe24>
   26880: 45 ff ff d0  	adrp	x5, 0x10000 <_ZNK14ChiFeature2HDR31OnPopulateConfigurationSettingsEP24ChiFeature2RequestObjectPK21ChiFeature2IdentifierP11ChiMetadata+0xe20>
   268a0: 58 ff ff d0  	adrp	x24, 0x10000 <_ZNK14ChiFeature2HDR31OnPopulateConfigurationSettingsEP24ChiFeature2RequestObjectPK21ChiFeature2IdentifierP11ChiMetadata+0xe40>
   268bc: 61 ff ff 90  	adrp	x1, 0x12000 <_ZNK14ChiFeature2HDR31OnPopulateConfigurationSettingsEP24ChiFeature2RequestObjectPK21ChiFeature2IdentifierP11ChiMetadata+0xe64>
   268c4: 20 ff ff b0  	adrp	x0, 0xb000 <_ZNK14ChiFeature2HDR31OnPopulateConfigurationSettingsEP24ChiFeature2RequestObjectPK21ChiFeature2IdentifierP11ChiMetadata+0xe50>
   268c8: 43 ff ff d0  	adrp	x3, 0x10000 <_ZNK14ChiFeature2HDR31OnPopulateConfigurationSettingsEP24ChiFeature2RequestObjectPK21ChiFeature2IdentifierP11ChiMetadata+0xe68>
   268cc: 25 ff ff d0  	adrp	x5, 0xc000 <_ZNK14ChiFeature2HDR31OnPopulateConfigurationSettingsEP24ChiFeature2RequestObjectPK21ChiFeature2IdentifierP11ChiMetadata+0xe5c>
   268e4: 37 6e 00 94  	bl	0x421c0 <_ZN6ChiLog9LogSystemEPKcS1_S1_S1_iS1_z@plt>
   268f0: 5c 6e 00 94  	bl	0x42260 <_ZNK24ChiFeature2RequestObject23GetUsecaseRequestObjectEv@plt>
   268f8: 20 49 00 b4  	cbz	x0, 0x2721c <_ZNK14ChiFeature2HDR31OnPopulateConfigurationSettingsEP24ChiFeature2RequestObjectPK21ChiFeature2IdentifierP11ChiMetadata+0x1814>
   26900: 21 ff ff 90  	adrp	x1, 0xa000 <_ZNK14ChiFeature2HDR31OnPopulateConfigurationSettingsEP24ChiFeature2RequestObjectPK21ChiFeature2IdentifierP11ChiMetadata+0xe88>
   26908: 42 ff ff 90  	adrp	x2, 0xe000 <_ZNK14ChiFeature2HDR31OnPopulateConfigurationSettingsEP24ChiFeature2RequestObjectPK21ChiFeature2IdentifierP11ChiMetadata+0xea0>
   2692c: 43 5f 00 b4  	cbz	x3, 0x27514 <_ZNK14ChiFeature2HDR31OnPopulateConfigurationSettingsEP24ChiFeature2RequestObjectPK21ChiFeature2IdentifierP11ChiMetadata+0x1b0c>
   26938: 61 ff ff 90  	adrp	x1, 0x12000 <_ZNK14ChiFeature2HDR31OnPopulateConfigurationSettingsEP24ChiFeature2RequestObjectPK21ChiFeature2IdentifierP11ChiMetadata+0xee0>
   2693c: 42 ff ff 90  	adrp	x2, 0xe000 <_ZNK14ChiFeature2HDR31OnPopulateConfigurationSettingsEP24ChiFeature2RequestObjectPK21ChiFeature2IdentifierP11ChiMetadata+0xed4>
   2695c: a0 00 00 34  	cbz	w0, 0x26970 <_ZNK14ChiFeature2HDR31OnPopulateConfigurationSettingsEP24ChiFeature2RequestObjectPK21ChiFeature2IdentifierP11ChiMetadata+0xf68>
   26960: ec 00 00 d0  	adrp	x12, 0x44000 <_ZNK14ChiFeature2HDR31OnPopulateConfigurationSettingsEP24ChiFeature2RequestObjectPK21ChiFeature2IdentifierP11ChiMetadata+0xfd0>
   2696c: e4 57 00 37  	tbnz	w4, #0, 0x27468 <_ZNK14ChiFeature2HDR31OnPopulateConfigurationSettingsEP24ChiFeature2RequestObjectPK21ChiFeature2IdentifierP11ChiMetadata+0x1a60>
   26974: e8 02 00 14  	b	0x27514 <_ZNK14ChiFeature2HDR31OnPopulateConfigurationSettingsEP24ChiFeature2RequestObjectPK21ChiFeature2IdentifierP11ChiMetadata+0x1b0c>
   26978: f6 00 00 d0  	adrp	x22, 0x44000 <_ZNK14ChiFeature2HDR31OnPopulateConfigurationSettingsEP24ChiFeature2RequestObjectPK21ChiFeature2IdentifierP11ChiMetadata+0xfe8>
   26988: 4c 05 18 36  	tbz	w12, #3, 0x26a30 <_ZNK14ChiFeature2HDR31OnPopulateConfigurationSettingsEP24ChiFeature2RequestObjectPK21ChiFeature2IdentifierP11ChiMetadata+0x1028>
   2698c: f3 00 00 d0  	adrp	x19, 0x44000 <_ZNK14ChiFeature2HDR31OnPopulateConfigurationSettingsEP24ChiFeature2RequestObjectPK21ChiFeature2IdentifierP11ChiMetadata+0xffc>
   2699c: 61 02 00 54  	b.ne	0x269e8 <_ZNK14ChiFeature2HDR31OnPopulateConfigurationSettingsEP24ChiFeature2RequestObjectPK21ChiFeature2IdentifierP11ChiMetadata+0xfe0>
   269a0: 5a ff ff d0  	adrp	x26, 0x10000 <_ZNK14ChiFeature2HDR31OnPopulateConfigurationSettingsEP24ChiFeature2RequestObjectPK21ChiFeature2IdentifierP11ChiMetadata+0xf40>
   269bc: 61 ff ff 90  	adrp	x1, 0x12000 <_ZNK14ChiFeature2HDR31OnPopulateConfigurationSettingsEP24ChiFeature2RequestObjectPK21ChiFeature2IdentifierP11ChiMetadata+0xf64>
   269c0: 22 ff ff f0  	adrp	x2, 0xd000 <_ZNK14ChiFeature2HDR31OnPopulateConfigurationSettingsEP24ChiFeature2RequestObjectPK21ChiFeature2IdentifierP11ChiMetadata+0xf54>
   269c4: 45 ff ff d0  	adrp	x5, 0x10000 <_ZNK14ChiFeature2HDR31OnPopulateConfigurationSettingsEP24ChiFeature2RequestObjectPK21ChiFeature2IdentifierP11ChiMetadata+0xf64>
   269e8: 53 ff ff d0  	adrp	x19, 0x10000 <_ZNK14ChiFeature2HDR31OnPopulateConfigurationSettingsEP24ChiFeature2RequestObjectPK21ChiFeature2IdentifierP11ChiMetadata+0xf88>
   26a04: 41 ff ff 90  	adrp	x1, 0xe000 <_ZNK14ChiFeature2HDR31OnPopulateConfigurationSettingsEP24ChiFeature2RequestObjectPK21ChiFeature2IdentifierP11ChiMetadata+0xf9c>
   26a0c: 60 ff ff 90  	adrp	x0, 0x12000 <_ZNK14ChiFeature2HDR31OnPopulateConfigurationSettingsEP24ChiFeature2RequestObjectPK21ChiFeature2IdentifierP11ChiMetadata+0xfb4>
   26a10: 43 ff ff d0  	adrp	x3, 0x10000 <_ZNK14ChiFeature2HDR31OnPopulateConfigurationSettingsEP24ChiFeature2RequestObjectPK21ChiFeature2IdentifierP11ChiMetadata+0xfb0>
   26a14: 45 ff ff b0  	adrp	x5, 0xf000 <_ZNK14ChiFeature2HDR31OnPopulateConfigurationSettingsEP24ChiFeature2RequestObjectPK21ChiFeature2IdentifierP11ChiMetadata+0xfb0>
   26a2c: e5 6d 00 94  	bl	0x421c0 <_ZN6ChiLog9LogSystemEPKcS1_S1_S1_iS1_z@plt>
   26a4c: 4d 6e 00 94  	bl	0x42380 <_ZNK15ChiFeature2Base25GetExternalOutputSettingsEP24ChiFeature2RequestObjectPK21ChiFeature2Identifierhh@plt>
   26a74: a1 0d 00 54  	b.ne	0x26c28 <_ZNK14ChiFeature2HDR31OnPopulateConfigurationSettingsEP24ChiFeature2RequestObjectPK21ChiFeature2IdentifierP11ChiMetadata+0x1220>
   26a7c: 69 6e 00 94  	bl	0x42420 <_ZNK14ChiFeature2HDR23QLLMergeAECFrameControlEP11ChiMetadataS1_S1_23ChiFeature2ExposureType@plt>
   26a98: 66 6e 00 94  	bl	0x42430 <_ZNK14ChiFeature2HDR24QLLMergeParsedBhistStatsEP11ChiMetadataS1_S1_23ChiFeature2ExposureType@plt>
   26aa0: 0c 6e 00 94  	bl	0x422d0 <_ZN15ExtensionModule11GetInstanceEv@plt>
   26ab0: 20 17 00 54  	b.eq	0x26d94 <_ZNK14ChiFeature2HDR31OnPopulateConfigurationSettingsEP24ChiFeature2RequestObjectPK21ChiFeature2IdentifierP11ChiMetadata+0x138c>
   26ad0: a1 3a 00 54  	b.ne	0x27224 <_ZNK14ChiFeature2HDR31OnPopulateConfigurationSettingsEP24ChiFeature2RequestObjectPK21ChiFeature2IdentifierP11ChiMetadata+0x181c>
   26ad8: a1 3a 00 54  	b.ne	0x2722c <_ZNK14ChiFeature2HDR31OnPopulateConfigurationSettingsEP24ChiFeature2RequestObjectPK21ChiFeature2IdentifierP11ChiMetadata+0x1824>
   26ae8: 21 3a 00 54  	b.ne	0x2722c <_ZNK14ChiFeature2HDR31OnPopulateConfigurationSettingsEP24ChiFeature2RequestObjectPK21ChiFeature2IdentifierP11ChiMetadata+0x1824>
   26afc: 00 3a 00 54  	b.eq	0x2723c <_ZNK14ChiFeature2HDR31OnPopulateConfigurationSettingsEP24ChiFeature2RequestObjectPK21ChiFeature2IdentifierP11ChiMetadata+0x1834>
   26b04: cb 01 00 14  	b	0x27230 <_ZNK14ChiFeature2HDR31OnPopulateConfigurationSettingsEP24ChiFeature2RequestObjectPK21ChiFeature2IdentifierP11ChiMetadata+0x1828>
   26b08: fc 00 00 d0  	adrp	x28, 0x44000 <_ZNK14ChiFeature2HDR31OnPopulateConfigurationSettingsEP24ChiFeature2RequestObjectPK21ChiFeature2IdentifierP11ChiMetadata+0x1178>
   26b14: 51 05 18 36  	tbz	w17, #3, 0x26bbc <_ZNK14ChiFeature2HDR31OnPopulateConfigurationSettingsEP24ChiFeature2RequestObjectPK21ChiFeature2IdentifierP11ChiMetadata+0x11b4>
   26b18: e2 00 00 d0  	adrp	x2, 0x44000 <_ZNK14ChiFeature2HDR31OnPopulateConfigurationSettingsEP24ChiFeature2RequestObjectPK21ChiFeature2IdentifierP11ChiMetadata+0x1188>
   26b28: 41 02 00 54  	b.ne	0x26b70 <_ZNK14ChiFeature2HDR31OnPopulateConfigurationSettingsEP24ChiFeature2RequestObjectPK21ChiFeature2IdentifierP11ChiMetadata+0x1168>
   26b2c: 5b ff ff d0  	adrp	x27, 0x10000 <_ZNK14ChiFeature2HDR31OnPopulateConfigurationSettingsEP24ChiFeature2RequestObjectPK21ChiFeature2IdentifierP11ChiMetadata+0x10cc>
   26b48: 61 ff ff 90  	adrp	x1, 0x12000 <_ZNK14ChiFeature2HDR31OnPopulateConfigurationSettingsEP24ChiFeature2RequestObjectPK21ChiFeature2IdentifierP11ChiMetadata+0x10f0>
   26b4c: 42 ff ff 90  	adrp	x2, 0xe000 <_ZNK14ChiFeature2HDR31OnPopulateConfigurationSettingsEP24ChiFeature2RequestObjectPK21ChiFeature2IdentifierP11ChiMetadata+0x10e4>
   26b50: 45 ff ff d0  	adrp	x5, 0x10000 <_ZNK14ChiFeature2HDR31OnPopulateConfigurationSettingsEP24ChiFeature2RequestObjectPK21ChiFeature2IdentifierP11ChiMetadata+0x10f0>
   26b70: 58 ff ff d0  	adrp	x24, 0x10000 <_ZNK14ChiFeature2HDR31OnPopulateConfigurationSettingsEP24ChiFeature2RequestObjectPK21ChiFeature2IdentifierP11ChiMetadata+0x1110>
   26b8c: 41 ff ff 90  	adrp	x1, 0xe000 <_ZNK14ChiFeature2HDR31OnPopulateConfigurationSettingsEP24ChiFeature2RequestObjectPK21ChiFeature2IdentifierP11ChiMetadata+0x1124>
   26b94: 60 ff ff 90  	adrp	x0, 0x12000 <_ZNK14ChiFeature2HDR31OnPopulateConfigurationSettingsEP24ChiFeature2RequestObjectPK21ChiFeature2IdentifierP11ChiMetadata+0x113c>
   26b98: 43 ff ff d0  	adrp	x3, 0x10000 <_ZNK14ChiFeature2HDR31OnPopulateConfigurationSettingsEP24ChiFeature2RequestObjectPK21ChiFeature2IdentifierP11ChiMetadata+0x1138>
   26b9c: 45 ff ff f0  	adrp	x5, 0x11000 <_ZNK14ChiFeature2HDR31OnPopulateConfigurationSettingsEP24ChiFeature2RequestObjectPK21ChiFeature2IdentifierP11ChiMetadata+0x1140>
   26bb4: 83 6d 00 94  	bl	0x421c0 <_ZN6ChiLog9LogSystemEPKcS1_S1_S1_iS1_z@plt>
   26bd0: ec 6d 00 94  	bl	0x42380 <_ZNK15ChiFeature2Base25GetExternalOutputSettingsEP24ChiFeature2RequestObjectPK21ChiFeature2Identifierhh@plt>
   26bec: e5 6d 00 94  	bl	0x42380 <_ZNK15ChiFeature2Base25GetExternalOutputSettingsEP24ChiFeature2RequestObjectPK21ChiFeature2Identifierhh@plt>
   26c04: a1 05 00 54  	b.ne	0x26cb8 <_ZNK14ChiFeature2HDR31OnPopulateConfigurationSettingsEP24ChiFeature2RequestObjectPK21ChiFeature2IdentifierP11ChiMetadata+0x12b0>
   26c18: 02 6e 00 94  	bl	0x42420 <_ZNK14ChiFeature2HDR23QLLMergeAECFrameControlEP11ChiMetadataS1_S1_23ChiFeature2ExposureType@plt>
   26c1c: 2c 00 00 14  	b	0x26ccc <_ZNK14ChiFeature2HDR31OnPopulateConfigurationSettingsEP24ChiFeature2RequestObjectPK21ChiFeature2IdentifierP11ChiMetadata+0x12c4>
   26c24: 50 02 00 14  	b	0x27564 <_ZNK14ChiFeature2HDR31OnPopulateConfigurationSettingsEP24ChiFeature2RequestObjectPK21ChiFeature2IdentifierP11ChiMetadata+0x1b5c>
   26c2c: d9 6d 00 94  	bl	0x42390 <_ZNK14ChiFeature2HDR20MergeAECFrameControlEP11ChiMetadataS1_S1_P15ChiFeature2Hint@plt>
   26c48: fe 6d 00 94  	bl	0x42440 <_ZNK14ChiFeature2HDR21MergeParsedBhistStatsEP11ChiMetadataS1_S1_P15ChiFeature2Hinti@plt>
   26c50: a0 6d 00 94  	bl	0x422d0 <_ZN15ExtensionModule11GetInstanceEv@plt>
   26c60: a0 09 00 54  	b.eq	0x26d94 <_ZNK14ChiFeature2HDR31OnPopulateConfigurationSettingsEP24ChiFeature2RequestObjectPK21ChiFeature2IdentifierP11ChiMetadata+0x138c>
   26c80: c1 2e 00 54  	b.ne	0x27258 <_ZNK14ChiFeature2HDR31OnPopulateConfigurationSettingsEP24ChiFeature2RequestObjectPK21ChiFeature2IdentifierP11ChiMetadata+0x1850>
   26c88: c1 2e 00 54  	b.ne	0x27260 <_ZNK14ChiFeature2HDR31OnPopulateConfigurationSettingsEP24ChiFeature2RequestObjectPK21ChiFeature2IdentifierP11ChiMetadata+0x1858>
   26c98: 41 2e 00 54  	b.ne	0x27260 <_ZNK14ChiFeature2HDR31OnPopulateConfigurationSettingsEP24ChiFeature2RequestObjectPK21ChiFeature2IdentifierP11ChiMetadata+0x1858>
   26cac: 20 2e 00 54  	b.eq	0x27270 <_ZNK14ChiFeature2HDR31OnPopulateConfigurationSettingsEP24ChiFeature2RequestObjectPK21ChiFeature2IdentifierP11ChiMetadata+0x1868>
   26cb4: 6c 01 00 14  	b	0x27264 <_ZNK14ChiFeature2HDR31OnPopulateConfigurationSettingsEP24ChiFeature2RequestObjectPK21ChiFeature2IdentifierP11ChiMetadata+0x185c>
   26cc8: b2 6d 00 94  	bl	0x42390 <_ZNK14ChiFeature2HDR20MergeAECFrameControlEP11ChiMetadataS1_S1_P15ChiFeature2Hint@plt>
   26ce8: d6 6d 00 94  	bl	0x42440 <_ZNK14ChiFeature2HDR21MergeParsedBhistStatsEP11ChiMetadataS1_S1_P15ChiFeature2Hinti@plt>
   26d04: d3 6d 00 94  	bl	0x42450 <_ZNK14ChiFeature2HDR21MergeParsedAWBBGStatsEP11ChiMetadataS1_S1_P15ChiFeature2Hinti@plt>
   26d24: cf 6d 00 94  	bl	0x42460 <_ZNK14ChiFeature2HDR26MergeParsedTintlessBGStatsEP11ChiMetadataS1_S1_P15ChiFeature2Hinti@plt>
   26d2c: 69 6d 00 94  	bl	0x422d0 <_ZN15ExtensionModule11GetInstanceEv@plt>
   26d3c: 00 03 00 54  	b.eq	0x26d9c <_ZNK14ChiFeature2HDR31OnPopulateConfigurationSettingsEP24ChiFeature2RequestObjectPK21ChiFeature2IdentifierP11ChiMetadata+0x1394>
   26d58: 61 02 00 54  	b.ne	0x26da4 <_ZNK14ChiFeature2HDR31OnPopulateConfigurationSettingsEP24ChiFeature2RequestObjectPK21ChiFeature2IdentifierP11ChiMetadata+0x139c>
   26d64: 61 02 00 54  	b.ne	0x26db0 <_ZNK14ChiFeature2HDR31OnPopulateConfigurationSettingsEP24ChiFeature2RequestObjectPK21ChiFeature2IdentifierP11ChiMetadata+0x13a8>
   26d74: e1 01 00 54  	b.ne	0x26db0 <_ZNK14ChiFeature2HDR31OnPopulateConfigurationSettingsEP24ChiFeature2RequestObjectPK21ChiFeature2IdentifierP11ChiMetadata+0x13a8>
   26d88: c0 01 00 54  	b.eq	0x26dc0 <_ZNK14ChiFeature2HDR31OnPopulateConfigurationSettingsEP24ChiFeature2RequestObjectPK21ChiFeature2IdentifierP11ChiMetadata+0x13b8>
   26d90: 09 00 00 14  	b	0x26db4 <_ZNK14ChiFeature2HDR31OnPopulateConfigurationSettingsEP24ChiFeature2RequestObjectPK21ChiFeature2IdentifierP11ChiMetadata+0x13ac>
   26d98: 3d 01 00 14  	b	0x2728c <_ZNK14ChiFeature2HDR31OnPopulateConfigurationSettingsEP24ChiFeature2RequestObjectPK21ChiFeature2IdentifierP11ChiMetadata+0x1884>
   26da0: 18 00 00 14  	b	0x26e00 <_ZNK14ChiFeature2HDR31OnPopulateConfigurationSettingsEP24ChiFeature2RequestObjectPK21ChiFeature2IdentifierP11ChiMetadata+0x13f8>
   26dac: a1 02 00 54  	b.ne	0x26e00 <_ZNK14ChiFeature2HDR31OnPopulateConfigurationSettingsEP24ChiFeature2RequestObjectPK21ChiFeature2IdentifierP11ChiMetadata+0x13f8>
   26dbc: 21 02 00 54  	b.ne	0x26e00 <_ZNK14ChiFeature2HDR31OnPopulateConfigurationSettingsEP24ChiFeature2RequestObjectPK21ChiFeature2IdentifierP11ChiMetadata+0x13f8>
   26ddc: a5 6d 00 94  	bl	0x42470 <_ZNK14ChiFeature2HDR21MergeIFENRMConfigDataEP11ChiMetadataS1_S1_P15ChiFeature2Hinti@plt>
   26df8: a2 6d 00 94  	bl	0x42480 <_ZNK14ChiFeature2HDR21MergeBPSNRMConfigDataEP11ChiMetadataS1_S1_P15ChiFeature2Hinti@plt>
   26e14: 9f 6d 00 94  	bl	0x42490 <_ZNK14ChiFeature2HDR24MergeParsedHDRBHistStatsEP11ChiMetadataS1_S1_P15ChiFeature2Hint@plt>
   26e2c: 9d 6d 00 94  	bl	0x424a0 <_ZNK14ChiFeature2HDR21MergeParsedHDRBEStatsEP11ChiMetadataS1_S1_P15ChiFeature2Hint@plt>
   26e34: fb 05 00 34  	cbz	w27, 0x26ef0 <_ZNK14ChiFeature2HDR31OnPopulateConfigurationSettingsEP24ChiFeature2RequestObjectPK21ChiFeature2IdentifierP11ChiMetadata+0x14e8>
   26e38: e5 00 00 d0  	adrp	x5, 0x44000 <_ZNK14ChiFeature2HDR31OnPopulateConfigurationSettingsEP24ChiFeature2RequestObjectPK21ChiFeature2IdentifierP11ChiMetadata+0x14a8>
   26e44: 62 05 00 36  	tbz	w2, #0, 0x26ef0 <_ZNK14ChiFeature2HDR31OnPopulateConfigurationSettingsEP24ChiFeature2RequestObjectPK21ChiFeature2IdentifierP11ChiMetadata+0x14e8>
   26e48: e6 00 00 d0  	adrp	x6, 0x44000 <_ZNK14ChiFeature2HDR31OnPopulateConfigurationSettingsEP24ChiFeature2RequestObjectPK21ChiFeature2IdentifierP11ChiMetadata+0x14b8>
   26e58: 61 02 00 54  	b.ne	0x26ea4 <_ZNK14ChiFeature2HDR31OnPopulateConfigurationSettingsEP24ChiFeature2RequestObjectPK21ChiFeature2IdentifierP11ChiMetadata+0x149c>
   26e5c: 56 ff ff d0  	adrp	x22, 0x10000 <_ZNK14ChiFeature2HDR31OnPopulateConfigurationSettingsEP24ChiFeature2RequestObjectPK21ChiFeature2IdentifierP11ChiMetadata+0x13fc>
   26e78: 61 ff ff 90  	adrp	x1, 0x12000 <_ZNK14ChiFeature2HDR31OnPopulateConfigurationSettingsEP24ChiFeature2RequestObjectPK21ChiFeature2IdentifierP11ChiMetadata+0x1420>
   26e7c: 42 ff ff 90  	adrp	x2, 0xe000 <_ZNK14ChiFeature2HDR31OnPopulateConfigurationSettingsEP24ChiFeature2RequestObjectPK21ChiFeature2IdentifierP11ChiMetadata+0x1414>
   26e80: 45 ff ff d0  	adrp	x5, 0x10000 <_ZNK14ChiFeature2HDR31OnPopulateConfigurationSettingsEP24ChiFeature2RequestObjectPK21ChiFeature2IdentifierP11ChiMetadata+0x1420>
   26ea4: 5a ff ff d0  	adrp	x26, 0x10000 <_ZNK14ChiFeature2HDR31OnPopulateConfigurationSettingsEP24ChiFeature2RequestObjectPK21ChiFeature2IdentifierP11ChiMetadata+0x1444>
   26ec0: 61 ff ff 90  	adrp	x1, 0x12000 <_ZNK14ChiFeature2HDR31OnPopulateConfigurationSettingsEP24ChiFeature2RequestObjectPK21ChiFeature2IdentifierP11ChiMetadata+0x1468>
   26ec8: 20 ff ff b0  	adrp	x0, 0xb000 <_ZNK14ChiFeature2HDR31OnPopulateConfigurationSettingsEP24ChiFeature2RequestObjectPK21ChiFeature2IdentifierP11ChiMetadata+0x1454>
   26ecc: 43 ff ff d0  	adrp	x3, 0x10000 <_ZNK14ChiFeature2HDR31OnPopulateConfigurationSettingsEP24ChiFeature2RequestObjectPK21ChiFeature2IdentifierP11ChiMetadata+0x146c>
   26ed0: 45 ff ff f0  	adrp	x5, 0x11000 <_ZNK14ChiFeature2HDR31OnPopulateConfigurationSettingsEP24ChiFeature2RequestObjectPK21ChiFeature2IdentifierP11ChiMetadata+0x1474>
   26eec: b5 6c 00 94  	bl	0x421c0 <_ZN6ChiLog9LogSystemEPKcS1_S1_S1_iS1_z@plt>
   26ef0: fa 00 00 d0  	adrp	x26, 0x44000 <_ZNK14ChiFeature2HDR31OnPopulateConfigurationSettingsEP24ChiFeature2RequestObjectPK21ChiFeature2IdentifierP11ChiMetadata+0x1560>
   26f00: c3 05 18 36  	tbz	w3, #3, 0x26fb8 <_ZNK14ChiFeature2HDR31OnPopulateConfigurationSettingsEP24ChiFeature2RequestObjectPK21ChiFeature2IdentifierP11ChiMetadata+0x15b0>
   26f04: e7 00 00 d0  	adrp	x7, 0x44000 <_ZNK14ChiFeature2HDR31OnPopulateConfigurationSettingsEP24ChiFeature2RequestObjectPK21ChiFeature2IdentifierP11ChiMetadata+0x1574>
   26f14: 81 02 00 54  	b.ne	0x26f64 <_ZNK14ChiFeature2HDR31OnPopulateConfigurationSettingsEP24ChiFeature2RequestObjectPK21ChiFeature2IdentifierP11ChiMetadata+0x155c>
   26f18: 53 ff ff d0  	adrp	x19, 0x10000 <_ZNK14ChiFeature2HDR31OnPopulateConfigurationSettingsEP24ChiFeature2RequestObjectPK21ChiFeature2IdentifierP11ChiMetadata+0x14b8>
   26f38: 61 ff ff 90  	adrp	x1, 0x12000 <_ZNK14ChiFeature2HDR31OnPopulateConfigurationSettingsEP24ChiFeature2RequestObjectPK21ChiFeature2IdentifierP11ChiMetadata+0x14e0>
   26f3c: 42 ff ff b0  	adrp	x2, 0xf000 <_ZNK14ChiFeature2HDR31OnPopulateConfigurationSettingsEP24ChiFeature2RequestObjectPK21ChiFeature2IdentifierP11ChiMetadata+0x14d8>
   26f40: 45 ff ff d0  	adrp	x5, 0x10000 <_ZNK14ChiFeature2HDR31OnPopulateConfigurationSettingsEP24ChiFeature2RequestObjectPK21ChiFeature2IdentifierP11ChiMetadata+0x14e0>
   26f64: 58 ff ff d0  	adrp	x24, 0x10000 <_ZNK14ChiFeature2HDR31OnPopulateConfigurationSettingsEP24ChiFeature2RequestObjectPK21ChiFeature2IdentifierP11ChiMetadata+0x1504>
   26f88: 60 ff ff 90  	adrp	x0, 0x12000 <_ZNK14ChiFeature2HDR31OnPopulateConfigurationSettingsEP24ChiFeature2RequestObjectPK21ChiFeature2IdentifierP11ChiMetadata+0x1530>
   26f8c: 41 ff ff 90  	adrp	x1, 0xe000 <_ZNK14ChiFeature2HDR31OnPopulateConfigurationSettingsEP24ChiFeature2RequestObjectPK21ChiFeature2IdentifierP11ChiMetadata+0x1524>
   26f90: 43 ff ff d0  	adrp	x3, 0x10000 <_ZNK14ChiFeature2HDR31OnPopulateConfigurationSettingsEP24ChiFeature2RequestObjectPK21ChiFeature2IdentifierP11ChiMetadata+0x1530>
   26f94: 45 ff ff d0  	adrp	x5, 0x10000 <_ZNK14ChiFeature2HDR31OnPopulateConfigurationSettingsEP24ChiFeature2RequestObjectPK21ChiFeature2IdentifierP11ChiMetadata+0x1534>
   26fb0: 84 6c 00 94  	bl	0x421c0 <_ZN6ChiLog9LogSystemEPKcS1_S1_S1_iS1_z@plt>
   27018: 73 2a 00 b4  	cbz	x19, 0x27564 <_ZNK14ChiFeature2HDR31OnPopulateConfigurationSettingsEP24ChiFeature2RequestObjectPK21ChiFeature2IdentifierP11ChiMetadata+0x1b5c>
   2701c: 5a 2a 00 b4  	cbz	x26, 0x27564 <_ZNK14ChiFeature2HDR31OnPopulateConfigurationSettingsEP24ChiFeature2RequestObjectPK21ChiFeature2IdentifierP11ChiMetadata+0x1b5c>
   27024: 08 2a 00 b4  	cbz	x8, 0x27564 <_ZNK14ChiFeature2HDR31OnPopulateConfigurationSettingsEP24ChiFeature2RequestObjectPK21ChiFeature2IdentifierP11ChiMetadata+0x1b5c>
   2702c: ed 00 00 b0  	adrp	x13, 0x44000 <_ZNK14ChiFeature2HDR31OnPopulateConfigurationSettingsEP24ChiFeature2RequestObjectPK21ChiFeature2IdentifierP11ChiMetadata+0x1698>
   27050: 80 06 18 36  	tbz	w0, #3, 0x27120 <_ZNK14ChiFeature2HDR31OnPopulateConfigurationSettingsEP24ChiFeature2RequestObjectPK21ChiFeature2IdentifierP11ChiMetadata+0x1718>
   27054: e0 00 00 b0  	adrp	x0, 0x44000 <_ZNK14ChiFeature2HDR31OnPopulateConfigurationSettingsEP24ChiFeature2RequestObjectPK21ChiFeature2IdentifierP11ChiMetadata+0x16c0>
   27064: 01 03 00 54  	b.ne	0x270c4 <_ZNK14ChiFeature2HDR31OnPopulateConfigurationSettingsEP24ChiFeature2RequestObjectPK21ChiFeature2IdentifierP11ChiMetadata+0x16bc>
   27068: 5c ff ff b0  	adrp	x28, 0x10000 <_ZNK14ChiFeature2HDR31OnPopulateConfigurationSettingsEP24ChiFeature2RequestObjectPK21ChiFeature2IdentifierP11ChiMetadata+0x1604>
   27088: 41 ff ff f0  	adrp	x1, 0x12000 <_ZNK14ChiFeature2HDR31OnPopulateConfigurationSettingsEP24ChiFeature2RequestObjectPK21ChiFeature2IdentifierP11ChiMetadata+0x162c>
   27090: 22 ff ff f0  	adrp	x2, 0xe000 <_ZNK14ChiFeature2HDR31OnPopulateConfigurationSettingsEP24ChiFeature2RequestObjectPK21ChiFeature2IdentifierP11ChiMetadata+0x1624>
   27094: 45 ff ff b0  	adrp	x5, 0x10000 <_ZNK14ChiFeature2HDR31OnPopulateConfigurationSettingsEP24ChiFeature2RequestObjectPK21ChiFeature2IdentifierP11ChiMetadata+0x1630>
   270c4: 5b ff ff b0  	adrp	x27, 0x10000 <_ZNK14ChiFeature2HDR31OnPopulateConfigurationSettingsEP24ChiFeature2RequestObjectPK21ChiFeature2IdentifierP11ChiMetadata+0x1660>
   270ec: 40 ff ff f0  	adrp	x0, 0x12000 <_ZNK14ChiFeature2HDR31OnPopulateConfigurationSettingsEP24ChiFeature2RequestObjectPK21ChiFeature2IdentifierP11ChiMetadata+0x1690>
   270f0: 21 ff ff f0  	adrp	x1, 0xe000 <_ZNK14ChiFeature2HDR31OnPopulateConfigurationSettingsEP24ChiFeature2RequestObjectPK21ChiFeature2IdentifierP11ChiMetadata+0x1684>
   270f4: 43 ff ff b0  	adrp	x3, 0x10000 <_ZNK14ChiFeature2HDR31OnPopulateConfigurationSettingsEP24ChiFeature2RequestObjectPK21ChiFeature2IdentifierP11ChiMetadata+0x1690>
   270f8: 05 ff ff f0  	adrp	x5, 0xa000 <_ZNK14ChiFeature2HDR31OnPopulateConfigurationSettingsEP24ChiFeature2RequestObjectPK21ChiFeature2IdentifierP11ChiMetadata+0x167c>
   2711c: 29 6c 00 94  	bl	0x421c0 <_ZN6ChiLog9LogSystemEPKcS1_S1_S1_iS1_z@plt>
   2712c: 41 ff ff f0  	adrp	x1, 0x12000 <_ZNK14ChiFeature2HDR31OnPopulateConfigurationSettingsEP24ChiFeature2RequestObjectPK21ChiFeature2IdentifierP11ChiMetadata+0x16d0>
   27130: 02 ff ff f0  	adrp	x2, 0xa000 <_ZNK14ChiFeature2HDR31OnPopulateConfigurationSettingsEP24ChiFeature2RequestObjectPK21ChiFeature2IdentifierP11ChiMetadata+0x16b4>
   27150: 20 06 00 34  	cbz	w0, 0x27214 <_ZNK14ChiFeature2HDR31OnPopulateConfigurationSettingsEP24ChiFeature2RequestObjectPK21ChiFeature2IdentifierP11ChiMetadata+0x180c>
   27154: ee 00 00 b0  	adrp	x14, 0x44000 <_ZNK14ChiFeature2HDR31OnPopulateConfigurationSettingsEP24ChiFeature2RequestObjectPK21ChiFeature2IdentifierP11ChiMetadata+0x17c0>
   27164: 01 20 00 36  	tbz	w1, #0, 0x27564 <_ZNK14ChiFeature2HDR31OnPopulateConfigurationSettingsEP24ChiFeature2RequestObjectPK21ChiFeature2IdentifierP11ChiMetadata+0x1b5c>
   27168: f5 00 00 b0  	adrp	x21, 0x44000 <_ZNK14ChiFeature2HDR31OnPopulateConfigurationSettingsEP24ChiFeature2RequestObjectPK21ChiFeature2IdentifierP11ChiMetadata+0x17d4>
   27178: 61 02 00 54  	b.ne	0x271c4 <_ZNK14ChiFeature2HDR31OnPopulateConfigurationSettingsEP24ChiFeature2RequestObjectPK21ChiFeature2IdentifierP11ChiMetadata+0x17bc>
   2717c: 59 ff ff b0  	adrp	x25, 0x10000 <_ZNK14ChiFeature2HDR31OnPopulateConfigurationSettingsEP24ChiFeature2RequestObjectPK21ChiFeature2IdentifierP11ChiMetadata+0x1718>
   27198: 41 ff ff f0  	adrp	x1, 0x12000 <_ZNK14ChiFeature2HDR31OnPopulateConfigurationSettingsEP24ChiFeature2RequestObjectPK21ChiFeature2IdentifierP11ChiMetadata+0x173c>
   2719c: 42 ff ff f0  	adrp	x2, 0x12000 <_ZNK14ChiFeature2HDR31OnPopulateConfigurationSettingsEP24ChiFeature2RequestObjectPK21ChiFeature2IdentifierP11ChiMetadata+0x1740>
   271a0: 45 ff ff b0  	adrp	x5, 0x10000 <_ZNK14ChiFeature2HDR31OnPopulateConfigurationSettingsEP24ChiFeature2RequestObjectPK21ChiFeature2IdentifierP11ChiMetadata+0x173c>
   271c4: 56 ff ff b0  	adrp	x22, 0x10000 <_ZNK14ChiFeature2HDR31OnPopulateConfigurationSettingsEP24ChiFeature2RequestObjectPK21ChiFeature2IdentifierP11ChiMetadata+0x1760>
   271e0: 41 ff ff f0  	adrp	x1, 0x12000 <_ZNK14ChiFeature2HDR31OnPopulateConfigurationSettingsEP24ChiFeature2RequestObjectPK21ChiFeature2IdentifierP11ChiMetadata+0x1784>
   271e8: 20 ff ff 90  	adrp	x0, 0xb000 <_ZNK14ChiFeature2HDR31OnPopulateConfigurationSettingsEP24ChiFeature2RequestObjectPK21ChiFeature2IdentifierP11ChiMetadata+0x1770>
