   102ac: 08 97 0a 98  	ldrsw	x8, 0x2558c <_ZN8ChxUtils34UpdateMetadataWithSnapshotSettingsER11ChiMetadata+0x24c>
   102dc: 08 97 0a 98  	ldrsw	x8, 0x255bc <_ZN8ChxUtils34UpdateMetadataWithSnapshotSettingsER11ChiMetadata+0x27c>
   1032c: 08 97 0a 98  	ldrsw	x8, 0x2560c <_ZN8ChxUtils34UpdateMetadataWithSnapshotSettingsER11ChiMetadata+0x2cc>
   1037c: 08 97 0a 98  	ldrsw	x8, 0x2565c <_ZN8ChxUtils34UpdateMetadataWithSnapshotSettingsER11ChiMetadata+0x31c>
   103c4: 08 97 0a 98  	ldrsw	x8, 0x256a4 <_ZN8ChxUtils21GetCaptureIntentValueEP11ChiMetadata+0x1c>
   103f4: 08 97 0a 98  	ldrsw	x8, 0x256d4 <_ZN8ChxUtils21GetCaptureIntentValueEP11ChiMetadata+0x4c>
   10424: 08 97 0a 98  	ldrsw	x8, 0x25704 <_ZN8ChxUtils21GetCaptureIntentValueEP11ChiMetadata+0x7c>
   10454: 08 97 0a 98  	ldrsw	x8, 0x25734 <_ZN8ChxUtils21GetCaptureIntentValueEP11ChiMetadata+0xac>
   10484: 08 97 0a 98  	ldrsw	x8, 0x25764 <_ZN8ChxUtils21GetCaptureIntentValueEP11ChiMetadata+0xdc>
   1055c: 08 97 0a 98  	ldrsw	x8, 0x2583c <_ZN8ChxUtils28DoesCameraHaveOnlyRawStreamsEP19ChiStreamConfigInfoj+0x7c>
   1066c: 08 97 0a 98  	ldrsw	x8, 0x2594c <_ZN8ChxUtils23UpdateOptimalDimensionsE12ChiDimensionRK16ChiBufferOptionsRS0_+0xc4>
   108e4: 08 97 0a 98  	ldrsw	x8, 0x25bc4 <_ZN8ChxUtils23UpdateOptimalDimensionsE12ChiDimensionRK16ChiBufferOptionsRS0_+0x33c>
   109b4: 08 97 0a 98  	ldrsw	x8, 0x25c94 <_ZN8ChxUtils23UpdateOptimalDimensionsE12ChiDimensionRK16ChiBufferOptionsRS0_+0x40c>
   10dc4: 08 97 0a 98  	ldrsw	x8, 0x260a4 <_ZN8ChxUtils27UpdatePartialTuningModeDataEP11ChiMetadatajjj+0x174>
   10e0c: 08 97 0a 98  	ldrsw	x8, 0x260ec <_ZN8ChxUtils27UpdatePartialTuningModeDataEP11ChiMetadatajjj+0x1bc>
   10f24: 08 97 0a 98  	ldrsw	x8, 0x26204 <_ZN8ChxUtils31GetFeatureValueForInternelVideoE13VideoSizeType+0xc>
   10f84: 08 97 0a 98  	ldrsw	x8, 0x26264 <_ZN8ChxUtils19SetOfflineDebugDataEP11ChiMetadatam+0x3c>
   111dc: 08 97 0a 98  	ldrsw	x8, 0x264bc <_ZN8ChxUtils19SetOfflineDebugDataEP11ChiMetadatam+0x294>
   1120c: 08 97 0a 98  	ldrsw	x8, 0x264ec <_ZN8ChxUtils19SetOfflineDebugDataEP11ChiMetadatam+0x2c4>
   1134c: 08 97 0a 98  	ldrsw	x8, 0x2662c <_ZN8ChxUtils19SetOfflineDebugDataEP11ChiMetadatam+0x404>
   11374: 08 97 0a 98  	ldrsw	x8, 0x26654 <_ZN8ChxUtils19SetOfflineDebugDataEP11ChiMetadatam+0x42c>
   1139c: 08 97 0a 98  	ldrsw	x8, 0x2667c <_ZN8ChxUtils19SetOfflineDebugDataEP11ChiMetadatam+0x454>
   113cc: 08 97 0a 98  	ldrsw	x8, 0x266ac <_ZN8ChxUtils19SetOfflineDebugDataEP11ChiMetadatam+0x484>
   114f4: 08 97 0a 98  	ldrsw	x8, 0x267d4 <_ZN8ChxUtils19SetOfflineDebugDataEP11ChiMetadatam+0x5ac>
   115a4: 08 97 0a 98  	ldrsw	x8, 0x26884 <_ZN8ChxUtils19SetOfflineDebugDataEP11ChiMetadatam+0x65c>
   115cc: 08 97 0a 98  	ldrsw	x8, 0x268ac <_ZN8ChxUtils19SetOfflineDebugDataEP11ChiMetadatam+0x684>
   11694: 08 97 0a 98  	ldrsw	x8, 0x26974 <_ZN8ChxUtils23ReleaseOfflineDebugDataEP11ChiMetadata+0x7c>
   116e4: 08 97 0a 98  	ldrsw	x8, 0x269c4 <_ZN8ChxUtils23ReleaseOfflineDebugDataEP11ChiMetadata+0xcc>
   11714: 08 97 0a 98  	ldrsw	x8, 0x269f4 <_ZN8ChxUtils23ReleaseOfflineDebugDataEP11ChiMetadata+0xfc>
   11778: 04 95 06 9c  	ldr	q4, 0x1ea18 <_ZN5Mutex10InitializeEv>
   117dc: 08 97 0a 98  	ldrsw	x8, 0x26abc <_ZN8ChxUtils23ReleaseOfflineDebugDataEP11ChiMetadata+0x1c4>
   1180c: 08 97 0a 98  	ldrsw	x8, 0x26aec <_ZN8ChxUtils23ReleaseOfflineDebugDataEP11ChiMetadata+0x1f4>
   1187c: 08 97 0a 98  	ldrsw	x8, 0x26b5c <_ZN8ChxUtils23ReleaseOfflineDebugDataEP11ChiMetadata+0x264>
   118ac: 08 97 0a 98  	ldrsw	x8, 0x26b8c <_ZN8ChxUtils23ReleaseOfflineDebugDataEP11ChiMetadata+0x294>
   11a6c: 08 97 0a 98  	ldrsw	x8, 0x26d4c <_ZN8ChxUtils26isDebugDataSetForBurstShotEP11ChiMetadataj+0xbc>
   11ad4: 08 97 0a 98  	ldrsw	x8, 0x26db4 <_ZN8ChxUtils26isDebugDataSetForBurstShotEP11ChiMetadataj+0x124>
   11cfc: 08 97 0a 98  	ldrsw	x8, 0x26fdc <_ZN8ChxUtils26isDebugDataSetForBurstShotEP11ChiMetadataj+0x34c>
   11d2c: 08 97 0a 98  	ldrsw	x8, 0x2700c <_ZN8ChxUtils26isDebugDataSetForBurstShotEP11ChiMetadataj+0x37c>
   11d8c: 08 97 0a 98  	ldrsw	x8, 0x2706c <_ZN8ChxUtils26isDebugDataSetForBurstShotEP11ChiMetadataj+0x3dc>
   11e14: 08 97 0a 98  	ldrsw	x8, 0x270f4 <_ZN8ChxUtils26isDebugDataSetForBurstShotEP11ChiMetadataj+0x464>
   11e44: 08 97 0a 98  	ldrsw	x8, 0x27124 <_ZN8ChxUtils26isDebugDataSetForBurstShotEP11ChiMetadataj+0x494>
   11e94: 08 97 0a 98  	ldrsw	x8, 0x27174 <_ZN8ChxUtils26isDebugDataSetForBurstShotEP11ChiMetadataj+0x4e4>
   11ec4: 08 97 0a 98  	ldrsw	x8, 0x271a4 <_ZN8ChxUtils26isDebugDataSetForBurstShotEP11ChiMetadataj+0x514>
   11ef4: 08 97 0a 98  	ldrsw	x8, 0x271d4 <_ZN8ChxUtils18isBurstShotUsecaseEP11ChiMetadataj+0x2c>
   11f1c: 08 97 0a 98  	ldrsw	x8, 0x271fc <_ZN8ChxUtils18isBurstShotUsecaseEP11ChiMetadataj+0x54>
   11f4c: 08 97 0a 98  	ldrsw	x8, 0x2722c <_ZN8ChxUtils18isBurstShotUsecaseEP11ChiMetadataj+0x84>
   11f74: 08 97 0a 98  	ldrsw	x8, 0x27254 <_ZN8ChxUtils18isBurstShotUsecaseEP11ChiMetadataj+0xac>
   11fa4: 08 97 0a 98  	ldrsw	x8, 0x27284 <_ZN8ChxUtils18isBurstShotUsecaseEP11ChiMetadataj+0xdc>
   120ac: 08 97 0a 98  	ldrsw	x8, 0x2738c <_ZN8ChxUtils18isBurstShotUsecaseEP11ChiMetadataj+0x1e4>
   12104: 08 97 0a 98  	ldrsw	x8, 0x273e4 <_ZN8ChxUtils18isBurstShotUsecaseEP11ChiMetadataj+0x23c>
   12134: 08 97 0a 98  	ldrsw	x8, 0x27414 <_ZN8ChxUtils18isBurstShotUsecaseEP11ChiMetadataj+0x26c>
   12184: 08 97 0a 98  	ldrsw	x8, 0x27464 <_ZN8ChxUtils18isBurstShotUsecaseEP11ChiMetadataj+0x2bc>
   121b4: 08 97 0a 98  	ldrsw	x8, 0x27494 <_ZN8ChxUtils18isBurstShotUsecaseEP11ChiMetadataj+0x2ec>
   12204: 08 97 0a 98  	ldrsw	x8, 0x274e4 <_ZN8ChxUtils18isBurstShotUsecaseEP11ChiMetadataj+0x33c>
   12254: 08 97 0a 98  	ldrsw	x8, 0x27534 <_ZN8ChxUtils18isBurstShotUsecaseEP11ChiMetadataj+0x38c>
   12284: 08 97 0a 98  	ldrsw	x8, 0x27564 <_ZN8ChxUtils18isBurstShotUsecaseEP11ChiMetadataj+0x3bc>
   122dc: 08 97 0a 98  	ldrsw	x8, 0x275bc <_ZN8ChxUtils18isBurstShotUsecaseEP11ChiMetadataj+0x414>
   13018: fe 83 00 14  	b	0x34010 <_ZN7android8hardware11hidl_stringD1Ev@plt>
   131d0: 98 83 00 94  	bl	0x34030 <_ZN7android8hardware11hidl_stringC1EPKc@plt>
   13208: 8a 83 00 94  	bl	0x34030 <_ZN7android8hardware11hidl_stringC1EPKc@plt>
   13234: 7f 83 00 94  	bl	0x34030 <_ZN7android8hardware11hidl_stringC1EPKc@plt>
   1325c: 75 83 00 94  	bl	0x34030 <_ZN7android8hardware11hidl_stringC1EPKc@plt>
   13284: 6b 83 00 94  	bl	0x34030 <_ZN7android8hardware11hidl_stringC1EPKc@plt>
   132ac: 61 83 00 94  	bl	0x34030 <_ZN7android8hardware11hidl_stringC1EPKc@plt>
   132d4: 57 83 00 94  	bl	0x34030 <_ZN7android8hardware11hidl_stringC1EPKc@plt>
   132fc: 4d 83 00 94  	bl	0x34030 <_ZN7android8hardware11hidl_stringC1EPKc@plt>
   13324: 43 83 00 94  	bl	0x34030 <_ZN7android8hardware11hidl_stringC1EPKc@plt>
   1334c: 39 83 00 94  	bl	0x34030 <_ZN7android8hardware11hidl_stringC1EPKc@plt>
   13374: 2f 83 00 94  	bl	0x34030 <_ZN7android8hardware11hidl_stringC1EPKc@plt>
   1339c: 25 83 00 94  	bl	0x34030 <_ZN7android8hardware11hidl_stringC1EPKc@plt>
   133c4: 1b 83 00 94  	bl	0x34030 <_ZN7android8hardware11hidl_stringC1EPKc@plt>
   133ec: 11 83 00 94  	bl	0x34030 <_ZN7android8hardware11hidl_stringC1EPKc@plt>
   13414: 07 83 00 94  	bl	0x34030 <_ZN7android8hardware11hidl_stringC1EPKc@plt>
   1343c: fd 82 00 94  	bl	0x34030 <_ZN7android8hardware11hidl_stringC1EPKc@plt>
   13464: f3 82 00 94  	bl	0x34030 <_ZN7android8hardware11hidl_stringC1EPKc@plt>
   1348c: e9 82 00 94  	bl	0x34030 <_ZN7android8hardware11hidl_stringC1EPKc@plt>
   134b4: df 82 00 94  	bl	0x34030 <_ZN7android8hardware11hidl_stringC1EPKc@plt>
   134dc: d5 82 00 94  	bl	0x34030 <_ZN7android8hardware11hidl_stringC1EPKc@plt>
   13508: ca 82 00 94  	bl	0x34030 <_ZN7android8hardware11hidl_stringC1EPKc@plt>
   13a8c: 75 81 00 94  	bl	0x34060 <_ZN7android8hardware11hidl_stringC1ERKNSt3__112basic_stringIcNS2_11char_traitsIcEENS2_9allocatorIcEEEE@plt>
   13ab4: 6b 81 00 94  	bl	0x34060 <_ZN7android8hardware11hidl_stringC1ERKNSt3__112basic_stringIcNS2_11char_traitsIcEENS2_9allocatorIcEEEE@plt>
   13adc: 61 81 00 94  	bl	0x34060 <_ZN7android8hardware11hidl_stringC1ERKNSt3__112basic_stringIcNS2_11char_traitsIcEENS2_9allocatorIcEEEE@plt>
   13b04: 57 81 00 94  	bl	0x34060 <_ZN7android8hardware11hidl_stringC1ERKNSt3__112basic_stringIcNS2_11char_traitsIcEENS2_9allocatorIcEEEE@plt>
   13b2c: 4d 81 00 94  	bl	0x34060 <_ZN7android8hardware11hidl_stringC1ERKNSt3__112basic_stringIcNS2_11char_traitsIcEENS2_9allocatorIcEEEE@plt>
   13b54: 43 81 00 94  	bl	0x34060 <_ZN7android8hardware11hidl_stringC1ERKNSt3__112basic_stringIcNS2_11char_traitsIcEENS2_9allocatorIcEEEE@plt>
   13b7c: 39 81 00 94  	bl	0x34060 <_ZN7android8hardware11hidl_stringC1ERKNSt3__112basic_stringIcNS2_11char_traitsIcEENS2_9allocatorIcEEEE@plt>
   13ba4: 2f 81 00 94  	bl	0x34060 <_ZN7android8hardware11hidl_stringC1ERKNSt3__112basic_stringIcNS2_11char_traitsIcEENS2_9allocatorIcEEEE@plt>
   13bcc: 25 81 00 94  	bl	0x34060 <_ZN7android8hardware11hidl_stringC1ERKNSt3__112basic_stringIcNS2_11char_traitsIcEENS2_9allocatorIcEEEE@plt>
   13bf4: 1b 81 00 94  	bl	0x34060 <_ZN7android8hardware11hidl_stringC1ERKNSt3__112basic_stringIcNS2_11char_traitsIcEENS2_9allocatorIcEEEE@plt>
   13c1c: 11 81 00 94  	bl	0x34060 <_ZN7android8hardware11hidl_stringC1ERKNSt3__112basic_stringIcNS2_11char_traitsIcEENS2_9allocatorIcEEEE@plt>
   13c44: 07 81 00 94  	bl	0x34060 <_ZN7android8hardware11hidl_stringC1ERKNSt3__112basic_stringIcNS2_11char_traitsIcEENS2_9allocatorIcEEEE@plt>
   13c6c: fd 80 00 94  	bl	0x34060 <_ZN7android8hardware11hidl_stringC1ERKNSt3__112basic_stringIcNS2_11char_traitsIcEENS2_9allocatorIcEEEE@plt>
   13c94: f3 80 00 94  	bl	0x34060 <_ZN7android8hardware11hidl_stringC1ERKNSt3__112basic_stringIcNS2_11char_traitsIcEENS2_9allocatorIcEEEE@plt>
   13cbc: e9 80 00 94  	bl	0x34060 <_ZN7android8hardware11hidl_stringC1ERKNSt3__112basic_stringIcNS2_11char_traitsIcEENS2_9allocatorIcEEEE@plt>
   13ce4: df 80 00 94  	bl	0x34060 <_ZN7android8hardware11hidl_stringC1ERKNSt3__112basic_stringIcNS2_11char_traitsIcEENS2_9allocatorIcEEEE@plt>
   13d0c: d5 80 00 94  	bl	0x34060 <_ZN7android8hardware11hidl_stringC1ERKNSt3__112basic_stringIcNS2_11char_traitsIcEENS2_9allocatorIcEEEE@plt>
   13d34: cb 80 00 94  	bl	0x34060 <_ZN7android8hardware11hidl_stringC1ERKNSt3__112basic_stringIcNS2_11char_traitsIcEENS2_9allocatorIcEEEE@plt>
   13d5c: c1 80 00 94  	bl	0x34060 <_ZN7android8hardware11hidl_stringC1ERKNSt3__112basic_stringIcNS2_11char_traitsIcEENS2_9allocatorIcEEEE@plt>
   13d84: b7 80 00 94  	bl	0x34060 <_ZN7android8hardware11hidl_stringC1ERKNSt3__112basic_stringIcNS2_11char_traitsIcEENS2_9allocatorIcEEEE@plt>
   13dac: ad 80 00 94  	bl	0x34060 <_ZN7android8hardware11hidl_stringC1ERKNSt3__112basic_stringIcNS2_11char_traitsIcEENS2_9allocatorIcEEEE@plt>
   13dd4: a3 80 00 94  	bl	0x34060 <_ZN7android8hardware11hidl_stringC1ERKNSt3__112basic_stringIcNS2_11char_traitsIcEENS2_9allocatorIcEEEE@plt>
   13dfc: 99 80 00 94  	bl	0x34060 <_ZN7android8hardware11hidl_stringC1ERKNSt3__112basic_stringIcNS2_11char_traitsIcEENS2_9allocatorIcEEEE@plt>
   13e24: 8f 80 00 94  	bl	0x34060 <_ZN7android8hardware11hidl_stringC1ERKNSt3__112basic_stringIcNS2_11char_traitsIcEENS2_9allocatorIcEEEE@plt>
   13e4c: 85 80 00 94  	bl	0x34060 <_ZN7android8hardware11hidl_stringC1ERKNSt3__112basic_stringIcNS2_11char_traitsIcEENS2_9allocatorIcEEEE@plt>
   13e74: 7b 80 00 94  	bl	0x34060 <_ZN7android8hardware11hidl_stringC1ERKNSt3__112basic_stringIcNS2_11char_traitsIcEENS2_9allocatorIcEEEE@plt>
   13e98: 76 80 00 94  	bl	0x34070 <_ZNSt3__112basic_stringIcNS_11char_traitsIcEENS_9allocatorIcEEEC1ERKS5_@plt>
   13ec0: 6c 80 00 94  	bl	0x34070 <_ZNSt3__112basic_stringIcNS_11char_traitsIcEENS_9allocatorIcEEEC1ERKS5_@plt>
   13ee8: 62 80 00 94  	bl	0x34070 <_ZNSt3__112basic_stringIcNS_11char_traitsIcEENS_9allocatorIcEEEC1ERKS5_@plt>
   13f10: 58 80 00 94  	bl	0x34070 <_ZNSt3__112basic_stringIcNS_11char_traitsIcEENS_9allocatorIcEEEC1ERKS5_@plt>
   15f94: 43 78 00 94  	bl	0x340a0 <_ZN6ChiLog9LogSystemEPKcS1_S1_S1_iS1_z@plt>
   16038: 1e 78 00 94  	bl	0x340b0 <_ZN18ChiMetadataManager20RegisterSharedClientEPjjj16ChiMetadataUsage@plt>
   160ec: ed 77 00 94  	bl	0x340a0 <_ZN6ChiLog9LogSystemEPKcS1_S1_S1_iS1_z@plt>
   162f0: 6c 77 00 94  	bl	0x340a0 <_ZN6ChiLog9LogSystemEPKcS1_S1_S1_iS1_z@plt>
   165d8: b2 76 00 94  	bl	0x340a0 <_ZN6ChiLog9LogSystemEPKcS1_S1_S1_iS1_z@plt>
   16704: 87 76 00 94  	bl	0x34120 <_ZNK15ChiFeature2Base19GetCurrentStageInfoEP24ChiFeature2RequestObjectP20ChiFeature2StageInfo@plt>
   16734: 83 76 00 94  	bl	0x34140 <_ZN24ChiFeature2RequestObject33GetInterFeatureRequestPrivateDataEjjj@plt>
   16764: 77 76 00 94  	bl	0x34140 <_ZN24ChiFeature2RequestObject33GetInterFeatureRequestPrivateDataEjjj@plt>
   16c98: 02 75 00 94  	bl	0x340a0 <_ZN6ChiLog9LogSystemEPKcS1_S1_S1_iS1_z@plt>
   16d48: 0a 75 00 94  	bl	0x34170 <_ZN24ChiFeature2RequestObject33SetInterFeatureRequestPrivateDataEjjjPv@plt>
   16d90: 00 75 00 94  	bl	0x34190 <_ZNKSt3__120__vector_base_commonILb1EE20__throw_length_errorEv@plt>
   16dc0: fc 74 00 94  	bl	0x341b0 <_ZN22CHITargetBufferManager22GetTargetBufferManagerEPv@plt>
   16dd0: fc 74 00 94  	bl	0x341c0 <_ZN22CHITargetBufferManager9GetTargetEPvm@plt>
   16ea4: 7f 74 00 94  	bl	0x340a0 <_ZN6ChiLog9LogSystemEPKcS1_S1_S1_iS1_z@plt>
   17024: 1f 74 00 94  	bl	0x340a0 <_ZN6ChiLog9LogSystemEPKcS1_S1_S1_iS1_z@plt>
   170e0: f0 73 00 94  	bl	0x340a0 <_ZN6ChiLog9LogSystemEPKcS1_S1_S1_iS1_z@plt>
   17210: a4 73 00 94  	bl	0x340a0 <_ZN6ChiLog9LogSystemEPKcS1_S1_S1_iS1_z@plt>
   17418: 22 73 00 94  	bl	0x340a0 <_ZN6ChiLog9LogSystemEPKcS1_S1_S1_iS1_z@plt>
   17448: 52 73 00 94  	bl	0x34190 <_ZNKSt3__120__vector_base_commonILb1EE20__throw_length_errorEv@plt>
   17698: 82 72 00 94  	bl	0x340a0 <_ZN6ChiLog9LogSystemEPKcS1_S1_S1_iS1_z@plt>
   17764: 4f 72 00 94  	bl	0x340a0 <_ZN6ChiLog9LogSystemEPKcS1_S1_S1_iS1_z@plt>
   17898: 02 72 00 94  	bl	0x340a0 <_ZN6ChiLog9LogSystemEPKcS1_S1_S1_iS1_z@plt>
   178e8: 3e 72 00 94  	bl	0x341e0 <_ZNK15ChiFeature2Base21ProcessFeatureMessageEP28ChiFeature2MessageDescriptor@plt>
   179dc: b1 71 00 94  	bl	0x340a0 <_ZN6ChiLog9LogSystemEPKcS1_S1_S1_iS1_z@plt>
   17c54: 33 71 00 94  	bl	0x34120 <_ZNK15ChiFeature2Base19GetCurrentStageInfoEP24ChiFeature2RequestObjectP20ChiFeature2StageInfo@plt>
   17c84: 5b 71 00 94  	bl	0x341f0 <_ZNK15ChiFeature2Base13SetConfigInfoEP24ChiFeature2RequestObjectj@plt>
   17cb0: 24 71 00 94  	bl	0x34140 <_ZN24ChiFeature2RequestObject33GetInterFeatureRequestPrivateDataEjjj@plt>
   17cf4: 0b 71 00 94  	bl	0x34120 <_ZNK15ChiFeature2Base19GetCurrentStageInfoEP24ChiFeature2RequestObjectP20ChiFeature2StageInfo@plt>
   17db4: bb 70 00 94  	bl	0x340a0 <_ZN6ChiLog9LogSystemEPKcS1_S1_S1_iS1_z@plt>
   17de0: 08 71 00 94  	bl	0x34200 <_ZN24ChiFeature2RequestObject18SetCurRequestStateE23ChiFeature2RequestStateh@plt>
   17df0: 04 71 00 94  	bl	0x34200 <_ZN24ChiFeature2RequestObject18SetCurRequestStateE23ChiFeature2RequestStateh@plt>
   17e00: 04 71 00 94  	bl	0x34210 <_ZN24ChiFeature2RequestObject32AllOutputPortsProcessingCompleteEv@plt>
   17ea8: a6 70 00 94  	bl	0x34140 <_ZN24ChiFeature2RequestObject33GetInterFeatureRequestPrivateDataEjjj@plt>
   17ed4: d3 70 00 94  	bl	0x34220 <_ZNK15ChiFeature2Base35SetNextStageInfoFromStageDescriptorEP24ChiFeature2RequestObjectPK26ChiFeature2StageDescriptorhh@plt>
   17f98: 42 70 00 94  	bl	0x340a0 <_ZN6ChiLog9LogSystemEPKcS1_S1_S1_iS1_z@plt>
   18020: 80 70 00 94  	bl	0x34220 <_ZNK15ChiFeature2Base35SetNextStageInfoFromStageDescriptorEP24ChiFeature2RequestObjectPK26ChiFeature2StageDescriptorhh@plt>
   18038: 7e 70 00 94  	bl	0x34230 <_ZNK15ChiFeature2Base36GetDependencyListFromStageDescriptorEPK26ChiFeature2StageDescriptorhhh@plt>
   1805c: 79 70 00 94  	bl	0x34240 <_ZNK15ChiFeature2Base23PopulateDependencyPortsEP24ChiFeature2RequestObjecthPK26ChiFeature2InputDependency@plt>
   1807c: 75 70 00 94  	bl	0x34250 <_ZNK24ChiFeature2RequestObject14GetPrivContextEv@plt>
   18090: 74 70 00 94  	bl	0x34260 <_ZN24ChiFeature2RequestObject14SetPrivContextEPv@plt>
   180b4: 4b 70 00 94  	bl	0x341e0 <_ZNK15ChiFeature2Base21ProcessFeatureMessageEP28ChiFeature2MessageDescriptor@plt>
   180d4: 67 70 00 94  	bl	0x34270 <_ZN24ChiFeature2RequestObject36RemoveInterFeatureRequestPrivateDataEjjj@plt>
   18290: 84 6f 00 94  	bl	0x340a0 <_ZN6ChiLog9LogSystemEPKcS1_S1_S1_iS1_z@plt>
   183e0: 30 6f 00 94  	bl	0x340a0 <_ZN6ChiLog9LogSystemEPKcS1_S1_S1_iS1_z@plt>
   18528: de 6e 00 94  	bl	0x340a0 <_ZN6ChiLog9LogSystemEPKcS1_S1_S1_iS1_z@plt>
   186e8: 6e 6e 00 94  	bl	0x340a0 <_ZN6ChiLog9LogSystemEPKcS1_S1_S1_iS1_z@plt>
   1888c: 7d 6e 00 94  	bl	0x34280 <_ZNK24ChiFeature2RequestObject19GetSequencePrivDataE24ChiFeature2SequenceOrderh@plt>
   18994: c3 6d 00 94  	bl	0x340a0 <_ZN6ChiLog9LogSystemEPKcS1_S1_S1_iS1_z@plt>
   189ac: 39 6e 00 94  	bl	0x34290 <_ZN22CHITargetBufferManager26ImportExternalTargetBufferEjmPv@plt>
   189bc: 31 6e 00 94  	bl	0x34280 <_ZNK24ChiFeature2RequestObject19GetSequencePrivDataE24ChiFeature2SequenceOrderh@plt>
   189d4: 33 6e 00 94  	bl	0x342a0 <_ZN22CHITargetBufferManager17SetupTargetBufferEj@plt>
   18a04: 2b 6e 00 94  	bl	0x342b0 <_ZNK24ChiFeature2RequestObject26GetFinalBufferMetadataInfoE21ChiFeature2IdentifierPP29ChiFeature2BufferMetadataInfoh@plt>
   18b78: c2 6d 00 94  	bl	0x34280 <_ZNK24ChiFeature2RequestObject19GetSequencePrivDataE24ChiFeature2SequenceOrderh@plt>
   18ba8: c6 6d 00 94  	bl	0x342c0 <_ZN22CHITargetBufferManager12UpdateTargetEjmPv15ChiTargetStatusPS0_@plt>
   18c54: 13 6d 00 94  	bl	0x340a0 <_ZN6ChiLog9LogSystemEPKcS1_S1_S1_iS1_z@plt>
   18d38: da 6c 00 94  	bl	0x340a0 <_ZN6ChiLog9LogSystemEPKcS1_S1_S1_iS1_z@plt>
   18d88: 16 6d 00 94  	bl	0x341e0 <_ZNK15ChiFeature2Base21ProcessFeatureMessageEP28ChiFeature2MessageDescriptor@plt>
   18dcc: 05 6d 00 94  	bl	0x341e0 <_ZNK15ChiFeature2Base21ProcessFeatureMessageEP28ChiFeature2MessageDescriptor@plt>
   18e34: f3 6c 00 94  	bl	0x34200 <_ZN24ChiFeature2RequestObject18SetCurRequestStateE23ChiFeature2RequestStateh@plt>
   18e80: bc 6c 00 94  	bl	0x34170 <_ZN24ChiFeature2RequestObject33SetInterFeatureRequestPrivateDataEjjjPv@plt>
   18ec8: 02 6d 00 94  	bl	0x342d0 <_ZNKSt3__120__vector_base_commonILb1EE20__throw_out_of_rangeEv@plt>
   18ed0: b0 6c 00 94  	bl	0x34190 <_ZNKSt3__120__vector_base_commonILb1EE20__throw_length_errorEv@plt>
   18edc: fd 6c 00 94  	bl	0x342d0 <_ZNKSt3__120__vector_base_commonILb1EE20__throw_out_of_rangeEv@plt>
   18f24: 7f 6c 00 94  	bl	0x34120 <_ZNK15ChiFeature2Base19GetCurrentStageInfoEP24ChiFeature2RequestObjectP20ChiFeature2StageInfo@plt>
   18f54: 7b 6c 00 94  	bl	0x34140 <_ZN24ChiFeature2RequestObject33GetInterFeatureRequestPrivateDataEjjj@plt>
   1900c: 25 6c 00 94  	bl	0x340a0 <_ZN6ChiLog9LogSystemEPKcS1_S1_S1_iS1_z@plt>
   191d4: b3 6b 00 94  	bl	0x340a0 <_ZN6ChiLog9LogSystemEPKcS1_S1_S1_iS1_z@plt>
   1927c: 89 6b 00 94  	bl	0x340a0 <_ZN6ChiLog9LogSystemEPKcS1_S1_S1_iS1_z@plt>
   19384: d7 6b 00 94  	bl	0x342e0 <_ZNK24ChiFeature2RequestObject13GetBufferInfoE31ChiFeature2RequestObjectOpsTypePK21ChiFeature2IdentifierPPvPmhh@plt>
   1938c: 89 6b 00 94  	bl	0x341b0 <_ZN22CHITargetBufferManager22GetTargetBufferManagerEPv@plt>
   1950c: 79 6b 00 94  	bl	0x342f0 <_ZNK15ChiFeature2Base15GetStreamBufferEPvmP15ChiStreamBuffer@plt>
   195c8: b6 6a 00 94  	bl	0x340a0 <_ZN6ChiLog9LogSystemEPKcS1_S1_S1_iS1_z@plt>
   19790: 44 6a 00 94  	bl	0x340a0 <_ZN6ChiLog9LogSystemEPKcS1_S1_S1_iS1_z@plt>
   19884: 07 6a 00 94  	bl	0x340a0 <_ZN6ChiLog9LogSystemEPKcS1_S1_S1_iS1_z@plt>
   19954: d3 69 00 94  	bl	0x340a0 <_ZN6ChiLog9LogSystemEPKcS1_S1_S1_iS1_z@plt>
   19af4: 6b 69 00 94  	bl	0x340a0 <_ZN6ChiLog9LogSystemEPKcS1_S1_S1_iS1_z@plt>
   19bc0: 38 69 00 94  	bl	0x340a0 <_ZN6ChiLog9LogSystemEPKcS1_S1_S1_iS1_z@plt>
   19d00: e8 68 00 94  	bl	0x340a0 <_ZN6ChiLog9LogSystemEPKcS1_S1_S1_iS1_z@plt>
   19d70: f4 68 00 94  	bl	0x34140 <_ZN24ChiFeature2RequestObject33GetInterFeatureRequestPrivateDataEjjj@plt>
   19d9c: 59 69 00 94  	bl	0x34300 <_ZNK24ChiFeature2RequestObject24GetExternalRequestOutputEPhPPK28ChiFeature2RequestOutputInfoh@plt>
   19e00: 44 69 00 94  	bl	0x34310 <_ZN24ChiFeature2RequestObject24GetOutputNotifiedForPortE21ChiFeature2Identifierh@plt>
   19e24: 3f 69 00 94  	bl	0x34320 <_ZN24ChiFeature2RequestObject29GetReleaseAcknowledgedForPortE21ChiFeature2Identifierh@plt>
   19e44: db 68 00 94  	bl	0x341b0 <_ZN22CHITargetBufferManager22GetTargetBufferManagerEPv@plt>
   19e50: 38 69 00 94  	bl	0x34330 <_ZN22CHITargetBufferManager19ReleaseTargetBufferEPv@plt>
   19e78: 32 69 00 94  	bl	0x34340 <_ZN24ChiFeature2RequestObject29SetReleaseAcknowledgedForPortE21ChiFeature2Identifierh@plt>
   19eec: a1 68 00 94  	bl	0x34170 <_ZN24ChiFeature2RequestObject33SetInterFeatureRequestPrivateDataEjjjPv@plt>
   19f98: de 68 00 94  	bl	0x34310 <_ZN24ChiFeature2RequestObject24GetOutputNotifiedForPortE21ChiFeature2Identifierh@plt>
   19fbc: d9 68 00 94  	bl	0x34320 <_ZN24ChiFeature2RequestObject29GetReleaseAcknowledgedForPortE21ChiFeature2Identifierh@plt>
   19fdc: 75 68 00 94  	bl	0x341b0 <_ZN22CHITargetBufferManager22GetTargetBufferManagerEPv@plt>
   19fe8: d2 68 00 94  	bl	0x34330 <_ZN22CHITargetBufferManager19ReleaseTargetBufferEPv@plt>
   1a010: cc 68 00 94  	bl	0x34340 <_ZN24ChiFeature2RequestObject29SetReleaseAcknowledgedForPortE21ChiFeature2Identifierh@plt>
   1a044: 4b 68 00 94  	bl	0x34170 <_ZN24ChiFeature2RequestObject33SetInterFeatureRequestPrivateDataEjjjPv@plt>
   1a164: cf 67 00 94  	bl	0x340a0 <_ZN6ChiLog9LogSystemEPKcS1_S1_S1_iS1_z@plt>
   1a200: 04 68 00 94  	bl	0x34210 <_ZN24ChiFeature2RequestObject32AllOutputPortsProcessingCompleteEv@plt>
   1a230: c4 67 00 94  	bl	0x34140 <_ZN24ChiFeature2RequestObject33GetInterFeatureRequestPrivateDataEjjj@plt>
   1a244: 43 68 00 94  	bl	0x34350 <_ZNK24ChiFeature2RequestObject18GetCurRequestStateEh@plt>
   1a2d4: df 67 00 94  	bl	0x34250 <_ZNK24ChiFeature2RequestObject14GetPrivContextEv@plt>
   1a2e8: de 67 00 94  	bl	0x34260 <_ZN24ChiFeature2RequestObject14SetPrivContextEPv@plt>
   1a3d8: 32 67 00 94  	bl	0x340a0 <_ZN6ChiLog9LogSystemEPKcS1_S1_S1_iS1_z@plt>
   1a3ec: 7d 67 00 94  	bl	0x341e0 <_ZNK15ChiFeature2Base21ProcessFeatureMessageEP28ChiFeature2MessageDescriptor@plt>
   1a40c: 99 67 00 94  	bl	0x34270 <_ZN24ChiFeature2RequestObject36RemoveInterFeatureRequestPrivateDataEjjj@plt>
   1a560: 80 67 00 94  	bl	0x34360 <_ZN15ChiFeature2Base10InitializeEP26ChiFeature2CreateInputInfo@plt>
   1a60c: a5 66 00 94  	bl	0x340a0 <_ZN6ChiLog9LogSystemEPKcS1_S1_S1_iS1_z@plt>
   1a780: 48 66 00 94  	bl	0x340a0 <_ZN6ChiLog9LogSystemEPKcS1_S1_S1_iS1_z@plt>
   1a870: c0 66 00 94  	bl	0x34370 <_ZN15UsecaseSelector18getSensorDimensionEjPK28camera3_stream_configurationPjS3_S3_jjPK17LogicalCameraInfo@plt>
   1a93c: d9 65 00 94  	bl	0x340a0 <_ZN6ChiLog9LogSystemEPKcS1_S1_S1_iS1_z@plt>
   1a9f4: ab 65 00 94  	bl	0x340a0 <_ZN6ChiLog9LogSystemEPKcS1_S1_S1_iS1_z@plt>
   1aa0c: 5d 66 00 94  	bl	0x34380 <_ZN15ExtensionModule11GetInstanceEv@plt>
   1aa1c: 5d 66 00 94  	bl	0x34390 <_ZN15ExtensionModule28GetPhysicalCameraSensorModesEjPjPP17ChiSensorModeInfo@plt>
   1aa90: 3c 66 00 94  	bl	0x34380 <_ZN15ExtensionModule11GetInstanceEv@plt>
   1aaa0: 3c 66 00 94  	bl	0x34390 <_ZN15ExtensionModule28GetPhysicalCameraSensorModesEjPjPP17ChiSensorModeInfo@plt>
   1aabc: 31 66 00 94  	bl	0x34380 <_ZN15ExtensionModule11GetInstanceEv@plt>
   1aacc: 31 66 00 94  	bl	0x34390 <_ZN15ExtensionModule28GetPhysicalCameraSensorModesEjPjPP17ChiSensorModeInfo@plt>
   1ab00: 20 66 00 94  	bl	0x34380 <_ZN15ExtensionModule11GetInstanceEv@plt>
   1ab08: 26 66 00 94  	bl	0x343a0 <_ZN15ExtensionModule15GetVendorTagOpsEP16ChiVendorTagsOps@plt>
   1ab50: 0c 66 00 94  	bl	0x34380 <_ZN15ExtensionModule11GetInstanceEv@plt>
   1ab60: 0c 66 00 94  	bl	0x34390 <_ZN15ExtensionModule28GetPhysicalCameraSensorModesEjPjPP17ChiSensorModeInfo@plt>
   1abdc: 31 65 00 94  	bl	0x340a0 <_ZN6ChiLog9LogSystemEPKcS1_S1_S1_iS1_z@plt>
   1ad7c: c9 64 00 94  	bl	0x340a0 <_ZN6ChiLog9LogSystemEPKcS1_S1_S1_iS1_z@plt>
   1ae3c: 99 64 00 94  	bl	0x340a0 <_ZN6ChiLog9LogSystemEPKcS1_S1_S1_iS1_z@plt>
   1afcc: 35 64 00 94  	bl	0x340a0 <_ZN6ChiLog9LogSystemEPKcS1_S1_S1_iS1_z@plt>
   1b128: de 63 00 94  	bl	0x340a0 <_ZN6ChiLog9LogSystemEPKcS1_S1_S1_iS1_z@plt>
   1b1e4: af 63 00 94  	bl	0x340a0 <_ZN6ChiLog9LogSystemEPKcS1_S1_S1_iS1_z@plt>
   1b48c: 05 63 00 94  	bl	0x340a0 <_ZN6ChiLog9LogSystemEPKcS1_S1_S1_iS1_z@plt>
   1b6a0: 80 62 00 94  	bl	0x340a0 <_ZN6ChiLog9LogSystemEPKcS1_S1_S1_iS1_z@plt>
   1b7e4: 2f 62 00 94  	bl	0x340a0 <_ZN6ChiLog9LogSystemEPKcS1_S1_S1_iS1_z@plt>
   1b95c: d1 61 00 94  	bl	0x340a0 <_ZN6ChiLog9LogSystemEPKcS1_S1_S1_iS1_z@plt>
   1b978: 06 62 00 94  	bl	0x34190 <_ZNKSt3__120__vector_base_commonILb1EE20__throw_length_errorEv@plt>
   1b980: 04 62 00 94  	bl	0x34190 <_ZNKSt3__120__vector_base_commonILb1EE20__throw_length_errorEv@plt>
   1b9c0: 88 62 00 94  	bl	0x343e0 <_ZN15ChiFeature2BaseD2Ev@plt>
   1bb78: 86 61 00 94  	bl	0x34190 <_ZNKSt3__120__vector_base_commonILb1EE20__throw_length_errorEv@plt>
   1bd18: c6 60 00 94  	bl	0x34030 <_ZN7android8hardware11hidl_stringC1EPKc@plt>
   1bd54: b7 60 00 94  	bl	0x34030 <_ZN7android8hardware11hidl_stringC1EPKc@plt>
   1bd7c: ad 60 00 94  	bl	0x34030 <_ZN7android8hardware11hidl_stringC1EPKc@plt>
   1bda4: a3 60 00 94  	bl	0x34030 <_ZN7android8hardware11hidl_stringC1EPKc@plt>
   1bdcc: 99 60 00 94  	bl	0x34030 <_ZN7android8hardware11hidl_stringC1EPKc@plt>
   1bdf4: 8f 60 00 94  	bl	0x34030 <_ZN7android8hardware11hidl_stringC1EPKc@plt>
   1be1c: 85 60 00 94  	bl	0x34030 <_ZN7android8hardware11hidl_stringC1EPKc@plt>
   1be44: 7b 60 00 94  	bl	0x34030 <_ZN7android8hardware11hidl_stringC1EPKc@plt>
   1be6c: 71 60 00 94  	bl	0x34030 <_ZN7android8hardware11hidl_stringC1EPKc@plt>
   1be94: 67 60 00 94  	bl	0x34030 <_ZN7android8hardware11hidl_stringC1EPKc@plt>
   1bebc: 5d 60 00 94  	bl	0x34030 <_ZN7android8hardware11hidl_stringC1EPKc@plt>
   1bee4: 53 60 00 94  	bl	0x34030 <_ZN7android8hardware11hidl_stringC1EPKc@plt>
   1bf0c: 49 60 00 94  	bl	0x34030 <_ZN7android8hardware11hidl_stringC1EPKc@plt>
   1bf34: 3f 60 00 94  	bl	0x34030 <_ZN7android8hardware11hidl_stringC1EPKc@plt>
   1bf5c: 35 60 00 94  	bl	0x34030 <_ZN7android8hardware11hidl_stringC1EPKc@plt>
   1bf84: 2b 60 00 94  	bl	0x34030 <_ZN7android8hardware11hidl_stringC1EPKc@plt>
   1bfac: 21 60 00 94  	bl	0x34030 <_ZN7android8hardware11hidl_stringC1EPKc@plt>
   1bfd4: 17 60 00 94  	bl	0x34030 <_ZN7android8hardware11hidl_stringC1EPKc@plt>
   1bffc: 0d 60 00 94  	bl	0x34030 <_ZN7android8hardware11hidl_stringC1EPKc@plt>
   1c024: 03 60 00 94  	bl	0x34030 <_ZN7android8hardware11hidl_stringC1EPKc@plt>
   1c04c: f9 5f 00 94  	bl	0x34030 <_ZN7android8hardware11hidl_stringC1EPKc@plt>
   1c5bc: a9 5e 00 94  	bl	0x34060 <_ZN7android8hardware11hidl_stringC1ERKNSt3__112basic_stringIcNS2_11char_traitsIcEENS2_9allocatorIcEEEE@plt>
   1c5e4: 9f 5e 00 94  	bl	0x34060 <_ZN7android8hardware11hidl_stringC1ERKNSt3__112basic_stringIcNS2_11char_traitsIcEENS2_9allocatorIcEEEE@plt>
   1c60c: 95 5e 00 94  	bl	0x34060 <_ZN7android8hardware11hidl_stringC1ERKNSt3__112basic_stringIcNS2_11char_traitsIcEENS2_9allocatorIcEEEE@plt>
   1c634: 8b 5e 00 94  	bl	0x34060 <_ZN7android8hardware11hidl_stringC1ERKNSt3__112basic_stringIcNS2_11char_traitsIcEENS2_9allocatorIcEEEE@plt>
   1c65c: 81 5e 00 94  	bl	0x34060 <_ZN7android8hardware11hidl_stringC1ERKNSt3__112basic_stringIcNS2_11char_traitsIcEENS2_9allocatorIcEEEE@plt>
   1c684: 77 5e 00 94  	bl	0x34060 <_ZN7android8hardware11hidl_stringC1ERKNSt3__112basic_stringIcNS2_11char_traitsIcEENS2_9allocatorIcEEEE@plt>
   1c6ac: 6d 5e 00 94  	bl	0x34060 <_ZN7android8hardware11hidl_stringC1ERKNSt3__112basic_stringIcNS2_11char_traitsIcEENS2_9allocatorIcEEEE@plt>
   1c6d4: 63 5e 00 94  	bl	0x34060 <_ZN7android8hardware11hidl_stringC1ERKNSt3__112basic_stringIcNS2_11char_traitsIcEENS2_9allocatorIcEEEE@plt>
   1c6fc: 59 5e 00 94  	bl	0x34060 <_ZN7android8hardware11hidl_stringC1ERKNSt3__112basic_stringIcNS2_11char_traitsIcEENS2_9allocatorIcEEEE@plt>
   1c724: 4f 5e 00 94  	bl	0x34060 <_ZN7android8hardware11hidl_stringC1ERKNSt3__112basic_stringIcNS2_11char_traitsIcEENS2_9allocatorIcEEEE@plt>
   1c74c: 45 5e 00 94  	bl	0x34060 <_ZN7android8hardware11hidl_stringC1ERKNSt3__112basic_stringIcNS2_11char_traitsIcEENS2_9allocatorIcEEEE@plt>
   1c774: 3b 5e 00 94  	bl	0x34060 <_ZN7android8hardware11hidl_stringC1ERKNSt3__112basic_stringIcNS2_11char_traitsIcEENS2_9allocatorIcEEEE@plt>
   1c79c: 31 5e 00 94  	bl	0x34060 <_ZN7android8hardware11hidl_stringC1ERKNSt3__112basic_stringIcNS2_11char_traitsIcEENS2_9allocatorIcEEEE@plt>
   1c7c4: 27 5e 00 94  	bl	0x34060 <_ZN7android8hardware11hidl_stringC1ERKNSt3__112basic_stringIcNS2_11char_traitsIcEENS2_9allocatorIcEEEE@plt>
   1c7ec: 1d 5e 00 94  	bl	0x34060 <_ZN7android8hardware11hidl_stringC1ERKNSt3__112basic_stringIcNS2_11char_traitsIcEENS2_9allocatorIcEEEE@plt>
   1c814: 13 5e 00 94  	bl	0x34060 <_ZN7android8hardware11hidl_stringC1ERKNSt3__112basic_stringIcNS2_11char_traitsIcEENS2_9allocatorIcEEEE@plt>
   1c83c: 09 5e 00 94  	bl	0x34060 <_ZN7android8hardware11hidl_stringC1ERKNSt3__112basic_stringIcNS2_11char_traitsIcEENS2_9allocatorIcEEEE@plt>
   1c864: ff 5d 00 94  	bl	0x34060 <_ZN7android8hardware11hidl_stringC1ERKNSt3__112basic_stringIcNS2_11char_traitsIcEENS2_9allocatorIcEEEE@plt>
   1c88c: f5 5d 00 94  	bl	0x34060 <_ZN7android8hardware11hidl_stringC1ERKNSt3__112basic_stringIcNS2_11char_traitsIcEENS2_9allocatorIcEEEE@plt>
   1c8b4: eb 5d 00 94  	bl	0x34060 <_ZN7android8hardware11hidl_stringC1ERKNSt3__112basic_stringIcNS2_11char_traitsIcEENS2_9allocatorIcEEEE@plt>
   1c8dc: e1 5d 00 94  	bl	0x34060 <_ZN7android8hardware11hidl_stringC1ERKNSt3__112basic_stringIcNS2_11char_traitsIcEENS2_9allocatorIcEEEE@plt>
   1c904: d7 5d 00 94  	bl	0x34060 <_ZN7android8hardware11hidl_stringC1ERKNSt3__112basic_stringIcNS2_11char_traitsIcEENS2_9allocatorIcEEEE@plt>
   1c92c: cd 5d 00 94  	bl	0x34060 <_ZN7android8hardware11hidl_stringC1ERKNSt3__112basic_stringIcNS2_11char_traitsIcEENS2_9allocatorIcEEEE@plt>
   1c954: c3 5d 00 94  	bl	0x34060 <_ZN7android8hardware11hidl_stringC1ERKNSt3__112basic_stringIcNS2_11char_traitsIcEENS2_9allocatorIcEEEE@plt>
   1c97c: b9 5d 00 94  	bl	0x34060 <_ZN7android8hardware11hidl_stringC1ERKNSt3__112basic_stringIcNS2_11char_traitsIcEENS2_9allocatorIcEEEE@plt>
   1c9a4: af 5d 00 94  	bl	0x34060 <_ZN7android8hardware11hidl_stringC1ERKNSt3__112basic_stringIcNS2_11char_traitsIcEENS2_9allocatorIcEEEE@plt>
   1c9c8: aa 5d 00 94  	bl	0x34070 <_ZNSt3__112basic_stringIcNS_11char_traitsIcEENS_9allocatorIcEEEC1ERKS5_@plt>
   1c9f0: a0 5d 00 94  	bl	0x34070 <_ZNSt3__112basic_stringIcNS_11char_traitsIcEENS_9allocatorIcEEEC1ERKS5_@plt>
   1ca18: 96 5d 00 94  	bl	0x34070 <_ZNSt3__112basic_stringIcNS_11char_traitsIcEENS_9allocatorIcEEEC1ERKS5_@plt>
   1ca40: 8c 5d 00 94  	bl	0x34070 <_ZNSt3__112basic_stringIcNS_11char_traitsIcEENS_9allocatorIcEEEC1ERKS5_@plt>
   1e934: b5 23 00 14  	b	0x27808 <_ZN8ChxUtils11GetTotalRamEv+0x208>
000000000001e938 <_Znwm>:
000000000001e948 <_ZdlPv>:
000000000001e950 <_ZN5Mutex6CreateEv>:
   1e988: 40 02 00 b4  	cbz	x0, 0x1e9d0 <_ZN5Mutex6CreateEv+0x80>
   1e998: 60 01 00 35  	cbnz	w0, 0x1e9c4 <_ZN5Mutex6CreateEv+0x74>
   1e9a8: a0 00 00 35  	cbnz	w0, 0x1e9bc <_ZN5Mutex6CreateEv+0x6c>
   1e9b8: e0 01 00 34  	cbz	w0, 0x1e9f4 <_ZN5Mutex6CreateEv+0xa4>
   1e9dc: c1 01 00 54  	b.ne	0x1ea14 <_ZN5Mutex6CreateEv+0xc4>
   1ea10: 80 fe ff 54  	b.eq	0x1e9e0 <_ZN5Mutex6CreateEv+0x90>
000000000001ea18 <_ZN5Mutex10InitializeEv>:
   1ea48: 80 01 00 34  	cbz	w0, 0x1ea78 <_ZN5Mutex10InitializeEv+0x60>
   1ea5c: 21 03 00 54  	b.ne	0x1eac0 <_ZN5Mutex10InitializeEv+0xa8>
   1ea88: 00 01 00 35  	cbnz	w0, 0x1eaa8 <_ZN5Mutex10InitializeEv+0x90>
   1ea9c: 60 00 00 35  	cbnz	w0, 0x1eaa8 <_ZN5Mutex10InitializeEv+0x90>
   1eabc: 20 fd ff 54  	b.eq	0x1ea60 <_ZN5Mutex10InitializeEv+0x48>
000000000001eac8 <_ZN5Mutex7DestroyEv>:
   1eae0: 61 00 00 54  	b.ne	0x1eaec <_ZN5Mutex7DestroyEv+0x24>
000000000001eb00 <_ZN5Mutex4LockEv>:
000000000001eb08 <_ZN5Mutex7TryLockEv>:
000000000001eb30 <_ZN5Mutex6UnlockEv>:
000000000001eb38 <_ZN5Mutex15GetNativeHandleEv>:
000000000001eb48 <_ZN9Condition6CreateEv>:
   1eb74: 00 01 00 b4  	cbz	x0, 0x1eb94 <_ZN9Condition6CreateEv+0x4c>
   1eb84: 00 01 00 34  	cbz	w0, 0x1eba4 <_ZN9Condition6CreateEv+0x5c>
000000000001ebc0 <_ZN9Condition10InitializeEv>:
   1ebe0: 88 00 00 34  	cbz	w8, 0x1ebf0 <_ZN9Condition10InitializeEv+0x30>
000000000001ec08 <_ZN9Condition7DestroyEv>:
   1ec20: 61 00 00 54  	b.ne	0x1ec2c <_ZN9Condition7DestroyEv+0x24>
000000000001ec40 <_ZN9Condition4WaitEP15pthread_mutex_t>:
000000000001ec60 <_ZN9Condition9TimedWaitEP15pthread_mutex_tj>:
   1ed24: e1 00 00 54  	b.ne	0x1ed40 <_ZN9Condition9TimedWaitEP15pthread_mutex_tj+0xe0>
000000000001ed48 <_ZN9Condition6SignalEv>:
000000000001ed50 <_ZN9Condition9BroadcastEv>:
000000000001ed58 <_ZN9Semaphore6CreateEi>:
   1ed84: 40 00 00 b4  	cbz	x0, 0x1ed8c <_ZN9Semaphore6CreateEi+0x34>
000000000001ed98 <_ZN9Semaphore10InitializeEi>:
000000000001eda8 <_ZN9Semaphore16NotifyAllThreadsEv>:
   1edb8: ae 55 00 94  	bl	0x34470 <_ZNSt3__15mutex4lockEv@plt>
   1edcc: 69 05 00 54  	b.ls	0x1ee78 <_ZN9Semaphore16NotifyAllThreadsEv+0xd0>
   1edd0: a8 00 00 f0  	adrp	x8, 0x35000 <_ZN9Semaphore16NotifyAllThreadsEv+0x84>
   1eddc: e8 04 08 36  	tbz	w8, #1, 0x1ee78 <_ZN9Semaphore16NotifyAllThreadsEv+0xd0>
   1ede0: a9 00 00 f0  	adrp	x9, 0x35000 <_ZN9Semaphore16NotifyAllThreadsEv+0x94>
   1ede4: 74 ff ff f0  	adrp	x20, 0xd000 <_ZN9Semaphore10InitializeEi+0x8>
   1edf8: 01 02 00 54  	b.ne	0x1ee38 <_ZN9Semaphore16NotifyAllThreadsEv+0x90>
   1ee10: 81 ff ff 90  	adrp	x1, 0xe000 <_ZN9Semaphore16NotifyAllThreadsEv+0x28>
   1ee14: 62 ff ff d0  	adrp	x2, 0xc000 <_ZN9Semaphore16NotifyAllThreadsEv+0x24>
   1ee18: 45 ff ff f0  	adrp	x5, 0x9000 <_ZN9Semaphore16NotifyAllThreadsEv+0x1c>
   1ee4c: 61 ff ff 90  	adrp	x1, 0xa000 <_ZN9Semaphore16NotifyAllThreadsEv+0x54>
   1ee54: 60 ff ff f0  	adrp	x0, 0xd000 <_ZN9Semaphore16NotifyAllThreadsEv+0x68>
   1ee58: 43 ff ff f0  	adrp	x3, 0x9000 <_ZN9Semaphore16NotifyAllThreadsEv+0x5c>
   1ee5c: 45 ff ff f0  	adrp	x5, 0x9000 <_ZN9Semaphore16NotifyAllThreadsEv+0x60>
   1ee74: 8b 54 00 94  	bl	0x340a0 <_ZN6ChiLog9LogSystemEPKcS1_S1_S1_iS1_z@plt>
   1ee7c: 81 55 00 94  	bl	0x34480 <_ZNSt3__118condition_variable10notify_allEv@plt>
   1ee8c: 81 55 00 14  	b	0x34490 <_ZNSt3__15mutex6unlockEv@plt>
000000000001ee90 <_ZN9Semaphore5ResetEv>:
   1eea0: 74 55 00 94  	bl	0x34470 <_ZNSt3__15mutex4lockEv@plt>
   1eea4: a8 00 00 f0  	adrp	x8, 0x35000 <_ZN9Semaphore5ResetEv+0x70>
   1eeb8: e8 04 18 36  	tbz	w8, #3, 0x1ef54 <_ZN9Semaphore5ResetEv+0xc4>
   1eebc: a9 00 00 f0  	adrp	x9, 0x35000 <_ZN9Semaphore5ResetEv+0x88>
   1eec0: 74 ff ff f0  	adrp	x20, 0xd000 <_ZN9Semaphore16NotifyAllThreadsEv+0xd4>
   1eed4: 01 02 00 54  	b.ne	0x1ef14 <_ZN9Semaphore5ResetEv+0x84>
   1eeec: 81 ff ff 90  	adrp	x1, 0xe000 <_ZN9Semaphore5ResetEv+0x1c>
   1eef0: 62 ff ff b0  	adrp	x2, 0xb000 <_ZN9Semaphore5ResetEv+0x14>
   1eef4: 65 ff ff f0  	adrp	x5, 0xd000 <_ZN9Semaphore5ResetEv+0x20>
   1ef28: 61 ff ff d0  	adrp	x1, 0xc000 <_ZN9Semaphore5ResetEv+0x50>
   1ef30: 80 ff ff b0  	adrp	x0, 0xf000 <_ZN9Semaphore5ResetEv+0x64>
   1ef34: 63 ff ff f0  	adrp	x3, 0xd000 <_ZN9Semaphore5ResetEv+0x60>
   1ef38: 65 ff ff 90  	adrp	x5, 0xa000 <_ZN9Semaphore5ResetEv+0x58>
   1ef50: 54 54 00 94  	bl	0x340a0 <_ZN6ChiLog9LogSystemEPKcS1_S1_S1_iS1_z@plt>
   1ef58: 4a 55 00 94  	bl	0x34480 <_ZNSt3__118condition_variable10notify_allEv@plt>
   1ef68: 4a 55 00 14  	b	0x34490 <_ZNSt3__15mutex6unlockEv@plt>
000000000001ef70 <_ZN9Semaphore16WaitForSemaphoreEv>:
   1efac: 31 55 00 94  	bl	0x34470 <_ZNSt3__15mutex4lockEv@plt>
   1efb4: 88 00 00 34  	cbz	w8, 0x1efc4 <_ZN9Semaphore16WaitForSemaphoreEv+0x54>
   1efc0: 79 00 00 14  	b	0x1f1a4 <_ZN9Semaphore16WaitForSemaphoreEv+0x234>
   1efc4: 48 ff ff d0  	adrp	x8, 0x8000 <_ZN9Semaphore5ResetEv+0xdc>
   1efc8: 49 ff ff d0  	adrp	x9, 0x8000 <_ZN9Semaphore16WaitForSemaphoreEv>
   1efcc: b6 00 00 f0  	adrp	x22, 0x35000 <_ZN9Semaphore16WaitForSemaphoreEv+0xb8>
   1efd8: 77 ff ff f0  	adrp	x23, 0xd000 <_ZN9Semaphore16WaitForSemaphoreEv+0x24>
   1efe4: 78 ff ff 90  	adrp	x24, 0xa000 <_ZN9Semaphore16WaitForSemaphoreEv+0x24>
   1f010: 12 00 00 14  	b	0x1f058 <_ZN9Semaphore16WaitForSemaphoreEv+0xe8>
   1f028: 61 ff ff b0  	adrp	x1, 0xc000 <_ZN9Semaphore16WaitForSemaphoreEv+0x6c>
   1f030: 80 ff ff 90  	adrp	x0, 0xf000 <_ZN9Semaphore16WaitForSemaphoreEv+0x80>
   1f034: 65 ff ff b0  	adrp	x5, 0xc000 <_ZN9Semaphore16WaitForSemaphoreEv+0x78>
   1f04c: 15 54 00 94  	bl	0x340a0 <_ZN6ChiLog9LogSystemEPKcS1_S1_S1_iS1_z@plt>
   1f054: c9 09 00 35  	cbnz	w9, 0x1f18c <_ZN9Semaphore16WaitForSemaphoreEv+0x21c>
   1f058: 12 55 00 94  	bl	0x344a0 <_ZNSt3__16chrono12steady_clock3nowEv@plt>
   1f060: 14 55 00 94  	bl	0x344b0 <_ZNSt3__16chrono12system_clock3nowEv@plt>
   1f094: 17 55 00 94  	bl	0x344f0 <_ZNSt3__118condition_variable15__do_timed_waitERNS_11unique_lockINS_5mutexEEENS_6chrono10time_pointINS5_12system_clockENS5_8durationIxNS_5ratioILl1ELl1000000000EEEEEEE@plt>
   1f098: 02 55 00 94  	bl	0x344a0 <_ZNSt3__16chrono12steady_clock3nowEv@plt>
   1f0a8: ca 02 00 54  	b.ge	0x1f100 <_ZN9Semaphore16WaitForSemaphoreEv+0x190>
   1f0ac: 28 fd 1f 36  	tbz	w8, #3, 0x1f050 <_ZN9Semaphore16WaitForSemaphoreEv+0xe0>
   1f0b0: aa 00 00 d0  	adrp	x10, 0x35000 <_ZN9Semaphore16WaitForSemaphoreEv+0x198>
   1f0c0: a1 fa ff 54  	b.ne	0x1f014 <_ZN9Semaphore16WaitForSemaphoreEv+0xa4>
   1f0d8: 61 ff ff f0  	adrp	x1, 0xe000 <_ZN9Semaphore16WaitForSemaphoreEv+0x124>
   1f0dc: 62 ff ff d0  	adrp	x2, 0xd000 <_ZN9Semaphore16WaitForSemaphoreEv+0x124>
   1f0fc: c6 ff ff 17  	b	0x1f014 <_ZN9Semaphore16WaitForSemaphoreEv+0xa4>
   1f100: 88 fa 07 36  	tbz	w8, #0, 0x1f050 <_ZN9Semaphore16WaitForSemaphoreEv+0xe0>
   1f104: ab 00 00 d0  	adrp	x11, 0x35000 <_ZN9Semaphore16WaitForSemaphoreEv+0x1ec>
   1f114: e1 01 00 54  	b.ne	0x1f150 <_ZN9Semaphore16WaitForSemaphoreEv+0x1e0>
   1f12c: 61 ff ff f0  	adrp	x1, 0xe000 <_ZN9Semaphore16WaitForSemaphoreEv+0x178>
   1f130: 62 ff ff d0  	adrp	x2, 0xd000 <_ZN9Semaphore16WaitForSemaphoreEv+0x178>
   1f164: 61 ff ff f0  	adrp	x1, 0xe000 <_ZN9Semaphore16WaitForSemaphoreEv+0x1b0>
   1f16c: 40 ff ff d0  	adrp	x0, 0x9000 <_ZN9Semaphore16WaitForSemaphoreEv+0x1a4>
   1f170: 65 ff ff f0  	adrp	x5, 0xe000 <_ZN9Semaphore16WaitForSemaphoreEv+0x1bc>
   1f188: b1 ff ff 17  	b	0x1f04c <_ZN9Semaphore16WaitForSemaphoreEv+0xdc>
   1f19c: 8a 00 00 34  	cbz	w10, 0x1f1ac <_ZN9Semaphore16WaitForSemaphoreEv+0x23c>
   1f1a8: ba 54 00 94  	bl	0x34490 <_ZNSt3__15mutex6unlockEv@plt>
   1f1b8: 21 01 00 54  	b.ne	0x1f1dc <_ZN9Semaphore16WaitForSemaphoreEv+0x26c>
000000000001f1e0 <_ZN9Semaphore7DestroyEv>:
   1f1e0: a0 01 00 b4  	cbz	x0, 0x1f214 <_ZN9Semaphore7DestroyEv+0x34>
   1f1f8: c2 54 00 94  	bl	0x34500 <_ZNSt3__118condition_variableD1Ev@plt>
   1f200: c4 54 00 94  	bl	0x34510 <_ZNSt3__15mutexD1Ev@plt>
000000000001f218 <_ZN8ChxUtils14AlignGeneric32Ejj>:
000000000001f238 <_ZN8ChxUtils17EvenCeilingUINT32Ej>:
000000000001f250 <_ZN8ChxUtils9DownscaleEjj>:
   1f254: 80 01 00 54  	b.eq	0x1f284 <_ZN8ChxUtils9DownscaleEjj+0x34>
000000000001f288 <_ZN8ChxUtils9DownscaleE12ChiDimensionj>:
   1f290: e0 02 00 54  	b.eq	0x1f2ec <_ZN8ChxUtils9DownscaleE12ChiDimensionj+0x64>
000000000001f2f8 <_ZN8ChxUtils15EvenFloorUINT32Ej>:
000000000001f300 <_ZN8ChxUtils12FEqualCoarseEff>:
   1f304: 48 ff ff d0  	adrp	x8, 0x9000 <_ZN8ChxUtils9DownscaleE12ChiDimensionj+0x24>
000000000001f320 <_ZN8ChxUtils8IsBitSetEjj>:
000000000001f330 <_ZN8ChxUtils8BitResetEjj>:
000000000001f340 <_ZN8ChxUtils6BitSetEjj>:
000000000001f350 <_ZN8ChxUtils7DPrintFEiPKcz>:
   1f3d8: a1 00 00 54  	b.ne	0x1f3ec <_ZN8ChxUtils7DPrintFEiPKcz+0x9c>
000000000001f3f0 <_ZN8ChxUtils11GetFileNameEPKc>:
000000000001f420 <_ZN8ChxUtils6MemMapEimm>:
000000000001f450 <_ZN8ChxUtils8MemUnmapEPvm>:
000000000001f458 <_ZN8ChxUtils6MemcpyEPvPKvm>:
   1f46c: b3 00 00 b4  	cbz	x19, 0x1f480 <_ZN8ChxUtils6MemcpyEPvPKvm+0x28>
   1f470: 81 00 00 b4  	cbz	x1, 0x1f480 <_ZN8ChxUtils6MemcpyEPvPKvm+0x28>
000000000001f490 <_ZN8ChxUtils6MemsetEPvim>:
000000000001f4b8 <_ZN8ChxUtils6CallocEm>:
   1f4d0: a0 00 00 b4  	cbz	x0, 0x1f4e4 <_ZN8ChxUtils6CallocEm+0x2c>
000000000001f4f8 <_ZN8ChxUtils4FreeEPv>:
000000000001f500 <_ZN8ChxUtils12ThreadCreateEPFPvS0_ES0_Pl>:
   1f55c: c0 02 00 54  	b.eq	0x1f5b4 <_ZN8ChxUtils12ThreadCreateEPFPvS0_ES0_Pl+0xb4>
   1f564: b7 20 00 94  	bl	0x27840 <_ZN8ChxUtils11GetTotalRamEv+0x240>
   1f568: 60 02 00 34  	cbz	w0, 0x1f5b4 <_ZN8ChxUtils12ThreadCreateEPFPvS0_ES0_Pl+0xb4>
   1f570: b4 20 00 94  	bl	0x27840 <_ZN8ChxUtils11GetTotalRamEv+0x240>
   1f574: 00 02 00 34  	cbz	w0, 0x1f5b4 <_ZN8ChxUtils12ThreadCreateEPFPvS0_ES0_Pl+0xb4>
   1f5dc: c1 00 00 54  	b.ne	0x1f5f4 <_ZN8ChxUtils12ThreadCreateEPFPvS0_ES0_Pl+0xf4>
000000000001f5f8 <_ZN8ChxUtils13ThreadSetNameElPKc>:
000000000001f618 <_ZN8ChxUtils15ThreadTerminateEl>:
000000000001f620 <_ZN8ChxUtils13AtomicStore64EPVll>:
000000000001f628 <_ZN8ChxUtils14AtomicStoreU64EPVmm>:
000000000001f630 <_ZN8ChxUtils13AtomicLoadU64EPVm>:
   1f63c: c9 ff ff 35  	cbnz	w9, 0x1f634 <_ZN8ChxUtils13AtomicLoadU64EPVm+0x4>
000000000001f648 <_ZN8ChxUtils14AtomicStoreU32EPVjj>:
000000000001f650 <_ZN8ChxUtils13AtomicLoadU32EPVj>:
   1f65c: c9 ff ff 35  	cbnz	w9, 0x1f654 <_ZN8ChxUtils13AtomicLoadU32EPVj+0x4>
000000000001f668 <_ZN8ChxUtils12AtomicIncU32EPVj>:
   1f674: a9 ff ff 35  	cbnz	w9, 0x1f668 <_ZN8ChxUtils12AtomicIncU32EPVj>
000000000001f680 <_ZN8ChxUtils12AtomicDecU32EPVj>:
   1f68c: aa ff ff 35  	cbnz	w10, 0x1f680 <_ZN8ChxUtils12AtomicDecU32EPVj>
000000000001f698 <_ZN8ChxUtils17SleepMicrosecondsEj>:
   1f6a4: a8 00 00 d0  	adrp	x8, 0x35000 <_ZN8ChxUtils17SleepMicrosecondsEj+0x64>
   1f6b4: 28 05 30 36  	tbz	w8, #6, 0x1f758 <_ZN8ChxUtils17SleepMicrosecondsEj+0xc0>
   1f6b8: a9 00 00 d0  	adrp	x9, 0x35000 <_ZN8ChxUtils17SleepMicrosecondsEj+0x78>
   1f6bc: 74 ff ff d0  	adrp	x20, 0xd000 <_ZN8ChxUtils12AtomicIncU32EPVj+0xc>
   1f6d0: 21 02 00 54  	b.ne	0x1f714 <_ZN8ChxUtils17SleepMicrosecondsEj+0x7c>
   1f6e8: 61 ff ff f0  	adrp	x1, 0xe000 <_ZN8ChxUtils17SleepMicrosecondsEj+0xc>
   1f6ec: 62 ff ff d0  	adrp	x2, 0xd000 <_ZN8ChxUtils17SleepMicrosecondsEj+0xc>
   1f6f0: 45 ff ff f0  	adrp	x5, 0xa000 <_ZN8ChxUtils17SleepMicrosecondsEj+0x4>
   1f728: 41 ff ff f0  	adrp	x1, 0xa000 <_ZN8ChxUtils17SleepMicrosecondsEj+0x3c>
   1f730: 60 ff ff d0  	adrp	x0, 0xd000 <_ZN8ChxUtils17SleepMicrosecondsEj+0x50>
   1f734: 43 ff ff f0  	adrp	x3, 0xa000 <_ZN8ChxUtils17SleepMicrosecondsEj+0x48>
   1f738: 65 ff ff 90  	adrp	x5, 0xb000 <_ZN8ChxUtils17SleepMicrosecondsEj+0x50>
   1f754: 53 52 00 94  	bl	0x340a0 <_ZN6ChiLog9LogSystemEPKcS1_S1_S1_iS1_z@plt>
000000000001f768 <_ZN8ChxUtils10LibGetAddrEPvPKc>:
   1f768: 40 00 00 b4  	cbz	x0, 0x1f770 <_ZN8ChxUtils10LibGetAddrEPvPKc+0x8>
000000000001f778 <_ZN8ChxUtils6LibMapEPKc>:
   1f798: 60 06 00 b5  	cbnz	x0, 0x1f864 <_ZN8ChxUtils6LibMapEPKc+0xec>
   1f79c: a8 00 00 d0  	adrp	x8, 0x35000 <_ZN8ChxUtils6LibMapEPKc+0x7c>
   1f7a8: e8 05 08 36  	tbz	w8, #1, 0x1f864 <_ZN8ChxUtils6LibMapEPKc+0xec>
   1f7ac: a9 00 00 d0  	adrp	x9, 0x35000 <_ZN8ChxUtils6LibMapEPKc+0x8c>
   1f7b0: 75 ff ff d0  	adrp	x21, 0xd000 <_ZN8ChxUtils10LibGetAddrEPvPKc>
   1f7c4: 81 02 00 54  	b.ne	0x1f814 <_ZN8ChxUtils6LibMapEPKc+0x9c>
   1f7e4: 61 ff ff f0  	adrp	x1, 0xe000 <_ZN8ChxUtils6LibMapEPKc+0x28>
   1f7e8: 62 ff ff b0  	adrp	x2, 0xc000 <_ZN8ChxUtils6LibMapEPKc+0x24>
   1f7ec: 65 ff ff b0  	adrp	x5, 0xc000 <_ZN8ChxUtils6LibMapEPKc+0x28>
   1f834: 60 ff ff d0  	adrp	x0, 0xd000 <_ZN8ChxUtils6LibMapEPKc+0x74>
   1f838: 41 ff ff f0  	adrp	x1, 0xa000 <_ZN8ChxUtils6LibMapEPKc+0x6c>
   1f83c: 63 ff ff b0  	adrp	x3, 0xc000 <_ZN8ChxUtils6LibMapEPKc+0x78>
   1f840: 65 ff ff d0  	adrp	x5, 0xd000 <_ZN8ChxUtils6LibMapEPKc+0x80>
   1f860: 10 52 00 94  	bl	0x340a0 <_ZN6ChiLog9LogSystemEPKcS1_S1_S1_iS1_z@plt>
000000000001f878 <_ZN8ChxUtils15AndroidMetadata18IsVendorTagPresentEPKv9VendorTag>:
   1f8a8: b6 52 00 94  	bl	0x34380 <_ZN15ExtensionModule11GetInstanceEv@plt>
   1f8d8: c1 00 00 54  	b.ne	0x1f8f0 <_ZN8ChxUtils15AndroidMetadata18IsVendorTagPresentEPKv9VendorTag+0x78>
000000000001f8f8 <_ZN8ChxUtils15AndroidMetadata21IsLongExposureCaptureEPKv>:
   1f92c: a0 06 00 35  	cbnz	w0, 0x1fa00 <_ZN8ChxUtils15AndroidMetadata21IsLongExposureCaptureEPKv+0x108>
   1f944: e3 05 00 54  	b.lo	0x1fa00 <_ZN8ChxUtils15AndroidMetadata21IsLongExposureCaptureEPKv+0x108>
   1f948: a9 00 00 d0  	adrp	x9, 0x35000 <_ZN8ChxUtils15AndroidMetadata21IsLongExposureCaptureEPKv+0xa8>
   1f954: 28 05 30 36  	tbz	w8, #6, 0x1f9f8 <_ZN8ChxUtils15AndroidMetadata21IsLongExposureCaptureEPKv+0x100>
   1f958: aa 00 00 d0  	adrp	x10, 0x35000 <_ZN8ChxUtils15AndroidMetadata21IsLongExposureCaptureEPKv+0xb8>
   1f95c: 74 ff ff d0  	adrp	x20, 0xd000 <_ZN8ChxUtils15AndroidMetadata21IsLongExposureCaptureEPKv+0x1c>
   1f970: 21 02 00 54  	b.ne	0x1f9b4 <_ZN8ChxUtils15AndroidMetadata21IsLongExposureCaptureEPKv+0xbc>
   1f988: 61 ff ff f0  	adrp	x1, 0xe000 <_ZN8ChxUtils15AndroidMetadata21IsLongExposureCaptureEPKv+0x4c>
   1f98c: 62 ff ff f0  	adrp	x2, 0xe000 <_ZN8ChxUtils15AndroidMetadata21IsLongExposureCaptureEPKv+0x50>
   1f990: 65 ff ff f0  	adrp	x5, 0xe000 <_ZN8ChxUtils15AndroidMetadata21IsLongExposureCaptureEPKv+0x54>
   1f9c8: 41 ff ff f0  	adrp	x1, 0xa000 <_ZN8ChxUtils15AndroidMetadata21IsLongExposureCaptureEPKv+0x7c>
   1f9d0: 60 ff ff d0  	adrp	x0, 0xd000 <_ZN8ChxUtils15AndroidMetadata21IsLongExposureCaptureEPKv+0x90>
   1f9d4: 63 ff ff f0  	adrp	x3, 0xe000 <_ZN8ChxUtils15AndroidMetadata21IsLongExposureCaptureEPKv+0x98>
   1f9d8: 65 ff ff f0  	adrp	x5, 0xe000 <_ZN8ChxUtils15AndroidMetadata21IsLongExposureCaptureEPKv+0x9c>
   1f9f4: ab 51 00 94  	bl	0x340a0 <_ZN6ChiLog9LogSystemEPKcS1_S1_S1_iS1_z@plt>
   1f9fc: 02 00 00 14  	b	0x1fa04 <_ZN8ChxUtils15AndroidMetadata21IsLongExposureCaptureEPKv+0x10c>
   1fa10: c1 00 00 54  	b.ne	0x1fa28 <_ZN8ChxUtils15AndroidMetadata21IsLongExposureCaptureEPKv+0x130>
000000000001fa30 <_ZN8ChxUtils15AndroidMetadata17GetVendorTagValueEPKv9VendorTagPPv>:
   1fa68: 46 52 00 94  	bl	0x34380 <_ZN15ExtensionModule11GetInstanceEv@plt>
   1fa84: 60 00 00 35  	cbnz	w0, 0x1fa90 <_ZN8ChxUtils15AndroidMetadata17GetVendorTagValueEPKv9VendorTagPPv+0x60>
   1fa9c: c1 00 00 54  	b.ne	0x1fab4 <_ZN8ChxUtils15AndroidMetadata17GetVendorTagValueEPKv9VendorTagPPv+0x84>
000000000001fab8 <_ZN8ChxUtils15AndroidMetadata17SetVendorTagValueEPv9VendorTagjS1_>:
   1faf4: 23 52 00 94  	bl	0x34380 <_ZN15ExtensionModule11GetInstanceEv@plt>
   1fb14: 00 02 00 34  	cbz	w0, 0x1fb54 <_ZN8ChxUtils15AndroidMetadata17SetVendorTagValueEPv9VendorTagjS1_+0x9c>
   1fb38: 61 02 00 54  	b.ne	0x1fb84 <_ZN8ChxUtils15AndroidMetadata17SetVendorTagValueEPv9VendorTagjS1_+0xcc>
   1fb80: e0 fd ff 54  	b.eq	0x1fb3c <_ZN8ChxUtils15AndroidMetadata17SetVendorTagValueEPv9VendorTagjS1_+0x84>
000000000001fb88 <_ZN8ChxUtils15AndroidMetadata13MergeMetadataEPvS1_>:
   1fbbc: 14 08 00 b4  	cbz	x20, 0x1fcbc <_ZN8ChxUtils15AndroidMetadata13MergeMetadataEPvS1_+0x134>
   1fbc4: c1 07 00 b4  	cbz	x1, 0x1fcbc <_ZN8ChxUtils15AndroidMetadata13MergeMetadataEPvS1_+0x134>
   1fbd0: 60 07 00 b4  	cbz	x0, 0x1fcbc <_ZN8ChxUtils15AndroidMetadata13MergeMetadataEPvS1_+0x134>
   1fbd4: b9 00 00 d0  	adrp	x25, 0x35000 <_ZN8ChxUtils15AndroidMetadata13MergeMetadataEPvS1_+0xa4>
   1fc14: 60 01 00 34  	cbz	w0, 0x1fc40 <_ZN8ChxUtils15AndroidMetadata13MergeMetadataEPvS1_+0xb8>
   1fc28: a0 04 00 35  	cbnz	w0, 0x1fcbc <_ZN8ChxUtils15AndroidMetadata13MergeMetadataEPvS1_+0x134>
   1fc38: 88 fd ff 54  	b.hi	0x1fbe8 <_ZN8ChxUtils15AndroidMetadata13MergeMetadataEPvS1_+0x60>
   1fc3c: 1f 00 00 14  	b	0x1fcb8 <_ZN8ChxUtils15AndroidMetadata13MergeMetadataEPvS1_+0x130>
   1fc44: 36 02 00 b4  	cbz	x22, 0x1fc88 <_ZN8ChxUtils15AndroidMetadata13MergeMetadataEPvS1_+0x100>
   1fc64: c0 01 00 35  	cbnz	w0, 0x1fc9c <_ZN8ChxUtils15AndroidMetadata13MergeMetadataEPvS1_+0x114>
   1fc70: 61 01 00 54  	b.ne	0x1fc9c <_ZN8ChxUtils15AndroidMetadata13MergeMetadataEPvS1_+0x114>
   1fc7c: 01 01 00 54  	b.ne	0x1fc9c <_ZN8ChxUtils15AndroidMetadata13MergeMetadataEPvS1_+0x114>
   1fc84: e9 ff ff 17  	b	0x1fc28 <_ZN8ChxUtils15AndroidMetadata13MergeMetadataEPvS1_+0xa0>
   1fc94: a0 fc ff 35  	cbnz	w0, 0x1fc28 <_ZN8ChxUtils15AndroidMetadata13MergeMetadataEPvS1_+0xa0>
   1fc98: e0 ff ff 17  	b	0x1fc18 <_ZN8ChxUtils15AndroidMetadata13MergeMetadataEPvS1_+0x90>
   1fcb4: dd ff ff 17  	b	0x1fc28 <_ZN8ChxUtils15AndroidMetadata13MergeMetadataEPvS1_+0xa0>
   1fcc8: 21 01 00 54  	b.ne	0x1fcec <_ZN8ChxUtils15AndroidMetadata13MergeMetadataEPvS1_+0x164>
000000000001fcf0 <_ZN8ChxUtils15AndroidMetadata12FreeMetaDataEPv>:
   1fcf0: 40 00 00 b4  	cbz	x0, 0x1fcf8 <_ZN8ChxUtils15AndroidMetadata12FreeMetaDataEPv+0x8>
000000000001fd00 <_ZN8ChxUtils15AndroidMetadata13ResetMetadataEP15camera_metadata>:
   1fd48: a8 00 00 d0  	adrp	x8, 0x35000 <_ZN8ChxUtils15AndroidMetadata13ResetMetadataEP15camera_metadata+0xa0>
   1fd58: a8 05 30 36  	tbz	w8, #6, 0x1fe0c <_ZN8ChxUtils15AndroidMetadata13ResetMetadataEP15camera_metadata+0x10c>
   1fd5c: a9 00 00 d0  	adrp	x9, 0x35000 <_ZN8ChxUtils15AndroidMetadata13ResetMetadataEP15camera_metadata+0xb4>
   1fd60: 79 ff ff d0  	adrp	x25, 0xd000 <_ZN8ChxUtils15AndroidMetadata13ResetMetadataEP15camera_metadata+0x18>
   1fd74: 61 02 00 54  	b.ne	0x1fdc0 <_ZN8ChxUtils15AndroidMetadata13ResetMetadataEP15camera_metadata+0xc0>
   1fd8c: 61 ff ff f0  	adrp	x1, 0xe000 <_ZN8ChxUtils15AndroidMetadata13ResetMetadataEP15camera_metadata+0x48>
   1fd90: 62 ff ff d0  	adrp	x2, 0xd000 <_ZN8ChxUtils15AndroidMetadata13ResetMetadataEP15camera_metadata+0x48>
   1fd94: 45 ff ff f0  	adrp	x5, 0xa000 <_ZN8ChxUtils15AndroidMetadata13ResetMetadataEP15camera_metadata+0x40>
   1fdd4: 41 ff ff f0  	adrp	x1, 0xa000 <_ZN8ChxUtils15AndroidMetadata13ResetMetadataEP15camera_metadata+0x80>
   1fddc: 60 ff ff d0  	adrp	x0, 0xd000 <_ZN8ChxUtils15AndroidMetadata13ResetMetadataEP15camera_metadata+0x94>
   1fde0: 43 ff ff f0  	adrp	x3, 0xa000 <_ZN8ChxUtils15AndroidMetadata13ResetMetadataEP15camera_metadata+0x8c>
   1fde4: 65 ff ff d0  	adrp	x5, 0xd000 <_ZN8ChxUtils15AndroidMetadata13ResetMetadataEP15camera_metadata+0x9c>
   1fe08: a6 50 00 94  	bl	0x340a0 <_ZN6ChiLog9LogSystemEPKcS1_S1_S1_iS1_z@plt>
000000000001fe38 <_ZN8ChxUtils15AndroidMetadata16AllocateMetaDataEjj>:
000000000001fe48 <_ZN8ChxUtils15AndroidMetadata22AllocateAppendMetaDataEPKvjj>:
   1fe58: 00 03 00 b4  	cbz	x0, 0x1feb8 <_ZN8ChxUtils15AndroidMetadata22AllocateAppendMetaDataEPKvjj+0x70>
   1fe88: 00 01 00 b4  	cbz	x0, 0x1fea8 <_ZN8ChxUtils15AndroidMetadata22AllocateAppendMetaDataEPKvjj+0x60>
   1fe98: 80 00 00 34  	cbz	w0, 0x1fea8 <_ZN8ChxUtils15AndroidMetadata22AllocateAppendMetaDataEPKvjj+0x60>
   1feb4: 02 00 00 14  	b	0x1febc <_ZN8ChxUtils15AndroidMetadata22AllocateAppendMetaDataEPKvjj+0x74>
000000000001fed0 <_ZN8ChxUtils15AndroidMetadata20AllocateCopyMetaDataEPKv>:
000000000001fef8 <_ZN8ChxUtils15AndroidMetadata15GetFeature1ModeEPvPj>:
   1ff28: 16 51 00 94  	bl	0x34380 <_ZN15ExtensionModule11GetInstanceEv@plt>
   1ff3c: e0 00 00 34  	cbz	w0, 0x1ff58 <_ZN8ChxUtils15AndroidMetadata15GetFeature1ModeEPvPj+0x60>
   1ff44: a9 00 00 d0  	adrp	x9, 0x35000 <_ZN8ChxUtils15AndroidMetadata15GetFeature1ModeEPvPj+0xa4>
   1ff50: 28 01 30 37  	tbnz	w8, #6, 0x1ff74 <_ZN8ChxUtils15AndroidMetadata15GetFeature1ModeEPvPj+0x7c>
   1ff54: 30 00 00 14  	b	0x20014 <_ZN8ChxUtils15AndroidMetadata15GetFeature1ModeEPvPj+0x11c>
   1ff64: a9 00 00 d0  	adrp	x9, 0x35000 <_ZN8ChxUtils15AndroidMetadata15GetFeature1ModeEPvPj+0xc4>
   1ff70: 28 05 30 36  	tbz	w8, #6, 0x20014 <_ZN8ChxUtils15AndroidMetadata15GetFeature1ModeEPvPj+0x11c>
   1ff74: aa 00 00 d0  	adrp	x10, 0x35000 <_ZN8ChxUtils15AndroidMetadata15GetFeature1ModeEPvPj+0xd4>
   1ff78: 74 ff ff d0  	adrp	x20, 0xd000 <_ZN8ChxUtils15AndroidMetadata15GetFeature1ModeEPvPj+0x38>
   1ff8c: 21 02 00 54  	b.ne	0x1ffd0 <_ZN8ChxUtils15AndroidMetadata15GetFeature1ModeEPvPj+0xd8>
   1ffa4: 61 ff ff f0  	adrp	x1, 0xe000 <_ZN8ChxUtils15AndroidMetadata15GetFeature1ModeEPvPj+0x68>
   1ffa8: 82 ff ff 90  	adrp	x2, 0xf000 <_ZN8ChxUtils15AndroidMetadata15GetFeature1ModeEPvPj+0x70>
   1ffac: 65 ff ff b0  	adrp	x5, 0xc000 <_ZN8ChxUtils15AndroidMetadata15GetFeature1ModeEPvPj+0x68>
   1ffe4: 41 ff ff f0  	adrp	x1, 0xa000 <_ZN8ChxUtils15AndroidMetadata15GetFeature1ModeEPvPj+0x98>
   1ffec: 60 ff ff d0  	adrp	x0, 0xd000 <_ZN8ChxUtils15AndroidMetadata15GetFeature1ModeEPvPj+0xac>
   1fff0: 63 ff ff b0  	adrp	x3, 0xc000 <_ZN8ChxUtils15AndroidMetadata15GetFeature1ModeEPvPj+0xac>
   1fff4: 45 ff ff f0  	adrp	x5, 0xa000 <_ZN8ChxUtils15AndroidMetadata15GetFeature1ModeEPvPj+0xa8>
   20010: 24 50 00 94  	bl	0x340a0 <_ZN6ChiLog9LogSystemEPKcS1_S1_S1_iS1_z@plt>
   20020: e1 00 00 54  	b.ne	0x2003c <_ZN8ChxUtils15AndroidMetadata15GetFeature1ModeEPvPj+0x144>
0000000000020040 <_ZN8ChxUtils15AndroidMetadata24GetMetadataOwnerCameraIdEPv>:
   20068: c6 50 00 94  	bl	0x34380 <_ZN15ExtensionModule11GetInstanceEv@plt>
   2007c: 40 01 00 34  	cbz	w0, 0x200a4 <_ZN8ChxUtils15AndroidMetadata24GetMetadataOwnerCameraIdEPv+0x64>
   20090: 61 01 00 54  	b.ne	0x200bc <_ZN8ChxUtils15AndroidMetadata24GetMetadataOwnerCameraIdEPv+0x7c>
   200b8: e0 fe ff 54  	b.eq	0x20094 <_ZN8ChxUtils15AndroidMetadata24GetMetadataOwnerCameraIdEPv+0x54>
00000000000200c0 <_ZN8ChxUtils15GetFeature2ModeEP11ChiMetadataPj>:
   200e8: a6 50 00 94  	bl	0x34380 <_ZN15ExtensionModule11GetInstanceEv@plt>
   2010c: 08 01 00 b4  	cbz	x8, 0x2012c <_ZN8ChxUtils15GetFeature2ModeEP11ChiMetadataPj+0x6c>
   20118: a9 00 00 b0  	adrp	x9, 0x35000 <_ZN8ChxUtils15GetFeature2ModeEP11ChiMetadataPj+0xac>
   20124: e8 00 30 37  	tbnz	w8, #6, 0x20140 <_ZN8ChxUtils15GetFeature2ModeEP11ChiMetadataPj+0x80>
   20128: 2e 00 00 14  	b	0x201e0 <_ZN8ChxUtils15GetFeature2ModeEP11ChiMetadataPj+0x120>
   20130: a9 00 00 b0  	adrp	x9, 0x35000 <_ZN8ChxUtils15GetFeature2ModeEP11ChiMetadataPj+0xc4>
   2013c: 28 05 30 36  	tbz	w8, #6, 0x201e0 <_ZN8ChxUtils15GetFeature2ModeEP11ChiMetadataPj+0x120>
   20140: aa 00 00 b0  	adrp	x10, 0x35000 <_ZN8ChxUtils15GetFeature2ModeEP11ChiMetadataPj+0xd4>
   20144: 74 ff ff b0  	adrp	x20, 0xd000 <_ZN8ChxUtils15GetFeature2ModeEP11ChiMetadataPj+0x38>
   20158: 21 02 00 54  	b.ne	0x2019c <_ZN8ChxUtils15GetFeature2ModeEP11ChiMetadataPj+0xdc>
   20170: 61 ff ff d0  	adrp	x1, 0xe000 <_ZN8ChxUtils15GetFeature2ModeEP11ChiMetadataPj+0x68>
   20174: 42 ff ff d0  	adrp	x2, 0xa000 <_ZN8ChxUtils15GetFeature2ModeEP11ChiMetadataPj+0x5c>
   20178: 65 ff ff 90  	adrp	x5, 0xc000 <_ZN8ChxUtils15GetFeature2ModeEP11ChiMetadataPj+0x68>
   201b0: 41 ff ff d0  	adrp	x1, 0xa000 <_ZN8ChxUtils15GetFeature2ModeEP11ChiMetadataPj+0x98>
   201b8: 60 ff ff b0  	adrp	x0, 0xd000 <_ZN8ChxUtils15GetFeature2ModeEP11ChiMetadataPj+0xac>
   201bc: 63 ff ff 90  	adrp	x3, 0xc000 <_ZN8ChxUtils15GetFeature2ModeEP11ChiMetadataPj+0xac>
   201c0: 45 ff ff f0  	adrp	x5, 0xb000 <_ZN8ChxUtils15GetFeature2ModeEP11ChiMetadataPj+0xac>
   201dc: b1 4f 00 94  	bl	0x340a0 <_ZN6ChiLog9LogSystemEPKcS1_S1_S1_iS1_z@plt>
   201ec: e1 00 00 54  	b.ne	0x20208 <_ZN8ChxUtils15GetFeature2ModeEP11ChiMetadataPj+0x148>
0000000000020210 <_ZN8ChxUtils15GetFeature2ModeEPj>:
   2021c: 63 00 00 54  	b.lo	0x20228 <_ZN8ChxUtils15GetFeature2ModeEPj+0x18>
0000000000020230 <_ZN8ChxUtils28PopulateHALToChiStreamBufferEPK21camera3_stream_bufferP15ChiStreamBufferi>:
   2025c: 49 50 00 94  	bl	0x34380 <_ZN15ExtensionModule11GetInstanceEv@plt>
   20264: 2d 00 00 94  	bl	0x20318 <_ZN8ChxUtils28PopulateHALToChiStreamBufferEPK21camera3_stream_bufferP15ChiStreamBufferi+0xe8>
   20280: 40 50 00 94  	bl	0x34380 <_ZN15ExtensionModule11GetInstanceEv@plt>
   20290: c1 00 00 54  	b.ne	0x202a8 <_ZN8ChxUtils28PopulateHALToChiStreamBufferEPK21camera3_stream_bufferP15ChiStreamBufferi+0x78>
   2029c: 6b 00 00 35  	cbnz	w11, 0x202a8 <_ZN8ChxUtils28PopulateHALToChiStreamBufferEPK21camera3_stream_bufferP15ChiStreamBufferi+0x78>
   202a4: cc 02 00 34  	cbz	w12, 0x202fc <_ZN8ChxUtils28PopulateHALToChiStreamBufferEPK21camera3_stream_bufferP15ChiStreamBufferi+0xcc>
   202c4: 80 00 00 54  	b.eq	0x202d4 <_ZN8ChxUtils28PopulateHALToChiStreamBufferEPK21camera3_stream_bufferP15ChiStreamBufferi+0xa4>
   202dc: 80 00 00 54  	b.eq	0x202ec <_ZN8ChxUtils28PopulateHALToChiStreamBufferEPK21camera3_stream_bufferP15ChiStreamBufferi+0xbc>
   202fc: 21 50 00 94  	bl	0x34380 <_ZN15ExtensionModule11GetInstanceEv@plt>
   20308: 02 51 00 94  	bl	0x34710 <_ZN15ExtensionModule18GetBufferAllocatorEP9ChiStreamPPv@plt>
   20314: e7 ff ff 17  	b	0x202b0 <_ZN8ChxUtils28PopulateHALToChiStreamBufferEPK21camera3_stream_bufferP15ChiStreamBufferi+0x80>
   20334: 58 0b 00 b4  	cbz	x24, 0x2049c <_ZN8ChxUtils28PopulateHALToChiStreamBufferEPK21camera3_stream_bufferP15ChiStreamBufferi+0x26c>
   2034c: 03 00 00 14  	b	0x20358 <_ZN8ChxUtils28PopulateHALToChiStreamBufferEPK21camera3_stream_bufferP15ChiStreamBufferi+0x128>
   20354: 48 0a 00 b4  	cbz	x8, 0x2049c <_ZN8ChxUtils28PopulateHALToChiStreamBufferEPK21camera3_stream_bufferP15ChiStreamBufferi+0x26c>
   20360: 88 ff ff 54  	b.hi	0x20350 <_ZN8ChxUtils28PopulateHALToChiStreamBufferEPK21camera3_stream_bufferP15ChiStreamBufferi+0x120>
   20364: 62 00 00 54  	b.hs	0x20370 <_ZN8ChxUtils28PopulateHALToChiStreamBufferEPK21camera3_stream_bufferP15ChiStreamBufferi+0x140>
   2036c: f9 ff ff 17  	b	0x20350 <_ZN8ChxUtils28PopulateHALToChiStreamBufferEPK21camera3_stream_bufferP15ChiStreamBufferi+0x120>
   2037c: 05 00 00 14  	b	0x20390 <_ZN8ChxUtils28PopulateHALToChiStreamBufferEPK21camera3_stream_bufferP15ChiStreamBufferi+0x160>
   20388: 29 01 00 b4  	cbz	x9, 0x203ac <_ZN8ChxUtils28PopulateHALToChiStreamBufferEPK21camera3_stream_bufferP15ChiStreamBufferi+0x17c>
   20398: 48 ff ff 54  	b.hi	0x20380 <_ZN8ChxUtils28PopulateHALToChiStreamBufferEPK21camera3_stream_bufferP15ChiStreamBufferi+0x150>
   2039c: 82 00 00 54  	b.hs	0x203ac <_ZN8ChxUtils28PopulateHALToChiStreamBufferEPK21camera3_stream_bufferP15ChiStreamBufferi+0x17c>
   203a8: 29 ff ff b5  	cbnz	x9, 0x2038c <_ZN8ChxUtils28PopulateHALToChiStreamBufferEPK21camera3_stream_bufferP15ChiStreamBufferi+0x15c>
   203b0: 75 02 00 b4  	cbz	x21, 0x203fc <_ZN8ChxUtils28PopulateHALToChiStreamBufferEPK21camera3_stream_bufferP15ChiStreamBufferi+0x1cc>
   203b8: 2e 07 00 b4  	cbz	x14, 0x2049c <_ZN8ChxUtils28PopulateHALToChiStreamBufferEPK21camera3_stream_bufferP15ChiStreamBufferi+0x26c>
   203c0: b8 03 00 b4  	cbz	x24, 0x20434 <_ZN8ChxUtils28PopulateHALToChiStreamBufferEPK21camera3_stream_bufferP15ChiStreamBufferi+0x204>
   203cc: c9 00 00 54  	b.ls	0x203e4 <_ZN8ChxUtils28PopulateHALToChiStreamBufferEPK21camera3_stream_bufferP15ChiStreamBufferi+0x1b4>
   203d4: 28 07 00 b4  	cbz	x8, 0x204b8 <_ZN8ChxUtils28PopulateHALToChiStreamBufferEPK21camera3_stream_bufferP15ChiStreamBufferi+0x288>
   203e0: f9 ff ff 17  	b	0x203c4 <_ZN8ChxUtils28PopulateHALToChiStreamBufferEPK21camera3_stream_bufferP15ChiStreamBufferi+0x194>
   203e4: c2 02 00 54  	b.hs	0x2043c <_ZN8ChxUtils28PopulateHALToChiStreamBufferEPK21camera3_stream_bufferP15ChiStreamBufferi+0x20c>
   203f0: 68 02 00 b4  	cbz	x8, 0x2043c <_ZN8ChxUtils28PopulateHALToChiStreamBufferEPK21camera3_stream_bufferP15ChiStreamBufferi+0x20c>
   203f8: f3 ff ff 17  	b	0x203c4 <_ZN8ChxUtils28PopulateHALToChiStreamBufferEPK21camera3_stream_bufferP15ChiStreamBufferi+0x194>
   20424: ca 02 00 b4  	cbz	x10, 0x2047c <_ZN8ChxUtils28PopulateHALToChiStreamBufferEPK21camera3_stream_bufferP15ChiStreamBufferi+0x24c>
   20430: 14 00 00 14  	b	0x20480 <_ZN8ChxUtils28PopulateHALToChiStreamBufferEPK21camera3_stream_bufferP15ChiStreamBufferi+0x250>
   20440: 15 05 00 b5  	cbnz	x21, 0x204e0 <_ZN8ChxUtils28PopulateHALToChiStreamBufferEPK21camera3_stream_bufferP15ChiStreamBufferi+0x2b0>
   2046c: eb 02 00 b4  	cbz	x11, 0x204c8 <_ZN8ChxUtils28PopulateHALToChiStreamBufferEPK21camera3_stream_bufferP15ChiStreamBufferi+0x298>
   20478: 15 00 00 14  	b	0x204cc <_ZN8ChxUtils28PopulateHALToChiStreamBufferEPK21camera3_stream_bufferP15ChiStreamBufferi+0x29c>
   20484: 7f 1d 00 94  	bl	0x27a80 <_ZN8ChxUtils11GetTotalRamEv+0x480>
   20498: 2e f9 ff b5  	cbnz	x14, 0x203bc <_ZN8ChxUtils28PopulateHALToChiStreamBufferEPK21camera3_stream_bufferP15ChiStreamBufferi+0x18c>
   204c0: 15 01 00 b5  	cbnz	x21, 0x204e0 <_ZN8ChxUtils28PopulateHALToChiStreamBufferEPK21camera3_stream_bufferP15ChiStreamBufferi+0x2b0>
   204c4: e0 ff ff 17  	b	0x20444 <_ZN8ChxUtils28PopulateHALToChiStreamBufferEPK21camera3_stream_bufferP15ChiStreamBufferi+0x214>
   204d0: 6c 1d 00 94  	bl	0x27a80 <_ZN8ChxUtils11GetTotalRamEv+0x480>
   204e8: ee ff ff 17  	b	0x204a0 <_ZN8ChxUtils28PopulateHALToChiStreamBufferEPK21camera3_stream_bufferP15ChiStreamBufferi+0x270>
00000000000204f0 <_ZN8ChxUtils28PopulateChiToHALStreamBufferEPK15ChiStreamBufferP21camera3_stream_bufferi>:
   2050c: c1 04 00 54  	b.ne	0x205a4 <_ZN8ChxUtils28PopulateChiToHALStreamBufferEPK15ChiStreamBufferP21camera3_stream_bufferi+0xb4>
   2051c: c3 00 00 54  	b.lo	0x20534 <_ZN8ChxUtils28PopulateChiToHALStreamBufferEPK15ChiStreamBufferP21camera3_stream_bufferi+0x44>
   20524: 97 4f 00 94  	bl	0x34380 <_ZN15ExtensionModule11GetInstanceEv@plt>
   2052c: 7b ff ff 97  	bl	0x20318 <_ZN8ChxUtils28PopulateHALToChiStreamBufferEPK21camera3_stream_bufferP15ChiStreamBufferi+0xe8>
   20530: 60 0a 00 34  	cbz	w0, 0x2067c <_ZN8ChxUtils28PopulateChiToHALStreamBufferEPK15ChiStreamBufferP21camera3_stream_bufferi+0x18c>
   20558: 01 01 00 54  	b.ne	0x20578 <_ZN8ChxUtils28PopulateChiToHALStreamBufferEPK15ChiStreamBufferP21camera3_stream_bufferi+0x88>
   20564: a1 00 00 54  	b.ne	0x20578 <_ZN8ChxUtils28PopulateChiToHALStreamBufferEPK15ChiStreamBufferP21camera3_stream_bufferi+0x88>
   20570: 40 00 00 54  	b.eq	0x20578 <_ZN8ChxUtils28PopulateChiToHALStreamBufferEPK15ChiStreamBufferP21camera3_stream_bufferi+0x88>
   20580: a1 01 00 54  	b.ne	0x205b4 <_ZN8ChxUtils28PopulateChiToHALStreamBufferEPK15ChiStreamBufferP21camera3_stream_bufferi+0xc4>
   2058c: 41 01 00 54  	b.ne	0x205b4 <_ZN8ChxUtils28PopulateChiToHALStreamBufferEPK15ChiStreamBufferP21camera3_stream_bufferi+0xc4>
   20598: e0 00 00 54  	b.eq	0x205b4 <_ZN8ChxUtils28PopulateChiToHALStreamBufferEPK15ChiStreamBufferP21camera3_stream_bufferi+0xc4>
   205a0: 05 00 00 14  	b	0x205b4 <_ZN8ChxUtils28PopulateChiToHALStreamBufferEPK15ChiStreamBufferP21camera3_stream_bufferi+0xc4>
   205a4: a8 00 00 b0  	adrp	x8, 0x35000 <_ZN8ChxUtils28PopulateChiToHALStreamBufferEPK15ChiStreamBufferP21camera3_stream_bufferi+0x108>
   205b0: a8 00 00 37  	tbnz	w8, #0, 0x205c4 <_ZN8ChxUtils28PopulateChiToHALStreamBufferEPK15ChiStreamBufferP21camera3_stream_bufferi+0xd4>
   205c4: a9 00 00 b0  	adrp	x9, 0x35000 <_ZN8ChxUtils28PopulateChiToHALStreamBufferEPK15ChiStreamBufferP21camera3_stream_bufferi+0x128>
   205c8: 74 ff ff b0  	adrp	x20, 0xd000 <_ZN8ChxUtils28PopulateChiToHALStreamBufferEPK15ChiStreamBufferP21camera3_stream_bufferi+0x8c>
   205dc: 41 02 00 54  	b.ne	0x20624 <_ZN8ChxUtils28PopulateChiToHALStreamBufferEPK15ChiStreamBufferP21camera3_stream_bufferi+0x134>
   205f8: 61 ff ff d0  	adrp	x1, 0xe000 <_ZN8ChxUtils28PopulateChiToHALStreamBufferEPK15ChiStreamBufferP21camera3_stream_bufferi+0xc0>
   205fc: 62 ff ff b0  	adrp	x2, 0xd000 <_ZN8ChxUtils28PopulateChiToHALStreamBufferEPK15ChiStreamBufferP21camera3_stream_bufferi+0xc0>
   20600: 65 ff ff b0  	adrp	x5, 0xd000 <_ZN8ChxUtils28PopulateChiToHALStreamBufferEPK15ChiStreamBufferP21camera3_stream_bufferi+0xc4>
   20648: 48 ff ff b0  	adrp	x8, 0x9000 <_ZN8ChxUtils28PopulateChiToHALStreamBufferEPK15ChiStreamBufferP21camera3_stream_bufferi+0xfc>
   2064c: 61 ff ff d0  	adrp	x1, 0xe000 <_ZN8ChxUtils28PopulateChiToHALStreamBufferEPK15ChiStreamBufferP21camera3_stream_bufferi+0x114>
   20654: 63 ff ff b0  	adrp	x3, 0xd000 <_ZN8ChxUtils28PopulateChiToHALStreamBufferEPK15ChiStreamBufferP21camera3_stream_bufferi+0x118>
   20658: 45 ff ff f0  	adrp	x5, 0xb000 <_ZN8ChxUtils28PopulateChiToHALStreamBufferEPK15ChiStreamBufferP21camera3_stream_bufferi+0x114>
   20678: 8a 4e 00 14  	b	0x340a0 <_ZN6ChiLog9LogSystemEPKcS1_S1_S1_iS1_z@plt>
   2067c: aa 00 00 b0  	adrp	x10, 0x35000 <_ZN8ChxUtils28PopulateChiToHALStreamBufferEPK15ChiStreamBufferP21camera3_stream_bufferi+0x1e0>
   20688: 69 f9 07 36  	tbz	w9, #0, 0x205b4 <_ZN8ChxUtils28PopulateChiToHALStreamBufferEPK15ChiStreamBufferP21camera3_stream_bufferi+0xc4>
   2068c: ab 00 00 b0  	adrp	x11, 0x35000 <_ZN8ChxUtils28PopulateChiToHALStreamBufferEPK15ChiStreamBufferP21camera3_stream_bufferi+0x1f0>
   2069c: 61 02 00 54  	b.ne	0x206e8 <_ZN8ChxUtils28PopulateChiToHALStreamBufferEPK15ChiStreamBufferP21camera3_stream_bufferi+0x1f8>
   206a0: 74 ff ff b0  	adrp	x20, 0xd000 <_ZN8ChxUtils28PopulateChiToHALStreamBufferEPK15ChiStreamBufferP21camera3_stream_bufferi+0x164>
   206c0: 61 ff ff d0  	adrp	x1, 0xe000 <_ZN8ChxUtils28PopulateChiToHALStreamBufferEPK15ChiStreamBufferP21camera3_stream_bufferi+0x188>
   206c4: 62 ff ff 90  	adrp	x2, 0xc000 <_ZN8ChxUtils28PopulateChiToHALStreamBufferEPK15ChiStreamBufferP21camera3_stream_bufferi+0x184>
   206c8: 65 ff ff b0  	adrp	x5, 0xd000 <_ZN8ChxUtils28PopulateChiToHALStreamBufferEPK15ChiStreamBufferP21camera3_stream_bufferi+0x18c>
   206e8: 74 ff ff b0  	adrp	x20, 0xd000 <_ZN8ChxUtils28PopulateChiToHALStreamBufferEPK15ChiStreamBufferP21camera3_stream_bufferi+0x1ac>
   20714: 49 ff ff b0  	adrp	x9, 0x9000 <_ZN8ChxUtils28PopulateChiToHALStreamBufferEPK15ChiStreamBufferP21camera3_stream_bufferi+0x1c8>
   20718: 61 ff ff d0  	adrp	x1, 0xe000 <_ZN8ChxUtils28PopulateChiToHALStreamBufferEPK15ChiStreamBufferP21camera3_stream_bufferi+0x1e0>
   20720: 63 ff ff b0  	adrp	x3, 0xd000 <_ZN8ChxUtils28PopulateChiToHALStreamBufferEPK15ChiStreamBufferP21camera3_stream_bufferi+0x1e4>
   20724: 45 ff ff d0  	adrp	x5, 0xa000 <_ZN8ChxUtils28PopulateChiToHALStreamBufferEPK15ChiStreamBufferP21camera3_stream_bufferi+0x1dc>
   20740: 58 4e 00 14  	b	0x340a0 <_ZN6ChiLog9LogSystemEPKcS1_S1_S1_iS1_z@plt>
0000000000020748 <_ZN8ChxUtils29DeepCopyCamera3CaptureRequestEPK23camera3_capture_requestPS0_>:
   20764: a9 03 00 34  	cbz	w9, 0x207d8 <_ZN8ChxUtils29DeepCopyCamera3CaptureRequestEPK23camera3_capture_requestPS0_+0x90>
   20774: 83 01 00 54  	b.lo	0x207a4 <_ZN8ChxUtils29DeepCopyCamera3CaptureRequestEPK23camera3_capture_requestPS0_+0x5c>
   2078c: 89 02 00 54  	b.ls	0x207dc <_ZN8ChxUtils29DeepCopyCamera3CaptureRequestEPK23camera3_capture_requestPS0_+0x94>
   207a0: e9 01 00 54  	b.ls	0x207dc <_ZN8ChxUtils29DeepCopyCamera3CaptureRequestEPK23camera3_capture_requestPS0_+0x94>
   207d4: c1 fe ff 54  	b.ne	0x207ac <_ZN8ChxUtils29DeepCopyCamera3CaptureRequestEPK23camera3_capture_requestPS0_+0x64>
   20860: 81 fc ff 54  	b.ne	0x207f0 <_ZN8ChxUtils29DeepCopyCamera3CaptureRequestEPK23camera3_capture_requestPS0_+0xa8>
   20864: ac fb ff b4  	cbz	x12, 0x207d8 <_ZN8ChxUtils29DeepCopyCamera3CaptureRequestEPK23camera3_capture_requestPS0_+0x90>
   2086c: 60 02 00 54  	b.eq	0x208b8 <_ZN8ChxUtils29DeepCopyCamera3CaptureRequestEPK23camera3_capture_requestPS0_+0x170>
   208b4: 2a f9 ff 54  	b.ge	0x207d8 <_ZN8ChxUtils29DeepCopyCamera3CaptureRequestEPK23camera3_capture_requestPS0_+0x90>
00000000000208e0 <_ZN8ChxUtils14GetUsecaseModeEP23camera3_capture_request>:
   208fc: a1 4e 00 94  	bl	0x34380 <_ZN15ExtensionModule11GetInstanceEv@plt>
   20908: 9e 4e 00 94  	bl	0x34380 <_ZN15ExtensionModule11GetInstanceEv@plt>
   20918: e9 05 00 34  	cbz	w9, 0x209d4 <_ZN8ChxUtils14GetUsecaseModeEP23camera3_capture_request+0xf4>
   20930: 0c 00 00 14  	b	0x20960 <_ZN8ChxUtils14GetUsecaseModeEP23camera3_capture_request+0x80>
   20940: 78 4f 00 94  	bl	0x34720 <_ZN15UsecaseSelector19IsYUVSnapshotStreamEPK14camera3_stream@plt>
   2095c: 22 03 00 54  	b.hs	0x209c0 <_ZN8ChxUtils14GetUsecaseModeEP23camera3_capture_request+0xe0>
   20968: 72 4f 00 94  	bl	0x34730 <_ZN15UsecaseSelector13IsVideoStreamEPK14camera3_stream@plt>
   2096c: 40 fe ff 35  	cbnz	w0, 0x20934 <_ZN8ChxUtils14GetUsecaseModeEP23camera3_capture_request+0x54>
   20978: 6a 4f 00 94  	bl	0x34720 <_ZN15UsecaseSelector19IsYUVSnapshotStreamEPK14camera3_stream@plt>
   2097c: 20 01 00 35  	cbnz	w0, 0x209a0 <_ZN8ChxUtils14GetUsecaseModeEP23camera3_capture_request+0xc0>
   20988: 6e 4f 00 94  	bl	0x34740 <_ZN15UsecaseSelector20IsJPEGSnapshotStreamEPK14camera3_stream@plt>
   2098c: a0 00 00 35  	cbnz	w0, 0x209a0 <_ZN8ChxUtils14GetUsecaseModeEP23camera3_capture_request+0xc0>
   20998: 6e 4f 00 94  	bl	0x34750 <_ZN15UsecaseSelector20IsHeicSnapshotStreamEPK14camera3_stream@plt>
   2099c: 60 00 00 34  	cbz	w0, 0x209a8 <_ZN8ChxUtils14GetUsecaseModeEP23camera3_capture_request+0xc8>
   209a4: e5 ff ff 17  	b	0x20938 <_ZN8ChxUtils14GetUsecaseModeEP23camera3_capture_request+0x58>
   209b0: 6c 4f 00 94  	bl	0x34760 <_ZN15UsecaseSelector15IsPreviewStreamEPK14camera3_stream@plt>
   209bc: df ff ff 17  	b	0x20938 <_ZN8ChxUtils14GetUsecaseModeEP23camera3_capture_request+0x58>
   209c8: e1 00 00 54  	b.ne	0x209e4 <_ZN8ChxUtils14GetUsecaseModeEP23camera3_capture_request+0x104>
   209d0: 0b 00 00 14  	b	0x209fc <_ZN8ChxUtils14GetUsecaseModeEP23camera3_capture_request+0x11c>
   209e0: 05 00 00 14  	b	0x209f4 <_ZN8ChxUtils14GetUsecaseModeEP23camera3_capture_request+0x114>
   209f0: 68 00 00 35  	cbnz	w8, 0x209fc <_ZN8ChxUtils14GetUsecaseModeEP23camera3_capture_request+0x11c>
   209fc: af 00 00 b0  	adrp	x15, 0x35000 <_ZN8ChxUtils14GetUsecaseModeEP23camera3_capture_request+0x170>
   20a08: 6b 05 28 36  	tbz	w11, #5, 0x20ab4 <_ZN8ChxUtils14GetUsecaseModeEP23camera3_capture_request+0x1d4>
   20a0c: b0 00 00 b0  	adrp	x16, 0x35000 <_ZN8ChxUtils14GetUsecaseModeEP23camera3_capture_request+0x180>
   20a10: 75 ff ff b0  	adrp	x21, 0xd000 <_ZN8ChxUtils14GetUsecaseModeEP23camera3_capture_request+0xe4>
   20a24: 41 02 00 54  	b.ne	0x20a6c <_ZN8ChxUtils14GetUsecaseModeEP23camera3_capture_request+0x18c>
   20a3c: 61 ff ff d0  	adrp	x1, 0xe000 <_ZN8ChxUtils14GetUsecaseModeEP23camera3_capture_request+0x114>
   20a40: 62 ff ff f0  	adrp	x2, 0xf000 <_ZN8ChxUtils14GetUsecaseModeEP23camera3_capture_request+0x11c>
   20a44: 65 ff ff b0  	adrp	x5, 0xd000 <_ZN8ChxUtils14GetUsecaseModeEP23camera3_capture_request+0x118>
   20a80: 61 ff ff 90  	adrp	x1, 0xc000 <_ZN8ChxUtils14GetUsecaseModeEP23camera3_capture_request+0x150>
   20a88: 60 ff ff d0  	adrp	x0, 0xe000 <_ZN8ChxUtils14GetUsecaseModeEP23camera3_capture_request+0x160>
   20a8c: 63 ff ff b0  	adrp	x3, 0xd000 <_ZN8ChxUtils14GetUsecaseModeEP23camera3_capture_request+0x160>
   20a90: 45 ff ff b0  	adrp	x5, 0x9000 <_ZN8ChxUtils14GetUsecaseModeEP23camera3_capture_request+0x154>
   20ab0: 7c 4d 00 94  	bl	0x340a0 <_ZN6ChiLog9LogSystemEPKcS1_S1_S1_iS1_z@plt>
   20ac4: 2f 4e 00 94  	bl	0x34380 <_ZN15ExtensionModule11GetInstanceEv@plt>
0000000000020af0 <_ZN8ChxUtils9SkipFrameEP21camera3_stream_buffer>:
0000000000020b00 <_ZN8ChxUtils15AndroidMetadata12GetSceneModeEPvPj>:
   20b40: 60 01 00 35  	cbnz	w0, 0x20b6c <_ZN8ChxUtils15AndroidMetadata12GetSceneModeEPvPj+0x6c>
   20b50: e1 00 00 54  	b.ne	0x20b6c <_ZN8ChxUtils15AndroidMetadata12GetSceneModeEPvPj+0x6c>
   20b68: e0 01 00 34  	cbz	w0, 0x20ba4 <_ZN8ChxUtils15AndroidMetadata12GetSceneModeEPvPj+0xa4>
   20b7c: 21 02 00 54  	b.ne	0x20bc0 <_ZN8ChxUtils15AndroidMetadata12GetSceneModeEPvPj+0xc0>
   20b80: 6a ff ff f0  	adrp	x10, 0xf000 <_ZN8ChxUtils15AndroidMetadata12GetSceneModeEPvPj+0x3c>
   20bbc: 20 fe ff 54  	b.eq	0x20b80 <_ZN8ChxUtils15AndroidMetadata12GetSceneModeEPvPj+0x80>
0000000000020bc8 <_ZN8ChxUtils17GetVendorTagValueEP11ChiMetadata9VendorTagPPv>:
   20bf8: e2 4d 00 94  	bl	0x34380 <_ZN15ExtensionModule11GetInstanceEv@plt>
   20c2c: aa 00 00 b5  	cbnz	x10, 0x20c40 <_ZN8ChxUtils17GetVendorTagValueEP11ChiMetadata9VendorTagPPv+0x78>
   20c30: a9 00 00 b0  	adrp	x9, 0x35000 <_ZN8ChxUtils17GetVendorTagValueEP11ChiMetadata9VendorTagPPv+0xbc>
   20c3c: 49 01 30 37  	tbnz	w9, #6, 0x20c64 <_ZN8ChxUtils17GetVendorTagValueEP11ChiMetadata9VendorTagPPv+0x9c>
   20c4c: 41 06 00 54  	b.ne	0x20d14 <_ZN8ChxUtils17GetVendorTagValueEP11ChiMetadata9VendorTagPPv+0x14c>
   20c64: aa 00 00 b0  	adrp	x10, 0x35000 <_ZN8ChxUtils17GetVendorTagValueEP11ChiMetadata9VendorTagPPv+0xf0>
   20c68: 74 ff ff b0  	adrp	x20, 0xd000 <_ZN8ChxUtils17GetVendorTagValueEP11ChiMetadata9VendorTagPPv+0x54>
   20c7c: 21 02 00 54  	b.ne	0x20cc0 <_ZN8ChxUtils17GetVendorTagValueEP11ChiMetadata9VendorTagPPv+0xf8>
   20c94: 61 ff ff d0  	adrp	x1, 0xe000 <_ZN8ChxUtils17GetVendorTagValueEP11ChiMetadata9VendorTagPPv+0x84>
   20c98: 62 ff ff d0  	adrp	x2, 0xe000 <_ZN8ChxUtils17GetVendorTagValueEP11ChiMetadata9VendorTagPPv+0x88>
   20c9c: 45 ff ff f0  	adrp	x5, 0xb000 <_ZN8ChxUtils17GetVendorTagValueEP11ChiMetadata9VendorTagPPv+0x80>
   20cd4: 41 ff ff d0  	adrp	x1, 0xa000 <_ZN8ChxUtils17GetVendorTagValueEP11ChiMetadata9VendorTagPPv+0xb4>
   20cdc: 60 ff ff b0  	adrp	x0, 0xd000 <_ZN8ChxUtils17GetVendorTagValueEP11ChiMetadata9VendorTagPPv+0xc8>
   20ce0: 43 ff ff f0  	adrp	x3, 0xb000 <_ZN8ChxUtils17GetVendorTagValueEP11ChiMetadata9VendorTagPPv+0xc4>
   20ce4: 45 ff ff d0  	adrp	x5, 0xa000 <_ZN8ChxUtils17GetVendorTagValueEP11ChiMetadata9VendorTagPPv+0xc4>
   20d00: e8 4c 00 94  	bl	0x340a0 <_ZN6ChiLog9LogSystemEPKcS1_S1_S1_iS1_z@plt>
   20d10: 00 fa ff 54  	b.eq	0x20c50 <_ZN8ChxUtils17GetVendorTagValueEP11ChiMetadata9VendorTagPPv+0x88>
0000000000020d18 <_ZN8ChxUtils15AndroidMetadata13GetEffectModeEPvPj>:
   20d50: c0 01 00 34  	cbz	w0, 0x20d88 <_ZN8ChxUtils15AndroidMetadata13GetEffectModeEPvPj+0x70>
   20d64: 01 02 00 54  	b.ne	0x20da4 <_ZN8ChxUtils15AndroidMetadata13GetEffectModeEPvPj+0x8c>
   20d68: 69 ff ff f0  	adrp	x9, 0xf000 <_ZN8ChxUtils15AndroidMetadata13GetEffectModeEPvPj+0xc>
   20da0: 40 fe ff 54  	b.eq	0x20d68 <_ZN8ChxUtils15AndroidMetadata13GetEffectModeEPvPj+0x50>
0000000000020da8 <_ZN8ChxUtils15NativeFenceWaitEij>:
   20dc8: 80 07 00 34  	cbz	w0, 0x20eb8 <_ZN8ChxUtils15NativeFenceWaitEij+0x110>
   20dcc: a8 00 00 b0  	adrp	x8, 0x35000 <_ZN8ChxUtils15NativeFenceWaitEij+0x78>
   20dd8: e8 06 00 36  	tbz	w8, #0, 0x20eb4 <_ZN8ChxUtils15NativeFenceWaitEij+0x10c>
   20ddc: a9 00 00 b0  	adrp	x9, 0x35000 <_ZN8ChxUtils15NativeFenceWaitEij+0x88>
   20de0: 75 ff ff b0  	adrp	x21, 0xd000 <_ZN8ChxUtils15AndroidMetadata13GetEffectModeEPvPj+0x7c>
   20df4: 01 03 00 54  	b.ne	0x20e54 <_ZN8ChxUtils15NativeFenceWaitEij+0xac>
   20e1c: 61 ff ff d0  	adrp	x1, 0xe000 <_ZN8ChxUtils15NativeFenceWaitEij+0x2c>
   20e20: 62 ff ff 90  	adrp	x2, 0xc000 <_ZN8ChxUtils15NativeFenceWaitEij+0x28>
   20e24: 45 ff ff d0  	adrp	x5, 0xa000 <_ZN8ChxUtils15NativeFenceWaitEij+0x24>
   20e7c: 40 ff ff b0  	adrp	x0, 0x9000 <_ZN8ChxUtils15NativeFenceWaitEij+0x78>
   20e80: 61 ff ff d0  	adrp	x1, 0xe000 <_ZN8ChxUtils15NativeFenceWaitEij+0x90>
   20e84: 43 ff ff d0  	adrp	x3, 0xa000 <_ZN8ChxUtils15NativeFenceWaitEij+0x84>
   20e88: 65 ff ff 90  	adrp	x5, 0xc000 <_ZN8ChxUtils15NativeFenceWaitEij+0x90>
   20eb0: 7c 4c 00 94  	bl	0x340a0 <_ZN6ChiLog9LogSystemEPKcS1_S1_S1_iS1_z@plt>
0000000000020ed0 <_ZN8ChxUtils5CloseEi>:
   20ed4: 00 01 00 54  	b.eq	0x20ef4 <_ZN8ChxUtils5CloseEi+0x24>
0000000000020f00 <_ZN8ChxUtils9ReadSocIDEv>:
   20f18: 73 ff ff b0  	adrp	x19, 0xd000 <_ZN8ChxUtils15NativeFenceWaitEij+0x124>
   20f34: 69 ff ff d0  	adrp	x9, 0xe000 <_ZN8ChxUtils5CloseEi+0x1c>
   20f50: a0 01 00 54  	b.eq	0x20f84 <_ZN8ChxUtils9ReadSocIDEv+0x84>
   20f80: 03 00 00 14  	b	0x20f8c <_ZN8ChxUtils9ReadSocIDEv+0x8c>
   20f9c: e1 00 00 54  	b.ne	0x20fb8 <_ZN8ChxUtils9ReadSocIDEv+0xb8>
0000000000020fc0 <_ZN8ChxUtils10GetDDRRankEv>:
   20fd8: 40 ff ff b0  	adrp	x0, 0x9000 <_ZN8ChxUtils9ReadSocIDEv+0x7c>
   20ff4: 80 01 00 54  	b.eq	0x21024 <_ZN8ChxUtils10GetDDRRankEv+0x64>
   21010: 00 01 00 54  	b.eq	0x21030 <_ZN8ChxUtils10GetDDRRankEv+0x70>
   21020: 30 00 00 14  	b	0x210e0 <_ZN8ChxUtils10GetDDRRankEv+0x120>
   2102c: 2d 00 00 14  	b	0x210e0 <_ZN8ChxUtils10GetDDRRankEv+0x120>
   21030: a8 00 00 90  	adrp	x8, 0x35000 <_ZN8ChxUtils10GetDDRRankEv+0xc0>
   2103c: e8 04 00 36  	tbz	w8, #0, 0x210d8 <_ZN8ChxUtils10GetDDRRankEv+0x118>
   21040: a9 00 00 90  	adrp	x9, 0x35000 <_ZN8ChxUtils10GetDDRRankEv+0xd0>
   21044: 74 ff ff 90  	adrp	x20, 0xd000 <_ZN8ChxUtils10GetDDRRankEv+0x34>
   21058: 01 02 00 54  	b.ne	0x21098 <_ZN8ChxUtils10GetDDRRankEv+0xd8>
   21070: 61 ff ff b0  	adrp	x1, 0xe000 <_ZN8ChxUtils10GetDDRRankEv+0x64>
   21074: 62 ff ff 90  	adrp	x2, 0xd000 <_ZN8ChxUtils10GetDDRRankEv+0x64>
   21078: 65 ff ff b0  	adrp	x5, 0xe000 <_ZN8ChxUtils10GetDDRRankEv+0x6c>
   210ac: 61 ff ff b0  	adrp	x1, 0xe000 <_ZN8ChxUtils10GetDDRRankEv+0xa0>
   210b4: 40 ff ff 90  	adrp	x0, 0x9000 <_ZN8ChxUtils10GetDDRRankEv+0x94>
   210b8: 63 ff ff b0  	adrp	x3, 0xe000 <_ZN8ChxUtils10GetDDRRankEv+0xac>
   210bc: 65 ff ff 90  	adrp	x5, 0xd000 <_ZN8ChxUtils10GetDDRRankEv+0xac>
   210d4: f3 4b 00 94  	bl	0x340a0 <_ZN6ChiLog9LogSystemEPKcS1_S1_S1_iS1_z@plt>
   210f0: e1 00 00 54  	b.ne	0x2110c <_ZN8ChxUtils10GetDDRRankEv+0x14c>
0000000000021110 <_ZN8ChxUtils10GetDDRTypeEv>:
   21128: 40 ff ff d0  	adrp	x0, 0xb000 <_ZN8ChxUtils10GetDDRRankEv+0x110>
   21144: 80 06 00 54  	b.eq	0x21214 <_ZN8ChxUtils10GetDDRTypeEv+0x104>
   2115c: 20 06 00 b4  	cbz	x0, 0x21220 <_ZN8ChxUtils10GetDDRTypeEv+0x110>
   21160: a8 00 00 90  	adrp	x8, 0x35000 <_ZN8ChxUtils10GetDDRTypeEv+0xa0>
   2116c: e8 04 00 36  	tbz	w8, #0, 0x21208 <_ZN8ChxUtils10GetDDRTypeEv+0xf8>
   21170: a9 00 00 90  	adrp	x9, 0x35000 <_ZN8ChxUtils10GetDDRTypeEv+0xb0>
   21174: 74 ff ff 90  	adrp	x20, 0xd000 <_ZN8ChxUtils10GetDDRTypeEv+0x14>
   21188: 01 02 00 54  	b.ne	0x211c8 <_ZN8ChxUtils10GetDDRTypeEv+0xb8>
   211a0: 61 ff ff b0  	adrp	x1, 0xe000 <_ZN8ChxUtils10GetDDRTypeEv+0x44>
   211a4: 62 ff ff 90  	adrp	x2, 0xd000 <_ZN8ChxUtils10GetDDRTypeEv+0x44>
   211a8: 45 ff ff d0  	adrp	x5, 0xb000 <_ZN8ChxUtils10GetDDRTypeEv+0x40>
   211dc: 61 ff ff b0  	adrp	x1, 0xe000 <_ZN8ChxUtils10GetDDRTypeEv+0x80>
   211e4: 40 ff ff 90  	adrp	x0, 0x9000 <_ZN8ChxUtils10GetDDRTypeEv+0x74>
   211e8: 43 ff ff d0  	adrp	x3, 0xb000 <_ZN8ChxUtils10GetDDRTypeEv+0x80>
   211ec: 65 ff ff 90  	adrp	x5, 0xd000 <_ZN8ChxUtils10GetDDRTypeEv+0x8c>
   21204: a7 4b 00 94  	bl	0x340a0 <_ZN6ChiLog9LogSystemEPKcS1_S1_S1_iS1_z@plt>
   21210: 07 00 00 14  	b	0x2122c <_ZN8ChxUtils10GetDDRTypeEv+0x11c>
   2121c: 04 00 00 14  	b	0x2122c <_ZN8ChxUtils10GetDDRTypeEv+0x11c>
   2123c: e1 00 00 54  	b.ne	0x21258 <_ZN8ChxUtils10GetDDRTypeEv+0x148>
0000000000021260 <_ZN8ChxUtils11Is32bitModeEv>:
   212c8: 60 01 00 34  	cbz	w0, 0x212f4 <_ZN8ChxUtils11Is32bitModeEv+0x94>
   212dc: 21 0a 00 54  	b.ne	0x21420 <_ZN8ChxUtils11Is32bitModeEv+0x1c0>
   212f4: a8 00 00 90  	adrp	x8, 0x35000 <_ZN8ChxUtils11Is32bitModeEv+0xe4>
   21300: e8 06 28 36  	tbz	w8, #5, 0x213dc <_ZN8ChxUtils11Is32bitModeEv+0x17c>
   21304: a9 00 00 90  	adrp	x9, 0x35000 <_ZN8ChxUtils11Is32bitModeEv+0xf4>
   21308: 73 ff ff 90  	adrp	x19, 0xd000 <_ZN8ChxUtils11Is32bitModeEv+0x58>
   2131c: 01 03 00 54  	b.ne	0x2137c <_ZN8ChxUtils11Is32bitModeEv+0x11c>
   21338: 61 ff ff b0  	adrp	x1, 0xe000 <_ZN8ChxUtils11Is32bitModeEv+0x8c>
   2133c: 42 ff ff f0  	adrp	x2, 0xc000 <_ZN8ChxUtils11Is32bitModeEv+0x88>
   21340: 65 ff ff b0  	adrp	x5, 0xe000 <_ZN8ChxUtils11Is32bitModeEv+0x94>
   21398: 60 ff ff b0  	adrp	x0, 0xe000 <_ZN8ChxUtils11Is32bitModeEv+0xec>
   2139c: 41 ff ff f0  	adrp	x1, 0xc000 <_ZN8ChxUtils11Is32bitModeEv+0xe8>
   213a0: 63 ff ff b0  	adrp	x3, 0xe000 <_ZN8ChxUtils11Is32bitModeEv+0xf4>
   213a4: 65 ff ff d0  	adrp	x5, 0xf000 <_ZN8ChxUtils11Is32bitModeEv+0xfc>
   213d8: 32 4b 00 94  	bl	0x340a0 <_ZN6ChiLog9LogSystemEPKcS1_S1_S1_iS1_z@plt>
   2141c: 20 f6 ff 54  	b.eq	0x212e0 <_ZN8ChxUtils11Is32bitModeEv+0x80>
0000000000021428 <_ZN8ChxUtils18WaitOnAcquireFenceEPK15ChiStreamBuffer>:
   21440: 01 0c 00 54  	b.ne	0x215c0 <_ZN8ChxUtils18WaitOnAcquireFenceEPK15ChiStreamBuffer+0x198>
   2144c: a1 0b 00 54  	b.ne	0x215c0 <_ZN8ChxUtils18WaitOnAcquireFenceEPK15ChiStreamBuffer+0x198>
   21458: 40 0b 00 54  	b.eq	0x215c0 <_ZN8ChxUtils18WaitOnAcquireFenceEPK15ChiStreamBuffer+0x198>
   2145c: b5 00 00 90  	adrp	x21, 0x35000 <_ZN8ChxUtils18WaitOnAcquireFenceEPK15ChiStreamBuffer+0x84>
   21460: b6 00 00 90  	adrp	x22, 0x35000 <_ZN8ChxUtils18WaitOnAcquireFenceEPK15ChiStreamBuffer+0x88>
   21464: 74 ff ff 90  	adrp	x20, 0xd000 <_ZN8ChxUtils11Is32bitModeEv+0x1b4>
   21478: a8 04 30 36  	tbz	w8, #6, 0x2150c <_ZN8ChxUtils18WaitOnAcquireFenceEPK15ChiStreamBuffer+0xe4>
   21484: 21 02 00 54  	b.ne	0x214c8 <_ZN8ChxUtils18WaitOnAcquireFenceEPK15ChiStreamBuffer+0xa0>
   2149c: 61 ff ff b0  	adrp	x1, 0xe000 <_ZN8ChxUtils18WaitOnAcquireFenceEPK15ChiStreamBuffer+0x28>
   214a0: 62 ff ff b0  	adrp	x2, 0xe000 <_ZN8ChxUtils18WaitOnAcquireFenceEPK15ChiStreamBuffer+0x2c>
   214a4: 45 ff ff f0  	adrp	x5, 0xc000 <_ZN8ChxUtils18WaitOnAcquireFenceEPK15ChiStreamBuffer+0x28>
   214dc: 41 ff ff b0  	adrp	x1, 0xa000 <_ZN8ChxUtils18WaitOnAcquireFenceEPK15ChiStreamBuffer+0x58>
   214e4: 60 ff ff 90  	adrp	x0, 0xd000 <_ZN8ChxUtils18WaitOnAcquireFenceEPK15ChiStreamBuffer+0x6c>
   214e8: 43 ff ff f0  	adrp	x3, 0xc000 <_ZN8ChxUtils18WaitOnAcquireFenceEPK15ChiStreamBuffer+0x6c>
   214ec: 45 ff ff 90  	adrp	x5, 0x9000 <_ZN8ChxUtils18WaitOnAcquireFenceEPK15ChiStreamBuffer+0x64>
   21508: e6 4a 00 94  	bl	0x340a0 <_ZN6ChiLog9LogSystemEPKcS1_S1_S1_iS1_z@plt>
   21514: b7 4c 00 94  	bl	0x347f0 <_ZN8ChxUtils15NativeFenceWaitEij@plt>
   21520: a9 04 30 36  	tbz	w9, #6, 0x215b4 <_ZN8ChxUtils18WaitOnAcquireFenceEPK15ChiStreamBuffer+0x18c>
   2152c: 21 02 00 54  	b.ne	0x21570 <_ZN8ChxUtils18WaitOnAcquireFenceEPK15ChiStreamBuffer+0x148>
   21544: 61 ff ff b0  	adrp	x1, 0xe000 <_ZN8ChxUtils18WaitOnAcquireFenceEPK15ChiStreamBuffer+0xd0>
   21548: 62 ff ff d0  	adrp	x2, 0xf000 <_ZN8ChxUtils18WaitOnAcquireFenceEPK15ChiStreamBuffer+0xd8>
   2154c: 45 ff ff f0  	adrp	x5, 0xc000 <_ZN8ChxUtils18WaitOnAcquireFenceEPK15ChiStreamBuffer+0xd0>
   21584: 41 ff ff b0  	adrp	x1, 0xa000 <_ZN8ChxUtils18WaitOnAcquireFenceEPK15ChiStreamBuffer+0x100>
   2158c: 60 ff ff 90  	adrp	x0, 0xd000 <_ZN8ChxUtils18WaitOnAcquireFenceEPK15ChiStreamBuffer+0x114>
   21590: 43 ff ff f0  	adrp	x3, 0xc000 <_ZN8ChxUtils18WaitOnAcquireFenceEPK15ChiStreamBuffer+0x114>
   21594: 65 ff ff 90  	adrp	x5, 0xd000 <_ZN8ChxUtils18WaitOnAcquireFenceEPK15ChiStreamBuffer+0x11c>
   215b0: bc 4a 00 94  	bl	0x340a0 <_ZN6ChiLog9LogSystemEPKcS1_S1_S1_iS1_z@plt>
   215bc: 02 00 00 14  	b	0x215c4 <_ZN8ChxUtils18WaitOnAcquireFenceEPK15ChiStreamBuffer+0x19c>
00000000000215d8 <_ZN8ChxUtils18WaitOnAcquireFenceEPK21camera3_stream_buffer>:
   215f0: 40 0b 00 54  	b.eq	0x21758 <_ZN8ChxUtils18WaitOnAcquireFenceEPK21camera3_stream_buffer+0x180>
   215f4: b5 00 00 90  	adrp	x21, 0x35000 <_ZN8ChxUtils18WaitOnAcquireFenceEPK21camera3_stream_buffer+0x6c>
   215f8: b6 00 00 90  	adrp	x22, 0x35000 <_ZN8ChxUtils18WaitOnAcquireFenceEPK21camera3_stream_buffer+0x70>
   215fc: 74 ff ff 90  	adrp	x20, 0xd000 <_ZN8ChxUtils18WaitOnAcquireFenceEPK15ChiStreamBuffer+0x184>
   21610: a8 04 30 36  	tbz	w8, #6, 0x216a4 <_ZN8ChxUtils18WaitOnAcquireFenceEPK21camera3_stream_buffer+0xcc>
   2161c: 21 02 00 54  	b.ne	0x21660 <_ZN8ChxUtils18WaitOnAcquireFenceEPK21camera3_stream_buffer+0x88>
   21634: 61 ff ff b0  	adrp	x1, 0xe000 <_ZN8ChxUtils18WaitOnAcquireFenceEPK21camera3_stream_buffer+0x10>
   21638: 62 ff ff b0  	adrp	x2, 0xe000 <_ZN8ChxUtils18WaitOnAcquireFenceEPK21camera3_stream_buffer+0x14>
   2163c: 45 ff ff f0  	adrp	x5, 0xc000 <_ZN8ChxUtils18WaitOnAcquireFenceEPK21camera3_stream_buffer+0x10>
   21674: 41 ff ff b0  	adrp	x1, 0xa000 <_ZN8ChxUtils18WaitOnAcquireFenceEPK21camera3_stream_buffer+0x40>
   2167c: 60 ff ff 90  	adrp	x0, 0xd000 <_ZN8ChxUtils18WaitOnAcquireFenceEPK21camera3_stream_buffer+0x54>
   21680: 43 ff ff f0  	adrp	x3, 0xc000 <_ZN8ChxUtils18WaitOnAcquireFenceEPK21camera3_stream_buffer+0x54>
   21684: 45 ff ff 90  	adrp	x5, 0x9000 <_ZN8ChxUtils18WaitOnAcquireFenceEPK21camera3_stream_buffer+0x4c>
   216a0: 80 4a 00 94  	bl	0x340a0 <_ZN6ChiLog9LogSystemEPKcS1_S1_S1_iS1_z@plt>
   216ac: 51 4c 00 94  	bl	0x347f0 <_ZN8ChxUtils15NativeFenceWaitEij@plt>
   216b8: a9 04 30 36  	tbz	w9, #6, 0x2174c <_ZN8ChxUtils18WaitOnAcquireFenceEPK21camera3_stream_buffer+0x174>
   216c4: 21 02 00 54  	b.ne	0x21708 <_ZN8ChxUtils18WaitOnAcquireFenceEPK21camera3_stream_buffer+0x130>
   216dc: 61 ff ff b0  	adrp	x1, 0xe000 <_ZN8ChxUtils18WaitOnAcquireFenceEPK21camera3_stream_buffer+0xb8>
   216e0: 62 ff ff d0  	adrp	x2, 0xf000 <_ZN8ChxUtils18WaitOnAcquireFenceEPK21camera3_stream_buffer+0xc0>
   216e4: 45 ff ff f0  	adrp	x5, 0xc000 <_ZN8ChxUtils18WaitOnAcquireFenceEPK21camera3_stream_buffer+0xb8>
   2171c: 41 ff ff b0  	adrp	x1, 0xa000 <_ZN8ChxUtils18WaitOnAcquireFenceEPK21camera3_stream_buffer+0xe8>
   21724: 60 ff ff 90  	adrp	x0, 0xd000 <_ZN8ChxUtils18WaitOnAcquireFenceEPK21camera3_stream_buffer+0xfc>
   21728: 43 ff ff f0  	adrp	x3, 0xc000 <_ZN8ChxUtils18WaitOnAcquireFenceEPK21camera3_stream_buffer+0xfc>
   2172c: 65 ff ff 90  	adrp	x5, 0xd000 <_ZN8ChxUtils18WaitOnAcquireFenceEPK21camera3_stream_buffer+0x104>
   21748: 56 4a 00 94  	bl	0x340a0 <_ZN6ChiLog9LogSystemEPKcS1_S1_S1_iS1_z@plt>
   21754: 02 00 00 14  	b	0x2175c <_ZN8ChxUtils18WaitOnAcquireFenceEPK21camera3_stream_buffer+0x184>
0000000000021770 <_ZN8ChxUtils15AndroidMetadata12FillCameraIdEPvj>:
   21790: e0 09 00 b4  	cbz	x0, 0x218cc <_ZN8ChxUtils15AndroidMetadata12FillCameraIdEPvj+0x15c>
   217ac: f5 4a 00 94  	bl	0x34380 <_ZN15ExtensionModule11GetInstanceEv@plt>
   217c0: e0 00 00 35  	cbnz	w0, 0x217dc <_ZN8ChxUtils15AndroidMetadata12FillCameraIdEPvj+0x6c>
   217c8: a8 00 00 b4  	cbz	x8, 0x217dc <_ZN8ChxUtils15AndroidMetadata12FillCameraIdEPvj+0x6c>
   217dc: a9 00 00 90  	adrp	x9, 0x35000 <_ZN8ChxUtils15AndroidMetadata12FillCameraIdEPvj+0xbc>
   217f0: 48 05 18 36  	tbz	w8, #3, 0x21898 <_ZN8ChxUtils15AndroidMetadata12FillCameraIdEPvj+0x128>
   217f4: aa 00 00 90  	adrp	x10, 0x35000 <_ZN8ChxUtils15AndroidMetadata12FillCameraIdEPvj+0xd4>
   217f8: 75 ff ff 90  	adrp	x21, 0xd000 <_ZN8ChxUtils15AndroidMetadata12FillCameraIdEPvj+0x38>
   2180c: 21 02 00 54  	b.ne	0x21850 <_ZN8ChxUtils15AndroidMetadata12FillCameraIdEPvj+0xe0>
   21824: 61 ff ff b0  	adrp	x1, 0xe000 <_ZN8ChxUtils15AndroidMetadata12FillCameraIdEPvj+0x68>
   21828: 42 ff ff b0  	adrp	x2, 0xa000 <_ZN8ChxUtils15AndroidMetadata12FillCameraIdEPvj+0x5c>
   2182c: 65 ff ff d0  	adrp	x5, 0xf000 <_ZN8ChxUtils15AndroidMetadata12FillCameraIdEPvj+0x74>
   21864: 41 ff ff f0  	adrp	x1, 0xc000 <_ZN8ChxUtils15AndroidMetadata12FillCameraIdEPvj+0xa0>
   2186c: 60 ff ff d0  	adrp	x0, 0xf000 <_ZN8ChxUtils15AndroidMetadata12FillCameraIdEPvj+0xb4>
   21870: 63 ff ff d0  	adrp	x3, 0xf000 <_ZN8ChxUtils15AndroidMetadata12FillCameraIdEPvj+0xb8>
   21874: 45 ff ff b0  	adrp	x5, 0xa000 <_ZN8ChxUtils15AndroidMetadata12FillCameraIdEPvj+0xa8>
   21890: 04 4a 00 94  	bl	0x340a0 <_ZN6ChiLog9LogSystemEPKcS1_S1_S1_iS1_z@plt>
   2189c: b9 4a 00 94  	bl	0x34380 <_ZN15ExtensionModule11GetInstanceEv@plt>
   218b4: e0 01 00 34  	cbz	w0, 0x218f0 <_ZN8ChxUtils15AndroidMetadata12FillCameraIdEPvj+0x180>
   218d8: 41 02 00 54  	b.ne	0x21920 <_ZN8ChxUtils15AndroidMetadata12FillCameraIdEPvj+0x1b0>
   2191c: 00 fe ff 54  	b.eq	0x218dc <_ZN8ChxUtils15AndroidMetadata12FillCameraIdEPvj+0x16c>
0000000000021928 <_ZN8ChxUtils15AndroidMetadata11GetFpsRangeEPKvPiS3_>:
   21968: 60 01 00 34  	cbz	w0, 0x21994 <_ZN8ChxUtils15AndroidMetadata11GetFpsRangeEPKvPiS3_+0x6c>
   2197c: 81 07 00 54  	b.ne	0x21a6c <_ZN8ChxUtils15AndroidMetadata11GetFpsRangeEPKvPiS3_+0x144>
   219a0: a8 00 00 90  	adrp	x8, 0x35000 <_ZN8ChxUtils15AndroidMetadata11GetFpsRangeEPKvPiS3_+0xc8>
   219b4: 2a 05 18 36  	tbz	w10, #3, 0x21a58 <_ZN8ChxUtils15AndroidMetadata11GetFpsRangeEPKvPiS3_+0x130>
   219b8: a9 00 00 90  	adrp	x9, 0x35000 <_ZN8ChxUtils15AndroidMetadata11GetFpsRangeEPKvPiS3_+0xe0>
   219bc: 73 ff ff 90  	adrp	x19, 0xd000 <_ZN8ChxUtils15AndroidMetadata11GetFpsRangeEPKvPiS3_+0x44>
   219d0: 21 02 00 54  	b.ne	0x21a14 <_ZN8ChxUtils15AndroidMetadata11GetFpsRangeEPKvPiS3_+0xec>
   219ec: 61 ff ff b0  	adrp	x1, 0xe000 <_ZN8ChxUtils15AndroidMetadata11GetFpsRangeEPKvPiS3_+0x78>
   219f0: 42 ff ff f0  	adrp	x2, 0xc000 <_ZN8ChxUtils15AndroidMetadata11GetFpsRangeEPKvPiS3_+0x74>
   219f4: 45 ff ff b0  	adrp	x5, 0xa000 <_ZN8ChxUtils15AndroidMetadata11GetFpsRangeEPKvPiS3_+0x70>
   21a28: 41 ff ff f0  	adrp	x1, 0xc000 <_ZN8ChxUtils15AndroidMetadata11GetFpsRangeEPKvPiS3_+0xac>
   21a34: 60 ff ff d0  	adrp	x0, 0xf000 <_ZN8ChxUtils15AndroidMetadata11GetFpsRangeEPKvPiS3_+0xc4>
   21a38: 43 ff ff b0  	adrp	x3, 0xa000 <_ZN8ChxUtils15AndroidMetadata11GetFpsRangeEPKvPiS3_+0xb4>
   21a3c: 45 ff ff f0  	adrp	x5, 0xc000 <_ZN8ChxUtils15AndroidMetadata11GetFpsRangeEPKvPiS3_+0xc0>
   21a54: 93 49 00 94  	bl	0x340a0 <_ZN6ChiLog9LogSystemEPKcS1_S1_S1_iS1_z@plt>
   21a68: c0 f8 ff 54  	b.eq	0x21980 <_ZN8ChxUtils15AndroidMetadata11GetFpsRangeEPKvPiS3_+0x58>
0000000000021a70 <_ZN8ChxUtils15AndroidMetadata10GetZSLModeEPv>:
   21aa8: e0 00 00 34  	cbz	w0, 0x21ac4 <_ZN8ChxUtils15AndroidMetadata10GetZSLModeEPv+0x54>
   21ab0: a9 00 00 90  	adrp	x9, 0x35000 <_ZN8ChxUtils15AndroidMetadata10GetZSLModeEPv+0x90>
   21abc: 08 01 30 37  	tbnz	w8, #6, 0x21adc <_ZN8ChxUtils15AndroidMetadata10GetZSLModeEPv+0x6c>
   21ac0: 2f 00 00 14  	b	0x21b7c <_ZN8ChxUtils15AndroidMetadata10GetZSLModeEPv+0x10c>
   21acc: a9 00 00 90  	adrp	x9, 0x35000 <_ZN8ChxUtils15AndroidMetadata10GetZSLModeEPv+0xac>
   21ad8: 28 05 30 36  	tbz	w8, #6, 0x21b7c <_ZN8ChxUtils15AndroidMetadata10GetZSLModeEPv+0x10c>
   21adc: aa 00 00 90  	adrp	x10, 0x35000 <_ZN8ChxUtils15AndroidMetadata10GetZSLModeEPv+0xbc>
   21ae0: 74 ff ff 90  	adrp	x20, 0xd000 <_ZN8ChxUtils15AndroidMetadata10GetZSLModeEPv+0x20>
   21af4: 21 02 00 54  	b.ne	0x21b38 <_ZN8ChxUtils15AndroidMetadata10GetZSLModeEPv+0xc8>
   21b0c: 61 ff ff b0  	adrp	x1, 0xe000 <_ZN8ChxUtils15AndroidMetadata10GetZSLModeEPv+0x50>
   21b10: 62 ff ff 90  	adrp	x2, 0xd000 <_ZN8ChxUtils15AndroidMetadata10GetZSLModeEPv+0x50>
   21b14: 45 ff ff f0  	adrp	x5, 0xc000 <_ZN8ChxUtils15AndroidMetadata10GetZSLModeEPv+0x50>
   21b4c: 41 ff ff b0  	adrp	x1, 0xa000 <_ZN8ChxUtils15AndroidMetadata10GetZSLModeEPv+0x80>
   21b54: 60 ff ff 90  	adrp	x0, 0xd000 <_ZN8ChxUtils15AndroidMetadata10GetZSLModeEPv+0x94>
   21b58: 43 ff ff f0  	adrp	x3, 0xc000 <_ZN8ChxUtils15AndroidMetadata10GetZSLModeEPv+0x94>
   21b5c: 65 ff ff 90  	adrp	x5, 0xd000 <_ZN8ChxUtils15AndroidMetadata10GetZSLModeEPv+0x9c>
   21b78: 4a 49 00 94  	bl	0x340a0 <_ZN6ChiLog9LogSystemEPKcS1_S1_S1_iS1_z@plt>
   21b88: e1 00 00 54  	b.ne	0x21ba4 <_ZN8ChxUtils15AndroidMetadata10GetZSLModeEPv+0x134>
0000000000021ba8 <_ZN8ChxUtils15AndroidMetadata12GetBokehModeEPKv>:
   21bcc: 20 01 00 b4  	cbz	x0, 0x21bf0 <_ZN8ChxUtils15AndroidMetadata12GetBokehModeEPKv+0x48>
   21bec: e0 00 00 34  	cbz	w0, 0x21c08 <_ZN8ChxUtils15AndroidMetadata12GetBokehModeEPKv+0x60>
   21bf4: a9 00 00 90  	adrp	x9, 0x35000 <_ZN8ChxUtils15AndroidMetadata12GetBokehModeEPKv+0x9c>
   21c00: 08 01 18 37  	tbnz	w8, #3, 0x21c20 <_ZN8ChxUtils15AndroidMetadata12GetBokehModeEPKv+0x78>
   21c04: 31 00 00 14  	b	0x21cc8 <_ZN8ChxUtils15AndroidMetadata12GetBokehModeEPKv+0x120>
   21c10: a9 00 00 90  	adrp	x9, 0x35000 <_ZN8ChxUtils15AndroidMetadata12GetBokehModeEPKv+0xb8>
   21c1c: 68 05 18 36  	tbz	w8, #3, 0x21cc8 <_ZN8ChxUtils15AndroidMetadata12GetBokehModeEPKv+0x120>
   21c20: aa 00 00 90  	adrp	x10, 0x35000 <_ZN8ChxUtils15AndroidMetadata12GetBokehModeEPKv+0xc8>
   21c24: 75 ff ff 90  	adrp	x21, 0xd000 <_ZN8ChxUtils15AndroidMetadata12GetBokehModeEPKv+0x2c>
   21c38: 41 02 00 54  	b.ne	0x21c80 <_ZN8ChxUtils15AndroidMetadata12GetBokehModeEPKv+0xd8>
   21c50: 61 ff ff b0  	adrp	x1, 0xe000 <_ZN8ChxUtils15AndroidMetadata12GetBokehModeEPKv+0x5c>
   21c54: 62 ff ff 90  	adrp	x2, 0xd000 <_ZN8ChxUtils15AndroidMetadata12GetBokehModeEPKv+0x5c>
   21c58: 65 ff ff b0  	adrp	x5, 0xe000 <_ZN8ChxUtils15AndroidMetadata12GetBokehModeEPKv+0x64>
   21c94: 41 ff ff f0  	adrp	x1, 0xc000 <_ZN8ChxUtils15AndroidMetadata12GetBokehModeEPKv+0x98>
   21c9c: 60 ff ff d0  	adrp	x0, 0xf000 <_ZN8ChxUtils15AndroidMetadata12GetBokehModeEPKv+0xac>
   21ca0: 63 ff ff b0  	adrp	x3, 0xe000 <_ZN8ChxUtils15AndroidMetadata12GetBokehModeEPKv+0xac>
   21ca4: 45 ff ff d0  	adrp	x5, 0xb000 <_ZN8ChxUtils15AndroidMetadata12GetBokehModeEPKv+0xa4>
   21cc4: f7 48 00 94  	bl	0x340a0 <_ZN6ChiLog9LogSystemEPKcS1_S1_S1_iS1_z@plt>
   21cd4: e1 00 00 54  	b.ne	0x21cf0 <_ZN8ChxUtils15AndroidMetadata12GetBokehModeEPKv+0x148>
0000000000021cf8 <_ZN8ChxUtils15AndroidMetadata18FillTuningModeDataEPvP23camera3_capture_requestjPjS4_S4_S4_>:
   21d24: c0 1a 00 b4  	cbz	x0, 0x2207c <_ZN8ChxUtils15AndroidMetadata18FillTuningModeDataEPvP23camera3_capture_requestjPjS4_S4_S4_+0x384>
   21d28: 48 ff ff 90  	adrp	x8, 0x9000 <_ZN8ChxUtils15AndroidMetadata12GetBokehModeEPKv+0x120>
   21d78: a2 4a 00 94  	bl	0x34800 <_ZN8ChxUtils14GetUsecaseModeEP23camera3_capture_request@plt>
   21d8c: 7d 49 00 94  	bl	0x34380 <_ZN15ExtensionModule11GetInstanceEv@plt>
   21da0: 60 00 00 34  	cbz	w0, 0x21dac <_ZN8ChxUtils15AndroidMetadata18FillTuningModeDataEPvP23camera3_capture_requestjPjS4_S4_S4_+0xb4>
   21da8: 04 00 00 14  	b	0x21db8 <_ZN8ChxUtils15AndroidMetadata18FillTuningModeDataEPvP23camera3_capture_requestjPjS4_S4_S4_+0xc0>
   21db8: bc 00 00 90  	adrp	x28, 0x35000 <_ZN8ChxUtils15AndroidMetadata18FillTuningModeDataEPvP23camera3_capture_requestjPjS4_S4_S4_+0x110>
   21dbc: bb 00 00 90  	adrp	x27, 0x35000 <_ZN8ChxUtils15AndroidMetadata18FillTuningModeDataEPvP23camera3_capture_requestjPjS4_S4_S4_+0x114>
   21dc4: 74 ff ff 90  	adrp	x20, 0xd000 <_ZN8ChxUtils15AndroidMetadata18FillTuningModeDataEPvP23camera3_capture_requestjPjS4_S4_S4_+0x7c>
   21dd8: cd 04 30 36  	tbz	w13, #6, 0x21e70 <_ZN8ChxUtils15AndroidMetadata18FillTuningModeDataEPvP23camera3_capture_requestjPjS4_S4_S4_+0x178>
   21de4: 21 02 00 54  	b.ne	0x21e28 <_ZN8ChxUtils15AndroidMetadata18FillTuningModeDataEPvP23camera3_capture_requestjPjS4_S4_S4_+0x130>
   21dfc: 61 ff ff b0  	adrp	x1, 0xe000 <_ZN8ChxUtils15AndroidMetadata18FillTuningModeDataEPvP23camera3_capture_requestjPjS4_S4_S4_+0xb8>
   21e00: 62 ff ff d0  	adrp	x2, 0xf000 <_ZN8ChxUtils15AndroidMetadata18FillTuningModeDataEPvP23camera3_capture_requestjPjS4_S4_S4_+0xc0>
   21e04: 45 ff ff f0  	adrp	x5, 0xc000 <_ZN8ChxUtils15AndroidMetadata18FillTuningModeDataEPvP23camera3_capture_requestjPjS4_S4_S4_+0xb8>
   21e3c: 41 ff ff b0  	adrp	x1, 0xa000 <_ZN8ChxUtils15AndroidMetadata18FillTuningModeDataEPvP23camera3_capture_requestjPjS4_S4_S4_+0xe8>
   21e44: 60 ff ff 90  	adrp	x0, 0xd000 <_ZN8ChxUtils15AndroidMetadata18FillTuningModeDataEPvP23camera3_capture_requestjPjS4_S4_S4_+0xfc>
   21e48: 43 ff ff f0  	adrp	x3, 0xc000 <_ZN8ChxUtils15AndroidMetadata18FillTuningModeDataEPvP23camera3_capture_requestjPjS4_S4_S4_+0xfc>
   21e4c: 45 ff ff b0  	adrp	x5, 0xa000 <_ZN8ChxUtils15AndroidMetadata18FillTuningModeDataEPvP23camera3_capture_requestjPjS4_S4_S4_+0xf8>
   21e68: 8e 48 00 94  	bl	0x340a0 <_ZN6ChiLog9LogSystemEPKcS1_S1_S1_iS1_z@plt>
   21eb0: 60 01 00 35  	cbnz	w0, 0x21edc <_ZN8ChxUtils15AndroidMetadata18FillTuningModeDataEPvP23camera3_capture_requestjPjS4_S4_S4_+0x1e4>
   21ec0: e1 00 00 54  	b.ne	0x21edc <_ZN8ChxUtils15AndroidMetadata18FillTuningModeDataEPvP23camera3_capture_requestjPjS4_S4_S4_+0x1e4>
   21ed8: a0 0e 00 34  	cbz	w0, 0x220ac <_ZN8ChxUtils15AndroidMetadata18FillTuningModeDataEPvP23camera3_capture_requestjPjS4_S4_S4_+0x3b4>
   21ee0: 6c ff ff d0  	adrp	x12, 0xf000 <_ZN8ChxUtils15AndroidMetadata18FillTuningModeDataEPvP23camera3_capture_requestjPjS4_S4_S4_+0x1a0>
   21f14: 60 00 00 34  	cbz	w0, 0x21f20 <_ZN8ChxUtils15AndroidMetadata18FillTuningModeDataEPvP23camera3_capture_requestjPjS4_S4_S4_+0x228>
   21f1c: 04 00 00 14  	b	0x21f2c <_ZN8ChxUtils15AndroidMetadata18FillTuningModeDataEPvP23camera3_capture_requestjPjS4_S4_S4_+0x234>
   21f2c: 6e ff ff d0  	adrp	x14, 0xf000 <_ZN8ChxUtils15AndroidMetadata18FillTuningModeDataEPvP23camera3_capture_requestjPjS4_S4_S4_+0x1ec>
   21f48: 0e 49 00 94  	bl	0x34380 <_ZN15ExtensionModule11GetInstanceEv@plt>
   21f60: 20 01 00 34  	cbz	w0, 0x21f84 <_ZN8ChxUtils15AndroidMetadata18FillTuningModeDataEPvP23camera3_capture_requestjPjS4_S4_S4_+0x28c>
   21f7c: 86 01 28 37  	tbnz	w6, #5, 0x21fac <_ZN8ChxUtils15AndroidMetadata18FillTuningModeDataEPvP23camera3_capture_requestjPjS4_S4_S4_+0x2b4>
   21f80: 3f 00 00 14  	b	0x2207c <_ZN8ChxUtils15AndroidMetadata18FillTuningModeDataEPvP23camera3_capture_requestjPjS4_S4_S4_+0x384>
   21fa8: a6 06 28 36  	tbz	w6, #5, 0x2207c <_ZN8ChxUtils15AndroidMetadata18FillTuningModeDataEPvP23camera3_capture_requestjPjS4_S4_S4_+0x384>
   21fb4: 21 03 00 54  	b.ne	0x22018 <_ZN8ChxUtils15AndroidMetadata18FillTuningModeDataEPvP23camera3_capture_requestjPjS4_S4_S4_+0x320>
   21fd4: 61 ff ff b0  	adrp	x1, 0xe000 <_ZN8ChxUtils15AndroidMetadata18FillTuningModeDataEPvP23camera3_capture_requestjPjS4_S4_S4_+0x290>
   21fdc: 42 ff ff d0  	adrp	x2, 0xb000 <_ZN8ChxUtils15AndroidMetadata18FillTuningModeDataEPvP23camera3_capture_requestjPjS4_S4_S4_+0x28c>
   21fe4: 45 ff ff d0  	adrp	x5, 0xb000 <_ZN8ChxUtils15AndroidMetadata18FillTuningModeDataEPvP23camera3_capture_requestjPjS4_S4_S4_+0x294>
   2203c: 60 ff ff 90  	adrp	x0, 0xe000 <_ZN8ChxUtils15AndroidMetadata18FillTuningModeDataEPvP23camera3_capture_requestjPjS4_S4_S4_+0x2f4>
   22044: 41 ff ff d0  	adrp	x1, 0xc000 <_ZN8ChxUtils15AndroidMetadata18FillTuningModeDataEPvP23camera3_capture_requestjPjS4_S4_S4_+0x2f4>
   22048: 43 ff ff b0  	adrp	x3, 0xb000 <_ZN8ChxUtils15AndroidMetadata18FillTuningModeDataEPvP23camera3_capture_requestjPjS4_S4_S4_+0x2f4>
   2204c: 45 ff ff b0  	adrp	x5, 0xb000 <_ZN8ChxUtils15AndroidMetadata18FillTuningModeDataEPvP23camera3_capture_requestjPjS4_S4_S4_+0x2f8>
   22078: 0a 48 00 94  	bl	0x340a0 <_ZN6ChiLog9LogSystemEPKcS1_S1_S1_iS1_z@plt>
   22088: a1 01 00 54  	b.ne	0x220bc <_ZN8ChxUtils15AndroidMetadata18FillTuningModeDataEPvP23camera3_capture_requestjPjS4_S4_S4_+0x3c4>
   220b8: 8a ff ff 17  	b	0x21ee0 <_ZN8ChxUtils15AndroidMetadata18FillTuningModeDataEPvP23camera3_capture_requestjPjS4_S4_S4_+0x1e8>
00000000000220c0 <_ZN8ChxUtils15AndroidMetadata15UpdateTimeStampEP15camera_metadatamj>:
   22110: 00 01 00 34  	cbz	w0, 0x22130 <_ZN8ChxUtils15AndroidMetadata15UpdateTimeStampEP15camera_metadatamj+0x70>
   2212c: 11 00 00 14  	b	0x22170 <_ZN8ChxUtils15AndroidMetadata15UpdateTimeStampEP15camera_metadatamj+0xb0>
   2213c: e1 00 00 54  	b.ne	0x22158 <_ZN8ChxUtils15AndroidMetadata15UpdateTimeStampEP15camera_metadatamj+0x98>
   22144: 89 00 00 f0  	adrp	x9, 0x35000 <_ZN8ChxUtils15AndroidMetadata15UpdateTimeStampEP15camera_metadatamj+0xd0>
   22150: a8 01 30 37  	tbnz	w8, #6, 0x22184 <_ZN8ChxUtils15AndroidMetadata15UpdateTimeStampEP15camera_metadatamj+0xc4>
   22154: 54 00 00 14  	b	0x222a4 <_ZN8ChxUtils15AndroidMetadata15UpdateTimeStampEP15camera_metadatamj+0x1e4>
   22174: 89 00 00 f0  	adrp	x9, 0x35000 <_ZN8ChxUtils15AndroidMetadata15UpdateTimeStampEP15camera_metadatamj+0x100>
   22180: 28 09 30 36  	tbz	w8, #6, 0x222a4 <_ZN8ChxUtils15AndroidMetadata15UpdateTimeStampEP15camera_metadatamj+0x1e4>
   22184: 8a 00 00 f0  	adrp	x10, 0x35000 <_ZN8ChxUtils15AndroidMetadata15UpdateTimeStampEP15camera_metadatamj+0x110>
   22188: 56 ff ff f0  	adrp	x22, 0xd000 <_ZN8ChxUtils15AndroidMetadata15UpdateTimeStampEP15camera_metadatamj+0x74>
   2219c: 21 04 00 54  	b.ne	0x22220 <_ZN8ChxUtils15AndroidMetadata15UpdateTimeStampEP15camera_metadatamj+0x160>
   221dc: 60 00 00 35  	cbnz	w0, 0x221e8 <_ZN8ChxUtils15AndroidMetadata15UpdateTimeStampEP15camera_metadatamj+0x128>
   221e8: 61 ff ff 90  	adrp	x1, 0xe000 <_ZN8ChxUtils15AndroidMetadata15UpdateTimeStampEP15camera_metadatamj+0xd8>
   221ec: 42 ff ff d0  	adrp	x2, 0xc000 <_ZN8ChxUtils15AndroidMetadata15UpdateTimeStampEP15camera_metadatamj+0xd4>
   221f0: 45 ff ff f0  	adrp	x5, 0xd000 <_ZN8ChxUtils15AndroidMetadata15UpdateTimeStampEP15camera_metadatamj+0xdc>
   2225c: 60 00 00 35  	cbnz	w0, 0x22268 <_ZN8ChxUtils15AndroidMetadata15UpdateTimeStampEP15camera_metadatamj+0x1a8>
   22268: 40 ff ff f0  	adrp	x0, 0xd000 <_ZN8ChxUtils15AndroidMetadata15UpdateTimeStampEP15camera_metadatamj+0x154>
   2226c: 41 ff ff 90  	adrp	x1, 0xa000 <_ZN8ChxUtils15AndroidMetadata15UpdateTimeStampEP15camera_metadatamj+0x14c>
   22270: 43 ff ff f0  	adrp	x3, 0xd000 <_ZN8ChxUtils15AndroidMetadata15UpdateTimeStampEP15camera_metadatamj+0x15c>
   22274: 25 ff ff f0  	adrp	x5, 0x9000 <_ZN8ChxUtils15AndroidMetadata15UpdateTimeStampEP15camera_metadatamj+0x150>
   222a0: 80 47 00 94  	bl	0x340a0 <_ZN6ChiLog9LogSystemEPKcS1_S1_S1_iS1_z@plt>
   222b8: 01 01 00 54  	b.ne	0x222d8 <_ZN8ChxUtils15AndroidMetadata15UpdateTimeStampEP15camera_metadatamj+0x218>
00000000000222e0 <_ZN8ChxUtils15AndroidMetadata12GetTimeStampEP15camera_metadata>:
   22318: 60 00 00 35  	cbnz	w0, 0x22324 <_ZN8ChxUtils15AndroidMetadata12GetTimeStampEP15camera_metadata+0x44>
   22330: c1 00 00 54  	b.ne	0x22348 <_ZN8ChxUtils15AndroidMetadata12GetTimeStampEP15camera_metadata+0x68>
0000000000022350 <_ZN8ChxUtils10GetZSLModeEP11ChiMetadata>:
   22394: e8 00 00 b4  	cbz	x8, 0x223b0 <_ZN8ChxUtils10GetZSLModeEP11ChiMetadata+0x60>
   2239c: 89 00 00 f0  	adrp	x9, 0x35000 <_ZN8ChxUtils10GetZSLModeEP11ChiMetadata+0x98>
   223a8: e8 00 30 37  	tbnz	w8, #6, 0x223c4 <_ZN8ChxUtils10GetZSLModeEP11ChiMetadata+0x74>
   223ac: 2e 00 00 14  	b	0x22464 <_ZN8ChxUtils10GetZSLModeEP11ChiMetadata+0x114>
   223b4: 89 00 00 f0  	adrp	x9, 0x35000 <_ZN8ChxUtils10GetZSLModeEP11ChiMetadata+0xb0>
   223c0: 28 05 30 36  	tbz	w8, #6, 0x22464 <_ZN8ChxUtils10GetZSLModeEP11ChiMetadata+0x114>
   223c4: 8a 00 00 f0  	adrp	x10, 0x35000 <_ZN8ChxUtils10GetZSLModeEP11ChiMetadata+0xc0>
   223c8: 54 ff ff f0  	adrp	x20, 0xd000 <_ZN8ChxUtils10GetZSLModeEP11ChiMetadata+0x24>
   223dc: 21 02 00 54  	b.ne	0x22420 <_ZN8ChxUtils10GetZSLModeEP11ChiMetadata+0xd0>
   223f4: 61 ff ff 90  	adrp	x1, 0xe000 <_ZN8ChxUtils10GetZSLModeEP11ChiMetadata+0x54>
   223f8: 42 ff ff f0  	adrp	x2, 0xd000 <_ZN8ChxUtils10GetZSLModeEP11ChiMetadata+0x54>
   223fc: 45 ff ff d0  	adrp	x5, 0xc000 <_ZN8ChxUtils10GetZSLModeEP11ChiMetadata+0x54>
   22434: 41 ff ff 90  	adrp	x1, 0xa000 <_ZN8ChxUtils10GetZSLModeEP11ChiMetadata+0x84>
   2243c: 40 ff ff f0  	adrp	x0, 0xd000 <_ZN8ChxUtils10GetZSLModeEP11ChiMetadata+0x98>
   22440: 43 ff ff d0  	adrp	x3, 0xc000 <_ZN8ChxUtils10GetZSLModeEP11ChiMetadata+0x98>
   22444: 45 ff ff f0  	adrp	x5, 0xd000 <_ZN8ChxUtils10GetZSLModeEP11ChiMetadata+0xa0>
   22460: 10 47 00 94  	bl	0x340a0 <_ZN6ChiLog9LogSystemEPKcS1_S1_S1_iS1_z@plt>
   22470: e1 00 00 54  	b.ne	0x2248c <_ZN8ChxUtils10GetZSLModeEP11ChiMetadata+0x13c>
0000000000022490 <_ZN8ChxUtils12GetFlashModeEP11ChiMetadata>:
   224d4: e8 00 00 b4  	cbz	x8, 0x224f0 <_ZN8ChxUtils12GetFlashModeEP11ChiMetadata+0x60>
   224dc: 89 00 00 f0  	adrp	x9, 0x35000 <_ZN8ChxUtils12GetFlashModeEP11ChiMetadata+0x98>
   224e8: e8 00 18 37  	tbnz	w8, #3, 0x22504 <_ZN8ChxUtils12GetFlashModeEP11ChiMetadata+0x74>
   224ec: 2e 00 00 14  	b	0x225a4 <_ZN8ChxUtils12GetFlashModeEP11ChiMetadata+0x114>
   224f4: 89 00 00 f0  	adrp	x9, 0x35000 <_ZN8ChxUtils12GetFlashModeEP11ChiMetadata+0xb0>
   22500: 28 05 18 36  	tbz	w8, #3, 0x225a4 <_ZN8ChxUtils12GetFlashModeEP11ChiMetadata+0x114>
   22504: 8a 00 00 f0  	adrp	x10, 0x35000 <_ZN8ChxUtils12GetFlashModeEP11ChiMetadata+0xc0>
   22508: 54 ff ff f0  	adrp	x20, 0xd000 <_ZN8ChxUtils12GetFlashModeEP11ChiMetadata+0x24>
   2251c: 21 02 00 54  	b.ne	0x22560 <_ZN8ChxUtils12GetFlashModeEP11ChiMetadata+0xd0>
   22534: 61 ff ff 90  	adrp	x1, 0xe000 <_ZN8ChxUtils12GetFlashModeEP11ChiMetadata+0x54>
   22538: 42 ff ff f0  	adrp	x2, 0xd000 <_ZN8ChxUtils12GetFlashModeEP11ChiMetadata+0x54>
   2253c: 65 ff ff b0  	adrp	x5, 0xf000 <_ZN8ChxUtils12GetFlashModeEP11ChiMetadata+0x60>
   22574: 41 ff ff d0  	adrp	x1, 0xc000 <_ZN8ChxUtils12GetFlashModeEP11ChiMetadata+0x8c>
   2257c: 60 ff ff b0  	adrp	x0, 0xf000 <_ZN8ChxUtils12GetFlashModeEP11ChiMetadata+0xa0>
   22580: 63 ff ff b0  	adrp	x3, 0xf000 <_ZN8ChxUtils12GetFlashModeEP11ChiMetadata+0xa4>
   22584: 45 ff ff d0  	adrp	x5, 0xc000 <_ZN8ChxUtils12GetFlashModeEP11ChiMetadata+0x9c>
   225a0: c0 46 00 94  	bl	0x340a0 <_ZN6ChiLog9LogSystemEPKcS1_S1_S1_iS1_z@plt>
   225b8: c1 00 00 54  	b.ne	0x225d0 <_ZN8ChxUtils12GetFlashModeEP11ChiMetadata+0x140>
00000000000225d8 <_ZN8ChxUtils18GetFlashFiredStateEP11ChiMetadata>:
   2261c: e8 00 00 b4  	cbz	x8, 0x22638 <_ZN8ChxUtils18GetFlashFiredStateEP11ChiMetadata+0x60>
   22624: 89 00 00 f0  	adrp	x9, 0x35000 <_ZN8ChxUtils18GetFlashFiredStateEP11ChiMetadata+0x98>
   22630: e8 00 18 37  	tbnz	w8, #3, 0x2264c <_ZN8ChxUtils18GetFlashFiredStateEP11ChiMetadata+0x74>
   22634: 2e 00 00 14  	b	0x226ec <_ZN8ChxUtils18GetFlashFiredStateEP11ChiMetadata+0x114>
   2263c: 89 00 00 f0  	adrp	x9, 0x35000 <_ZN8ChxUtils18GetFlashFiredStateEP11ChiMetadata+0xb0>
   22648: 28 05 18 36  	tbz	w8, #3, 0x226ec <_ZN8ChxUtils18GetFlashFiredStateEP11ChiMetadata+0x114>
   2264c: 8a 00 00 f0  	adrp	x10, 0x35000 <_ZN8ChxUtils18GetFlashFiredStateEP11ChiMetadata+0xc0>
   22650: 54 ff ff f0  	adrp	x20, 0xd000 <_ZN8ChxUtils18GetFlashFiredStateEP11ChiMetadata+0x24>
   22664: 21 02 00 54  	b.ne	0x226a8 <_ZN8ChxUtils18GetFlashFiredStateEP11ChiMetadata+0xd0>
   2267c: 61 ff ff 90  	adrp	x1, 0xe000 <_ZN8ChxUtils18GetFlashFiredStateEP11ChiMetadata+0x54>
   22680: 42 ff ff 90  	adrp	x2, 0xa000 <_ZN8ChxUtils18GetFlashFiredStateEP11ChiMetadata+0x48>
   22684: 45 ff ff d0  	adrp	x5, 0xc000 <_ZN8ChxUtils18GetFlashFiredStateEP11ChiMetadata+0x54>
   226bc: 41 ff ff d0  	adrp	x1, 0xc000 <_ZN8ChxUtils18GetFlashFiredStateEP11ChiMetadata+0x8c>
   226c4: 60 ff ff b0  	adrp	x0, 0xf000 <_ZN8ChxUtils18GetFlashFiredStateEP11ChiMetadata+0xa0>
   226c8: 43 ff ff d0  	adrp	x3, 0xc000 <_ZN8ChxUtils18GetFlashFiredStateEP11ChiMetadata+0x98>
   226cc: 45 ff ff f0  	adrp	x5, 0xd000 <_ZN8ChxUtils18GetFlashFiredStateEP11ChiMetadata+0xa0>
   226e8: 6e 46 00 94  	bl	0x340a0 <_ZN6ChiLog9LogSystemEPKcS1_S1_S1_iS1_z@plt>
   22700: c1 00 00 54  	b.ne	0x22718 <_ZN8ChxUtils18GetFlashFiredStateEP11ChiMetadata+0x140>
0000000000022720 <_ZN8ChxUtils17SetVendorTagValueEP11ChiMetadata9VendorTagjPv>:
   22740: 10 47 00 94  	bl	0x34380 <_ZN15ExtensionModule11GetInstanceEv@plt>
0000000000022778 <_ZN8ChxUtils12GetSceneModeEP11ChiMetadataPj>:
   227c4: 08 02 00 b4  	cbz	x8, 0x22804 <_ZN8ChxUtils12GetSceneModeEP11ChiMetadataPj+0x8c>
   227f0: a1 00 00 54  	b.ne	0x22804 <_ZN8ChxUtils12GetSceneModeEP11ChiMetadataPj+0x8c>
   227f8: 69 00 00 b4  	cbz	x9, 0x22804 <_ZN8ChxUtils12GetSceneModeEP11ChiMetadataPj+0x8c>
   22804: df 46 00 94  	bl	0x34380 <_ZN15ExtensionModule11GetInstanceEv@plt>
   22838: a8 00 00 54  	b.hi	0x2284c <_ZN8ChxUtils12GetSceneModeEP11ChiMetadataPj+0xd4>
   2283c: 6c ff ff b0  	adrp	x12, 0xf000 <_ZN8ChxUtils12GetSceneModeEP11ChiMetadataPj+0x78>
   22858: c1 00 00 54  	b.ne	0x22870 <_ZN8ChxUtils12GetSceneModeEP11ChiMetadataPj+0xf8>
0000000000022878 <_ZN8ChxUtils13GetEffectModeEP11ChiMetadataPj>:
   228bc: 48 02 00 b4  	cbz	x8, 0x22904 <_ZN8ChxUtils13GetEffectModeEP11ChiMetadataPj+0x8c>
   228d0: a2 00 00 54  	b.hs	0x228e4 <_ZN8ChxUtils13GetEffectModeEP11ChiMetadataPj+0x6c>
   228d4: 69 ff ff b0  	adrp	x9, 0xf000 <_ZN8ChxUtils13GetEffectModeEP11ChiMetadataPj+0x10>
   228f0: 41 01 00 54  	b.ne	0x22918 <_ZN8ChxUtils13GetEffectModeEP11ChiMetadataPj+0xa0>
   22910: 23 fe ff 54  	b.lo	0x228d4 <_ZN8ChxUtils13GetEffectModeEP11ChiMetadataPj+0x5c>
   22914: f4 ff ff 17  	b	0x228e4 <_ZN8ChxUtils13GetEffectModeEP11ChiMetadataPj+0x6c>
0000000000022920 <_ZN8ChxUtils15GetFeature1ModeEP11ChiMetadataPj>:
   22948: 8e 46 00 94  	bl	0x34380 <_ZN15ExtensionModule11GetInstanceEv@plt>
   2296c: 08 01 00 b4  	cbz	x8, 0x2298c <_ZN8ChxUtils15GetFeature1ModeEP11ChiMetadataPj+0x6c>
   22978: 89 00 00 f0  	adrp	x9, 0x35000 <_ZN8ChxUtils15GetFeature1ModeEP11ChiMetadataPj+0xa4>
   22984: e8 00 30 37  	tbnz	w8, #6, 0x229a0 <_ZN8ChxUtils15GetFeature1ModeEP11ChiMetadataPj+0x80>
   22988: 2e 00 00 14  	b	0x22a40 <_ZN8ChxUtils15GetFeature1ModeEP11ChiMetadataPj+0x120>
   22990: 89 00 00 f0  	adrp	x9, 0x35000 <_ZN8ChxUtils15GetFeature1ModeEP11ChiMetadataPj+0xbc>
   2299c: 28 05 30 36  	tbz	w8, #6, 0x22a40 <_ZN8ChxUtils15GetFeature1ModeEP11ChiMetadataPj+0x120>
   229a0: 8a 00 00 f0  	adrp	x10, 0x35000 <_ZN8ChxUtils15GetFeature1ModeEP11ChiMetadataPj+0xcc>
   229a4: 54 ff ff f0  	adrp	x20, 0xd000 <_ZN8ChxUtils15GetFeature1ModeEP11ChiMetadataPj+0x30>
   229b8: 21 02 00 54  	b.ne	0x229fc <_ZN8ChxUtils15GetFeature1ModeEP11ChiMetadataPj+0xdc>
   229d0: 61 ff ff 90  	adrp	x1, 0xe000 <_ZN8ChxUtils15GetFeature1ModeEP11ChiMetadataPj+0x60>
   229d4: 62 ff ff b0  	adrp	x2, 0xf000 <_ZN8ChxUtils15GetFeature1ModeEP11ChiMetadataPj+0x68>
   229d8: 45 ff ff d0  	adrp	x5, 0xc000 <_ZN8ChxUtils15GetFeature1ModeEP11ChiMetadataPj+0x60>
   22a10: 41 ff ff 90  	adrp	x1, 0xa000 <_ZN8ChxUtils15GetFeature1ModeEP11ChiMetadataPj+0x90>
   22a18: 40 ff ff f0  	adrp	x0, 0xd000 <_ZN8ChxUtils15GetFeature1ModeEP11ChiMetadataPj+0xa4>
   22a1c: 43 ff ff d0  	adrp	x3, 0xc000 <_ZN8ChxUtils15GetFeature1ModeEP11ChiMetadataPj+0xa4>
   22a20: 45 ff ff 90  	adrp	x5, 0xa000 <_ZN8ChxUtils15GetFeature1ModeEP11ChiMetadataPj+0xa0>
   22a3c: 99 45 00 94  	bl	0x340a0 <_ZN6ChiLog9LogSystemEPKcS1_S1_S1_iS1_z@plt>
   22a4c: e1 00 00 54  	b.ne	0x22a68 <_ZN8ChxUtils15GetFeature1ModeEP11ChiMetadataPj+0x148>
0000000000022a70 <_ZN8ChxUtils12FillCameraIdEP11ChiMetadataj>:
   22a94: c0 0e 00 b4  	cbz	x0, 0x22c6c <_ZN8ChxUtils12FillCameraIdEP11ChiMetadataj+0x1fc>
   22aa8: 36 46 00 94  	bl	0x34380 <_ZN15ExtensionModule11GetInstanceEv@plt>
   22acc: 98 00 00 f0  	adrp	x24, 0x35000 <_ZN8ChxUtils12FillCameraIdEP11ChiMetadataj+0xa8>
   22ad8: c8 00 00 b4  	cbz	x8, 0x22af0 <_ZN8ChxUtils12FillCameraIdEP11ChiMetadataj+0x80>
   22aec: 2d 00 00 14  	b	0x22ba0 <_ZN8ChxUtils12FillCameraIdEP11ChiMetadataj+0x130>
   22af4: 68 05 30 36  	tbz	w8, #6, 0x22ba0 <_ZN8ChxUtils12FillCameraIdEP11ChiMetadataj+0x130>
   22af8: 89 00 00 f0  	adrp	x9, 0x35000 <_ZN8ChxUtils12FillCameraIdEP11ChiMetadataj+0xd4>
   22b08: 61 02 00 54  	b.ne	0x22b54 <_ZN8ChxUtils12FillCameraIdEP11ChiMetadataj+0xe4>
   22b0c: 56 ff ff f0  	adrp	x22, 0xd000 <_ZN8ChxUtils12FillCameraIdEP11ChiMetadataj+0x48>
   22b28: 61 ff ff 90  	adrp	x1, 0xe000 <_ZN8ChxUtils12FillCameraIdEP11ChiMetadataj+0x68>
   22b2c: 62 ff ff 90  	adrp	x2, 0xe000 <_ZN8ChxUtils12FillCameraIdEP11ChiMetadataj+0x6c>
   22b30: 45 ff ff b0  	adrp	x5, 0xb000 <_ZN8ChxUtils12FillCameraIdEP11ChiMetadataj+0x64>
   22b54: 56 ff ff f0  	adrp	x22, 0xd000 <_ZN8ChxUtils12FillCameraIdEP11ChiMetadataj+0x90>
   22b70: 41 ff ff 90  	adrp	x1, 0xa000 <_ZN8ChxUtils12FillCameraIdEP11ChiMetadataj+0xa0>
   22b78: 40 ff ff f0  	adrp	x0, 0xd000 <_ZN8ChxUtils12FillCameraIdEP11ChiMetadataj+0xb4>
   22b7c: 43 ff ff b0  	adrp	x3, 0xb000 <_ZN8ChxUtils12FillCameraIdEP11ChiMetadataj+0xb0>
   22b80: 45 ff ff 90  	adrp	x5, 0xa000 <_ZN8ChxUtils12FillCameraIdEP11ChiMetadataj+0xb0>
   22b9c: 41 45 00 94  	bl	0x340a0 <_ZN6ChiLog9LogSystemEPKcS1_S1_S1_iS1_z@plt>
   22ba8: 29 05 30 36  	tbz	w9, #6, 0x22c4c <_ZN8ChxUtils12FillCameraIdEP11ChiMetadataj+0x1dc>
   22bac: 8a 00 00 f0  	adrp	x10, 0x35000 <_ZN8ChxUtils12FillCameraIdEP11ChiMetadataj+0x188>
   22bb0: 55 ff ff f0  	adrp	x21, 0xd000 <_ZN8ChxUtils12FillCameraIdEP11ChiMetadataj+0xec>
   22bc4: 21 02 00 54  	b.ne	0x22c08 <_ZN8ChxUtils12FillCameraIdEP11ChiMetadataj+0x198>
   22bdc: 61 ff ff 90  	adrp	x1, 0xe000 <_ZN8ChxUtils12FillCameraIdEP11ChiMetadataj+0x11c>
   22be0: 62 ff ff b0  	adrp	x2, 0xf000 <_ZN8ChxUtils12FillCameraIdEP11ChiMetadataj+0x124>
   22be4: 65 ff ff b0  	adrp	x5, 0xf000 <_ZN8ChxUtils12FillCameraIdEP11ChiMetadataj+0x128>
   22c1c: 41 ff ff 90  	adrp	x1, 0xa000 <_ZN8ChxUtils12FillCameraIdEP11ChiMetadataj+0x14c>
   22c24: 40 ff ff f0  	adrp	x0, 0xd000 <_ZN8ChxUtils12FillCameraIdEP11ChiMetadataj+0x160>
   22c28: 63 ff ff b0  	adrp	x3, 0xf000 <_ZN8ChxUtils12FillCameraIdEP11ChiMetadataj+0x16c>
   22c2c: 45 ff ff 90  	adrp	x5, 0xa000 <_ZN8ChxUtils12FillCameraIdEP11ChiMetadataj+0x15c>
   22c48: 16 45 00 94  	bl	0x340a0 <_ZN6ChiLog9LogSystemEPKcS1_S1_S1_iS1_z@plt>
   22c4c: cd 45 00 94  	bl	0x34380 <_ZN15ExtensionModule11GetInstanceEv@plt>
   22c78: e1 00 00 54  	b.ne	0x22c94 <_ZN8ChxUtils12FillCameraIdEP11ChiMetadataj+0x224>
0000000000022c98 <_ZN8ChxUtils15GetFeatureValueEP23camera3_capture_requestPv26ChiModeFeature2SubModeType25ChiModeUsecaseSubModeTypeS3_>:
   22cbc: b1 45 00 94  	bl	0x34380 <_ZN15ExtensionModule11GetInstanceEv@plt>
   22cd4: 49 04 00 b4  	cbz	x9, 0x22d5c <_ZN8ChxUtils15GetFeatureValueEP23camera3_capture_requestPv26ChiModeFeature2SubModeType25ChiModeUsecaseSubModeTypeS3_+0xc4>
   22ce0: 61 09 00 54  	b.ne	0x22e0c <_ZN8ChxUtils15GetFeatureValueEP23camera3_capture_requestPv26ChiModeFeature2SubModeType25ChiModeUsecaseSubModeTypeS3_+0x174>
   22cf4: c1 08 00 54  	b.ne	0x22e0c <_ZN8ChxUtils15GetFeatureValueEP23camera3_capture_requestPv26ChiModeFeature2SubModeType25ChiModeUsecaseSubModeTypeS3_+0x174>
   22d04: 41 08 00 54  	b.ne	0x22e0c <_ZN8ChxUtils15GetFeatureValueEP23camera3_capture_requestPv26ChiModeFeature2SubModeType25ChiModeUsecaseSubModeTypeS3_+0x174>
   22d18: a1 07 00 54  	b.ne	0x22e0c <_ZN8ChxUtils15GetFeatureValueEP23camera3_capture_requestPv26ChiModeFeature2SubModeType25ChiModeUsecaseSubModeTypeS3_+0x174>
   22d28: 21 07 00 54  	b.ne	0x22e0c <_ZN8ChxUtils15GetFeatureValueEP23camera3_capture_requestPv26ChiModeFeature2SubModeType25ChiModeUsecaseSubModeTypeS3_+0x174>
   22d34: c0 06 00 54  	b.eq	0x22e0c <_ZN8ChxUtils15GetFeatureValueEP23camera3_capture_requestPv26ChiModeFeature2SubModeType25ChiModeUsecaseSubModeTypeS3_+0x174>
   22d38: a8 06 00 35  	cbnz	w8, 0x22e0c <_ZN8ChxUtils15GetFeatureValueEP23camera3_capture_requestPv26ChiModeFeature2SubModeType25ChiModeUsecaseSubModeTypeS3_+0x174>
   22d48: 20 06 00 54  	b.eq	0x22e0c <_ZN8ChxUtils15GetFeatureValueEP23camera3_capture_requestPv26ChiModeFeature2SubModeType25ChiModeUsecaseSubModeTypeS3_+0x174>
   22d50: e9 05 00 35  	cbnz	w9, 0x22e0c <_ZN8ChxUtils15GetFeatureValueEP23camera3_capture_requestPv26ChiModeFeature2SubModeType25ChiModeUsecaseSubModeTypeS3_+0x174>
   22d58: a4 02 00 14  	b	0x237e8 <_ZN8ChxUtils15GetFeatureValueEP23camera3_capture_requestPv26ChiModeFeature2SubModeType25ChiModeUsecaseSubModeTypeS3_+0xb50>
   22d5c: 80 00 00 f0  	adrp	x0, 0x35000 <_ZN8ChxUtils15GetFeatureValueEP23camera3_capture_requestPv26ChiModeFeature2SubModeType25ChiModeUsecaseSubModeTypeS3_+0x110>
   22d68: 28 05 00 36  	tbz	w8, #0, 0x22e0c <_ZN8ChxUtils15GetFeatureValueEP23camera3_capture_requestPv26ChiModeFeature2SubModeType25ChiModeUsecaseSubModeTypeS3_+0x174>
   22d6c: 88 00 00 f0  	adrp	x8, 0x35000 <_ZN8ChxUtils15GetFeatureValueEP23camera3_capture_requestPv26ChiModeFeature2SubModeType25ChiModeUsecaseSubModeTypeS3_+0x120>
   22d70: 57 ff ff f0  	adrp	x23, 0xd000 <_ZN8ChxUtils15GetFeatureValueEP23camera3_capture_requestPv26ChiModeFeature2SubModeType25ChiModeUsecaseSubModeTypeS3_+0x84>
   22d84: 21 02 00 54  	b.ne	0x22dc8 <_ZN8ChxUtils15GetFeatureValueEP23camera3_capture_requestPv26ChiModeFeature2SubModeType25ChiModeUsecaseSubModeTypeS3_+0x130>
   22da0: 61 ff ff 90  	adrp	x1, 0xe000 <_ZN8ChxUtils15GetFeatureValueEP23camera3_capture_requestPv26ChiModeFeature2SubModeType25ChiModeUsecaseSubModeTypeS3_+0xb8>
   22da4: 62 ff ff b0  	adrp	x2, 0xf000 <_ZN8ChxUtils15GetFeatureValueEP23camera3_capture_requestPv26ChiModeFeature2SubModeType25ChiModeUsecaseSubModeTypeS3_+0xc0>
   22da8: 45 ff ff f0  	adrp	x5, 0xd000 <_ZN8ChxUtils15GetFeatureValueEP23camera3_capture_requestPv26ChiModeFeature2SubModeType25ChiModeUsecaseSubModeTypeS3_+0xbc>
   22de4: 20 ff ff f0  	adrp	x0, 0x9000 <_ZN8ChxUtils15GetFeatureValueEP23camera3_capture_requestPv26ChiModeFeature2SubModeType25ChiModeUsecaseSubModeTypeS3_+0xe8>
   22de8: 61 ff ff 90  	adrp	x1, 0xe000 <_ZN8ChxUtils15GetFeatureValueEP23camera3_capture_requestPv26ChiModeFeature2SubModeType25ChiModeUsecaseSubModeTypeS3_+0x100>
   22dec: 43 ff ff f0  	adrp	x3, 0xd000 <_ZN8ChxUtils15GetFeatureValueEP23camera3_capture_requestPv26ChiModeFeature2SubModeType25ChiModeUsecaseSubModeTypeS3_+0x100>
   22df0: 45 ff ff f0  	adrp	x5, 0xd000 <_ZN8ChxUtils15GetFeatureValueEP23camera3_capture_requestPv26ChiModeFeature2SubModeType25ChiModeUsecaseSubModeTypeS3_+0x104>
   22e08: a6 44 00 94  	bl	0x340a0 <_ZN6ChiLog9LogSystemEPKcS1_S1_S1_iS1_z@plt>
   22e14: 21 02 00 54  	b.ne	0x22e58 <_ZN8ChxUtils15GetFeatureValueEP23camera3_capture_requestPv26ChiModeFeature2SubModeType25ChiModeUsecaseSubModeTypeS3_+0x1c0>
   22e1c: 89 02 00 34  	cbz	w9, 0x22e6c <_ZN8ChxUtils15GetFeatureValueEP23camera3_capture_requestPv26ChiModeFeature2SubModeType25ChiModeUsecaseSubModeTypeS3_+0x1d4>
   22e50: 01 ff ff 54  	b.ne	0x22e30 <_ZN8ChxUtils15GetFeatureValueEP23camera3_capture_requestPv26ChiModeFeature2SubModeType25ChiModeUsecaseSubModeTypeS3_+0x198>
   22e54: 08 00 00 14  	b	0x22e74 <_ZN8ChxUtils15GetFeatureValueEP23camera3_capture_requestPv26ChiModeFeature2SubModeType25ChiModeUsecaseSubModeTypeS3_+0x1dc>
   22e68: 60 02 00 14  	b	0x237e8 <_ZN8ChxUtils15GetFeatureValueEP23camera3_capture_requestPv26ChiModeFeature2SubModeType25ChiModeUsecaseSubModeTypeS3_+0xb50>
   22e74: d6 00 00 b0  	adrp	x22, 0x3b000 <_ZN8ChxUtils15GetFeatureValueEP23camera3_capture_requestPv26ChiModeFeature2SubModeType25ChiModeUsecaseSubModeTypeS3_+0x240>
   22e84: c8 02 00 b4  	cbz	x8, 0x22edc <_ZN8ChxUtils15GetFeatureValueEP23camera3_capture_requestPv26ChiModeFeature2SubModeType25ChiModeUsecaseSubModeTypeS3_+0x244>
   22e8c: 05 00 00 14  	b	0x22ea0 <_ZN8ChxUtils15GetFeatureValueEP23camera3_capture_requestPv26ChiModeFeature2SubModeType25ChiModeUsecaseSubModeTypeS3_+0x208>
   22e94: aa 04 00 b4  	cbz	x10, 0x22f28 <_ZN8ChxUtils15GetFeatureValueEP23camera3_capture_requestPv26ChiModeFeature2SubModeType25ChiModeUsecaseSubModeTypeS3_+0x290>
   22ea8: 4a ff ff 54  	b.ge	0x22e90 <_ZN8ChxUtils15GetFeatureValueEP23camera3_capture_requestPv26ChiModeFeature2SubModeType25ChiModeUsecaseSubModeTypeS3_+0x1f8>
   22eb0: 80 00 00 54  	b.eq	0x22ec0 <_ZN8ChxUtils15GetFeatureValueEP23camera3_capture_requestPv26ChiModeFeature2SubModeType25ChiModeUsecaseSubModeTypeS3_+0x228>
   22ebc: 0a ff ff b5  	cbnz	x10, 0x22e9c <_ZN8ChxUtils15GetFeatureValueEP23camera3_capture_requestPv26ChiModeFeature2SubModeType25ChiModeUsecaseSubModeTypeS3_+0x204>
   22ec8: 13 01 00 b4  	cbz	x19, 0x22ee8 <_ZN8ChxUtils15GetFeatureValueEP23camera3_capture_requestPv26ChiModeFeature2SubModeType25ChiModeUsecaseSubModeTypeS3_+0x250>
   22ed4: 68 04 00 54  	b.hi	0x22f60 <_ZN8ChxUtils15GetFeatureValueEP23camera3_capture_requestPv26ChiModeFeature2SubModeType25ChiModeUsecaseSubModeTypeS3_+0x2c8>
   22ed8: ad 00 00 14  	b	0x2318c <_ZN8ChxUtils15GetFeatureValueEP23camera3_capture_requestPv26ChiModeFeature2SubModeType25ChiModeUsecaseSubModeTypeS3_+0x4f4>
   22ee4: 53 ff ff b5  	cbnz	x19, 0x22ecc <_ZN8ChxUtils15GetFeatureValueEP23camera3_capture_requestPv26ChiModeFeature2SubModeType25ChiModeUsecaseSubModeTypeS3_+0x234>
   22f18: 22 01 00 b4  	cbz	x2, 0x22f3c <_ZN8ChxUtils15GetFeatureValueEP23camera3_capture_requestPv26ChiModeFeature2SubModeType25ChiModeUsecaseSubModeTypeS3_+0x2a4>
   22f24: 07 00 00 14  	b	0x22f40 <_ZN8ChxUtils15GetFeatureValueEP23camera3_capture_requestPv26ChiModeFeature2SubModeType25ChiModeUsecaseSubModeTypeS3_+0x2a8>
   22f34: d3 fc ff b5  	cbnz	x19, 0x22ecc <_ZN8ChxUtils15GetFeatureValueEP23camera3_capture_requestPv26ChiModeFeature2SubModeType25ChiModeUsecaseSubModeTypeS3_+0x234>
   22f38: ec ff ff 17  	b	0x22ee8 <_ZN8ChxUtils15GetFeatureValueEP23camera3_capture_requestPv26ChiModeFeature2SubModeType25ChiModeUsecaseSubModeTypeS3_+0x250>
   22f44: cf 12 00 94  	bl	0x27a80 <_ZN8ChxUtils11GetTotalRamEv+0x480>
   22f5c: 89 11 00 54  	b.ls	0x2318c <_ZN8ChxUtils15GetFeatureValueEP23camera3_capture_requestPv26ChiModeFeature2SubModeType25ChiModeUsecaseSubModeTypeS3_+0x4f4>
   22f68: c9 02 00 b4  	cbz	x9, 0x22fc0 <_ZN8ChxUtils15GetFeatureValueEP23camera3_capture_requestPv26ChiModeFeature2SubModeType25ChiModeUsecaseSubModeTypeS3_+0x328>
   22f70: 05 00 00 14  	b	0x22f84 <_ZN8ChxUtils15GetFeatureValueEP23camera3_capture_requestPv26ChiModeFeature2SubModeType25ChiModeUsecaseSubModeTypeS3_+0x2ec>
   22f78: ab 04 00 b4  	cbz	x11, 0x2300c <_ZN8ChxUtils15GetFeatureValueEP23camera3_capture_requestPv26ChiModeFeature2SubModeType25ChiModeUsecaseSubModeTypeS3_+0x374>
   22f8c: 4a ff ff 54  	b.ge	0x22f74 <_ZN8ChxUtils15GetFeatureValueEP23camera3_capture_requestPv26ChiModeFeature2SubModeType25ChiModeUsecaseSubModeTypeS3_+0x2dc>
   22f94: 80 00 00 54  	b.eq	0x22fa4 <_ZN8ChxUtils15GetFeatureValueEP23camera3_capture_requestPv26ChiModeFeature2SubModeType25ChiModeUsecaseSubModeTypeS3_+0x30c>
   22fa0: 0b ff ff b5  	cbnz	x11, 0x22f80 <_ZN8ChxUtils15GetFeatureValueEP23camera3_capture_requestPv26ChiModeFeature2SubModeType25ChiModeUsecaseSubModeTypeS3_+0x2e8>
   22fac: 13 01 00 b4  	cbz	x19, 0x22fcc <_ZN8ChxUtils15GetFeatureValueEP23camera3_capture_requestPv26ChiModeFeature2SubModeType25ChiModeUsecaseSubModeTypeS3_+0x334>
   22fb8: 69 04 00 54  	b.ls	0x23044 <_ZN8ChxUtils15GetFeatureValueEP23camera3_capture_requestPv26ChiModeFeature2SubModeType25ChiModeUsecaseSubModeTypeS3_+0x3ac>
   22fbc: 74 00 00 14  	b	0x2318c <_ZN8ChxUtils15GetFeatureValueEP23camera3_capture_requestPv26ChiModeFeature2SubModeType25ChiModeUsecaseSubModeTypeS3_+0x4f4>
   22fc8: 53 ff ff b5  	cbnz	x19, 0x22fb0 <_ZN8ChxUtils15GetFeatureValueEP23camera3_capture_requestPv26ChiModeFeature2SubModeType25ChiModeUsecaseSubModeTypeS3_+0x318>
   22ffc: 23 01 00 b4  	cbz	x3, 0x23020 <_ZN8ChxUtils15GetFeatureValueEP23camera3_capture_requestPv26ChiModeFeature2SubModeType25ChiModeUsecaseSubModeTypeS3_+0x388>
   23008: 07 00 00 14  	b	0x23024 <_ZN8ChxUtils15GetFeatureValueEP23camera3_capture_requestPv26ChiModeFeature2SubModeType25ChiModeUsecaseSubModeTypeS3_+0x38c>
   23018: d3 fc ff b5  	cbnz	x19, 0x22fb0 <_ZN8ChxUtils15GetFeatureValueEP23camera3_capture_requestPv26ChiModeFeature2SubModeType25ChiModeUsecaseSubModeTypeS3_+0x318>
   2301c: ec ff ff 17  	b	0x22fcc <_ZN8ChxUtils15GetFeatureValueEP23camera3_capture_requestPv26ChiModeFeature2SubModeType25ChiModeUsecaseSubModeTypeS3_+0x334>
   23028: 96 12 00 94  	bl	0x27a80 <_ZN8ChxUtils11GetTotalRamEv+0x480>
   23040: 68 0a 00 54  	b.hi	0x2318c <_ZN8ChxUtils15GetFeatureValueEP23camera3_capture_requestPv26ChiModeFeature2SubModeType25ChiModeUsecaseSubModeTypeS3_+0x4f4>
   2304c: ea 02 00 b4  	cbz	x10, 0x230a8 <_ZN8ChxUtils15GetFeatureValueEP23camera3_capture_requestPv26ChiModeFeature2SubModeType25ChiModeUsecaseSubModeTypeS3_+0x410>
   23054: 02 00 00 14  	b	0x2305c <_ZN8ChxUtils15GetFeatureValueEP23camera3_capture_requestPv26ChiModeFeature2SubModeType25ChiModeUsecaseSubModeTypeS3_+0x3c4>
   23064: ab 00 00 54  	b.lt	0x23078 <_ZN8ChxUtils15GetFeatureValueEP23camera3_capture_requestPv26ChiModeFeature2SubModeType25ChiModeUsecaseSubModeTypeS3_+0x3e0>
   2306c: 4c 04 00 b4  	cbz	x12, 0x230f4 <_ZN8ChxUtils15GetFeatureValueEP23camera3_capture_requestPv26ChiModeFeature2SubModeType25ChiModeUsecaseSubModeTypeS3_+0x45c>
   23074: f9 ff ff 17  	b	0x23058 <_ZN8ChxUtils15GetFeatureValueEP23camera3_capture_requestPv26ChiModeFeature2SubModeType25ChiModeUsecaseSubModeTypeS3_+0x3c0>
   2307c: 80 00 00 54  	b.eq	0x2308c <_ZN8ChxUtils15GetFeatureValueEP23camera3_capture_requestPv26ChiModeFeature2SubModeType25ChiModeUsecaseSubModeTypeS3_+0x3f4>
   23088: 8c fe ff b5  	cbnz	x12, 0x23058 <_ZN8ChxUtils15GetFeatureValueEP23camera3_capture_requestPv26ChiModeFeature2SubModeType25ChiModeUsecaseSubModeTypeS3_+0x3c0>
   23094: 13 01 00 b4  	cbz	x19, 0x230b4 <_ZN8ChxUtils15GetFeatureValueEP23camera3_capture_requestPv26ChiModeFeature2SubModeType25ChiModeUsecaseSubModeTypeS3_+0x41c>
   230a0: 68 04 00 54  	b.hi	0x2312c <_ZN8ChxUtils15GetFeatureValueEP23camera3_capture_requestPv26ChiModeFeature2SubModeType25ChiModeUsecaseSubModeTypeS3_+0x494>
   230a4: 3a 00 00 14  	b	0x2318c <_ZN8ChxUtils15GetFeatureValueEP23camera3_capture_requestPv26ChiModeFeature2SubModeType25ChiModeUsecaseSubModeTypeS3_+0x4f4>
   230b0: 53 ff ff b5  	cbnz	x19, 0x23098 <_ZN8ChxUtils15GetFeatureValueEP23camera3_capture_requestPv26ChiModeFeature2SubModeType25ChiModeUsecaseSubModeTypeS3_+0x400>
   230e4: 25 01 00 b4  	cbz	x5, 0x23108 <_ZN8ChxUtils15GetFeatureValueEP23camera3_capture_requestPv26ChiModeFeature2SubModeType25ChiModeUsecaseSubModeTypeS3_+0x470>
   230f0: 07 00 00 14  	b	0x2310c <_ZN8ChxUtils15GetFeatureValueEP23camera3_capture_requestPv26ChiModeFeature2SubModeType25ChiModeUsecaseSubModeTypeS3_+0x474>
   23100: d3 fc ff b5  	cbnz	x19, 0x23098 <_ZN8ChxUtils15GetFeatureValueEP23camera3_capture_requestPv26ChiModeFeature2SubModeType25ChiModeUsecaseSubModeTypeS3_+0x400>
   23104: ec ff ff 17  	b	0x230b4 <_ZN8ChxUtils15GetFeatureValueEP23camera3_capture_requestPv26ChiModeFeature2SubModeType25ChiModeUsecaseSubModeTypeS3_+0x41c>
   23110: 5c 12 00 94  	bl	0x27a80 <_ZN8ChxUtils11GetTotalRamEv+0x480>
   23128: 29 03 00 54  	b.ls	0x2318c <_ZN8ChxUtils15GetFeatureValueEP23camera3_capture_requestPv26ChiModeFeature2SubModeType25ChiModeUsecaseSubModeTypeS3_+0x4f4>
   23134: 4b 17 00 b4  	cbz	x11, 0x2341c <_ZN8ChxUtils15GetFeatureValueEP23camera3_capture_requestPv26ChiModeFeature2SubModeType25ChiModeUsecaseSubModeTypeS3_+0x784>
   2313c: 02 00 00 14  	b	0x23144 <_ZN8ChxUtils15GetFeatureValueEP23camera3_capture_requestPv26ChiModeFeature2SubModeType25ChiModeUsecaseSubModeTypeS3_+0x4ac>
   2314c: ab 00 00 54  	b.lt	0x23160 <_ZN8ChxUtils15GetFeatureValueEP23camera3_capture_requestPv26ChiModeFeature2SubModeType25ChiModeUsecaseSubModeTypeS3_+0x4c8>
   23154: 8d 1b 00 b4  	cbz	x13, 0x234c4 <_ZN8ChxUtils15GetFeatureValueEP23camera3_capture_requestPv26ChiModeFeature2SubModeType25ChiModeUsecaseSubModeTypeS3_+0x82c>
   2315c: f9 ff ff 17  	b	0x23140 <_ZN8ChxUtils15GetFeatureValueEP23camera3_capture_requestPv26ChiModeFeature2SubModeType25ChiModeUsecaseSubModeTypeS3_+0x4a8>
   23164: 80 00 00 54  	b.eq	0x23174 <_ZN8ChxUtils15GetFeatureValueEP23camera3_capture_requestPv26ChiModeFeature2SubModeType25ChiModeUsecaseSubModeTypeS3_+0x4dc>
   23170: 8d fe ff b5  	cbnz	x13, 0x23140 <_ZN8ChxUtils15GetFeatureValueEP23camera3_capture_requestPv26ChiModeFeature2SubModeType25ChiModeUsecaseSubModeTypeS3_+0x4a8>
   2317c: d3 1a 00 b4  	cbz	x19, 0x234d4 <_ZN8ChxUtils15GetFeatureValueEP23camera3_capture_requestPv26ChiModeFeature2SubModeType25ChiModeUsecaseSubModeTypeS3_+0x83c>
   23188: 09 20 00 54  	b.ls	0x23588 <_ZN8ChxUtils15GetFeatureValueEP23camera3_capture_requestPv26ChiModeFeature2SubModeType25ChiModeUsecaseSubModeTypeS3_+0x8f0>
   23194: ec 02 00 b4  	cbz	x12, 0x231f0 <_ZN8ChxUtils15GetFeatureValueEP23camera3_capture_requestPv26ChiModeFeature2SubModeType25ChiModeUsecaseSubModeTypeS3_+0x558>
   2319c: 02 00 00 14  	b	0x231a4 <_ZN8ChxUtils15GetFeatureValueEP23camera3_capture_requestPv26ChiModeFeature2SubModeType25ChiModeUsecaseSubModeTypeS3_+0x50c>
   231ac: ab 00 00 54  	b.lt	0x231c0 <_ZN8ChxUtils15GetFeatureValueEP23camera3_capture_requestPv26ChiModeFeature2SubModeType25ChiModeUsecaseSubModeTypeS3_+0x528>
   231b4: 4e 04 00 b4  	cbz	x14, 0x2323c <_ZN8ChxUtils15GetFeatureValueEP23camera3_capture_requestPv26ChiModeFeature2SubModeType25ChiModeUsecaseSubModeTypeS3_+0x5a4>
   231bc: f9 ff ff 17  	b	0x231a0 <_ZN8ChxUtils15GetFeatureValueEP23camera3_capture_requestPv26ChiModeFeature2SubModeType25ChiModeUsecaseSubModeTypeS3_+0x508>
   231c4: 80 00 00 54  	b.eq	0x231d4 <_ZN8ChxUtils15GetFeatureValueEP23camera3_capture_requestPv26ChiModeFeature2SubModeType25ChiModeUsecaseSubModeTypeS3_+0x53c>
   231d0: 8e fe ff b5  	cbnz	x14, 0x231a0 <_ZN8ChxUtils15GetFeatureValueEP23camera3_capture_requestPv26ChiModeFeature2SubModeType25ChiModeUsecaseSubModeTypeS3_+0x508>
   231dc: 13 01 00 b4  	cbz	x19, 0x231fc <_ZN8ChxUtils15GetFeatureValueEP23camera3_capture_requestPv26ChiModeFeature2SubModeType25ChiModeUsecaseSubModeTypeS3_+0x564>
   231e8: 68 04 00 54  	b.hi	0x23274 <_ZN8ChxUtils15GetFeatureValueEP23camera3_capture_requestPv26ChiModeFeature2SubModeType25ChiModeUsecaseSubModeTypeS3_+0x5dc>
   231ec: f2 00 00 14  	b	0x235b4 <_ZN8ChxUtils15GetFeatureValueEP23camera3_capture_requestPv26ChiModeFeature2SubModeType25ChiModeUsecaseSubModeTypeS3_+0x91c>
   231f8: 53 ff ff b5  	cbnz	x19, 0x231e0 <_ZN8ChxUtils15GetFeatureValueEP23camera3_capture_requestPv26ChiModeFeature2SubModeType25ChiModeUsecaseSubModeTypeS3_+0x548>
   2322c: 28 01 00 b4  	cbz	x8, 0x23250 <_ZN8ChxUtils15GetFeatureValueEP23camera3_capture_requestPv26ChiModeFeature2SubModeType25ChiModeUsecaseSubModeTypeS3_+0x5b8>
   23238: 07 00 00 14  	b	0x23254 <_ZN8ChxUtils15GetFeatureValueEP23camera3_capture_requestPv26ChiModeFeature2SubModeType25ChiModeUsecaseSubModeTypeS3_+0x5bc>
   23248: d3 fc ff b5  	cbnz	x19, 0x231e0 <_ZN8ChxUtils15GetFeatureValueEP23camera3_capture_requestPv26ChiModeFeature2SubModeType25ChiModeUsecaseSubModeTypeS3_+0x548>
   2324c: ec ff ff 17  	b	0x231fc <_ZN8ChxUtils15GetFeatureValueEP23camera3_capture_requestPv26ChiModeFeature2SubModeType25ChiModeUsecaseSubModeTypeS3_+0x564>
   23258: 0a 12 00 94  	bl	0x27a80 <_ZN8ChxUtils11GetTotalRamEv+0x480>
   23270: 29 1a 00 54  	b.ls	0x235b4 <_ZN8ChxUtils15GetFeatureValueEP23camera3_capture_requestPv26ChiModeFeature2SubModeType25ChiModeUsecaseSubModeTypeS3_+0x91c>
   2327c: ed 02 00 b4  	cbz	x13, 0x232d8 <_ZN8ChxUtils15GetFeatureValueEP23camera3_capture_requestPv26ChiModeFeature2SubModeType25ChiModeUsecaseSubModeTypeS3_+0x640>
   23284: 02 00 00 14  	b	0x2328c <_ZN8ChxUtils15GetFeatureValueEP23camera3_capture_requestPv26ChiModeFeature2SubModeType25ChiModeUsecaseSubModeTypeS3_+0x5f4>
   23294: ab 00 00 54  	b.lt	0x232a8 <_ZN8ChxUtils15GetFeatureValueEP23camera3_capture_requestPv26ChiModeFeature2SubModeType25ChiModeUsecaseSubModeTypeS3_+0x610>
   2329c: 4f 04 00 b4  	cbz	x15, 0x23324 <_ZN8ChxUtils15GetFeatureValueEP23camera3_capture_requestPv26ChiModeFeature2SubModeType25ChiModeUsecaseSubModeTypeS3_+0x68c>
   232a4: f9 ff ff 17  	b	0x23288 <_ZN8ChxUtils15GetFeatureValueEP23camera3_capture_requestPv26ChiModeFeature2SubModeType25ChiModeUsecaseSubModeTypeS3_+0x5f0>
   232ac: 80 00 00 54  	b.eq	0x232bc <_ZN8ChxUtils15GetFeatureValueEP23camera3_capture_requestPv26ChiModeFeature2SubModeType25ChiModeUsecaseSubModeTypeS3_+0x624>
   232b8: 8f fe ff b5  	cbnz	x15, 0x23288 <_ZN8ChxUtils15GetFeatureValueEP23camera3_capture_requestPv26ChiModeFeature2SubModeType25ChiModeUsecaseSubModeTypeS3_+0x5f0>
   232c4: 13 01 00 b4  	cbz	x19, 0x232e4 <_ZN8ChxUtils15GetFeatureValueEP23camera3_capture_requestPv26ChiModeFeature2SubModeType25ChiModeUsecaseSubModeTypeS3_+0x64c>
   232d0: 28 17 00 54  	b.hi	0x235b4 <_ZN8ChxUtils15GetFeatureValueEP23camera3_capture_requestPv26ChiModeFeature2SubModeType25ChiModeUsecaseSubModeTypeS3_+0x91c>
   232d4: 22 00 00 14  	b	0x2335c <_ZN8ChxUtils15GetFeatureValueEP23camera3_capture_requestPv26ChiModeFeature2SubModeType25ChiModeUsecaseSubModeTypeS3_+0x6c4>
   232e0: 53 ff ff b5  	cbnz	x19, 0x232c8 <_ZN8ChxUtils15GetFeatureValueEP23camera3_capture_requestPv26ChiModeFeature2SubModeType25ChiModeUsecaseSubModeTypeS3_+0x630>
   23314: 29 01 00 b4  	cbz	x9, 0x23338 <_ZN8ChxUtils15GetFeatureValueEP23camera3_capture_requestPv26ChiModeFeature2SubModeType25ChiModeUsecaseSubModeTypeS3_+0x6a0>
   23320: 07 00 00 14  	b	0x2333c <_ZN8ChxUtils15GetFeatureValueEP23camera3_capture_requestPv26ChiModeFeature2SubModeType25ChiModeUsecaseSubModeTypeS3_+0x6a4>
   23330: d3 fc ff b5  	cbnz	x19, 0x232c8 <_ZN8ChxUtils15GetFeatureValueEP23camera3_capture_requestPv26ChiModeFeature2SubModeType25ChiModeUsecaseSubModeTypeS3_+0x630>
   23334: ec ff ff 17  	b	0x232e4 <_ZN8ChxUtils15GetFeatureValueEP23camera3_capture_requestPv26ChiModeFeature2SubModeType25ChiModeUsecaseSubModeTypeS3_+0x64c>
   23340: d0 11 00 94  	bl	0x27a80 <_ZN8ChxUtils11GetTotalRamEv+0x480>
   23358: e8 12 00 54  	b.hi	0x235b4 <_ZN8ChxUtils15GetFeatureValueEP23camera3_capture_requestPv26ChiModeFeature2SubModeType25ChiModeUsecaseSubModeTypeS3_+0x91c>
   23364: ce 02 00 b4  	cbz	x14, 0x233bc <_ZN8ChxUtils15GetFeatureValueEP23camera3_capture_requestPv26ChiModeFeature2SubModeType25ChiModeUsecaseSubModeTypeS3_+0x724>
   2336c: 05 00 00 14  	b	0x23380 <_ZN8ChxUtils15GetFeatureValueEP23camera3_capture_requestPv26ChiModeFeature2SubModeType25ChiModeUsecaseSubModeTypeS3_+0x6e8>
   23374: b0 04 00 b4  	cbz	x16, 0x23408 <_ZN8ChxUtils15GetFeatureValueEP23camera3_capture_requestPv26ChiModeFeature2SubModeType25ChiModeUsecaseSubModeTypeS3_+0x770>
   23388: 4a ff ff 54  	b.ge	0x23370 <_ZN8ChxUtils15GetFeatureValueEP23camera3_capture_requestPv26ChiModeFeature2SubModeType25ChiModeUsecaseSubModeTypeS3_+0x6d8>
   23390: 80 00 00 54  	b.eq	0x233a0 <_ZN8ChxUtils15GetFeatureValueEP23camera3_capture_requestPv26ChiModeFeature2SubModeType25ChiModeUsecaseSubModeTypeS3_+0x708>
   2339c: 10 ff ff b5  	cbnz	x16, 0x2337c <_ZN8ChxUtils15GetFeatureValueEP23camera3_capture_requestPv26ChiModeFeature2SubModeType25ChiModeUsecaseSubModeTypeS3_+0x6e4>
   233a8: 13 01 00 b4  	cbz	x19, 0x233c8 <_ZN8ChxUtils15GetFeatureValueEP23camera3_capture_requestPv26ChiModeFeature2SubModeType25ChiModeUsecaseSubModeTypeS3_+0x730>
   233b4: 03 10 00 54  	b.lo	0x235b4 <_ZN8ChxUtils15GetFeatureValueEP23camera3_capture_requestPv26ChiModeFeature2SubModeType25ChiModeUsecaseSubModeTypeS3_+0x91c>
   233b8: 26 00 00 14  	b	0x23450 <_ZN8ChxUtils15GetFeatureValueEP23camera3_capture_requestPv26ChiModeFeature2SubModeType25ChiModeUsecaseSubModeTypeS3_+0x7b8>
   233c4: 53 ff ff b5  	cbnz	x19, 0x233ac <_ZN8ChxUtils15GetFeatureValueEP23camera3_capture_requestPv26ChiModeFeature2SubModeType25ChiModeUsecaseSubModeTypeS3_+0x714>
   233f8: aa 01 00 b4  	cbz	x10, 0x2342c <_ZN8ChxUtils15GetFeatureValueEP23camera3_capture_requestPv26ChiModeFeature2SubModeType25ChiModeUsecaseSubModeTypeS3_+0x794>
   23404: 0b 00 00 14  	b	0x23430 <_ZN8ChxUtils15GetFeatureValueEP23camera3_capture_requestPv26ChiModeFeature2SubModeType25ChiModeUsecaseSubModeTypeS3_+0x798>
   23414: d3 fc ff b5  	cbnz	x19, 0x233ac <_ZN8ChxUtils15GetFeatureValueEP23camera3_capture_requestPv26ChiModeFeature2SubModeType25ChiModeUsecaseSubModeTypeS3_+0x714>
   23418: ec ff ff 17  	b	0x233c8 <_ZN8ChxUtils15GetFeatureValueEP23camera3_capture_requestPv26ChiModeFeature2SubModeType25ChiModeUsecaseSubModeTypeS3_+0x730>
   23424: f3 ea ff b5  	cbnz	x19, 0x23180 <_ZN8ChxUtils15GetFeatureValueEP23camera3_capture_requestPv26ChiModeFeature2SubModeType25ChiModeUsecaseSubModeTypeS3_+0x4e8>
   23428: 2b 00 00 14  	b	0x234d4 <_ZN8ChxUtils15GetFeatureValueEP23camera3_capture_requestPv26ChiModeFeature2SubModeType25ChiModeUsecaseSubModeTypeS3_+0x83c>
   23434: 93 11 00 94  	bl	0x27a80 <_ZN8ChxUtils11GetTotalRamEv+0x480>
   2344c: 43 0b 00 54  	b.lo	0x235b4 <_ZN8ChxUtils15GetFeatureValueEP23camera3_capture_requestPv26ChiModeFeature2SubModeType25ChiModeUsecaseSubModeTypeS3_+0x91c>
   23458: ef 02 00 b4  	cbz	x15, 0x234b4 <_ZN8ChxUtils15GetFeatureValueEP23camera3_capture_requestPv26ChiModeFeature2SubModeType25ChiModeUsecaseSubModeTypeS3_+0x81c>
   23460: 02 00 00 14  	b	0x23468 <_ZN8ChxUtils15GetFeatureValueEP23camera3_capture_requestPv26ChiModeFeature2SubModeType25ChiModeUsecaseSubModeTypeS3_+0x7d0>
   23470: ab 00 00 54  	b.lt	0x23484 <_ZN8ChxUtils15GetFeatureValueEP23camera3_capture_requestPv26ChiModeFeature2SubModeType25ChiModeUsecaseSubModeTypeS3_+0x7ec>
   23478: f1 04 00 b4  	cbz	x17, 0x23514 <_ZN8ChxUtils15GetFeatureValueEP23camera3_capture_requestPv26ChiModeFeature2SubModeType25ChiModeUsecaseSubModeTypeS3_+0x87c>
   23480: f9 ff ff 17  	b	0x23464 <_ZN8ChxUtils15GetFeatureValueEP23camera3_capture_requestPv26ChiModeFeature2SubModeType25ChiModeUsecaseSubModeTypeS3_+0x7cc>
   23488: 80 00 00 54  	b.eq	0x23498 <_ZN8ChxUtils15GetFeatureValueEP23camera3_capture_requestPv26ChiModeFeature2SubModeType25ChiModeUsecaseSubModeTypeS3_+0x800>
   23494: 91 fe ff b5  	cbnz	x17, 0x23464 <_ZN8ChxUtils15GetFeatureValueEP23camera3_capture_requestPv26ChiModeFeature2SubModeType25ChiModeUsecaseSubModeTypeS3_+0x7cc>
   234a0: 33 04 00 b4  	cbz	x19, 0x23524 <_ZN8ChxUtils15GetFeatureValueEP23camera3_capture_requestPv26ChiModeFeature2SubModeType25ChiModeUsecaseSubModeTypeS3_+0x88c>
   234ac: 42 08 00 54  	b.hs	0x235b4 <_ZN8ChxUtils15GetFeatureValueEP23camera3_capture_requestPv26ChiModeFeature2SubModeType25ChiModeUsecaseSubModeTypeS3_+0x91c>
   234b0: cd 00 00 14  	b	0x237e4 <_ZN8ChxUtils15GetFeatureValueEP23camera3_capture_requestPv26ChiModeFeature2SubModeType25ChiModeUsecaseSubModeTypeS3_+0xb4c>
   234bc: 53 ff ff b5  	cbnz	x19, 0x234a4 <_ZN8ChxUtils15GetFeatureValueEP23camera3_capture_requestPv26ChiModeFeature2SubModeType25ChiModeUsecaseSubModeTypeS3_+0x80c>
   234c0: 19 00 00 14  	b	0x23524 <_ZN8ChxUtils15GetFeatureValueEP23camera3_capture_requestPv26ChiModeFeature2SubModeType25ChiModeUsecaseSubModeTypeS3_+0x88c>
   234d0: 93 e5 ff b5  	cbnz	x19, 0x23180 <_ZN8ChxUtils15GetFeatureValueEP23camera3_capture_requestPv26ChiModeFeature2SubModeType25ChiModeUsecaseSubModeTypeS3_+0x4e8>
   23504: 00 03 00 b4  	cbz	x0, 0x23564 <_ZN8ChxUtils15GetFeatureValueEP23camera3_capture_requestPv26ChiModeFeature2SubModeType25ChiModeUsecaseSubModeTypeS3_+0x8cc>
   23510: 16 00 00 14  	b	0x23568 <_ZN8ChxUtils15GetFeatureValueEP23camera3_capture_requestPv26ChiModeFeature2SubModeType25ChiModeUsecaseSubModeTypeS3_+0x8d0>
   23520: 33 fc ff b5  	cbnz	x19, 0x234a4 <_ZN8ChxUtils15GetFeatureValueEP23camera3_capture_requestPv26ChiModeFeature2SubModeType25ChiModeUsecaseSubModeTypeS3_+0x80c>
   23554: eb 01 00 b4  	cbz	x11, 0x23590 <_ZN8ChxUtils15GetFeatureValueEP23camera3_capture_requestPv26ChiModeFeature2SubModeType25ChiModeUsecaseSubModeTypeS3_+0x8f8>
   23560: 0d 00 00 14  	b	0x23594 <_ZN8ChxUtils15GetFeatureValueEP23camera3_capture_requestPv26ChiModeFeature2SubModeType25ChiModeUsecaseSubModeTypeS3_+0x8fc>
   2356c: 45 11 00 94  	bl	0x27a80 <_ZN8ChxUtils11GetTotalRamEv+0x480>
   23584: 48 e0 ff 54  	b.hi	0x2318c <_ZN8ChxUtils15GetFeatureValueEP23camera3_capture_requestPv26ChiModeFeature2SubModeType25ChiModeUsecaseSubModeTypeS3_+0x4f4>
   2358c: 97 00 00 14  	b	0x237e8 <_ZN8ChxUtils15GetFeatureValueEP23camera3_capture_requestPv26ChiModeFeature2SubModeType25ChiModeUsecaseSubModeTypeS3_+0xb50>
   23598: 3a 11 00 94  	bl	0x27a80 <_ZN8ChxUtils11GetTotalRamEv+0x480>
   235b0: a3 11 00 54  	b.lo	0x237e4 <_ZN8ChxUtils15GetFeatureValueEP23camera3_capture_requestPv26ChiModeFeature2SubModeType25ChiModeUsecaseSubModeTypeS3_+0xb4c>
   235bc: f0 02 00 b4  	cbz	x16, 0x23618 <_ZN8ChxUtils15GetFeatureValueEP23camera3_capture_requestPv26ChiModeFeature2SubModeType25ChiModeUsecaseSubModeTypeS3_+0x980>
   235c4: 02 00 00 14  	b	0x235cc <_ZN8ChxUtils15GetFeatureValueEP23camera3_capture_requestPv26ChiModeFeature2SubModeType25ChiModeUsecaseSubModeTypeS3_+0x934>
   235d4: ab 00 00 54  	b.lt	0x235e8 <_ZN8ChxUtils15GetFeatureValueEP23camera3_capture_requestPv26ChiModeFeature2SubModeType25ChiModeUsecaseSubModeTypeS3_+0x950>
   235dc: 44 04 00 b4  	cbz	x4, 0x23664 <_ZN8ChxUtils15GetFeatureValueEP23camera3_capture_requestPv26ChiModeFeature2SubModeType25ChiModeUsecaseSubModeTypeS3_+0x9cc>
   235e4: f9 ff ff 17  	b	0x235c8 <_ZN8ChxUtils15GetFeatureValueEP23camera3_capture_requestPv26ChiModeFeature2SubModeType25ChiModeUsecaseSubModeTypeS3_+0x930>
   235ec: 80 00 00 54  	b.eq	0x235fc <_ZN8ChxUtils15GetFeatureValueEP23camera3_capture_requestPv26ChiModeFeature2SubModeType25ChiModeUsecaseSubModeTypeS3_+0x964>
   235f8: 84 fe ff b5  	cbnz	x4, 0x235c8 <_ZN8ChxUtils15GetFeatureValueEP23camera3_capture_requestPv26ChiModeFeature2SubModeType25ChiModeUsecaseSubModeTypeS3_+0x930>
   23604: 13 01 00 b4  	cbz	x19, 0x23624 <_ZN8ChxUtils15GetFeatureValueEP23camera3_capture_requestPv26ChiModeFeature2SubModeType25ChiModeUsecaseSubModeTypeS3_+0x98c>
   23610: a3 0e 00 54  	b.lo	0x237e4 <_ZN8ChxUtils15GetFeatureValueEP23camera3_capture_requestPv26ChiModeFeature2SubModeType25ChiModeUsecaseSubModeTypeS3_+0xb4c>
   23614: 22 00 00 14  	b	0x2369c <_ZN8ChxUtils15GetFeatureValueEP23camera3_capture_requestPv26ChiModeFeature2SubModeType25ChiModeUsecaseSubModeTypeS3_+0xa04>
   23620: 53 ff ff b5  	cbnz	x19, 0x23608 <_ZN8ChxUtils15GetFeatureValueEP23camera3_capture_requestPv26ChiModeFeature2SubModeType25ChiModeUsecaseSubModeTypeS3_+0x970>
   23654: 2c 01 00 b4  	cbz	x12, 0x23678 <_ZN8ChxUtils15GetFeatureValueEP23camera3_capture_requestPv26ChiModeFeature2SubModeType25ChiModeUsecaseSubModeTypeS3_+0x9e0>
   23660: 07 00 00 14  	b	0x2367c <_ZN8ChxUtils15GetFeatureValueEP23camera3_capture_requestPv26ChiModeFeature2SubModeType25ChiModeUsecaseSubModeTypeS3_+0x9e4>
   23670: d3 fc ff b5  	cbnz	x19, 0x23608 <_ZN8ChxUtils15GetFeatureValueEP23camera3_capture_requestPv26ChiModeFeature2SubModeType25ChiModeUsecaseSubModeTypeS3_+0x970>
   23674: ec ff ff 17  	b	0x23624 <_ZN8ChxUtils15GetFeatureValueEP23camera3_capture_requestPv26ChiModeFeature2SubModeType25ChiModeUsecaseSubModeTypeS3_+0x98c>
   23680: 00 11 00 94  	bl	0x27a80 <_ZN8ChxUtils11GetTotalRamEv+0x480>
   23698: 63 0a 00 54  	b.lo	0x237e4 <_ZN8ChxUtils15GetFeatureValueEP23camera3_capture_requestPv26ChiModeFeature2SubModeType25ChiModeUsecaseSubModeTypeS3_+0xb4c>
   236a4: 71 05 00 b4  	cbz	x17, 0x23750 <_ZN8ChxUtils15GetFeatureValueEP23camera3_capture_requestPv26ChiModeFeature2SubModeType25ChiModeUsecaseSubModeTypeS3_+0xab8>
   236ac: 02 00 00 14  	b	0x236b4 <_ZN8ChxUtils15GetFeatureValueEP23camera3_capture_requestPv26ChiModeFeature2SubModeType25ChiModeUsecaseSubModeTypeS3_+0xa1c>
   236bc: ab 00 00 54  	b.lt	0x236d0 <_ZN8ChxUtils15GetFeatureValueEP23camera3_capture_requestPv26ChiModeFeature2SubModeType25ChiModeUsecaseSubModeTypeS3_+0xa38>
   236c4: c6 06 00 b4  	cbz	x6, 0x2379c <_ZN8ChxUtils15GetFeatureValueEP23camera3_capture_requestPv26ChiModeFeature2SubModeType25ChiModeUsecaseSubModeTypeS3_+0xb04>
   236cc: f9 ff ff 17  	b	0x236b0 <_ZN8ChxUtils15GetFeatureValueEP23camera3_capture_requestPv26ChiModeFeature2SubModeType25ChiModeUsecaseSubModeTypeS3_+0xa18>
   236d4: 80 00 00 54  	b.eq	0x236e4 <_ZN8ChxUtils15GetFeatureValueEP23camera3_capture_requestPv26ChiModeFeature2SubModeType25ChiModeUsecaseSubModeTypeS3_+0xa4c>
   236e0: 86 fe ff b5  	cbnz	x6, 0x236b0 <_ZN8ChxUtils15GetFeatureValueEP23camera3_capture_requestPv26ChiModeFeature2SubModeType25ChiModeUsecaseSubModeTypeS3_+0xa18>
   236ec: 93 03 00 b4  	cbz	x19, 0x2375c <_ZN8ChxUtils15GetFeatureValueEP23camera3_capture_requestPv26ChiModeFeature2SubModeType25ChiModeUsecaseSubModeTypeS3_+0xac4>
   236f8: 62 07 00 54  	b.hs	0x237e4 <_ZN8ChxUtils15GetFeatureValueEP23camera3_capture_requestPv26ChiModeFeature2SubModeType25ChiModeUsecaseSubModeTypeS3_+0xb4c>
   23704: 61 05 00 b4  	cbz	x1, 0x237b0 <_ZN8ChxUtils15GetFeatureValueEP23camera3_capture_requestPv26ChiModeFeature2SubModeType25ChiModeUsecaseSubModeTypeS3_+0xb18>
   2370c: 05 00 00 14  	b	0x23720 <_ZN8ChxUtils15GetFeatureValueEP23camera3_capture_requestPv26ChiModeFeature2SubModeType25ChiModeUsecaseSubModeTypeS3_+0xa88>
   23714: 67 07 00 b4  	cbz	x7, 0x23800 <_ZN8ChxUtils15GetFeatureValueEP23camera3_capture_requestPv26ChiModeFeature2SubModeType25ChiModeUsecaseSubModeTypeS3_+0xb68>
   23728: 4a ff ff 54  	b.ge	0x23710 <_ZN8ChxUtils15GetFeatureValueEP23camera3_capture_requestPv26ChiModeFeature2SubModeType25ChiModeUsecaseSubModeTypeS3_+0xa78>
   23730: 80 00 00 54  	b.eq	0x23740 <_ZN8ChxUtils15GetFeatureValueEP23camera3_capture_requestPv26ChiModeFeature2SubModeType25ChiModeUsecaseSubModeTypeS3_+0xaa8>
   2373c: 07 ff ff b5  	cbnz	x7, 0x2371c <_ZN8ChxUtils15GetFeatureValueEP23camera3_capture_requestPv26ChiModeFeature2SubModeType25ChiModeUsecaseSubModeTypeS3_+0xa84>
   23748: 13 09 00 b5  	cbnz	x19, 0x23868 <_ZN8ChxUtils15GetFeatureValueEP23camera3_capture_requestPv26ChiModeFeature2SubModeType25ChiModeUsecaseSubModeTypeS3_+0xbd0>
   2374c: 31 00 00 14  	b	0x23810 <_ZN8ChxUtils15GetFeatureValueEP23camera3_capture_requestPv26ChiModeFeature2SubModeType25ChiModeUsecaseSubModeTypeS3_+0xb78>
   23758: d3 fc ff b5  	cbnz	x19, 0x236f0 <_ZN8ChxUtils15GetFeatureValueEP23camera3_capture_requestPv26ChiModeFeature2SubModeType25ChiModeUsecaseSubModeTypeS3_+0xa58>
   2378c: ad 01 00 b4  	cbz	x13, 0x237c0 <_ZN8ChxUtils15GetFeatureValueEP23camera3_capture_requestPv26ChiModeFeature2SubModeType25ChiModeUsecaseSubModeTypeS3_+0xb28>
   23798: 0b 00 00 14  	b	0x237c4 <_ZN8ChxUtils15GetFeatureValueEP23camera3_capture_requestPv26ChiModeFeature2SubModeType25ChiModeUsecaseSubModeTypeS3_+0xb2c>
   237a8: 53 fa ff b5  	cbnz	x19, 0x236f0 <_ZN8ChxUtils15GetFeatureValueEP23camera3_capture_requestPv26ChiModeFeature2SubModeType25ChiModeUsecaseSubModeTypeS3_+0xa58>
   237ac: ec ff ff 17  	b	0x2375c <_ZN8ChxUtils15GetFeatureValueEP23camera3_capture_requestPv26ChiModeFeature2SubModeType25ChiModeUsecaseSubModeTypeS3_+0xac4>
   237b8: 93 05 00 b5  	cbnz	x19, 0x23868 <_ZN8ChxUtils15GetFeatureValueEP23camera3_capture_requestPv26ChiModeFeature2SubModeType25ChiModeUsecaseSubModeTypeS3_+0xbd0>
   237bc: 15 00 00 14  	b	0x23810 <_ZN8ChxUtils15GetFeatureValueEP23camera3_capture_requestPv26ChiModeFeature2SubModeType25ChiModeUsecaseSubModeTypeS3_+0xb78>
   237c8: ae 10 00 94  	bl	0x27a80 <_ZN8ChxUtils11GetTotalRamEv+0x480>
   237e0: e3 f8 ff 54  	b.lo	0x236fc <_ZN8ChxUtils15GetFeatureValueEP23camera3_capture_requestPv26ChiModeFeature2SubModeType25ChiModeUsecaseSubModeTypeS3_+0xa64>
   2380c: f3 02 00 b5  	cbnz	x19, 0x23868 <_ZN8ChxUtils15GetFeatureValueEP23camera3_capture_requestPv26ChiModeFeature2SubModeType25ChiModeUsecaseSubModeTypeS3_+0xbd0>
   23840: 8e 00 00 b4  	cbz	x14, 0x23850 <_ZN8ChxUtils15GetFeatureValueEP23camera3_capture_requestPv26ChiModeFeature2SubModeType25ChiModeUsecaseSubModeTypeS3_+0xbb8>
   2384c: 02 00 00 14  	b	0x23854 <_ZN8ChxUtils15GetFeatureValueEP23camera3_capture_requestPv26ChiModeFeature2SubModeType25ChiModeUsecaseSubModeTypeS3_+0xbbc>
   23858: 8a 10 00 94  	bl	0x27a80 <_ZN8ChxUtils11GetTotalRamEv+0x480>
   23874: a3 fb ff 54  	b.lo	0x237e8 <_ZN8ChxUtils15GetFeatureValueEP23camera3_capture_requestPv26ChiModeFeature2SubModeType25ChiModeUsecaseSubModeTypeS3_+0xb50>
   23880: 62 02 00 b4  	cbz	x2, 0x238cc <_ZN8ChxUtils15GetFeatureValueEP23camera3_capture_requestPv26ChiModeFeature2SubModeType25ChiModeUsecaseSubModeTypeS3_+0xc34>
   23888: 05 00 00 14  	b	0x2389c <_ZN8ChxUtils15GetFeatureValueEP23camera3_capture_requestPv26ChiModeFeature2SubModeType25ChiModeUsecaseSubModeTypeS3_+0xc04>
   23890: 61 02 00 b4  	cbz	x1, 0x238dc <_ZN8ChxUtils15GetFeatureValueEP23camera3_capture_requestPv26ChiModeFeature2SubModeType25ChiModeUsecaseSubModeTypeS3_+0xc44>
   238a4: 4a ff ff 54  	b.ge	0x2388c <_ZN8ChxUtils15GetFeatureValueEP23camera3_capture_requestPv26ChiModeFeature2SubModeType25ChiModeUsecaseSubModeTypeS3_+0xbf4>
   238ac: 80 00 00 54  	b.eq	0x238bc <_ZN8ChxUtils15GetFeatureValueEP23camera3_capture_requestPv26ChiModeFeature2SubModeType25ChiModeUsecaseSubModeTypeS3_+0xc24>
   238b8: 01 ff ff b5  	cbnz	x1, 0x23898 <_ZN8ChxUtils15GetFeatureValueEP23camera3_capture_requestPv26ChiModeFeature2SubModeType25ChiModeUsecaseSubModeTypeS3_+0xc00>
   238c4: 14 04 00 b5  	cbnz	x20, 0x23944 <_ZN8ChxUtils15GetFeatureValueEP23camera3_capture_requestPv26ChiModeFeature2SubModeType25ChiModeUsecaseSubModeTypeS3_+0xcac>
   238c8: 09 00 00 14  	b	0x238ec <_ZN8ChxUtils15GetFeatureValueEP23camera3_capture_requestPv26ChiModeFeature2SubModeType25ChiModeUsecaseSubModeTypeS3_+0xc54>
   238d4: 94 03 00 b5  	cbnz	x20, 0x23944 <_ZN8ChxUtils15GetFeatureValueEP23camera3_capture_requestPv26ChiModeFeature2SubModeType25ChiModeUsecaseSubModeTypeS3_+0xcac>
   238d8: 05 00 00 14  	b	0x238ec <_ZN8ChxUtils15GetFeatureValueEP23camera3_capture_requestPv26ChiModeFeature2SubModeType25ChiModeUsecaseSubModeTypeS3_+0xc54>
   238e8: f4 02 00 b5  	cbnz	x20, 0x23944 <_ZN8ChxUtils15GetFeatureValueEP23camera3_capture_requestPv26ChiModeFeature2SubModeType25ChiModeUsecaseSubModeTypeS3_+0xcac>
   2391c: 8f 00 00 b4  	cbz	x15, 0x2392c <_ZN8ChxUtils15GetFeatureValueEP23camera3_capture_requestPv26ChiModeFeature2SubModeType25ChiModeUsecaseSubModeTypeS3_+0xc94>
   23928: 02 00 00 14  	b	0x23930 <_ZN8ChxUtils15GetFeatureValueEP23camera3_capture_requestPv26ChiModeFeature2SubModeType25ChiModeUsecaseSubModeTypeS3_+0xc98>
   23934: 53 10 00 94  	bl	0x27a80 <_ZN8ChxUtils11GetTotalRamEv+0x480>
   23954: a5 ff ff 17  	b	0x237e8 <_ZN8ChxUtils15GetFeatureValueEP23camera3_capture_requestPv26ChiModeFeature2SubModeType25ChiModeUsecaseSubModeTypeS3_+0xb50>
0000000000023958 <_ZN8ChxUtils28FillTuningModeDataThirdPartyEP11ChiMetadataP23camera3_capture_requestjPjS4_S4_S4_S4_>:
   23984: e0 25 00 b4  	cbz	x0, 0x23e40 <_ZN8ChxUtils28FillTuningModeDataThirdPartyEP11ChiMetadataP23camera3_capture_requestjPjS4_S4_S4_S4_+0x4e8>
   2398c: 85 00 00 d0  	adrp	x5, 0x35000 <_ZN8ChxUtils28FillTuningModeDataThirdPartyEP11ChiMetadataP23camera3_capture_requestjPjS4_S4_S4_S4_+0x7c>
   239cc: 68 05 30 36  	tbz	w8, #6, 0x23a78 <_ZN8ChxUtils28FillTuningModeDataThirdPartyEP11ChiMetadataP23camera3_capture_requestjPjS4_S4_S4_S4_+0x120>
   239d0: 82 00 00 d0  	adrp	x2, 0x35000 <_ZN8ChxUtils28FillTuningModeDataThirdPartyEP11ChiMetadataP23camera3_capture_requestjPjS4_S4_S4_S4_+0xc0>
   239e0: 61 02 00 54  	b.ne	0x23a2c <_ZN8ChxUtils28FillTuningModeDataThirdPartyEP11ChiMetadataP23camera3_capture_requestjPjS4_S4_S4_S4_+0xd4>
   239e4: 57 ff ff d0  	adrp	x23, 0xd000 <_ZN8ChxUtils28FillTuningModeDataThirdPartyEP11ChiMetadataP23camera3_capture_requestjPjS4_S4_S4_S4_+0x34>
   23a00: 41 ff ff f0  	adrp	x1, 0xe000 <_ZN8ChxUtils28FillTuningModeDataThirdPartyEP11ChiMetadataP23camera3_capture_requestjPjS4_S4_S4_S4_+0x54>
   23a04: 42 ff ff d0  	adrp	x2, 0xd000 <_ZN8ChxUtils28FillTuningModeDataThirdPartyEP11ChiMetadataP23camera3_capture_requestjPjS4_S4_S4_S4_+0x54>
   23a08: 45 ff ff d0  	adrp	x5, 0xd000 <_ZN8ChxUtils28FillTuningModeDataThirdPartyEP11ChiMetadataP23camera3_capture_requestjPjS4_S4_S4_S4_+0x58>
   23a2c: 57 ff ff d0  	adrp	x23, 0xd000 <_ZN8ChxUtils28FillTuningModeDataThirdPartyEP11ChiMetadataP23camera3_capture_requestjPjS4_S4_S4_S4_+0x7c>
   23a48: 21 ff ff f0  	adrp	x1, 0xa000 <_ZN8ChxUtils28FillTuningModeDataThirdPartyEP11ChiMetadataP23camera3_capture_requestjPjS4_S4_S4_S4_+0x8c>
   23a50: 40 ff ff d0  	adrp	x0, 0xd000 <_ZN8ChxUtils28FillTuningModeDataThirdPartyEP11ChiMetadataP23camera3_capture_requestjPjS4_S4_S4_S4_+0xa0>
   23a54: 43 ff ff d0  	adrp	x3, 0xd000 <_ZN8ChxUtils28FillTuningModeDataThirdPartyEP11ChiMetadataP23camera3_capture_requestjPjS4_S4_S4_S4_+0xa4>
   23a58: 25 ff ff f0  	adrp	x5, 0xa000 <_ZN8ChxUtils28FillTuningModeDataThirdPartyEP11ChiMetadataP23camera3_capture_requestjPjS4_S4_S4_S4_+0x9c>
   23a74: 8b 41 00 94  	bl	0x340a0 <_ZN6ChiLog9LogSystemEPKcS1_S1_S1_iS1_z@plt>
   23a78: 2c ff ff d0  	adrp	x12, 0x9000 <_ZN8ChxUtils28FillTuningModeDataThirdPartyEP11ChiMetadataP23camera3_capture_requestjPjS4_S4_S4_S4_+0xb8>
   23aa0: 58 43 00 94  	bl	0x34800 <_ZN8ChxUtils14GetUsecaseModeEP23camera3_capture_request@plt>
   23ab0: 34 42 00 94  	bl	0x34380 <_ZN15ExtensionModule11GetInstanceEv@plt>
   23ad4: 08 01 00 b4  	cbz	x8, 0x23af4 <_ZN8ChxUtils28FillTuningModeDataThirdPartyEP11ChiMetadataP23camera3_capture_requestjPjS4_S4_S4_S4_+0x19c>
   23ae0: 84 00 00 d0  	adrp	x4, 0x35000 <_ZN8ChxUtils28FillTuningModeDataThirdPartyEP11ChiMetadataP23camera3_capture_requestjPjS4_S4_S4_S4_+0x1d0>
   23aec: ec 00 30 37  	tbnz	w12, #6, 0x23b08 <_ZN8ChxUtils28FillTuningModeDataThirdPartyEP11ChiMetadataP23camera3_capture_requestjPjS4_S4_S4_S4_+0x1b0>
   23af0: 30 00 00 14  	b	0x23bb0 <_ZN8ChxUtils28FillTuningModeDataThirdPartyEP11ChiMetadataP23camera3_capture_requestjPjS4_S4_S4_S4_+0x258>
   23af8: 84 00 00 d0  	adrp	x4, 0x35000 <_ZN8ChxUtils28FillTuningModeDataThirdPartyEP11ChiMetadataP23camera3_capture_requestjPjS4_S4_S4_S4_+0x1e8>
   23b04: 6c 05 30 36  	tbz	w12, #6, 0x23bb0 <_ZN8ChxUtils28FillTuningModeDataThirdPartyEP11ChiMetadataP23camera3_capture_requestjPjS4_S4_S4_S4_+0x258>
   23b08: 91 00 00 d0  	adrp	x17, 0x35000 <_ZN8ChxUtils28FillTuningModeDataThirdPartyEP11ChiMetadataP23camera3_capture_requestjPjS4_S4_S4_S4_+0x1f8>
   23b18: 61 02 00 54  	b.ne	0x23b64 <_ZN8ChxUtils28FillTuningModeDataThirdPartyEP11ChiMetadataP23camera3_capture_requestjPjS4_S4_S4_S4_+0x20c>
   23b1c: 59 ff ff d0  	adrp	x25, 0xd000 <_ZN8ChxUtils28FillTuningModeDataThirdPartyEP11ChiMetadataP23camera3_capture_requestjPjS4_S4_S4_S4_+0x16c>
   23b38: 41 ff ff f0  	adrp	x1, 0xe000 <_ZN8ChxUtils28FillTuningModeDataThirdPartyEP11ChiMetadataP23camera3_capture_requestjPjS4_S4_S4_S4_+0x18c>
   23b3c: 62 ff ff 90  	adrp	x2, 0xf000 <_ZN8ChxUtils28FillTuningModeDataThirdPartyEP11ChiMetadataP23camera3_capture_requestjPjS4_S4_S4_S4_+0x194>
   23b40: 45 ff ff b0  	adrp	x5, 0xc000 <_ZN8ChxUtils28FillTuningModeDataThirdPartyEP11ChiMetadataP23camera3_capture_requestjPjS4_S4_S4_S4_+0x18c>
   23b64: 59 ff ff d0  	adrp	x25, 0xd000 <_ZN8ChxUtils28FillTuningModeDataThirdPartyEP11ChiMetadataP23camera3_capture_requestjPjS4_S4_S4_S4_+0x1b4>
   23b80: 21 ff ff f0  	adrp	x1, 0xa000 <_ZN8ChxUtils28FillTuningModeDataThirdPartyEP11ChiMetadataP23camera3_capture_requestjPjS4_S4_S4_S4_+0x1c4>
   23b88: 40 ff ff d0  	adrp	x0, 0xd000 <_ZN8ChxUtils28FillTuningModeDataThirdPartyEP11ChiMetadataP23camera3_capture_requestjPjS4_S4_S4_S4_+0x1d8>
   23b8c: 43 ff ff b0  	adrp	x3, 0xc000 <_ZN8ChxUtils28FillTuningModeDataThirdPartyEP11ChiMetadataP23camera3_capture_requestjPjS4_S4_S4_S4_+0x1d8>
   23b90: 25 ff ff f0  	adrp	x5, 0xa000 <_ZN8ChxUtils28FillTuningModeDataThirdPartyEP11ChiMetadataP23camera3_capture_requestjPjS4_S4_S4_S4_+0x1d4>
   23bac: 3d 41 00 94  	bl	0x340a0 <_ZN6ChiLog9LogSystemEPKcS1_S1_S1_iS1_z@plt>
   23bc0: 48 16 00 54  	b.hi	0x23e88 <_ZN8ChxUtils28FillTuningModeDataThirdPartyEP11ChiMetadataP23camera3_capture_requestjPjS4_S4_S4_S4_+0x530>
   23bd4: 40 01 00 54  	b.eq	0x23bfc <_ZN8ChxUtils28FillTuningModeDataThirdPartyEP11ChiMetadataP23camera3_capture_requestjPjS4_S4_S4_S4_+0x2a4>
   23be8: 0a 43 00 94  	bl	0x34810 <_ZN8ChxUtils15GetFeatureValueEP23camera3_capture_requestPv26ChiModeFeature2SubModeType25ChiModeUsecaseSubModeTypeS3_@plt>
   23bf0: d7 01 00 35  	cbnz	w23, 0x23c28 <_ZN8ChxUtils28FillTuningModeDataThirdPartyEP11ChiMetadataP23camera3_capture_requestjPjS4_S4_S4_S4_+0x2d0>
   23bf8: 0c 00 00 14  	b	0x23c28 <_ZN8ChxUtils28FillTuningModeDataThirdPartyEP11ChiMetadataP23camera3_capture_requestjPjS4_S4_S4_S4_+0x2d0>
   23c00: 60 00 00 54  	b.eq	0x23c0c <_ZN8ChxUtils28FillTuningModeDataThirdPartyEP11ChiMetadataP23camera3_capture_requestjPjS4_S4_S4_S4_+0x2b4>
   23c08: 01 14 00 54  	b.ne	0x23e88 <_ZN8ChxUtils28FillTuningModeDataThirdPartyEP11ChiMetadataP23camera3_capture_requestjPjS4_S4_S4_S4_+0x530>
   23c20: fc 42 00 94  	bl	0x34810 <_ZN8ChxUtils15GetFeatureValueEP23camera3_capture_requestPv26ChiModeFeature2SubModeType25ChiModeUsecaseSubModeTypeS3_@plt>
   23c54: 09 02 00 b4  	cbz	x9, 0x23c94 <_ZN8ChxUtils28FillTuningModeDataThirdPartyEP11ChiMetadataP23camera3_capture_requestjPjS4_S4_S4_S4_+0x33c>
   23c80: a1 00 00 54  	b.ne	0x23c94 <_ZN8ChxUtils28FillTuningModeDataThirdPartyEP11ChiMetadataP23camera3_capture_requestjPjS4_S4_S4_S4_+0x33c>
   23c88: 6a 00 00 b4  	cbz	x10, 0x23c94 <_ZN8ChxUtils28FillTuningModeDataThirdPartyEP11ChiMetadataP23camera3_capture_requestjPjS4_S4_S4_S4_+0x33c>
   23c94: bb 41 00 94  	bl	0x34380 <_ZN15ExtensionModule11GetInstanceEv@plt>
   23cc8: a8 00 00 54  	b.hi	0x23cdc <_ZN8ChxUtils28FillTuningModeDataThirdPartyEP11ChiMetadataP23camera3_capture_requestjPjS4_S4_S4_S4_+0x384>
   23ccc: 6e ff ff 90  	adrp	x14, 0xf000 <_ZN8ChxUtils28FillTuningModeDataThirdPartyEP11ChiMetadataP23camera3_capture_requestjPjS4_S4_S4_S4_+0x324>
   23d08: 4b 0b 00 b4  	cbz	x11, 0x23e70 <_ZN8ChxUtils28FillTuningModeDataThirdPartyEP11ChiMetadataP23camera3_capture_requestjPjS4_S4_S4_S4_+0x518>
   23d20: a2 00 00 54  	b.hs	0x23d34 <_ZN8ChxUtils28FillTuningModeDataThirdPartyEP11ChiMetadataP23camera3_capture_requestjPjS4_S4_S4_S4_+0x3dc>
   23d24: 70 ff ff 90  	adrp	x16, 0xf000 <_ZN8ChxUtils28FillTuningModeDataThirdPartyEP11ChiMetadataP23camera3_capture_requestjPjS4_S4_S4_S4_+0x37c>
   23d34: 83 00 00 d0  	adrp	x3, 0x35000 <_ZN8ChxUtils28FillTuningModeDataThirdPartyEP11ChiMetadataP23camera3_capture_requestjPjS4_S4_S4_S4_+0x424>
   23d44: e5 06 18 36  	tbz	w5, #3, 0x23e20 <_ZN8ChxUtils28FillTuningModeDataThirdPartyEP11ChiMetadataP23camera3_capture_requestjPjS4_S4_S4_S4_+0x4c8>
   23d48: 81 00 00 d0  	adrp	x1, 0x35000 <_ZN8ChxUtils28FillTuningModeDataThirdPartyEP11ChiMetadataP23camera3_capture_requestjPjS4_S4_S4_S4_+0x438>
   23d58: 21 03 00 54  	b.ne	0x23dbc <_ZN8ChxUtils28FillTuningModeDataThirdPartyEP11ChiMetadataP23camera3_capture_requestjPjS4_S4_S4_S4_+0x464>
   23d5c: 5b ff ff d0  	adrp	x27, 0xd000 <_ZN8ChxUtils28FillTuningModeDataThirdPartyEP11ChiMetadataP23camera3_capture_requestjPjS4_S4_S4_S4_+0x3ac>
   23d7c: 41 ff ff f0  	adrp	x1, 0xe000 <_ZN8ChxUtils28FillTuningModeDataThirdPartyEP11ChiMetadataP23camera3_capture_requestjPjS4_S4_S4_S4_+0x3d0>
   23d80: 42 ff ff 90  	adrp	x2, 0xb000 <_ZN8ChxUtils28FillTuningModeDataThirdPartyEP11ChiMetadataP23camera3_capture_requestjPjS4_S4_S4_S4_+0x3c8>
   23d84: 45 ff ff d0  	adrp	x5, 0xd000 <_ZN8ChxUtils28FillTuningModeDataThirdPartyEP11ChiMetadataP23camera3_capture_requestjPjS4_S4_S4_S4_+0x3d4>
   23dbc: 59 ff ff d0  	adrp	x25, 0xd000 <_ZN8ChxUtils28FillTuningModeDataThirdPartyEP11ChiMetadataP23camera3_capture_requestjPjS4_S4_S4_S4_+0x40c>
   23de0: 60 ff ff 90  	adrp	x0, 0xf000 <_ZN8ChxUtils28FillTuningModeDataThirdPartyEP11ChiMetadataP23camera3_capture_requestjPjS4_S4_S4_S4_+0x438>
   23de4: 41 ff ff b0  	adrp	x1, 0xc000 <_ZN8ChxUtils28FillTuningModeDataThirdPartyEP11ChiMetadataP23camera3_capture_requestjPjS4_S4_S4_S4_+0x430>
   23de8: 43 ff ff d0  	adrp	x3, 0xd000 <_ZN8ChxUtils28FillTuningModeDataThirdPartyEP11ChiMetadataP23camera3_capture_requestjPjS4_S4_S4_S4_+0x438>
   23dec: 45 ff ff b0  	adrp	x5, 0xc000 <_ZN8ChxUtils28FillTuningModeDataThirdPartyEP11ChiMetadataP23camera3_capture_requestjPjS4_S4_S4_S4_+0x438>
   23e1c: a1 40 00 94  	bl	0x340a0 <_ZN6ChiLog9LogSystemEPKcS1_S1_S1_iS1_z@plt>
   23e20: 58 41 00 94  	bl	0x34380 <_ZN15ExtensionModule11GetInstanceEv@plt>
   23e4c: 41 02 00 54  	b.ne	0x23e94 <_ZN8ChxUtils28FillTuningModeDataThirdPartyEP11ChiMetadataP23camera3_capture_requestjPjS4_S4_S4_S4_+0x53c>
   23e80: 23 f5 ff 54  	b.lo	0x23d24 <_ZN8ChxUtils28FillTuningModeDataThirdPartyEP11ChiMetadataP23camera3_capture_requestjPjS4_S4_S4_S4_+0x3cc>
   23e84: ac ff ff 17  	b	0x23d34 <_ZN8ChxUtils28FillTuningModeDataThirdPartyEP11ChiMetadataP23camera3_capture_requestjPjS4_S4_S4_S4_+0x3dc>
   23e90: 52 ff ff 17  	b	0x23bd8 <_ZN8ChxUtils28FillTuningModeDataThirdPartyEP11ChiMetadataP23camera3_capture_requestjPjS4_S4_S4_S4_+0x280>
0000000000023e98 <_ZN8ChxUtils18FillTuningModeDataEP11ChiMetadata25ChiModeUsecaseSubModeTypejPjS3_S3_S3_>:
   23ec4: 40 21 00 b4  	cbz	x0, 0x242ec <_ZN8ChxUtils18FillTuningModeDataEP11ChiMetadata25ChiModeUsecaseSubModeTypejPjS3_S3_S3_+0x454>
   23ec8: 2e ff ff d0  	adrp	x14, 0x9000 <_ZN8ChxUtils28FillTuningModeDataThirdPartyEP11ChiMetadataP23camera3_capture_requestjPjS4_S4_S4_S4_+0x508>
   23f18: 1a 41 00 94  	bl	0x34380 <_ZN15ExtensionModule11GetInstanceEv@plt>
   23f3c: 89 00 00 b4  	cbz	x9, 0x23f4c <_ZN8ChxUtils18FillTuningModeDataEP11ChiMetadata25ChiModeUsecaseSubModeTypejPjS3_S3_S3_+0xb4>
   23f48: 02 00 00 14  	b	0x23f50 <_ZN8ChxUtils18FillTuningModeDataEP11ChiMetadata25ChiModeUsecaseSubModeTypejPjS3_S3_S3_+0xb8>
   23f50: 9b 00 00 d0  	adrp	x27, 0x35000 <_ZN8ChxUtils18FillTuningModeDataEP11ChiMetadata25ChiModeUsecaseSubModeTypejPjS3_S3_S3_+0x100>
   23f54: 9a 00 00 d0  	adrp	x26, 0x35000 <_ZN8ChxUtils18FillTuningModeDataEP11ChiMetadata25ChiModeUsecaseSubModeTypejPjS3_S3_S3_+0x104>
   23f58: 53 ff ff d0  	adrp	x19, 0xd000 <_ZN8ChxUtils18FillTuningModeDataEP11ChiMetadata25ChiModeUsecaseSubModeTypejPjS3_S3_S3_+0x68>
   23f6c: ab 04 30 36  	tbz	w11, #6, 0x24000 <_ZN8ChxUtils18FillTuningModeDataEP11ChiMetadata25ChiModeUsecaseSubModeTypejPjS3_S3_S3_+0x168>
   23f78: 21 02 00 54  	b.ne	0x23fbc <_ZN8ChxUtils18FillTuningModeDataEP11ChiMetadata25ChiModeUsecaseSubModeTypejPjS3_S3_S3_+0x124>
   23f90: 41 ff ff f0  	adrp	x1, 0xe000 <_ZN8ChxUtils18FillTuningModeDataEP11ChiMetadata25ChiModeUsecaseSubModeTypejPjS3_S3_S3_+0xa4>
   23f94: 62 ff ff 90  	adrp	x2, 0xf000 <_ZN8ChxUtils18FillTuningModeDataEP11ChiMetadata25ChiModeUsecaseSubModeTypejPjS3_S3_S3_+0xac>
   23f98: 45 ff ff b0  	adrp	x5, 0xc000 <_ZN8ChxUtils18FillTuningModeDataEP11ChiMetadata25ChiModeUsecaseSubModeTypejPjS3_S3_S3_+0xa4>
   23fd0: 21 ff ff f0  	adrp	x1, 0xa000 <_ZN8ChxUtils18FillTuningModeDataEP11ChiMetadata25ChiModeUsecaseSubModeTypejPjS3_S3_S3_+0xd4>
   23fd8: 40 ff ff d0  	adrp	x0, 0xd000 <_ZN8ChxUtils18FillTuningModeDataEP11ChiMetadata25ChiModeUsecaseSubModeTypejPjS3_S3_S3_+0xe8>
   23fdc: 43 ff ff b0  	adrp	x3, 0xc000 <_ZN8ChxUtils18FillTuningModeDataEP11ChiMetadata25ChiModeUsecaseSubModeTypejPjS3_S3_S3_+0xe8>
   23fe0: 25 ff ff f0  	adrp	x5, 0xa000 <_ZN8ChxUtils18FillTuningModeDataEP11ChiMetadata25ChiModeUsecaseSubModeTypejPjS3_S3_S3_+0xe4>
   23ffc: 29 40 00 94  	bl	0x340a0 <_ZN6ChiLog9LogSystemEPKcS1_S1_S1_iS1_z@plt>
   24008: de 40 00 94  	bl	0x34380 <_ZN15ExtensionModule11GetInstanceEv@plt>
   2402c: ca 00 00 b4  	cbz	x10, 0x24044 <_ZN8ChxUtils18FillTuningModeDataEP11ChiMetadata25ChiModeUsecaseSubModeTypejPjS3_S3_S3_+0x1ac>
   2403c: ad 00 30 37  	tbnz	w13, #6, 0x24050 <_ZN8ChxUtils18FillTuningModeDataEP11ChiMetadata25ChiModeUsecaseSubModeTypejPjS3_S3_S3_+0x1b8>
   24040: 28 00 00 14  	b	0x240e0 <_ZN8ChxUtils18FillTuningModeDataEP11ChiMetadata25ChiModeUsecaseSubModeTypejPjS3_S3_S3_+0x248>
   2404c: ad 04 30 36  	tbz	w13, #6, 0x240e0 <_ZN8ChxUtils18FillTuningModeDataEP11ChiMetadata25ChiModeUsecaseSubModeTypejPjS3_S3_S3_+0x248>
   24058: 21 02 00 54  	b.ne	0x2409c <_ZN8ChxUtils18FillTuningModeDataEP11ChiMetadata25ChiModeUsecaseSubModeTypejPjS3_S3_S3_+0x204>
   24070: 41 ff ff d0  	adrp	x1, 0xe000 <_ZN8ChxUtils18FillTuningModeDataEP11ChiMetadata25ChiModeUsecaseSubModeTypejPjS3_S3_S3_+0x180>
   24074: 22 ff ff d0  	adrp	x2, 0xa000 <_ZN8ChxUtils18FillTuningModeDataEP11ChiMetadata25ChiModeUsecaseSubModeTypejPjS3_S3_S3_+0x174>
   24078: 45 ff ff 90  	adrp	x5, 0xc000 <_ZN8ChxUtils18FillTuningModeDataEP11ChiMetadata25ChiModeUsecaseSubModeTypejPjS3_S3_S3_+0x180>
   240b0: 21 ff ff d0  	adrp	x1, 0xa000 <_ZN8ChxUtils18FillTuningModeDataEP11ChiMetadata25ChiModeUsecaseSubModeTypejPjS3_S3_S3_+0x1b0>
   240b8: 40 ff ff b0  	adrp	x0, 0xd000 <_ZN8ChxUtils18FillTuningModeDataEP11ChiMetadata25ChiModeUsecaseSubModeTypejPjS3_S3_S3_+0x1c4>
   240bc: 43 ff ff 90  	adrp	x3, 0xc000 <_ZN8ChxUtils18FillTuningModeDataEP11ChiMetadata25ChiModeUsecaseSubModeTypejPjS3_S3_S3_+0x1c4>
   240c0: 25 ff ff f0  	adrp	x5, 0xb000 <_ZN8ChxUtils18FillTuningModeDataEP11ChiMetadata25ChiModeUsecaseSubModeTypejPjS3_S3_S3_+0x1c4>
   240dc: f1 3f 00 94  	bl	0x340a0 <_ZN6ChiLog9LogSystemEPKcS1_S1_S1_iS1_z@plt>
   2410c: 0b 02 00 b4  	cbz	x11, 0x2414c <_ZN8ChxUtils18FillTuningModeDataEP11ChiMetadata25ChiModeUsecaseSubModeTypejPjS3_S3_S3_+0x2b4>
   24138: a1 00 00 54  	b.ne	0x2414c <_ZN8ChxUtils18FillTuningModeDataEP11ChiMetadata25ChiModeUsecaseSubModeTypejPjS3_S3_S3_+0x2b4>
   24140: 6c 00 00 b4  	cbz	x12, 0x2414c <_ZN8ChxUtils18FillTuningModeDataEP11ChiMetadata25ChiModeUsecaseSubModeTypejPjS3_S3_S3_+0x2b4>
   2414c: 8d 40 00 94  	bl	0x34380 <_ZN15ExtensionModule11GetInstanceEv@plt>
   24180: a8 00 00 54  	b.hi	0x24194 <_ZN8ChxUtils18FillTuningModeDataEP11ChiMetadata25ChiModeUsecaseSubModeTypejPjS3_S3_S3_+0x2fc>
   24184: 4f ff ff f0  	adrp	x15, 0xf000 <_ZN8ChxUtils18FillTuningModeDataEP11ChiMetadata25ChiModeUsecaseSubModeTypejPjS3_S3_S3_+0x298>
   241c0: ed 0a 00 b4  	cbz	x13, 0x2431c <_ZN8ChxUtils18FillTuningModeDataEP11ChiMetadata25ChiModeUsecaseSubModeTypejPjS3_S3_S3_+0x484>
   241d4: a2 00 00 54  	b.hs	0x241e8 <_ZN8ChxUtils18FillTuningModeDataEP11ChiMetadata25ChiModeUsecaseSubModeTypejPjS3_S3_S3_+0x350>
   241d8: 41 ff ff f0  	adrp	x1, 0xf000 <_ZN8ChxUtils18FillTuningModeDataEP11ChiMetadata25ChiModeUsecaseSubModeTypejPjS3_S3_S3_+0x2ec>
   241ec: 65 40 00 94  	bl	0x34380 <_ZN15ExtensionModule11GetInstanceEv@plt>
   24210: f1 06 28 36  	tbz	w17, #5, 0x242ec <_ZN8ChxUtils18FillTuningModeDataEP11ChiMetadata25ChiModeUsecaseSubModeTypejPjS3_S3_S3_+0x454>
   2421c: 41 03 00 54  	b.ne	0x24284 <_ZN8ChxUtils18FillTuningModeDataEP11ChiMetadata25ChiModeUsecaseSubModeTypejPjS3_S3_S3_+0x3ec>
   2423c: 41 ff ff d0  	adrp	x1, 0xe000 <_ZN8ChxUtils18FillTuningModeDataEP11ChiMetadata25ChiModeUsecaseSubModeTypejPjS3_S3_S3_+0x34c>
   24244: 22 ff ff f0  	adrp	x2, 0xb000 <_ZN8ChxUtils18FillTuningModeDataEP11ChiMetadata25ChiModeUsecaseSubModeTypejPjS3_S3_S3_+0x348>
   2424c: 25 ff ff f0  	adrp	x5, 0xb000 <_ZN8ChxUtils18FillTuningModeDataEP11ChiMetadata25ChiModeUsecaseSubModeTypejPjS3_S3_S3_+0x350>
   242a8: 40 ff ff d0  	adrp	x0, 0xe000 <_ZN8ChxUtils18FillTuningModeDataEP11ChiMetadata25ChiModeUsecaseSubModeTypejPjS3_S3_S3_+0x3b8>
   242b0: 41 ff ff 90  	adrp	x1, 0xc000 <_ZN8ChxUtils18FillTuningModeDataEP11ChiMetadata25ChiModeUsecaseSubModeTypejPjS3_S3_S3_+0x3b8>
   242b8: 23 ff ff f0  	adrp	x3, 0xb000 <_ZN8ChxUtils18FillTuningModeDataEP11ChiMetadata25ChiModeUsecaseSubModeTypejPjS3_S3_S3_+0x3bc>
   242c0: 25 ff ff f0  	adrp	x5, 0xb000 <_ZN8ChxUtils18FillTuningModeDataEP11ChiMetadata25ChiModeUsecaseSubModeTypejPjS3_S3_S3_+0x3c4>
   242e8: 6e 3f 00 94  	bl	0x340a0 <_ZN6ChiLog9LogSystemEPKcS1_S1_S1_iS1_z@plt>
   242f8: c1 01 00 54  	b.ne	0x24330 <_ZN8ChxUtils18FillTuningModeDataEP11ChiMetadata25ChiModeUsecaseSubModeTypejPjS3_S3_S3_+0x498>
   24328: 83 f5 ff 54  	b.lo	0x241d8 <_ZN8ChxUtils18FillTuningModeDataEP11ChiMetadata25ChiModeUsecaseSubModeTypejPjS3_S3_S3_+0x340>
   2432c: af ff ff 17  	b	0x241e8 <_ZN8ChxUtils18FillTuningModeDataEP11ChiMetadata25ChiModeUsecaseSubModeTypejPjS3_S3_S3_+0x350>
0000000000024338 <_ZN8ChxUtils21IPEMFHDRDebugDataSizeEv>:
   24340: 10 40 00 94  	bl	0x34380 <_ZN15ExtensionModule11GetInstanceEv@plt>
0000000000024358 <_ZN8ChxUtils13DebugDataSizeE13DebugDataType>:
   24368: 06 40 00 94  	bl	0x34380 <_ZN15ExtensionModule11GetInstanceEv@plt>
   24378: 21 01 00 54  	b.ne	0x2439c <_ZN8ChxUtils13DebugDataSizeE13DebugDataType+0x44>
   24380: 60 08 00 54  	b.eq	0x2448c <_ZN8ChxUtils13DebugDataSizeE13DebugDataType+0x134>
   24388: 80 08 00 54  	b.eq	0x24498 <_ZN8ChxUtils13DebugDataSizeE13DebugDataType+0x140>
   2438c: 93 00 00 35  	cbnz	w19, 0x2439c <_ZN8ChxUtils13DebugDataSizeE13DebugDataType+0x44>
   24398: 02 00 00 14  	b	0x243a0 <_ZN8ChxUtils13DebugDataSizeE13DebugDataType+0x48>
   243b0: a1 01 00 54  	b.ne	0x243e4 <_ZN8ChxUtils13DebugDataSizeE13DebugDataType+0x8c>
   243bc: 48 03 00 54  	b.hi	0x24424 <_ZN8ChxUtils13DebugDataSizeE13DebugDataType+0xcc>
   243c0: 4c ff ff f0  	adrp	x12, 0xf000 <_ZN8ChxUtils13DebugDataSizeE13DebugDataType+0x14>
   243e0: 11 00 00 14  	b	0x24424 <_ZN8ChxUtils13DebugDataSizeE13DebugDataType+0xcc>
   243e8: e1 01 00 54  	b.ne	0x24424 <_ZN8ChxUtils13DebugDataSizeE13DebugDataType+0xcc>
   243f0: 21 02 00 54  	b.ne	0x24434 <_ZN8ChxUtils13DebugDataSizeE13DebugDataType+0xdc>
   24418: 40 01 00 54  	b.eq	0x24440 <_ZN8ChxUtils13DebugDataSizeE13DebugDataType+0xe8>
   24420: 16 00 00 14  	b	0x24478 <_ZN8ChxUtils13DebugDataSizeE13DebugDataType+0x120>
   2443c: 01 ff ff 54  	b.ne	0x2441c <_ZN8ChxUtils13DebugDataSizeE13DebugDataType+0xc4>
   24494: c3 ff ff 17  	b	0x243a0 <_ZN8ChxUtils13DebugDataSizeE13DebugDataType+0x48>
   244a0: c0 ff ff 17  	b	0x243a0 <_ZN8ChxUtils13DebugDataSizeE13DebugDataType+0x48>
0000000000024508 <_ZN8ChxUtils20DebugDataAllocBufferEP9DebugData>:
   2451c: 99 3f 00 94  	bl	0x34380 <_ZN15ExtensionModule11GetInstanceEv@plt>
   24534: 81 03 00 54  	b.ne	0x245a4 <_ZN8ChxUtils20DebugDataAllocBufferEP9DebugData+0x9c>
   2455c: a0 02 00 54  	b.eq	0x245b0 <_ZN8ChxUtils20DebugDataAllocBufferEP9DebugData+0xa8>
   24564: 53 04 00 b4  	cbz	x19, 0x245ec <_ZN8ChxUtils20DebugDataAllocBufferEP9DebugData+0xe4>
   2456c: b4 04 00 b4  	cbz	x20, 0x24600 <_ZN8ChxUtils20DebugDataAllocBufferEP9DebugData+0xf8>
   24578: e0 04 00 b4  	cbz	x0, 0x24614 <_ZN8ChxUtils20DebugDataAllocBufferEP9DebugData+0x10c>
   245ac: a1 fd ff 54  	b.ne	0x24560 <_ZN8ChxUtils20DebugDataAllocBufferEP9DebugData+0x58>
   245e8: 13 fc ff b5  	cbnz	x19, 0x24568 <_ZN8ChxUtils20DebugDataAllocBufferEP9DebugData+0x60>
   24614: 81 00 00 b0  	adrp	x1, 0x35000 <_ZN8ChxUtils20DebugDataAllocBufferEP9DebugData+0x150>
   24624: e5 04 08 36  	tbz	w5, #1, 0x246c0 <_ZN8ChxUtils20DebugDataAllocBufferEP9DebugData+0x1b8>
   24628: 82 00 00 b0  	adrp	x2, 0x35000 <_ZN8ChxUtils20DebugDataAllocBufferEP9DebugData+0x164>
   2462c: 53 ff ff b0  	adrp	x19, 0xd000 <_ZN8ChxUtils20DebugDataAllocBufferEP9DebugData+0xc8>
   24640: 01 02 00 54  	b.ne	0x24680 <_ZN8ChxUtils20DebugDataAllocBufferEP9DebugData+0x178>
   24658: 41 ff ff d0  	adrp	x1, 0xe000 <_ZN8ChxUtils20DebugDataAllocBufferEP9DebugData+0xf8>
   2465c: 42 ff ff b0  	adrp	x2, 0xd000 <_ZN8ChxUtils20DebugDataAllocBufferEP9DebugData+0xf8>
   24660: 45 ff ff d0  	adrp	x5, 0xe000 <_ZN8ChxUtils20DebugDataAllocBufferEP9DebugData+0x100>
   24694: 21 ff ff d0  	adrp	x1, 0xa000 <_ZN8ChxUtils20DebugDataAllocBufferEP9DebugData+0x124>
   2469c: 40 ff ff b0  	adrp	x0, 0xd000 <_ZN8ChxUtils20DebugDataAllocBufferEP9DebugData+0x138>
   246a0: 43 ff ff d0  	adrp	x3, 0xe000 <_ZN8ChxUtils20DebugDataAllocBufferEP9DebugData+0x140>
   246a4: 25 ff ff d0  	adrp	x5, 0xa000 <_ZN8ChxUtils20DebugDataAllocBufferEP9DebugData+0x134>
   246bc: 79 3e 00 94  	bl	0x340a0 <_ZN6ChiLog9LogSystemEPKcS1_S1_S1_iS1_z@plt>
00000000000246d8 <_ZN8ChxUtils21GetPartialResultCountE19PartialResultSender>:
   246e8: 26 3f 00 94  	bl	0x34380 <_ZN15ExtensionModule11GetInstanceEv@plt>
   246f0: 24 3f 00 94  	bl	0x34380 <_ZN15ExtensionModule11GetInstanceEv@plt>
   246f8: e1 00 00 54  	b.ne	0x24714 <_ZN8ChxUtils21GetPartialResultCountE19PartialResultSender+0x3c>
0000000000024738 <_ZN8ChxUtils16MatchAspectRatioEPK12CHIDimensionPS0_>:
   2475c: a5 00 00 54  	b.pl	0x24770 <_ZN8ChxUtils16MatchAspectRatioEPK12CHIDimensionPS0_+0x38>
   24770: 8d 00 00 54  	b.le	0x24780 <_ZN8ChxUtils16MatchAspectRatioEPK12CHIDimensionPS0_+0x48>
0000000000024788 <_ZN8ChxUtils15UpdateTimeStampEP11ChiMetadatamj>:
   247b0: 40 02 00 b4  	cbz	x0, 0x247f8 <_ZN8ChxUtils15UpdateTimeStampEP11ChiMetadatamj+0x70>
   247e4: c8 06 00 b4  	cbz	x8, 0x248bc <_ZN8ChxUtils15UpdateTimeStampEP11ChiMetadatamj+0x134>
   247f0: c1 06 00 54  	b.ne	0x248c8 <_ZN8ChxUtils15UpdateTimeStampEP11ChiMetadatamj+0x140>
   247f4: 71 00 00 14  	b	0x249b8 <_ZN8ChxUtils15UpdateTimeStampEP11ChiMetadatamj+0x230>
   247f8: 8b 00 00 b0  	adrp	x11, 0x35000 <_ZN8ChxUtils15UpdateTimeStampEP11ChiMetadatamj+0xb4>
   24804: a9 0d 08 36  	tbz	w9, #1, 0x249b8 <_ZN8ChxUtils15UpdateTimeStampEP11ChiMetadatamj+0x230>
   24808: 8c 00 00 b0  	adrp	x12, 0x35000 <_ZN8ChxUtils15UpdateTimeStampEP11ChiMetadatamj+0xc4>
   24818: 41 02 00 54  	b.ne	0x24860 <_ZN8ChxUtils15UpdateTimeStampEP11ChiMetadatamj+0xd8>
   2481c: 55 ff ff b0  	adrp	x21, 0xd000 <_ZN8ChxUtils15UpdateTimeStampEP11ChiMetadatamj+0x38>
   24838: 41 ff ff d0  	adrp	x1, 0xe000 <_ZN8ChxUtils15UpdateTimeStampEP11ChiMetadatamj+0x58>
   2483c: 22 ff ff b0  	adrp	x2, 0x9000 <_ZN8ChxUtils15UpdateTimeStampEP11ChiMetadatamj+0x48>
   24840: 45 ff ff b0  	adrp	x5, 0xd000 <_ZN8ChxUtils15UpdateTimeStampEP11ChiMetadatamj+0x5c>
   24860: 56 ff ff b0  	adrp	x22, 0xd000 <_ZN8ChxUtils15UpdateTimeStampEP11ChiMetadatamj+0x7c>
   2487c: 21 ff ff d0  	adrp	x1, 0xa000 <_ZN8ChxUtils15UpdateTimeStampEP11ChiMetadatamj+0x8c>
   24884: 40 ff ff b0  	adrp	x0, 0xd000 <_ZN8ChxUtils15UpdateTimeStampEP11ChiMetadatamj+0xa0>
   24888: 43 ff ff b0  	adrp	x3, 0xd000 <_ZN8ChxUtils15UpdateTimeStampEP11ChiMetadatamj+0xa4>
   2488c: 45 ff ff d0  	adrp	x5, 0xe000 <_ZN8ChxUtils15UpdateTimeStampEP11ChiMetadatamj+0xac>
   248a4: ff 3d 00 94  	bl	0x340a0 <_ZN6ChiLog9LogSystemEPKcS1_S1_S1_iS1_z@plt>
   248b4: a0 08 00 54  	b.eq	0x249c8 <_ZN8ChxUtils15UpdateTimeStampEP11ChiMetadatamj+0x240>
   248c4: a0 07 00 54  	b.eq	0x249b8 <_ZN8ChxUtils15UpdateTimeStampEP11ChiMetadatamj+0x230>
   248e8: 89 00 00 b0  	adrp	x9, 0x35000 <_ZN8ChxUtils15UpdateTimeStampEP11ChiMetadatamj+0x1a4>
   248f4: 28 06 18 36  	tbz	w8, #3, 0x249b8 <_ZN8ChxUtils15UpdateTimeStampEP11ChiMetadatamj+0x230>
   248f8: 8a 00 00 b0  	adrp	x10, 0x35000 <_ZN8ChxUtils15UpdateTimeStampEP11ChiMetadatamj+0x1b4>
   248fc: 56 ff ff b0  	adrp	x22, 0xd000 <_ZN8ChxUtils15UpdateTimeStampEP11ChiMetadatamj+0x118>
   24910: a1 02 00 54  	b.ne	0x24964 <_ZN8ChxUtils15UpdateTimeStampEP11ChiMetadatamj+0x1dc>
   24930: 41 ff ff d0  	adrp	x1, 0xe000 <_ZN8ChxUtils15UpdateTimeStampEP11ChiMetadatamj+0x150>
   24934: 42 ff ff d0  	adrp	x2, 0xe000 <_ZN8ChxUtils15UpdateTimeStampEP11ChiMetadatamj+0x154>
   24938: 45 ff ff b0  	adrp	x5, 0xd000 <_ZN8ChxUtils15UpdateTimeStampEP11ChiMetadatamj+0x154>
   24984: 40 ff ff f0  	adrp	x0, 0xf000 <_ZN8ChxUtils15UpdateTimeStampEP11ChiMetadatamj+0x1a8>
   24988: 41 ff ff 90  	adrp	x1, 0xc000 <_ZN8ChxUtils15UpdateTimeStampEP11ChiMetadatamj+0x1a0>
   2498c: 43 ff ff b0  	adrp	x3, 0xd000 <_ZN8ChxUtils15UpdateTimeStampEP11ChiMetadatamj+0x1a8>
   24990: 25 ff ff d0  	adrp	x5, 0xa000 <_ZN8ChxUtils15UpdateTimeStampEP11ChiMetadatamj+0x1a0>
   249b4: bb 3d 00 94  	bl	0x340a0 <_ZN6ChiLog9LogSystemEPKcS1_S1_S1_iS1_z@plt>
   249c4: a1 f7 ff 54  	b.ne	0x248b8 <_ZN8ChxUtils15UpdateTimeStampEP11ChiMetadatamj+0x130>
00000000000249e0 <_ZN8ChxUtils18IsVendorTagPresentEP11ChiMetadata9VendorTag>:
   24a00: a0 02 00 b4  	cbz	x0, 0x24a54 <_ZN8ChxUtils18IsVendorTagPresentEP11ChiMetadata9VendorTag+0x74>
   24a0c: 5d 3e 00 94  	bl	0x34380 <_ZN15ExtensionModule11GetInstanceEv@plt>
   24a4c: e0 00 00 54  	b.eq	0x24a68 <_ZN8ChxUtils18IsVendorTagPresentEP11ChiMetadata9VendorTag+0x88>
   24a50: 0b 00 00 14  	b	0x24a7c <_ZN8ChxUtils18IsVendorTagPresentEP11ChiMetadata9VendorTag+0x9c>
   24a60: e1 00 00 54  	b.ne	0x24a7c <_ZN8ChxUtils18IsVendorTagPresentEP11ChiMetadata9VendorTag+0x9c>
0000000000024a80 <_ZN8ChxUtils19HasInputBufferErrorEP18ChiPipelineRequest>:
   24a84: e8 02 00 34  	cbz	w8, 0x24ae0 <_ZN8ChxUtils19HasInputBufferErrorEP18ChiPipelineRequest+0x60>
   24a94: 04 00 00 14  	b	0x24aa4 <_ZN8ChxUtils19HasInputBufferErrorEP18ChiPipelineRequest+0x24>
   24aa0: 00 02 00 54  	b.eq	0x24ae0 <_ZN8ChxUtils19HasInputBufferErrorEP18ChiPipelineRequest+0x60>
   24aac: 6c ff ff 34  	cbz	w12, 0x24a98 <_ZN8ChxUtils19HasInputBufferErrorEP18ChiPipelineRequest+0x18>
   24ac0: cf 00 00 35  	cbnz	w15, 0x24ad8 <_ZN8ChxUtils19HasInputBufferErrorEP18ChiPipelineRequest+0x58>
   24ad0: 61 ff ff 54  	b.ne	0x24abc <_ZN8ChxUtils19HasInputBufferErrorEP18ChiPipelineRequest+0x3c>
   24ad4: f1 ff ff 17  	b	0x24a98 <_ZN8ChxUtils19HasInputBufferErrorEP18ChiPipelineRequest+0x18>
0000000000024ae8 <_ZN8ChxUtils25FillDefaultTuningMetadataEP11ChiMetadata25ChiModeUsecaseSubModeTypej>:
   24b0c: 80 20 00 b4  	cbz	x0, 0x24f1c <_ZN8ChxUtils25FillDefaultTuningMetadataEP11ChiMetadata25ChiModeUsecaseSubModeTypej+0x434>
   24b10: 2e ff ff b0  	adrp	x14, 0x9000 <_ZN8ChxUtils19HasInputBufferErrorEP18ChiPipelineRequest+0x24>
   24b54: 0b 3e 00 94  	bl	0x34380 <_ZN15ExtensionModule11GetInstanceEv@plt>
   24b78: 6b 00 00 b4  	cbz	x11, 0x24b84 <_ZN8ChxUtils25FillDefaultTuningMetadataEP11ChiMetadata25ChiModeUsecaseSubModeTypej+0x9c>
   24b80: 02 00 00 14  	b	0x24b88 <_ZN8ChxUtils25FillDefaultTuningMetadataEP11ChiMetadata25ChiModeUsecaseSubModeTypej+0xa0>
   24b88: 98 00 00 b0  	adrp	x24, 0x35000 <_ZN8ChxUtils25FillDefaultTuningMetadataEP11ChiMetadata25ChiModeUsecaseSubModeTypej+0xe4>
   24b8c: 97 00 00 b0  	adrp	x23, 0x35000 <_ZN8ChxUtils25FillDefaultTuningMetadataEP11ChiMetadata25ChiModeUsecaseSubModeTypej+0xe8>
   24b90: 53 ff ff b0  	adrp	x19, 0xd000 <_ZN8ChxUtils25FillDefaultTuningMetadataEP11ChiMetadata25ChiModeUsecaseSubModeTypej+0x4c>
   24ba4: ab 04 30 36  	tbz	w11, #6, 0x24c38 <_ZN8ChxUtils25FillDefaultTuningMetadataEP11ChiMetadata25ChiModeUsecaseSubModeTypej+0x150>
   24bb0: 21 02 00 54  	b.ne	0x24bf4 <_ZN8ChxUtils25FillDefaultTuningMetadataEP11ChiMetadata25ChiModeUsecaseSubModeTypej+0x10c>
   24bc8: 41 ff ff d0  	adrp	x1, 0xe000 <_ZN8ChxUtils25FillDefaultTuningMetadataEP11ChiMetadata25ChiModeUsecaseSubModeTypej+0x88>
   24bcc: 42 ff ff f0  	adrp	x2, 0xf000 <_ZN8ChxUtils25FillDefaultTuningMetadataEP11ChiMetadata25ChiModeUsecaseSubModeTypej+0x90>
   24bd0: 45 ff ff 90  	adrp	x5, 0xc000 <_ZN8ChxUtils25FillDefaultTuningMetadataEP11ChiMetadata25ChiModeUsecaseSubModeTypej+0x88>
   24c08: 21 ff ff d0  	adrp	x1, 0xa000 <_ZN8ChxUtils25FillDefaultTuningMetadataEP11ChiMetadata25ChiModeUsecaseSubModeTypej+0xb8>
   24c10: 40 ff ff b0  	adrp	x0, 0xd000 <_ZN8ChxUtils25FillDefaultTuningMetadataEP11ChiMetadata25ChiModeUsecaseSubModeTypej+0xcc>
   24c14: 43 ff ff 90  	adrp	x3, 0xc000 <_ZN8ChxUtils25FillDefaultTuningMetadataEP11ChiMetadata25ChiModeUsecaseSubModeTypej+0xcc>
   24c18: 25 ff ff d0  	adrp	x5, 0xa000 <_ZN8ChxUtils25FillDefaultTuningMetadataEP11ChiMetadata25ChiModeUsecaseSubModeTypej+0xc8>
   24c34: 1b 3d 00 94  	bl	0x340a0 <_ZN6ChiLog9LogSystemEPKcS1_S1_S1_iS1_z@plt>
   24c40: d0 3d 00 94  	bl	0x34380 <_ZN15ExtensionModule11GetInstanceEv@plt>
   24c64: ac 00 00 b4  	cbz	x12, 0x24c78 <_ZN8ChxUtils25FillDefaultTuningMetadataEP11ChiMetadata25ChiModeUsecaseSubModeTypej+0x190>
   24c70: ad 00 30 37  	tbnz	w13, #6, 0x24c84 <_ZN8ChxUtils25FillDefaultTuningMetadataEP11ChiMetadata25ChiModeUsecaseSubModeTypej+0x19c>
   24c74: 28 00 00 14  	b	0x24d14 <_ZN8ChxUtils25FillDefaultTuningMetadataEP11ChiMetadata25ChiModeUsecaseSubModeTypej+0x22c>
   24c80: ad 04 30 36  	tbz	w13, #6, 0x24d14 <_ZN8ChxUtils25FillDefaultTuningMetadataEP11ChiMetadata25ChiModeUsecaseSubModeTypej+0x22c>
   24c8c: 21 02 00 54  	b.ne	0x24cd0 <_ZN8ChxUtils25FillDefaultTuningMetadataEP11ChiMetadata25ChiModeUsecaseSubModeTypej+0x1e8>
   24ca4: 41 ff ff d0  	adrp	x1, 0xe000 <_ZN8ChxUtils25FillDefaultTuningMetadataEP11ChiMetadata25ChiModeUsecaseSubModeTypej+0x164>
   24ca8: 22 ff ff d0  	adrp	x2, 0xa000 <_ZN8ChxUtils25FillDefaultTuningMetadataEP11ChiMetadata25ChiModeUsecaseSubModeTypej+0x158>
   24cac: 45 ff ff 90  	adrp	x5, 0xc000 <_ZN8ChxUtils25FillDefaultTuningMetadataEP11ChiMetadata25ChiModeUsecaseSubModeTypej+0x164>
   24ce4: 21 ff ff d0  	adrp	x1, 0xa000 <_ZN8ChxUtils25FillDefaultTuningMetadataEP11ChiMetadata25ChiModeUsecaseSubModeTypej+0x194>
   24cec: 40 ff ff b0  	adrp	x0, 0xd000 <_ZN8ChxUtils25FillDefaultTuningMetadataEP11ChiMetadata25ChiModeUsecaseSubModeTypej+0x1a8>
   24cf0: 43 ff ff 90  	adrp	x3, 0xc000 <_ZN8ChxUtils25FillDefaultTuningMetadataEP11ChiMetadata25ChiModeUsecaseSubModeTypej+0x1a8>
   24cf4: 25 ff ff f0  	adrp	x5, 0xb000 <_ZN8ChxUtils25FillDefaultTuningMetadataEP11ChiMetadata25ChiModeUsecaseSubModeTypej+0x1a8>
   24d10: e4 3c 00 94  	bl	0x340a0 <_ZN6ChiLog9LogSystemEPKcS1_S1_S1_iS1_z@plt>
   24d40: 09 02 00 b4  	cbz	x9, 0x24d80 <_ZN8ChxUtils25FillDefaultTuningMetadataEP11ChiMetadata25ChiModeUsecaseSubModeTypej+0x298>
   24d6c: a1 00 00 54  	b.ne	0x24d80 <_ZN8ChxUtils25FillDefaultTuningMetadataEP11ChiMetadata25ChiModeUsecaseSubModeTypej+0x298>
   24d74: 6a 00 00 b4  	cbz	x10, 0x24d80 <_ZN8ChxUtils25FillDefaultTuningMetadataEP11ChiMetadata25ChiModeUsecaseSubModeTypej+0x298>
   24d80: 80 3d 00 94  	bl	0x34380 <_ZN15ExtensionModule11GetInstanceEv@plt>
   24db8: a8 00 00 54  	b.hi	0x24dcc <_ZN8ChxUtils25FillDefaultTuningMetadataEP11ChiMetadata25ChiModeUsecaseSubModeTypej+0x2e4>
   24dbc: 4e ff ff f0  	adrp	x14, 0xf000 <_ZN8ChxUtils25FillDefaultTuningMetadataEP11ChiMetadata25ChiModeUsecaseSubModeTypej+0x280>
   24df8: ad 00 00 b4  	cbz	x13, 0x24e0c <_ZN8ChxUtils25FillDefaultTuningMetadataEP11ChiMetadata25ChiModeUsecaseSubModeTypej+0x324>
   24e04: 63 00 00 54  	b.lo	0x24e10 <_ZN8ChxUtils25FillDefaultTuningMetadataEP11ChiMetadata25ChiModeUsecaseSubModeTypej+0x328>
   24e08: 06 00 00 14  	b	0x24e20 <_ZN8ChxUtils25FillDefaultTuningMetadataEP11ChiMetadata25ChiModeUsecaseSubModeTypej+0x338>
   24e10: 42 ff ff f0  	adrp	x2, 0xf000 <_ZN8ChxUtils25FillDefaultTuningMetadataEP11ChiMetadata25ChiModeUsecaseSubModeTypej+0x2d4>
   24e24: 57 3d 00 94  	bl	0x34380 <_ZN15ExtensionModule11GetInstanceEv@plt>
   24e48: b1 06 28 36  	tbz	w17, #5, 0x24f1c <_ZN8ChxUtils25FillDefaultTuningMetadataEP11ChiMetadata25ChiModeUsecaseSubModeTypej+0x434>
   24e54: 21 03 00 54  	b.ne	0x24eb8 <_ZN8ChxUtils25FillDefaultTuningMetadataEP11ChiMetadata25ChiModeUsecaseSubModeTypej+0x3d0>
   24e74: 41 ff ff d0  	adrp	x1, 0xe000 <_ZN8ChxUtils25FillDefaultTuningMetadataEP11ChiMetadata25ChiModeUsecaseSubModeTypej+0x334>
   24e7c: 22 ff ff f0  	adrp	x2, 0xb000 <_ZN8ChxUtils25FillDefaultTuningMetadataEP11ChiMetadata25ChiModeUsecaseSubModeTypej+0x330>
   24e84: 45 ff ff d0  	adrp	x5, 0xe000 <_ZN8ChxUtils25FillDefaultTuningMetadataEP11ChiMetadata25ChiModeUsecaseSubModeTypej+0x344>
   24edc: 40 ff ff d0  	adrp	x0, 0xe000 <_ZN8ChxUtils25FillDefaultTuningMetadataEP11ChiMetadata25ChiModeUsecaseSubModeTypej+0x39c>
   24ee4: 41 ff ff 90  	adrp	x1, 0xc000 <_ZN8ChxUtils25FillDefaultTuningMetadataEP11ChiMetadata25ChiModeUsecaseSubModeTypej+0x39c>
   24eec: 43 ff ff d0  	adrp	x3, 0xe000 <_ZN8ChxUtils25FillDefaultTuningMetadataEP11ChiMetadata25ChiModeUsecaseSubModeTypej+0x3ac>
   24ef0: 25 ff ff f0  	adrp	x5, 0xb000 <_ZN8ChxUtils25FillDefaultTuningMetadataEP11ChiMetadata25ChiModeUsecaseSubModeTypej+0x3a4>
   24f18: 62 3c 00 94  	bl	0x340a0 <_ZN6ChiLog9LogSystemEPKcS1_S1_S1_iS1_z@plt>
   24f28: e1 00 00 54  	b.ne	0x24f44 <_ZN8ChxUtils25FillDefaultTuningMetadataEP11ChiMetadata25ChiModeUsecaseSubModeTypej+0x45c>
0000000000024f48 <_ZN8ChxUtils21GetCameraIdFromStreamEPK9ChiStream>:
   24f54: 60 01 00 b4  	cbz	x0, 0x24f80 <_ZN8ChxUtils21GetCameraIdFromStreamEPK9ChiStream+0x38>
   24f60: 00 01 00 b4  	cbz	x0, 0x24f80 <_ZN8ChxUtils21GetCameraIdFromStreamEPK9ChiStream+0x38>
   24f6c: a0 00 00 b4  	cbz	x0, 0x24f80 <_ZN8ChxUtils21GetCameraIdFromStreamEPK9ChiStream+0x38>
0000000000024f90 <_ZN8ChxUtils31UpdateMetadataWithInputSettingsER11ChiMetadataS1_>:
   24fdc: e2 00 00 b4  	cbz	x2, 0x24ff8 <_ZN8ChxUtils31UpdateMetadataWithInputSettingsER11ChiMetadataS1_+0x68>
   2501c: 02 01 00 b4  	cbz	x2, 0x2503c <_ZN8ChxUtils31UpdateMetadataWithInputSettingsER11ChiMetadataS1_+0xac>
   25060: 02 01 00 b4  	cbz	x2, 0x25080 <_ZN8ChxUtils31UpdateMetadataWithInputSettingsER11ChiMetadataS1_+0xf0>
   250a4: 02 01 00 b4  	cbz	x2, 0x250c4 <_ZN8ChxUtils31UpdateMetadataWithInputSettingsER11ChiMetadataS1_+0x134>
   250e8: 02 01 00 b4  	cbz	x2, 0x25108 <_ZN8ChxUtils31UpdateMetadataWithInputSettingsER11ChiMetadataS1_+0x178>
   2512c: 02 01 00 b4  	cbz	x2, 0x2514c <_ZN8ChxUtils31UpdateMetadataWithInputSettingsER11ChiMetadataS1_+0x1bc>
   2516c: e2 00 00 b4  	cbz	x2, 0x25188 <_ZN8ChxUtils31UpdateMetadataWithInputSettingsER11ChiMetadataS1_+0x1f8>
   251ac: 02 01 00 b4  	cbz	x2, 0x251cc <_ZN8ChxUtils31UpdateMetadataWithInputSettingsER11ChiMetadataS1_+0x23c>
   251cc: 6d 3c 00 94  	bl	0x34380 <_ZN15ExtensionModule11GetInstanceEv@plt>
   251f4: 56 01 00 b4  	cbz	x22, 0x2521c <_ZN8ChxUtils31UpdateMetadataWithInputSettingsER11ChiMetadataS1_+0x28c>
   251f8: 62 3c 00 94  	bl	0x34380 <_ZN15ExtensionModule11GetInstanceEv@plt>
   25218: 2d 00 00 14  	b	0x252cc <_ZN8ChxUtils31UpdateMetadataWithInputSettingsER11ChiMetadataS1_+0x33c>
   2521c: 88 00 00 90  	adrp	x8, 0x35000 <_ZN8ChxUtils31UpdateMetadataWithInputSettingsER11ChiMetadataS1_+0x2cc>
   25228: 28 05 30 36  	tbz	w8, #6, 0x252cc <_ZN8ChxUtils31UpdateMetadataWithInputSettingsER11ChiMetadataS1_+0x33c>
   2522c: 89 00 00 90  	adrp	x9, 0x35000 <_ZN8ChxUtils31UpdateMetadataWithInputSettingsER11ChiMetadataS1_+0x2dc>
   25230: 56 ff ff 90  	adrp	x22, 0xd000 <_ZN8ChxUtils31UpdateMetadataWithInputSettingsER11ChiMetadataS1_+0x240>
   25244: 21 02 00 54  	b.ne	0x25288 <_ZN8ChxUtils31UpdateMetadataWithInputSettingsER11ChiMetadataS1_+0x2f8>
   2525c: 41 ff ff b0  	adrp	x1, 0xe000 <_ZN8ChxUtils31UpdateMetadataWithInputSettingsER11ChiMetadataS1_+0x270>
   25260: 42 ff ff b0  	adrp	x2, 0xe000 <_ZN8ChxUtils31UpdateMetadataWithInputSettingsER11ChiMetadataS1_+0x274>
   25264: 25 ff ff d0  	adrp	x5, 0xb000 <_ZN8ChxUtils31UpdateMetadataWithInputSettingsER11ChiMetadataS1_+0x26c>
   2529c: 21 ff ff b0  	adrp	x1, 0xa000 <_ZN8ChxUtils31UpdateMetadataWithInputSettingsER11ChiMetadataS1_+0x2a0>
   252a4: 40 ff ff 90  	adrp	x0, 0xd000 <_ZN8ChxUtils31UpdateMetadataWithInputSettingsER11ChiMetadataS1_+0x2b4>
   252a8: 23 ff ff d0  	adrp	x3, 0xb000 <_ZN8ChxUtils31UpdateMetadataWithInputSettingsER11ChiMetadataS1_+0x2b0>
   252ac: 25 ff ff b0  	adrp	x5, 0xa000 <_ZN8ChxUtils31UpdateMetadataWithInputSettingsER11ChiMetadataS1_+0x2b0>
   252c8: 76 3b 00 94  	bl	0x340a0 <_ZN6ChiLog9LogSystemEPKcS1_S1_S1_iS1_z@plt>
   252f0: 02 01 00 b4  	cbz	x2, 0x25310 <_ZN8ChxUtils31UpdateMetadataWithInputSettingsER11ChiMetadataS1_+0x380>
   2531c: 01 01 00 54  	b.ne	0x2533c <_ZN8ChxUtils31UpdateMetadataWithInputSettingsER11ChiMetadataS1_+0x3ac>
0000000000025340 <_ZN8ChxUtils34UpdateMetadataWithSnapshotSettingsER11ChiMetadata>:
   25360: 41 ff ff 90  	adrp	x1, 0xd000 <_ZN8ChxUtils31UpdateMetadataWithInputSettingsER11ChiMetadataS1_+0x370>
   25364: 42 ff ff 90  	adrp	x2, 0xd000 <_ZN8ChxUtils31UpdateMetadataWithInputSettingsER11ChiMetadataS1_+0x374>
   25390: 0a 07 00 b5  	cbnz	x10, 0x25470 <_ZN8ChxUtils34UpdateMetadataWithSnapshotSettingsER11ChiMetadata+0x130>
   25394: 88 00 00 90  	adrp	x8, 0x35000 <_ZN8ChxUtils34UpdateMetadataWithSnapshotSettingsER11ChiMetadata+0x94>
   253a0: 28 05 30 36  	tbz	w8, #6, 0x25444 <_ZN8ChxUtils34UpdateMetadataWithSnapshotSettingsER11ChiMetadata+0x104>
   253a4: 89 00 00 90  	adrp	x9, 0x35000 <_ZN8ChxUtils34UpdateMetadataWithSnapshotSettingsER11ChiMetadata+0xa4>
   253b4: 41 02 00 54  	b.ne	0x253fc <_ZN8ChxUtils34UpdateMetadataWithSnapshotSettingsER11ChiMetadata+0xbc>
   253b8: 54 ff ff 90  	adrp	x20, 0xd000 <_ZN8ChxUtils34UpdateMetadataWithSnapshotSettingsER11ChiMetadata+0x18>
   253d4: 41 ff ff b0  	adrp	x1, 0xe000 <_ZN8ChxUtils34UpdateMetadataWithSnapshotSettingsER11ChiMetadata+0x38>
   253d8: 42 ff ff 90  	adrp	x2, 0xd000 <_ZN8ChxUtils34UpdateMetadataWithSnapshotSettingsER11ChiMetadata+0x38>
   253dc: 45 ff ff 90  	adrp	x5, 0xd000 <_ZN8ChxUtils34UpdateMetadataWithSnapshotSettingsER11ChiMetadata+0x3c>
   253fc: 54 ff ff 90  	adrp	x20, 0xd000 <_ZN8ChxUtils34UpdateMetadataWithSnapshotSettingsER11ChiMetadata+0x5c>
   25418: 21 ff ff b0  	adrp	x1, 0xa000 <_ZN8ChxUtils34UpdateMetadataWithSnapshotSettingsER11ChiMetadata+0x6c>
   25420: 40 ff ff 90  	adrp	x0, 0xd000 <_ZN8ChxUtils34UpdateMetadataWithSnapshotSettingsER11ChiMetadata+0x80>
   25424: 43 ff ff 90  	adrp	x3, 0xd000 <_ZN8ChxUtils34UpdateMetadataWithSnapshotSettingsER11ChiMetadata+0x84>
   25428: 45 ff ff 90  	adrp	x5, 0xd000 <_ZN8ChxUtils34UpdateMetadataWithSnapshotSettingsER11ChiMetadata+0x88>
   25440: 18 3b 00 94  	bl	0x340a0 <_ZN6ChiLog9LogSystemEPKcS1_S1_S1_iS1_z@plt>
   25448: 41 ff ff 90  	adrp	x1, 0xd000 <_ZN8ChxUtils34UpdateMetadataWithSnapshotSettingsER11ChiMetadata+0xa8>
   25450: 42 ff ff 90  	adrp	x2, 0xd000 <_ZN8ChxUtils34UpdateMetadataWithSnapshotSettingsER11ChiMetadata+0xb0>
   25474: 41 ff ff 90  	adrp	x1, 0xd000 <_ZN8ChxUtils34UpdateMetadataWithSnapshotSettingsER11ChiMetadata+0xd4>
   2547c: 22 ff ff b0  	adrp	x2, 0xa000 <_ZN8ChxUtils34UpdateMetadataWithSnapshotSettingsER11ChiMetadata+0xd0>
   2549c: 2d 07 00 b5  	cbnz	x13, 0x25580 <_ZN8ChxUtils34UpdateMetadataWithSnapshotSettingsER11ChiMetadata+0x240>
   254a0: 8a 00 00 90  	adrp	x10, 0x35000 <_ZN8ChxUtils34UpdateMetadataWithSnapshotSettingsER11ChiMetadata+0x1a0>
   254ac: 29 05 30 36  	tbz	w9, #6, 0x25550 <_ZN8ChxUtils34UpdateMetadataWithSnapshotSettingsER11ChiMetadata+0x210>
   254b0: 8b 00 00 90  	adrp	x11, 0x35000 <_ZN8ChxUtils34UpdateMetadataWithSnapshotSettingsER11ChiMetadata+0x1b0>
   254c0: 41 02 00 54  	b.ne	0x25508 <_ZN8ChxUtils34UpdateMetadataWithSnapshotSettingsER11ChiMetadata+0x1c8>
   254c4: 54 ff ff 90  	adrp	x20, 0xd000 <_ZN8ChxUtils34UpdateMetadataWithSnapshotSettingsER11ChiMetadata+0x124>
   254e0: 41 ff ff b0  	adrp	x1, 0xe000 <_ZN8ChxUtils34UpdateMetadataWithSnapshotSettingsER11ChiMetadata+0x144>
   254e4: 42 ff ff 90  	adrp	x2, 0xd000 <_ZN8ChxUtils34UpdateMetadataWithSnapshotSettingsER11ChiMetadata+0x144>
   254e8: 45 ff ff 90  	adrp	x5, 0xd000 <_ZN8ChxUtils34UpdateMetadataWithSnapshotSettingsER11ChiMetadata+0x148>
   25508: 54 ff ff 90  	adrp	x20, 0xd000 <_ZN8ChxUtils34UpdateMetadataWithSnapshotSettingsER11ChiMetadata+0x168>
   25524: 21 ff ff b0  	adrp	x1, 0xa000 <_ZN8ChxUtils34UpdateMetadataWithSnapshotSettingsER11ChiMetadata+0x178>
   2552c: 40 ff ff 90  	adrp	x0, 0xd000 <_ZN8ChxUtils34UpdateMetadataWithSnapshotSettingsER11ChiMetadata+0x18c>
   25530: 43 ff ff 90  	adrp	x3, 0xd000 <_ZN8ChxUtils34UpdateMetadataWithSnapshotSettingsER11ChiMetadata+0x190>
   25534: 45 ff ff 90  	adrp	x5, 0xd000 <_ZN8ChxUtils34UpdateMetadataWithSnapshotSettingsER11ChiMetadata+0x194>
   2554c: d5 3a 00 94  	bl	0x340a0 <_ZN6ChiLog9LogSystemEPKcS1_S1_S1_iS1_z@plt>
   25554: 41 ff ff 90  	adrp	x1, 0xd000 <_ZN8ChxUtils34UpdateMetadataWithSnapshotSettingsER11ChiMetadata+0x1b4>
   2555c: 22 ff ff b0  	adrp	x2, 0xa000 <_ZN8ChxUtils34UpdateMetadataWithSnapshotSettingsER11ChiMetadata+0x1b0>
   25584: 41 ff ff d0  	adrp	x1, 0xf000 <_ZN8ChxUtils34UpdateMetadataWithSnapshotSettingsER11ChiMetadata+0x1ec>
   2558c: 42 ff ff b0  	adrp	x2, 0xe000 <_ZN8ChxUtils34UpdateMetadataWithSnapshotSettingsER11ChiMetadata+0x1f0>
   255ac: 70 05 00 b5  	cbnz	x16, 0x25658 <_ZN8ChxUtils34UpdateMetadataWithSnapshotSettingsER11ChiMetadata+0x318>
   255b0: 8c 00 00 90  	adrp	x12, 0x35000 <_ZN8ChxUtils34UpdateMetadataWithSnapshotSettingsER11ChiMetadata+0x2b0>
   255bc: eb 04 30 36  	tbz	w11, #6, 0x25658 <_ZN8ChxUtils34UpdateMetadataWithSnapshotSettingsER11ChiMetadata+0x318>
   255c0: 8d 00 00 90  	adrp	x13, 0x35000 <_ZN8ChxUtils34UpdateMetadataWithSnapshotSettingsER11ChiMetadata+0x2c0>
   255c4: 53 ff ff 90  	adrp	x19, 0xd000 <_ZN8ChxUtils34UpdateMetadataWithSnapshotSettingsER11ChiMetadata+0x224>
   255d8: 01 02 00 54  	b.ne	0x25618 <_ZN8ChxUtils34UpdateMetadataWithSnapshotSettingsER11ChiMetadata+0x2d8>
   255f0: 41 ff ff b0  	adrp	x1, 0xe000 <_ZN8ChxUtils34UpdateMetadataWithSnapshotSettingsER11ChiMetadata+0x254>
   255f4: 22 ff ff 90  	adrp	x2, 0x9000 <_ZN8ChxUtils34UpdateMetadataWithSnapshotSettingsER11ChiMetadata+0x244>
   255f8: 45 ff ff 90  	adrp	x5, 0xd000 <_ZN8ChxUtils34UpdateMetadataWithSnapshotSettingsER11ChiMetadata+0x258>
   2562c: 21 ff ff b0  	adrp	x1, 0xa000 <_ZN8ChxUtils34UpdateMetadataWithSnapshotSettingsER11ChiMetadata+0x280>
   25634: 40 ff ff 90  	adrp	x0, 0xd000 <_ZN8ChxUtils34UpdateMetadataWithSnapshotSettingsER11ChiMetadata+0x294>
   25638: 43 ff ff 90  	adrp	x3, 0xd000 <_ZN8ChxUtils34UpdateMetadataWithSnapshotSettingsER11ChiMetadata+0x298>
   2563c: 45 ff ff 90  	adrp	x5, 0xd000 <_ZN8ChxUtils34UpdateMetadataWithSnapshotSettingsER11ChiMetadata+0x29c>
   25654: 93 3a 00 94  	bl	0x340a0 <_ZN6ChiLog9LogSystemEPKcS1_S1_S1_iS1_z@plt>
   25664: e1 00 00 54  	b.ne	0x25680 <_ZN8ChxUtils34UpdateMetadataWithSnapshotSettingsER11ChiMetadata+0x340>
0000000000025688 <_ZN8ChxUtils21GetCaptureIntentValueEP11ChiMetadata>:
   256a8: 40 01 00 b4  	cbz	x0, 0x256d0 <_ZN8ChxUtils21GetCaptureIntentValueEP11ChiMetadata+0x48>
   256cc: 80 01 00 34  	cbz	w0, 0x256fc <_ZN8ChxUtils21GetCaptureIntentValueEP11ChiMetadata+0x74>
   256e0: c1 06 00 54  	b.ne	0x257b8 <_ZN8ChxUtils21GetCaptureIntentValueEP11ChiMetadata+0x130>
   256fc: 88 00 00 90  	adrp	x8, 0x35000 <_ZN8ChxUtils21GetCaptureIntentValueEP11ChiMetadata+0xb4>
   25710: 28 fe 2f 36  	tbz	w8, #5, 0x256d4 <_ZN8ChxUtils21GetCaptureIntentValueEP11ChiMetadata+0x4c>
   25714: 8a 00 00 90  	adrp	x10, 0x35000 <_ZN8ChxUtils21GetCaptureIntentValueEP11ChiMetadata+0xcc>
   25718: 54 ff ff 90  	adrp	x20, 0xd000 <_ZN8ChxUtils21GetCaptureIntentValueEP11ChiMetadata+0x30>
   2572c: 21 02 00 54  	b.ne	0x25770 <_ZN8ChxUtils21GetCaptureIntentValueEP11ChiMetadata+0xe8>
   25744: 41 ff ff b0  	adrp	x1, 0xe000 <_ZN8ChxUtils21GetCaptureIntentValueEP11ChiMetadata+0x60>
   25748: 22 ff ff f0  	adrp	x2, 0xc000 <_ZN8ChxUtils21GetCaptureIntentValueEP11ChiMetadata+0x5c>
   2574c: 25 ff ff f0  	adrp	x5, 0xc000 <_ZN8ChxUtils21GetCaptureIntentValueEP11ChiMetadata+0x60>
   25784: 21 ff ff f0  	adrp	x1, 0xc000 <_ZN8ChxUtils21GetCaptureIntentValueEP11ChiMetadata+0x98>
   2578c: 40 ff ff b0  	adrp	x0, 0xe000 <_ZN8ChxUtils21GetCaptureIntentValueEP11ChiMetadata+0xa8>
   25790: 23 ff ff f0  	adrp	x3, 0xc000 <_ZN8ChxUtils21GetCaptureIntentValueEP11ChiMetadata+0xa4>
   25794: 25 ff ff f0  	adrp	x5, 0xc000 <_ZN8ChxUtils21GetCaptureIntentValueEP11ChiMetadata+0xa8>
   257b0: 3c 3a 00 94  	bl	0x340a0 <_ZN6ChiLog9LogSystemEPKcS1_S1_S1_iS1_z@plt>
   257b4: c8 ff ff 17  	b	0x256d4 <_ZN8ChxUtils21GetCaptureIntentValueEP11ChiMetadata+0x4c>
00000000000257c0 <_ZN8ChxUtils28DoesCameraHaveOnlyRawStreamsEP19ChiStreamConfigInfoj>:
   257dc: 48 04 00 34  	cbz	w8, 0x25864 <_ZN8ChxUtils28DoesCameraHaveOnlyRawStreamsEP19ChiStreamConfigInfoj+0xa4>
   257f8: 06 00 00 14  	b	0x25810 <_ZN8ChxUtils28DoesCameraHaveOnlyRawStreamsEP19ChiStreamConfigInfoj+0x50>
   2580c: e2 02 00 54  	b.hs	0x25868 <_ZN8ChxUtils28DoesCameraHaveOnlyRawStreamsEP19ChiStreamConfigInfoj+0xa8>
   2581c: 20 ff ff b4  	cbz	x0, 0x25800 <_ZN8ChxUtils28DoesCameraHaveOnlyRawStreamsEP19ChiStreamConfigInfoj+0x40>
   25820: 39 01 00 b4  	cbz	x25, 0x25844 <_ZN8ChxUtils28DoesCameraHaveOnlyRawStreamsEP19ChiStreamConfigInfoj+0x84>
   2582c: c0 00 00 b4  	cbz	x0, 0x25844 <_ZN8ChxUtils28DoesCameraHaveOnlyRawStreamsEP19ChiStreamConfigInfoj+0x84>
   25840: 01 fe ff 54  	b.ne	0x25800 <_ZN8ChxUtils28DoesCameraHaveOnlyRawStreamsEP19ChiStreamConfigInfoj+0x40>
   25850: 68 00 00 54  	b.hi	0x2585c <_ZN8ChxUtils28DoesCameraHaveOnlyRawStreamsEP19ChiStreamConfigInfoj+0x9c>
   25858: 29 fd 07 37  	tbnz	w9, #0, 0x257fc <_ZN8ChxUtils28DoesCameraHaveOnlyRawStreamsEP19ChiStreamConfigInfoj+0x3c>
   25860: 04 00 00 14  	b	0x25870 <_ZN8ChxUtils28DoesCameraHaveOnlyRawStreamsEP19ChiStreamConfigInfoj+0xb0>
0000000000025888 <_ZN8ChxUtils23UpdateOptimalDimensionsE12ChiDimensionRK16ChiBufferOptionsRS0_>:
   258ac: 68 05 00 34  	cbz	w8, 0x25958 <_ZN8ChxUtils23UpdateOptimalDimensionsE12ChiDimensionRK16ChiBufferOptionsRS0_+0xd0>
   258f0: 0d 04 00 54  	b.le	0x25970 <_ZN8ChxUtils23UpdateOptimalDimensionsE12ChiDimensionRK16ChiBufferOptionsRS0_+0xe8>
   2592c: 99 00 00 90  	adrp	x25, 0x35000 <_ZN8ChxUtils23UpdateOptimalDimensionsE12ChiDimensionRK16ChiBufferOptionsRS0_+0xe4>
   25938: 63 02 28 37  	tbnz	w3, #5, 0x25984 <_ZN8ChxUtils23UpdateOptimalDimensionsE12ChiDimensionRK16ChiBufferOptionsRS0_+0xfc>
   25944: 42 08 00 54  	b.hs	0x25a4c <_ZN8ChxUtils23UpdateOptimalDimensionsE12ChiDimensionRK16ChiBufferOptionsRS0_+0x1c4>
   25954: cd 00 00 14  	b	0x25c88 <_ZN8ChxUtils23UpdateOptimalDimensionsE12ChiDimensionRK16ChiBufferOptionsRS0_+0x400>
   25958: 88 00 00 90  	adrp	x8, 0x35000 <_ZN8ChxUtils23UpdateOptimalDimensionsE12ChiDimensionRK16ChiBufferOptionsRS0_+0x110>
   25964: 8b 0d 00 37  	tbnz	w11, #0, 0x25b14 <_ZN8ChxUtils23UpdateOptimalDimensionsE12ChiDimensionRK16ChiBufferOptionsRS0_+0x28c>
   2596c: c7 00 00 14  	b	0x25c88 <_ZN8ChxUtils23UpdateOptimalDimensionsE12ChiDimensionRK16ChiBufferOptionsRS0_+0x400>
   25974: 99 00 00 90  	adrp	x25, 0x35000 <_ZN8ChxUtils23UpdateOptimalDimensionsE12ChiDimensionRK16ChiBufferOptionsRS0_+0x12c>
   25980: e3 fd 2f 36  	tbz	w3, #5, 0x2593c <_ZN8ChxUtils23UpdateOptimalDimensionsE12ChiDimensionRK16ChiBufferOptionsRS0_+0xb4>
   25984: 8a 00 00 90  	adrp	x10, 0x35000 <_ZN8ChxUtils23UpdateOptimalDimensionsE12ChiDimensionRK16ChiBufferOptionsRS0_+0x13c>
   25988: 56 ff ff 90  	adrp	x22, 0xd000 <_ZN8ChxUtils23UpdateOptimalDimensionsE12ChiDimensionRK16ChiBufferOptionsRS0_+0xa0>
   2599c: 81 02 00 54  	b.ne	0x259ec <_ZN8ChxUtils23UpdateOptimalDimensionsE12ChiDimensionRK16ChiBufferOptionsRS0_+0x164>
   259b8: 41 ff ff b0  	adrp	x1, 0xe000 <_ZN8ChxUtils23UpdateOptimalDimensionsE12ChiDimensionRK16ChiBufferOptionsRS0_+0xd4>
   259bc: 22 ff ff f0  	adrp	x2, 0xc000 <_ZN8ChxUtils23UpdateOptimalDimensionsE12ChiDimensionRK16ChiBufferOptionsRS0_+0xd0>
   259c0: 25 ff ff 90  	adrp	x5, 0x9000 <_ZN8ChxUtils23UpdateOptimalDimensionsE12ChiDimensionRK16ChiBufferOptionsRS0_+0xc8>
   25a04: 21 ff ff f0  	adrp	x1, 0xc000 <_ZN8ChxUtils23UpdateOptimalDimensionsE12ChiDimensionRK16ChiBufferOptionsRS0_+0x118>
   25a0c: 40 ff ff b0  	adrp	x0, 0xe000 <_ZN8ChxUtils23UpdateOptimalDimensionsE12ChiDimensionRK16ChiBufferOptionsRS0_+0x128>
   25a10: 23 ff ff 90  	adrp	x3, 0x9000 <_ZN8ChxUtils23UpdateOptimalDimensionsE12ChiDimensionRK16ChiBufferOptionsRS0_+0x118>
   25a14: 25 ff ff 90  	adrp	x5, 0x9000 <_ZN8ChxUtils23UpdateOptimalDimensionsE12ChiDimensionRK16ChiBufferOptionsRS0_+0x11c>
   25a38: 9a 39 00 94  	bl	0x340a0 <_ZN6ChiLog9LogSystemEPKcS1_S1_S1_iS1_z@plt>
   25a48: 03 f8 ff 54  	b.lo	0x25948 <_ZN8ChxUtils23UpdateOptimalDimensionsE12ChiDimensionRK16ChiBufferOptionsRS0_+0xc0>
   25a5c: 49 0b 00 54  	b.ls	0x25bc4 <_ZN8ChxUtils23UpdateOptimalDimensionsE12ChiDimensionRK16ChiBufferOptionsRS0_+0x33c>
   25a60: 0a 11 08 36  	tbz	w10, #1, 0x25c80 <_ZN8ChxUtils23UpdateOptimalDimensionsE12ChiDimensionRK16ChiBufferOptionsRS0_+0x3f8>
   25a64: 8b 00 00 90  	adrp	x11, 0x35000 <_ZN8ChxUtils23UpdateOptimalDimensionsE12ChiDimensionRK16ChiBufferOptionsRS0_+0x21c>
   25a74: a1 02 00 54  	b.ne	0x25ac8 <_ZN8ChxUtils23UpdateOptimalDimensionsE12ChiDimensionRK16ChiBufferOptionsRS0_+0x240>
   25a78: 56 ff ff 90  	adrp	x22, 0xd000 <_ZN8ChxUtils23UpdateOptimalDimensionsE12ChiDimensionRK16ChiBufferOptionsRS0_+0x190>
   25a98: 41 ff ff b0  	adrp	x1, 0xe000 <_ZN8ChxUtils23UpdateOptimalDimensionsE12ChiDimensionRK16ChiBufferOptionsRS0_+0x1b4>
   25a9c: 22 ff ff 90  	adrp	x2, 0x9000 <_ZN8ChxUtils23UpdateOptimalDimensionsE12ChiDimensionRK16ChiBufferOptionsRS0_+0x1a4>
   25aa0: 25 ff ff 90  	adrp	x5, 0x9000 <_ZN8ChxUtils23UpdateOptimalDimensionsE12ChiDimensionRK16ChiBufferOptionsRS0_+0x1a8>
   25ac8: 56 ff ff 90  	adrp	x22, 0xd000 <_ZN8ChxUtils23UpdateOptimalDimensionsE12ChiDimensionRK16ChiBufferOptionsRS0_+0x1e0>
   25ae4: 21 ff ff b0  	adrp	x1, 0xa000 <_ZN8ChxUtils23UpdateOptimalDimensionsE12ChiDimensionRK16ChiBufferOptionsRS0_+0x1f0>
   25af0: 40 ff ff 90  	adrp	x0, 0xd000 <_ZN8ChxUtils23UpdateOptimalDimensionsE12ChiDimensionRK16ChiBufferOptionsRS0_+0x208>
   25af4: 23 ff ff 90  	adrp	x3, 0x9000 <_ZN8ChxUtils23UpdateOptimalDimensionsE12ChiDimensionRK16ChiBufferOptionsRS0_+0x1fc>
   25af8: 25 ff ff b0  	adrp	x5, 0xa000 <_ZN8ChxUtils23UpdateOptimalDimensionsE12ChiDimensionRK16ChiBufferOptionsRS0_+0x204>
   25b10: 59 00 00 14  	b	0x25c74 <_ZN8ChxUtils23UpdateOptimalDimensionsE12ChiDimensionRK16ChiBufferOptionsRS0_+0x3ec>
   25b14: 89 00 00 90  	adrp	x9, 0x35000 <_ZN8ChxUtils23UpdateOptimalDimensionsE12ChiDimensionRK16ChiBufferOptionsRS0_+0x2cc>
   25b24: 61 02 00 54  	b.ne	0x25b70 <_ZN8ChxUtils23UpdateOptimalDimensionsE12ChiDimensionRK16ChiBufferOptionsRS0_+0x2e8>
   25b28: 56 ff ff 90  	adrp	x22, 0xd000 <_ZN8ChxUtils23UpdateOptimalDimensionsE12ChiDimensionRK16ChiBufferOptionsRS0_+0x240>
   25b48: 41 ff ff b0  	adrp	x1, 0xe000 <_ZN8ChxUtils23UpdateOptimalDimensionsE12ChiDimensionRK16ChiBufferOptionsRS0_+0x264>
   25b4c: 42 ff ff 90  	adrp	x2, 0xd000 <_ZN8ChxUtils23UpdateOptimalDimensionsE12ChiDimensionRK16ChiBufferOptionsRS0_+0x264>
   25b50: 25 ff ff 90  	adrp	x5, 0x9000 <_ZN8ChxUtils23UpdateOptimalDimensionsE12ChiDimensionRK16ChiBufferOptionsRS0_+0x258>
   25b70: 56 ff ff 90  	adrp	x22, 0xd000 <_ZN8ChxUtils23UpdateOptimalDimensionsE12ChiDimensionRK16ChiBufferOptionsRS0_+0x288>
   25b94: 20 ff ff 90  	adrp	x0, 0x9000 <_ZN8ChxUtils23UpdateOptimalDimensionsE12ChiDimensionRK16ChiBufferOptionsRS0_+0x29c>
   25b98: 41 ff ff b0  	adrp	x1, 0xe000 <_ZN8ChxUtils23UpdateOptimalDimensionsE12ChiDimensionRK16ChiBufferOptionsRS0_+0x2b4>
   25b9c: 23 ff ff 90  	adrp	x3, 0x9000 <_ZN8ChxUtils23UpdateOptimalDimensionsE12ChiDimensionRK16ChiBufferOptionsRS0_+0x2a4>
   25ba0: 45 ff ff b0  	adrp	x5, 0xe000 <_ZN8ChxUtils23UpdateOptimalDimensionsE12ChiDimensionRK16ChiBufferOptionsRS0_+0x2bc>
   25bb8: 3a 39 00 94  	bl	0x340a0 <_ZN6ChiLog9LogSystemEPKcS1_S1_S1_iS1_z@plt>
   25bc0: 32 00 00 14  	b	0x25c88 <_ZN8ChxUtils23UpdateOptimalDimensionsE12ChiDimensionRK16ChiBufferOptionsRS0_+0x400>
   25bc4: ea 05 18 36  	tbz	w10, #3, 0x25c80 <_ZN8ChxUtils23UpdateOptimalDimensionsE12ChiDimensionRK16ChiBufferOptionsRS0_+0x3f8>
   25bc8: 8c 00 00 90  	adrp	x12, 0x35000 <_ZN8ChxUtils23UpdateOptimalDimensionsE12ChiDimensionRK16ChiBufferOptionsRS0_+0x380>
   25bd8: a1 02 00 54  	b.ne	0x25c2c <_ZN8ChxUtils23UpdateOptimalDimensionsE12ChiDimensionRK16ChiBufferOptionsRS0_+0x3a4>
   25bdc: 56 ff ff 90  	adrp	x22, 0xd000 <_ZN8ChxUtils23UpdateOptimalDimensionsE12ChiDimensionRK16ChiBufferOptionsRS0_+0x2f4>
   25bfc: 41 ff ff b0  	adrp	x1, 0xe000 <_ZN8ChxUtils23UpdateOptimalDimensionsE12ChiDimensionRK16ChiBufferOptionsRS0_+0x318>
   25c00: 42 ff ff 90  	adrp	x2, 0xd000 <_ZN8ChxUtils23UpdateOptimalDimensionsE12ChiDimensionRK16ChiBufferOptionsRS0_+0x318>
   25c04: 25 ff ff 90  	adrp	x5, 0x9000 <_ZN8ChxUtils23UpdateOptimalDimensionsE12ChiDimensionRK16ChiBufferOptionsRS0_+0x30c>
   25c2c: 56 ff ff 90  	adrp	x22, 0xd000 <_ZN8ChxUtils23UpdateOptimalDimensionsE12ChiDimensionRK16ChiBufferOptionsRS0_+0x344>
   25c4c: 21 ff ff f0  	adrp	x1, 0xc000 <_ZN8ChxUtils23UpdateOptimalDimensionsE12ChiDimensionRK16ChiBufferOptionsRS0_+0x360>
   25c54: 40 ff ff d0  	adrp	x0, 0xf000 <_ZN8ChxUtils23UpdateOptimalDimensionsE12ChiDimensionRK16ChiBufferOptionsRS0_+0x374>
   25c58: 23 ff ff 90  	adrp	x3, 0x9000 <_ZN8ChxUtils23UpdateOptimalDimensionsE12ChiDimensionRK16ChiBufferOptionsRS0_+0x360>
   25c5c: 25 ff ff d0  	adrp	x5, 0xb000 <_ZN8ChxUtils23UpdateOptimalDimensionsE12ChiDimensionRK16ChiBufferOptionsRS0_+0x36c>
   25c7c: 09 39 00 94  	bl	0x340a0 <_ZN6ChiLog9LogSystemEPKcS1_S1_S1_iS1_z@plt>
0000000000025ca8 <_ZN8ChxUtils18SetStreamDimensionEP11ChiMetadataPKcjj>:
   25cc4: a0 01 00 b4  	cbz	x0, 0x25cf8 <_ZN8ChxUtils18SetStreamDimensionEP11ChiMetadataPKcjj+0x50>
   25cd0: 41 01 00 b4  	cbz	x1, 0x25cf8 <_ZN8ChxUtils18SetStreamDimensionEP11ChiMetadataPKcjj+0x50>
   25cd8: 21 ff ff 90  	adrp	x1, 0x9000 <_ZN8ChxUtils23UpdateOptimalDimensionsE12ChiDimensionRK16ChiBufferOptionsRS0_+0x3e0>
   25d04: c1 00 00 54  	b.ne	0x25d1c <_ZN8ChxUtils18SetStreamDimensionEP11ChiMetadataPKcjj+0x74>
0000000000025d20 <_ZN8ChxUtils22UpdatePhysicalMetadataEP15camera_metadataP11ChiMetadata12CHIRectangleii>:
   25d50: 41 02 00 54  	b.ne	0x25d98 <_ZN8ChxUtils22UpdatePhysicalMetadataEP15camera_metadataP11ChiMetadata12CHIRectangleii+0x78>
   25d64: e0 00 00 34  	cbz	w0, 0x25d80 <_ZN8ChxUtils22UpdatePhysicalMetadataEP15camera_metadataP11ChiMetadata12CHIRectangleii+0x60>
   25d7c: 07 00 00 14  	b	0x25d98 <_ZN8ChxUtils22UpdatePhysicalMetadataEP15camera_metadataP11ChiMetadata12CHIRectangleii+0x78>
   25dac: 80 00 00 35  	cbnz	w0, 0x25dbc <_ZN8ChxUtils22UpdatePhysicalMetadataEP15camera_metadataP11ChiMetadata12CHIRectangleii+0x9c>
   25dc8: a1 00 00 54  	b.ne	0x25ddc <_ZN8ChxUtils22UpdatePhysicalMetadataEP15camera_metadataP11ChiMetadata12CHIRectangleii+0xbc>
0000000000025de0 <_ZN8ChxUtils18IsSnapshotMetadataEP11ChiMetadata>:
   25df4: 21 ff ff 90  	adrp	x1, 0x9000 <_ZN8ChxUtils22UpdatePhysicalMetadataEP15camera_metadataP11ChiMetadata12CHIRectangleii+0x64>
   25dfc: 22 ff ff d0  	adrp	x2, 0xb000 <_ZN8ChxUtils22UpdatePhysicalMetadataEP15camera_metadataP11ChiMetadata12CHIRectangleii+0x74>
   25e28: a8 01 00 b4  	cbz	x8, 0x25e5c <_ZN8ChxUtils18IsSnapshotMetadataEP11ChiMetadata+0x7c>
   25e48: 01 07 00 54  	b.ne	0x25f28 <_ZN8ChxUtils18IsSnapshotMetadataEP11ChiMetadata+0x148>
   25e5c: 89 00 00 90  	adrp	x9, 0x35000 <_ZN8ChxUtils18IsSnapshotMetadataEP11ChiMetadata+0xbc>
   25e68: e8 04 00 36  	tbz	w8, #0, 0x25f04 <_ZN8ChxUtils18IsSnapshotMetadataEP11ChiMetadata+0x124>
   25e6c: 8a 00 00 90  	adrp	x10, 0x35000 <_ZN8ChxUtils18IsSnapshotMetadataEP11ChiMetadata+0xcc>
   25e70: 53 ff ff 90  	adrp	x19, 0xd000 <_ZN8ChxUtils18IsSnapshotMetadataEP11ChiMetadata+0x30>
   25e84: 01 02 00 54  	b.ne	0x25ec4 <_ZN8ChxUtils18IsSnapshotMetadataEP11ChiMetadata+0xe4>
   25e9c: 41 ff ff b0  	adrp	x1, 0xe000 <_ZN8ChxUtils18IsSnapshotMetadataEP11ChiMetadata+0x60>
   25ea0: 22 ff ff d0  	adrp	x2, 0xb000 <_ZN8ChxUtils18IsSnapshotMetadataEP11ChiMetadata+0x58>
   25ea4: 25 ff ff d0  	adrp	x5, 0xb000 <_ZN8ChxUtils18IsSnapshotMetadataEP11ChiMetadata+0x5c>
   25ed8: 41 ff ff b0  	adrp	x1, 0xe000 <_ZN8ChxUtils18IsSnapshotMetadataEP11ChiMetadata+0x9c>
   25ee0: 20 ff ff 90  	adrp	x0, 0x9000 <_ZN8ChxUtils18IsSnapshotMetadataEP11ChiMetadata+0x90>
   25ee4: 23 ff ff d0  	adrp	x3, 0xb000 <_ZN8ChxUtils18IsSnapshotMetadataEP11ChiMetadata+0x9c>
   25ee8: 25 ff ff f0  	adrp	x5, 0xc000 <_ZN8ChxUtils18IsSnapshotMetadataEP11ChiMetadata+0xa4>
   25f00: 68 38 00 94  	bl	0x340a0 <_ZN6ChiLog9LogSystemEPKcS1_S1_S1_iS1_z@plt>
   25f10: c1 00 00 54  	b.ne	0x25f28 <_ZN8ChxUtils18IsSnapshotMetadataEP11ChiMetadata+0x148>
0000000000025f30 <_ZN8ChxUtils27UpdatePartialTuningModeDataEP11ChiMetadatajjj>:
   25f5c: 60 13 00 b4  	cbz	x0, 0x261c8 <_ZN8ChxUtils27UpdatePartialTuningModeDataEP11ChiMetadatajjj+0x298>
   25f60: 08 39 00 94  	bl	0x34380 <_ZN15ExtensionModule11GetInstanceEv@plt>
   25f80: 96 00 00 90  	adrp	x22, 0x35000 <_ZN8ChxUtils27UpdatePartialTuningModeDataEP11ChiMetadatajjj+0x90>
   25f88: 20 05 00 34  	cbz	w0, 0x2602c <_ZN8ChxUtils27UpdatePartialTuningModeDataEP11ChiMetadatajjj+0xfc>
   25f90: e8 04 08 36  	tbz	w8, #1, 0x2602c <_ZN8ChxUtils27UpdatePartialTuningModeDataEP11ChiMetadatajjj+0xfc>
   25f94: 88 00 00 90  	adrp	x8, 0x35000 <_ZN8ChxUtils27UpdatePartialTuningModeDataEP11ChiMetadatajjj+0xa4>
   25f98: 54 ff ff 90  	adrp	x20, 0xd000 <_ZN8ChxUtils27UpdatePartialTuningModeDataEP11ChiMetadatajjj+0x8>
   25fac: 01 02 00 54  	b.ne	0x25fec <_ZN8ChxUtils27UpdatePartialTuningModeDataEP11ChiMetadatajjj+0xbc>
   25fc4: 41 ff ff b0  	adrp	x1, 0xe000 <_ZN8ChxUtils27UpdatePartialTuningModeDataEP11ChiMetadatajjj+0x38>
   25fc8: 22 ff ff b0  	adrp	x2, 0xa000 <_ZN8ChxUtils27UpdatePartialTuningModeDataEP11ChiMetadatajjj+0x2c>
   25fcc: 45 ff ff 90  	adrp	x5, 0xd000 <_ZN8ChxUtils27UpdatePartialTuningModeDataEP11ChiMetadatajjj+0x3c>
   26000: 21 ff ff 90  	adrp	x1, 0xa000 <_ZN8ChxUtils27UpdatePartialTuningModeDataEP11ChiMetadatajjj+0x60>
   26008: 20 ff ff f0  	adrp	x0, 0xd000 <_ZN8ChxUtils27UpdatePartialTuningModeDataEP11ChiMetadatajjj+0x74>
   2600c: 23 ff ff f0  	adrp	x3, 0xd000 <_ZN8ChxUtils27UpdatePartialTuningModeDataEP11ChiMetadatajjj+0x78>
   26010: 25 ff ff f0  	adrp	x5, 0xd000 <_ZN8ChxUtils27UpdatePartialTuningModeDataEP11ChiMetadatajjj+0x7c>
   26028: 1e 38 00 94  	bl	0x340a0 <_ZN6ChiLog9LogSystemEPKcS1_S1_S1_iS1_z@plt>
   2602c: d5 38 00 94  	bl	0x34380 <_ZN15ExtensionModule11GetInstanceEv@plt>
   2604c: 60 05 00 34  	cbz	w0, 0x260f8 <_ZN8ChxUtils27UpdatePartialTuningModeDataEP11ChiMetadatajjj+0x1c8>
   26054: 29 05 08 36  	tbz	w9, #1, 0x260f8 <_ZN8ChxUtils27UpdatePartialTuningModeDataEP11ChiMetadatajjj+0x1c8>
   26058: 69 00 00 f0  	adrp	x9, 0x35000 <_ZN8ChxUtils27UpdatePartialTuningModeDataEP11ChiMetadatajjj+0x164>
   26068: 41 02 00 54  	b.ne	0x260b0 <_ZN8ChxUtils27UpdatePartialTuningModeDataEP11ChiMetadatajjj+0x180>
   2606c: 34 ff ff f0  	adrp	x20, 0xd000 <_ZN8ChxUtils27UpdatePartialTuningModeDataEP11ChiMetadatajjj+0xd8>
   26088: 41 ff ff 90  	adrp	x1, 0xe000 <_ZN8ChxUtils27UpdatePartialTuningModeDataEP11ChiMetadatajjj+0xf8>
   2608c: 22 ff ff d0  	adrp	x2, 0xc000 <_ZN8ChxUtils27UpdatePartialTuningModeDataEP11ChiMetadatajjj+0xf4>
   26090: 25 ff ff f0  	adrp	x5, 0xd000 <_ZN8ChxUtils27UpdatePartialTuningModeDataEP11ChiMetadatajjj+0xfc>
   260b0: 34 ff ff f0  	adrp	x20, 0xd000 <_ZN8ChxUtils27UpdatePartialTuningModeDataEP11ChiMetadatajjj+0x11c>
   260cc: 21 ff ff 90  	adrp	x1, 0xa000 <_ZN8ChxUtils27UpdatePartialTuningModeDataEP11ChiMetadatajjj+0x12c>
   260d4: 20 ff ff f0  	adrp	x0, 0xd000 <_ZN8ChxUtils27UpdatePartialTuningModeDataEP11ChiMetadatajjj+0x140>
   260d8: 23 ff ff f0  	adrp	x3, 0xd000 <_ZN8ChxUtils27UpdatePartialTuningModeDataEP11ChiMetadatajjj+0x144>
   260dc: 05 ff ff f0  	adrp	x5, 0x9000 <_ZN8ChxUtils27UpdatePartialTuningModeDataEP11ChiMetadatajjj+0x138>
   260f4: eb 37 00 94  	bl	0x340a0 <_ZN6ChiLog9LogSystemEPKcS1_S1_S1_iS1_z@plt>
   260f8: a2 38 00 94  	bl	0x34380 <_ZN15ExtensionModule11GetInstanceEv@plt>
   2611c: 60 05 00 34  	cbz	w0, 0x261c8 <_ZN8ChxUtils27UpdatePartialTuningModeDataEP11ChiMetadatajjj+0x298>
   26124: 2a 05 08 36  	tbz	w10, #1, 0x261c8 <_ZN8ChxUtils27UpdatePartialTuningModeDataEP11ChiMetadatajjj+0x298>
   26128: 6a 00 00 f0  	adrp	x10, 0x35000 <_ZN8ChxUtils27UpdatePartialTuningModeDataEP11ChiMetadatajjj+0x234>
   26138: 41 02 00 54  	b.ne	0x26180 <_ZN8ChxUtils27UpdatePartialTuningModeDataEP11ChiMetadatajjj+0x250>
   2613c: 34 ff ff f0  	adrp	x20, 0xd000 <_ZN8ChxUtils27UpdatePartialTuningModeDataEP11ChiMetadatajjj+0x1a8>
   26158: 41 ff ff 90  	adrp	x1, 0xe000 <_ZN8ChxUtils27UpdatePartialTuningModeDataEP11ChiMetadatajjj+0x1c8>
   2615c: 22 ff ff d0  	adrp	x2, 0xc000 <_ZN8ChxUtils27UpdatePartialTuningModeDataEP11ChiMetadatajjj+0x1c4>
   26160: 25 ff ff f0  	adrp	x5, 0xd000 <_ZN8ChxUtils27UpdatePartialTuningModeDataEP11ChiMetadatajjj+0x1cc>
   26180: 34 ff ff f0  	adrp	x20, 0xd000 <_ZN8ChxUtils27UpdatePartialTuningModeDataEP11ChiMetadatajjj+0x1ec>
   2619c: 21 ff ff 90  	adrp	x1, 0xa000 <_ZN8ChxUtils27UpdatePartialTuningModeDataEP11ChiMetadatajjj+0x1fc>
   261a4: 20 ff ff f0  	adrp	x0, 0xd000 <_ZN8ChxUtils27UpdatePartialTuningModeDataEP11ChiMetadatajjj+0x210>
   261a8: 23 ff ff f0  	adrp	x3, 0xd000 <_ZN8ChxUtils27UpdatePartialTuningModeDataEP11ChiMetadatajjj+0x214>
   261ac: 25 ff ff b0  	adrp	x5, 0xb000 <_ZN8ChxUtils27UpdatePartialTuningModeDataEP11ChiMetadatajjj+0x210>
   261c4: b7 37 00 94  	bl	0x340a0 <_ZN6ChiLog9LogSystemEPKcS1_S1_S1_iS1_z@plt>
   261d4: e1 00 00 54  	b.ne	0x261f0 <_ZN8ChxUtils27UpdatePartialTuningModeDataEP11ChiMetadatajjj+0x2c0>
00000000000261f8 <_ZN8ChxUtils31GetFeatureValueForInternelVideoE13VideoSizeType>:
   26200: a2 00 00 54  	b.hs	0x26214 <_ZN8ChxUtils31GetFeatureValueForInternelVideoE13VideoSizeType+0x1c>
   26204: 49 ff ff b0  	adrp	x9, 0xf000 <_ZN8ChxUtils27UpdatePartialTuningModeDataEP11ChiMetadatajjj+0x278>
0000000000026228 <_ZN8ChxUtils19SetOfflineDebugDataEP11ChiMetadatam>:
   26278: e8 00 00 b4  	cbz	x8, 0x26294 <_ZN8ChxUtils19SetOfflineDebugDataEP11ChiMetadatam+0x6c>
   26280: 78 00 00 f0  	adrp	x24, 0x35000 <_ZN8ChxUtils19SetOfflineDebugDataEP11ChiMetadatam+0x94>
   2628c: ea 00 18 37  	tbnz	w10, #3, 0x262a8 <_ZN8ChxUtils19SetOfflineDebugDataEP11ChiMetadatam+0x80>
   26290: 30 00 00 14  	b	0x26350 <_ZN8ChxUtils19SetOfflineDebugDataEP11ChiMetadatam+0x128>
   26298: 78 00 00 f0  	adrp	x24, 0x35000 <_ZN8ChxUtils19SetOfflineDebugDataEP11ChiMetadatam+0xac>
   262a4: 6a 05 18 36  	tbz	w10, #3, 0x26350 <_ZN8ChxUtils19SetOfflineDebugDataEP11ChiMetadatam+0x128>
   262a8: 69 00 00 f0  	adrp	x9, 0x35000 <_ZN8ChxUtils19SetOfflineDebugDataEP11ChiMetadatam+0xbc>
   262ac: 36 ff ff f0  	adrp	x22, 0xd000 <_ZN8ChxUtils19SetOfflineDebugDataEP11ChiMetadatam+0x20>
   262c0: 41 02 00 54  	b.ne	0x26308 <_ZN8ChxUtils19SetOfflineDebugDataEP11ChiMetadatam+0xe0>
   262d8: 41 ff ff 90  	adrp	x1, 0xe000 <_ZN8ChxUtils19SetOfflineDebugDataEP11ChiMetadatam+0x50>
   262dc: 22 ff ff b0  	adrp	x2, 0xb000 <_ZN8ChxUtils19SetOfflineDebugDataEP11ChiMetadatam+0x48>
   262e0: 25 ff ff b0  	adrp	x5, 0xb000 <_ZN8ChxUtils19SetOfflineDebugDataEP11ChiMetadatam+0x4c>
   2631c: 21 ff ff d0  	adrp	x1, 0xc000 <_ZN8ChxUtils19SetOfflineDebugDataEP11ChiMetadatam+0x8c>
   26324: 40 ff ff b0  	adrp	x0, 0xf000 <_ZN8ChxUtils19SetOfflineDebugDataEP11ChiMetadatam+0xa0>
   26328: 23 ff ff b0  	adrp	x3, 0xb000 <_ZN8ChxUtils19SetOfflineDebugDataEP11ChiMetadatam+0x94>
   2632c: 45 ff ff b0  	adrp	x5, 0xf000 <_ZN8ChxUtils19SetOfflineDebugDataEP11ChiMetadatam+0xa8>
   2634c: 55 37 00 94  	bl	0x340a0 <_ZN6ChiLog9LogSystemEPKcS1_S1_S1_iS1_z@plt>
   26350: 0c 38 00 94  	bl	0x34380 <_ZN15ExtensionModule11GetInstanceEv@plt>
   2637c: 34 14 00 b4  	cbz	x20, 0x26600 <_ZN8ChxUtils19SetOfflineDebugDataEP11ChiMetadatam+0x3d8>
   26380: e8 05 18 36  	tbz	w8, #3, 0x2643c <_ZN8ChxUtils19SetOfflineDebugDataEP11ChiMetadatam+0x214>
   26384: 6b 00 00 f0  	adrp	x11, 0x35000 <_ZN8ChxUtils19SetOfflineDebugDataEP11ChiMetadatam+0x198>
   26394: a1 02 00 54  	b.ne	0x263e8 <_ZN8ChxUtils19SetOfflineDebugDataEP11ChiMetadatam+0x1c0>
   26398: 35 ff ff f0  	adrp	x21, 0xd000 <_ZN8ChxUtils19SetOfflineDebugDataEP11ChiMetadatam+0x10c>
   263b8: 41 ff ff 90  	adrp	x1, 0xe000 <_ZN8ChxUtils19SetOfflineDebugDataEP11ChiMetadatam+0x130>
   263bc: 22 ff ff d0  	adrp	x2, 0xc000 <_ZN8ChxUtils19SetOfflineDebugDataEP11ChiMetadatam+0x12c>
   263c0: 25 ff ff b0  	adrp	x5, 0xb000 <_ZN8ChxUtils19SetOfflineDebugDataEP11ChiMetadatam+0x12c>
   263e8: 36 ff ff f0  	adrp	x22, 0xd000 <_ZN8ChxUtils19SetOfflineDebugDataEP11ChiMetadatam+0x15c>
   26404: 21 ff ff d0  	adrp	x1, 0xc000 <_ZN8ChxUtils19SetOfflineDebugDataEP11ChiMetadatam+0x174>
   26410: 40 ff ff b0  	adrp	x0, 0xf000 <_ZN8ChxUtils19SetOfflineDebugDataEP11ChiMetadatam+0x18c>
   26414: 23 ff ff b0  	adrp	x3, 0xb000 <_ZN8ChxUtils19SetOfflineDebugDataEP11ChiMetadatam+0x180>
   26418: 25 ff ff d0  	adrp	x5, 0xc000 <_ZN8ChxUtils19SetOfflineDebugDataEP11ChiMetadatam+0x188>
   26438: 1a 37 00 94  	bl	0x340a0 <_ZN6ChiLog9LogSystemEPKcS1_S1_S1_iS1_z@plt>
   26440: 6d 13 00 b4  	cbz	x13, 0x266ac <_ZN8ChxUtils19SetOfflineDebugDataEP11ChiMetadatam+0x484>
   26448: 2e 13 00 b4  	cbz	x14, 0x266ac <_ZN8ChxUtils19SetOfflineDebugDataEP11ChiMetadatam+0x484>
   2644c: cd 37 00 94  	bl	0x34380 <_ZN15ExtensionModule11GetInstanceEv@plt>
   26450: f4 38 00 94  	bl	0x34820 <_ZN15ExtensionModule33GetDebugDataBufferAndAddReferenceEv@plt>
   26454: 20 18 00 b4  	cbz	x0, 0x26758 <_ZN8ChxUtils19SetOfflineDebugDataEP11ChiMetadatam+0x530>
   26460: 6b 05 18 36  	tbz	w11, #3, 0x2650c <_ZN8ChxUtils19SetOfflineDebugDataEP11ChiMetadatam+0x2e4>
   26464: 6c 00 00 f0  	adrp	x12, 0x35000 <_ZN8ChxUtils19SetOfflineDebugDataEP11ChiMetadatam+0x278>
   26474: 61 02 00 54  	b.ne	0x264c0 <_ZN8ChxUtils19SetOfflineDebugDataEP11ChiMetadatam+0x298>
   26478: 36 ff ff f0  	adrp	x22, 0xd000 <_ZN8ChxUtils19SetOfflineDebugDataEP11ChiMetadatam+0x1ec>
   26498: 41 ff ff 90  	adrp	x1, 0xe000 <_ZN8ChxUtils19SetOfflineDebugDataEP11ChiMetadatam+0x210>
   2649c: 22 ff ff d0  	adrp	x2, 0xc000 <_ZN8ChxUtils19SetOfflineDebugDataEP11ChiMetadatam+0x20c>
   264a0: 25 ff ff b0  	adrp	x5, 0xb000 <_ZN8ChxUtils19SetOfflineDebugDataEP11ChiMetadatam+0x20c>
   264c0: 36 ff ff f0  	adrp	x22, 0xd000 <_ZN8ChxUtils19SetOfflineDebugDataEP11ChiMetadatam+0x234>
   264e4: 40 ff ff b0  	adrp	x0, 0xf000 <_ZN8ChxUtils19SetOfflineDebugDataEP11ChiMetadatam+0x260>
   264e8: 21 ff ff d0  	adrp	x1, 0xc000 <_ZN8ChxUtils19SetOfflineDebugDataEP11ChiMetadatam+0x258>
   264ec: 23 ff ff b0  	adrp	x3, 0xb000 <_ZN8ChxUtils19SetOfflineDebugDataEP11ChiMetadatam+0x258>
   264f0: 25 ff ff d0  	adrp	x5, 0xc000 <_ZN8ChxUtils19SetOfflineDebugDataEP11ChiMetadatam+0x260>
   26508: e6 36 00 94  	bl	0x340a0 <_ZN6ChiLog9LogSystemEPKcS1_S1_S1_iS1_z@plt>
   26510: 40 12 00 b4  	cbz	x0, 0x26758 <_ZN8ChxUtils19SetOfflineDebugDataEP11ChiMetadatam+0x530>
   26518: 42 1e 00 b4  	cbz	x2, 0x268e0 <_ZN8ChxUtils19SetOfflineDebugDataEP11ChiMetadatam+0x6b8>
   26524: e1 12 00 54  	b.ne	0x26780 <_ZN8ChxUtils19SetOfflineDebugDataEP11ChiMetadatam+0x558>
   2652c: 41 00 00 b4  	cbz	x1, 0x26534 <_ZN8ChxUtils19SetOfflineDebugDataEP11ChiMetadatam+0x30c>
   26534: 93 37 00 94  	bl	0x34380 <_ZN15ExtensionModule11GetInstanceEv@plt>
   26558: 20 17 00 34  	cbz	w0, 0x2683c <_ZN8ChxUtils19SetOfflineDebugDataEP11ChiMetadatam+0x614>
   2655c: c9 0f 00 36  	tbz	w9, #0, 0x26754 <_ZN8ChxUtils19SetOfflineDebugDataEP11ChiMetadatam+0x52c>
   26560: 6e 00 00 f0  	adrp	x14, 0x35000 <_ZN8ChxUtils19SetOfflineDebugDataEP11ChiMetadatam+0x374>
   26570: 41 02 00 54  	b.ne	0x265b8 <_ZN8ChxUtils19SetOfflineDebugDataEP11ChiMetadatam+0x390>
   26574: 34 ff ff f0  	adrp	x20, 0xd000 <_ZN8ChxUtils19SetOfflineDebugDataEP11ChiMetadatam+0x2e8>
   26590: 41 ff ff 90  	adrp	x1, 0xe000 <_ZN8ChxUtils19SetOfflineDebugDataEP11ChiMetadatam+0x308>
   26594: 22 ff ff b0  	adrp	x2, 0xb000 <_ZN8ChxUtils19SetOfflineDebugDataEP11ChiMetadatam+0x300>
   26598: 25 ff ff b0  	adrp	x5, 0xb000 <_ZN8ChxUtils19SetOfflineDebugDataEP11ChiMetadatam+0x304>
   265b8: 35 ff ff f0  	adrp	x21, 0xd000 <_ZN8ChxUtils19SetOfflineDebugDataEP11ChiMetadatam+0x32c>
   265d4: 41 ff ff 90  	adrp	x1, 0xe000 <_ZN8ChxUtils19SetOfflineDebugDataEP11ChiMetadatam+0x34c>
   265dc: 00 ff ff f0  	adrp	x0, 0x9000 <_ZN8ChxUtils19SetOfflineDebugDataEP11ChiMetadatam+0x340>
   265e0: 23 ff ff b0  	adrp	x3, 0xb000 <_ZN8ChxUtils19SetOfflineDebugDataEP11ChiMetadatam+0x34c>
   265e4: 25 ff ff b0  	adrp	x5, 0xb000 <_ZN8ChxUtils19SetOfflineDebugDataEP11ChiMetadatam+0x350>
   265fc: 55 00 00 14  	b	0x26750 <_ZN8ChxUtils19SetOfflineDebugDataEP11ChiMetadatam+0x528>
   26600: 68 05 30 36  	tbz	w8, #6, 0x266ac <_ZN8ChxUtils19SetOfflineDebugDataEP11ChiMetadatam+0x484>
   26604: 6a 00 00 f0  	adrp	x10, 0x35000 <_ZN8ChxUtils19SetOfflineDebugDataEP11ChiMetadatam+0x418>
   26614: 61 02 00 54  	b.ne	0x26660 <_ZN8ChxUtils19SetOfflineDebugDataEP11ChiMetadatam+0x438>
   26618: 34 ff ff f0  	adrp	x20, 0xd000 <_ZN8ChxUtils19SetOfflineDebugDataEP11ChiMetadatam+0x38c>
   26634: 41 ff ff 90  	adrp	x1, 0xe000 <_ZN8ChxUtils19SetOfflineDebugDataEP11ChiMetadatam+0x3ac>
   26638: 42 ff ff 90  	adrp	x2, 0xe000 <_ZN8ChxUtils19SetOfflineDebugDataEP11ChiMetadatam+0x3b0>
   2663c: 25 ff ff b0  	adrp	x5, 0xb000 <_ZN8ChxUtils19SetOfflineDebugDataEP11ChiMetadatam+0x3a8>
   26660: 36 ff ff f0  	adrp	x22, 0xd000 <_ZN8ChxUtils19SetOfflineDebugDataEP11ChiMetadatam+0x3d4>
   2667c: 21 ff ff 90  	adrp	x1, 0xa000 <_ZN8ChxUtils19SetOfflineDebugDataEP11ChiMetadatam+0x3e4>
   26684: 20 ff ff f0  	adrp	x0, 0xd000 <_ZN8ChxUtils19SetOfflineDebugDataEP11ChiMetadatam+0x3f8>
   26688: 23 ff ff b0  	adrp	x3, 0xb000 <_ZN8ChxUtils19SetOfflineDebugDataEP11ChiMetadatam+0x3f4>
   2668c: 25 ff ff 90  	adrp	x5, 0xa000 <_ZN8ChxUtils19SetOfflineDebugDataEP11ChiMetadatam+0x3f4>
   266a8: 7e 36 00 94  	bl	0x340a0 <_ZN6ChiLog9LogSystemEPKcS1_S1_S1_iS1_z@plt>
   266b0: 2d 05 00 36  	tbz	w13, #0, 0x26754 <_ZN8ChxUtils19SetOfflineDebugDataEP11ChiMetadatam+0x52c>
   266b4: 70 00 00 f0  	adrp	x16, 0x35000 <_ZN8ChxUtils19SetOfflineDebugDataEP11ChiMetadatam+0x4c8>
   266c4: 41 02 00 54  	b.ne	0x2670c <_ZN8ChxUtils19SetOfflineDebugDataEP11ChiMetadatam+0x4e4>
   266c8: 35 ff ff f0  	adrp	x21, 0xd000 <_ZN8ChxUtils19SetOfflineDebugDataEP11ChiMetadatam+0x43c>
   266e4: 41 ff ff 90  	adrp	x1, 0xe000 <_ZN8ChxUtils19SetOfflineDebugDataEP11ChiMetadatam+0x45c>
   266e8: 42 ff ff 90  	adrp	x2, 0xe000 <_ZN8ChxUtils19SetOfflineDebugDataEP11ChiMetadatam+0x460>
   266ec: 25 ff ff b0  	adrp	x5, 0xb000 <_ZN8ChxUtils19SetOfflineDebugDataEP11ChiMetadatam+0x458>
   2670c: 36 ff ff f0  	adrp	x22, 0xd000 <_ZN8ChxUtils19SetOfflineDebugDataEP11ChiMetadatam+0x480>
   26728: 41 ff ff 90  	adrp	x1, 0xe000 <_ZN8ChxUtils19SetOfflineDebugDataEP11ChiMetadatam+0x4a0>
   26730: 00 ff ff f0  	adrp	x0, 0x9000 <_ZN8ChxUtils19SetOfflineDebugDataEP11ChiMetadatam+0x494>
   26734: 23 ff ff b0  	adrp	x3, 0xb000 <_ZN8ChxUtils19SetOfflineDebugDataEP11ChiMetadatam+0x4a0>
   26738: 05 ff ff f0  	adrp	x5, 0x9000 <_ZN8ChxUtils19SetOfflineDebugDataEP11ChiMetadatam+0x49c>
   26750: 54 36 00 94  	bl	0x340a0 <_ZN6ChiLog9LogSystemEPKcS1_S1_S1_iS1_z@plt>
   26764: 81 0c 00 54  	b.ne	0x268f4 <_ZN8ChxUtils19SetOfflineDebugDataEP11ChiMetadatam+0x6cc>
   26784: 8c fe 07 36  	tbz	w12, #0, 0x26754 <_ZN8ChxUtils19SetOfflineDebugDataEP11ChiMetadatam+0x52c>
   26788: 6d 00 00 f0  	adrp	x13, 0x35000 <_ZN8ChxUtils19SetOfflineDebugDataEP11ChiMetadatam+0x59c>
   26798: 81 02 00 54  	b.ne	0x267e8 <_ZN8ChxUtils19SetOfflineDebugDataEP11ChiMetadatam+0x5c0>
   2679c: 36 ff ff f0  	adrp	x22, 0xd000 <_ZN8ChxUtils19SetOfflineDebugDataEP11ChiMetadatam+0x510>
   267c0: 41 ff ff 90  	adrp	x1, 0xe000 <_ZN8ChxUtils19SetOfflineDebugDataEP11ChiMetadatam+0x538>
   267c4: 22 ff ff d0  	adrp	x2, 0xc000 <_ZN8ChxUtils19SetOfflineDebugDataEP11ChiMetadatam+0x534>
   267c8: 25 ff ff b0  	adrp	x5, 0xb000 <_ZN8ChxUtils19SetOfflineDebugDataEP11ChiMetadatam+0x534>
   267e8: 36 ff ff f0  	adrp	x22, 0xd000 <_ZN8ChxUtils19SetOfflineDebugDataEP11ChiMetadatam+0x55c>
   26810: 00 ff ff f0  	adrp	x0, 0x9000 <_ZN8ChxUtils19SetOfflineDebugDataEP11ChiMetadatam+0x574>
   26814: 41 ff ff 90  	adrp	x1, 0xe000 <_ZN8ChxUtils19SetOfflineDebugDataEP11ChiMetadatam+0x58c>
   26818: 23 ff ff b0  	adrp	x3, 0xb000 <_ZN8ChxUtils19SetOfflineDebugDataEP11ChiMetadatam+0x584>
   2681c: 25 ff ff 90  	adrp	x5, 0xa000 <_ZN8ChxUtils19SetOfflineDebugDataEP11ChiMetadatam+0x584>
   26834: 1b 36 00 94  	bl	0x340a0 <_ZN6ChiLog9LogSystemEPKcS1_S1_S1_iS1_z@plt>
   26838: c7 ff ff 17  	b	0x26754 <_ZN8ChxUtils19SetOfflineDebugDataEP11ChiMetadatam+0x52c>
   2683c: 29 05 18 36  	tbz	w9, #3, 0x268e0 <_ZN8ChxUtils19SetOfflineDebugDataEP11ChiMetadatam+0x6b8>
   26840: 6f 00 00 f0  	adrp	x15, 0x35000 <_ZN8ChxUtils19SetOfflineDebugDataEP11ChiMetadatam+0x654>
   26850: 41 02 00 54  	b.ne	0x26898 <_ZN8ChxUtils19SetOfflineDebugDataEP11ChiMetadatam+0x670>
   26854: 36 ff ff f0  	adrp	x22, 0xd000 <_ZN8ChxUtils19SetOfflineDebugDataEP11ChiMetadatam+0x5c8>
   26870: 41 ff ff 90  	adrp	x1, 0xe000 <_ZN8ChxUtils19SetOfflineDebugDataEP11ChiMetadatam+0x5e8>
   26874: 02 ff ff f0  	adrp	x2, 0x9000 <_ZN8ChxUtils19SetOfflineDebugDataEP11ChiMetadatam+0x5d8>
   26878: 25 ff ff b0  	adrp	x5, 0xb000 <_ZN8ChxUtils19SetOfflineDebugDataEP11ChiMetadatam+0x5e4>
   26898: 34 ff ff f0  	adrp	x20, 0xd000 <_ZN8ChxUtils19SetOfflineDebugDataEP11ChiMetadatam+0x60c>
   268b4: 21 ff ff d0  	adrp	x1, 0xc000 <_ZN8ChxUtils19SetOfflineDebugDataEP11ChiMetadatam+0x624>
   268bc: 40 ff ff b0  	adrp	x0, 0xf000 <_ZN8ChxUtils19SetOfflineDebugDataEP11ChiMetadatam+0x638>
   268c0: 23 ff ff b0  	adrp	x3, 0xb000 <_ZN8ChxUtils19SetOfflineDebugDataEP11ChiMetadatam+0x62c>
   268c4: 05 ff ff f0  	adrp	x5, 0x9000 <_ZN8ChxUtils19SetOfflineDebugDataEP11ChiMetadatam+0x628>
   268dc: f1 35 00 94  	bl	0x340a0 <_ZN6ChiLog9LogSystemEPKcS1_S1_S1_iS1_z@plt>
   268f0: c0 f3 ff 54  	b.eq	0x26768 <_ZN8ChxUtils19SetOfflineDebugDataEP11ChiMetadatam+0x540>
00000000000268f8 <_ZN8ChxUtils23ReleaseOfflineDebugDataEP11ChiMetadata>:
   26944: e8 00 00 b4  	cbz	x8, 0x26960 <_ZN8ChxUtils23ReleaseOfflineDebugDataEP11ChiMetadata+0x68>
   2694c: 77 00 00 f0  	adrp	x23, 0x35000 <_ZN8ChxUtils23ReleaseOfflineDebugDataEP11ChiMetadata+0x90>
   26958: e8 00 18 37  	tbnz	w8, #3, 0x26974 <_ZN8ChxUtils23ReleaseOfflineDebugDataEP11ChiMetadata+0x7c>
   2695c: 2e 00 00 14  	b	0x26a14 <_ZN8ChxUtils23ReleaseOfflineDebugDataEP11ChiMetadata+0x11c>
   26964: 77 00 00 f0  	adrp	x23, 0x35000 <_ZN8ChxUtils23ReleaseOfflineDebugDataEP11ChiMetadata+0xa8>
   26970: 28 05 18 36  	tbz	w8, #3, 0x26a14 <_ZN8ChxUtils23ReleaseOfflineDebugDataEP11ChiMetadata+0x11c>
   26974: 69 00 00 f0  	adrp	x9, 0x35000 <_ZN8ChxUtils23ReleaseOfflineDebugDataEP11ChiMetadata+0xb8>
   26978: 35 ff ff f0  	adrp	x21, 0xd000 <_ZN8ChxUtils23ReleaseOfflineDebugDataEP11ChiMetadata+0x1c>
   2698c: 21 02 00 54  	b.ne	0x269d0 <_ZN8ChxUtils23ReleaseOfflineDebugDataEP11ChiMetadata+0xd8>
   269a4: 41 ff ff 90  	adrp	x1, 0xe000 <_ZN8ChxUtils23ReleaseOfflineDebugDataEP11ChiMetadata+0x4c>
   269a8: 22 ff ff b0  	adrp	x2, 0xb000 <_ZN8ChxUtils23ReleaseOfflineDebugDataEP11ChiMetadata+0x44>
   269ac: 45 ff ff b0  	adrp	x5, 0xf000 <_ZN8ChxUtils23ReleaseOfflineDebugDataEP11ChiMetadata+0x58>
   269e4: 21 ff ff d0  	adrp	x1, 0xc000 <_ZN8ChxUtils23ReleaseOfflineDebugDataEP11ChiMetadata+0x84>
   269ec: 40 ff ff b0  	adrp	x0, 0xf000 <_ZN8ChxUtils23ReleaseOfflineDebugDataEP11ChiMetadata+0x98>
   269f0: 43 ff ff b0  	adrp	x3, 0xf000 <_ZN8ChxUtils23ReleaseOfflineDebugDataEP11ChiMetadata+0x9c>
   269f4: 45 ff ff 90  	adrp	x5, 0xe000 <_ZN8ChxUtils23ReleaseOfflineDebugDataEP11ChiMetadata+0x9c>
   26a10: a4 35 00 94  	bl	0x340a0 <_ZN6ChiLog9LogSystemEPKcS1_S1_S1_iS1_z@plt>
   26a14: 5b 36 00 94  	bl	0x34380 <_ZN15ExtensionModule11GetInstanceEv@plt>
   26a3c: 73 06 00 b4  	cbz	x19, 0x26b08 <_ZN8ChxUtils23ReleaseOfflineDebugDataEP11ChiMetadata+0x210>
   26a44: ab 0b 00 b4  	cbz	x11, 0x26bb8 <_ZN8ChxUtils23ReleaseOfflineDebugDataEP11ChiMetadata+0x2c0>
   26a4c: 6a 05 00 36  	tbz	w10, #0, 0x26af8 <_ZN8ChxUtils23ReleaseOfflineDebugDataEP11ChiMetadata+0x200>
   26a50: 6b 00 00 f0  	adrp	x11, 0x35000 <_ZN8ChxUtils23ReleaseOfflineDebugDataEP11ChiMetadata+0x194>
   26a60: 61 02 00 54  	b.ne	0x26aac <_ZN8ChxUtils23ReleaseOfflineDebugDataEP11ChiMetadata+0x1b4>
   26a64: 34 ff ff f0  	adrp	x20, 0xd000 <_ZN8ChxUtils23ReleaseOfflineDebugDataEP11ChiMetadata+0x108>
   26a84: 41 ff ff 90  	adrp	x1, 0xe000 <_ZN8ChxUtils23ReleaseOfflineDebugDataEP11ChiMetadata+0x12c>
   26a88: 02 ff ff f0  	adrp	x2, 0x9000 <_ZN8ChxUtils23ReleaseOfflineDebugDataEP11ChiMetadata+0x11c>
   26a8c: 45 ff ff b0  	adrp	x5, 0xf000 <_ZN8ChxUtils23ReleaseOfflineDebugDataEP11ChiMetadata+0x138>
   26aac: 35 ff ff f0  	adrp	x21, 0xd000 <_ZN8ChxUtils23ReleaseOfflineDebugDataEP11ChiMetadata+0x150>
   26ad0: 00 ff ff f0  	adrp	x0, 0x9000 <_ZN8ChxUtils23ReleaseOfflineDebugDataEP11ChiMetadata+0x164>
   26ad4: 41 ff ff 90  	adrp	x1, 0xe000 <_ZN8ChxUtils23ReleaseOfflineDebugDataEP11ChiMetadata+0x17c>
   26ad8: 43 ff ff b0  	adrp	x3, 0xf000 <_ZN8ChxUtils23ReleaseOfflineDebugDataEP11ChiMetadata+0x184>
   26adc: 45 ff ff 90  	adrp	x5, 0xe000 <_ZN8ChxUtils23ReleaseOfflineDebugDataEP11ChiMetadata+0x184>
   26af4: 6b 35 00 94  	bl	0x340a0 <_ZN6ChiLog9LogSystemEPKcS1_S1_S1_iS1_z@plt>
   26af8: 22 36 00 94  	bl	0x34380 <_ZN15ExtensionModule11GetInstanceEv@plt>
   26b00: 4c 37 00 94  	bl	0x34830 <_ZN15ExtensionModule31DebugDataBufferReleaseReferenceEP9DebugData@plt>
   26b04: 57 00 00 14  	b	0x26c60 <_ZN8ChxUtils23ReleaseOfflineDebugDataEP11ChiMetadata+0x368>
   26b0c: 69 05 30 36  	tbz	w9, #6, 0x26bb8 <_ZN8ChxUtils23ReleaseOfflineDebugDataEP11ChiMetadata+0x2c0>
   26b10: 6a 00 00 f0  	adrp	x10, 0x35000 <_ZN8ChxUtils23ReleaseOfflineDebugDataEP11ChiMetadata+0x254>
   26b20: 61 02 00 54  	b.ne	0x26b6c <_ZN8ChxUtils23ReleaseOfflineDebugDataEP11ChiMetadata+0x274>
   26b24: 35 ff ff f0  	adrp	x21, 0xd000 <_ZN8ChxUtils23ReleaseOfflineDebugDataEP11ChiMetadata+0x1c8>
   26b40: 41 ff ff 90  	adrp	x1, 0xe000 <_ZN8ChxUtils23ReleaseOfflineDebugDataEP11ChiMetadata+0x1e8>
   26b44: 42 ff ff 90  	adrp	x2, 0xe000 <_ZN8ChxUtils23ReleaseOfflineDebugDataEP11ChiMetadata+0x1ec>
   26b48: 25 ff ff b0  	adrp	x5, 0xb000 <_ZN8ChxUtils23ReleaseOfflineDebugDataEP11ChiMetadata+0x1e4>
   26b6c: 35 ff ff f0  	adrp	x21, 0xd000 <_ZN8ChxUtils23ReleaseOfflineDebugDataEP11ChiMetadata+0x210>
   26b88: 21 ff ff 90  	adrp	x1, 0xa000 <_ZN8ChxUtils23ReleaseOfflineDebugDataEP11ChiMetadata+0x220>
   26b90: 20 ff ff f0  	adrp	x0, 0xd000 <_ZN8ChxUtils23ReleaseOfflineDebugDataEP11ChiMetadata+0x234>
   26b94: 23 ff ff b0  	adrp	x3, 0xb000 <_ZN8ChxUtils23ReleaseOfflineDebugDataEP11ChiMetadata+0x230>
   26b98: 25 ff ff 90  	adrp	x5, 0xa000 <_ZN8ChxUtils23ReleaseOfflineDebugDataEP11ChiMetadata+0x230>
   26bb4: 3b 35 00 94  	bl	0x340a0 <_ZN6ChiLog9LogSystemEPKcS1_S1_S1_iS1_z@plt>
   26bbc: 2b 05 00 36  	tbz	w11, #0, 0x26c60 <_ZN8ChxUtils23ReleaseOfflineDebugDataEP11ChiMetadata+0x368>
   26bc0: 6c 00 00 f0  	adrp	x12, 0x35000 <_ZN8ChxUtils23ReleaseOfflineDebugDataEP11ChiMetadata+0x304>
   26bd0: 41 02 00 54  	b.ne	0x26c18 <_ZN8ChxUtils23ReleaseOfflineDebugDataEP11ChiMetadata+0x320>
   26bd4: 34 ff ff f0  	adrp	x20, 0xd000 <_ZN8ChxUtils23ReleaseOfflineDebugDataEP11ChiMetadata+0x278>
   26bf0: 41 ff ff 90  	adrp	x1, 0xe000 <_ZN8ChxUtils23ReleaseOfflineDebugDataEP11ChiMetadata+0x298>
   26bf4: 22 ff ff d0  	adrp	x2, 0xc000 <_ZN8ChxUtils23ReleaseOfflineDebugDataEP11ChiMetadata+0x294>
   26bf8: 45 ff ff b0  	adrp	x5, 0xf000 <_ZN8ChxUtils23ReleaseOfflineDebugDataEP11ChiMetadata+0x2a4>
   26c18: 35 ff ff f0  	adrp	x21, 0xd000 <_ZN8ChxUtils23ReleaseOfflineDebugDataEP11ChiMetadata+0x2bc>
   26c34: 41 ff ff 90  	adrp	x1, 0xe000 <_ZN8ChxUtils23ReleaseOfflineDebugDataEP11ChiMetadata+0x2dc>
   26c3c: 00 ff ff f0  	adrp	x0, 0x9000 <_ZN8ChxUtils23ReleaseOfflineDebugDataEP11ChiMetadata+0x2d0>
   26c40: 43 ff ff b0  	adrp	x3, 0xf000 <_ZN8ChxUtils23ReleaseOfflineDebugDataEP11ChiMetadata+0x2ec>
   26c44: 25 ff ff b0  	adrp	x5, 0xb000 <_ZN8ChxUtils23ReleaseOfflineDebugDataEP11ChiMetadata+0x2e0>
   26c5c: 11 35 00 94  	bl	0x340a0 <_ZN6ChiLog9LogSystemEPKcS1_S1_S1_iS1_z@plt>
   26c6c: 01 01 00 54  	b.ne	0x26c8c <_ZN8ChxUtils23ReleaseOfflineDebugDataEP11ChiMetadata+0x394>
0000000000026c90 <_ZN8ChxUtils26isDebugDataSetForBurstShotEP11ChiMetadataj>:
   26cc0: 20 ff ff f0  	adrp	x0, 0xd000 <_ZN8ChxUtils23ReleaseOfflineDebugDataEP11ChiMetadata+0x364>
   26cc4: 42 ff ff b0  	adrp	x2, 0xf000 <_ZN8ChxUtils23ReleaseOfflineDebugDataEP11ChiMetadata+0x370>
   26cf8: 15 02 00 b4  	cbz	x21, 0x26d38 <_ZN8ChxUtils26isDebugDataSetForBurstShotEP11ChiMetadataj+0xa8>
   26d08: 21 ff ff f0  	adrp	x1, 0xd000 <_ZN8ChxUtils26isDebugDataSetForBurstShotEP11ChiMetadataj+0x14>
   26d0c: 22 ff ff d0  	adrp	x2, 0xc000 <_ZN8ChxUtils26isDebugDataSetForBurstShotEP11ChiMetadataj+0x14>
   26d2c: 2a 06 00 b4  	cbz	x10, 0x26df0 <_ZN8ChxUtils26isDebugDataSetForBurstShotEP11ChiMetadataj+0x160>
   26d34: 30 00 00 14  	b	0x26df4 <_ZN8ChxUtils26isDebugDataSetForBurstShotEP11ChiMetadataj+0x164>
   26d38: 6e 00 00 f0  	adrp	x14, 0x35000 <_ZN8ChxUtils26isDebugDataSetForBurstShotEP11ChiMetadataj+0xe4>
   26d44: 2e 05 00 36  	tbz	w14, #0, 0x26de8 <_ZN8ChxUtils26isDebugDataSetForBurstShotEP11ChiMetadataj+0x158>
   26d48: 6f 00 00 f0  	adrp	x15, 0x35000 <_ZN8ChxUtils26isDebugDataSetForBurstShotEP11ChiMetadataj+0xf4>
   26d58: 41 02 00 54  	b.ne	0x26da0 <_ZN8ChxUtils26isDebugDataSetForBurstShotEP11ChiMetadataj+0x110>
   26d5c: 36 ff ff f0  	adrp	x22, 0xd000 <_ZN8ChxUtils26isDebugDataSetForBurstShotEP11ChiMetadataj+0x68>
   26d78: 41 ff ff 90  	adrp	x1, 0xe000 <_ZN8ChxUtils26isDebugDataSetForBurstShotEP11ChiMetadataj+0x88>
   26d7c: 02 ff ff f0  	adrp	x2, 0x9000 <_ZN8ChxUtils26isDebugDataSetForBurstShotEP11ChiMetadataj+0x78>
   26d80: 25 ff ff f0  	adrp	x5, 0xd000 <_ZN8ChxUtils26isDebugDataSetForBurstShotEP11ChiMetadataj+0x8c>
   26da0: 36 ff ff f0  	adrp	x22, 0xd000 <_ZN8ChxUtils26isDebugDataSetForBurstShotEP11ChiMetadataj+0xac>
   26dbc: 41 ff ff 90  	adrp	x1, 0xe000 <_ZN8ChxUtils26isDebugDataSetForBurstShotEP11ChiMetadataj+0xcc>
   26dc4: 00 ff ff f0  	adrp	x0, 0x9000 <_ZN8ChxUtils26isDebugDataSetForBurstShotEP11ChiMetadataj+0xc0>
   26dc8: 23 ff ff f0  	adrp	x3, 0xd000 <_ZN8ChxUtils26isDebugDataSetForBurstShotEP11ChiMetadataj+0xd4>
   26dcc: 05 ff ff f0  	adrp	x5, 0x9000 <_ZN8ChxUtils26isDebugDataSetForBurstShotEP11ChiMetadataj+0xc8>
   26de4: af 34 00 94  	bl	0x340a0 <_ZN6ChiLog9LogSystemEPKcS1_S1_S1_iS1_z@plt>
   26dec: e1 00 00 14  	b	0x27170 <_ZN8ChxUtils26isDebugDataSetForBurstShotEP11ChiMetadataj+0x4e0>
   26df8: 21 ff ff d0  	adrp	x1, 0xc000 <_ZN8ChxUtils26isDebugDataSetForBurstShotEP11ChiMetadataj+0x100>
   26e00: 02 ff ff f0  	adrp	x2, 0x9000 <_ZN8ChxUtils26isDebugDataSetForBurstShotEP11ChiMetadataj+0xfc>
   26e20: 0b 01 00 b4  	cbz	x11, 0x26e40 <_ZN8ChxUtils26isDebugDataSetForBurstShotEP11ChiMetadataj+0x1b0>
   26e3c: 03 00 00 14  	b	0x26e48 <_ZN8ChxUtils26isDebugDataSetForBurstShotEP11ChiMetadataj+0x1b8>
   26e48: 7b 00 00 f0  	adrp	x27, 0x35000 <_ZN8ChxUtils26isDebugDataSetForBurstShotEP11ChiMetadataj+0x1f4>
   26e4c: 36 ff ff f0  	adrp	x22, 0xd000 <_ZN8ChxUtils26isDebugDataSetForBurstShotEP11ChiMetadataj+0x158>
   26e5c: 6a 05 18 36  	tbz	w10, #3, 0x26f08 <_ZN8ChxUtils26isDebugDataSetForBurstShotEP11ChiMetadataj+0x278>
   26e60: 71 00 00 f0  	adrp	x17, 0x35000 <_ZN8ChxUtils26isDebugDataSetForBurstShotEP11ChiMetadataj+0x20c>
   26e70: 61 02 00 54  	b.ne	0x26ebc <_ZN8ChxUtils26isDebugDataSetForBurstShotEP11ChiMetadataj+0x22c>
   26e88: 41 ff ff 90  	adrp	x1, 0xe000 <_ZN8ChxUtils26isDebugDataSetForBurstShotEP11ChiMetadataj+0x198>
   26e8c: 22 ff ff f0  	adrp	x2, 0xd000 <_ZN8ChxUtils26isDebugDataSetForBurstShotEP11ChiMetadataj+0x198>
   26e90: 25 ff ff f0  	adrp	x5, 0xd000 <_ZN8ChxUtils26isDebugDataSetForBurstShotEP11ChiMetadataj+0x19c>
   26ed0: 21 ff ff d0  	adrp	x1, 0xc000 <_ZN8ChxUtils26isDebugDataSetForBurstShotEP11ChiMetadataj+0x1d8>
   26ed8: 40 ff ff b0  	adrp	x0, 0xf000 <_ZN8ChxUtils26isDebugDataSetForBurstShotEP11ChiMetadataj+0x1ec>
   26edc: 23 ff ff f0  	adrp	x3, 0xd000 <_ZN8ChxUtils26isDebugDataSetForBurstShotEP11ChiMetadataj+0x1e8>
   26ee0: 45 ff ff 90  	adrp	x5, 0xe000 <_ZN8ChxUtils26isDebugDataSetForBurstShotEP11ChiMetadataj+0x1f0>
   26f04: 67 34 00 94  	bl	0x340a0 <_ZN6ChiLog9LogSystemEPKcS1_S1_S1_iS1_z@plt>
   26f0c: 41 ff ff b0  	adrp	x1, 0xf000 <_ZN8ChxUtils26isDebugDataSetForBurstShotEP11ChiMetadataj+0x220>
   26f14: 22 ff ff 90  	adrp	x2, 0xa000 <_ZN8ChxUtils26isDebugDataSetForBurstShotEP11ChiMetadataj+0x214>
   26f34: 6c 00 00 b4  	cbz	x12, 0x26f40 <_ZN8ChxUtils26isDebugDataSetForBurstShotEP11ChiMetadataj+0x2b0>
   26f3c: 02 00 00 14  	b	0x26f44 <_ZN8ChxUtils26isDebugDataSetForBurstShotEP11ChiMetadataj+0x2b4>
   26f48: 21 ff ff d0  	adrp	x1, 0xc000 <_ZN8ChxUtils26isDebugDataSetForBurstShotEP11ChiMetadataj+0x250>
   26f50: 02 ff ff f0  	adrp	x2, 0x9000 <_ZN8ChxUtils26isDebugDataSetForBurstShotEP11ChiMetadataj+0x24c>
   26f70: 48 00 00 b4  	cbz	x8, 0x26f78 <_ZN8ChxUtils26isDebugDataSetForBurstShotEP11ChiMetadataj+0x2e8>
   26f94: 6c 05 18 36  	tbz	w12, #3, 0x27040 <_ZN8ChxUtils26isDebugDataSetForBurstShotEP11ChiMetadataj+0x3b0>
   26f98: 70 00 00 f0  	adrp	x16, 0x35000 <_ZN8ChxUtils26isDebugDataSetForBurstShotEP11ChiMetadataj+0x344>
   26fa8: 61 02 00 54  	b.ne	0x26ff4 <_ZN8ChxUtils26isDebugDataSetForBurstShotEP11ChiMetadataj+0x364>
   26fc0: 41 ff ff 90  	adrp	x1, 0xe000 <_ZN8ChxUtils26isDebugDataSetForBurstShotEP11ChiMetadataj+0x2d0>
   26fc4: 42 ff ff 90  	adrp	x2, 0xe000 <_ZN8ChxUtils26isDebugDataSetForBurstShotEP11ChiMetadataj+0x2d4>
   26fc8: 25 ff ff f0  	adrp	x5, 0xd000 <_ZN8ChxUtils26isDebugDataSetForBurstShotEP11ChiMetadataj+0x2d4>
   27008: 21 ff ff b0  	adrp	x1, 0xc000 <_ZN8ChxUtils26isDebugDataSetForBurstShotEP11ChiMetadataj+0x30c>
   27010: 40 ff ff 90  	adrp	x0, 0xf000 <_ZN8ChxUtils26isDebugDataSetForBurstShotEP11ChiMetadataj+0x320>
   27014: 23 ff ff d0  	adrp	x3, 0xd000 <_ZN8ChxUtils26isDebugDataSetForBurstShotEP11ChiMetadataj+0x31c>
   27018: 25 ff ff f0  	adrp	x5, 0xe000 <_ZN8ChxUtils26isDebugDataSetForBurstShotEP11ChiMetadataj+0x324>
   2703c: 19 34 00 94  	bl	0x340a0 <_ZN6ChiLog9LogSystemEPKcS1_S1_S1_iS1_z@plt>
   27044: 21 ff ff f0  	adrp	x1, 0xe000 <_ZN8ChxUtils26isDebugDataSetForBurstShotEP11ChiMetadataj+0x350>
   2704c: 22 ff ff b0  	adrp	x2, 0xc000 <_ZN8ChxUtils26isDebugDataSetForBurstShotEP11ChiMetadataj+0x350>
   2706c: 6d 00 00 b4  	cbz	x13, 0x27078 <_ZN8ChxUtils26isDebugDataSetForBurstShotEP11ChiMetadataj+0x3e8>
   27074: 02 00 00 14  	b	0x2707c <_ZN8ChxUtils26isDebugDataSetForBurstShotEP11ChiMetadataj+0x3ec>
   27080: 21 ff ff b0  	adrp	x1, 0xc000 <_ZN8ChxUtils26isDebugDataSetForBurstShotEP11ChiMetadataj+0x384>
   27088: 02 ff ff d0  	adrp	x2, 0x9000 <_ZN8ChxUtils26isDebugDataSetForBurstShotEP11ChiMetadataj+0x380>
   270a8: 49 00 00 b4  	cbz	x9, 0x270b0 <_ZN8ChxUtils26isDebugDataSetForBurstShotEP11ChiMetadataj+0x420>
   270c4: 6d 05 18 36  	tbz	w13, #3, 0x27170 <_ZN8ChxUtils26isDebugDataSetForBurstShotEP11ChiMetadataj+0x4e0>
   270c8: 61 00 00 d0  	adrp	x1, 0x35000 <_ZN8ChxUtils26isDebugDataSetForBurstShotEP11ChiMetadataj+0x470>
   270d8: 61 02 00 54  	b.ne	0x27124 <_ZN8ChxUtils26isDebugDataSetForBurstShotEP11ChiMetadataj+0x494>
   270f0: 21 ff ff f0  	adrp	x1, 0xe000 <_ZN8ChxUtils26isDebugDataSetForBurstShotEP11ChiMetadataj+0x3fc>
   270f4: 02 ff ff d0  	adrp	x2, 0x9000 <_ZN8ChxUtils26isDebugDataSetForBurstShotEP11ChiMetadataj+0x3ec>
   270f8: 25 ff ff d0  	adrp	x5, 0xd000 <_ZN8ChxUtils26isDebugDataSetForBurstShotEP11ChiMetadataj+0x400>
   27138: 21 ff ff b0  	adrp	x1, 0xc000 <_ZN8ChxUtils26isDebugDataSetForBurstShotEP11ChiMetadataj+0x43c>
   27140: 40 ff ff 90  	adrp	x0, 0xf000 <_ZN8ChxUtils26isDebugDataSetForBurstShotEP11ChiMetadataj+0x450>
   27144: 23 ff ff d0  	adrp	x3, 0xd000 <_ZN8ChxUtils26isDebugDataSetForBurstShotEP11ChiMetadataj+0x44c>
   27148: 25 ff ff d0  	adrp	x5, 0xd000 <_ZN8ChxUtils26isDebugDataSetForBurstShotEP11ChiMetadataj+0x450>
   2716c: cd 33 00 94  	bl	0x340a0 <_ZN6ChiLog9LogSystemEPKcS1_S1_S1_iS1_z@plt>
   2717c: 41 01 00 54  	b.ne	0x271a4 <_ZN8ChxUtils26isDebugDataSetForBurstShotEP11ChiMetadataj+0x514>
00000000000271a8 <_ZN8ChxUtils18isBurstShotUsecaseEP11ChiMetadataj>:
   271c4: 79 00 00 d0  	adrp	x25, 0x35000 <_ZN8ChxUtils18isBurstShotUsecaseEP11ChiMetadataj+0x54>
   271c8: 78 00 00 d0  	adrp	x24, 0x35000 <_ZN8ChxUtils18isBurstShotUsecaseEP11ChiMetadataj+0x58>
   271d0: 33 ff ff d0  	adrp	x19, 0xd000 <_ZN8ChxUtils26isDebugDataSetForBurstShotEP11ChiMetadataj+0x4d8>
   271e8: 60 02 00 b4  	cbz	x0, 0x27234 <_ZN8ChxUtils18isBurstShotUsecaseEP11ChiMetadataj+0x8c>
   271f8: 21 ff ff d0  	adrp	x1, 0xd000 <_ZN8ChxUtils26isDebugDataSetForBurstShotEP11ChiMetadataj+0x500>
   27200: 22 ff ff b0  	adrp	x2, 0xc000 <_ZN8ChxUtils26isDebugDataSetForBurstShotEP11ChiMetadataj+0x504>
   27220: a9 05 00 b4  	cbz	x9, 0x272d4 <_ZN8ChxUtils18isBurstShotUsecaseEP11ChiMetadataj+0x12c>
   2722c: a8 05 18 37  	tbnz	w8, #3, 0x272e0 <_ZN8ChxUtils18isBurstShotUsecaseEP11ChiMetadataj+0x138>
   27230: 50 00 00 14  	b	0x27370 <_ZN8ChxUtils18isBurstShotUsecaseEP11ChiMetadataj+0x1c8>
   27238: 6d 04 00 36  	tbz	w13, #0, 0x272c4 <_ZN8ChxUtils18isBurstShotUsecaseEP11ChiMetadataj+0x11c>
   27244: 01 02 00 54  	b.ne	0x27284 <_ZN8ChxUtils18isBurstShotUsecaseEP11ChiMetadataj+0xdc>
   2725c: 21 ff ff f0  	adrp	x1, 0xe000 <_ZN8ChxUtils18isBurstShotUsecaseEP11ChiMetadataj+0x50>
   27260: 02 ff ff d0  	adrp	x2, 0x9000 <_ZN8ChxUtils18isBurstShotUsecaseEP11ChiMetadataj+0x40>
   27264: 05 ff ff d0  	adrp	x5, 0x9000 <_ZN8ChxUtils18isBurstShotUsecaseEP11ChiMetadataj+0x44>
   27298: 21 ff ff f0  	adrp	x1, 0xe000 <_ZN8ChxUtils18isBurstShotUsecaseEP11ChiMetadataj+0x8c>
   272a0: 00 ff ff d0  	adrp	x0, 0x9000 <_ZN8ChxUtils18isBurstShotUsecaseEP11ChiMetadataj+0x80>
   272a4: 03 ff ff d0  	adrp	x3, 0x9000 <_ZN8ChxUtils18isBurstShotUsecaseEP11ChiMetadataj+0x84>
   272a8: 05 ff ff d0  	adrp	x5, 0x9000 <_ZN8ChxUtils18isBurstShotUsecaseEP11ChiMetadataj+0x88>
   272c0: 78 33 00 94  	bl	0x340a0 <_ZN6ChiLog9LogSystemEPKcS1_S1_S1_iS1_z@plt>
   272cc: 2e 0e 18 36  	tbz	w14, #3, 0x27490 <_ZN8ChxUtils18isBurstShotUsecaseEP11ChiMetadataj+0x2e8>
   272d0: a2 00 00 14  	b	0x27558 <_ZN8ChxUtils18isBurstShotUsecaseEP11ChiMetadataj+0x3b0>
   272dc: a8 04 18 36  	tbz	w8, #3, 0x27370 <_ZN8ChxUtils18isBurstShotUsecaseEP11ChiMetadataj+0x1c8>
   272e8: 21 02 00 54  	b.ne	0x2732c <_ZN8ChxUtils18isBurstShotUsecaseEP11ChiMetadataj+0x184>
   27300: 21 ff ff f0  	adrp	x1, 0xe000 <_ZN8ChxUtils18isBurstShotUsecaseEP11ChiMetadataj+0xf4>
   27304: 22 ff ff b0  	adrp	x2, 0xc000 <_ZN8ChxUtils18isBurstShotUsecaseEP11ChiMetadataj+0xf0>
   27308: 05 ff ff d0  	adrp	x5, 0x9000 <_ZN8ChxUtils18isBurstShotUsecaseEP11ChiMetadataj+0xe8>
   27340: 21 ff ff b0  	adrp	x1, 0xc000 <_ZN8ChxUtils18isBurstShotUsecaseEP11ChiMetadataj+0x12c>
   27348: 40 ff ff 90  	adrp	x0, 0xf000 <_ZN8ChxUtils18isBurstShotUsecaseEP11ChiMetadataj+0x140>
   2734c: 03 ff ff d0  	adrp	x3, 0x9000 <_ZN8ChxUtils18isBurstShotUsecaseEP11ChiMetadataj+0x12c>
   27350: 25 ff ff b0  	adrp	x5, 0xc000 <_ZN8ChxUtils18isBurstShotUsecaseEP11ChiMetadataj+0x13c>
   2736c: 4d 33 00 94  	bl	0x340a0 <_ZN6ChiLog9LogSystemEPKcS1_S1_S1_iS1_z@plt>
   27374: 41 ff ff 90  	adrp	x1, 0xf000 <_ZN8ChxUtils18isBurstShotUsecaseEP11ChiMetadataj+0x16c>
   2737c: 02 ff ff f0  	adrp	x2, 0xa000 <_ZN8ChxUtils18isBurstShotUsecaseEP11ChiMetadataj+0x160>
   2739c: 6a 00 00 b4  	cbz	x10, 0x273a8 <_ZN8ChxUtils18isBurstShotUsecaseEP11ChiMetadataj+0x200>
   273ac: aa 04 18 36  	tbz	w10, #3, 0x27440 <_ZN8ChxUtils18isBurstShotUsecaseEP11ChiMetadataj+0x298>
   273b8: 21 02 00 54  	b.ne	0x273fc <_ZN8ChxUtils18isBurstShotUsecaseEP11ChiMetadataj+0x254>
   273d0: 21 ff ff f0  	adrp	x1, 0xe000 <_ZN8ChxUtils18isBurstShotUsecaseEP11ChiMetadataj+0x1c4>
   273d4: 22 ff ff 90  	adrp	x2, 0xb000 <_ZN8ChxUtils18isBurstShotUsecaseEP11ChiMetadataj+0x1bc>
   273d8: 05 ff ff d0  	adrp	x5, 0x9000 <_ZN8ChxUtils18isBurstShotUsecaseEP11ChiMetadataj+0x1b8>
   27410: 21 ff ff b0  	adrp	x1, 0xc000 <_ZN8ChxUtils18isBurstShotUsecaseEP11ChiMetadataj+0x1fc>
   27418: 40 ff ff 90  	adrp	x0, 0xf000 <_ZN8ChxUtils18isBurstShotUsecaseEP11ChiMetadataj+0x210>
   2741c: 03 ff ff d0  	adrp	x3, 0x9000 <_ZN8ChxUtils18isBurstShotUsecaseEP11ChiMetadataj+0x1fc>
   27420: 25 ff ff b0  	adrp	x5, 0xc000 <_ZN8ChxUtils18isBurstShotUsecaseEP11ChiMetadataj+0x20c>
   2743c: 19 33 00 94  	bl	0x340a0 <_ZN6ChiLog9LogSystemEPKcS1_S1_S1_iS1_z@plt>
   27444: 21 ff ff f0  	adrp	x1, 0xe000 <_ZN8ChxUtils18isBurstShotUsecaseEP11ChiMetadataj+0x238>
   2744c: 22 ff ff b0  	adrp	x2, 0xc000 <_ZN8ChxUtils18isBurstShotUsecaseEP11ChiMetadataj+0x238>
   2746c: a1 00 00 54  	b.ne	0x27480 <_ZN8ChxUtils18isBurstShotUsecaseEP11ChiMetadataj+0x2d8>
   27474: 68 00 00 b4  	cbz	x8, 0x27480 <_ZN8ChxUtils18isBurstShotUsecaseEP11ChiMetadataj+0x2d8>
   27484: ec 01 18 37  	tbnz	w12, #3, 0x274c0 <_ZN8ChxUtils18isBurstShotUsecaseEP11ChiMetadataj+0x318>
   2748c: 6e 06 18 37  	tbnz	w14, #3, 0x27558 <_ZN8ChxUtils18isBurstShotUsecaseEP11ChiMetadataj+0x3b0>
   2749c: e1 0a 00 54  	b.ne	0x275f8 <_ZN8ChxUtils18isBurstShotUsecaseEP11ChiMetadataj+0x450>
   274c8: 21 02 00 54  	b.ne	0x2750c <_ZN8ChxUtils18isBurstShotUsecaseEP11ChiMetadataj+0x364>
   274e0: 21 ff ff f0  	adrp	x1, 0xe000 <_ZN8ChxUtils18isBurstShotUsecaseEP11ChiMetadataj+0x2d4>
   274e4: 22 ff ff 90  	adrp	x2, 0xb000 <_ZN8ChxUtils18isBurstShotUsecaseEP11ChiMetadataj+0x2cc>
   274e8: 05 ff ff d0  	adrp	x5, 0x9000 <_ZN8ChxUtils18isBurstShotUsecaseEP11ChiMetadataj+0x2c8>
   27520: 21 ff ff b0  	adrp	x1, 0xc000 <_ZN8ChxUtils18isBurstShotUsecaseEP11ChiMetadataj+0x30c>
   27528: 40 ff ff 90  	adrp	x0, 0xf000 <_ZN8ChxUtils18isBurstShotUsecaseEP11ChiMetadataj+0x320>
   2752c: 03 ff ff d0  	adrp	x3, 0x9000 <_ZN8ChxUtils18isBurstShotUsecaseEP11ChiMetadataj+0x30c>
   27530: 05 ff ff d0  	adrp	x5, 0x9000 <_ZN8ChxUtils18isBurstShotUsecaseEP11ChiMetadataj+0x310>
   2754c: d5 32 00 94  	bl	0x340a0 <_ZN6ChiLog9LogSystemEPKcS1_S1_S1_iS1_z@plt>
   27554: ee f9 1f 36  	tbz	w14, #3, 0x27490 <_ZN8ChxUtils18isBurstShotUsecaseEP11ChiMetadataj+0x2e8>
   27560: 21 02 00 54  	b.ne	0x275a4 <_ZN8ChxUtils18isBurstShotUsecaseEP11ChiMetadataj+0x3fc>
   27578: 21 ff ff f0  	adrp	x1, 0xe000 <_ZN8ChxUtils18isBurstShotUsecaseEP11ChiMetadataj+0x36c>
   2757c: 02 ff ff f0  	adrp	x2, 0xa000 <_ZN8ChxUtils18isBurstShotUsecaseEP11ChiMetadataj+0x360>
   27580: 05 ff ff d0  	adrp	x5, 0x9000 <_ZN8ChxUtils18isBurstShotUsecaseEP11ChiMetadataj+0x360>
   275b8: 21 ff ff b0  	adrp	x1, 0xc000 <_ZN8ChxUtils18isBurstShotUsecaseEP11ChiMetadataj+0x3a4>
   275c0: 40 ff ff 90  	adrp	x0, 0xf000 <_ZN8ChxUtils18isBurstShotUsecaseEP11ChiMetadataj+0x3b8>
   275c4: 03 ff ff d0  	adrp	x3, 0x9000 <_ZN8ChxUtils18isBurstShotUsecaseEP11ChiMetadataj+0x3a4>
   275c8: 25 ff ff f0  	adrp	x5, 0xe000 <_ZN8ChxUtils18isBurstShotUsecaseEP11ChiMetadataj+0x3bc>
   275e4: af 32 00 94  	bl	0x340a0 <_ZN6ChiLog9LogSystemEPKcS1_S1_S1_iS1_z@plt>
   275f4: 60 f5 ff 54  	b.eq	0x274a0 <_ZN8ChxUtils18isBurstShotUsecaseEP11ChiMetadataj+0x2f8>
0000000000027600 <_ZN8ChxUtils11GetTotalRamEv>:
   2763c: 68 00 00 d0  	adrp	x8, 0x35000 <_ZN8ChxUtils11GetTotalRamEv+0x74>
   27648: 00 07 00 34  	cbz	w0, 0x27728 <_ZN8ChxUtils11GetTotalRamEv+0x128>
   2764c: a8 05 00 36  	tbz	w8, #0, 0x27700 <_ZN8ChxUtils11GetTotalRamEv+0x100>
   27650: 69 00 00 d0  	adrp	x9, 0x35000 <_ZN8ChxUtils11GetTotalRamEv+0x88>
   27654: 33 ff ff d0  	adrp	x19, 0xd000 <_ZN8ChxUtils18isBurstShotUsecaseEP11ChiMetadataj+0x444>
   27668: 61 02 00 54  	b.ne	0x276b4 <_ZN8ChxUtils11GetTotalRamEv+0xb4>
   2768c: 21 ff ff f0  	adrp	x1, 0xe000 <_ZN8ChxUtils11GetTotalRamEv+0x28>
   27690: 22 ff ff f0  	adrp	x2, 0xe000 <_ZN8ChxUtils11GetTotalRamEv+0x2c>
   27694: 05 ff ff f0  	adrp	x5, 0xa000 <_ZN8ChxUtils11GetTotalRamEv+0x20>
   276d4: 00 ff ff d0  	adrp	x0, 0x9000 <_ZN8ChxUtils11GetTotalRamEv+0x5c>
   276d8: 21 ff ff f0  	adrp	x1, 0xe000 <_ZN8ChxUtils11GetTotalRamEv+0x74>
   276dc: 03 ff ff f0  	adrp	x3, 0xa000 <_ZN8ChxUtils11GetTotalRamEv+0x68>
   276e0: 25 ff ff d0  	adrp	x5, 0xd000 <_ZN8ChxUtils11GetTotalRamEv+0x78>
   276fc: 69 32 00 94  	bl	0x340a0 <_ZN6ChiLog9LogSystemEPKcS1_S1_S1_iS1_z@plt>
   27710: 81 07 00 54  	b.ne	0x27800 <_ZN8ChxUtils11GetTotalRamEv+0x200>
   27728: e8 05 18 36  	tbz	w8, #3, 0x277e4 <_ZN8ChxUtils11GetTotalRamEv+0x1e4>
   2772c: 6a 00 00 d0  	adrp	x10, 0x35000 <_ZN8ChxUtils11GetTotalRamEv+0x164>
   2773c: a1 02 00 54  	b.ne	0x27790 <_ZN8ChxUtils11GetTotalRamEv+0x190>
   27740: 34 ff ff d0  	adrp	x20, 0xd000 <_ZN8ChxUtils11GetTotalRamEv+0xd8>
   27760: 21 ff ff f0  	adrp	x1, 0xe000 <_ZN8ChxUtils11GetTotalRamEv+0xfc>
   27768: 22 ff ff d0  	adrp	x2, 0xd000 <_ZN8ChxUtils11GetTotalRamEv+0x100>
   2776c: 05 ff ff f0  	adrp	x5, 0xa000 <_ZN8ChxUtils11GetTotalRamEv+0xf8>
   27790: 33 ff ff d0  	adrp	x19, 0xd000 <_ZN8ChxUtils11GetTotalRamEv+0x128>
   277b8: 40 ff ff 90  	adrp	x0, 0xf000 <_ZN8ChxUtils11GetTotalRamEv+0x158>
   277bc: 21 ff ff b0  	adrp	x1, 0xc000 <_ZN8ChxUtils11GetTotalRamEv+0x150>
   277c0: 03 ff ff f0  	adrp	x3, 0xa000 <_ZN8ChxUtils11GetTotalRamEv+0x14c>
   277c4: 05 ff ff f0  	adrp	x5, 0xa000 <_ZN8ChxUtils11GetTotalRamEv+0x150>
   277e0: 30 32 00 94  	bl	0x340a0 <_ZN6ChiLog9LogSystemEPKcS1_S1_S1_iS1_z@plt>
   277fc: c0 f8 ff 54  	b.eq	0x27714 <_ZN8ChxUtils11GetTotalRamEv+0x114>
   27808: a0 01 00 b4  	cbz	x0, 0x2783c <_ZN8ChxUtils11GetTotalRamEv+0x23c>
   27820: fa ff ff 97  	bl	0x27808 <_ZN8ChxUtils11GetTotalRamEv+0x208>
   27828: f8 ff ff 97  	bl	0x27808 <_ZN8ChxUtils11GetTotalRamEv+0x208>
   27890: 52 00 00 94  	bl	0x279d8 <_ZN8ChxUtils11GetTotalRamEv+0x3d8>
   278a4: 40 02 00 54  	b.eq	0x278ec <_ZN8ChxUtils11GetTotalRamEv+0x2ec>
   278d8: 68 00 00 d0  	adrp	x8, 0x35000 <_ZN8ChxUtils11GetTotalRamEv+0x310>
   278e4: 08 01 08 37  	tbnz	w8, #1, 0x27904 <_ZN8ChxUtils11GetTotalRamEv+0x304>
   278e8: 31 00 00 14  	b	0x279ac <_ZN8ChxUtils11GetTotalRamEv+0x3ac>
   278f4: 68 00 00 d0  	adrp	x8, 0x35000 <_ZN8ChxUtils11GetTotalRamEv+0x32c>
   27900: 68 05 08 36  	tbz	w8, #1, 0x279ac <_ZN8ChxUtils11GetTotalRamEv+0x3ac>
   27904: 69 00 00 d0  	adrp	x9, 0x35000 <_ZN8ChxUtils11GetTotalRamEv+0x33c>
   27908: 34 ff ff 90  	adrp	x20, 0xb000 <_ZN8ChxUtils11GetTotalRamEv+0x298>
   2791c: 41 02 00 54  	b.ne	0x27964 <_ZN8ChxUtils11GetTotalRamEv+0x364>
   27934: 21 ff ff f0  	adrp	x1, 0xe000 <_ZN8ChxUtils11GetTotalRamEv+0x2d0>
   27938: 22 ff ff 90  	adrp	x2, 0xb000 <_ZN8ChxUtils11GetTotalRamEv+0x2c8>
   2793c: 25 ff ff b0  	adrp	x5, 0xc000 <_ZN8ChxUtils11GetTotalRamEv+0x2d0>
   27978: 01 ff ff f0  	adrp	x1, 0xa000 <_ZN8ChxUtils11GetTotalRamEv+0x304>
   27980: 20 ff ff d0  	adrp	x0, 0xd000 <_ZN8ChxUtils11GetTotalRamEv+0x318>
   27984: 23 ff ff b0  	adrp	x3, 0xc000 <_ZN8ChxUtils11GetTotalRamEv+0x318>
   27988: 45 ff ff 90  	adrp	x5, 0xf000 <_ZN8ChxUtils11GetTotalRamEv+0x328>
   279a8: be 31 00 94  	bl	0x340a0 <_ZN6ChiLog9LogSystemEPKcS1_S1_S1_iS1_z@plt>
   279b8: e1 00 00 54  	b.ne	0x279d4 <_ZN8ChxUtils11GetTotalRamEv+0x3d4>
   27a24: 22 ff ff b0  	adrp	x2, 0xc000 <_ZN8ChxUtils11GetTotalRamEv+0x3b8>
   27a64: a1 00 00 54  	b.ne	0x27a78 <_ZN8ChxUtils11GetTotalRamEv+0x478>
   27a8c: 80 0e 00 54  	b.eq	0x27c5c <_ZN8ChxUtils11GetTotalRamEv+0x65c>
   27a94: 04 00 00 14  	b	0x27aa4 <_ZN8ChxUtils11GetTotalRamEv+0x4a4>
   27aa0: e0 0d 00 54  	b.eq	0x27c5c <_ZN8ChxUtils11GetTotalRamEv+0x65c>
   27aac: 89 0d 00 35  	cbnz	w9, 0x27c5c <_ZN8ChxUtils11GetTotalRamEv+0x65c>
   27abc: 40 01 00 54  	b.eq	0x27ae4 <_ZN8ChxUtils11GetTotalRamEv+0x4e4>
   27ac0: 6f 02 00 b4  	cbz	x15, 0x27b0c <_ZN8ChxUtils11GetTotalRamEv+0x50c>
   27ac8: 2d 02 00 35  	cbnz	w13, 0x27b0c <_ZN8ChxUtils11GetTotalRamEv+0x50c>
   27ae0: ee ff ff 17  	b	0x27a98 <_ZN8ChxUtils11GetTotalRamEv+0x498>
   27ae8: d0 01 00 b4  	cbz	x16, 0x27b20 <_ZN8ChxUtils11GetTotalRamEv+0x520>
   27af0: 8b 01 00 35  	cbnz	w11, 0x27b20 <_ZN8ChxUtils11GetTotalRamEv+0x520>
   27b08: e4 ff ff 17  	b	0x27a98 <_ZN8ChxUtils11GetTotalRamEv+0x498>
   27b14: 60 02 00 54  	b.eq	0x27b60 <_ZN8ChxUtils11GetTotalRamEv+0x560>
   27b1c: 3c 00 00 14  	b	0x27c0c <_ZN8ChxUtils11GetTotalRamEv+0x60c>
   27b28: 40 03 00 54  	b.eq	0x27b90 <_ZN8ChxUtils11GetTotalRamEv+0x590>
   27b38: 67 00 00 b4  	cbz	x7, 0x27b44 <_ZN8ChxUtils11GetTotalRamEv+0x544>
   27b54: 20 02 00 54  	b.eq	0x27b98 <_ZN8ChxUtils11GetTotalRamEv+0x598>
   27b5c: 10 00 00 14  	b	0x27b9c <_ZN8ChxUtils11GetTotalRamEv+0x59c>
   27b68: 66 00 00 b4  	cbz	x6, 0x27b74 <_ZN8ChxUtils11GetTotalRamEv+0x574>
   27b84: e0 03 00 54  	b.eq	0x27c00 <_ZN8ChxUtils11GetTotalRamEv+0x600>
   27b8c: 1e 00 00 14  	b	0x27c04 <_ZN8ChxUtils11GetTotalRamEv+0x604>
   27b94: 04 00 00 14  	b	0x27ba4 <_ZN8ChxUtils11GetTotalRamEv+0x5a4>
   27bc0: 44 00 00 b4  	cbz	x4, 0x27bc8 <_ZN8ChxUtils11GetTotalRamEv+0x5c8>
   27bdc: a0 00 00 54  	b.eq	0x27bf0 <_ZN8ChxUtils11GetTotalRamEv+0x5f0>
   27c28: 45 00 00 b4  	cbz	x5, 0x27c30 <_ZN8ChxUtils11GetTotalRamEv+0x630>
   27c44: 60 00 00 54  	b.eq	0x27c50 <_ZN8ChxUtils11GetTotalRamEv+0x650>
   27c4c: 02 00 00 14  	b	0x27c54 <_ZN8ChxUtils11GetTotalRamEv+0x654>
   27c80: b3 00 00 90  	adrp	x19, 0x3b000 <_ZN8ChxUtils11GetTotalRamEv+0x6d0>
   27c84: 36 ff ff b0  	adrp	x22, 0xc000 <_ZN8ChxUtils11GetTotalRamEv+0x618>
   27c98: e6 30 00 94  	bl	0x34030 <_ZN7android8hardware11hidl_stringC1EPKc@plt>
   27c9c: 75 ff ff 90  	adrp	x21, 0x13000 <_ZN8ChxUtils11GetTotalRamEv+0x64c>
   27ca0: 74 00 00 d0  	adrp	x20, 0x35000 <_ZN8ChxUtils11GetTotalRamEv+0x6d8>
   27cd0: d8 30 00 94  	bl	0x34030 <_ZN7android8hardware11hidl_stringC1EPKc@plt>
   27cf8: ce 30 00 94  	bl	0x34030 <_ZN7android8hardware11hidl_stringC1EPKc@plt>
   27d20: c4 30 00 94  	bl	0x34030 <_ZN7android8hardware11hidl_stringC1EPKc@plt>
   27d48: ba 30 00 94  	bl	0x34030 <_ZN7android8hardware11hidl_stringC1EPKc@plt>
   27d70: b0 30 00 94  	bl	0x34030 <_ZN7android8hardware11hidl_stringC1EPKc@plt>
   27d98: a6 30 00 94  	bl	0x34030 <_ZN7android8hardware11hidl_stringC1EPKc@plt>
   27dc0: 9c 30 00 94  	bl	0x34030 <_ZN7android8hardware11hidl_stringC1EPKc@plt>
   27de8: 92 30 00 94  	bl	0x34030 <_ZN7android8hardware11hidl_stringC1EPKc@plt>
   27e10: 88 30 00 94  	bl	0x34030 <_ZN7android8hardware11hidl_stringC1EPKc@plt>
   27e38: 7e 30 00 94  	bl	0x34030 <_ZN7android8hardware11hidl_stringC1EPKc@plt>
   27e60: 74 30 00 94  	bl	0x34030 <_ZN7android8hardware11hidl_stringC1EPKc@plt>
   27e88: 6a 30 00 94  	bl	0x34030 <_ZN7android8hardware11hidl_stringC1EPKc@plt>
   27eb0: 60 30 00 94  	bl	0x34030 <_ZN7android8hardware11hidl_stringC1EPKc@plt>
   27ed8: 56 30 00 94  	bl	0x34030 <_ZN7android8hardware11hidl_stringC1EPKc@plt>
   27f00: 4c 30 00 94  	bl	0x34030 <_ZN7android8hardware11hidl_stringC1EPKc@plt>
   27f28: 42 30 00 94  	bl	0x34030 <_ZN7android8hardware11hidl_stringC1EPKc@plt>
   27f50: 38 30 00 94  	bl	0x34030 <_ZN7android8hardware11hidl_stringC1EPKc@plt>
   27f78: 2e 30 00 94  	bl	0x34030 <_ZN7android8hardware11hidl_stringC1EPKc@plt>
   27fa0: 24 30 00 94  	bl	0x34030 <_ZN7android8hardware11hidl_stringC1EPKc@plt>
   27fc8: 1a 30 00 94  	bl	0x34030 <_ZN7android8hardware11hidl_stringC1EPKc@plt>
   27ff0: 2d ff ff f0  	adrp	x13, 0xe000 <_ZN8ChxUtils11GetTotalRamEv+0x98c>
   27ff4: 0c ff ff b0  	adrp	x12, 0x8000 <_ZN8ChxUtils11GetTotalRamEv+0x978>
   27ffc: 76 ff ff 90  	adrp	x22, 0x13000 <_ZN8ChxUtils11GetTotalRamEv+0x9ac>
   2808c: 2f ff ff f0  	adrp	x15, 0xf000 <_ZN8ChxUtils11GetTotalRamEv+0xa28>
   28090: 0e ff ff b0  	adrp	x14, 0x9000 <_ZN8ChxUtils11GetTotalRamEv+0xa14>
   28164: 31 ff ff d0  	adrp	x17, 0xe000 <_ZN8ChxUtils11GetTotalRamEv+0xafc>
   28168: 10 ff ff 90  	adrp	x16, 0x8000 <_ZN8ChxUtils11GetTotalRamEv+0xae8>
   28280: 03 ff ff d0  	adrp	x3, 0xa000 <_ZN8ChxUtils11GetTotalRamEv+0xc08>
   28284: 02 ff ff 90  	adrp	x2, 0x8000 <_ZN8ChxUtils11GetTotalRamEv+0xc04>
   28508: 60 00 00 b0  	adrp	x0, 0x35000 <_ZN8ChxUtils11GetTotalRamEv+0xf3c>
   28538: ca 2e 00 94  	bl	0x34060 <_ZN7android8hardware11hidl_stringC1ERKNSt3__112basic_stringIcNS2_11char_traitsIcEENS2_9allocatorIcEEEE@plt>
   28560: c0 2e 00 94  	bl	0x34060 <_ZN7android8hardware11hidl_stringC1ERKNSt3__112basic_stringIcNS2_11char_traitsIcEENS2_9allocatorIcEEEE@plt>
   28588: b6 2e 00 94  	bl	0x34060 <_ZN7android8hardware11hidl_stringC1ERKNSt3__112basic_stringIcNS2_11char_traitsIcEENS2_9allocatorIcEEEE@plt>
   285b0: ac 2e 00 94  	bl	0x34060 <_ZN7android8hardware11hidl_stringC1ERKNSt3__112basic_stringIcNS2_11char_traitsIcEENS2_9allocatorIcEEEE@plt>
   285d8: a2 2e 00 94  	bl	0x34060 <_ZN7android8hardware11hidl_stringC1ERKNSt3__112basic_stringIcNS2_11char_traitsIcEENS2_9allocatorIcEEEE@plt>
   28600: 98 2e 00 94  	bl	0x34060 <_ZN7android8hardware11hidl_stringC1ERKNSt3__112basic_stringIcNS2_11char_traitsIcEENS2_9allocatorIcEEEE@plt>
   28628: 8e 2e 00 94  	bl	0x34060 <_ZN7android8hardware11hidl_stringC1ERKNSt3__112basic_stringIcNS2_11char_traitsIcEENS2_9allocatorIcEEEE@plt>
   28650: 84 2e 00 94  	bl	0x34060 <_ZN7android8hardware11hidl_stringC1ERKNSt3__112basic_stringIcNS2_11char_traitsIcEENS2_9allocatorIcEEEE@plt>
   28678: 7a 2e 00 94  	bl	0x34060 <_ZN7android8hardware11hidl_stringC1ERKNSt3__112basic_stringIcNS2_11char_traitsIcEENS2_9allocatorIcEEEE@plt>
   286a0: 70 2e 00 94  	bl	0x34060 <_ZN7android8hardware11hidl_stringC1ERKNSt3__112basic_stringIcNS2_11char_traitsIcEENS2_9allocatorIcEEEE@plt>
   286c8: 66 2e 00 94  	bl	0x34060 <_ZN7android8hardware11hidl_stringC1ERKNSt3__112basic_stringIcNS2_11char_traitsIcEENS2_9allocatorIcEEEE@plt>
   286f0: 5c 2e 00 94  	bl	0x34060 <_ZN7android8hardware11hidl_stringC1ERKNSt3__112basic_stringIcNS2_11char_traitsIcEENS2_9allocatorIcEEEE@plt>
   28718: 52 2e 00 94  	bl	0x34060 <_ZN7android8hardware11hidl_stringC1ERKNSt3__112basic_stringIcNS2_11char_traitsIcEENS2_9allocatorIcEEEE@plt>
   28740: 48 2e 00 94  	bl	0x34060 <_ZN7android8hardware11hidl_stringC1ERKNSt3__112basic_stringIcNS2_11char_traitsIcEENS2_9allocatorIcEEEE@plt>
   28768: 3e 2e 00 94  	bl	0x34060 <_ZN7android8hardware11hidl_stringC1ERKNSt3__112basic_stringIcNS2_11char_traitsIcEENS2_9allocatorIcEEEE@plt>
   28790: 34 2e 00 94  	bl	0x34060 <_ZN7android8hardware11hidl_stringC1ERKNSt3__112basic_stringIcNS2_11char_traitsIcEENS2_9allocatorIcEEEE@plt>
   287b8: 2a 2e 00 94  	bl	0x34060 <_ZN7android8hardware11hidl_stringC1ERKNSt3__112basic_stringIcNS2_11char_traitsIcEENS2_9allocatorIcEEEE@plt>
   287e0: 20 2e 00 94  	bl	0x34060 <_ZN7android8hardware11hidl_stringC1ERKNSt3__112basic_stringIcNS2_11char_traitsIcEENS2_9allocatorIcEEEE@plt>
   28808: 16 2e 00 94  	bl	0x34060 <_ZN7android8hardware11hidl_stringC1ERKNSt3__112basic_stringIcNS2_11char_traitsIcEENS2_9allocatorIcEEEE@plt>
   28830: 0c 2e 00 94  	bl	0x34060 <_ZN7android8hardware11hidl_stringC1ERKNSt3__112basic_stringIcNS2_11char_traitsIcEENS2_9allocatorIcEEEE@plt>
   28858: 02 2e 00 94  	bl	0x34060 <_ZN7android8hardware11hidl_stringC1ERKNSt3__112basic_stringIcNS2_11char_traitsIcEENS2_9allocatorIcEEEE@plt>
   28880: f8 2d 00 94  	bl	0x34060 <_ZN7android8hardware11hidl_stringC1ERKNSt3__112basic_stringIcNS2_11char_traitsIcEENS2_9allocatorIcEEEE@plt>
   288a8: ee 2d 00 94  	bl	0x34060 <_ZN7android8hardware11hidl_stringC1ERKNSt3__112basic_stringIcNS2_11char_traitsIcEENS2_9allocatorIcEEEE@plt>
   288d0: e4 2d 00 94  	bl	0x34060 <_ZN7android8hardware11hidl_stringC1ERKNSt3__112basic_stringIcNS2_11char_traitsIcEENS2_9allocatorIcEEEE@plt>
   288f8: da 2d 00 94  	bl	0x34060 <_ZN7android8hardware11hidl_stringC1ERKNSt3__112basic_stringIcNS2_11char_traitsIcEENS2_9allocatorIcEEEE@plt>
   28920: d0 2d 00 94  	bl	0x34060 <_ZN7android8hardware11hidl_stringC1ERKNSt3__112basic_stringIcNS2_11char_traitsIcEENS2_9allocatorIcEEEE@plt>
   28944: cb 2d 00 94  	bl	0x34070 <_ZNSt3__112basic_stringIcNS_11char_traitsIcEENS_9allocatorIcEEEC1ERKS5_@plt>
   2896c: c1 2d 00 94  	bl	0x34070 <_ZNSt3__112basic_stringIcNS_11char_traitsIcEENS_9allocatorIcEEEC1ERKS5_@plt>
   28994: b7 2d 00 94  	bl	0x34070 <_ZNSt3__112basic_stringIcNS_11char_traitsIcEENS_9allocatorIcEEEC1ERKS5_@plt>
   289bc: ad 2d 00 94  	bl	0x34070 <_ZNSt3__112basic_stringIcNS_11char_traitsIcEENS_9allocatorIcEEEC1ERKS5_@plt>
   289f0: 34 ff ff f0  	adrp	x20, 0xf000 <_ZN8ChxUtils11GetTotalRamEv+0x138c>
   28a14: 40 00 00 b4  	cbz	x0, 0x28a1c <_ZN8ChxUtils11GetTotalRamEv+0x141c>
   28a20: 18 fc ff 97  	bl	0x27a80 <_ZN8ChxUtils11GetTotalRamEv+0x480>
   28a3c: 00 02 00 54  	b.eq	0x28a7c <_ZN8ChxUtils11GetTotalRamEv+0x147c>
   28a40: c9 00 00 b4  	cbz	x9, 0x28a58 <_ZN8ChxUtils11GetTotalRamEv+0x1458>
   28a50: cb ff ff b5  	cbnz	x11, 0x28a48 <_ZN8ChxUtils11GetTotalRamEv+0x1448>
   28a54: 07 00 00 14  	b	0x28a70 <_ZN8ChxUtils11GetTotalRamEv+0x1470>
   28a6c: 80 ff ff 54  	b.eq	0x28a5c <_ZN8ChxUtils11GetTotalRamEv+0x145c>
   28a78: cc 00 00 54  	b.gt	0x28a90 <_ZN8ChxUtils11GetTotalRamEv+0x1490>
   28a7c: c9 00 00 b4  	cbz	x9, 0x28a94 <_ZN8ChxUtils11GetTotalRamEv+0x1494>
   28a88: 56 05 00 b5  	cbnz	x22, 0x28b30 <_ZN8ChxUtils11GetTotalRamEv+0x1530>
   28a8c: 04 00 00 14  	b	0x28a9c <_ZN8ChxUtils11GetTotalRamEv+0x149c>
   28a90: a9 02 00 b5  	cbnz	x9, 0x28ae4 <_ZN8ChxUtils11GetTotalRamEv+0x14e4>
   28acc: 49 02 00 b4  	cbz	x9, 0x28b14 <_ZN8ChxUtils11GetTotalRamEv+0x1514>
   28ad8: 10 00 00 14  	b	0x28b18 <_ZN8ChxUtils11GetTotalRamEv+0x1518>
   28ae0: c9 fd ff b4  	cbz	x9, 0x28a98 <_ZN8ChxUtils11GetTotalRamEv+0x1498>
   28af0: 6a ff ff 54  	b.ge	0x28adc <_ZN8ChxUtils11GetTotalRamEv+0x14dc>
   28af8: c0 01 00 54  	b.eq	0x28b30 <_ZN8ChxUtils11GetTotalRamEv+0x1530>
   28b00: 29 ff ff b5  	cbnz	x9, 0x28ae4 <_ZN8ChxUtils11GetTotalRamEv+0x14e4>
   28b10: e3 ff ff 17  	b	0x28a9c <_ZN8ChxUtils11GetTotalRamEv+0x149c>
   28b1c: d9 fb ff 97  	bl	0x27a80 <_ZN8ChxUtils11GetTotalRamEv+0x480>
   28b3c: e0 00 00 54  	b.eq	0x28b58 <_ZN8ChxUtils11GetTotalRamEv+0x1558>
   28b40: 0a 01 00 b4  	cbz	x10, 0x28b60 <_ZN8ChxUtils11GetTotalRamEv+0x1560>
   28b50: c8 ff ff b5  	cbnz	x8, 0x28b48 <_ZN8ChxUtils11GetTotalRamEv+0x1548>
   28b54: 09 00 00 14  	b	0x28b78 <_ZN8ChxUtils11GetTotalRamEv+0x1578>
   28b5c: 0a 00 00 14  	b	0x28b84 <_ZN8ChxUtils11GetTotalRamEv+0x1584>
   28b74: 80 ff ff 54  	b.eq	0x28b64 <_ZN8ChxUtils11GetTotalRamEv+0x1564>
   28b80: cc 00 00 54  	b.gt	0x28b98 <_ZN8ChxUtils11GetTotalRamEv+0x1598>
   28b84: ea 00 00 b4  	cbz	x10, 0x28ba0 <_ZN8ChxUtils11GetTotalRamEv+0x15a0>
   28b90: 30 05 00 b5  	cbnz	x16, 0x28c34 <_ZN8ChxUtils11GetTotalRamEv+0x1634>
   28b94: 04 00 00 14  	b	0x28ba4 <_ZN8ChxUtils11GetTotalRamEv+0x15a4>
   28b98: aa 02 00 b5  	cbnz	x10, 0x28bec <_ZN8ChxUtils11GetTotalRamEv+0x15ec>
   28bd4: 4a 02 00 b4  	cbz	x10, 0x28c1c <_ZN8ChxUtils11GetTotalRamEv+0x161c>
   28be0: 10 00 00 14  	b	0x28c20 <_ZN8ChxUtils11GetTotalRamEv+0x1620>
   28be8: ca fd ff b4  	cbz	x10, 0x28ba0 <_ZN8ChxUtils11GetTotalRamEv+0x15a0>
   28bf8: 6a ff ff 54  	b.ge	0x28be4 <_ZN8ChxUtils11GetTotalRamEv+0x15e4>
   28c00: a0 01 00 54  	b.eq	0x28c34 <_ZN8ChxUtils11GetTotalRamEv+0x1634>
   28c08: 2a ff ff b5  	cbnz	x10, 0x28bec <_ZN8ChxUtils11GetTotalRamEv+0x15ec>
   28c18: e3 ff ff 17  	b	0x28ba4 <_ZN8ChxUtils11GetTotalRamEv+0x15a4>
   28c24: 97 fb ff 97  	bl	0x27a80 <_ZN8ChxUtils11GetTotalRamEv+0x480>
   28c38: a0 ff ff d0  	adrp	x0, 0x1e000 <_ZN8ChxUtils11GetTotalRamEv+0x1610>
   28c54: 62 00 00 b0  	adrp	x2, 0x35000 <_ZN11ChiMetadata6CreateEPKjjbP18ChiMetadataManagerj+0x20>
0000000000028c68 <_ZN11ChiMetadata6CreateEPKjjbP18ChiMetadataManagerj>:
   28cb8: 60 09 00 b4  	cbz	x0, 0x28de4 <_ZN11ChiMetadata6CreateEPKjjbP18ChiMetadataManagerj+0x17c>
   28cc4: eb 2e 00 94  	bl	0x34870 <_ZN11ChiMetadata21InitializeMetadataOpsEP14ChiMetadataOps@plt>
   28ccc: 00 08 00 35  	cbnz	w0, 0x28dcc <_ZN11ChiMetadata6CreateEPKjjbP18ChiMetadataManagerj+0x164>
   28cdc: b6 03 00 b5  	cbnz	x22, 0x28d50 <_ZN11ChiMetadata6CreateEPKjjbP18ChiMetadataManagerj+0xe8>
   28ce0: 97 03 00 36  	tbz	w23, #0, 0x28d50 <_ZN11ChiMetadata6CreateEPKjjbP18ChiMetadataManagerj+0xe8>
   28d2c: 95 2d 00 94  	bl	0x34380 <_ZN15ExtensionModule11GetInstanceEv@plt>
   28d40: d0 2e 00 94  	bl	0x34880 <_ZN15ExtensionModule23GetAvailableRequestKeysEjPjjS0_@plt>
   28d64: 56 01 00 b4  	cbz	x22, 0x28d8c <_ZN11ChiMetadata6CreateEPKjjbP18ChiMetadataManagerj+0x124>
   28d68: 35 01 00 34  	cbz	w21, 0x28d8c <_ZN11ChiMetadata6CreateEPKjjbP18ChiMetadataManagerj+0x124>
   28d88: 06 00 00 14  	b	0x28da0 <_ZN11ChiMetadata6CreateEPKjjbP18ChiMetadataManagerj+0x138>
   28dc8: 80 00 00 34  	cbz	w0, 0x28dd8 <_ZN11ChiMetadata6CreateEPKjjbP18ChiMetadataManagerj+0x170>
   28dd8: 74 00 00 b4  	cbz	x20, 0x28de4 <_ZN11ChiMetadata6CreateEPKjjbP18ChiMetadataManagerj+0x17c>
   28df0: 21 01 00 54  	b.ne	0x28e14 <_ZN11ChiMetadata6CreateEPKjjbP18ChiMetadataManagerj+0x1ac>
0000000000028e18 <_ZN11ChiMetadata21InitializeMetadataOpsEP14ChiMetadataOps>:
   28e28: 56 2d 00 94  	bl	0x34380 <_ZN15ExtensionModule11GetInstanceEv@plt>
   28e30: 98 2e 00 94  	bl	0x34890 <_ZN15ExtensionModule14GetMetadataOpsEP14ChiMetadataOps@plt>
   28e38: e8 09 00 b4  	cbz	x8, 0x28f74 <_ZN11ChiMetadata21InitializeMetadataOpsEP14ChiMetadataOps+0x15c>
   28e40: a9 0f 00 b4  	cbz	x9, 0x29034 <_ZN11ChiMetadata21InitializeMetadataOpsEP14ChiMetadataOps+0x21c>
   28e48: 6a 15 00 b4  	cbz	x10, 0x290f4 <_ZN11ChiMetadata21InitializeMetadataOpsEP14ChiMetadataOps+0x2dc>
   28e50: 2b 1b 00 b4  	cbz	x11, 0x291b4 <_ZN11ChiMetadata21InitializeMetadataOpsEP14ChiMetadataOps+0x39c>
   28e58: ec 20 00 b4  	cbz	x12, 0x29274 <_ZN11ChiMetadata21InitializeMetadataOpsEP14ChiMetadataOps+0x45c>
   28e60: ad 26 00 b4  	cbz	x13, 0x29334 <_ZN11ChiMetadata21InitializeMetadataOpsEP14ChiMetadataOps+0x51c>
   28e68: 6e 2c 00 b4  	cbz	x14, 0x293f4 <_ZN11ChiMetadata21InitializeMetadataOpsEP14ChiMetadataOps+0x5dc>
   28e70: 2f 32 00 b4  	cbz	x15, 0x294b4 <_ZN11ChiMetadata21InitializeMetadataOpsEP14ChiMetadataOps+0x69c>
   28e78: f0 37 00 b4  	cbz	x16, 0x29574 <_ZN11ChiMetadata21InitializeMetadataOpsEP14ChiMetadataOps+0x75c>
   28e80: b1 3d 00 b4  	cbz	x17, 0x29634 <_ZN11ChiMetadata21InitializeMetadataOpsEP14ChiMetadataOps+0x81c>
   28e88: 64 43 00 b4  	cbz	x4, 0x296f4 <_ZN11ChiMetadata21InitializeMetadataOpsEP14ChiMetadataOps+0x8dc>
   28e90: 27 49 00 b4  	cbz	x7, 0x297b4 <_ZN11ChiMetadata21InitializeMetadataOpsEP14ChiMetadataOps+0x99c>
   28e98: e2 4e 00 b4  	cbz	x2, 0x29874 <_ZN11ChiMetadata21InitializeMetadataOpsEP14ChiMetadataOps+0xa5c>
   28ea0: a0 54 00 b4  	cbz	x0, 0x29934 <_ZN11ChiMetadata21InitializeMetadataOpsEP14ChiMetadataOps+0xb1c>
   28ea8: 61 5a 00 b4  	cbz	x1, 0x299f4 <_ZN11ChiMetadata21InitializeMetadataOpsEP14ChiMetadataOps+0xbdc>
   28eb0: 23 60 00 b4  	cbz	x3, 0x29ab4 <_ZN11ChiMetadata21InitializeMetadataOpsEP14ChiMetadataOps+0xc9c>
   28eb8: e5 65 00 b4  	cbz	x5, 0x29b74 <_ZN11ChiMetadata21InitializeMetadataOpsEP14ChiMetadataOps+0xd5c>
   28ec0: a6 6b 00 b4  	cbz	x6, 0x29c34 <_ZN11ChiMetadata21InitializeMetadataOpsEP14ChiMetadataOps+0xe1c>
   28ec8: 68 71 00 b4  	cbz	x8, 0x29cf4 <_ZN11ChiMetadata21InitializeMetadataOpsEP14ChiMetadataOps+0xedc>
   28ed0: 29 77 00 b4  	cbz	x9, 0x29db4 <_ZN11ChiMetadata21InitializeMetadataOpsEP14ChiMetadataOps+0xf9c>
   28ed8: ea 7c 00 b4  	cbz	x10, 0x29e74 <_ZN11ChiMetadata21InitializeMetadataOpsEP14ChiMetadataOps+0x105c>
   28ee0: ab 82 00 b4  	cbz	x11, 0x29f34 <_ZN11ChiMetadata21InitializeMetadataOpsEP14ChiMetadataOps+0x111c>
   28ee8: 6c 88 00 b4  	cbz	x12, 0x29ff4 <_ZN11ChiMetadata21InitializeMetadataOpsEP14ChiMetadataOps+0x11dc>
   28ef0: 2d 8e 00 b4  	cbz	x13, 0x2a0b4 <_ZN11ChiMetadata21InitializeMetadataOpsEP14ChiMetadataOps+0x129c>
   28ef8: ee 93 00 b4  	cbz	x14, 0x2a174 <_ZN11ChiMetadata21InitializeMetadataOpsEP14ChiMetadataOps+0x135c>
   28f00: af 99 00 b4  	cbz	x15, 0x2a234 <_ZN11ChiMetadata21InitializeMetadataOpsEP14ChiMetadataOps+0x141c>
   28f08: 70 9f 00 b4  	cbz	x16, 0x2a2f4 <_ZN11ChiMetadata21InitializeMetadataOpsEP14ChiMetadataOps+0x14dc>
   28f10: 31 a5 00 b4  	cbz	x17, 0x2a3b4 <_ZN11ChiMetadata21InitializeMetadataOpsEP14ChiMetadataOps+0x159c>
   28f18: e4 aa 00 b4  	cbz	x4, 0x2a474 <_ZN11ChiMetadata21InitializeMetadataOpsEP14ChiMetadataOps+0x165c>
   28f20: a7 b0 00 b4  	cbz	x7, 0x2a534 <_ZN11ChiMetadata21InitializeMetadataOpsEP14ChiMetadataOps+0x171c>
   28f28: 62 b6 00 b4  	cbz	x2, 0x2a5f4 <_ZN11ChiMetadata21InitializeMetadataOpsEP14ChiMetadataOps+0x17dc>
   28f30: 20 bc 00 b4  	cbz	x0, 0x2a6b4 <_ZN11ChiMetadata21InitializeMetadataOpsEP14ChiMetadataOps+0x189c>
   28f38: e1 c1 00 b4  	cbz	x1, 0x2a774 <_ZN11ChiMetadata21InitializeMetadataOpsEP14ChiMetadataOps+0x195c>
   28f40: a3 c7 00 b4  	cbz	x3, 0x2a834 <_ZN11ChiMetadata21InitializeMetadataOpsEP14ChiMetadataOps+0x1a1c>
   28f48: 65 cd 00 b4  	cbz	x5, 0x2a8f4 <_ZN11ChiMetadata21InitializeMetadataOpsEP14ChiMetadataOps+0x1adc>
   28f50: 26 d3 00 b4  	cbz	x6, 0x2a9b4 <_ZN11ChiMetadata21InitializeMetadataOpsEP14ChiMetadataOps+0x1b9c>
   28f58: e8 d8 00 b4  	cbz	x8, 0x2aa74 <_ZN11ChiMetadata21InitializeMetadataOpsEP14ChiMetadataOps+0x1c5c>
   28f60: a9 de 00 b4  	cbz	x9, 0x2ab34 <_ZN11ChiMetadata21InitializeMetadataOpsEP14ChiMetadataOps+0x1d1c>
   28f68: 73 e4 00 b4  	cbz	x19, 0x2abf4 <_ZN11ChiMetadata21InitializeMetadataOpsEP14ChiMetadataOps+0x1ddc>
   28f70: 50 07 00 14  	b	0x2acb0 <_ZN11ChiMetadata21InitializeMetadataOpsEP14ChiMetadataOps+0x1e98>
   28f74: 68 00 00 b0  	adrp	x8, 0x35000 <_ZN11ChiMetadata21InitializeMetadataOpsEP14ChiMetadataOps+0x190>
   28f80: 68 e9 30 36  	tbz	w8, #6, 0x2acac <_ZN11ChiMetadata21InitializeMetadataOpsEP14ChiMetadataOps+0x1e94>
   28f84: 69 00 00 b0  	adrp	x9, 0x35000 <_ZN11ChiMetadata21InitializeMetadataOpsEP14ChiMetadataOps+0x1a0>
   28f94: 81 02 00 54  	b.ne	0x28fe4 <_ZN11ChiMetadata21InitializeMetadataOpsEP14ChiMetadataOps+0x1cc>
   28f98: 33 ff ff 90  	adrp	x19, 0xc000 <_ZN11ChiMetadata21InitializeMetadataOpsEP14ChiMetadataOps+0x110>
   28fb4: 21 ff ff d0  	adrp	x1, 0xe000 <_ZN11ChiMetadata21InitializeMetadataOpsEP14ChiMetadataOps+0x134>
   28fb8: 02 ff ff d0  	adrp	x2, 0xa000 <_ZN11ChiMetadata21InitializeMetadataOpsEP14ChiMetadataOps+0x128>
   28fbc: 25 ff ff f0  	adrp	x5, 0xf000 <_ZN11ChiMetadata21InitializeMetadataOpsEP14ChiMetadataOps+0x140>
   28fc0: 26 ff ff 90  	adrp	x6, 0xc000 <_ZN11ChiMetadata21InitializeMetadataOpsEP14ChiMetadataOps+0x138>
   28fe4: 33 ff ff 90  	adrp	x19, 0xc000 <_ZN11ChiMetadata21InitializeMetadataOpsEP14ChiMetadataOps+0x15c>
   29000: 01 ff ff b0  	adrp	x1, 0xa000 <_ZN11ChiMetadata21InitializeMetadataOpsEP14ChiMetadataOps+0x16c>
   29008: 20 ff ff 90  	adrp	x0, 0xd000 <_ZN11ChiMetadata21InitializeMetadataOpsEP14ChiMetadataOps+0x180>
   2900c: 23 ff ff d0  	adrp	x3, 0xf000 <_ZN11ChiMetadata21InitializeMetadataOpsEP14ChiMetadataOps+0x18c>
   29010: 05 ff ff 90  	adrp	x5, 0x9000 <_ZN11ChiMetadata21InitializeMetadataOpsEP14ChiMetadataOps+0x178>
   29014: 06 ff ff f0  	adrp	x6, 0xc000 <_ZN11ChiMetadata21InitializeMetadataOpsEP14ChiMetadataOps+0x188>
   29030: 1e 07 00 14  	b	0x2aca8 <_ZN11ChiMetadata21InitializeMetadataOpsEP14ChiMetadataOps+0x1e90>
   29034: 6a 00 00 90  	adrp	x10, 0x35000 <_ZN11ChiMetadata21InitializeMetadataOpsEP14ChiMetadataOps+0x24c>
   29040: 69 e3 30 36  	tbz	w9, #6, 0x2acac <_ZN11ChiMetadata21InitializeMetadataOpsEP14ChiMetadataOps+0x1e94>
   29044: 6b 00 00 90  	adrp	x11, 0x35000 <_ZN11ChiMetadata21InitializeMetadataOpsEP14ChiMetadataOps+0x25c>
   29054: 81 02 00 54  	b.ne	0x290a4 <_ZN11ChiMetadata21InitializeMetadataOpsEP14ChiMetadataOps+0x28c>
   29058: 13 ff ff f0  	adrp	x19, 0xc000 <_ZN11ChiMetadata21InitializeMetadataOpsEP14ChiMetadataOps+0x1cc>
   29074: 21 ff ff b0  	adrp	x1, 0xe000 <_ZN11ChiMetadata21InitializeMetadataOpsEP14ChiMetadataOps+0x1f0>
   29078: 02 ff ff b0  	adrp	x2, 0xa000 <_ZN11ChiMetadata21InitializeMetadataOpsEP14ChiMetadataOps+0x1e4>
   2907c: 25 ff ff d0  	adrp	x5, 0xf000 <_ZN11ChiMetadata21InitializeMetadataOpsEP14ChiMetadataOps+0x1fc>
   29080: 26 ff ff 90  	adrp	x6, 0xd000 <_ZN11ChiMetadata21InitializeMetadataOpsEP14ChiMetadataOps+0x1f8>
   290a4: 13 ff ff f0  	adrp	x19, 0xc000 <_ZN11ChiMetadata21InitializeMetadataOpsEP14ChiMetadataOps+0x218>
   290c0: 01 ff ff b0  	adrp	x1, 0xa000 <_ZN11ChiMetadata21InitializeMetadataOpsEP14ChiMetadataOps+0x22c>
   290c8: 20 ff ff 90  	adrp	x0, 0xd000 <_ZN11ChiMetadata21InitializeMetadataOpsEP14ChiMetadataOps+0x240>
   290cc: 23 ff ff d0  	adrp	x3, 0xf000 <_ZN11ChiMetadata21InitializeMetadataOpsEP14ChiMetadataOps+0x24c>
   290d0: 05 ff ff 90  	adrp	x5, 0x9000 <_ZN11ChiMetadata21InitializeMetadataOpsEP14ChiMetadataOps+0x238>
   290d4: 26 ff ff 90  	adrp	x6, 0xd000 <_ZN11ChiMetadata21InitializeMetadataOpsEP14ChiMetadataOps+0x24c>
   290f0: ee 06 00 14  	b	0x2aca8 <_ZN11ChiMetadata21InitializeMetadataOpsEP14ChiMetadataOps+0x1e90>
   290f4: 6c 00 00 90  	adrp	x12, 0x35000 <_ZN11ChiMetadata21InitializeMetadataOpsEP14ChiMetadataOps+0x30c>
   29100: 6a dd 30 36  	tbz	w10, #6, 0x2acac <_ZN11ChiMetadata21InitializeMetadataOpsEP14ChiMetadataOps+0x1e94>
   29104: 6d 00 00 90  	adrp	x13, 0x35000 <_ZN11ChiMetadata21InitializeMetadataOpsEP14ChiMetadataOps+0x31c>
   29114: 81 02 00 54  	b.ne	0x29164 <_ZN11ChiMetadata21InitializeMetadataOpsEP14ChiMetadataOps+0x34c>
   29118: 13 ff ff f0  	adrp	x19, 0xc000 <_ZN11ChiMetadata21InitializeMetadataOpsEP14ChiMetadataOps+0x28c>
   29134: 21 ff ff b0  	adrp	x1, 0xe000 <_ZN11ChiMetadata21InitializeMetadataOpsEP14ChiMetadataOps+0x2b0>
   29138: 02 ff ff b0  	adrp	x2, 0xa000 <_ZN11ChiMetadata21InitializeMetadataOpsEP14ChiMetadataOps+0x2a4>
   2913c: 25 ff ff d0  	adrp	x5, 0xf000 <_ZN11ChiMetadata21InitializeMetadataOpsEP14ChiMetadataOps+0x2bc>
   29140: 06 ff ff f0  	adrp	x6, 0xc000 <_ZN11ChiMetadata21InitializeMetadataOpsEP14ChiMetadataOps+0x2b4>
   29164: 13 ff ff f0  	adrp	x19, 0xc000 <_ZN11ChiMetadata21InitializeMetadataOpsEP14ChiMetadataOps+0x2d8>
   29180: 01 ff ff b0  	adrp	x1, 0xa000 <_ZN11ChiMetadata21InitializeMetadataOpsEP14ChiMetadataOps+0x2ec>
   29188: 20 ff ff 90  	adrp	x0, 0xd000 <_ZN11ChiMetadata21InitializeMetadataOpsEP14ChiMetadataOps+0x300>
   2918c: 23 ff ff d0  	adrp	x3, 0xf000 <_ZN11ChiMetadata21InitializeMetadataOpsEP14ChiMetadataOps+0x30c>
   29190: 05 ff ff 90  	adrp	x5, 0x9000 <_ZN11ChiMetadata21InitializeMetadataOpsEP14ChiMetadataOps+0x2f8>
   29194: 06 ff ff f0  	adrp	x6, 0xc000 <_ZN11ChiMetadata21InitializeMetadataOpsEP14ChiMetadataOps+0x308>
   291b0: be 06 00 14  	b	0x2aca8 <_ZN11ChiMetadata21InitializeMetadataOpsEP14ChiMetadataOps+0x1e90>
   291b4: 6e 00 00 90  	adrp	x14, 0x35000 <_ZN11ChiMetadata21InitializeMetadataOpsEP14ChiMetadataOps+0x3cc>
   291c0: 6b d7 30 36  	tbz	w11, #6, 0x2acac <_ZN11ChiMetadata21InitializeMetadataOpsEP14ChiMetadataOps+0x1e94>
   291c4: 6f 00 00 90  	adrp	x15, 0x35000 <_ZN11ChiMetadata21InitializeMetadataOpsEP14ChiMetadataOps+0x3dc>
   291d4: 81 02 00 54  	b.ne	0x29224 <_ZN11ChiMetadata21InitializeMetadataOpsEP14ChiMetadataOps+0x40c>
   291d8: 13 ff ff f0  	adrp	x19, 0xc000 <_ZN11ChiMetadata21InitializeMetadataOpsEP14ChiMetadataOps+0x34c>
   291f4: 21 ff ff b0  	adrp	x1, 0xe000 <_ZN11ChiMetadata21InitializeMetadataOpsEP14ChiMetadataOps+0x370>
   291f8: 02 ff ff b0  	adrp	x2, 0xa000 <_ZN11ChiMetadata21InitializeMetadataOpsEP14ChiMetadataOps+0x364>
   291fc: 25 ff ff d0  	adrp	x5, 0xf000 <_ZN11ChiMetadata21InitializeMetadataOpsEP14ChiMetadataOps+0x37c>
   29200: 06 ff ff d0  	adrp	x6, 0xb000 <_ZN11ChiMetadata21InitializeMetadataOpsEP14ChiMetadataOps+0x370>
   29224: 13 ff ff f0  	adrp	x19, 0xc000 <_ZN11ChiMetadata21InitializeMetadataOpsEP14ChiMetadataOps+0x398>
   29240: 01 ff ff b0  	adrp	x1, 0xa000 <_ZN11ChiMetadata21InitializeMetadataOpsEP14ChiMetadataOps+0x3ac>
   29248: 20 ff ff 90  	adrp	x0, 0xd000 <_ZN11ChiMetadata21InitializeMetadataOpsEP14ChiMetadataOps+0x3c0>
   2924c: 23 ff ff d0  	adrp	x3, 0xf000 <_ZN11ChiMetadata21InitializeMetadataOpsEP14ChiMetadataOps+0x3cc>
   29250: 05 ff ff 90  	adrp	x5, 0x9000 <_ZN11ChiMetadata21InitializeMetadataOpsEP14ChiMetadataOps+0x3b8>
   29254: 06 ff ff d0  	adrp	x6, 0xb000 <_ZN11ChiMetadata21InitializeMetadataOpsEP14ChiMetadataOps+0x3c4>
   29270: 8e 06 00 14  	b	0x2aca8 <_ZN11ChiMetadata21InitializeMetadataOpsEP14ChiMetadataOps+0x1e90>
   29274: 70 00 00 90  	adrp	x16, 0x35000 <_ZN11ChiMetadata21InitializeMetadataOpsEP14ChiMetadataOps+0x48c>
   29280: 6c d1 30 36  	tbz	w12, #6, 0x2acac <_ZN11ChiMetadata21InitializeMetadataOpsEP14ChiMetadataOps+0x1e94>
   29284: 71 00 00 90  	adrp	x17, 0x35000 <_ZN11ChiMetadata21InitializeMetadataOpsEP14ChiMetadataOps+0x49c>
   29294: 81 02 00 54  	b.ne	0x292e4 <_ZN11ChiMetadata21InitializeMetadataOpsEP14ChiMetadataOps+0x4cc>
   29298: 13 ff ff f0  	adrp	x19, 0xc000 <_ZN11ChiMetadata21InitializeMetadataOpsEP14ChiMetadataOps+0x40c>
   292b4: 21 ff ff b0  	adrp	x1, 0xe000 <_ZN11ChiMetadata21InitializeMetadataOpsEP14ChiMetadataOps+0x430>
   292b8: 02 ff ff b0  	adrp	x2, 0xa000 <_ZN11ChiMetadata21InitializeMetadataOpsEP14ChiMetadataOps+0x424>
   292bc: 25 ff ff d0  	adrp	x5, 0xf000 <_ZN11ChiMetadata21InitializeMetadataOpsEP14ChiMetadataOps+0x43c>
   292c0: 06 ff ff d0  	adrp	x6, 0xb000 <_ZN11ChiMetadata21InitializeMetadataOpsEP14ChiMetadataOps+0x430>
   292e4: 13 ff ff f0  	adrp	x19, 0xc000 <_ZN11ChiMetadata21InitializeMetadataOpsEP14ChiMetadataOps+0x458>
   29300: 01 ff ff b0  	adrp	x1, 0xa000 <_ZN11ChiMetadata21InitializeMetadataOpsEP14ChiMetadataOps+0x46c>
   29308: 20 ff ff 90  	adrp	x0, 0xd000 <_ZN11ChiMetadata21InitializeMetadataOpsEP14ChiMetadataOps+0x480>
   2930c: 23 ff ff d0  	adrp	x3, 0xf000 <_ZN11ChiMetadata21InitializeMetadataOpsEP14ChiMetadataOps+0x48c>
   29310: 05 ff ff 90  	adrp	x5, 0x9000 <_ZN11ChiMetadata21InitializeMetadataOpsEP14ChiMetadataOps+0x478>
   29314: 06 ff ff d0  	adrp	x6, 0xb000 <_ZN11ChiMetadata21InitializeMetadataOpsEP14ChiMetadataOps+0x484>
   29330: 5e 06 00 14  	b	0x2aca8 <_ZN11ChiMetadata21InitializeMetadataOpsEP14ChiMetadataOps+0x1e90>
   29334: 61 00 00 90  	adrp	x1, 0x35000 <_ZN11ChiMetadata21InitializeMetadataOpsEP14ChiMetadataOps+0x54c>
   29340: 6d cb 30 36  	tbz	w13, #6, 0x2acac <_ZN11ChiMetadata21InitializeMetadataOpsEP14ChiMetadataOps+0x1e94>
   29344: 62 00 00 90  	adrp	x2, 0x35000 <_ZN11ChiMetadata21InitializeMetadataOpsEP14ChiMetadataOps+0x55c>
   29354: 81 02 00 54  	b.ne	0x293a4 <_ZN11ChiMetadata21InitializeMetadataOpsEP14ChiMetadataOps+0x58c>
   29358: 13 ff ff f0  	adrp	x19, 0xc000 <_ZN11ChiMetadata21InitializeMetadataOpsEP14ChiMetadataOps+0x4cc>
   29374: 21 ff ff b0  	adrp	x1, 0xe000 <_ZN11ChiMetadata21InitializeMetadataOpsEP14ChiMetadataOps+0x4f0>
   29378: 02 ff ff b0  	adrp	x2, 0xa000 <_ZN11ChiMetadata21InitializeMetadataOpsEP14ChiMetadataOps+0x4e4>
   2937c: 25 ff ff d0  	adrp	x5, 0xf000 <_ZN11ChiMetadata21InitializeMetadataOpsEP14ChiMetadataOps+0x4fc>
   29380: 26 ff ff b0  	adrp	x6, 0xe000 <_ZN11ChiMetadata21InitializeMetadataOpsEP14ChiMetadataOps+0x4fc>
   293a4: 13 ff ff f0  	adrp	x19, 0xc000 <_ZN11ChiMetadata21InitializeMetadataOpsEP14ChiMetadataOps+0x518>
   293c0: 01 ff ff b0  	adrp	x1, 0xa000 <_ZN11ChiMetadata21InitializeMetadataOpsEP14ChiMetadataOps+0x52c>
   293c8: 20 ff ff 90  	adrp	x0, 0xd000 <_ZN11ChiMetadata21InitializeMetadataOpsEP14ChiMetadataOps+0x540>
   293cc: 23 ff ff d0  	adrp	x3, 0xf000 <_ZN11ChiMetadata21InitializeMetadataOpsEP14ChiMetadataOps+0x54c>
   293d0: 05 ff ff 90  	adrp	x5, 0x9000 <_ZN11ChiMetadata21InitializeMetadataOpsEP14ChiMetadataOps+0x538>
   293d4: 26 ff ff b0  	adrp	x6, 0xe000 <_ZN11ChiMetadata21InitializeMetadataOpsEP14ChiMetadataOps+0x550>
   293f0: 2e 06 00 14  	b	0x2aca8 <_ZN11ChiMetadata21InitializeMetadataOpsEP14ChiMetadataOps+0x1e90>
   293f4: 63 00 00 90  	adrp	x3, 0x35000 <_ZN11ChiMetadata21InitializeMetadataOpsEP14ChiMetadataOps+0x60c>
   29400: 6e c5 30 36  	tbz	w14, #6, 0x2acac <_ZN11ChiMetadata21InitializeMetadataOpsEP14ChiMetadataOps+0x1e94>
   29404: 64 00 00 90  	adrp	x4, 0x35000 <_ZN11ChiMetadata21InitializeMetadataOpsEP14ChiMetadataOps+0x61c>
   29414: 81 02 00 54  	b.ne	0x29464 <_ZN11ChiMetadata21InitializeMetadataOpsEP14ChiMetadataOps+0x64c>
   29418: 13 ff ff f0  	adrp	x19, 0xc000 <_ZN11ChiMetadata21InitializeMetadataOpsEP14ChiMetadataOps+0x58c>
   29434: 21 ff ff b0  	adrp	x1, 0xe000 <_ZN11ChiMetadata21InitializeMetadataOpsEP14ChiMetadataOps+0x5b0>
   29438: 02 ff ff b0  	adrp	x2, 0xa000 <_ZN11ChiMetadata21InitializeMetadataOpsEP14ChiMetadataOps+0x5a4>
   2943c: 25 ff ff d0  	adrp	x5, 0xf000 <_ZN11ChiMetadata21InitializeMetadataOpsEP14ChiMetadataOps+0x5bc>
   29440: 26 ff ff 90  	adrp	x6, 0xd000 <_ZN11ChiMetadata21InitializeMetadataOpsEP14ChiMetadataOps+0x5b8>
   29464: 13 ff ff f0  	adrp	x19, 0xc000 <_ZN11ChiMetadata21InitializeMetadataOpsEP14ChiMetadataOps+0x5d8>
   29480: 01 ff ff b0  	adrp	x1, 0xa000 <_ZN11ChiMetadata21InitializeMetadataOpsEP14ChiMetadataOps+0x5ec>
   29488: 20 ff ff 90  	adrp	x0, 0xd000 <_ZN11ChiMetadata21InitializeMetadataOpsEP14ChiMetadataOps+0x600>
   2948c: 23 ff ff d0  	adrp	x3, 0xf000 <_ZN11ChiMetadata21InitializeMetadataOpsEP14ChiMetadataOps+0x60c>
   29490: 05 ff ff 90  	adrp	x5, 0x9000 <_ZN11ChiMetadata21InitializeMetadataOpsEP14ChiMetadataOps+0x5f8>
   29494: 26 ff ff 90  	adrp	x6, 0xd000 <_ZN11ChiMetadata21InitializeMetadataOpsEP14ChiMetadataOps+0x60c>
   294b0: fe 05 00 14  	b	0x2aca8 <_ZN11ChiMetadata21InitializeMetadataOpsEP14ChiMetadataOps+0x1e90>
   294b4: 65 00 00 90  	adrp	x5, 0x35000 <_ZN11ChiMetadata21InitializeMetadataOpsEP14ChiMetadataOps+0x6cc>
   294c0: 6f bf 30 36  	tbz	w15, #6, 0x2acac <_ZN11ChiMetadata21InitializeMetadataOpsEP14ChiMetadataOps+0x1e94>
   294c4: 66 00 00 90  	adrp	x6, 0x35000 <_ZN11ChiMetadata21InitializeMetadataOpsEP14ChiMetadataOps+0x6dc>
   294d4: 81 02 00 54  	b.ne	0x29524 <_ZN11ChiMetadata21InitializeMetadataOpsEP14ChiMetadataOps+0x70c>
   294d8: 13 ff ff f0  	adrp	x19, 0xc000 <_ZN11ChiMetadata21InitializeMetadataOpsEP14ChiMetadataOps+0x64c>
   294f4: 21 ff ff b0  	adrp	x1, 0xe000 <_ZN11ChiMetadata21InitializeMetadataOpsEP14ChiMetadataOps+0x670>
   294f8: 02 ff ff b0  	adrp	x2, 0xa000 <_ZN11ChiMetadata21InitializeMetadataOpsEP14ChiMetadataOps+0x664>
   294fc: 25 ff ff d0  	adrp	x5, 0xf000 <_ZN11ChiMetadata21InitializeMetadataOpsEP14ChiMetadataOps+0x67c>
   29500: 06 ff ff 90  	adrp	x6, 0x9000 <_ZN11ChiMetadata21InitializeMetadataOpsEP14ChiMetadataOps+0x668>
   29524: 13 ff ff f0  	adrp	x19, 0xc000 <_ZN11ChiMetadata21InitializeMetadataOpsEP14ChiMetadataOps+0x698>
   29540: 01 ff ff b0  	adrp	x1, 0xa000 <_ZN11ChiMetadata21InitializeMetadataOpsEP14ChiMetadataOps+0x6ac>
   29548: 20 ff ff 90  	adrp	x0, 0xd000 <_ZN11ChiMetadata21InitializeMetadataOpsEP14ChiMetadataOps+0x6c0>
   2954c: 23 ff ff d0  	adrp	x3, 0xf000 <_ZN11ChiMetadata21InitializeMetadataOpsEP14ChiMetadataOps+0x6cc>
   29550: 05 ff ff 90  	adrp	x5, 0x9000 <_ZN11ChiMetadata21InitializeMetadataOpsEP14ChiMetadataOps+0x6b8>
   29554: 06 ff ff 90  	adrp	x6, 0x9000 <_ZN11ChiMetadata21InitializeMetadataOpsEP14ChiMetadataOps+0x6bc>
   29570: ce 05 00 14  	b	0x2aca8 <_ZN11ChiMetadata21InitializeMetadataOpsEP14ChiMetadataOps+0x1e90>
   29574: 67 00 00 90  	adrp	x7, 0x35000 <_ZN11ChiMetadata21InitializeMetadataOpsEP14ChiMetadataOps+0x78c>
   29580: 70 b9 30 36  	tbz	w16, #6, 0x2acac <_ZN11ChiMetadata21InitializeMetadataOpsEP14ChiMetadataOps+0x1e94>
   29584: 73 00 00 90  	adrp	x19, 0x35000 <_ZN11ChiMetadata21InitializeMetadataOpsEP14ChiMetadataOps+0x79c>
   29594: 81 02 00 54  	b.ne	0x295e4 <_ZN11ChiMetadata21InitializeMetadataOpsEP14ChiMetadataOps+0x7cc>
   29598: 13 ff ff f0  	adrp	x19, 0xc000 <_ZN11ChiMetadata21InitializeMetadataOpsEP14ChiMetadataOps+0x70c>
   295b4: 21 ff ff b0  	adrp	x1, 0xe000 <_ZN11ChiMetadata21InitializeMetadataOpsEP14ChiMetadataOps+0x730>
   295b8: 02 ff ff b0  	adrp	x2, 0xa000 <_ZN11ChiMetadata21InitializeMetadataOpsEP14ChiMetadataOps+0x724>
   295bc: 25 ff ff d0  	adrp	x5, 0xf000 <_ZN11ChiMetadata21InitializeMetadataOpsEP14ChiMetadataOps+0x73c>
   295c0: 06 ff ff f0  	adrp	x6, 0xc000 <_ZN11ChiMetadata21InitializeMetadataOpsEP14ChiMetadataOps+0x734>
   295e4: 13 ff ff f0  	adrp	x19, 0xc000 <_ZN11ChiMetadata21InitializeMetadataOpsEP14ChiMetadataOps+0x758>
   29600: 01 ff ff b0  	adrp	x1, 0xa000 <_ZN11ChiMetadata21InitializeMetadataOpsEP14ChiMetadataOps+0x76c>
   29608: 20 ff ff 90  	adrp	x0, 0xd000 <_ZN11ChiMetadata21InitializeMetadataOpsEP14ChiMetadataOps+0x780>
   2960c: 23 ff ff d0  	adrp	x3, 0xf000 <_ZN11ChiMetadata21InitializeMetadataOpsEP14ChiMetadataOps+0x78c>
   29610: 05 ff ff 90  	adrp	x5, 0x9000 <_ZN11ChiMetadata21InitializeMetadataOpsEP14ChiMetadataOps+0x778>
   29614: 06 ff ff f0  	adrp	x6, 0xc000 <_ZN11ChiMetadata21InitializeMetadataOpsEP14ChiMetadataOps+0x788>
   29630: 9e 05 00 14  	b	0x2aca8 <_ZN11ChiMetadata21InitializeMetadataOpsEP14ChiMetadataOps+0x1e90>
   29634: 60 00 00 90  	adrp	x0, 0x35000 <_ZN11ChiMetadata21InitializeMetadataOpsEP14ChiMetadataOps+0x84c>
   29640: 71 b3 30 36  	tbz	w17, #6, 0x2acac <_ZN11ChiMetadata21InitializeMetadataOpsEP14ChiMetadataOps+0x1e94>
   29644: 68 00 00 90  	adrp	x8, 0x35000 <_ZN11ChiMetadata21InitializeMetadataOpsEP14ChiMetadataOps+0x85c>
   29654: 81 02 00 54  	b.ne	0x296a4 <_ZN11ChiMetadata21InitializeMetadataOpsEP14ChiMetadataOps+0x88c>
   29658: 13 ff ff f0  	adrp	x19, 0xc000 <_ZN11ChiMetadata21InitializeMetadataOpsEP14ChiMetadataOps+0x7cc>
   29674: 21 ff ff b0  	adrp	x1, 0xe000 <_ZN11ChiMetadata21InitializeMetadataOpsEP14ChiMetadataOps+0x7f0>
   29678: 02 ff ff b0  	adrp	x2, 0xa000 <_ZN11ChiMetadata21InitializeMetadataOpsEP14ChiMetadataOps+0x7e4>
   2967c: 25 ff ff d0  	adrp	x5, 0xf000 <_ZN11ChiMetadata21InitializeMetadataOpsEP14ChiMetadataOps+0x7fc>
   29680: 06 ff ff f0  	adrp	x6, 0xc000 <_ZN11ChiMetadata21InitializeMetadataOpsEP14ChiMetadataOps+0x7f4>
   296a4: 13 ff ff f0  	adrp	x19, 0xc000 <_ZN11ChiMetadata21InitializeMetadataOpsEP14ChiMetadataOps+0x818>
   296c0: 01 ff ff b0  	adrp	x1, 0xa000 <_ZN11ChiMetadata21InitializeMetadataOpsEP14ChiMetadataOps+0x82c>
   296c8: 20 ff ff 90  	adrp	x0, 0xd000 <_ZN11ChiMetadata21InitializeMetadataOpsEP14ChiMetadataOps+0x840>
   296cc: 23 ff ff d0  	adrp	x3, 0xf000 <_ZN11ChiMetadata21InitializeMetadataOpsEP14ChiMetadataOps+0x84c>
   296d0: 05 ff ff 90  	adrp	x5, 0x9000 <_ZN11ChiMetadata21InitializeMetadataOpsEP14ChiMetadataOps+0x838>
   296d4: 06 ff ff f0  	adrp	x6, 0xc000 <_ZN11ChiMetadata21InitializeMetadataOpsEP14ChiMetadataOps+0x848>
   296f0: 6e 05 00 14  	b	0x2aca8 <_ZN11ChiMetadata21InitializeMetadataOpsEP14ChiMetadataOps+0x1e90>
   296f4: 69 00 00 90  	adrp	x9, 0x35000 <_ZN11ChiMetadata21InitializeMetadataOpsEP14ChiMetadataOps+0x90c>
   29700: 62 ad 30 36  	tbz	w2, #6, 0x2acac <_ZN11ChiMetadata21InitializeMetadataOpsEP14ChiMetadataOps+0x1e94>
   29704: 6a 00 00 90  	adrp	x10, 0x35000 <_ZN11ChiMetadata21InitializeMetadataOpsEP14ChiMetadataOps+0x91c>
   29714: 81 02 00 54  	b.ne	0x29764 <_ZN11ChiMetadata21InitializeMetadataOpsEP14ChiMetadataOps+0x94c>
   29718: 13 ff ff f0  	adrp	x19, 0xc000 <_ZN11ChiMetadata21InitializeMetadataOpsEP14ChiMetadataOps+0x88c>
   29734: 21 ff ff b0  	adrp	x1, 0xe000 <_ZN11ChiMetadata21InitializeMetadataOpsEP14ChiMetadataOps+0x8b0>
   29738: 02 ff ff b0  	adrp	x2, 0xa000 <_ZN11ChiMetadata21InitializeMetadataOpsEP14ChiMetadataOps+0x8a4>
   2973c: 25 ff ff d0  	adrp	x5, 0xf000 <_ZN11ChiMetadata21InitializeMetadataOpsEP14ChiMetadataOps+0x8bc>
   29740: 26 ff ff d0  	adrp	x6, 0xf000 <_ZN11ChiMetadata21InitializeMetadataOpsEP14ChiMetadataOps+0x8c0>
   29764: 13 ff ff f0  	adrp	x19, 0xc000 <_ZN11ChiMetadata21InitializeMetadataOpsEP14ChiMetadataOps+0x8d8>
   29780: 01 ff ff b0  	adrp	x1, 0xa000 <_ZN11ChiMetadata21InitializeMetadataOpsEP14ChiMetadataOps+0x8ec>
   29788: 20 ff ff 90  	adrp	x0, 0xd000 <_ZN11ChiMetadata21InitializeMetadataOpsEP14ChiMetadataOps+0x900>
   2978c: 23 ff ff d0  	adrp	x3, 0xf000 <_ZN11ChiMetadata21InitializeMetadataOpsEP14ChiMetadataOps+0x90c>
   29790: 05 ff ff 90  	adrp	x5, 0x9000 <_ZN11ChiMetadata21InitializeMetadataOpsEP14ChiMetadataOps+0x8f8>
   29794: 26 ff ff d0  	adrp	x6, 0xf000 <_ZN11ChiMetadata21InitializeMetadataOpsEP14ChiMetadataOps+0x914>
   297b0: 3e 05 00 14  	b	0x2aca8 <_ZN11ChiMetadata21InitializeMetadataOpsEP14ChiMetadataOps+0x1e90>
   297b4: 6b 00 00 90  	adrp	x11, 0x35000 <_ZN11ChiMetadata21InitializeMetadataOpsEP14ChiMetadataOps+0x9cc>
   297c0: 63 a7 30 36  	tbz	w3, #6, 0x2acac <_ZN11ChiMetadata21InitializeMetadataOpsEP14ChiMetadataOps+0x1e94>
   297c4: 6c 00 00 90  	adrp	x12, 0x35000 <_ZN11ChiMetadata21InitializeMetadataOpsEP14ChiMetadataOps+0x9dc>
   297d4: 81 02 00 54  	b.ne	0x29824 <_ZN11ChiMetadata21InitializeMetadataOpsEP14ChiMetadataOps+0xa0c>
   297d8: 13 ff ff f0  	adrp	x19, 0xc000 <_ZN11ChiMetadata21InitializeMetadataOpsEP14ChiMetadataOps+0x94c>
   297f4: 21 ff ff b0  	adrp	x1, 0xe000 <_ZN11ChiMetadata21InitializeMetadataOpsEP14ChiMetadataOps+0x970>
   297f8: 02 ff ff b0  	adrp	x2, 0xa000 <_ZN11ChiMetadata21InitializeMetadataOpsEP14ChiMetadataOps+0x964>
   297fc: 25 ff ff d0  	adrp	x5, 0xf000 <_ZN11ChiMetadata21InitializeMetadataOpsEP14ChiMetadataOps+0x97c>
   29800: 26 ff ff 90  	adrp	x6, 0xd000 <_ZN11ChiMetadata21InitializeMetadataOpsEP14ChiMetadataOps+0x978>
   29824: 13 ff ff f0  	adrp	x19, 0xc000 <_ZN11ChiMetadata21InitializeMetadataOpsEP14ChiMetadataOps+0x998>
   29840: 01 ff ff b0  	adrp	x1, 0xa000 <_ZN11ChiMetadata21InitializeMetadataOpsEP14ChiMetadataOps+0x9ac>
   29848: 20 ff ff 90  	adrp	x0, 0xd000 <_ZN11ChiMetadata21InitializeMetadataOpsEP14ChiMetadataOps+0x9c0>
   2984c: 23 ff ff d0  	adrp	x3, 0xf000 <_ZN11ChiMetadata21InitializeMetadataOpsEP14ChiMetadataOps+0x9cc>
   29850: 05 ff ff 90  	adrp	x5, 0x9000 <_ZN11ChiMetadata21InitializeMetadataOpsEP14ChiMetadataOps+0x9b8>
   29854: 26 ff ff 90  	adrp	x6, 0xd000 <_ZN11ChiMetadata21InitializeMetadataOpsEP14ChiMetadataOps+0x9cc>
   29870: 0e 05 00 14  	b	0x2aca8 <_ZN11ChiMetadata21InitializeMetadataOpsEP14ChiMetadataOps+0x1e90>
   29874: 6d 00 00 90  	adrp	x13, 0x35000 <_ZN11ChiMetadata21InitializeMetadataOpsEP14ChiMetadataOps+0xa8c>
   29880: 65 a1 30 36  	tbz	w5, #6, 0x2acac <_ZN11ChiMetadata21InitializeMetadataOpsEP14ChiMetadataOps+0x1e94>
   29884: 6e 00 00 90  	adrp	x14, 0x35000 <_ZN11ChiMetadata21InitializeMetadataOpsEP14ChiMetadataOps+0xa9c>
   29894: 81 02 00 54  	b.ne	0x298e4 <_ZN11ChiMetadata21InitializeMetadataOpsEP14ChiMetadataOps+0xacc>
   29898: 13 ff ff f0  	adrp	x19, 0xc000 <_ZN11ChiMetadata21InitializeMetadataOpsEP14ChiMetadataOps+0xa0c>
   298b4: 21 ff ff b0  	adrp	x1, 0xe000 <_ZN11ChiMetadata21InitializeMetadataOpsEP14ChiMetadataOps+0xa30>
   298b8: 02 ff ff b0  	adrp	x2, 0xa000 <_ZN11ChiMetadata21InitializeMetadataOpsEP14ChiMetadataOps+0xa24>
   298bc: 25 ff ff d0  	adrp	x5, 0xf000 <_ZN11ChiMetadata21InitializeMetadataOpsEP14ChiMetadataOps+0xa3c>
   298c0: 06 ff ff b0  	adrp	x6, 0xa000 <_ZN11ChiMetadata21InitializeMetadataOpsEP14ChiMetadataOps+0xa2c>
   298e4: 13 ff ff f0  	adrp	x19, 0xc000 <_ZN11ChiMetadata21InitializeMetadataOpsEP14ChiMetadataOps+0xa58>
   29900: 01 ff ff b0  	adrp	x1, 0xa000 <_ZN11ChiMetadata21InitializeMetadataOpsEP14ChiMetadataOps+0xa6c>
   29908: 20 ff ff 90  	adrp	x0, 0xd000 <_ZN11ChiMetadata21InitializeMetadataOpsEP14ChiMetadataOps+0xa80>
   2990c: 23 ff ff d0  	adrp	x3, 0xf000 <_ZN11ChiMetadata21InitializeMetadataOpsEP14ChiMetadataOps+0xa8c>
   29910: 05 ff ff 90  	adrp	x5, 0x9000 <_ZN11ChiMetadata21InitializeMetadataOpsEP14ChiMetadataOps+0xa78>
   29914: 06 ff ff b0  	adrp	x6, 0xa000 <_ZN11ChiMetadata21InitializeMetadataOpsEP14ChiMetadataOps+0xa80>
   29930: de 04 00 14  	b	0x2aca8 <_ZN11ChiMetadata21InitializeMetadataOpsEP14ChiMetadataOps+0x1e90>
   29934: 6f 00 00 90  	adrp	x15, 0x35000 <_ZN11ChiMetadata21InitializeMetadataOpsEP14ChiMetadataOps+0xb4c>
   29940: 66 9b 30 36  	tbz	w6, #6, 0x2acac <_ZN11ChiMetadata21InitializeMetadataOpsEP14ChiMetadataOps+0x1e94>
   29944: 70 00 00 90  	adrp	x16, 0x35000 <_ZN11ChiMetadata21InitializeMetadataOpsEP14ChiMetadataOps+0xb5c>
   29954: 81 02 00 54  	b.ne	0x299a4 <_ZN11ChiMetadata21InitializeMetadataOpsEP14ChiMetadataOps+0xb8c>
   29958: 13 ff ff f0  	adrp	x19, 0xc000 <_ZN11ChiMetadata21InitializeMetadataOpsEP14ChiMetadataOps+0xacc>
   29974: 21 ff ff b0  	adrp	x1, 0xe000 <_ZN11ChiMetadata21InitializeMetadataOpsEP14ChiMetadataOps+0xaf0>
   29978: 02 ff ff b0  	adrp	x2, 0xa000 <_ZN11ChiMetadata21InitializeMetadataOpsEP14ChiMetadataOps+0xae4>
   2997c: 25 ff ff d0  	adrp	x5, 0xf000 <_ZN11ChiMetadata21InitializeMetadataOpsEP14ChiMetadataOps+0xafc>
   29980: 06 ff ff d0  	adrp	x6, 0xb000 <_ZN11ChiMetadata21InitializeMetadataOpsEP14ChiMetadataOps+0xaf0>
   299a4: 13 ff ff f0  	adrp	x19, 0xc000 <_ZN11ChiMetadata21InitializeMetadataOpsEP14ChiMetadataOps+0xb18>
   299c0: 01 ff ff b0  	adrp	x1, 0xa000 <_ZN11ChiMetadata21InitializeMetadataOpsEP14ChiMetadataOps+0xb2c>
   299c8: 20 ff ff 90  	adrp	x0, 0xd000 <_ZN11ChiMetadata21InitializeMetadataOpsEP14ChiMetadataOps+0xb40>
   299cc: 23 ff ff d0  	adrp	x3, 0xf000 <_ZN11ChiMetadata21InitializeMetadataOpsEP14ChiMetadataOps+0xb4c>
   299d0: 05 ff ff 90  	adrp	x5, 0x9000 <_ZN11ChiMetadata21InitializeMetadataOpsEP14ChiMetadataOps+0xb38>
   299d4: 06 ff ff d0  	adrp	x6, 0xb000 <_ZN11ChiMetadata21InitializeMetadataOpsEP14ChiMetadataOps+0xb44>
   299f0: ae 04 00 14  	b	0x2aca8 <_ZN11ChiMetadata21InitializeMetadataOpsEP14ChiMetadataOps+0x1e90>
   299f4: 71 00 00 90  	adrp	x17, 0x35000 <_ZN11ChiMetadata21InitializeMetadataOpsEP14ChiMetadataOps+0xc0c>
   29a00: 67 95 30 36  	tbz	w7, #6, 0x2acac <_ZN11ChiMetadata21InitializeMetadataOpsEP14ChiMetadataOps+0x1e94>
   29a04: 61 00 00 90  	adrp	x1, 0x35000 <_ZN11ChiMetadata21InitializeMetadataOpsEP14ChiMetadataOps+0xc1c>
   29a14: 81 02 00 54  	b.ne	0x29a64 <_ZN11ChiMetadata21InitializeMetadataOpsEP14ChiMetadataOps+0xc4c>
   29a18: 13 ff ff f0  	adrp	x19, 0xc000 <_ZN11ChiMetadata21InitializeMetadataOpsEP14ChiMetadataOps+0xb8c>
   29a34: 21 ff ff b0  	adrp	x1, 0xe000 <_ZN11ChiMetadata21InitializeMetadataOpsEP14ChiMetadataOps+0xbb0>
   29a38: 02 ff ff b0  	adrp	x2, 0xa000 <_ZN11ChiMetadata21InitializeMetadataOpsEP14ChiMetadataOps+0xba4>
   29a3c: 25 ff ff d0  	adrp	x5, 0xf000 <_ZN11ChiMetadata21InitializeMetadataOpsEP14ChiMetadataOps+0xbbc>
   29a40: 26 ff ff d0  	adrp	x6, 0xf000 <_ZN11ChiMetadata21InitializeMetadataOpsEP14ChiMetadataOps+0xbc0>
   29a64: 13 ff ff f0  	adrp	x19, 0xc000 <_ZN11ChiMetadata21InitializeMetadataOpsEP14ChiMetadataOps+0xbd8>
   29a80: 01 ff ff b0  	adrp	x1, 0xa000 <_ZN11ChiMetadata21InitializeMetadataOpsEP14ChiMetadataOps+0xbec>
   29a88: 20 ff ff 90  	adrp	x0, 0xd000 <_ZN11ChiMetadata21InitializeMetadataOpsEP14ChiMetadataOps+0xc00>
   29a8c: 23 ff ff d0  	adrp	x3, 0xf000 <_ZN11ChiMetadata21InitializeMetadataOpsEP14ChiMetadataOps+0xc0c>
   29a90: 05 ff ff 90  	adrp	x5, 0x9000 <_ZN11ChiMetadata21InitializeMetadataOpsEP14ChiMetadataOps+0xbf8>
   29a94: 26 ff ff d0  	adrp	x6, 0xf000 <_ZN11ChiMetadata21InitializeMetadataOpsEP14ChiMetadataOps+0xc14>
   29ab0: 7e 04 00 14  	b	0x2aca8 <_ZN11ChiMetadata21InitializeMetadataOpsEP14ChiMetadataOps+0x1e90>
   29ab4: 62 00 00 90  	adrp	x2, 0x35000 <_ZN11ChiMetadata21InitializeMetadataOpsEP14ChiMetadataOps+0xccc>
   29ac0: 60 8f 30 36  	tbz	w0, #6, 0x2acac <_ZN11ChiMetadata21InitializeMetadataOpsEP14ChiMetadataOps+0x1e94>
   29ac4: 63 00 00 90  	adrp	x3, 0x35000 <_ZN11ChiMetadata21InitializeMetadataOpsEP14ChiMetadataOps+0xcdc>
   29ad4: 81 02 00 54  	b.ne	0x29b24 <_ZN11ChiMetadata21InitializeMetadataOpsEP14ChiMetadataOps+0xd0c>
   29ad8: 13 ff ff f0  	adrp	x19, 0xc000 <_ZN11ChiMetadata21InitializeMetadataOpsEP14ChiMetadataOps+0xc4c>
   29af4: 21 ff ff b0  	adrp	x1, 0xe000 <_ZN11ChiMetadata21InitializeMetadataOpsEP14ChiMetadataOps+0xc70>
   29af8: 02 ff ff b0  	adrp	x2, 0xa000 <_ZN11ChiMetadata21InitializeMetadataOpsEP14ChiMetadataOps+0xc64>
   29afc: 25 ff ff d0  	adrp	x5, 0xf000 <_ZN11ChiMetadata21InitializeMetadataOpsEP14ChiMetadataOps+0xc7c>
   29b00: 26 ff ff b0  	adrp	x6, 0xe000 <_ZN11ChiMetadata21InitializeMetadataOpsEP14ChiMetadataOps+0xc7c>
   29b24: 13 ff ff f0  	adrp	x19, 0xc000 <_ZN11ChiMetadata21InitializeMetadataOpsEP14ChiMetadataOps+0xc98>
   29b40: 01 ff ff b0  	adrp	x1, 0xa000 <_ZN11ChiMetadata21InitializeMetadataOpsEP14ChiMetadataOps+0xcac>
   29b48: 20 ff ff 90  	adrp	x0, 0xd000 <_ZN11ChiMetadata21InitializeMetadataOpsEP14ChiMetadataOps+0xcc0>
   29b4c: 23 ff ff d0  	adrp	x3, 0xf000 <_ZN11ChiMetadata21InitializeMetadataOpsEP14ChiMetadataOps+0xccc>
   29b50: 05 ff ff 90  	adrp	x5, 0x9000 <_ZN11ChiMetadata21InitializeMetadataOpsEP14ChiMetadataOps+0xcb8>
   29b54: 26 ff ff b0  	adrp	x6, 0xe000 <_ZN11ChiMetadata21InitializeMetadataOpsEP14ChiMetadataOps+0xcd0>
   29b70: 4e 04 00 14  	b	0x2aca8 <_ZN11ChiMetadata21InitializeMetadataOpsEP14ChiMetadataOps+0x1e90>
   29b74: 64 00 00 90  	adrp	x4, 0x35000 <_ZN11ChiMetadata21InitializeMetadataOpsEP14ChiMetadataOps+0xd8c>
   29b80: 61 89 30 36  	tbz	w1, #6, 0x2acac <_ZN11ChiMetadata21InitializeMetadataOpsEP14ChiMetadataOps+0x1e94>
   29b84: 65 00 00 90  	adrp	x5, 0x35000 <_ZN11ChiMetadata21InitializeMetadataOpsEP14ChiMetadataOps+0xd9c>
   29b94: 81 02 00 54  	b.ne	0x29be4 <_ZN11ChiMetadata21InitializeMetadataOpsEP14ChiMetadataOps+0xdcc>
   29b98: 13 ff ff f0  	adrp	x19, 0xc000 <_ZN11ChiMetadata21InitializeMetadataOpsEP14ChiMetadataOps+0xd0c>
   29bb4: 21 ff ff b0  	adrp	x1, 0xe000 <_ZN11ChiMetadata21InitializeMetadataOpsEP14ChiMetadataOps+0xd30>
   29bb8: 02 ff ff b0  	adrp	x2, 0xa000 <_ZN11ChiMetadata21InitializeMetadataOpsEP14ChiMetadataOps+0xd24>
   29bbc: 25 ff ff d0  	adrp	x5, 0xf000 <_ZN11ChiMetadata21InitializeMetadataOpsEP14ChiMetadataOps+0xd3c>
   29bc0: 06 ff ff 90  	adrp	x6, 0x9000 <_ZN11ChiMetadata21InitializeMetadataOpsEP14ChiMetadataOps+0xd28>
   29be4: 13 ff ff f0  	adrp	x19, 0xc000 <_ZN11ChiMetadata21InitializeMetadataOpsEP14ChiMetadataOps+0xd58>
   29c00: 01 ff ff b0  	adrp	x1, 0xa000 <_ZN11ChiMetadata21InitializeMetadataOpsEP14ChiMetadataOps+0xd6c>
   29c08: 20 ff ff 90  	adrp	x0, 0xd000 <_ZN11ChiMetadata21InitializeMetadataOpsEP14ChiMetadataOps+0xd80>
   29c0c: 23 ff ff d0  	adrp	x3, 0xf000 <_ZN11ChiMetadata21InitializeMetadataOpsEP14ChiMetadataOps+0xd8c>
   29c10: 05 ff ff 90  	adrp	x5, 0x9000 <_ZN11ChiMetadata21InitializeMetadataOpsEP14ChiMetadataOps+0xd78>
   29c14: 06 ff ff 90  	adrp	x6, 0x9000 <_ZN11ChiMetadata21InitializeMetadataOpsEP14ChiMetadataOps+0xd7c>
   29c30: 1e 04 00 14  	b	0x2aca8 <_ZN11ChiMetadata21InitializeMetadataOpsEP14ChiMetadataOps+0x1e90>
   29c34: 66 00 00 90  	adrp	x6, 0x35000 <_ZN11ChiMetadata21InitializeMetadataOpsEP14ChiMetadataOps+0xe4c>
   29c40: 64 83 30 36  	tbz	w4, #6, 0x2acac <_ZN11ChiMetadata21InitializeMetadataOpsEP14ChiMetadataOps+0x1e94>
   29c44: 67 00 00 90  	adrp	x7, 0x35000 <_ZN11ChiMetadata21InitializeMetadataOpsEP14ChiMetadataOps+0xe5c>
   29c54: 81 02 00 54  	b.ne	0x29ca4 <_ZN11ChiMetadata21InitializeMetadataOpsEP14ChiMetadataOps+0xe8c>
   29c58: 13 ff ff f0  	adrp	x19, 0xc000 <_ZN11ChiMetadata21InitializeMetadataOpsEP14ChiMetadataOps+0xdcc>
   29c74: 21 ff ff b0  	adrp	x1, 0xe000 <_ZN11ChiMetadata21InitializeMetadataOpsEP14ChiMetadataOps+0xdf0>
   29c78: 02 ff ff b0  	adrp	x2, 0xa000 <_ZN11ChiMetadata21InitializeMetadataOpsEP14ChiMetadataOps+0xde4>
   29c7c: 25 ff ff d0  	adrp	x5, 0xf000 <_ZN11ChiMetadata21InitializeMetadataOpsEP14ChiMetadataOps+0xdfc>
   29c80: 26 ff ff d0  	adrp	x6, 0xf000 <_ZN11ChiMetadata21InitializeMetadataOpsEP14ChiMetadataOps+0xe00>
   29ca4: 13 ff ff f0  	adrp	x19, 0xc000 <_ZN11ChiMetadata21InitializeMetadataOpsEP14ChiMetadataOps+0xe18>
   29cc0: 01 ff ff b0  	adrp	x1, 0xa000 <_ZN11ChiMetadata21InitializeMetadataOpsEP14ChiMetadataOps+0xe2c>
   29cc8: 20 ff ff 90  	adrp	x0, 0xd000 <_ZN11ChiMetadata21InitializeMetadataOpsEP14ChiMetadataOps+0xe40>
   29ccc: 23 ff ff d0  	adrp	x3, 0xf000 <_ZN11ChiMetadata21InitializeMetadataOpsEP14ChiMetadataOps+0xe4c>
   29cd0: 05 ff ff 90  	adrp	x5, 0x9000 <_ZN11ChiMetadata21InitializeMetadataOpsEP14ChiMetadataOps+0xe38>
   29cd4: 26 ff ff d0  	adrp	x6, 0xf000 <_ZN11ChiMetadata21InitializeMetadataOpsEP14ChiMetadataOps+0xe54>
   29cf0: ee 03 00 14  	b	0x2aca8 <_ZN11ChiMetadata21InitializeMetadataOpsEP14ChiMetadataOps+0x1e90>
   29cf4: 73 00 00 90  	adrp	x19, 0x35000 <_ZN11ChiMetadata21InitializeMetadataOpsEP14ChiMetadataOps+0xf0c>
   29d00: 68 7d 30 36  	tbz	w8, #6, 0x2acac <_ZN11ChiMetadata21InitializeMetadataOpsEP14ChiMetadataOps+0x1e94>
   29d04: 60 00 00 90  	adrp	x0, 0x35000 <_ZN11ChiMetadata21InitializeMetadataOpsEP14ChiMetadataOps+0xf1c>
   29d14: 81 02 00 54  	b.ne	0x29d64 <_ZN11ChiMetadata21InitializeMetadataOpsEP14ChiMetadataOps+0xf4c>
   29d18: 13 ff ff f0  	adrp	x19, 0xc000 <_ZN11ChiMetadata21InitializeMetadataOpsEP14ChiMetadataOps+0xe8c>
   29d34: 21 ff ff b0  	adrp	x1, 0xe000 <_ZN11ChiMetadata21InitializeMetadataOpsEP14ChiMetadataOps+0xeb0>
   29d38: 02 ff ff b0  	adrp	x2, 0xa000 <_ZN11ChiMetadata21InitializeMetadataOpsEP14ChiMetadataOps+0xea4>
   29d3c: 25 ff ff d0  	adrp	x5, 0xf000 <_ZN11ChiMetadata21InitializeMetadataOpsEP14ChiMetadataOps+0xebc>
   29d40: 06 ff ff f0  	adrp	x6, 0xc000 <_ZN11ChiMetadata21InitializeMetadataOpsEP14ChiMetadataOps+0xeb4>
   29d64: 13 ff ff f0  	adrp	x19, 0xc000 <_ZN11ChiMetadata21InitializeMetadataOpsEP14ChiMetadataOps+0xed8>
   29d80: 01 ff ff b0  	adrp	x1, 0xa000 <_ZN11ChiMetadata21InitializeMetadataOpsEP14ChiMetadataOps+0xeec>
   29d88: 20 ff ff 90  	adrp	x0, 0xd000 <_ZN11ChiMetadata21InitializeMetadataOpsEP14ChiMetadataOps+0xf00>
   29d8c: 23 ff ff d0  	adrp	x3, 0xf000 <_ZN11ChiMetadata21InitializeMetadataOpsEP14ChiMetadataOps+0xf0c>
   29d90: 05 ff ff 90  	adrp	x5, 0x9000 <_ZN11ChiMetadata21InitializeMetadataOpsEP14ChiMetadataOps+0xef8>
   29d94: 06 ff ff f0  	adrp	x6, 0xc000 <_ZN11ChiMetadata21InitializeMetadataOpsEP14ChiMetadataOps+0xf08>
   29db0: be 03 00 14  	b	0x2aca8 <_ZN11ChiMetadata21InitializeMetadataOpsEP14ChiMetadataOps+0x1e90>
   29db4: 68 00 00 90  	adrp	x8, 0x35000 <_ZN11ChiMetadata21InitializeMetadataOpsEP14ChiMetadataOps+0xfcc>
   29dc0: 69 77 30 36  	tbz	w9, #6, 0x2acac <_ZN11ChiMetadata21InitializeMetadataOpsEP14ChiMetadataOps+0x1e94>
   29dc4: 69 00 00 90  	adrp	x9, 0x35000 <_ZN11ChiMetadata21InitializeMetadataOpsEP14ChiMetadataOps+0xfdc>
   29dd4: 81 02 00 54  	b.ne	0x29e24 <_ZN11ChiMetadata21InitializeMetadataOpsEP14ChiMetadataOps+0x100c>
   29dd8: 13 ff ff f0  	adrp	x19, 0xc000 <_ZN11ChiMetadata21InitializeMetadataOpsEP14ChiMetadataOps+0xf4c>
   29df4: 21 ff ff b0  	adrp	x1, 0xe000 <_ZN11ChiMetadata21InitializeMetadataOpsEP14ChiMetadataOps+0xf70>
   29df8: 02 ff ff b0  	adrp	x2, 0xa000 <_ZN11ChiMetadata21InitializeMetadataOpsEP14ChiMetadataOps+0xf64>
   29dfc: 25 ff ff d0  	adrp	x5, 0xf000 <_ZN11ChiMetadata21InitializeMetadataOpsEP14ChiMetadataOps+0xf7c>
   29e00: 06 ff ff f0  	adrp	x6, 0xc000 <_ZN11ChiMetadata21InitializeMetadataOpsEP14ChiMetadataOps+0xf74>
   29e24: 13 ff ff f0  	adrp	x19, 0xc000 <_ZN11ChiMetadata21InitializeMetadataOpsEP14ChiMetadataOps+0xf98>
   29e40: 01 ff ff b0  	adrp	x1, 0xa000 <_ZN11ChiMetadata21InitializeMetadataOpsEP14ChiMetadataOps+0xfac>
   29e48: 20 ff ff 90  	adrp	x0, 0xd000 <_ZN11ChiMetadata21InitializeMetadataOpsEP14ChiMetadataOps+0xfc0>
   29e4c: 23 ff ff d0  	adrp	x3, 0xf000 <_ZN11ChiMetadata21InitializeMetadataOpsEP14ChiMetadataOps+0xfcc>
   29e50: 05 ff ff 90  	adrp	x5, 0x9000 <_ZN11ChiMetadata21InitializeMetadataOpsEP14ChiMetadataOps+0xfb8>
   29e54: 06 ff ff f0  	adrp	x6, 0xc000 <_ZN11ChiMetadata21InitializeMetadataOpsEP14ChiMetadataOps+0xfc8>
   29e70: 8e 03 00 14  	b	0x2aca8 <_ZN11ChiMetadata21InitializeMetadataOpsEP14ChiMetadataOps+0x1e90>
   29e74: 6a 00 00 90  	adrp	x10, 0x35000 <_ZN11ChiMetadata21InitializeMetadataOpsEP14ChiMetadataOps+0x108c>
   29e80: 6a 71 30 36  	tbz	w10, #6, 0x2acac <_ZN11ChiMetadata21InitializeMetadataOpsEP14ChiMetadataOps+0x1e94>
   29e84: 6b 00 00 90  	adrp	x11, 0x35000 <_ZN11ChiMetadata21InitializeMetadataOpsEP14ChiMetadataOps+0x109c>
   29e94: 81 02 00 54  	b.ne	0x29ee4 <_ZN11ChiMetadata21InitializeMetadataOpsEP14ChiMetadataOps+0x10cc>
   29e98: 13 ff ff f0  	adrp	x19, 0xc000 <_ZN11ChiMetadata21InitializeMetadataOpsEP14ChiMetadataOps+0x100c>
   29eb4: 21 ff ff b0  	adrp	x1, 0xe000 <_ZN11ChiMetadata21InitializeMetadataOpsEP14ChiMetadataOps+0x1030>
   29eb8: 02 ff ff b0  	adrp	x2, 0xa000 <_ZN11ChiMetadata21InitializeMetadataOpsEP14ChiMetadataOps+0x1024>
   29ebc: 25 ff ff d0  	adrp	x5, 0xf000 <_ZN11ChiMetadata21InitializeMetadataOpsEP14ChiMetadataOps+0x103c>
   29ec0: 26 ff ff d0  	adrp	x6, 0xf000 <_ZN11ChiMetadata21InitializeMetadataOpsEP14ChiMetadataOps+0x1040>
   29ee4: 13 ff ff f0  	adrp	x19, 0xc000 <_ZN11ChiMetadata21InitializeMetadataOpsEP14ChiMetadataOps+0x1058>
   29f00: 01 ff ff b0  	adrp	x1, 0xa000 <_ZN11ChiMetadata21InitializeMetadataOpsEP14ChiMetadataOps+0x106c>
   29f08: 20 ff ff 90  	adrp	x0, 0xd000 <_ZN11ChiMetadata21InitializeMetadataOpsEP14ChiMetadataOps+0x1080>
   29f0c: 23 ff ff d0  	adrp	x3, 0xf000 <_ZN11ChiMetadata21InitializeMetadataOpsEP14ChiMetadataOps+0x108c>
   29f10: 05 ff ff 90  	adrp	x5, 0x9000 <_ZN11ChiMetadata21InitializeMetadataOpsEP14ChiMetadataOps+0x1078>
   29f14: 26 ff ff d0  	adrp	x6, 0xf000 <_ZN11ChiMetadata21InitializeMetadataOpsEP14ChiMetadataOps+0x1094>
   29f30: 5e 03 00 14  	b	0x2aca8 <_ZN11ChiMetadata21InitializeMetadataOpsEP14ChiMetadataOps+0x1e90>
   29f34: 6c 00 00 90  	adrp	x12, 0x35000 <_ZN11ChiMetadata21InitializeMetadataOpsEP14ChiMetadataOps+0x114c>
   29f40: 6b 6b 30 36  	tbz	w11, #6, 0x2acac <_ZN11ChiMetadata21InitializeMetadataOpsEP14ChiMetadataOps+0x1e94>
   29f44: 6d 00 00 90  	adrp	x13, 0x35000 <_ZN11ChiMetadata21InitializeMetadataOpsEP14ChiMetadataOps+0x115c>
   29f54: 81 02 00 54  	b.ne	0x29fa4 <_ZN11ChiMetadata21InitializeMetadataOpsEP14ChiMetadataOps+0x118c>
   29f58: 13 ff ff f0  	adrp	x19, 0xc000 <_ZN11ChiMetadata21InitializeMetadataOpsEP14ChiMetadataOps+0x10cc>
   29f74: 21 ff ff b0  	adrp	x1, 0xe000 <_ZN11ChiMetadata21InitializeMetadataOpsEP14ChiMetadataOps+0x10f0>
   29f78: 02 ff ff b0  	adrp	x2, 0xa000 <_ZN11ChiMetadata21InitializeMetadataOpsEP14ChiMetadataOps+0x10e4>
   29f7c: 25 ff ff d0  	adrp	x5, 0xf000 <_ZN11ChiMetadata21InitializeMetadataOpsEP14ChiMetadataOps+0x10fc>
   29f80: 26 ff ff d0  	adrp	x6, 0xf000 <_ZN11ChiMetadata21InitializeMetadataOpsEP14ChiMetadataOps+0x1100>
   29fa4: 13 ff ff f0  	adrp	x19, 0xc000 <_ZN11ChiMetadata21InitializeMetadataOpsEP14ChiMetadataOps+0x1118>
   29fc0: 01 ff ff b0  	adrp	x1, 0xa000 <_ZN11ChiMetadata21InitializeMetadataOpsEP14ChiMetadataOps+0x112c>
   29fc8: 20 ff ff 90  	adrp	x0, 0xd000 <_ZN11ChiMetadata21InitializeMetadataOpsEP14ChiMetadataOps+0x1140>
   29fcc: 23 ff ff d0  	adrp	x3, 0xf000 <_ZN11ChiMetadata21InitializeMetadataOpsEP14ChiMetadataOps+0x114c>
   29fd0: 05 ff ff 90  	adrp	x5, 0x9000 <_ZN11ChiMetadata21InitializeMetadataOpsEP14ChiMetadataOps+0x1138>
   29fd4: 26 ff ff d0  	adrp	x6, 0xf000 <_ZN11ChiMetadata21InitializeMetadataOpsEP14ChiMetadataOps+0x1154>
   29ff0: 2e 03 00 14  	b	0x2aca8 <_ZN11ChiMetadata21InitializeMetadataOpsEP14ChiMetadataOps+0x1e90>
   29ff4: 6e 00 00 90  	adrp	x14, 0x35000 <_ZN11ChiMetadata21InitializeMetadataOpsEP14ChiMetadataOps+0x120c>
   2a000: 6c 65 30 36  	tbz	w12, #6, 0x2acac <_ZN11ChiMetadata21InitializeMetadataOpsEP14ChiMetadataOps+0x1e94>
   2a004: 4f 00 00 f0  	adrp	x15, 0x35000 <_ZN11ChiMetadata21InitializeMetadataOpsEP14ChiMetadataOps+0x1218>
   2a014: 81 02 00 54  	b.ne	0x2a064 <_ZN11ChiMetadata21InitializeMetadataOpsEP14ChiMetadataOps+0x124c>
   2a018: 13 ff ff d0  	adrp	x19, 0xc000 <_ZN11ChiMetadata21InitializeMetadataOpsEP14ChiMetadataOps+0x1188>
   2a034: 21 ff ff 90  	adrp	x1, 0xe000 <_ZN11ChiMetadata21InitializeMetadataOpsEP14ChiMetadataOps+0x11ac>
   2a038: 02 ff ff 90  	adrp	x2, 0xa000 <_ZN11ChiMetadata21InitializeMetadataOpsEP14ChiMetadataOps+0x11a0>
   2a03c: 25 ff ff b0  	adrp	x5, 0xf000 <_ZN11ChiMetadata21InitializeMetadataOpsEP14ChiMetadataOps+0x11b8>
   2a040: 06 ff ff d0  	adrp	x6, 0xc000 <_ZN11ChiMetadata21InitializeMetadataOpsEP14ChiMetadataOps+0x11b0>
   2a064: 13 ff ff d0  	adrp	x19, 0xc000 <_ZN11ChiMetadata21InitializeMetadataOpsEP14ChiMetadataOps+0x11d4>
   2a080: 01 ff ff 90  	adrp	x1, 0xa000 <_ZN11ChiMetadata21InitializeMetadataOpsEP14ChiMetadataOps+0x11e8>
   2a088: 00 ff ff f0  	adrp	x0, 0xd000 <_ZN11ChiMetadata21InitializeMetadataOpsEP14ChiMetadataOps+0x11fc>
   2a08c: 23 ff ff b0  	adrp	x3, 0xf000 <_ZN11ChiMetadata21InitializeMetadataOpsEP14ChiMetadataOps+0x1208>
   2a090: e5 fe ff f0  	adrp	x5, 0x9000 <_ZN11ChiMetadata21InitializeMetadataOpsEP14ChiMetadataOps+0x11f4>
   2a094: 06 ff ff d0  	adrp	x6, 0xc000 <_ZN11ChiMetadata21InitializeMetadataOpsEP14ChiMetadataOps+0x1204>
   2a0b0: fe 02 00 14  	b	0x2aca8 <_ZN11ChiMetadata21InitializeMetadataOpsEP14ChiMetadataOps+0x1e90>
   2a0b4: 50 00 00 f0  	adrp	x16, 0x35000 <_ZN11ChiMetadata21InitializeMetadataOpsEP14ChiMetadataOps+0x12c8>
   2a0c0: 6d 5f 30 36  	tbz	w13, #6, 0x2acac <_ZN11ChiMetadata21InitializeMetadataOpsEP14ChiMetadataOps+0x1e94>
   2a0c4: 51 00 00 f0  	adrp	x17, 0x35000 <_ZN11ChiMetadata21InitializeMetadataOpsEP14ChiMetadataOps+0x12d8>
   2a0d4: 81 02 00 54  	b.ne	0x2a124 <_ZN11ChiMetadata21InitializeMetadataOpsEP14ChiMetadataOps+0x130c>
   2a0d8: 13 ff ff d0  	adrp	x19, 0xc000 <_ZN11ChiMetadata21InitializeMetadataOpsEP14ChiMetadataOps+0x1248>
   2a0f4: 21 ff ff 90  	adrp	x1, 0xe000 <_ZN11ChiMetadata21InitializeMetadataOpsEP14ChiMetadataOps+0x126c>
   2a0f8: 02 ff ff 90  	adrp	x2, 0xa000 <_ZN11ChiMetadata21InitializeMetadataOpsEP14ChiMetadataOps+0x1260>
   2a0fc: 25 ff ff b0  	adrp	x5, 0xf000 <_ZN11ChiMetadata21InitializeMetadataOpsEP14ChiMetadataOps+0x1278>
   2a100: 06 ff ff b0  	adrp	x6, 0xb000 <_ZN11ChiMetadata21InitializeMetadataOpsEP14ChiMetadataOps+0x126c>
   2a124: 13 ff ff d0  	adrp	x19, 0xc000 <_ZN11ChiMetadata21InitializeMetadataOpsEP14ChiMetadataOps+0x1294>
   2a140: 01 ff ff 90  	adrp	x1, 0xa000 <_ZN11ChiMetadata21InitializeMetadataOpsEP14ChiMetadataOps+0x12a8>
   2a148: 00 ff ff f0  	adrp	x0, 0xd000 <_ZN11ChiMetadata21InitializeMetadataOpsEP14ChiMetadataOps+0x12bc>
   2a14c: 23 ff ff b0  	adrp	x3, 0xf000 <_ZN11ChiMetadata21InitializeMetadataOpsEP14ChiMetadataOps+0x12c8>
   2a150: e5 fe ff f0  	adrp	x5, 0x9000 <_ZN11ChiMetadata21InitializeMetadataOpsEP14ChiMetadataOps+0x12b4>
   2a154: 06 ff ff b0  	adrp	x6, 0xb000 <_ZN11ChiMetadata21InitializeMetadataOpsEP14ChiMetadataOps+0x12c0>
   2a170: ce 02 00 14  	b	0x2aca8 <_ZN11ChiMetadata21InitializeMetadataOpsEP14ChiMetadataOps+0x1e90>
   2a174: 41 00 00 f0  	adrp	x1, 0x35000 <_ZN11ChiMetadata21InitializeMetadataOpsEP14ChiMetadataOps+0x1388>
   2a180: 6e 59 30 36  	tbz	w14, #6, 0x2acac <_ZN11ChiMetadata21InitializeMetadataOpsEP14ChiMetadataOps+0x1e94>
   2a184: 42 00 00 f0  	adrp	x2, 0x35000 <_ZN11ChiMetadata21InitializeMetadataOpsEP14ChiMetadataOps+0x1398>
   2a194: 81 02 00 54  	b.ne	0x2a1e4 <_ZN11ChiMetadata21InitializeMetadataOpsEP14ChiMetadataOps+0x13cc>
   2a198: 13 ff ff d0  	adrp	x19, 0xc000 <_ZN11ChiMetadata21InitializeMetadataOpsEP14ChiMetadataOps+0x1308>
   2a1b4: 21 ff ff 90  	adrp	x1, 0xe000 <_ZN11ChiMetadata21InitializeMetadataOpsEP14ChiMetadataOps+0x132c>
   2a1b8: 02 ff ff 90  	adrp	x2, 0xa000 <_ZN11ChiMetadata21InitializeMetadataOpsEP14ChiMetadataOps+0x1320>
   2a1bc: 25 ff ff b0  	adrp	x5, 0xf000 <_ZN11ChiMetadata21InitializeMetadataOpsEP14ChiMetadataOps+0x1338>
   2a1c0: e6 fe ff f0  	adrp	x6, 0x9000 <_ZN11ChiMetadata21InitializeMetadataOpsEP14ChiMetadataOps+0x1324>
   2a1e4: 13 ff ff d0  	adrp	x19, 0xc000 <_ZN11ChiMetadata21InitializeMetadataOpsEP14ChiMetadataOps+0x1354>
   2a200: 01 ff ff 90  	adrp	x1, 0xa000 <_ZN11ChiMetadata21InitializeMetadataOpsEP14ChiMetadataOps+0x1368>
   2a208: 00 ff ff f0  	adrp	x0, 0xd000 <_ZN11ChiMetadata21InitializeMetadataOpsEP14ChiMetadataOps+0x137c>
   2a20c: 23 ff ff b0  	adrp	x3, 0xf000 <_ZN11ChiMetadata21InitializeMetadataOpsEP14ChiMetadataOps+0x1388>
   2a210: e5 fe ff f0  	adrp	x5, 0x9000 <_ZN11ChiMetadata21InitializeMetadataOpsEP14ChiMetadataOps+0x1374>
   2a214: e6 fe ff f0  	adrp	x6, 0x9000 <_ZN11ChiMetadata21InitializeMetadataOpsEP14ChiMetadataOps+0x1378>
   2a230: 9e 02 00 14  	b	0x2aca8 <_ZN11ChiMetadata21InitializeMetadataOpsEP14ChiMetadataOps+0x1e90>
   2a234: 43 00 00 f0  	adrp	x3, 0x35000 <_ZN11ChiMetadata21InitializeMetadataOpsEP14ChiMetadataOps+0x1448>
   2a240: 6f 53 30 36  	tbz	w15, #6, 0x2acac <_ZN11ChiMetadata21InitializeMetadataOpsEP14ChiMetadataOps+0x1e94>
   2a244: 44 00 00 f0  	adrp	x4, 0x35000 <_ZN11ChiMetadata21InitializeMetadataOpsEP14ChiMetadataOps+0x1458>
   2a254: 81 02 00 54  	b.ne	0x2a2a4 <_ZN11ChiMetadata21InitializeMetadataOpsEP14ChiMetadataOps+0x148c>
   2a258: 13 ff ff d0  	adrp	x19, 0xc000 <_ZN11ChiMetadata21InitializeMetadataOpsEP14ChiMetadataOps+0x13c8>
   2a274: 21 ff ff 90  	adrp	x1, 0xe000 <_ZN11ChiMetadata21InitializeMetadataOpsEP14ChiMetadataOps+0x13ec>
   2a278: 02 ff ff 90  	adrp	x2, 0xa000 <_ZN11ChiMetadata21InitializeMetadataOpsEP14ChiMetadataOps+0x13e0>
   2a27c: 25 ff ff b0  	adrp	x5, 0xf000 <_ZN11ChiMetadata21InitializeMetadataOpsEP14ChiMetadataOps+0x13f8>
   2a280: 06 ff ff d0  	adrp	x6, 0xc000 <_ZN11ChiMetadata21InitializeMetadataOpsEP14ChiMetadataOps+0x13f0>
   2a2a4: 13 ff ff d0  	adrp	x19, 0xc000 <_ZN11ChiMetadata21InitializeMetadataOpsEP14ChiMetadataOps+0x1414>
   2a2c0: 01 ff ff 90  	adrp	x1, 0xa000 <_ZN11ChiMetadata21InitializeMetadataOpsEP14ChiMetadataOps+0x1428>
   2a2c8: 00 ff ff f0  	adrp	x0, 0xd000 <_ZN11ChiMetadata21InitializeMetadataOpsEP14ChiMetadataOps+0x143c>
   2a2cc: 23 ff ff b0  	adrp	x3, 0xf000 <_ZN11ChiMetadata21InitializeMetadataOpsEP14ChiMetadataOps+0x1448>
   2a2d0: e5 fe ff f0  	adrp	x5, 0x9000 <_ZN11ChiMetadata21InitializeMetadataOpsEP14ChiMetadataOps+0x1434>
   2a2d4: 06 ff ff d0  	adrp	x6, 0xc000 <_ZN11ChiMetadata21InitializeMetadataOpsEP14ChiMetadataOps+0x1444>
   2a2f0: 6e 02 00 14  	b	0x2aca8 <_ZN11ChiMetadata21InitializeMetadataOpsEP14ChiMetadataOps+0x1e90>
   2a2f4: 45 00 00 f0  	adrp	x5, 0x35000 <_ZN11ChiMetadata21InitializeMetadataOpsEP14ChiMetadataOps+0x1508>
   2a300: 70 4d 30 36  	tbz	w16, #6, 0x2acac <_ZN11ChiMetadata21InitializeMetadataOpsEP14ChiMetadataOps+0x1e94>
   2a304: 46 00 00 f0  	adrp	x6, 0x35000 <_ZN11ChiMetadata21InitializeMetadataOpsEP14ChiMetadataOps+0x1518>
   2a314: 81 02 00 54  	b.ne	0x2a364 <_ZN11ChiMetadata21InitializeMetadataOpsEP14ChiMetadataOps+0x154c>
   2a318: 13 ff ff d0  	adrp	x19, 0xc000 <_ZN11ChiMetadata21InitializeMetadataOpsEP14ChiMetadataOps+0x1488>
   2a334: 21 ff ff 90  	adrp	x1, 0xe000 <_ZN11ChiMetadata21InitializeMetadataOpsEP14ChiMetadataOps+0x14ac>
   2a338: 02 ff ff 90  	adrp	x2, 0xa000 <_ZN11ChiMetadata21InitializeMetadataOpsEP14ChiMetadataOps+0x14a0>
   2a33c: 25 ff ff b0  	adrp	x5, 0xf000 <_ZN11ChiMetadata21InitializeMetadataOpsEP14ChiMetadataOps+0x14b8>
   2a340: e6 fe ff f0  	adrp	x6, 0x9000 <_ZN11ChiMetadata21InitializeMetadataOpsEP14ChiMetadataOps+0x14a4>
   2a364: 13 ff ff d0  	adrp	x19, 0xc000 <_ZN11ChiMetadata21InitializeMetadataOpsEP14ChiMetadataOps+0x14d4>
   2a380: 01 ff ff 90  	adrp	x1, 0xa000 <_ZN11ChiMetadata21InitializeMetadataOpsEP14ChiMetadataOps+0x14e8>
   2a388: 00 ff ff f0  	adrp	x0, 0xd000 <_ZN11ChiMetadata21InitializeMetadataOpsEP14ChiMetadataOps+0x14fc>
   2a38c: 23 ff ff b0  	adrp	x3, 0xf000 <_ZN11ChiMetadata21InitializeMetadataOpsEP14ChiMetadataOps+0x1508>
   2a390: e5 fe ff f0  	adrp	x5, 0x9000 <_ZN11ChiMetadata21InitializeMetadataOpsEP14ChiMetadataOps+0x14f4>
   2a394: e6 fe ff f0  	adrp	x6, 0x9000 <_ZN11ChiMetadata21InitializeMetadataOpsEP14ChiMetadataOps+0x14f8>
   2a3b0: 3e 02 00 14  	b	0x2aca8 <_ZN11ChiMetadata21InitializeMetadataOpsEP14ChiMetadataOps+0x1e90>
   2a3b4: 47 00 00 f0  	adrp	x7, 0x35000 <_ZN11ChiMetadata21InitializeMetadataOpsEP14ChiMetadataOps+0x15c8>
   2a3c0: 71 47 30 36  	tbz	w17, #6, 0x2acac <_ZN11ChiMetadata21InitializeMetadataOpsEP14ChiMetadataOps+0x1e94>
   2a3c4: 53 00 00 f0  	adrp	x19, 0x35000 <_ZN11ChiMetadata21InitializeMetadataOpsEP14ChiMetadataOps+0x15d8>
   2a3d4: 81 02 00 54  	b.ne	0x2a424 <_ZN11ChiMetadata21InitializeMetadataOpsEP14ChiMetadataOps+0x160c>
   2a3d8: 13 ff ff d0  	adrp	x19, 0xc000 <_ZN11ChiMetadata21InitializeMetadataOpsEP14ChiMetadataOps+0x1548>
   2a3f4: 21 ff ff 90  	adrp	x1, 0xe000 <_ZN11ChiMetadata21InitializeMetadataOpsEP14ChiMetadataOps+0x156c>
   2a3f8: 02 ff ff 90  	adrp	x2, 0xa000 <_ZN11ChiMetadata21InitializeMetadataOpsEP14ChiMetadataOps+0x1560>
   2a3fc: 25 ff ff b0  	adrp	x5, 0xf000 <_ZN11ChiMetadata21InitializeMetadataOpsEP14ChiMetadataOps+0x1578>
   2a400: e6 fe ff f0  	adrp	x6, 0x9000 <_ZN11ChiMetadata21InitializeMetadataOpsEP14ChiMetadataOps+0x1564>
   2a424: 13 ff ff d0  	adrp	x19, 0xc000 <_ZN11ChiMetadata21InitializeMetadataOpsEP14ChiMetadataOps+0x1594>
   2a440: 01 ff ff 90  	adrp	x1, 0xa000 <_ZN11ChiMetadata21InitializeMetadataOpsEP14ChiMetadataOps+0x15a8>
   2a448: 00 ff ff f0  	adrp	x0, 0xd000 <_ZN11ChiMetadata21InitializeMetadataOpsEP14ChiMetadataOps+0x15bc>
   2a44c: 23 ff ff b0  	adrp	x3, 0xf000 <_ZN11ChiMetadata21InitializeMetadataOpsEP14ChiMetadataOps+0x15c8>
   2a450: e5 fe ff f0  	adrp	x5, 0x9000 <_ZN11ChiMetadata21InitializeMetadataOpsEP14ChiMetadataOps+0x15b4>
   2a454: e6 fe ff f0  	adrp	x6, 0x9000 <_ZN11ChiMetadata21InitializeMetadataOpsEP14ChiMetadataOps+0x15b8>
   2a470: 0e 02 00 14  	b	0x2aca8 <_ZN11ChiMetadata21InitializeMetadataOpsEP14ChiMetadataOps+0x1e90>
   2a474: 40 00 00 f0  	adrp	x0, 0x35000 <_ZN11ChiMetadata21InitializeMetadataOpsEP14ChiMetadataOps+0x1688>
   2a480: 62 41 30 36  	tbz	w2, #6, 0x2acac <_ZN11ChiMetadata21InitializeMetadataOpsEP14ChiMetadataOps+0x1e94>
   2a484: 48 00 00 f0  	adrp	x8, 0x35000 <_ZN11ChiMetadata21InitializeMetadataOpsEP14ChiMetadataOps+0x1698>
   2a494: 81 02 00 54  	b.ne	0x2a4e4 <_ZN11ChiMetadata21InitializeMetadataOpsEP14ChiMetadataOps+0x16cc>
   2a498: 13 ff ff d0  	adrp	x19, 0xc000 <_ZN11ChiMetadata21InitializeMetadataOpsEP14ChiMetadataOps+0x1608>
   2a4b4: 21 ff ff 90  	adrp	x1, 0xe000 <_ZN11ChiMetadata21InitializeMetadataOpsEP14ChiMetadataOps+0x162c>
   2a4b8: 02 ff ff 90  	adrp	x2, 0xa000 <_ZN11ChiMetadata21InitializeMetadataOpsEP14ChiMetadataOps+0x1620>
   2a4bc: 25 ff ff b0  	adrp	x5, 0xf000 <_ZN11ChiMetadata21InitializeMetadataOpsEP14ChiMetadataOps+0x1638>
   2a4c0: e6 fe ff f0  	adrp	x6, 0x9000 <_ZN11ChiMetadata21InitializeMetadataOpsEP14ChiMetadataOps+0x1624>
   2a4e4: 13 ff ff d0  	adrp	x19, 0xc000 <_ZN11ChiMetadata21InitializeMetadataOpsEP14ChiMetadataOps+0x1654>
   2a500: 01 ff ff 90  	adrp	x1, 0xa000 <_ZN11ChiMetadata21InitializeMetadataOpsEP14ChiMetadataOps+0x1668>
   2a508: 00 ff ff f0  	adrp	x0, 0xd000 <_ZN11ChiMetadata21InitializeMetadataOpsEP14ChiMetadataOps+0x167c>
   2a50c: 23 ff ff b0  	adrp	x3, 0xf000 <_ZN11ChiMetadata21InitializeMetadataOpsEP14ChiMetadataOps+0x1688>
   2a510: e5 fe ff f0  	adrp	x5, 0x9000 <_ZN11ChiMetadata21InitializeMetadataOpsEP14ChiMetadataOps+0x1674>
   2a514: e6 fe ff f0  	adrp	x6, 0x9000 <_ZN11ChiMetadata21InitializeMetadataOpsEP14ChiMetadataOps+0x1678>
   2a530: de 01 00 14  	b	0x2aca8 <_ZN11ChiMetadata21InitializeMetadataOpsEP14ChiMetadataOps+0x1e90>
   2a534: 49 00 00 f0  	adrp	x9, 0x35000 <_ZN11ChiMetadata21InitializeMetadataOpsEP14ChiMetadataOps+0x1748>
   2a540: 63 3b 30 36  	tbz	w3, #6, 0x2acac <_ZN11ChiMetadata21InitializeMetadataOpsEP14ChiMetadataOps+0x1e94>
   2a544: 4a 00 00 f0  	adrp	x10, 0x35000 <_ZN11ChiMetadata21InitializeMetadataOpsEP14ChiMetadataOps+0x1758>
   2a554: 81 02 00 54  	b.ne	0x2a5a4 <_ZN11ChiMetadata21InitializeMetadataOpsEP14ChiMetadataOps+0x178c>
   2a558: 13 ff ff d0  	adrp	x19, 0xc000 <_ZN11ChiMetadata21InitializeMetadataOpsEP14ChiMetadataOps+0x16c8>
   2a574: 21 ff ff 90  	adrp	x1, 0xe000 <_ZN11ChiMetadata21InitializeMetadataOpsEP14ChiMetadataOps+0x16ec>
   2a578: 02 ff ff 90  	adrp	x2, 0xa000 <_ZN11ChiMetadata21InitializeMetadataOpsEP14ChiMetadataOps+0x16e0>
   2a57c: 25 ff ff b0  	adrp	x5, 0xf000 <_ZN11ChiMetadata21InitializeMetadataOpsEP14ChiMetadataOps+0x16f8>
   2a580: e6 fe ff f0  	adrp	x6, 0x9000 <_ZN11ChiMetadata21InitializeMetadataOpsEP14ChiMetadataOps+0x16e4>
   2a5a4: 13 ff ff d0  	adrp	x19, 0xc000 <_ZN11ChiMetadata21InitializeMetadataOpsEP14ChiMetadataOps+0x1714>
   2a5c0: 01 ff ff 90  	adrp	x1, 0xa000 <_ZN11ChiMetadata21InitializeMetadataOpsEP14ChiMetadataOps+0x1728>
   2a5c8: 00 ff ff f0  	adrp	x0, 0xd000 <_ZN11ChiMetadata21InitializeMetadataOpsEP14ChiMetadataOps+0x173c>
   2a5cc: 23 ff ff b0  	adrp	x3, 0xf000 <_ZN11ChiMetadata21InitializeMetadataOpsEP14ChiMetadataOps+0x1748>
   2a5d0: e5 fe ff f0  	adrp	x5, 0x9000 <_ZN11ChiMetadata21InitializeMetadataOpsEP14ChiMetadataOps+0x1734>
   2a5d4: e6 fe ff f0  	adrp	x6, 0x9000 <_ZN11ChiMetadata21InitializeMetadataOpsEP14ChiMetadataOps+0x1738>
   2a5f0: ae 01 00 14  	b	0x2aca8 <_ZN11ChiMetadata21InitializeMetadataOpsEP14ChiMetadataOps+0x1e90>
   2a5f4: 4b 00 00 f0  	adrp	x11, 0x35000 <_ZN11ChiMetadata21InitializeMetadataOpsEP14ChiMetadataOps+0x1808>
   2a600: 65 35 30 36  	tbz	w5, #6, 0x2acac <_ZN11ChiMetadata21InitializeMetadataOpsEP14ChiMetadataOps+0x1e94>
   2a604: 4c 00 00 f0  	adrp	x12, 0x35000 <_ZN11ChiMetadata21InitializeMetadataOpsEP14ChiMetadataOps+0x1818>
   2a614: 81 02 00 54  	b.ne	0x2a664 <_ZN11ChiMetadata21InitializeMetadataOpsEP14ChiMetadataOps+0x184c>
   2a618: 13 ff ff d0  	adrp	x19, 0xc000 <_ZN11ChiMetadata21InitializeMetadataOpsEP14ChiMetadataOps+0x1788>
   2a634: 21 ff ff 90  	adrp	x1, 0xe000 <_ZN11ChiMetadata21InitializeMetadataOpsEP14ChiMetadataOps+0x17ac>
   2a638: 02 ff ff 90  	adrp	x2, 0xa000 <_ZN11ChiMetadata21InitializeMetadataOpsEP14ChiMetadataOps+0x17a0>
   2a63c: 25 ff ff b0  	adrp	x5, 0xf000 <_ZN11ChiMetadata21InitializeMetadataOpsEP14ChiMetadataOps+0x17b8>
   2a640: 26 ff ff 90  	adrp	x6, 0xe000 <_ZN11ChiMetadata21InitializeMetadataOpsEP14ChiMetadataOps+0x17b8>
   2a664: 13 ff ff d0  	adrp	x19, 0xc000 <_ZN11ChiMetadata21InitializeMetadataOpsEP14ChiMetadataOps+0x17d4>
   2a680: 01 ff ff 90  	adrp	x1, 0xa000 <_ZN11ChiMetadata21InitializeMetadataOpsEP14ChiMetadataOps+0x17e8>
   2a688: 00 ff ff f0  	adrp	x0, 0xd000 <_ZN11ChiMetadata21InitializeMetadataOpsEP14ChiMetadataOps+0x17fc>
   2a68c: 23 ff ff b0  	adrp	x3, 0xf000 <_ZN11ChiMetadata21InitializeMetadataOpsEP14ChiMetadataOps+0x1808>
   2a690: e5 fe ff f0  	adrp	x5, 0x9000 <_ZN11ChiMetadata21InitializeMetadataOpsEP14ChiMetadataOps+0x17f4>
   2a694: 26 ff ff 90  	adrp	x6, 0xe000 <_ZN11ChiMetadata21InitializeMetadataOpsEP14ChiMetadataOps+0x180c>
   2a6b0: 7e 01 00 14  	b	0x2aca8 <_ZN11ChiMetadata21InitializeMetadataOpsEP14ChiMetadataOps+0x1e90>
   2a6b4: 4d 00 00 f0  	adrp	x13, 0x35000 <_ZN11ChiMetadata21InitializeMetadataOpsEP14ChiMetadataOps+0x18c8>
   2a6c0: 66 2f 30 36  	tbz	w6, #6, 0x2acac <_ZN11ChiMetadata21InitializeMetadataOpsEP14ChiMetadataOps+0x1e94>
   2a6c4: 4e 00 00 f0  	adrp	x14, 0x35000 <_ZN11ChiMetadata21InitializeMetadataOpsEP14ChiMetadataOps+0x18d8>
   2a6d4: 81 02 00 54  	b.ne	0x2a724 <_ZN11ChiMetadata21InitializeMetadataOpsEP14ChiMetadataOps+0x190c>
   2a6d8: 13 ff ff d0  	adrp	x19, 0xc000 <_ZN11ChiMetadata21InitializeMetadataOpsEP14ChiMetadataOps+0x1848>
   2a6f4: 21 ff ff 90  	adrp	x1, 0xe000 <_ZN11ChiMetadata21InitializeMetadataOpsEP14ChiMetadataOps+0x186c>
   2a6f8: 02 ff ff 90  	adrp	x2, 0xa000 <_ZN11ChiMetadata21InitializeMetadataOpsEP14ChiMetadataOps+0x1860>
   2a6fc: 25 ff ff b0  	adrp	x5, 0xf000 <_ZN11ChiMetadata21InitializeMetadataOpsEP14ChiMetadataOps+0x1878>
   2a700: 06 ff ff 90  	adrp	x6, 0xa000 <_ZN11ChiMetadata21InitializeMetadataOpsEP14ChiMetadataOps+0x1868>
   2a724: 13 ff ff d0  	adrp	x19, 0xc000 <_ZN11ChiMetadata21InitializeMetadataOpsEP14ChiMetadataOps+0x1894>
   2a740: 01 ff ff 90  	adrp	x1, 0xa000 <_ZN11ChiMetadata21InitializeMetadataOpsEP14ChiMetadataOps+0x18a8>
   2a748: 00 ff ff f0  	adrp	x0, 0xd000 <_ZN11ChiMetadata21InitializeMetadataOpsEP14ChiMetadataOps+0x18bc>
   2a74c: 23 ff ff b0  	adrp	x3, 0xf000 <_ZN11ChiMetadata21InitializeMetadataOpsEP14ChiMetadataOps+0x18c8>
   2a750: e5 fe ff f0  	adrp	x5, 0x9000 <_ZN11ChiMetadata21InitializeMetadataOpsEP14ChiMetadataOps+0x18b4>
   2a754: 06 ff ff 90  	adrp	x6, 0xa000 <_ZN11ChiMetadata21InitializeMetadataOpsEP14ChiMetadataOps+0x18bc>
   2a770: 4e 01 00 14  	b	0x2aca8 <_ZN11ChiMetadata21InitializeMetadataOpsEP14ChiMetadataOps+0x1e90>
   2a774: 4f 00 00 f0  	adrp	x15, 0x35000 <_ZN11ChiMetadata21InitializeMetadataOpsEP14ChiMetadataOps+0x1988>
   2a780: 67 29 30 36  	tbz	w7, #6, 0x2acac <_ZN11ChiMetadata21InitializeMetadataOpsEP14ChiMetadataOps+0x1e94>
   2a784: 50 00 00 f0  	adrp	x16, 0x35000 <_ZN11ChiMetadata21InitializeMetadataOpsEP14ChiMetadataOps+0x1998>
   2a794: 81 02 00 54  	b.ne	0x2a7e4 <_ZN11ChiMetadata21InitializeMetadataOpsEP14ChiMetadataOps+0x19cc>
   2a798: 13 ff ff d0  	adrp	x19, 0xc000 <_ZN11ChiMetadata21InitializeMetadataOpsEP14ChiMetadataOps+0x1908>
   2a7b4: 21 ff ff 90  	adrp	x1, 0xe000 <_ZN11ChiMetadata21InitializeMetadataOpsEP14ChiMetadataOps+0x192c>
   2a7b8: 02 ff ff 90  	adrp	x2, 0xa000 <_ZN11ChiMetadata21InitializeMetadataOpsEP14ChiMetadataOps+0x1920>
   2a7bc: 25 ff ff b0  	adrp	x5, 0xf000 <_ZN11ChiMetadata21InitializeMetadataOpsEP14ChiMetadataOps+0x1938>
   2a7c0: e6 fe ff f0  	adrp	x6, 0x9000 <_ZN11ChiMetadata21InitializeMetadataOpsEP14ChiMetadataOps+0x1924>
   2a7e4: 13 ff ff d0  	adrp	x19, 0xc000 <_ZN11ChiMetadata21InitializeMetadataOpsEP14ChiMetadataOps+0x1954>
   2a800: 01 ff ff 90  	adrp	x1, 0xa000 <_ZN11ChiMetadata21InitializeMetadataOpsEP14ChiMetadataOps+0x1968>
   2a808: 00 ff ff f0  	adrp	x0, 0xd000 <_ZN11ChiMetadata21InitializeMetadataOpsEP14ChiMetadataOps+0x197c>
   2a80c: 23 ff ff b0  	adrp	x3, 0xf000 <_ZN11ChiMetadata21InitializeMetadataOpsEP14ChiMetadataOps+0x1988>
   2a810: e5 fe ff f0  	adrp	x5, 0x9000 <_ZN11ChiMetadata21InitializeMetadataOpsEP14ChiMetadataOps+0x1974>
   2a814: e6 fe ff f0  	adrp	x6, 0x9000 <_ZN11ChiMetadata21InitializeMetadataOpsEP14ChiMetadataOps+0x1978>
   2a830: 1e 01 00 14  	b	0x2aca8 <_ZN11ChiMetadata21InitializeMetadataOpsEP14ChiMetadataOps+0x1e90>
   2a834: 51 00 00 f0  	adrp	x17, 0x35000 <_ZN11ChiMetadata21InitializeMetadataOpsEP14ChiMetadataOps+0x1a48>
   2a840: 60 23 30 36  	tbz	w0, #6, 0x2acac <_ZN11ChiMetadata21InitializeMetadataOpsEP14ChiMetadataOps+0x1e94>
   2a844: 41 00 00 f0  	adrp	x1, 0x35000 <_ZN11ChiMetadata21InitializeMetadataOpsEP14ChiMetadataOps+0x1a58>
   2a854: 81 02 00 54  	b.ne	0x2a8a4 <_ZN11ChiMetadata21InitializeMetadataOpsEP14ChiMetadataOps+0x1a8c>
   2a858: 13 ff ff d0  	adrp	x19, 0xc000 <_ZN11ChiMetadata21InitializeMetadataOpsEP14ChiMetadataOps+0x19c8>
   2a874: 21 ff ff 90  	adrp	x1, 0xe000 <_ZN11ChiMetadata21InitializeMetadataOpsEP14ChiMetadataOps+0x19ec>
   2a878: 02 ff ff 90  	adrp	x2, 0xa000 <_ZN11ChiMetadata21InitializeMetadataOpsEP14ChiMetadataOps+0x19e0>
   2a87c: 25 ff ff b0  	adrp	x5, 0xf000 <_ZN11ChiMetadata21InitializeMetadataOpsEP14ChiMetadataOps+0x19f8>
   2a880: 06 ff ff 90  	adrp	x6, 0xa000 <_ZN11ChiMetadata21InitializeMetadataOpsEP14ChiMetadataOps+0x19e8>
   2a8a4: 13 ff ff d0  	adrp	x19, 0xc000 <_ZN11ChiMetadata21InitializeMetadataOpsEP14ChiMetadataOps+0x1a14>
   2a8c0: 01 ff ff 90  	adrp	x1, 0xa000 <_ZN11ChiMetadata21InitializeMetadataOpsEP14ChiMetadataOps+0x1a28>
   2a8c8: 00 ff ff f0  	adrp	x0, 0xd000 <_ZN11ChiMetadata21InitializeMetadataOpsEP14ChiMetadataOps+0x1a3c>
   2a8cc: 23 ff ff b0  	adrp	x3, 0xf000 <_ZN11ChiMetadata21InitializeMetadataOpsEP14ChiMetadataOps+0x1a48>
   2a8d0: e5 fe ff f0  	adrp	x5, 0x9000 <_ZN11ChiMetadata21InitializeMetadataOpsEP14ChiMetadataOps+0x1a34>
   2a8d4: 06 ff ff 90  	adrp	x6, 0xa000 <_ZN11ChiMetadata21InitializeMetadataOpsEP14ChiMetadataOps+0x1a3c>
   2a8f0: ee 00 00 14  	b	0x2aca8 <_ZN11ChiMetadata21InitializeMetadataOpsEP14ChiMetadataOps+0x1e90>
   2a8f4: 42 00 00 f0  	adrp	x2, 0x35000 <_ZN11ChiMetadata21InitializeMetadataOpsEP14ChiMetadataOps+0x1b08>
   2a900: 61 1d 30 36  	tbz	w1, #6, 0x2acac <_ZN11ChiMetadata21InitializeMetadataOpsEP14ChiMetadataOps+0x1e94>
   2a904: 43 00 00 f0  	adrp	x3, 0x35000 <_ZN11ChiMetadata21InitializeMetadataOpsEP14ChiMetadataOps+0x1b18>
   2a914: 81 02 00 54  	b.ne	0x2a964 <_ZN11ChiMetadata21InitializeMetadataOpsEP14ChiMetadataOps+0x1b4c>
   2a918: 13 ff ff d0  	adrp	x19, 0xc000 <_ZN11ChiMetadata21InitializeMetadataOpsEP14ChiMetadataOps+0x1a88>
   2a934: 21 ff ff 90  	adrp	x1, 0xe000 <_ZN11ChiMetadata21InitializeMetadataOpsEP14ChiMetadataOps+0x1aac>
   2a938: 02 ff ff 90  	adrp	x2, 0xa000 <_ZN11ChiMetadata21InitializeMetadataOpsEP14ChiMetadataOps+0x1aa0>
   2a93c: 25 ff ff b0  	adrp	x5, 0xf000 <_ZN11ChiMetadata21InitializeMetadataOpsEP14ChiMetadataOps+0x1ab8>
   2a940: 06 ff ff f0  	adrp	x6, 0xd000 <_ZN11ChiMetadata21InitializeMetadataOpsEP14ChiMetadataOps+0x1ab4>
   2a964: 13 ff ff d0  	adrp	x19, 0xc000 <_ZN11ChiMetadata21InitializeMetadataOpsEP14ChiMetadataOps+0x1ad4>
   2a980: 01 ff ff 90  	adrp	x1, 0xa000 <_ZN11ChiMetadata21InitializeMetadataOpsEP14ChiMetadataOps+0x1ae8>
   2a988: 00 ff ff f0  	adrp	x0, 0xd000 <_ZN11ChiMetadata21InitializeMetadataOpsEP14ChiMetadataOps+0x1afc>
   2a98c: 23 ff ff b0  	adrp	x3, 0xf000 <_ZN11ChiMetadata21InitializeMetadataOpsEP14ChiMetadataOps+0x1b08>
   2a990: e5 fe ff f0  	adrp	x5, 0x9000 <_ZN11ChiMetadata21InitializeMetadataOpsEP14ChiMetadataOps+0x1af4>
   2a994: 06 ff ff f0  	adrp	x6, 0xd000 <_ZN11ChiMetadata21InitializeMetadataOpsEP14ChiMetadataOps+0x1b08>
   2a9b0: be 00 00 14  	b	0x2aca8 <_ZN11ChiMetadata21InitializeMetadataOpsEP14ChiMetadataOps+0x1e90>
   2a9b4: 44 00 00 f0  	adrp	x4, 0x35000 <_ZN11ChiMetadata21InitializeMetadataOpsEP14ChiMetadataOps+0x1bc8>
   2a9c0: 64 17 30 36  	tbz	w4, #6, 0x2acac <_ZN11ChiMetadata21InitializeMetadataOpsEP14ChiMetadataOps+0x1e94>
   2a9c4: 45 00 00 f0  	adrp	x5, 0x35000 <_ZN11ChiMetadata21InitializeMetadataOpsEP14ChiMetadataOps+0x1bd8>
   2a9d4: 81 02 00 54  	b.ne	0x2aa24 <_ZN11ChiMetadata21InitializeMetadataOpsEP14ChiMetadataOps+0x1c0c>
   2a9d8: 13 ff ff d0  	adrp	x19, 0xc000 <_ZN11ChiMetadata21InitializeMetadataOpsEP14ChiMetadataOps+0x1b48>
   2a9f4: 21 ff ff 90  	adrp	x1, 0xe000 <_ZN11ChiMetadata21InitializeMetadataOpsEP14ChiMetadataOps+0x1b6c>
   2a9f8: 02 ff ff 90  	adrp	x2, 0xa000 <_ZN11ChiMetadata21InitializeMetadataOpsEP14ChiMetadataOps+0x1b60>
   2a9fc: 25 ff ff b0  	adrp	x5, 0xf000 <_ZN11ChiMetadata21InitializeMetadataOpsEP14ChiMetadataOps+0x1b78>
   2aa00: 26 ff ff 90  	adrp	x6, 0xe000 <_ZN11ChiMetadata21InitializeMetadataOpsEP14ChiMetadataOps+0x1b78>
   2aa24: 13 ff ff d0  	adrp	x19, 0xc000 <_ZN11ChiMetadata21InitializeMetadataOpsEP14ChiMetadataOps+0x1b94>
   2aa40: 01 ff ff 90  	adrp	x1, 0xa000 <_ZN11ChiMetadata21InitializeMetadataOpsEP14ChiMetadataOps+0x1ba8>
   2aa48: 00 ff ff f0  	adrp	x0, 0xd000 <_ZN11ChiMetadata21InitializeMetadataOpsEP14ChiMetadataOps+0x1bbc>
   2aa4c: 23 ff ff b0  	adrp	x3, 0xf000 <_ZN11ChiMetadata21InitializeMetadataOpsEP14ChiMetadataOps+0x1bc8>
   2aa50: e5 fe ff f0  	adrp	x5, 0x9000 <_ZN11ChiMetadata21InitializeMetadataOpsEP14ChiMetadataOps+0x1bb4>
   2aa54: 26 ff ff 90  	adrp	x6, 0xe000 <_ZN11ChiMetadata21InitializeMetadataOpsEP14ChiMetadataOps+0x1bcc>
   2aa70: 8e 00 00 14  	b	0x2aca8 <_ZN11ChiMetadata21InitializeMetadataOpsEP14ChiMetadataOps+0x1e90>
   2aa74: 46 00 00 f0  	adrp	x6, 0x35000 <_ZN11ChiMetadata21InitializeMetadataOpsEP14ChiMetadataOps+0x1c88>
   2aa80: 68 11 30 36  	tbz	w8, #6, 0x2acac <_ZN11ChiMetadata21InitializeMetadataOpsEP14ChiMetadataOps+0x1e94>
   2aa84: 47 00 00 f0  	adrp	x7, 0x35000 <_ZN11ChiMetadata21InitializeMetadataOpsEP14ChiMetadataOps+0x1c98>
   2aa94: 81 02 00 54  	b.ne	0x2aae4 <_ZN11ChiMetadata21InitializeMetadataOpsEP14ChiMetadataOps+0x1ccc>
   2aa98: 13 ff ff d0  	adrp	x19, 0xc000 <_ZN11ChiMetadata21InitializeMetadataOpsEP14ChiMetadataOps+0x1c08>
   2aab4: 21 ff ff 90  	adrp	x1, 0xe000 <_ZN11ChiMetadata21InitializeMetadataOpsEP14ChiMetadataOps+0x1c2c>
   2aab8: 02 ff ff 90  	adrp	x2, 0xa000 <_ZN11ChiMetadata21InitializeMetadataOpsEP14ChiMetadataOps+0x1c20>
   2aabc: 25 ff ff b0  	adrp	x5, 0xf000 <_ZN11ChiMetadata21InitializeMetadataOpsEP14ChiMetadataOps+0x1c38>
   2aac0: 06 ff ff b0  	adrp	x6, 0xb000 <_ZN11ChiMetadata21InitializeMetadataOpsEP14ChiMetadataOps+0x1c2c>
   2aae4: 13 ff ff d0  	adrp	x19, 0xc000 <_ZN11ChiMetadata21InitializeMetadataOpsEP14ChiMetadataOps+0x1c54>
   2ab00: 01 ff ff 90  	adrp	x1, 0xa000 <_ZN11ChiMetadata21InitializeMetadataOpsEP14ChiMetadataOps+0x1c68>
   2ab08: 00 ff ff f0  	adrp	x0, 0xd000 <_ZN11ChiMetadata21InitializeMetadataOpsEP14ChiMetadataOps+0x1c7c>
   2ab0c: 23 ff ff b0  	adrp	x3, 0xf000 <_ZN11ChiMetadata21InitializeMetadataOpsEP14ChiMetadataOps+0x1c88>
   2ab10: e5 fe ff f0  	adrp	x5, 0x9000 <_ZN11ChiMetadata21InitializeMetadataOpsEP14ChiMetadataOps+0x1c74>
   2ab14: 06 ff ff b0  	adrp	x6, 0xb000 <_ZN11ChiMetadata21InitializeMetadataOpsEP14ChiMetadataOps+0x1c80>
   2ab30: 5e 00 00 14  	b	0x2aca8 <_ZN11ChiMetadata21InitializeMetadataOpsEP14ChiMetadataOps+0x1e90>
   2ab34: 53 00 00 f0  	adrp	x19, 0x35000 <_ZN11ChiMetadata21InitializeMetadataOpsEP14ChiMetadataOps+0x1d48>
   2ab40: 69 0b 30 36  	tbz	w9, #6, 0x2acac <_ZN11ChiMetadata21InitializeMetadataOpsEP14ChiMetadataOps+0x1e94>
   2ab44: 40 00 00 f0  	adrp	x0, 0x35000 <_ZN11ChiMetadata21InitializeMetadataOpsEP14ChiMetadataOps+0x1d58>
   2ab54: 81 02 00 54  	b.ne	0x2aba4 <_ZN11ChiMetadata21InitializeMetadataOpsEP14ChiMetadataOps+0x1d8c>
   2ab58: 13 ff ff d0  	adrp	x19, 0xc000 <_ZN11ChiMetadata21InitializeMetadataOpsEP14ChiMetadataOps+0x1cc8>
   2ab74: 21 ff ff 90  	adrp	x1, 0xe000 <_ZN11ChiMetadata21InitializeMetadataOpsEP14ChiMetadataOps+0x1cec>
   2ab78: 02 ff ff 90  	adrp	x2, 0xa000 <_ZN11ChiMetadata21InitializeMetadataOpsEP14ChiMetadataOps+0x1ce0>
   2ab7c: 25 ff ff b0  	adrp	x5, 0xf000 <_ZN11ChiMetadata21InitializeMetadataOpsEP14ChiMetadataOps+0x1cf8>
   2ab80: 06 ff ff d0  	adrp	x6, 0xc000 <_ZN11ChiMetadata21InitializeMetadataOpsEP14ChiMetadataOps+0x1cf0>
   2aba4: 13 ff ff d0  	adrp	x19, 0xc000 <_ZN11ChiMetadata21InitializeMetadataOpsEP14ChiMetadataOps+0x1d14>
   2abc0: 01 ff ff 90  	adrp	x1, 0xa000 <_ZN11ChiMetadata21InitializeMetadataOpsEP14ChiMetadataOps+0x1d28>
   2abc8: 00 ff ff f0  	adrp	x0, 0xd000 <_ZN11ChiMetadata21InitializeMetadataOpsEP14ChiMetadataOps+0x1d3c>
   2abcc: 23 ff ff b0  	adrp	x3, 0xf000 <_ZN11ChiMetadata21InitializeMetadataOpsEP14ChiMetadataOps+0x1d48>
   2abd0: e5 fe ff f0  	adrp	x5, 0x9000 <_ZN11ChiMetadata21InitializeMetadataOpsEP14ChiMetadataOps+0x1d34>
   2abd4: 06 ff ff d0  	adrp	x6, 0xc000 <_ZN11ChiMetadata21InitializeMetadataOpsEP14ChiMetadataOps+0x1d44>
   2abf0: 2e 00 00 14  	b	0x2aca8 <_ZN11ChiMetadata21InitializeMetadataOpsEP14ChiMetadataOps+0x1e90>
   2abf4: 48 00 00 f0  	adrp	x8, 0x35000 <_ZN11ChiMetadata21InitializeMetadataOpsEP14ChiMetadataOps+0x1e08>
   2ac00: 6a 05 30 36  	tbz	w10, #6, 0x2acac <_ZN11ChiMetadata21InitializeMetadataOpsEP14ChiMetadataOps+0x1e94>
   2ac04: 49 00 00 f0  	adrp	x9, 0x35000 <_ZN11ChiMetadata21InitializeMetadataOpsEP14ChiMetadataOps+0x1e18>
   2ac08: 13 ff ff d0  	adrp	x19, 0xc000 <_ZN11ChiMetadata21InitializeMetadataOpsEP14ChiMetadataOps+0x1d78>
   2ac1c: 41 02 00 54  	b.ne	0x2ac64 <_ZN11ChiMetadata21InitializeMetadataOpsEP14ChiMetadataOps+0x1e4c>
   2ac34: 21 ff ff 90  	adrp	x1, 0xe000 <_ZN11ChiMetadata21InitializeMetadataOpsEP14ChiMetadataOps+0x1dac>
   2ac38: 02 ff ff 90  	adrp	x2, 0xa000 <_ZN11ChiMetadata21InitializeMetadataOpsEP14ChiMetadataOps+0x1da0>
   2ac3c: 25 ff ff b0  	adrp	x5, 0xf000 <_ZN11ChiMetadata21InitializeMetadataOpsEP14ChiMetadataOps+0x1db8>
   2ac40: e6 fe ff f0  	adrp	x6, 0x9000 <_ZN11ChiMetadata21InitializeMetadataOpsEP14ChiMetadataOps+0x1da4>
   2ac78: 01 ff ff 90  	adrp	x1, 0xa000 <_ZN11ChiMetadata21InitializeMetadataOpsEP14ChiMetadataOps+0x1de0>
   2ac80: 00 ff ff f0  	adrp	x0, 0xd000 <_ZN11ChiMetadata21InitializeMetadataOpsEP14ChiMetadataOps+0x1df4>
   2ac84: 23 ff ff b0  	adrp	x3, 0xf000 <_ZN11ChiMetadata21InitializeMetadataOpsEP14ChiMetadataOps+0x1e00>
   2ac88: e5 fe ff f0  	adrp	x5, 0x9000 <_ZN11ChiMetadata21InitializeMetadataOpsEP14ChiMetadataOps+0x1dec>
   2ac8c: e6 fe ff f0  	adrp	x6, 0x9000 <_ZN11ChiMetadata21InitializeMetadataOpsEP14ChiMetadataOps+0x1df0>
   2aca8: fe 24 00 94  	bl	0x340a0 <_ZN6ChiLog9LogSystemEPKcS1_S1_S1_iS1_z@plt>
000000000002acc0 <_ZN11ChiMetadata10InitializeEPKjji>:
   2acfc: a1 00 00 54  	b.ne	0x2ad10 <_ZN11ChiMetadata10InitializeEPKjji+0x50>
   2ad08: 55 05 00 b5  	cbnz	x21, 0x2adb0 <_ZN11ChiMetadata10InitializeEPKjji+0xf0>
   2ad0c: 32 00 00 14  	b	0x2add4 <_ZN11ChiMetadata10InitializeEPKjji+0x114>
   2ad10: 9c 25 00 94  	bl	0x34380 <_ZN15ExtensionModule11GetInstanceEv@plt>
   2ad1c: 40 04 00 54  	b.eq	0x2ada4 <_ZN11ChiMetadata10InitializeEPKjji+0xe4>
   2ad38: 41 02 00 54  	b.ne	0x2ad80 <_ZN11ChiMetadata10InitializeEPKjji+0xc0>
   2ad40: 41 02 00 54  	b.ne	0x2ad88 <_ZN11ChiMetadata10InitializeEPKjji+0xc8>
   2ad50: c1 01 00 54  	b.ne	0x2ad88 <_ZN11ChiMetadata10InitializeEPKjji+0xc8>
   2ad64: e0 fc ff 54  	b.eq	0x2ad00 <_ZN11ChiMetadata10InitializeEPKjji+0x40>
   2ad78: d5 01 00 b5  	cbnz	x21, 0x2adb0 <_ZN11ChiMetadata10InitializeEPKjji+0xf0>
   2ad7c: 16 00 00 14  	b	0x2add4 <_ZN11ChiMetadata10InitializeEPKjji+0x114>
   2ad84: 01 01 00 54  	b.ne	0x2ada4 <_ZN11ChiMetadata10InitializeEPKjji+0xe4>
   2ad9c: b5 00 00 b5  	cbnz	x21, 0x2adb0 <_ZN11ChiMetadata10InitializeEPKjji+0xf0>
   2ada0: 0d 00 00 14  	b	0x2add4 <_ZN11ChiMetadata10InitializeEPKjji+0x114>
   2adac: 55 01 00 b4  	cbz	x21, 0x2add4 <_ZN11ChiMetadata10InitializeEPKjji+0x114>
   2adb0: 34 01 00 34  	cbz	w20, 0x2add4 <_ZN11ChiMetadata10InitializeEPKjji+0x114>
   2add0: 06 00 00 14  	b	0x2ade8 <_ZN11ChiMetadata10InitializeEPKjji+0x128>
   2ae1c: c1 00 00 54  	b.ne	0x2ae34 <_ZN11ChiMetadata10InitializeEPKjji+0x174>
000000000002ae38 <_ZN11ChiMetadata16ReadDataFromFileEPKcRNSt3__16vectorIhNS2_9allocatorIhEEEE>:
   2ae58: 01 ff ff b0  	adrp	x1, 0xb000 <_ZN11ChiMetadata10InitializeEPKjji+0x11c>
   2ae68: c0 05 00 b4  	cbz	x0, 0x2af20 <_ZN11ChiMetadata16ReadDataFromFileEPKcRNSt3__16vectorIhNS2_9allocatorIhEEEE+0xe8>
   2ae9c: 8b 13 00 54  	b.lt	0x2b10c <_ZN11ChiMetadata16ReadDataFromFileEPKcRNSt3__16vectorIhNS2_9allocatorIhEEEE+0x2d4>
   2aeb0: 89 09 00 54  	b.ls	0x2afe0 <_ZN11ChiMetadata16ReadDataFromFileEPKcRNSt3__16vectorIhNS2_9allocatorIhEEEE+0x1a8>
   2aec0: 22 02 00 54  	b.hs	0x2af04 <_ZN11ChiMetadata16ReadDataFromFileEPKcRNSt3__16vectorIhNS2_9allocatorIhEEEE+0xcc>
   2aec8: 88 13 f8 b7  	tbnz	x8, #63, 0x2b138 <_ZN11ChiMetadata16ReadDataFromFileEPKcRNSt3__16vectorIhNS2_9allocatorIhEEEE+0x300>
   2aeec: 3a 08 00 b4  	cbz	x26, 0x2aff0 <_ZN11ChiMetadata16ReadDataFromFileEPKcRNSt3__16vectorIhNS2_9allocatorIhEEEE+0x1b8>
   2af00: 3d 00 00 14  	b	0x2aff4 <_ZN11ChiMetadata16ReadDataFromFileEPKcRNSt3__16vectorIhNS2_9allocatorIhEEEE+0x1bc>
   2af18: 61 ff ff 54  	b.ne	0x2af04 <_ZN11ChiMetadata16ReadDataFromFileEPKcRNSt3__16vectorIhNS2_9allocatorIhEEEE+0xcc>
   2af1c: 47 00 00 14  	b	0x2b038 <_ZN11ChiMetadata16ReadDataFromFileEPKcRNSt3__16vectorIhNS2_9allocatorIhEEEE+0x200>
   2af20: 4c 00 00 f0  	adrp	x12, 0x35000 <_ZN11ChiMetadata16ReadDataFromFileEPKcRNSt3__16vectorIhNS2_9allocatorIhEEEE+0x114>
   2af2c: 69 05 00 36  	tbz	w9, #0, 0x2afd8 <_ZN11ChiMetadata16ReadDataFromFileEPKcRNSt3__16vectorIhNS2_9allocatorIhEEEE+0x1a0>
   2af30: 4d 00 00 f0  	adrp	x13, 0x35000 <_ZN11ChiMetadata16ReadDataFromFileEPKcRNSt3__16vectorIhNS2_9allocatorIhEEEE+0x124>
   2af40: 61 02 00 54  	b.ne	0x2af8c <_ZN11ChiMetadata16ReadDataFromFileEPKcRNSt3__16vectorIhNS2_9allocatorIhEEEE+0x154>
   2af44: 14 ff ff d0  	adrp	x20, 0xc000 <_ZN11ChiMetadata16ReadDataFromFileEPKcRNSt3__16vectorIhNS2_9allocatorIhEEEE+0x94>
   2af60: 21 ff ff 90  	adrp	x1, 0xe000 <_ZN11ChiMetadata16ReadDataFromFileEPKcRNSt3__16vectorIhNS2_9allocatorIhEEEE+0xb8>
   2af64: 02 ff ff d0  	adrp	x2, 0xc000 <_ZN11ChiMetadata16ReadDataFromFileEPKcRNSt3__16vectorIhNS2_9allocatorIhEEEE+0xb4>
   2af68: 05 ff ff 90  	adrp	x5, 0xa000 <_ZN11ChiMetadata16ReadDataFromFileEPKcRNSt3__16vectorIhNS2_9allocatorIhEEEE+0xb0>
   2af8c: 17 ff ff d0  	adrp	x23, 0xc000 <_ZN11ChiMetadata16ReadDataFromFileEPKcRNSt3__16vectorIhNS2_9allocatorIhEEEE+0xdc>
   2afa8: 21 ff ff 90  	adrp	x1, 0xe000 <_ZN11ChiMetadata16ReadDataFromFileEPKcRNSt3__16vectorIhNS2_9allocatorIhEEEE+0x100>
   2afb0: e0 fe ff f0  	adrp	x0, 0x9000 <_ZN11ChiMetadata16ReadDataFromFileEPKcRNSt3__16vectorIhNS2_9allocatorIhEEEE+0xf4>
   2afb4: 03 ff ff 90  	adrp	x3, 0xa000 <_ZN11ChiMetadata16ReadDataFromFileEPKcRNSt3__16vectorIhNS2_9allocatorIhEEEE+0xfc>
   2afb8: 05 ff ff b0  	adrp	x5, 0xb000 <_ZN11ChiMetadata16ReadDataFromFileEPKcRNSt3__16vectorIhNS2_9allocatorIhEEEE+0x104>
   2afd4: 33 24 00 94  	bl	0x340a0 <_ZN6ChiLog9LogSystemEPKcS1_S1_S1_iS1_z@plt>
   2afdc: 4f 00 00 14  	b	0x2b118 <_ZN11ChiMetadata16ReadDataFromFileEPKcRNSt3__16vectorIhNS2_9allocatorIhEEEE+0x2e0>
   2afe0: c2 02 00 54  	b.hs	0x2b038 <_ZN11ChiMetadata16ReadDataFromFileEPKcRNSt3__16vectorIhNS2_9allocatorIhEEEE+0x200>
   2afec: 13 00 00 14  	b	0x2b038 <_ZN11ChiMetadata16ReadDataFromFileEPKcRNSt3__16vectorIhNS2_9allocatorIhEEEE+0x200>
   2b010: ab 00 00 54  	b.lt	0x2b024 <_ZN11ChiMetadata16ReadDataFromFileEPKcRNSt3__16vectorIhNS2_9allocatorIhEEEE+0x1ec>
   2b02c: 77 00 00 b4  	cbz	x23, 0x2b038 <_ZN11ChiMetadata16ReadDataFromFileEPKcRNSt3__16vectorIhNS2_9allocatorIhEEEE+0x200>
   2b050: 6d 00 00 54  	b.le	0x2b05c <_ZN11ChiMetadata16ReadDataFromFileEPKcRNSt3__16vectorIhNS2_9allocatorIhEEEE+0x224>
   2b058: 2e 00 00 14  	b	0x2b110 <_ZN11ChiMetadata16ReadDataFromFileEPKcRNSt3__16vectorIhNS2_9allocatorIhEEEE+0x2d8>
   2b05c: 4a 00 00 d0  	adrp	x10, 0x35000 <_ZN11ChiMetadata16ReadDataFromFileEPKcRNSt3__16vectorIhNS2_9allocatorIhEEEE+0x24c>
   2b068: 28 05 00 36  	tbz	w8, #0, 0x2b10c <_ZN11ChiMetadata16ReadDataFromFileEPKcRNSt3__16vectorIhNS2_9allocatorIhEEEE+0x2d4>
   2b06c: 4b 00 00 d0  	adrp	x11, 0x35000 <_ZN11ChiMetadata16ReadDataFromFileEPKcRNSt3__16vectorIhNS2_9allocatorIhEEEE+0x25c>
   2b070: 16 ff ff b0  	adrp	x22, 0xc000 <_ZN11ChiMetadata16ReadDataFromFileEPKcRNSt3__16vectorIhNS2_9allocatorIhEEEE+0x1bc>
   2b084: 21 02 00 54  	b.ne	0x2b0c8 <_ZN11ChiMetadata16ReadDataFromFileEPKcRNSt3__16vectorIhNS2_9allocatorIhEEEE+0x290>
   2b09c: 01 ff ff f0  	adrp	x1, 0xe000 <_ZN11ChiMetadata16ReadDataFromFileEPKcRNSt3__16vectorIhNS2_9allocatorIhEEEE+0x1f0>
   2b0a0: 02 ff ff b0  	adrp	x2, 0xc000 <_ZN11ChiMetadata16ReadDataFromFileEPKcRNSt3__16vectorIhNS2_9allocatorIhEEEE+0x1ec>
   2b0a4: e5 fe ff f0  	adrp	x5, 0xa000 <_ZN11ChiMetadata16ReadDataFromFileEPKcRNSt3__16vectorIhNS2_9allocatorIhEEEE+0x1e8>
   2b0dc: 01 ff ff f0  	adrp	x1, 0xe000 <_ZN11ChiMetadata16ReadDataFromFileEPKcRNSt3__16vectorIhNS2_9allocatorIhEEEE+0x230>
   2b0e4: e0 fe ff d0  	adrp	x0, 0x9000 <_ZN11ChiMetadata16ReadDataFromFileEPKcRNSt3__16vectorIhNS2_9allocatorIhEEEE+0x224>
   2b0e8: e3 fe ff f0  	adrp	x3, 0xa000 <_ZN11ChiMetadata16ReadDataFromFileEPKcRNSt3__16vectorIhNS2_9allocatorIhEEEE+0x22c>
   2b0ec: 05 ff ff 90  	adrp	x5, 0xb000 <_ZN11ChiMetadata16ReadDataFromFileEPKcRNSt3__16vectorIhNS2_9allocatorIhEEEE+0x234>
   2b108: e6 23 00 94  	bl	0x340a0 <_ZN6ChiLog9LogSystemEPKcS1_S1_S1_iS1_z@plt>
   2b13c: 15 24 00 94  	bl	0x34190 <_ZNKSt3__120__vector_base_commonILb1EE20__throw_length_errorEv@plt>
000000000002b140 <_ZN11ChiMetadata19ParseAndSetMetadataERNSt3__16vectorIhNS0_9allocatorIhEEEE>:
   2b174: a0 05 00 54  	b.eq	0x2b228 <_ZN11ChiMetadata19ParseAndSetMetadataERNSt3__16vectorIhNS0_9allocatorIhEEEE+0xe8>
   2b178: 4b 00 00 d0  	adrp	x11, 0x35000 <_ZN11ChiMetadata19ParseAndSetMetadataERNSt3__16vectorIhNS0_9allocatorIhEEEE+0x60>
   2b184: ee 04 00 36  	tbz	w14, #0, 0x2b220 <_ZN11ChiMetadata19ParseAndSetMetadataERNSt3__16vectorIhNS0_9allocatorIhEEEE+0xe0>
   2b188: 4c 00 00 d0  	adrp	x12, 0x35000 <_ZN11ChiMetadata19ParseAndSetMetadataERNSt3__16vectorIhNS0_9allocatorIhEEEE+0x70>
   2b18c: 13 ff ff b0  	adrp	x19, 0xc000 <_ZN11ChiMetadata16ReadDataFromFileEPKcRNSt3__16vectorIhNS2_9allocatorIhEEEE+0x2d8>
   2b1a0: 01 02 00 54  	b.ne	0x2b1e0 <_ZN11ChiMetadata19ParseAndSetMetadataERNSt3__16vectorIhNS0_9allocatorIhEEEE+0xa0>
   2b1b8: 01 ff ff f0  	adrp	x1, 0xe000 <_ZN11ChiMetadata19ParseAndSetMetadataERNSt3__16vectorIhNS0_9allocatorIhEEEE+0x4>
   2b1bc: 02 ff ff b0  	adrp	x2, 0xc000 <_ZN11ChiMetadata19ParseAndSetMetadataERNSt3__16vectorIhNS0_9allocatorIhEEEE>
   2b1c0: e5 fe ff d0  	adrp	x5, 0x9000 <_ZN11ChiMetadata16ReadDataFromFileEPKcRNSt3__16vectorIhNS2_9allocatorIhEEEE+0x300>
   2b1f4: 01 ff ff f0  	adrp	x1, 0xe000 <_ZN11ChiMetadata19ParseAndSetMetadataERNSt3__16vectorIhNS0_9allocatorIhEEEE+0x40>
   2b1fc: e0 fe ff d0  	adrp	x0, 0x9000 <_ZN11ChiMetadata19ParseAndSetMetadataERNSt3__16vectorIhNS0_9allocatorIhEEEE+0x34>
   2b200: e3 fe ff d0  	adrp	x3, 0x9000 <_ZN11ChiMetadata19ParseAndSetMetadataERNSt3__16vectorIhNS0_9allocatorIhEEEE+0x38>
   2b204: e5 fe ff f0  	adrp	x5, 0xa000 <_ZN11ChiMetadata19ParseAndSetMetadataERNSt3__16vectorIhNS0_9allocatorIhEEEE+0x40>
   2b21c: a1 23 00 94  	bl	0x340a0 <_ZN6ChiLog9LogSystemEPKcS1_S1_S1_iS1_z@plt>
   2b224: a2 00 00 14  	b	0x2b4ac <_ZN11ChiMetadata19ParseAndSetMetadataERNSt3__16vectorIhNS0_9allocatorIhEEEE+0x36c>
   2b258: 09 07 00 54  	b.ls	0x2b338 <_ZN11ChiMetadata19ParseAndSetMetadataERNSt3__16vectorIhNS0_9allocatorIhEEEE+0x1f8>
   2b260: a1 07 00 54  	b.ne	0x2b354 <_ZN11ChiMetadata19ParseAndSetMetadataERNSt3__16vectorIhNS0_9allocatorIhEEEE+0x214>
   2b278: 10 00 00 14  	b	0x2b2b8 <_ZN11ChiMetadata19ParseAndSetMetadataERNSt3__16vectorIhNS0_9allocatorIhEEEE+0x178>
   2b2b4: 89 08 00 54  	b.ls	0x2b3c4 <_ZN11ChiMetadata19ParseAndSetMetadataERNSt3__16vectorIhNS0_9allocatorIhEEEE+0x284>
   2b2c4: e3 07 00 34  	cbz	w3, 0x2b3c0 <_ZN11ChiMetadata19ParseAndSetMetadataERNSt3__16vectorIhNS0_9allocatorIhEEEE+0x280>
   2b2dc: 29 07 00 54  	b.ls	0x2b3c0 <_ZN11ChiMetadata19ParseAndSetMetadataERNSt3__16vectorIhNS0_9allocatorIhEEEE+0x280>
   2b2f0: 63 fc ff 54  	b.lo	0x2b27c <_ZN11ChiMetadata19ParseAndSetMetadataERNSt3__16vectorIhNS0_9allocatorIhEEEE+0x13c>
   2b330: c1 fe ff 54  	b.ne	0x2b308 <_ZN11ChiMetadata19ParseAndSetMetadataERNSt3__16vectorIhNS0_9allocatorIhEEEE+0x1c8>
   2b334: d8 ff ff 17  	b	0x2b294 <_ZN11ChiMetadata19ParseAndSetMetadataERNSt3__16vectorIhNS0_9allocatorIhEEEE+0x154>
   2b340: 48 00 00 d0  	adrp	x8, 0x35000 <_ZN11ChiMetadata19ParseAndSetMetadataERNSt3__16vectorIhNS0_9allocatorIhEEEE+0x228>
   2b34c: ed 0a 18 36  	tbz	w13, #3, 0x2b4a8 <_ZN11ChiMetadata19ParseAndSetMetadataERNSt3__16vectorIhNS0_9allocatorIhEEEE+0x368>
   2b350: 21 00 00 14  	b	0x2b3d4 <_ZN11ChiMetadata19ParseAndSetMetadataERNSt3__16vectorIhNS0_9allocatorIhEEEE+0x294>
   2b36c: 03 0b 00 34  	cbz	w3, 0x2b4cc <_ZN11ChiMetadata19ParseAndSetMetadataERNSt3__16vectorIhNS0_9allocatorIhEEEE+0x38c>
   2b37c: 89 0a 00 54  	b.ls	0x2b4cc <_ZN11ChiMetadata19ParseAndSetMetadataERNSt3__16vectorIhNS0_9allocatorIhEEEE+0x38c>
   2b3b8: 48 fd ff 54  	b.hi	0x2b360 <_ZN11ChiMetadata19ParseAndSetMetadataERNSt3__16vectorIhNS0_9allocatorIhEEEE+0x220>
   2b3bc: 02 00 00 14  	b	0x2b3c4 <_ZN11ChiMetadata19ParseAndSetMetadataERNSt3__16vectorIhNS0_9allocatorIhEEEE+0x284>
   2b3c4: 48 00 00 d0  	adrp	x8, 0x35000 <_ZN11ChiMetadata19ParseAndSetMetadataERNSt3__16vectorIhNS0_9allocatorIhEEEE+0x2ac>
   2b3d0: cd 06 18 36  	tbz	w13, #3, 0x2b4a8 <_ZN11ChiMetadata19ParseAndSetMetadataERNSt3__16vectorIhNS0_9allocatorIhEEEE+0x368>
   2b3d4: 4a 00 00 d0  	adrp	x10, 0x35000 <_ZN11ChiMetadata19ParseAndSetMetadataERNSt3__16vectorIhNS0_9allocatorIhEEEE+0x2bc>
   2b3e8: 01 03 00 54  	b.ne	0x2b448 <_ZN11ChiMetadata19ParseAndSetMetadataERNSt3__16vectorIhNS0_9allocatorIhEEEE+0x308>
   2b3ec: 16 ff ff b0  	adrp	x22, 0xc000 <_ZN11ChiMetadata19ParseAndSetMetadataERNSt3__16vectorIhNS0_9allocatorIhEEEE+0x230>
   2b40c: e5 fe ff d0  	adrp	x5, 0x9000 <_ZN11ChiMetadata19ParseAndSetMetadataERNSt3__16vectorIhNS0_9allocatorIhEEEE+0x244>
   2b424: 01 ff ff f0  	adrp	x1, 0xe000 <_ZN11ChiMetadata19ParseAndSetMetadataERNSt3__16vectorIhNS0_9allocatorIhEEEE+0x270>
   2b428: 02 ff ff f0  	adrp	x2, 0xe000 <_ZN11ChiMetadata19ParseAndSetMetadataERNSt3__16vectorIhNS0_9allocatorIhEEEE+0x274>
   2b448: 16 ff ff b0  	adrp	x22, 0xc000 <_ZN11ChiMetadata19ParseAndSetMetadataERNSt3__16vectorIhNS0_9allocatorIhEEEE+0x28c>
   2b468: 01 ff ff b0  	adrp	x1, 0xc000 <_ZN11ChiMetadata19ParseAndSetMetadataERNSt3__16vectorIhNS0_9allocatorIhEEEE+0x2ac>
   2b470: 20 ff ff 90  	adrp	x0, 0xf000 <_ZN11ChiMetadata19ParseAndSetMetadataERNSt3__16vectorIhNS0_9allocatorIhEEEE+0x2c0>
   2b480: e3 fe ff d0  	adrp	x3, 0x9000 <_ZN11ChiMetadata19ParseAndSetMetadataERNSt3__16vectorIhNS0_9allocatorIhEEEE+0x2b8>
   2b484: 05 ff ff d0  	adrp	x5, 0xd000 <_ZN11ChiMetadata19ParseAndSetMetadataERNSt3__16vectorIhNS0_9allocatorIhEEEE+0x2cc>
   2b4a4: ff 22 00 94  	bl	0x340a0 <_ZN6ChiLog9LogSystemEPKcS1_S1_S1_iS1_z@plt>
   2b4d0: 48 00 00 d0  	adrp	x8, 0x35000 <_ZN11ChiMetadata6CreateEPKc>
   2b4dc: 6d fe 1f 36  	tbz	w13, #3, 0x2b4a8 <_ZN11ChiMetadata19ParseAndSetMetadataERNSt3__16vectorIhNS0_9allocatorIhEEEE+0x368>
   2b4e0: bd ff ff 17  	b	0x2b3d4 <_ZN11ChiMetadata19ParseAndSetMetadataERNSt3__16vectorIhNS0_9allocatorIhEEEE+0x294>
000000000002b4e8 <_ZN11ChiMetadata6SetTagEjPKvjj>:
000000000002b4f8 <_ZN11ChiMetadata6CreateEPKc>:
   2b520: c0 15 00 b4  	cbz	x0, 0x2b7d8 <_ZN11ChiMetadata6CreateEPKc+0x2e0>
   2b528: f2 24 00 94  	bl	0x348f0 <_ZN11ChiMetadata16ReadDataFromFileEPKcRNSt3__16vectorIhNS2_9allocatorIhEEEE@plt>
   2b52c: 60 15 00 35  	cbnz	w0, 0x2b7d8 <_ZN11ChiMetadata6CreateEPKc+0x2e0>
   2b540: e0 05 00 b4  	cbz	x0, 0x2b5fc <_ZN11ChiMetadata6CreateEPKc+0x104>
   2b548: ca 24 00 94  	bl	0x34870 <_ZN11ChiMetadata21InitializeMetadataOpsEP14ChiMetadataOps@plt>
   2b54c: 20 0b 00 34  	cbz	w0, 0x2b6b0 <_ZN11ChiMetadata6CreateEPKc+0x1b8>
   2b550: 4a 00 00 d0  	adrp	x10, 0x35000 <_ZN11ChiMetadata6CreateEPKc+0x80>
   2b55c: aa 13 00 36  	tbz	w10, #0, 0x2b7d0 <_ZN11ChiMetadata6CreateEPKc+0x2d8>
   2b560: 4b 00 00 d0  	adrp	x11, 0x35000 <_ZN11ChiMetadata6CreateEPKc+0x90>
   2b564: 14 ff ff b0  	adrp	x20, 0xc000 <_ZN11ChiMetadata6SetTagEjPKvjj>
   2b578: 01 02 00 54  	b.ne	0x2b5b8 <_ZN11ChiMetadata6CreateEPKc+0xc0>
   2b590: 01 ff ff f0  	adrp	x1, 0xe000 <_ZN11ChiMetadata6CreateEPKc+0x24>
   2b594: 22 ff ff 90  	adrp	x2, 0xf000 <_ZN11ChiMetadata6CreateEPKc+0x2c>
   2b598: 05 ff ff f0  	adrp	x5, 0xe000 <_ZN11ChiMetadata6CreateEPKc+0x2c>
   2b5cc: 01 ff ff f0  	adrp	x1, 0xe000 <_ZN11ChiMetadata6CreateEPKc+0x60>
   2b5d4: e0 fe ff d0  	adrp	x0, 0x9000 <_ZN11ChiMetadata6CreateEPKc+0x54>
   2b5d8: 03 ff ff f0  	adrp	x3, 0xe000 <_ZN11ChiMetadata6CreateEPKc+0x6c>
   2b5dc: 25 ff ff 90  	adrp	x5, 0xf000 <_ZN11ChiMetadata6CreateEPKc+0x74>
   2b5f4: ab 22 00 94  	bl	0x340a0 <_ZN6ChiLog9LogSystemEPKcS1_S1_S1_iS1_z@plt>
   2b5f8: 76 00 00 14  	b	0x2b7d0 <_ZN11ChiMetadata6CreateEPKc+0x2d8>
   2b5fc: 4c 00 00 d0  	adrp	x12, 0x35000 <_ZN11ChiMetadata6CreateEPKc+0x12c>
   2b608: ab 0e 00 36  	tbz	w11, #0, 0x2b7dc <_ZN11ChiMetadata6CreateEPKc+0x2e4>
   2b60c: 4d 00 00 d0  	adrp	x13, 0x35000 <_ZN11ChiMetadata6CreateEPKc+0x13c>
   2b61c: 41 02 00 54  	b.ne	0x2b664 <_ZN11ChiMetadata6CreateEPKc+0x16c>
   2b620: 14 ff ff b0  	adrp	x20, 0xc000 <_ZN11ChiMetadata6CreateEPKc+0xac>
   2b63c: 01 ff ff f0  	adrp	x1, 0xe000 <_ZN11ChiMetadata6CreateEPKc+0xd0>
   2b640: 22 ff ff 90  	adrp	x2, 0xf000 <_ZN11ChiMetadata6CreateEPKc+0xd8>
   2b644: 05 ff ff f0  	adrp	x5, 0xe000 <_ZN11ChiMetadata6CreateEPKc+0xd8>
   2b664: 14 ff ff b0  	adrp	x20, 0xc000 <_ZN11ChiMetadata6CreateEPKc+0xf0>
   2b680: 01 ff ff f0  	adrp	x1, 0xe000 <_ZN11ChiMetadata6CreateEPKc+0x114>
   2b688: e0 fe ff d0  	adrp	x0, 0x9000 <_ZN11ChiMetadata6CreateEPKc+0x108>
   2b68c: 03 ff ff f0  	adrp	x3, 0xe000 <_ZN11ChiMetadata6CreateEPKc+0x120>
   2b690: 05 ff ff b0  	adrp	x5, 0xc000 <_ZN11ChiMetadata6CreateEPKc+0x11c>
   2b6a8: 7e 22 00 94  	bl	0x340a0 <_ZN6ChiLog9LogSystemEPKcS1_S1_S1_iS1_z@plt>
   2b6ac: 4c 00 00 14  	b	0x2b7dc <_ZN11ChiMetadata6CreateEPKc+0x2e4>
   2b708: c0 05 00 34  	cbz	w0, 0x2b7c0 <_ZN11ChiMetadata6CreateEPKc+0x2c8>
   2b70c: 48 00 00 d0  	adrp	x8, 0x35000 <_ZN11ChiMetadata6CreateEPKc+0x23c>
   2b718: c9 05 00 36  	tbz	w9, #0, 0x2b7d0 <_ZN11ChiMetadata6CreateEPKc+0x2d8>
   2b71c: 49 00 00 d0  	adrp	x9, 0x35000 <_ZN11ChiMetadata6CreateEPKc+0x24c>
   2b72c: 41 02 00 54  	b.ne	0x2b774 <_ZN11ChiMetadata6CreateEPKc+0x27c>
   2b730: 14 ff ff b0  	adrp	x20, 0xc000 <_ZN11ChiMetadata6CreateEPKc+0x1bc>
   2b74c: 01 ff ff f0  	adrp	x1, 0xe000 <_ZN11ChiMetadata6CreateEPKc+0x1e0>
   2b750: e2 fe ff d0  	adrp	x2, 0x9000 <_ZN11ChiMetadata6CreateEPKc+0x1d0>
   2b754: 05 ff ff f0  	adrp	x5, 0xe000 <_ZN11ChiMetadata6CreateEPKc+0x1e8>
   2b774: 14 ff ff b0  	adrp	x20, 0xc000 <_ZN11ChiMetadata6CreateEPKc+0x200>
   2b790: 01 ff ff f0  	adrp	x1, 0xe000 <_ZN11ChiMetadata6CreateEPKc+0x224>
   2b798: e0 fe ff d0  	adrp	x0, 0x9000 <_ZN11ChiMetadata6CreateEPKc+0x218>
   2b79c: 03 ff ff f0  	adrp	x3, 0xe000 <_ZN11ChiMetadata6CreateEPKc+0x230>
   2b7a0: 05 ff ff d0  	adrp	x5, 0xd000 <_ZN11ChiMetadata6CreateEPKc+0x230>
   2b7b8: 3a 22 00 94  	bl	0x340a0 <_ZN6ChiLog9LogSystemEPKcS1_S1_S1_iS1_z@plt>
   2b7bc: 05 00 00 14  	b	0x2b7d0 <_ZN11ChiMetadata6CreateEPKc+0x2d8>
   2b7c8: 4e 24 00 94  	bl	0x34900 <_ZN11ChiMetadata19ParseAndSetMetadataERNSt3__16vectorIhNS0_9allocatorIhEEEE@plt>
   2b7cc: 80 00 00 34  	cbz	w0, 0x2b7dc <_ZN11ChiMetadata6CreateEPKc+0x2e4>
   2b7e0: 60 00 00 b4  	cbz	x0, 0x2b7ec <_ZN11ChiMetadata6CreateEPKc+0x2f4>
   2b7f8: e1 00 00 54  	b.ne	0x2b814 <_ZN11ChiMetadata6CreateEPKc+0x31c>
000000000002b818 <_ZN11ChiMetadata7DestroyEb>:
   2b838: 00 08 00 54  	b.eq	0x2b938 <_ZN11ChiMetadata7DestroyEb+0x120>
   2b83c: 4a 00 00 d0  	adrp	x10, 0x35000 <_ZN11ChiMetadata7DestroyEb+0x4c>
   2b848: ab 06 00 36  	tbz	w11, #0, 0x2b91c <_ZN11ChiMetadata7DestroyEb+0x104>
   2b84c: 4b 00 00 d0  	adrp	x11, 0x35000 <_ZN11ChiMetadata7DestroyEb+0x5c>
   2b850: 14 ff ff b0  	adrp	x20, 0xc000 <_ZN11ChiMetadata6CreateEPKc+0x2dc>
   2b864: e1 02 00 54  	b.ne	0x2b8c0 <_ZN11ChiMetadata7DestroyEb+0xa8>
   2b884: 01 ff ff f0  	adrp	x1, 0xe000 <_ZN11ChiMetadata6CreateEPKc+0x318>
   2b888: e2 fe ff d0  	adrp	x2, 0x9000 <_ZN11ChiMetadata6CreateEPKc+0x308>
   2b88c: 05 ff ff b0  	adrp	x5, 0xc000 <_ZN11ChiMetadata6CreateEPKc+0x318>
   2b8e0: e0 fe ff d0  	adrp	x0, 0x9000 <_ZN11ChiMetadata7DestroyEb+0x40>
   2b8e4: 01 ff ff f0  	adrp	x1, 0xe000 <_ZN11ChiMetadata7DestroyEb+0x58>
   2b8e8: 03 ff ff b0  	adrp	x3, 0xc000 <_ZN11ChiMetadata7DestroyEb+0x54>
   2b8ec: 05 ff ff b0  	adrp	x5, 0xc000 <_ZN11ChiMetadata7DestroyEb+0x58>
   2b918: e2 21 00 94  	bl	0x340a0 <_ZN6ChiLog9LogSystemEPKcS1_S1_S1_iS1_z@plt>
   2b93c: 00 f8 ff b4  	cbz	x0, 0x2b83c <_ZN11ChiMetadata7DestroyEb+0x24>
   2b954: 80 06 00 34  	cbz	w0, 0x2ba24 <_ZN11ChiMetadata7DestroyEb+0x20c>
   2b958: 48 00 00 d0  	adrp	x8, 0x35000 <_ZN11ChiMetadata7DestroyEb+0x168>
   2b964: e8 fd 07 36  	tbz	w8, #0, 0x2b920 <_ZN11ChiMetadata7DestroyEb+0x108>
   2b968: 49 00 00 d0  	adrp	x9, 0x35000 <_ZN11ChiMetadata7DestroyEb+0x178>
   2b978: a1 02 00 54  	b.ne	0x2b9cc <_ZN11ChiMetadata7DestroyEb+0x1b4>
   2b97c: 15 ff ff b0  	adrp	x21, 0xc000 <_ZN11ChiMetadata7DestroyEb+0xe8>
   2b99c: 01 ff ff f0  	adrp	x1, 0xe000 <_ZN11ChiMetadata7DestroyEb+0x110>
   2b9a0: e2 fe ff f0  	adrp	x2, 0xa000 <_ZN11ChiMetadata7DestroyEb+0x104>
   2b9a4: 05 ff ff b0  	adrp	x5, 0xc000 <_ZN11ChiMetadata7DestroyEb+0x110>
   2b9cc: 15 ff ff b0  	adrp	x21, 0xc000 <_ZN11ChiMetadata7DestroyEb+0x138>
   2b9f0: e0 fe ff d0  	adrp	x0, 0x9000 <_ZN11ChiMetadata7DestroyEb+0x150>
   2b9f4: 01 ff ff f0  	adrp	x1, 0xe000 <_ZN11ChiMetadata7DestroyEb+0x168>
   2b9f8: 03 ff ff b0  	adrp	x3, 0xc000 <_ZN11ChiMetadata7DestroyEb+0x164>
   2b9fc: e5 fe ff f0  	adrp	x5, 0xa000 <_ZN11ChiMetadata7DestroyEb+0x160>
   2ba1c: a1 21 00 94  	bl	0x340a0 <_ZN6ChiLog9LogSystemEPKcS1_S1_S1_iS1_z@plt>
   2ba20: c0 ff ff 17  	b	0x2b920 <_ZN11ChiMetadata7DestroyEb+0x108>
   2ba2c: bd ff ff 17  	b	0x2b920 <_ZN11ChiMetadata7DestroyEb+0x108>
000000000002ba30 <_ZN11ChiMetadata15DestroyInternalEb>:
   2ba5c: 40 06 00 34  	cbz	w0, 0x2bb24 <_ZN11ChiMetadata15DestroyInternalEb+0xf4>
   2ba60: 48 00 00 d0  	adrp	x8, 0x35000 <_ZN11ChiMetadata15DestroyInternalEb+0x58>
   2ba6c: 08 06 00 36  	tbz	w8, #0, 0x2bb2c <_ZN11ChiMetadata15DestroyInternalEb+0xfc>
   2ba70: 49 00 00 d0  	adrp	x9, 0x35000 <_ZN11ChiMetadata15DestroyInternalEb+0x68>
   2ba74: 15 ff ff b0  	adrp	x21, 0xc000 <_ZN11ChiMetadata7DestroyEb+0x1e0>
   2ba88: 61 02 00 54  	b.ne	0x2bad4 <_ZN11ChiMetadata15DestroyInternalEb+0xa4>
   2baa4: 01 ff ff f0  	adrp	x1, 0xe000 <_ZN11ChiMetadata15DestroyInternalEb>
   2baa8: e2 fe ff f0  	adrp	x2, 0xa000 <_ZN11ChiMetadata7DestroyEb+0x20c>
   2baac: 05 ff ff b0  	adrp	x5, 0xc000 <_ZN11ChiMetadata15DestroyInternalEb>
   2baf0: e0 fe ff d0  	adrp	x0, 0x9000 <_ZN11ChiMetadata15DestroyInternalEb+0x38>
   2baf4: 01 ff ff f0  	adrp	x1, 0xe000 <_ZN11ChiMetadata15DestroyInternalEb+0x50>
   2baf8: 03 ff ff b0  	adrp	x3, 0xc000 <_ZN11ChiMetadata15DestroyInternalEb+0x4c>
   2bafc: e5 fe ff f0  	adrp	x5, 0xa000 <_ZN11ChiMetadata15DestroyInternalEb+0x48>
   2bb1c: 61 21 00 94  	bl	0x340a0 <_ZN6ChiLog9LogSystemEPKcS1_S1_S1_iS1_z@plt>
   2bb20: 03 00 00 14  	b	0x2bb2c <_ZN11ChiMetadata15DestroyInternalEb+0xfc>
000000000002bb40 <_ZN11ChiMetadata6GetTagEjj>:
   2bb80: a1 00 00 54  	b.ne	0x2bb94 <_ZN11ChiMetadata6GetTagEjj+0x54>
000000000002bb98 <_ZN11ChiMetadata6GetTagEjR16ChiMetadataEntry>:
000000000002bba8 <_ZN11ChiMetadata6GetTagEPKcS1_j>:
   2bbe8: a1 00 00 54  	b.ne	0x2bbfc <_ZN11ChiMetadata6GetTagEPKcS1_j+0x54>
000000000002bc00 <_ZNK11ChiMetadata7FindTagEjP21camera_metadata_entry>:
   2bc40: e0 00 00 35  	cbnz	w0, 0x2bc5c <_ZNK11ChiMetadata7FindTagEjP21camera_metadata_entry+0x5c>
   2bc68: c1 00 00 54  	b.ne	0x2bc80 <_ZNK11ChiMetadata7FindTagEjP21camera_metadata_entry+0x80>
000000000002bc88 <_ZN11ChiMetadata18SetAndroidMetadataEPK15camera_metadata>:
000000000002bc98 <_ZN11ChiMetadata6SetTagEPKcS1_PKvjj>:
000000000002bca8 <_ZN11ChiMetadata9DeleteTagEj>:
000000000002bcb8 <_ZN11ChiMetadata5CountEv>:
   2bcf8: a1 00 00 54  	b.ne	0x2bd0c <_ZN11ChiMetadata5CountEv+0x54>
000000000002bd10 <_ZN11ChiMetadata5ResetEv>:
000000000002bd20 <_ZN11ChiMetadata5MergeERS_b>:
   2bd50: d4 21 00 94  	bl	0x344a0 <_ZNSt3__16chrono12steady_clock3nowEv@plt>
   2bd5c: 40 00 00 54  	b.eq	0x2bd64 <_ZN11ChiMetadata5MergeERS_b+0x44>
   2bd6c: 40 00 00 54  	b.eq	0x2bd74 <_ZN11ChiMetadata5MergeERS_b+0x54>
000000000002bd88 <_ZN11ChiMetadata24MergeMultiCameraMetadataEjPPS_Pjj>:
   2bdb0: 81 02 00 34  	cbz	w1, 0x2be00 <_ZN11ChiMetadata24MergeMultiCameraMetadataEjPPS_Pjj+0x78>
   2bdf8: 61 ff ff 54  	b.ne	0x2bde4 <_ZN11ChiMetadata24MergeMultiCameraMetadataEjPPS_Pjj+0x5c>
   2bdfc: 02 00 00 14  	b	0x2be04 <_ZN11ChiMetadata24MergeMultiCameraMetadataEjPPS_Pjj+0x7c>
   2be24: 77 00 00 b4  	cbz	x23, 0x2be30 <_ZN11ChiMetadata24MergeMultiCameraMetadataEjPPS_Pjj+0xa8>
000000000002be50 <_ZN11ChiMetadata4CopyERS_b>:
000000000002be68 <_ZN11ChiMetadata5CloneEv>:
   2bea4: 80 01 00 35  	cbnz	w0, 0x2bed4 <_ZN11ChiMetadata5CloneEv+0x6c>
   2beb8: 20 02 00 b4  	cbz	x0, 0x2befc <_ZN11ChiMetadata5CloneEv+0x94>
   2bee0: e1 01 00 54  	b.ne	0x2bf1c <_ZN11ChiMetadata5CloneEv+0xb4>
   2bf18: 60 fe ff 54  	b.eq	0x2bee4 <_ZN11ChiMetadata5CloneEv+0x7c>
000000000002bf20 <_ZN11ChiMetadata32TranslateToCameraPartialMetadataEP15camera_metadataPjj>:
   2bf5c: 83 11 00 34  	cbz	w3, 0x2c18c <_ZN11ChiMetadata32TranslateToCameraPartialMetadataEP15camera_metadataPjj+0x26c>
   2bf60: 58 00 00 d0  	adrp	x24, 0x35000 <_ZN11ChiMetadata32TranslateToCameraPartialMetadataEP15camera_metadataPjj+0x68>
   2bf64: 14 ff ff b0  	adrp	x20, 0xc000 <_ZN11ChiMetadata5CloneEv+0x80>
   2bf68: 19 ff ff 90  	adrp	x25, 0xb000 <_ZN11ChiMetadata5CloneEv+0x80>
   2bf94: 13 00 00 14  	b	0x2bfe0 <_ZN11ChiMetadata32TranslateToCameraPartialMetadataEP15camera_metadataPjj+0xc0>
   2bfac: 01 ff ff b0  	adrp	x1, 0xc000 <_ZN11ChiMetadata32TranslateToCameraPartialMetadataEP15camera_metadataPjj+0x10>
   2bfb4: 00 ff ff f0  	adrp	x0, 0xe000 <_ZN11ChiMetadata32TranslateToCameraPartialMetadataEP15camera_metadataPjj+0x20>
   2bfb8: 05 ff ff 90  	adrp	x5, 0xb000 <_ZN11ChiMetadata32TranslateToCameraPartialMetadataEP15camera_metadataPjj+0x18>
   2bfd0: 34 20 00 94  	bl	0x340a0 <_ZN6ChiLog9LogSystemEPKcS1_S1_S1_iS1_z@plt>
   2bfdc: 80 0d 00 54  	b.eq	0x2c18c <_ZN11ChiMetadata32TranslateToCameraPartialMetadataEP15camera_metadataPjj+0x26c>
   2bff4: e0 01 00 35  	cbnz	w0, 0x2c030 <_ZN11ChiMetadata32TranslateToCameraPartialMetadataEP15camera_metadataPjj+0x110>
   2bffc: ac 01 00 b4  	cbz	x12, 0x2c030 <_ZN11ChiMetadata32TranslateToCameraPartialMetadataEP15camera_metadataPjj+0x110>
   2c010: c0 03 00 34  	cbz	w0, 0x2c088 <_ZN11ChiMetadata32TranslateToCameraPartialMetadataEP15camera_metadataPjj+0x168>
   2c028: 60 fd ff 34  	cbz	w0, 0x2bfd4 <_ZN11ChiMetadata32TranslateToCameraPartialMetadataEP15camera_metadataPjj+0xb4>
   2c02c: 20 00 00 14  	b	0x2c0ac <_ZN11ChiMetadata32TranslateToCameraPartialMetadataEP15camera_metadataPjj+0x18c>
   2c034: 09 fd 2f 36  	tbz	w9, #5, 0x2bfd4 <_ZN11ChiMetadata32TranslateToCameraPartialMetadataEP15camera_metadataPjj+0xb4>
   2c038: 4a 00 00 b0  	adrp	x10, 0x35000 <_ZN11ChiMetadata32TranslateToCameraPartialMetadataEP15camera_metadataPjj+0x13c>
   2c048: 81 fa ff 54  	b.ne	0x2bf98 <_ZN11ChiMetadata32TranslateToCameraPartialMetadataEP15camera_metadataPjj+0x78>
   2c060: 01 ff ff d0  	adrp	x1, 0xe000 <_ZN11ChiMetadata32TranslateToCameraPartialMetadataEP15camera_metadataPjj+0xc8>
   2c064: 02 ff ff d0  	adrp	x2, 0xe000 <_ZN11ChiMetadata32TranslateToCameraPartialMetadataEP15camera_metadataPjj+0xcc>
   2c084: c5 ff ff 17  	b	0x2bf98 <_ZN11ChiMetadata32TranslateToCameraPartialMetadataEP15camera_metadataPjj+0x78>
   2c0a8: 60 f9 ff 34  	cbz	w0, 0x2bfd4 <_ZN11ChiMetadata32TranslateToCameraPartialMetadataEP15camera_metadataPjj+0xb4>
   2c0b0: e8 06 00 36  	tbz	w8, #0, 0x2c18c <_ZN11ChiMetadata32TranslateToCameraPartialMetadataEP15camera_metadataPjj+0x26c>
   2c0b4: 4b 00 00 b0  	adrp	x11, 0x35000 <_ZN11ChiMetadata32TranslateToCameraPartialMetadataEP15camera_metadataPjj+0x1b8>
   2c0c4: 21 03 00 54  	b.ne	0x2c128 <_ZN11ChiMetadata32TranslateToCameraPartialMetadataEP15camera_metadataPjj+0x208>
   2c0f0: 01 ff ff d0  	adrp	x1, 0xe000 <_ZN11ChiMetadata32TranslateToCameraPartialMetadataEP15camera_metadataPjj+0x158>
   2c0f4: e2 fe ff f0  	adrp	x2, 0xb000 <_ZN11ChiMetadata32TranslateToCameraPartialMetadataEP15camera_metadataPjj+0x150>
   2c0f8: e5 fe ff f0  	adrp	x5, 0xb000 <_ZN11ChiMetadata32TranslateToCameraPartialMetadataEP15camera_metadataPjj+0x154>
   2c154: e0 fe ff b0  	adrp	x0, 0x9000 <_ZN11ChiMetadata32TranslateToCameraPartialMetadataEP15camera_metadataPjj+0x1a8>
   2c158: 01 ff ff d0  	adrp	x1, 0xe000 <_ZN11ChiMetadata32TranslateToCameraPartialMetadataEP15camera_metadataPjj+0x1c0>
   2c15c: e3 fe ff f0  	adrp	x3, 0xb000 <_ZN11ChiMetadata32TranslateToCameraPartialMetadataEP15camera_metadataPjj+0x1b8>
   2c160: e5 fe ff d0  	adrp	x5, 0xa000 <_ZN11ChiMetadata32TranslateToCameraPartialMetadataEP15camera_metadataPjj+0x1b8>
   2c188: c6 1f 00 94  	bl	0x340a0 <_ZN6ChiLog9LogSystemEPKcS1_S1_S1_iS1_z@plt>
   2c19c: 41 01 00 54  	b.ne	0x2c1c4 <_ZN11ChiMetadata32TranslateToCameraPartialMetadataEP15camera_metadataPjj+0x2a4>
000000000002c1c8 <_ZN11ChiMetadata25TranslateToCameraMetadataEP15camera_metadatabbjPj>:
000000000002c1f0 <_ZN11ChiMetadata17DumpDetailsToFileEPKc>:
000000000002c200 <_ZN11ChiMetadata12PrintDetailsEv>:
000000000002c210 <_ZN11ChiMetadata10InvalidateEv>:
000000000002c220 <_ZN11ChiMetadata21IsMultiCameraMetadataEv>:
000000000002c230 <_ZN11ChiMetadata14ReferenceCountEv>:
   2c274: a1 00 00 54  	b.ne	0x2c288 <_ZN11ChiMetadata14ReferenceCountEv+0x58>
000000000002c290 <_ZN11ChiMetadata12AddReferenceEPKc>:
   2c2d8: 14 15 00 b4  	cbz	x20, 0x2c578 <_ZN11ChiMetadata12AddReferenceEPKc+0x2e8>
   2c2dc: e0 14 00 35  	cbnz	w0, 0x2c578 <_ZN11ChiMetadata12AddReferenceEPKc+0x2e8>
   2c2e4: ab 07 00 b4  	cbz	x11, 0x2c3d8 <_ZN11ChiMetadata12AddReferenceEPKc+0x148>
   2c2ec: ac 07 00 b4  	cbz	x12, 0x2c3e0 <_ZN11ChiMetadata12AddReferenceEPKc+0x150>
   2c2f4: af 07 00 b4  	cbz	x15, 0x2c3e8 <_ZN11ChiMetadata12AddReferenceEPKc+0x158>
   2c2fc: b0 07 00 b4  	cbz	x16, 0x2c3f0 <_ZN11ChiMetadata12AddReferenceEPKc+0x160>
   2c304: b1 07 00 b4  	cbz	x17, 0x2c3f8 <_ZN11ChiMetadata12AddReferenceEPKc+0x168>
   2c30c: a4 07 00 b4  	cbz	x4, 0x2c400 <_ZN11ChiMetadata12AddReferenceEPKc+0x170>
   2c314: a6 07 00 b4  	cbz	x6, 0x2c408 <_ZN11ChiMetadata12AddReferenceEPKc+0x178>
   2c31c: b5 07 00 b4  	cbz	x21, 0x2c410 <_ZN11ChiMetadata12AddReferenceEPKc+0x180>
   2c324: a8 07 00 b4  	cbz	x8, 0x2c418 <_ZN11ChiMetadata12AddReferenceEPKc+0x188>
   2c32c: a7 07 00 b4  	cbz	x7, 0x2c420 <_ZN11ChiMetadata12AddReferenceEPKc+0x190>
   2c334: a2 07 00 b4  	cbz	x2, 0x2c428 <_ZN11ChiMetadata12AddReferenceEPKc+0x198>
   2c33c: a1 07 00 b4  	cbz	x1, 0x2c430 <_ZN11ChiMetadata12AddReferenceEPKc+0x1a0>
   2c344: a3 07 00 b4  	cbz	x3, 0x2c438 <_ZN11ChiMetadata12AddReferenceEPKc+0x1a8>
   2c34c: a5 07 00 b4  	cbz	x5, 0x2c440 <_ZN11ChiMetadata12AddReferenceEPKc+0x1b0>
   2c354: a0 07 00 b4  	cbz	x0, 0x2c448 <_ZN11ChiMetadata12AddReferenceEPKc+0x1b8>
   2c35c: a9 07 00 b4  	cbz	x9, 0x2c450 <_ZN11ChiMetadata12AddReferenceEPKc+0x1c0>
   2c364: aa 07 00 b4  	cbz	x10, 0x2c458 <_ZN11ChiMetadata12AddReferenceEPKc+0x1c8>
   2c36c: ab 07 00 b4  	cbz	x11, 0x2c460 <_ZN11ChiMetadata12AddReferenceEPKc+0x1d0>
   2c374: ac 07 00 b4  	cbz	x12, 0x2c468 <_ZN11ChiMetadata12AddReferenceEPKc+0x1d8>
   2c37c: ad 07 00 b4  	cbz	x13, 0x2c470 <_ZN11ChiMetadata12AddReferenceEPKc+0x1e0>
   2c384: ae 07 00 b4  	cbz	x14, 0x2c478 <_ZN11ChiMetadata12AddReferenceEPKc+0x1e8>
   2c38c: af 07 00 b4  	cbz	x15, 0x2c480 <_ZN11ChiMetadata12AddReferenceEPKc+0x1f0>
   2c394: b0 07 00 b4  	cbz	x16, 0x2c488 <_ZN11ChiMetadata12AddReferenceEPKc+0x1f8>
   2c39c: b1 07 00 b4  	cbz	x17, 0x2c490 <_ZN11ChiMetadata12AddReferenceEPKc+0x200>
   2c3a4: a4 07 00 b4  	cbz	x4, 0x2c498 <_ZN11ChiMetadata12AddReferenceEPKc+0x208>
   2c3ac: a6 07 00 b4  	cbz	x6, 0x2c4a0 <_ZN11ChiMetadata12AddReferenceEPKc+0x210>
   2c3b4: b5 07 00 b4  	cbz	x21, 0x2c4a8 <_ZN11ChiMetadata12AddReferenceEPKc+0x218>
   2c3bc: a8 07 00 b4  	cbz	x8, 0x2c4b0 <_ZN11ChiMetadata12AddReferenceEPKc+0x220>
   2c3c4: a7 07 00 b4  	cbz	x7, 0x2c4b8 <_ZN11ChiMetadata12AddReferenceEPKc+0x228>
   2c3cc: a2 07 00 b5  	cbnz	x2, 0x2c4c0 <_ZN11ChiMetadata12AddReferenceEPKc+0x230>
   2c3d4: 3a 00 00 14  	b	0x2c4bc <_ZN11ChiMetadata12AddReferenceEPKc+0x22c>
   2c3dc: 38 00 00 14  	b	0x2c4bc <_ZN11ChiMetadata12AddReferenceEPKc+0x22c>
   2c3e4: 36 00 00 14  	b	0x2c4bc <_ZN11ChiMetadata12AddReferenceEPKc+0x22c>
   2c3ec: 34 00 00 14  	b	0x2c4bc <_ZN11ChiMetadata12AddReferenceEPKc+0x22c>
   2c3f4: 32 00 00 14  	b	0x2c4bc <_ZN11ChiMetadata12AddReferenceEPKc+0x22c>
   2c3fc: 30 00 00 14  	b	0x2c4bc <_ZN11ChiMetadata12AddReferenceEPKc+0x22c>
   2c404: 2e 00 00 14  	b	0x2c4bc <_ZN11ChiMetadata12AddReferenceEPKc+0x22c>
   2c40c: 2c 00 00 14  	b	0x2c4bc <_ZN11ChiMetadata12AddReferenceEPKc+0x22c>
   2c414: 2a 00 00 14  	b	0x2c4bc <_ZN11ChiMetadata12AddReferenceEPKc+0x22c>
   2c41c: 28 00 00 14  	b	0x2c4bc <_ZN11ChiMetadata12AddReferenceEPKc+0x22c>
   2c424: 26 00 00 14  	b	0x2c4bc <_ZN11ChiMetadata12AddReferenceEPKc+0x22c>
   2c42c: 24 00 00 14  	b	0x2c4bc <_ZN11ChiMetadata12AddReferenceEPKc+0x22c>
   2c434: 22 00 00 14  	b	0x2c4bc <_ZN11ChiMetadata12AddReferenceEPKc+0x22c>
   2c43c: 20 00 00 14  	b	0x2c4bc <_ZN11ChiMetadata12AddReferenceEPKc+0x22c>
   2c444: 1e 00 00 14  	b	0x2c4bc <_ZN11ChiMetadata12AddReferenceEPKc+0x22c>
   2c44c: 1c 00 00 14  	b	0x2c4bc <_ZN11ChiMetadata12AddReferenceEPKc+0x22c>
   2c454: 1a 00 00 14  	b	0x2c4bc <_ZN11ChiMetadata12AddReferenceEPKc+0x22c>
   2c45c: 18 00 00 14  	b	0x2c4bc <_ZN11ChiMetadata12AddReferenceEPKc+0x22c>
   2c464: 16 00 00 14  	b	0x2c4bc <_ZN11ChiMetadata12AddReferenceEPKc+0x22c>
   2c46c: 14 00 00 14  	b	0x2c4bc <_ZN11ChiMetadata12AddReferenceEPKc+0x22c>
   2c474: 12 00 00 14  	b	0x2c4bc <_ZN11ChiMetadata12AddReferenceEPKc+0x22c>
   2c47c: 10 00 00 14  	b	0x2c4bc <_ZN11ChiMetadata12AddReferenceEPKc+0x22c>
   2c484: 0e 00 00 14  	b	0x2c4bc <_ZN11ChiMetadata12AddReferenceEPKc+0x22c>
   2c48c: 0c 00 00 14  	b	0x2c4bc <_ZN11ChiMetadata12AddReferenceEPKc+0x22c>
   2c494: 0a 00 00 14  	b	0x2c4bc <_ZN11ChiMetadata12AddReferenceEPKc+0x22c>
   2c49c: 08 00 00 14  	b	0x2c4bc <_ZN11ChiMetadata12AddReferenceEPKc+0x22c>
   2c4a4: 06 00 00 14  	b	0x2c4bc <_ZN11ChiMetadata12AddReferenceEPKc+0x22c>
   2c4ac: 04 00 00 14  	b	0x2c4bc <_ZN11ChiMetadata12AddReferenceEPKc+0x22c>
   2c4b4: 02 00 00 14  	b	0x2c4bc <_ZN11ChiMetadata12AddReferenceEPKc+0x22c>
   2c4c0: 48 00 00 b0  	adrp	x8, 0x35000 <_ZN11ChiMetadata12AddReferenceEPKc+0x254>
   2c4cc: 68 05 28 36  	tbz	w8, #5, 0x2c578 <_ZN11ChiMetadata12AddReferenceEPKc+0x2e8>
   2c4d0: 49 00 00 b0  	adrp	x9, 0x35000 <_ZN11ChiMetadata12AddReferenceEPKc+0x264>
   2c4d4: 15 ff ff 90  	adrp	x21, 0xc000 <_ZN11ChiMetadata12AddReferenceEPKc+0x1c4>
   2c4e8: 41 02 00 54  	b.ne	0x2c530 <_ZN11ChiMetadata12AddReferenceEPKc+0x2a0>
   2c504: 01 ff ff d0  	adrp	x1, 0xe000 <_ZN11ChiMetadata12AddReferenceEPKc+0x1fc>
   2c508: e2 fe ff b0  	adrp	x2, 0x9000 <_ZN11ChiMetadata12AddReferenceEPKc+0x1ec>
   2c50c: 05 ff ff f0  	adrp	x5, 0xf000 <_ZN11ChiMetadata12AddReferenceEPKc+0x208>
   2c54c: 00 ff ff d0  	adrp	x0, 0xe000 <_ZN11ChiMetadata12AddReferenceEPKc+0x244>
   2c550: 01 ff ff 90  	adrp	x1, 0xc000 <_ZN11ChiMetadata12AddReferenceEPKc+0x240>
   2c554: 03 ff ff f0  	adrp	x3, 0xf000 <_ZN11ChiMetadata12AddReferenceEPKc+0x250>
   2c558: e5 fe ff b0  	adrp	x5, 0x9000 <_ZN11ChiMetadata12AddReferenceEPKc+0x23c>
   2c574: cb 1e 00 94  	bl	0x340a0 <_ZN6ChiLog9LogSystemEPKcS1_S1_S1_iS1_z@plt>
   2c580: 60 00 00 54  	b.eq	0x2c58c <_ZN11ChiMetadata12AddReferenceEPKc+0x2fc>
   2c584: c7 1f 00 94  	bl	0x344a0 <_ZNSt3__16chrono12steady_clock3nowEv@plt>
   2c59c: c1 00 00 54  	b.ne	0x2c5b4 <_ZN11ChiMetadata12AddReferenceEPKc+0x324>
000000000002c5b8 <_ZN11ChiMetadata16ReleaseReferenceEPKc>:
   2c600: d3 18 00 b4  	cbz	x19, 0x2c918 <_ZN11ChiMetadata16ReleaseReferenceEPKc+0x360>
   2c604: a0 18 00 35  	cbnz	w0, 0x2c918 <_ZN11ChiMetadata16ReleaseReferenceEPKc+0x360>
   2c610: 40 0b 00 54  	b.eq	0x2c778 <_ZN11ChiMetadata16ReleaseReferenceEPKc+0x1c0>
   2c61c: 20 0b 00 54  	b.eq	0x2c780 <_ZN11ChiMetadata16ReleaseReferenceEPKc+0x1c8>
   2c628: 00 0b 00 54  	b.eq	0x2c788 <_ZN11ChiMetadata16ReleaseReferenceEPKc+0x1d0>
   2c634: e0 0a 00 54  	b.eq	0x2c790 <_ZN11ChiMetadata16ReleaseReferenceEPKc+0x1d8>
   2c640: c0 0a 00 54  	b.eq	0x2c798 <_ZN11ChiMetadata16ReleaseReferenceEPKc+0x1e0>
   2c64c: a0 0a 00 54  	b.eq	0x2c7a0 <_ZN11ChiMetadata16ReleaseReferenceEPKc+0x1e8>
   2c658: 80 0a 00 54  	b.eq	0x2c7a8 <_ZN11ChiMetadata16ReleaseReferenceEPKc+0x1f0>
   2c664: 60 0a 00 54  	b.eq	0x2c7b0 <_ZN11ChiMetadata16ReleaseReferenceEPKc+0x1f8>
   2c670: 40 0a 00 54  	b.eq	0x2c7b8 <_ZN11ChiMetadata16ReleaseReferenceEPKc+0x200>
   2c67c: 20 0a 00 54  	b.eq	0x2c7c0 <_ZN11ChiMetadata16ReleaseReferenceEPKc+0x208>
   2c688: 00 0a 00 54  	b.eq	0x2c7c8 <_ZN11ChiMetadata16ReleaseReferenceEPKc+0x210>
   2c694: e0 09 00 54  	b.eq	0x2c7d0 <_ZN11ChiMetadata16ReleaseReferenceEPKc+0x218>
   2c6a0: c0 09 00 54  	b.eq	0x2c7d8 <_ZN11ChiMetadata16ReleaseReferenceEPKc+0x220>
   2c6ac: a0 09 00 54  	b.eq	0x2c7e0 <_ZN11ChiMetadata16ReleaseReferenceEPKc+0x228>
   2c6b8: 80 09 00 54  	b.eq	0x2c7e8 <_ZN11ChiMetadata16ReleaseReferenceEPKc+0x230>
   2c6c4: 60 09 00 54  	b.eq	0x2c7f0 <_ZN11ChiMetadata16ReleaseReferenceEPKc+0x238>
   2c6d0: 40 09 00 54  	b.eq	0x2c7f8 <_ZN11ChiMetadata16ReleaseReferenceEPKc+0x240>
   2c6dc: 20 09 00 54  	b.eq	0x2c800 <_ZN11ChiMetadata16ReleaseReferenceEPKc+0x248>
   2c6e8: 00 09 00 54  	b.eq	0x2c808 <_ZN11ChiMetadata16ReleaseReferenceEPKc+0x250>
   2c6f4: e0 08 00 54  	b.eq	0x2c810 <_ZN11ChiMetadata16ReleaseReferenceEPKc+0x258>
   2c700: c0 08 00 54  	b.eq	0x2c818 <_ZN11ChiMetadata16ReleaseReferenceEPKc+0x260>
   2c70c: a0 08 00 54  	b.eq	0x2c820 <_ZN11ChiMetadata16ReleaseReferenceEPKc+0x268>
   2c718: 80 08 00 54  	b.eq	0x2c828 <_ZN11ChiMetadata16ReleaseReferenceEPKc+0x270>
   2c724: 60 08 00 54  	b.eq	0x2c830 <_ZN11ChiMetadata16ReleaseReferenceEPKc+0x278>
   2c730: 40 08 00 54  	b.eq	0x2c838 <_ZN11ChiMetadata16ReleaseReferenceEPKc+0x280>
   2c73c: 20 08 00 54  	b.eq	0x2c840 <_ZN11ChiMetadata16ReleaseReferenceEPKc+0x288>
   2c748: 00 08 00 54  	b.eq	0x2c848 <_ZN11ChiMetadata16ReleaseReferenceEPKc+0x290>
   2c754: e0 07 00 54  	b.eq	0x2c850 <_ZN11ChiMetadata16ReleaseReferenceEPKc+0x298>
   2c760: c0 07 00 54  	b.eq	0x2c858 <_ZN11ChiMetadata16ReleaseReferenceEPKc+0x2a0>
   2c76c: a1 07 00 54  	b.ne	0x2c860 <_ZN11ChiMetadata16ReleaseReferenceEPKc+0x2a8>
   2c774: 3a 00 00 14  	b	0x2c85c <_ZN11ChiMetadata16ReleaseReferenceEPKc+0x2a4>
   2c77c: 38 00 00 14  	b	0x2c85c <_ZN11ChiMetadata16ReleaseReferenceEPKc+0x2a4>
   2c784: 36 00 00 14  	b	0x2c85c <_ZN11ChiMetadata16ReleaseReferenceEPKc+0x2a4>
   2c78c: 34 00 00 14  	b	0x2c85c <_ZN11ChiMetadata16ReleaseReferenceEPKc+0x2a4>
   2c794: 32 00 00 14  	b	0x2c85c <_ZN11ChiMetadata16ReleaseReferenceEPKc+0x2a4>
   2c79c: 30 00 00 14  	b	0x2c85c <_ZN11ChiMetadata16ReleaseReferenceEPKc+0x2a4>
   2c7a4: 2e 00 00 14  	b	0x2c85c <_ZN11ChiMetadata16ReleaseReferenceEPKc+0x2a4>
   2c7ac: 2c 00 00 14  	b	0x2c85c <_ZN11ChiMetadata16ReleaseReferenceEPKc+0x2a4>
   2c7b4: 2a 00 00 14  	b	0x2c85c <_ZN11ChiMetadata16ReleaseReferenceEPKc+0x2a4>
   2c7bc: 28 00 00 14  	b	0x2c85c <_ZN11ChiMetadata16ReleaseReferenceEPKc+0x2a4>
   2c7c4: 26 00 00 14  	b	0x2c85c <_ZN11ChiMetadata16ReleaseReferenceEPKc+0x2a4>
   2c7cc: 24 00 00 14  	b	0x2c85c <_ZN11ChiMetadata16ReleaseReferenceEPKc+0x2a4>
   2c7d4: 22 00 00 14  	b	0x2c85c <_ZN11ChiMetadata16ReleaseReferenceEPKc+0x2a4>
   2c7dc: 20 00 00 14  	b	0x2c85c <_ZN11ChiMetadata16ReleaseReferenceEPKc+0x2a4>
   2c7e4: 1e 00 00 14  	b	0x2c85c <_ZN11ChiMetadata16ReleaseReferenceEPKc+0x2a4>
   2c7ec: 1c 00 00 14  	b	0x2c85c <_ZN11ChiMetadata16ReleaseReferenceEPKc+0x2a4>
   2c7f4: 1a 00 00 14  	b	0x2c85c <_ZN11ChiMetadata16ReleaseReferenceEPKc+0x2a4>
   2c7fc: 18 00 00 14  	b	0x2c85c <_ZN11ChiMetadata16ReleaseReferenceEPKc+0x2a4>
   2c804: 16 00 00 14  	b	0x2c85c <_ZN11ChiMetadata16ReleaseReferenceEPKc+0x2a4>
   2c80c: 14 00 00 14  	b	0x2c85c <_ZN11ChiMetadata16ReleaseReferenceEPKc+0x2a4>
   2c814: 12 00 00 14  	b	0x2c85c <_ZN11ChiMetadata16ReleaseReferenceEPKc+0x2a4>
   2c81c: 10 00 00 14  	b	0x2c85c <_ZN11ChiMetadata16ReleaseReferenceEPKc+0x2a4>
   2c824: 0e 00 00 14  	b	0x2c85c <_ZN11ChiMetadata16ReleaseReferenceEPKc+0x2a4>
   2c82c: 0c 00 00 14  	b	0x2c85c <_ZN11ChiMetadata16ReleaseReferenceEPKc+0x2a4>
   2c834: 0a 00 00 14  	b	0x2c85c <_ZN11ChiMetadata16ReleaseReferenceEPKc+0x2a4>
   2c83c: 08 00 00 14  	b	0x2c85c <_ZN11ChiMetadata16ReleaseReferenceEPKc+0x2a4>
   2c844: 06 00 00 14  	b	0x2c85c <_ZN11ChiMetadata16ReleaseReferenceEPKc+0x2a4>
   2c84c: 04 00 00 14  	b	0x2c85c <_ZN11ChiMetadata16ReleaseReferenceEPKc+0x2a4>
   2c854: 02 00 00 14  	b	0x2c85c <_ZN11ChiMetadata16ReleaseReferenceEPKc+0x2a4>
   2c860: 48 00 00 b0  	adrp	x8, 0x35000 <_ZN11ChiMetadata16ReleaseReferenceEPKc+0x2cc>
   2c86c: 68 05 28 36  	tbz	w8, #5, 0x2c918 <_ZN11ChiMetadata16ReleaseReferenceEPKc+0x360>
   2c870: 49 00 00 b0  	adrp	x9, 0x35000 <_ZN11ChiMetadata16ReleaseReferenceEPKc+0x2dc>
   2c874: 15 ff ff 90  	adrp	x21, 0xc000 <_ZN11ChiMetadata16ReleaseReferenceEPKc+0x23c>
   2c888: 41 02 00 54  	b.ne	0x2c8d0 <_ZN11ChiMetadata16ReleaseReferenceEPKc+0x318>
   2c8a4: 01 ff ff d0  	adrp	x1, 0xe000 <_ZN11ChiMetadata16ReleaseReferenceEPKc+0x274>
   2c8a8: 02 ff ff d0  	adrp	x2, 0xe000 <_ZN11ChiMetadata16ReleaseReferenceEPKc+0x278>
   2c8ac: e5 fe ff d0  	adrp	x5, 0xa000 <_ZN11ChiMetadata16ReleaseReferenceEPKc+0x26c>
   2c8ec: 00 ff ff d0  	adrp	x0, 0xe000 <_ZN11ChiMetadata16ReleaseReferenceEPKc+0x2bc>
   2c8f0: 01 ff ff 90  	adrp	x1, 0xc000 <_ZN11ChiMetadata16ReleaseReferenceEPKc+0x2b8>
   2c8f4: e3 fe ff d0  	adrp	x3, 0xa000 <_ZN11ChiMetadata16ReleaseReferenceEPKc+0x2b4>
   2c8f8: 05 ff ff 90  	adrp	x5, 0xc000 <_ZN11ChiMetadata16ReleaseReferenceEPKc+0x2c0>
   2c914: e3 1d 00 94  	bl	0x340a0 <_ZN6ChiLog9LogSystemEPKcS1_S1_S1_iS1_z@plt>
   2c928: c1 00 00 54  	b.ne	0x2c940 <_ZN11ChiMetadata16ReleaseReferenceEPKc+0x388>
000000000002c948 <_ZN11ChiMetadata20ReleaseAllReferencesEi>:
000000000002c958 <_ZN11ChiMetadata8IteratorC2ERS_>:
000000000002c978 <_ZN11ChiMetadata8IteratorD2Ev>:
000000000002c988 <_ZN11ChiMetadata8Iterator5BeginEv>:
000000000002c9b0 <_ZN11ChiMetadata8Iterator4NextEv>:
000000000002c9d8 <_ZN11ChiMetadata8Iterator3GetER16ChiMetadataEntry>:
000000000002ca00 <_ZN11ChiMetadata19DumpAndroidMetadataEPK15camera_metadataPKc>:
   2ca0c: 40 02 00 b4  	cbz	x0, 0x2ca54 <_ZN11ChiMetadata19DumpAndroidMetadataEPK15camera_metadataPKc+0x54>
   2ca10: 21 02 00 b4  	cbz	x1, 0x2ca54 <_ZN11ChiMetadata19DumpAndroidMetadataEPK15camera_metadataPKc+0x54>
   2ca2c: 40 01 f8 37  	tbnz	w0, #31, 0x2ca54 <_ZN11ChiMetadata19DumpAndroidMetadataEPK15camera_metadataPKc+0x54>
000000000002ca60 <_ZN18ChiMetadataManager10MetaClientC2Ev>:
   2cb0c: a3 fb ff 54  	b.lo	0x2ca80 <_ZN18ChiMetadataManager10MetaClientC2Ev+0x20>
000000000002cbc8 <_ZN18ChiMetadataManager10MetaClientD2Ev>:
   2cbd8: 56 1f 00 94  	bl	0x34930 <_ZN18ChiMetadataManager10MetaClient14ReleaseBuffersEv@plt>
   2cbe0: a0 00 00 b4  	cbz	x0, 0x2cbf4 <_ZN18ChiMetadataManager10MetaClientD2Ev+0x2c>
   2cbf0: b4 ff ff b5  	cbnz	x20, 0x2cbe4 <_ZN18ChiMetadataManager10MetaClientD2Ev+0x1c>
   2cbfc: 40 00 00 b4  	cbz	x0, 0x2cc04 <_ZN18ChiMetadataManager10MetaClientD2Ev+0x3c>
   2cc08: 42 1e 00 94  	bl	0x34510 <_ZNSt3__15mutexD1Ev@plt>
   2cc10: a0 00 00 b4  	cbz	x0, 0x2cc24 <_ZN18ChiMetadataManager10MetaClientD2Ev+0x5c>
000000000002cc30 <_ZN18ChiMetadataManager10MetaClient14ReleaseBuffersEv>:
   2cc50: 5c 00 00 b0  	adrp	x28, 0x35000 <_ZN18ChiMetadataManager10MetaClient14ReleaseBuffersEv+0x44>
   2cc54: 1b ff ff 90  	adrp	x27, 0xc000 <_ZN18ChiMetadataManager10MetaClientD2Ev+0xc>
   2cc68: a9 06 18 36  	tbz	w9, #3, 0x2cd3c <_ZN18ChiMetadataManager10MetaClient14ReleaseBuffersEv+0x10c>
   2cc6c: 49 00 00 b0  	adrp	x9, 0x35000 <_ZN18ChiMetadataManager10MetaClient14ReleaseBuffersEv+0x60>
   2cc7c: 01 03 00 54  	b.ne	0x2ccdc <_ZN18ChiMetadataManager10MetaClient14ReleaseBuffersEv+0xac>
   2cc98: 01 ff ff d0  	adrp	x1, 0xe000 <_ZN18ChiMetadataManager10MetaClientD2Ev+0x58>
   2cca0: e2 fe ff d0  	adrp	x2, 0xa000 <_ZN18ChiMetadataManager10MetaClientD2Ev+0x50>
   2cca8: e5 fe ff b0  	adrp	x5, 0x9000 <_ZN18ChiMetadataManager10MetaClientD2Ev+0x54>
   2ccf4: 01 ff ff 90  	adrp	x1, 0xc000 <_ZN18ChiMetadataManager10MetaClient14ReleaseBuffersEv+0x44>
   2cd04: 00 ff ff f0  	adrp	x0, 0xf000 <_ZN18ChiMetadataManager10MetaClient14ReleaseBuffersEv+0x60>
   2cd08: e3 fe ff b0  	adrp	x3, 0x9000 <_ZN18ChiMetadataManager10MetaClient14ReleaseBuffersEv+0x4c>
   2cd0c: 05 ff ff f0  	adrp	x5, 0xf000 <_ZN18ChiMetadataManager10MetaClient14ReleaseBuffersEv+0x68>
   2cd38: da 1c 00 94  	bl	0x340a0 <_ZN6ChiLog9LogSystemEPKcS1_S1_S1_iS1_z@plt>
   2cd44: 61 01 00 54  	b.ne	0x2cd70 <_ZN18ChiMetadataManager10MetaClient14ReleaseBuffersEv+0x140>
   2cd84: 09 00 00 14  	b	0x2cda8 <_ZN18ChiMetadataManager10MetaClient14ReleaseBuffersEv+0x178>
   2cda4: 42 fd ff 54  	b.hs	0x2cd4c <_ZN18ChiMetadataManager10MetaClient14ReleaseBuffersEv+0x11c>
   2cdb0: d3 fe ff b4  	cbz	x19, 0x2cd88 <_ZN18ChiMetadataManager10MetaClient14ReleaseBuffersEv+0x158>
   2cdc8: 00 0b 00 34  	cbz	w0, 0x2cf28 <_ZN18ChiMetadataManager10MetaClient14ReleaseBuffersEv+0x2f8>
   2cdd4: 88 05 00 36  	tbz	w8, #0, 0x2ce84 <_ZN18ChiMetadataManager10MetaClient14ReleaseBuffersEv+0x254>
   2cdd8: 4a 00 00 b0  	adrp	x10, 0x35000 <_ZN18ChiMetadataManager10MetaClient14ReleaseBuffersEv+0x1cc>
   2cde8: 61 02 00 54  	b.ne	0x2ce34 <_ZN18ChiMetadataManager10MetaClient14ReleaseBuffersEv+0x204>
   2ce04: 01 ff ff d0  	adrp	x1, 0xe000 <_ZN18ChiMetadataManager10MetaClient14ReleaseBuffersEv+0x15c>
   2ce08: e2 fe ff d0  	adrp	x2, 0xa000 <_ZN18ChiMetadataManager10MetaClient14ReleaseBuffersEv+0x150>
   2ce0c: 05 ff ff 90  	adrp	x5, 0xc000 <_ZN18ChiMetadataManager10MetaClient14ReleaseBuffersEv+0x15c>
   2ce50: e0 fe ff b0  	adrp	x0, 0x9000 <_ZN18ChiMetadataManager10MetaClient14ReleaseBuffersEv+0x194>
   2ce54: 01 ff ff d0  	adrp	x1, 0xe000 <_ZN18ChiMetadataManager10MetaClient14ReleaseBuffersEv+0x1ac>
   2ce58: 03 ff ff 90  	adrp	x3, 0xc000 <_ZN18ChiMetadataManager10MetaClient14ReleaseBuffersEv+0x1a8>
   2ce5c: e5 fe ff d0  	adrp	x5, 0xa000 <_ZN18ChiMetadataManager10MetaClient14ReleaseBuffersEv+0x1a4>
   2ce7c: 89 1c 00 94  	bl	0x340a0 <_ZN6ChiLog9LogSystemEPKcS1_S1_S1_iS1_z@plt>
   2ce84: 48 f8 07 36  	tbz	w8, #0, 0x2cd8c <_ZN18ChiMetadataManager10MetaClient14ReleaseBuffersEv+0x15c>
   2ce88: 48 00 00 b0  	adrp	x8, 0x35000 <_ZN18ChiMetadataManager10MetaClient14ReleaseBuffersEv+0x27c>
   2ce9c: 21 02 00 54  	b.ne	0x2cee0 <_ZN18ChiMetadataManager10MetaClient14ReleaseBuffersEv+0x2b0>
   2ceb4: 01 ff ff d0  	adrp	x1, 0xe000 <_ZN18ChiMetadataManager10MetaClient14ReleaseBuffersEv+0x20c>
   2ceb8: e2 fe ff f0  	adrp	x2, 0xb000 <_ZN18ChiMetadataManager10MetaClient14ReleaseBuffersEv+0x204>
   2cebc: e5 fe ff b0  	adrp	x5, 0x9000 <_ZN18ChiMetadataManager10MetaClient14ReleaseBuffersEv+0x200>
   2cef4: 01 ff ff d0  	adrp	x1, 0xe000 <_ZN18ChiMetadataManager10MetaClient14ReleaseBuffersEv+0x24c>
   2cefc: e0 fe ff b0  	adrp	x0, 0x9000 <_ZN18ChiMetadataManager10MetaClient14ReleaseBuffersEv+0x240>
   2cf00: e3 fe ff b0  	adrp	x3, 0x9000 <_ZN18ChiMetadataManager10MetaClient14ReleaseBuffersEv+0x244>
   2cf04: 05 ff ff b0  	adrp	x5, 0xd000 <_ZN18ChiMetadataManager10MetaClient14ReleaseBuffersEv+0x258>
   2cf20: 60 1c 00 94  	bl	0x340a0 <_ZN6ChiLog9LogSystemEPKcS1_S1_S1_iS1_z@plt>
   2cf24: 9a ff ff 17  	b	0x2cd8c <_ZN18ChiMetadataManager10MetaClient14ReleaseBuffersEv+0x15c>
   2cf38: 95 ff ff 17  	b	0x2cd8c <_ZN18ChiMetadataManager10MetaClient14ReleaseBuffersEv+0x15c>
000000000002cf40 <_ZN18ChiMetadataManager10MetaClient12TrackBuffersERNSt3__16chrono10time_pointINS2_12steady_clockENS2_8durationIxNS1_5ratioILl1ELl1000000000EEEEEEEj>:
   2cf70: a0 00 00 54  	b.eq	0x2cf84 <_ZN18ChiMetadataManager10MetaClient12TrackBuffersERNSt3__16chrono10time_pointINS2_12steady_clockENS2_8durationIxNS1_5ratioILl1ELl1000000000EEEEEEEj+0x44>
   2cf80: a1 01 00 54  	b.ne	0x2cfb4 <_ZN18ChiMetadataManager10MetaClient12TrackBuffersERNSt3__16chrono10time_pointINS2_12steady_clockENS2_8durationIxNS1_5ratioILl1ELl1000000000EEEEEEEj+0x74>
   2cf90: 01 12 00 54  	b.ne	0x2d1d0 <_ZN18ChiMetadataManager10MetaClient12TrackBuffersERNSt3__16chrono10time_pointINS2_12steady_clockENS2_8durationIxNS1_5ratioILl1ELl1000000000EEEEEEEj+0x290>
   2cfb4: 57 00 00 b0  	adrp	x23, 0x35000 <_ZN18ChiMetadataManager10MetaClient12TrackBuffersERNSt3__16chrono10time_pointINS2_12steady_clockENS2_8durationIxNS1_5ratioILl1ELl1000000000EEEEEEEj+0x98>
   2cfe8: 39 00 00 14  	b	0x2d0cc <_ZN18ChiMetadataManager10MetaClient12TrackBuffersERNSt3__16chrono10time_pointINS2_12steady_clockENS2_8durationIxNS1_5ratioILl1ELl1000000000EEEEEEEj+0x18c>
   2cfec: 1a ff ff 90  	adrp	x26, 0xc000 <_ZN18ChiMetadataManager10MetaClient12TrackBuffersERNSt3__16chrono10time_pointINS2_12steady_clockENS2_8durationIxNS1_5ratioILl1ELl1000000000EEEEEEEj+0x2c>
   2d03c: 00 ff ff b0  	adrp	x0, 0xe000 <_ZN18ChiMetadataManager10MetaClient12TrackBuffersERNSt3__16chrono10time_pointINS2_12steady_clockENS2_8durationIxNS1_5ratioILl1ELl1000000000EEEEEEEj+0x80>
   2d040: e1 fe ff f0  	adrp	x1, 0xc000 <_ZN18ChiMetadataManager10MetaClient12TrackBuffersERNSt3__16chrono10time_pointINS2_12steady_clockENS2_8durationIxNS1_5ratioILl1ELl1000000000EEEEEEEj+0x7c>
   2d044: e3 fe ff 90  	adrp	x3, 0x9000 <_ZN18ChiMetadataManager10MetaClient12TrackBuffersERNSt3__16chrono10time_pointINS2_12steady_clockENS2_8durationIxNS1_5ratioILl1ELl1000000000EEEEEEEj+0x74>
   2d048: 05 ff ff d0  	adrp	x5, 0xf000 <_ZN18ChiMetadataManager10MetaClient12TrackBuffersERNSt3__16chrono10time_pointINS2_12steady_clockENS2_8durationIxNS1_5ratioILl1ELl1000000000EEEEEEEj+0x90>
   2d084: 07 1c 00 94  	bl	0x340a0 <_ZN6ChiLog9LogSystemEPKcS1_S1_S1_iS1_z@plt>
   2d088: 57 00 00 90  	adrp	x23, 0x35000 <_ZN18ChiMetadataManager10MetaClient12TrackBuffersERNSt3__16chrono10time_pointINS2_12steady_clockENS2_8durationIxNS1_5ratioILl1ELl1000000000EEEEEEEj+0x168>
   2d0c8: e2 f5 ff 54  	b.hs	0x2cf84 <_ZN18ChiMetadataManager10MetaClient12TrackBuffersERNSt3__16chrono10time_pointINS2_12steady_clockENS2_8durationIxNS1_5ratioILl1ELl1000000000EEEEEEEj+0x44>
   2d0d4: 08 ff ff 35  	cbnz	w8, 0x2d0b4 <_ZN18ChiMetadataManager10MetaClient12TrackBuffersERNSt3__16chrono10time_pointINS2_12steady_clockENS2_8durationIxNS1_5ratioILl1ELl1000000000EEEEEEEj+0x174>
   2d118: e0 fc ff 54  	b.eq	0x2d0b4 <_ZN18ChiMetadataManager10MetaClient12TrackBuffersERNSt3__16chrono10time_pointINS2_12steady_clockENS2_8durationIxNS1_5ratioILl1ELl1000000000EEEEEEEj+0x174>
   2d120: 2a fc 2f 36  	tbz	w10, #5, 0x2d0a4 <_ZN18ChiMetadataManager10MetaClient12TrackBuffersERNSt3__16chrono10time_pointINS2_12steady_clockENS2_8durationIxNS1_5ratioILl1ELl1000000000EEEEEEEj+0x164>
   2d124: 4a 00 00 90  	adrp	x10, 0x35000 <_ZN18ChiMetadataManager10MetaClient12TrackBuffersERNSt3__16chrono10time_pointINS2_12steady_clockENS2_8durationIxNS1_5ratioILl1ELl1000000000EEEEEEEj+0x204>
   2d138: a1 f5 ff 54  	b.ne	0x2cfec <_ZN18ChiMetadataManager10MetaClient12TrackBuffersERNSt3__16chrono10time_pointINS2_12steady_clockENS2_8durationIxNS1_5ratioILl1ELl1000000000EEEEEEEj+0xac>
   2d13c: f9 fe ff f0  	adrp	x25, 0xc000 <_ZN18ChiMetadataManager10MetaClient12TrackBuffersERNSt3__16chrono10time_pointINS2_12steady_clockENS2_8durationIxNS1_5ratioILl1ELl1000000000EEEEEEEj+0x178>
   2d18c: 01 ff ff b0  	adrp	x1, 0xe000 <_ZN18ChiMetadataManager10MetaClient12TrackBuffersERNSt3__16chrono10time_pointINS2_12steady_clockENS2_8durationIxNS1_5ratioILl1ELl1000000000EEEEEEEj+0x1d0>
   2d190: 02 ff ff b0  	adrp	x2, 0xe000 <_ZN18ChiMetadataManager10MetaClient12TrackBuffersERNSt3__16chrono10time_pointINS2_12steady_clockENS2_8durationIxNS1_5ratioILl1ELl1000000000EEEEEEEj+0x1d4>
   2d194: e5 fe ff 90  	adrp	x5, 0x9000 <_ZN18ChiMetadataManager10MetaClient12TrackBuffersERNSt3__16chrono10time_pointINS2_12steady_clockENS2_8durationIxNS1_5ratioILl1ELl1000000000EEEEEEEj+0x1c4>
   2d1cc: 88 ff ff 17  	b	0x2cfec <_ZN18ChiMetadataManager10MetaClient12TrackBuffersERNSt3__16chrono10time_pointINS2_12steady_clockENS2_8durationIxNS1_5ratioILl1ELl1000000000EEEEEEEj+0xac>
000000000002d1d8 <_ZN18ChiMetadataManager10MetaClient9SubClientC2Ev>:
000000000002d1e8 <_ZN18ChiMetadataManager10MetaClient10MetaHolderC2EP11ChiMetadata>:
000000000002d1f8 <_ZN18ChiMetadataManager10MetaClient15AllocateBuffersEPjjjjj>:
   2d218: 53 00 00 90  	adrp	x19, 0x35000 <_ZN18ChiMetadataManager10MetaClient15AllocateBuffersEPjjjjj+0x40>
   2d240: 43 1c 00 34  	cbz	w3, 0x2d5c8 <_ZN18ChiMetadataManager10MetaClient15AllocateBuffersEPjjjjj+0x3d0>
   2d25c: a2 21 00 54  	b.hs	0x2d690 <_ZN18ChiMetadataManager10MetaClient15AllocateBuffersEPjjjjj+0x498>
   2d278: 56 02 00 b4  	cbz	x22, 0x2d2c0 <_ZN18ChiMetadataManager10MetaClient15AllocateBuffersEPjjjjj+0xc8>
   2d27c: 39 02 00 34  	cbz	w25, 0x2d2c0 <_ZN18ChiMetadataManager10MetaClient15AllocateBuffersEPjjjjj+0xc8>
   2d288: 70 00 00 14  	b	0x2d448 <_ZN18ChiMetadataManager10MetaClient15AllocateBuffersEPjjjjj+0x250>
   2d2bc: a2 1f 00 54  	b.hs	0x2d6b0 <_ZN18ChiMetadataManager10MetaClient15AllocateBuffersEPjjjjj+0x4b8>
   2d2d0: 20 1f 00 b4  	cbz	x0, 0x2d6b4 <_ZN18ChiMetadataManager10MetaClient15AllocateBuffersEPjjjjj+0x4bc>
   2d2dc: 65 1d 00 94  	bl	0x34870 <_ZN11ChiMetadata21InitializeMetadataOpsEP14ChiMetadataOps@plt>
   2d2e0: 00 1e 00 35  	cbnz	w0, 0x2d6a0 <_ZN18ChiMetadataManager10MetaClient15AllocateBuffersEPjjjjj+0x4a8>
   2d340: 00 1b 00 35  	cbnz	w0, 0x2d6a0 <_ZN18ChiMetadataManager10MetaClient15AllocateBuffersEPjjjjj+0x4a8>
   2d354: c3 f9 ff 54  	b.lo	0x2d28c <_ZN18ChiMetadataManager10MetaClient15AllocateBuffersEPjjjjj+0x94>
   2d36c: c2 28 00 b5  	cbnz	x2, 0x2d884 <_ZN18ChiMetadataManager10MetaClient15AllocateBuffersEPjjjjj+0x68c>
   2d390: 1c 01 00 b4  	cbz	x28, 0x2d3b0 <_ZN18ChiMetadataManager10MetaClient15AllocateBuffersEPjjjjj+0x1b8>
   2d398: a9 27 00 b5  	cbnz	x9, 0x2d88c <_ZN18ChiMetadataManager10MetaClient15AllocateBuffersEPjjjjj+0x694>
   2d3ac: 02 00 00 14  	b	0x2d3b4 <_ZN18ChiMetadataManager10MetaClient15AllocateBuffersEPjjjjj+0x1bc>
   2d3e4: ab 00 00 54  	b.lt	0x2d3f8 <_ZN18ChiMetadataManager10MetaClient15AllocateBuffersEPjjjjj+0x200>
   2d404: 99 f5 ff b4  	cbz	x25, 0x2d2b4 <_ZN18ChiMetadataManager10MetaClient15AllocateBuffersEPjjjjj+0xbc>
   2d410: a9 ff ff 17  	b	0x2d2b4 <_ZN18ChiMetadataManager10MetaClient15AllocateBuffersEPjjjjj+0xbc>
   2d444: 62 13 00 54  	b.hs	0x2d6b0 <_ZN18ChiMetadataManager10MetaClient15AllocateBuffersEPjjjjj+0x4b8>
   2d458: e0 12 00 b4  	cbz	x0, 0x2d6b4 <_ZN18ChiMetadataManager10MetaClient15AllocateBuffersEPjjjjj+0x4bc>
   2d464: 03 1d 00 94  	bl	0x34870 <_ZN11ChiMetadata21InitializeMetadataOpsEP14ChiMetadataOps@plt>
   2d468: c0 11 00 35  	cbnz	w0, 0x2d6a0 <_ZN18ChiMetadataManager10MetaClient15AllocateBuffersEPjjjjj+0x4a8>
   2d4cc: a0 0e 00 35  	cbnz	w0, 0x2d6a0 <_ZN18ChiMetadataManager10MetaClient15AllocateBuffersEPjjjjj+0x4a8>
   2d4e0: a3 f9 ff 54  	b.lo	0x2d414 <_ZN18ChiMetadataManager10MetaClient15AllocateBuffersEPjjjjj+0x21c>
   2d500: 2f 1c 00 b5  	cbnz	x15, 0x2d884 <_ZN18ChiMetadataManager10MetaClient15AllocateBuffersEPjjjjj+0x68c>
   2d52c: 19 01 00 b4  	cbz	x25, 0x2d54c <_ZN18ChiMetadataManager10MetaClient15AllocateBuffersEPjjjjj+0x354>
   2d534: c6 1a 00 b5  	cbnz	x6, 0x2d88c <_ZN18ChiMetadataManager10MetaClient15AllocateBuffersEPjjjjj+0x694>
   2d548: 02 00 00 14  	b	0x2d550 <_ZN18ChiMetadataManager10MetaClient15AllocateBuffersEPjjjjj+0x358>
   2d57c: ab 00 00 54  	b.lt	0x2d590 <_ZN18ChiMetadataManager10MetaClient15AllocateBuffersEPjjjjj+0x398>
   2d5b8: 3b f4 ff b4  	cbz	x27, 0x2d43c <_ZN18ChiMetadataManager10MetaClient15AllocateBuffersEPjjjjj+0x244>
   2d5c4: 9e ff ff 17  	b	0x2d43c <_ZN18ChiMetadataManager10MetaClient15AllocateBuffersEPjjjjj+0x244>
   2d5cc: e6 05 00 36  	tbz	w6, #0, 0x2d688 <_ZN18ChiMetadataManager10MetaClient15AllocateBuffersEPjjjjj+0x490>
   2d5d0: 43 00 00 90  	adrp	x3, 0x35000 <_ZN18ChiMetadataManager10MetaClient15AllocateBuffersEPjjjjj+0x3f8>
   2d5e0: a1 02 00 54  	b.ne	0x2d634 <_ZN18ChiMetadataManager10MetaClient15AllocateBuffersEPjjjjj+0x43c>
   2d5e4: fb fe ff f0  	adrp	x27, 0xc000 <_ZN18ChiMetadataManager10MetaClient15AllocateBuffersEPjjjjj+0x368>
   2d600: 01 ff ff b0  	adrp	x1, 0xe000 <_ZN18ChiMetadataManager10MetaClient15AllocateBuffersEPjjjjj+0x38c>
   2d604: e2 fe ff f0  	adrp	x2, 0xc000 <_ZN18ChiMetadataManager10MetaClient15AllocateBuffersEPjjjjj+0x388>
   2d608: e5 fe ff b0  	adrp	x5, 0xa000 <_ZN18ChiMetadataManager10MetaClient15AllocateBuffersEPjjjjj+0x384>
   2d634: fc fe ff f0  	adrp	x28, 0xc000 <_ZN18ChiMetadataManager10MetaClient15AllocateBuffersEPjjjjj+0x3b8>
   2d650: 01 ff ff b0  	adrp	x1, 0xe000 <_ZN18ChiMetadataManager10MetaClient15AllocateBuffersEPjjjjj+0x3dc>
   2d658: e0 fe ff 90  	adrp	x0, 0x9000 <_ZN18ChiMetadataManager10MetaClient15AllocateBuffersEPjjjjj+0x3d0>
   2d65c: e3 fe ff b0  	adrp	x3, 0xa000 <_ZN18ChiMetadataManager10MetaClient15AllocateBuffersEPjjjjj+0x3d8>
   2d660: 05 ff ff b0  	adrp	x5, 0xe000 <_ZN18ChiMetadataManager10MetaClient15AllocateBuffersEPjjjjj+0x3ec>
   2d684: 87 1a 00 94  	bl	0x340a0 <_ZN6ChiLog9LogSystemEPKcS1_S1_S1_iS1_z@plt>
   2d68c: 3a 00 00 14  	b	0x2d774 <_ZN18ChiMetadataManager10MetaClient15AllocateBuffersEPjjjjj+0x57c>
   2d698: a5 01 18 37  	tbnz	w5, #3, 0x2d6cc <_ZN18ChiMetadataManager10MetaClient15AllocateBuffersEPjjjjj+0x4d4>
   2d69c: 36 00 00 14  	b	0x2d774 <_ZN18ChiMetadataManager10MetaClient15AllocateBuffersEPjjjjj+0x57c>
   2d6ac: 02 00 00 14  	b	0x2d6b4 <_ZN18ChiMetadataManager10MetaClient15AllocateBuffersEPjjjjj+0x4bc>
   2d6b4: 53 00 00 90  	adrp	x19, 0x35000 <_ZN18ChiMetadataManager10MetaClient15AllocateBuffersEPjjjjj+0x4dc>
   2d6c8: 65 05 18 36  	tbz	w5, #3, 0x2d774 <_ZN18ChiMetadataManager10MetaClient15AllocateBuffersEPjjjjj+0x57c>
   2d6cc: 42 00 00 90  	adrp	x2, 0x35000 <_ZN18ChiMetadataManager10MetaClient15AllocateBuffersEPjjjjj+0x4f4>
   2d6d0: f9 fe ff f0  	adrp	x25, 0xc000 <_ZN18ChiMetadataManager10MetaClient15AllocateBuffersEPjjjjj+0x454>
   2d6e4: 41 02 00 54  	b.ne	0x2d72c <_ZN18ChiMetadataManager10MetaClient15AllocateBuffersEPjjjjj+0x534>
   2d6fc: 01 ff ff b0  	adrp	x1, 0xe000 <_ZN18ChiMetadataManager10MetaClient15AllocateBuffersEPjjjjj+0x488>
   2d700: e2 fe ff 90  	adrp	x2, 0x9000 <_ZN18ChiMetadataManager10MetaClient15AllocateBuffersEPjjjjj+0x478>
   2d704: e5 fe ff b0  	adrp	x5, 0xa000 <_ZN18ChiMetadataManager10MetaClient15AllocateBuffersEPjjjjj+0x480>
   2d740: e1 fe ff f0  	adrp	x1, 0xc000 <_ZN18ChiMetadataManager10MetaClient15AllocateBuffersEPjjjjj+0x4c4>
   2d748: 00 ff ff d0  	adrp	x0, 0xf000 <_ZN18ChiMetadataManager10MetaClient15AllocateBuffersEPjjjjj+0x4d8>
   2d74c: e3 fe ff b0  	adrp	x3, 0xa000 <_ZN18ChiMetadataManager10MetaClient15AllocateBuffersEPjjjjj+0x4c8>
   2d750: e5 fe ff d0  	adrp	x5, 0xb000 <_ZN18ChiMetadataManager10MetaClient15AllocateBuffersEPjjjjj+0x4d0>
   2d770: 4c 1a 00 94  	bl	0x340a0 <_ZN6ChiLog9LogSystemEPKcS1_S1_S1_iS1_z@plt>
   2d778: c7 01 18 37  	tbnz	w7, #3, 0x2d7b0 <_ZN18ChiMetadataManager10MetaClient15AllocateBuffersEPjjjjj+0x5b8>
   2d788: c1 07 00 54  	b.ne	0x2d880 <_ZN18ChiMetadataManager10MetaClient15AllocateBuffersEPjjjjj+0x688>
   2d7b0: 44 00 00 90  	adrp	x4, 0x35000 <_ZN18ChiMetadataManager10MetaClient15AllocateBuffersEPjjjjj+0x5d8>
   2d7c0: c1 02 00 54  	b.ne	0x2d818 <_ZN18ChiMetadataManager10MetaClient15AllocateBuffersEPjjjjj+0x620>
   2d7c4: f9 fe ff f0  	adrp	x25, 0xc000 <_ZN18ChiMetadataManager10MetaClient15AllocateBuffersEPjjjjj+0x548>
   2d7e4: 01 ff ff b0  	adrp	x1, 0xe000 <_ZN18ChiMetadataManager10MetaClient15AllocateBuffersEPjjjjj+0x570>
   2d7e8: e2 fe ff d0  	adrp	x2, 0xb000 <_ZN18ChiMetadataManager10MetaClient15AllocateBuffersEPjjjjj+0x568>
   2d7ec: e5 fe ff b0  	adrp	x5, 0xa000 <_ZN18ChiMetadataManager10MetaClient15AllocateBuffersEPjjjjj+0x568>
   2d818: fc fe ff f0  	adrp	x28, 0xc000 <_ZN18ChiMetadataManager10MetaClient15AllocateBuffersEPjjjjj+0x59c>
   2d838: e1 fe ff f0  	adrp	x1, 0xc000 <_ZN18ChiMetadataManager10MetaClient15AllocateBuffersEPjjjjj+0x5bc>
   2d840: 00 ff ff d0  	adrp	x0, 0xf000 <_ZN18ChiMetadataManager10MetaClient15AllocateBuffersEPjjjjj+0x5d0>
   2d844: e3 fe ff b0  	adrp	x3, 0xa000 <_ZN18ChiMetadataManager10MetaClient15AllocateBuffersEPjjjjj+0x5c0>
   2d848: 05 ff ff b0  	adrp	x5, 0xe000 <_ZN18ChiMetadataManager10MetaClient15AllocateBuffersEPjjjjj+0x5d4>
   2d86c: 0d 1a 00 94  	bl	0x340a0 <_ZN6ChiLog9LogSystemEPKcS1_S1_S1_iS1_z@plt>
   2d87c: 80 f8 ff 54  	b.eq	0x2d78c <_ZN18ChiMetadataManager10MetaClient15AllocateBuffersEPjjjjj+0x594>
   2d888: 42 1a 00 94  	bl	0x34190 <_ZNKSt3__120__vector_base_commonILb1EE20__throw_length_errorEv@plt>
000000000002d890 <_ZN18ChiMetadataManager21AndroidMetadataHolderC2Ev>:
000000000002d8a0 <_ZN18ChiMetadataManager21AndroidMetadataHolderC2EP15camera_metadatabb>:
000000000002d8b8 <_ZN18ChiMetadataManager21AndroidMetadataHolderD2Ev>:
   2d8d8: e0 08 00 b4  	cbz	x0, 0x2d9f4 <_ZN18ChiMetadataManager21AndroidMetadataHolderD2Ev+0x13c>
   2d8dc: 48 00 00 90  	adrp	x8, 0x35000 <_ZN18ChiMetadataManager21AndroidMetadataHolderD2Ev+0x44>
   2d8e8: 08 08 18 36  	tbz	w8, #3, 0x2d9e8 <_ZN18ChiMetadataManager21AndroidMetadataHolderD2Ev+0x130>
   2d8ec: 49 00 00 90  	adrp	x9, 0x35000 <_ZN18ChiMetadataManager21AndroidMetadataHolderD2Ev+0x54>
   2d8f0: f4 fe ff f0  	adrp	x20, 0xc000 <_ZN18ChiMetadataManager10MetaClient15AllocateBuffersEPjjjjj+0x674>
   2d904: 81 03 00 54  	b.ne	0x2d974 <_ZN18ChiMetadataManager21AndroidMetadataHolderD2Ev+0xbc>
   2d93c: 01 ff ff b0  	adrp	x1, 0xe000 <_ZN18ChiMetadataManager21AndroidMetadataHolderD2Ev+0x8>
   2d940: e2 fe ff f0  	adrp	x2, 0xc000 <_ZN18ChiMetadataManager21AndroidMetadataHolderD2Ev+0x4>
   2d944: e5 fe ff d0  	adrp	x5, 0xb000 <_ZN18ChiMetadataManager21AndroidMetadataHolderD2Ev+0x4>
   2d9ac: 00 ff ff d0  	adrp	x0, 0xf000 <_ZN18ChiMetadataManager21AndroidMetadataHolderD2Ev+0x7c>
   2d9b0: e1 fe ff f0  	adrp	x1, 0xc000 <_ZN18ChiMetadataManager21AndroidMetadataHolderD2Ev+0x74>
   2d9b4: e3 fe ff d0  	adrp	x3, 0xb000 <_ZN18ChiMetadataManager21AndroidMetadataHolderD2Ev+0x74>
   2d9b8: e5 fe ff b0  	adrp	x5, 0xa000 <_ZN18ChiMetadataManager21AndroidMetadataHolderD2Ev+0x74>
   2d9e0: b0 19 00 94  	bl	0x340a0 <_ZN6ChiLog9LogSystemEPKcS1_S1_S1_iS1_z@plt>
   2d9e8: 40 00 00 b4  	cbz	x0, 0x2d9f0 <_ZN18ChiMetadataManager21AndroidMetadataHolderD2Ev+0x138>
000000000002da10 <_ZN18ChiMetadataManager6CreateEjj>:
   2dc98: a3 f3 ff 54  	b.lo	0x2db0c <_ZN18ChiMetadataManager6CreateEjj+0xfc>
   2dd7c: c1 eb ff 54  	b.ne	0x2daf4 <_ZN18ChiMetadataManager6CreateEjj+0xe4>
   2de0c: 99 1a 00 94  	bl	0x34870 <_ZN11ChiMetadata21InitializeMetadataOpsEP14ChiMetadataOps@plt>
   2de10: 80 00 00 35  	cbnz	w0, 0x2de20 <_ZN18ChiMetadataManager6CreateEjj+0x410>
   2de18: ca 1a 00 94  	bl	0x34940 <_ZN18ChiMetadataManager10InitializeEv@plt>
   2de1c: c0 00 00 34  	cbz	w0, 0x2de34 <_ZN18ChiMetadataManager6CreateEjj+0x424>
   2de24: cb 1a 00 94  	bl	0x34950 <_ZN18ChiMetadataManagerD2Ev@plt>
000000000002de58 <_ZN18ChiMetadataManager10InitializeEv>:
   2dea4: 80 3b 00 35  	cbnz	w0, 0x2e614 <_ZN18ChiMetadataManager10InitializeEv+0x7bc>
   2deac: 4f 3b 00 34  	cbz	w15, 0x2e614 <_ZN18ChiMetadataManager10InitializeEv+0x7bc>
   2def8: 88 17 00 34  	cbz	w8, 0x2e1e8 <_ZN18ChiMetadataManager10InitializeEv+0x390>
   2df0c: 14 00 00 14  	b	0x2df5c <_ZN18ChiMetadataManager10InitializeEv+0x104>
   2df20: 67 04 00 b4  	cbz	x7, 0x2dfac <_ZN18ChiMetadataManager10InitializeEv+0x154>
   2df58: 82 14 00 54  	b.hs	0x2e1e8 <_ZN18ChiMetadataManager10InitializeEv+0x390>
   2df68: f4 01 00 b4  	cbz	x20, 0x2dfa4 <_ZN18ChiMetadataManager10InitializeEv+0x14c>
   2df80: 69 03 00 54  	b.ls	0x2dfec <_ZN18ChiMetadataManager10InitializeEv+0x194>
   2df9c: 37 03 00 b5  	cbnz	x23, 0x2e000 <_ZN18ChiMetadataManager10InitializeEv+0x1a8>
   2dfa0: 36 00 00 14  	b	0x2e078 <_ZN18ChiMetadataManager10InitializeEv+0x220>
   2dfa8: 34 00 00 14  	b	0x2e078 <_ZN18ChiMetadataManager10InitializeEv+0x220>
   2dfc4: 80 fb ff b4  	cbz	x0, 0x2df34 <_ZN18ChiMetadataManager10InitializeEv+0xdc>
   2dfd4: 40 0f 00 54  	b.eq	0x2e1bc <_ZN18ChiMetadataManager10InitializeEv+0x364>
   2dfdc: 23 0f 00 54  	b.lo	0x2e1c0 <_ZN18ChiMetadataManager10InitializeEv+0x368>
   2dfe8: 76 00 00 14  	b	0x2e1c0 <_ZN18ChiMetadataManager10InitializeEv+0x368>
   2dffc: f7 03 00 b4  	cbz	x23, 0x2e078 <_ZN18ChiMetadataManager10InitializeEv+0x220>
   2e004: 68 02 00 54  	b.hi	0x2e050 <_ZN18ChiMetadataManager10InitializeEv+0x1f8>
   2e010: 57 03 00 b4  	cbz	x23, 0x2e078 <_ZN18ChiMetadataManager10InitializeEv+0x220>
   2e024: a1 02 00 54  	b.ne	0x2e078 <_ZN18ChiMetadataManager10InitializeEv+0x220>
   2e030: e1 fe ff 54  	b.ne	0x2e00c <_ZN18ChiMetadataManager10InitializeEv+0x1b4>
   2e038: c3 ff ff 17  	b	0x2df44 <_ZN18ChiMetadataManager10InitializeEv+0xec>
   2e040: c1 01 00 54  	b.ne	0x2e078 <_ZN18ChiMetadataManager10InitializeEv+0x220>
   2e04c: 40 ff ff 54  	b.eq	0x2e034 <_ZN18ChiMetadataManager10InitializeEv+0x1dc>
   2e054: 37 01 00 b4  	cbz	x23, 0x2e078 <_ZN18ChiMetadataManager10InitializeEv+0x220>
   2e060: 20 ff ff 54  	b.eq	0x2e044 <_ZN18ChiMetadataManager10InitializeEv+0x1ec>
   2e068: a3 fe ff 54  	b.lo	0x2e03c <_ZN18ChiMetadataManager10InitializeEv+0x1e4>
   2e074: f2 ff ff 17  	b	0x2e03c <_ZN18ChiMetadataManager10InitializeEv+0x1e4>
   2e0ac: b4 00 00 b4  	cbz	x20, 0x2e0c0 <_ZN18ChiMetadataManager10InitializeEv+0x268>
   2e0bc: e5 f2 ff 54  	b.pl	0x2df18 <_ZN18ChiMetadataManager10InitializeEv+0xc0>
   2e0f0: 61 00 00 54  	b.ne	0x2e0fc <_ZN18ChiMetadataManager10InitializeEv+0x2a4>
   2e0f8: 07 00 00 14  	b	0x2e114 <_ZN18ChiMetadataManager10InitializeEv+0x2bc>
   2e100: a0 00 00 54  	b.eq	0x2e114 <_ZN18ChiMetadataManager10InitializeEv+0x2bc>
   2e108: 16 1a 00 94  	bl	0x34960 <_ZNSt3__112__next_primeEm@plt>
   2e118: a9 00 00 54  	b.ls	0x2e12c <_ZN18ChiMetadataManager10InitializeEv+0x2d4>
   2e124: 5b 16 00 94  	bl	0x33a90 <_ZN18ChiMetadataManager15PrintAllBuffersEj+0x48>
   2e128: 1a 00 00 14  	b	0x2e190 <_ZN18ChiMetadataManager10InitializeEv+0x338>
   2e12c: 22 03 00 54  	b.hs	0x2e190 <_ZN18ChiMetadataManager10InitializeEv+0x338>
   2e148: 23 04 00 54  	b.lo	0x2e1cc <_ZN18ChiMetadataManager10InitializeEv+0x374>
   2e160: 68 03 00 54  	b.hi	0x2e1cc <_ZN18ChiMetadataManager10InitializeEv+0x374>
   2e18c: a3 02 00 54  	b.lo	0x2e1e0 <_ZN18ChiMetadataManager10InitializeEv+0x388>
   2e19c: a0 eb ff 54  	b.eq	0x2df10 <_ZN18ChiMetadataManager10InitializeEv+0xb8>
   2e1a4: 69 00 00 54  	b.ls	0x2e1b0 <_ZN18ChiMetadataManager10InitializeEv+0x358>
   2e1ac: 5b ff ff 17  	b	0x2df18 <_ZN18ChiMetadataManager10InitializeEv+0xc0>
   2e1b8: 58 ff ff 17  	b	0x2df18 <_ZN18ChiMetadataManager10InitializeEv+0xc0>
   2e1c8: 5b ff ff 17  	b	0x2df34 <_ZN18ChiMetadataManager10InitializeEv+0xdc>
   2e1cc: e5 19 00 94  	bl	0x34960 <_ZNSt3__112__next_primeEm@plt>
   2e1dc: a2 fd ff 54  	b.hs	0x2e190 <_ZN18ChiMetadataManager10InitializeEv+0x338>
   2e1e4: d0 ff ff 17  	b	0x2e124 <_ZN18ChiMetadataManager10InitializeEv+0x2cc>
   2e1e8: f5 20 00 35  	cbnz	w21, 0x2e604 <_ZN18ChiMetadataManager10InitializeEv+0x7ac>
   2e210: a8 04 00 54  	b.hi	0x2e2a4 <_ZN18ChiMetadataManager10InitializeEv+0x44c>
   2e234: e0 02 00 54  	b.eq	0x2e290 <_ZN18ChiMetadataManager10InitializeEv+0x438>
   2e258: 41 ff ff 54  	b.ne	0x2e240 <_ZN18ChiMetadataManager10InitializeEv+0x3e8>
   2e26c: 60 01 00 54  	b.eq	0x2e298 <_ZN18ChiMetadataManager10InitializeEv+0x440>
   2e27c: bd 19 00 94  	bl	0x34970 <_ZN18ChiMetadataManager21AndroidMetadataHolderD2Ev@plt>
   2e288: 61 ff ff 54  	b.ne	0x2e274 <_ZN18ChiMetadataManager10InitializeEv+0x41c>
   2e28c: 03 00 00 14  	b	0x2e298 <_ZN18ChiMetadataManager10InitializeEv+0x440>
   2e298: 75 00 00 b4  	cbz	x21, 0x2e2a4 <_ZN18ChiMetadataManager10InitializeEv+0x44c>
   2e2b4: 68 0e 00 54  	b.hi	0x2e480 <_ZN18ChiMetadataManager10InitializeEv+0x628>
   2e2cc: 69 0f 00 54  	b.ls	0x2e4b8 <_ZN18ChiMetadataManager10InitializeEv+0x660>
   2e2f8: 08 20 00 b5  	cbnz	x8, 0x2e6f8 <_ZN18ChiMetadataManager10InitializeEv+0x8a0>
   2e310: ea 10 00 54  	b.ge	0x2e52c <_ZN18ChiMetadataManager10InitializeEv+0x6d4>
   2e3c4: a1 fb ff 54  	b.ne	0x2e338 <_ZN18ChiMetadataManager10InitializeEv+0x4e0>
   2e3c8: ed 0b 00 b4  	cbz	x13, 0x2e544 <_ZN18ChiMetadataManager10InitializeEv+0x6ec>
   2e3d0: 09 04 00 54  	b.ls	0x2e450 <_ZN18ChiMetadataManager10InitializeEv+0x5f8>
   2e44c: cc 07 00 54  	b.gt	0x2e544 <_ZN18ChiMetadataManager10InitializeEv+0x6ec>
   2e478: 6b ff ff 54  	b.lt	0x2e464 <_ZN18ChiMetadataManager10InitializeEv+0x60c>
   2e47c: 32 00 00 14  	b	0x2e544 <_ZN18ChiMetadataManager10InitializeEv+0x6ec>
   2e484: c0 09 00 54  	b.eq	0x2e5bc <_ZN18ChiMetadataManager10InitializeEv+0x764>
   2e490: 00 01 00 54  	b.eq	0x2e4b0 <_ZN18ChiMetadataManager10InitializeEv+0x658>
   2e4a0: 34 19 00 94  	bl	0x34970 <_ZN18ChiMetadataManager21AndroidMetadataHolderD2Ev@plt>
   2e4ac: 61 ff ff 54  	b.ne	0x2e498 <_ZN18ChiMetadataManager10InitializeEv+0x640>
   2e4b4: 42 00 00 14  	b	0x2e5bc <_ZN18ChiMetadataManager10InitializeEv+0x764>
   2e4bc: 89 00 00 54  	b.ls	0x2e4cc <_ZN18ChiMetadataManager10InitializeEv+0x674>
   2e4c8: 10 00 00 14  	b	0x2e508 <_ZN18ChiMetadataManager10InitializeEv+0x6b0>
   2e4fc: 21 ff ff 54  	b.ne	0x2e4e0 <_ZN18ChiMetadataManager10InitializeEv+0x688>
   2e504: c0 00 00 54  	b.eq	0x2e51c <_ZN18ChiMetadataManager10InitializeEv+0x6c4>
   2e518: 81 ff ff 54  	b.ne	0x2e508 <_ZN18ChiMetadataManager10InitializeEv+0x6b0>
   2e528: 25 00 00 14  	b	0x2e5bc <_ZN18ChiMetadataManager10InitializeEv+0x764>
   2e540: 81 ff ff 54  	b.ne	0x2e530 <_ZN18ChiMetadataManager10InitializeEv+0x6d8>
   2e554: 40 01 00 54  	b.eq	0x2e57c <_ZN18ChiMetadataManager10InitializeEv+0x724>
   2e574: 41 ff ff 54  	b.ne	0x2e55c <_ZN18ChiMetadataManager10InitializeEv+0x704>
   2e58c: 00 01 00 54  	b.eq	0x2e5ac <_ZN18ChiMetadataManager10InitializeEv+0x754>
   2e59c: f5 18 00 94  	bl	0x34970 <_ZN18ChiMetadataManager21AndroidMetadataHolderD2Ev@plt>
   2e5a8: 61 ff ff 54  	b.ne	0x2e594 <_ZN18ChiMetadataManager10InitializeEv+0x73c>
   2e5b0: 75 00 00 b4  	cbz	x21, 0x2e5bc <_ZN18ChiMetadataManager10InitializeEv+0x764>
   2e5d4: eb 18 00 94  	bl	0x34980 <_ZN18ChiMetadataManager25AllocateFrameworkMetadataEjjbjj@plt>
   2e5e0: 20 01 00 35  	cbnz	w0, 0x2e604 <_ZN18ChiMetadataManager10InitializeEv+0x7ac>
   2e5fc: e1 18 00 94  	bl	0x34980 <_ZN18ChiMetadataManager25AllocateFrameworkMetadataEjjbjj@plt>
   2e608: 78 00 00 b4  	cbz	x24, 0x2e614 <_ZN18ChiMetadataManager10InitializeEv+0x7bc>
   2e614: 75 05 00 35  	cbnz	w21, 0x2e6c0 <_ZN18ChiMetadataManager10InitializeEv+0x868>
   2e618: 3a 00 00 f0  	adrp	x26, 0x35000 <_ZN18ChiMetadataManager10InitializeEv+0x7dc>
   2e624: ed 04 18 36  	tbz	w13, #3, 0x2e6c0 <_ZN18ChiMetadataManager10InitializeEv+0x868>
   2e628: 39 00 00 f0  	adrp	x25, 0x35000 <_ZN18ChiMetadataManager10InitializeEv+0x7ec>
   2e62c: f3 fe ff d0  	adrp	x19, 0xc000 <_ZN18ChiMetadataManager10InitializeEv+0x74c>
   2e640: 01 02 00 54  	b.ne	0x2e680 <_ZN18ChiMetadataManager10InitializeEv+0x828>
   2e658: 01 ff ff 90  	adrp	x1, 0xe000 <_ZN18ChiMetadataManager10InitializeEv+0x780>
   2e65c: c2 fe ff f0  	adrp	x2, 0x9000 <_ZN18ChiMetadataManager10InitializeEv+0x770>
   2e660: e5 fe ff f0  	adrp	x5, 0xd000 <_ZN18ChiMetadataManager10InitializeEv+0x784>
   2e694: e1 fe ff d0  	adrp	x1, 0xc000 <_ZN18ChiMetadataManager10InitializeEv+0x7b4>
   2e69c: 00 ff ff b0  	adrp	x0, 0xf000 <_ZN18ChiMetadataManager10InitializeEv+0x7c8>
   2e6a0: e3 fe ff f0  	adrp	x3, 0xd000 <_ZN18ChiMetadataManager10InitializeEv+0x7c4>
   2e6a4: c5 fe ff f0  	adrp	x5, 0x9000 <_ZN18ChiMetadataManager10InitializeEv+0x7b8>
   2e6bc: 79 16 00 94  	bl	0x340a0 <_ZN6ChiLog9LogSystemEPKcS1_S1_S1_iS1_z@plt>
   2e6cc: 41 01 00 54  	b.ne	0x2e6f4 <_ZN18ChiMetadataManager10InitializeEv+0x89c>
000000000002e700 <_ZN18ChiMetadataManager7DestroyEv>:
   2e700: 40 01 00 b4  	cbz	x0, 0x2e728 <_ZN18ChiMetadataManager7DestroyEv+0x28>
   2e714: 8f 18 00 94  	bl	0x34950 <_ZN18ChiMetadataManagerD2Ev@plt>
000000000002e730 <_ZN18ChiMetadataManager25AllocateFrameworkMetadataEjjbjj>:
   2e754: c2 0b 00 54  	b.hs	0x2e8cc <_ZN18ChiMetadataManager25AllocateFrameworkMetadataEjjbjj+0x19c>
   2e758: 39 00 00 f0  	adrp	x25, 0x35000 <_ZN18ChiMetadataManager25AllocateFrameworkMetadataEjjbjj+0x44>
   2e788: 23 00 00 14  	b	0x2e814 <_ZN18ChiMetadataManager25AllocateFrameworkMetadataEjjbjj+0xe4>
   2e78c: f6 fe ff d0  	adrp	x22, 0xc000 <_ZN18ChiMetadataManager7DestroyEv+0x4>
   2e7c4: 00 ff ff b0  	adrp	x0, 0xf000 <_ZN18ChiMetadataManager25AllocateFrameworkMetadataEjjbjj+0x18>
   2e7c8: e1 fe ff d0  	adrp	x1, 0xc000 <_ZN18ChiMetadataManager25AllocateFrameworkMetadataEjjbjj+0x10>
   2e7cc: c3 fe ff f0  	adrp	x3, 0x9000 <_ZN18ChiMetadataManager25AllocateFrameworkMetadataEjjbjj+0x8>
   2e7d0: c5 fe ff f0  	adrp	x5, 0x9000 <_ZN18ChiMetadataManager25AllocateFrameworkMetadataEjjbjj+0xc>
   2e7f8: 2a 16 00 94  	bl	0x340a0 <_ZN6ChiLog9LogSystemEPKcS1_S1_S1_iS1_z@plt>
   2e810: e0 05 00 54  	b.eq	0x2e8cc <_ZN18ChiMetadataManager25AllocateFrameworkMetadataEjjbjj+0x19c>
   2e820: a0 05 00 b4  	cbz	x0, 0x2e8d4 <_ZN18ChiMetadataManager25AllocateFrameworkMetadataEjjbjj+0x1a4>
   2e840: 28 fe 1f 36  	tbz	w8, #3, 0x2e804 <_ZN18ChiMetadataManager25AllocateFrameworkMetadataEjjbjj+0xd4>
   2e844: 29 00 00 f0  	adrp	x9, 0x35000 <_ZN18ChiMetadataManager25AllocateFrameworkMetadataEjjbjj+0x130>
   2e858: a1 f9 ff 54  	b.ne	0x2e78c <_ZN18ChiMetadataManager25AllocateFrameworkMetadataEjjbjj+0x5c>
   2e85c: f5 fe ff d0  	adrp	x21, 0xc000 <_ZN18ChiMetadataManager25AllocateFrameworkMetadataEjjbjj+0xa4>
   2e890: 01 ff ff 90  	adrp	x1, 0xe000 <_ZN18ChiMetadataManager25AllocateFrameworkMetadataEjjbjj+0xe0>
   2e894: e2 fe ff b0  	adrp	x2, 0xb000 <_ZN18ChiMetadataManager25AllocateFrameworkMetadataEjjbjj+0xd8>
   2e898: c5 fe ff f0  	adrp	x5, 0x9000 <_ZN18ChiMetadataManager25AllocateFrameworkMetadataEjjbjj+0xd4>
   2e8c8: b1 ff ff 17  	b	0x2e78c <_ZN18ChiMetadataManager25AllocateFrameworkMetadataEjjbjj+0x5c>
   2e8d0: 02 00 00 14  	b	0x2e8d8 <_ZN18ChiMetadataManager25AllocateFrameworkMetadataEjjbjj+0x1a8>
000000000002e8f8 <_ZN18ChiMetadataManagerC2Ejjj>:
   2eb78: a3 f3 ff 54  	b.lo	0x2e9ec <_ZN18ChiMetadataManagerC2Ejjj+0xf4>
   2ec54: e1 eb ff 54  	b.ne	0x2e9d0 <_ZN18ChiMetadataManagerC2Ejjj+0xd8>
000000000002ed18 <_ZN18ChiMetadataManagerD2Ev>:
   2ed40: 74 07 00 b4  	cbz	x20, 0x2ee2c <_ZN18ChiMetadataManagerD2Ev+0x114>
   2ed58: 40 06 00 34  	cbz	w0, 0x2ee20 <_ZN18ChiMetadataManagerD2Ev+0x108>
   2ed5c: 28 00 00 f0  	adrp	x8, 0x35000 <_ZN18ChiMetadataManagerD2Ev+0x60>
   2ed68: 08 06 00 36  	tbz	w8, #0, 0x2ee28 <_ZN18ChiMetadataManagerD2Ev+0x110>
   2ed6c: 29 00 00 f0  	adrp	x9, 0x35000 <_ZN18ChiMetadataManagerD2Ev+0x70>
   2ed70: f5 fe ff d0  	adrp	x21, 0xc000 <_ZN18ChiMetadataManagerC2Ejjj+0x3f0>
   2ed84: 61 02 00 54  	b.ne	0x2edd0 <_ZN18ChiMetadataManagerD2Ev+0xb8>
   2eda0: 01 ff ff 90  	adrp	x1, 0xe000 <_ZN18ChiMetadataManagerD2Ev+0x8>
   2eda4: e2 fe ff 90  	adrp	x2, 0xa000 <_ZN18ChiMetadataManagerC2Ejjj+0x41c>
   2eda8: e5 fe ff d0  	adrp	x5, 0xc000 <_ZN18ChiMetadataManagerD2Ev+0x8>
   2edec: c0 fe ff f0  	adrp	x0, 0x9000 <_ZN18ChiMetadataManagerD2Ev+0x40>
   2edf0: 01 ff ff 90  	adrp	x1, 0xe000 <_ZN18ChiMetadataManagerD2Ev+0x58>
   2edf4: e3 fe ff d0  	adrp	x3, 0xc000 <_ZN18ChiMetadataManagerD2Ev+0x54>
   2edf8: e5 fe ff 90  	adrp	x5, 0xa000 <_ZN18ChiMetadataManagerD2Ev+0x50>
   2ee18: a2 14 00 94  	bl	0x340a0 <_ZN6ChiLog9LogSystemEPKcS1_S1_S1_iS1_z@plt>
   2ee1c: 03 00 00 14  	b	0x2ee28 <_ZN18ChiMetadataManagerD2Ev+0x110>
   2ee30: 60 00 00 b4  	cbz	x0, 0x2ee3c <_ZN18ChiMetadataManagerD2Ev+0x124>
   2ee34: d7 16 00 94  	bl	0x34990 <_ZdaPv@plt>
   2ee40: 15 02 00 b4  	cbz	x21, 0x2ee80 <_ZN18ChiMetadataManagerD2Ev+0x168>
   2ee4c: 40 01 00 54  	b.eq	0x2ee74 <_ZN18ChiMetadataManagerD2Ev+0x15c>
   2ee5c: c5 16 00 94  	bl	0x34970 <_ZN18ChiMetadataManager21AndroidMetadataHolderD2Ev@plt>
   2ee68: 61 ff ff 54  	b.ne	0x2ee54 <_ZN18ChiMetadataManagerD2Ev+0x13c>
   2ee70: 02 00 00 14  	b	0x2ee78 <_ZN18ChiMetadataManagerD2Ev+0x160>
   2ee8c: a1 15 00 94  	bl	0x34510 <_ZNSt3__15mutexD1Ev@plt>
   2ee9c: 9d 15 00 94  	bl	0x34510 <_ZNSt3__15mutexD1Ev@plt>
   2eea4: a0 00 00 b4  	cbz	x0, 0x2eeb8 <_ZN18ChiMetadataManagerD2Ev+0x1a0>
   2eeb4: b6 ff ff b5  	cbnz	x22, 0x2eea8 <_ZN18ChiMetadataManagerD2Ev+0x190>
   2eec0: 40 00 00 b4  	cbz	x0, 0x2eec8 <_ZN18ChiMetadataManagerD2Ev+0x1b0>
   2eee0: 04 00 00 14  	b	0x2eef0 <_ZN18ChiMetadataManagerD2Ev+0x1d8>
   2eeec: e0 0a 00 54  	b.eq	0x2f048 <_ZN18ChiMetadataManagerD2Ev+0x330>
   2eef8: 8e 16 00 94  	bl	0x34930 <_ZN18ChiMetadataManager10MetaClient14ReleaseBuffersEv@plt>
   2ef00: a0 00 00 b4  	cbz	x0, 0x2ef14 <_ZN18ChiMetadataManagerD2Ev+0x1fc>
   2ef10: b3 ff ff b5  	cbnz	x19, 0x2ef04 <_ZN18ChiMetadataManagerD2Ev+0x1ec>
   2ef1c: 40 00 00 b4  	cbz	x0, 0x2ef24 <_ZN18ChiMetadataManagerD2Ev+0x20c>
   2ef28: 7a 15 00 94  	bl	0x34510 <_ZNSt3__15mutexD1Ev@plt>
   2ef30: 80 00 00 b4  	cbz	x0, 0x2ef40 <_ZN18ChiMetadataManagerD2Ev+0x228>
   2ef48: 7a 16 00 94  	bl	0x34930 <_ZN18ChiMetadataManager10MetaClient14ReleaseBuffersEv@plt>
   2ef54: a0 00 00 b4  	cbz	x0, 0x2ef68 <_ZN18ChiMetadataManagerD2Ev+0x250>
   2ef64: b4 ff ff b5  	cbnz	x20, 0x2ef58 <_ZN18ChiMetadataManagerD2Ev+0x240>
   2ef74: 40 00 00 b4  	cbz	x0, 0x2ef7c <_ZN18ChiMetadataManagerD2Ev+0x264>
   2ef80: 64 15 00 94  	bl	0x34510 <_ZNSt3__15mutexD1Ev@plt>
   2ef88: 80 00 00 b4  	cbz	x0, 0x2ef98 <_ZN18ChiMetadataManagerD2Ev+0x280>
   2efa0: 64 16 00 94  	bl	0x34930 <_ZN18ChiMetadataManager10MetaClient14ReleaseBuffersEv@plt>
   2efac: a0 00 00 b4  	cbz	x0, 0x2efc0 <_ZN18ChiMetadataManagerD2Ev+0x2a8>
   2efbc: b3 ff ff b5  	cbnz	x19, 0x2efb0 <_ZN18ChiMetadataManagerD2Ev+0x298>
   2efcc: 40 00 00 b4  	cbz	x0, 0x2efd4 <_ZN18ChiMetadataManagerD2Ev+0x2bc>
   2efd8: 4e 15 00 94  	bl	0x34510 <_ZNSt3__15mutexD1Ev@plt>
   2efe0: 80 00 00 b4  	cbz	x0, 0x2eff0 <_ZN18ChiMetadataManagerD2Ev+0x2d8>
   2eff8: 4e 16 00 94  	bl	0x34930 <_ZN18ChiMetadataManager10MetaClient14ReleaseBuffersEv@plt>
   2f004: a0 00 00 b4  	cbz	x0, 0x2f018 <_ZN18ChiMetadataManagerD2Ev+0x300>
   2f014: b4 ff ff b5  	cbnz	x20, 0x2f008 <_ZN18ChiMetadataManagerD2Ev+0x2f0>
   2f024: 40 00 00 b4  	cbz	x0, 0x2f02c <_ZN18ChiMetadataManagerD2Ev+0x314>
   2f030: 38 15 00 94  	bl	0x34510 <_ZNSt3__15mutexD1Ev@plt>
   2f038: 60 f5 ff b4  	cbz	x0, 0x2eee4 <_ZN18ChiMetadataManagerD2Ev+0x1cc>
   2f044: a8 ff ff 17  	b	0x2eee4 <_ZN18ChiMetadataManagerD2Ev+0x1cc>
000000000002f060 <_ZN18ChiMetadataManager30InitializeFrameworkInputClientEjb>:
   2f0a8: f2 14 00 94  	bl	0x34470 <_ZNSt3__15mutex4lockEv@plt>
   2f0ac: 3a 00 00 d0  	adrp	x26, 0x35000 <_ZN18ChiMetadataManager30InitializeFrameworkInputClientEjb+0x64>
   2f0c4: 73 06 00 34  	cbz	w19, 0x2f190 <_ZN18ChiMetadataManager30InitializeFrameworkInputClientEjb+0x130>
   2f0cc: 28 06 00 34  	cbz	w8, 0x2f190 <_ZN18ChiMetadataManager30InitializeFrameworkInputClientEjb+0x130>
   2f0d4: 6e 05 18 36  	tbz	w14, #3, 0x2f180 <_ZN18ChiMetadataManager30InitializeFrameworkInputClientEjb+0x120>
   2f0d8: 2b 00 00 d0  	adrp	x11, 0x35000 <_ZN18ChiMetadataManager30InitializeFrameworkInputClientEjb+0x90>
   2f0e8: 61 02 00 54  	b.ne	0x2f134 <_ZN18ChiMetadataManager30InitializeFrameworkInputClientEjb+0xd4>
   2f0ec: f7 fe ff b0  	adrp	x23, 0xc000 <_ZN18ChiMetadataManager30InitializeFrameworkInputClientEjb>
   2f108: e1 fe ff f0  	adrp	x1, 0xe000 <_ZN18ChiMetadataManager30InitializeFrameworkInputClientEjb+0x24>
   2f10c: 02 ff ff 90  	adrp	x2, 0xf000 <_ZN18ChiMetadataManager30InitializeFrameworkInputClientEjb+0x2c>
   2f110: e5 fe ff d0  	adrp	x5, 0xd000 <_ZN18ChiMetadataManager30InitializeFrameworkInputClientEjb+0x28>
   2f134: f7 fe ff b0  	adrp	x23, 0xc000 <_ZN18ChiMetadataManager30InitializeFrameworkInputClientEjb+0x48>
   2f150: e1 fe ff b0  	adrp	x1, 0xc000 <_ZN18ChiMetadataManager30InitializeFrameworkInputClientEjb+0x64>
   2f158: 00 ff ff 90  	adrp	x0, 0xf000 <_ZN18ChiMetadataManager30InitializeFrameworkInputClientEjb+0x78>
   2f15c: e3 fe ff d0  	adrp	x3, 0xd000 <_ZN18ChiMetadataManager30InitializeFrameworkInputClientEjb+0x74>
   2f160: 05 ff ff 90  	adrp	x5, 0xf000 <_ZN18ChiMetadataManager30InitializeFrameworkInputClientEjb+0x80>
   2f17c: c9 13 00 94  	bl	0x340a0 <_ZN6ChiLog9LogSystemEPKcS1_S1_S1_iS1_z@plt>
   2f188: 4f 18 18 37  	tbnz	w15, #3, 0x2f490 <_ZN18ChiMetadataManager30InitializeFrameworkInputClientEjb+0x430>
   2f18c: eb 00 00 14  	b	0x2f538 <_ZN18ChiMetadataManager30InitializeFrameworkInputClientEjb+0x4d8>
   2f1e8: 66 14 00 94  	bl	0x34380 <_ZN15ExtensionModule11GetInstanceEv@plt>
   2f1fc: a1 15 00 94  	bl	0x34880 <_ZN15ExtensionModule23GetAvailableRequestKeysEjPjjS0_@plt>
   2f200: 60 05 00 34  	cbz	w0, 0x2f2ac <_ZN18ChiMetadataManager30InitializeFrameworkInputClientEjb+0x24c>
   2f208: 6a 06 00 36  	tbz	w10, #0, 0x2f2d4 <_ZN18ChiMetadataManager30InitializeFrameworkInputClientEjb+0x274>
   2f20c: 29 00 00 d0  	adrp	x9, 0x35000 <_ZN18ChiMetadataManager30InitializeFrameworkInputClientEjb+0x1c4>
   2f210: f7 fe ff b0  	adrp	x23, 0xc000 <_ZN18ChiMetadataManager30InitializeFrameworkInputClientEjb+0x124>
   2f228: 21 02 00 54  	b.ne	0x2f26c <_ZN18ChiMetadataManager30InitializeFrameworkInputClientEjb+0x20c>
   2f240: e1 fe ff f0  	adrp	x1, 0xe000 <_ZN18ChiMetadataManager30InitializeFrameworkInputClientEjb+0x15c>
   2f244: e2 fe ff f0  	adrp	x2, 0xe000 <_ZN18ChiMetadataManager30InitializeFrameworkInputClientEjb+0x160>
   2f248: e5 fe ff d0  	adrp	x5, 0xd000 <_ZN18ChiMetadataManager30InitializeFrameworkInputClientEjb+0x160>
   2f280: e1 fe ff f0  	adrp	x1, 0xe000 <_ZN18ChiMetadataManager30InitializeFrameworkInputClientEjb+0x19c>
   2f288: c0 fe ff d0  	adrp	x0, 0x9000 <_ZN18ChiMetadataManager30InitializeFrameworkInputClientEjb+0x190>
   2f28c: e3 fe ff d0  	adrp	x3, 0xd000 <_ZN18ChiMetadataManager30InitializeFrameworkInputClientEjb+0x1a4>
   2f290: c5 fe ff f0  	adrp	x5, 0xa000 <_ZN18ChiMetadataManager30InitializeFrameworkInputClientEjb+0x19c>
   2f2a8: 73 00 00 14  	b	0x2f474 <_ZN18ChiMetadataManager30InitializeFrameworkInputClientEjb+0x414>
   2f2c4: b7 15 00 94  	bl	0x349a0 <_ZN18ChiMetadataManager10MetaClient15AllocateBuffersEPjjjjj@plt>
   2f2c8: 20 01 00 34  	cbz	w0, 0x2f2ec <_ZN18ChiMetadataManager30InitializeFrameworkInputClientEjb+0x28c>
   2f2d0: 09 08 00 37  	tbnz	w9, #0, 0x2f3d0 <_ZN18ChiMetadataManager30InitializeFrameworkInputClientEjb+0x370>
   2f2e4: 6f 0d 18 37  	tbnz	w15, #3, 0x2f490 <_ZN18ChiMetadataManager30InitializeFrameworkInputClientEjb+0x430>
   2f2e8: 94 00 00 14  	b	0x2f538 <_ZN18ChiMetadataManager30InitializeFrameworkInputClientEjb+0x4d8>
   2f318: e0 12 00 34  	cbz	w0, 0x2f574 <_ZN18ChiMetadataManager30InitializeFrameworkInputClientEjb+0x514>
   2f320: 18 0b 00 b5  	cbnz	x24, 0x2f480 <_ZN18ChiMetadataManager30InitializeFrameworkInputClientEjb+0x420>
   2f328: 6d fd 07 36  	tbz	w13, #0, 0x2f2d4 <_ZN18ChiMetadataManager30InitializeFrameworkInputClientEjb+0x274>
   2f32c: 2a 00 00 d0  	adrp	x10, 0x35000 <_ZN18ChiMetadataManager30InitializeFrameworkInputClientEjb+0x2e4>
   2f33c: 41 02 00 54  	b.ne	0x2f384 <_ZN18ChiMetadataManager30InitializeFrameworkInputClientEjb+0x324>
   2f340: f7 fe ff b0  	adrp	x23, 0xc000 <_ZN18ChiMetadataManager30InitializeFrameworkInputClientEjb+0x254>
   2f35c: e1 fe ff f0  	adrp	x1, 0xe000 <_ZN18ChiMetadataManager30InitializeFrameworkInputClientEjb+0x278>
   2f360: c2 fe ff d0  	adrp	x2, 0x9000 <_ZN18ChiMetadataManager30InitializeFrameworkInputClientEjb+0x268>
   2f364: e5 fe ff d0  	adrp	x5, 0xd000 <_ZN18ChiMetadataManager30InitializeFrameworkInputClientEjb+0x27c>
   2f384: f7 fe ff b0  	adrp	x23, 0xc000 <_ZN18ChiMetadataManager30InitializeFrameworkInputClientEjb+0x298>
   2f3a0: e1 fe ff f0  	adrp	x1, 0xe000 <_ZN18ChiMetadataManager30InitializeFrameworkInputClientEjb+0x2bc>
   2f3a8: c0 fe ff d0  	adrp	x0, 0x9000 <_ZN18ChiMetadataManager30InitializeFrameworkInputClientEjb+0x2b0>
   2f3ac: e3 fe ff d0  	adrp	x3, 0xd000 <_ZN18ChiMetadataManager30InitializeFrameworkInputClientEjb+0x2c4>
   2f3b0: e5 fe ff f0  	adrp	x5, 0xe000 <_ZN18ChiMetadataManager30InitializeFrameworkInputClientEjb+0x2cc>
   2f3c8: 36 13 00 94  	bl	0x340a0 <_ZN6ChiLog9LogSystemEPKcS1_S1_S1_iS1_z@plt>
   2f3cc: c2 ff ff 17  	b	0x2f2d4 <_ZN18ChiMetadataManager30InitializeFrameworkInputClientEjb+0x274>
   2f3d0: 28 00 00 d0  	adrp	x8, 0x35000 <_ZN18ChiMetadataManager30InitializeFrameworkInputClientEjb+0x388>
   2f3e4: 61 02 00 54  	b.ne	0x2f430 <_ZN18ChiMetadataManager30InitializeFrameworkInputClientEjb+0x3d0>
   2f3e8: f7 fe ff b0  	adrp	x23, 0xc000 <_ZN18ChiMetadataManager30InitializeFrameworkInputClientEjb+0x2fc>
   2f404: e1 fe ff f0  	adrp	x1, 0xe000 <_ZN18ChiMetadataManager30InitializeFrameworkInputClientEjb+0x320>
   2f408: e2 fe ff 90  	adrp	x2, 0xb000 <_ZN18ChiMetadataManager30InitializeFrameworkInputClientEjb+0x318>
   2f40c: e5 fe ff d0  	adrp	x5, 0xd000 <_ZN18ChiMetadataManager30InitializeFrameworkInputClientEjb+0x324>
   2f430: f7 fe ff b0  	adrp	x23, 0xc000 <_ZN18ChiMetadataManager30InitializeFrameworkInputClientEjb+0x344>
   2f44c: e1 fe ff f0  	adrp	x1, 0xe000 <_ZN18ChiMetadataManager30InitializeFrameworkInputClientEjb+0x368>
   2f454: c0 fe ff d0  	adrp	x0, 0x9000 <_ZN18ChiMetadataManager30InitializeFrameworkInputClientEjb+0x35c>
   2f458: e3 fe ff d0  	adrp	x3, 0xd000 <_ZN18ChiMetadataManager30InitializeFrameworkInputClientEjb+0x370>
   2f45c: e5 fe ff 90  	adrp	x5, 0xb000 <_ZN18ChiMetadataManager30InitializeFrameworkInputClientEjb+0x36c>
   2f478: 0a 13 00 94  	bl	0x340a0 <_ZN6ChiLog9LogSystemEPKcS1_S1_S1_iS1_z@plt>
   2f48c: 6f 05 18 36  	tbz	w15, #3, 0x2f538 <_ZN18ChiMetadataManager30InitializeFrameworkInputClientEjb+0x4d8>
   2f490: 2c 00 00 d0  	adrp	x12, 0x35000 <_ZN18ChiMetadataManager30InitializeFrameworkInputClientEjb+0x448>
   2f4a0: 61 02 00 54  	b.ne	0x2f4ec <_ZN18ChiMetadataManager30InitializeFrameworkInputClientEjb+0x48c>
   2f4a4: f7 fe ff b0  	adrp	x23, 0xc000 <_ZN18ChiMetadataManager30InitializeFrameworkInputClientEjb+0x3b8>
   2f4c0: e1 fe ff f0  	adrp	x1, 0xe000 <_ZN18ChiMetadataManager30InitializeFrameworkInputClientEjb+0x3dc>
   2f4c4: e2 fe ff 90  	adrp	x2, 0xb000 <_ZN18ChiMetadataManager30InitializeFrameworkInputClientEjb+0x3d4>
   2f4c8: e5 fe ff d0  	adrp	x5, 0xd000 <_ZN18ChiMetadataManager30InitializeFrameworkInputClientEjb+0x3e0>
   2f4ec: f7 fe ff b0  	adrp	x23, 0xc000 <_ZN18ChiMetadataManager30InitializeFrameworkInputClientEjb+0x400>
   2f508: e1 fe ff b0  	adrp	x1, 0xc000 <_ZN18ChiMetadataManager30InitializeFrameworkInputClientEjb+0x41c>
   2f510: 00 ff ff 90  	adrp	x0, 0xf000 <_ZN18ChiMetadataManager30InitializeFrameworkInputClientEjb+0x430>
   2f514: e3 fe ff d0  	adrp	x3, 0xd000 <_ZN18ChiMetadataManager30InitializeFrameworkInputClientEjb+0x42c>
   2f518: e5 fe ff f0  	adrp	x5, 0xe000 <_ZN18ChiMetadataManager30InitializeFrameworkInputClientEjb+0x434>
   2f534: db 12 00 94  	bl	0x340a0 <_ZN6ChiLog9LogSystemEPKcS1_S1_S1_iS1_z@plt>
   2f53c: d5 13 00 94  	bl	0x34490 <_ZNSt3__15mutex6unlockEv@plt>
   2f54c: 61 04 00 54  	b.ne	0x2f5d8 <_ZN18ChiMetadataManager30InitializeFrameworkInputClientEjb+0x578>
   2f58c: a0 ec ff b4  	cbz	x0, 0x2f320 <_ZN18ChiMetadataManager30InitializeFrameworkInputClientEjb+0x2c0>
   2f5d0: 0f f6 1f 37  	tbnz	w15, #3, 0x2f490 <_ZN18ChiMetadataManager30InitializeFrameworkInputClientEjb+0x430>
   2f5d4: d9 ff ff 17  	b	0x2f538 <_ZN18ChiMetadataManager30InitializeFrameworkInputClientEjb+0x4d8>
000000000002f5e0 <_ZN18ChiMetadataManager14RegisterClientEiPjjjj16ChiMetadataUsage>:
   2f60c: 21 01 00 34  	cbz	w1, 0x2f630 <_ZN18ChiMetadataManager14RegisterClientEiPjjjj16ChiMetadataUsage+0x50>
   2f620: e4 14 00 94  	bl	0x349b0 <_ZN18ChiMetadataManager23RegisterExclusiveClientEPjjj16ChiMetadataUsage@plt>
   2f628: 33 01 00 35  	cbnz	w19, 0x2f64c <_ZN18ChiMetadataManager14RegisterClientEiPjjjj16ChiMetadataUsage+0x6c>
   2f62c: 7c 00 00 14  	b	0x2f81c <_ZN18ChiMetadataManager14RegisterClientEiPjjjj16ChiMetadataUsage+0x23c>
   2f640: 9c 12 00 94  	bl	0x340b0 <_ZN18ChiMetadataManager20RegisterSharedClientEPjjj16ChiMetadataUsage@plt>
   2f648: b3 0e 00 34  	cbz	w19, 0x2f81c <_ZN18ChiMetadataManager14RegisterClientEiPjjjj16ChiMetadataUsage+0x23c>
   2f65c: 08 06 00 34  	cbz	w8, 0x2f71c <_ZN18ChiMetadataManager14RegisterClientEiPjjjj16ChiMetadataUsage+0x13c>
   2f660: 2a 00 00 d0  	adrp	x10, 0x35000 <_ZN18ChiMetadataManager14RegisterClientEiPjjjj16ChiMetadataUsage+0x98>
   2f66c: 8a 0d 18 36  	tbz	w10, #3, 0x2f81c <_ZN18ChiMetadataManager14RegisterClientEiPjjjj16ChiMetadataUsage+0x23c>
   2f670: 2b 00 00 d0  	adrp	x11, 0x35000 <_ZN18ChiMetadataManager14RegisterClientEiPjjjj16ChiMetadataUsage+0xa8>
   2f674: f7 fe ff b0  	adrp	x23, 0xc000 <_ZN18ChiMetadataManager14RegisterClientEiPjjjj16ChiMetadataUsage+0x8>
   2f688: 41 02 00 54  	b.ne	0x2f6d0 <_ZN18ChiMetadataManager14RegisterClientEiPjjjj16ChiMetadataUsage+0xf0>
   2f6a0: e1 fe ff f0  	adrp	x1, 0xe000 <_ZN18ChiMetadataManager14RegisterClientEiPjjjj16ChiMetadataUsage+0x3c>
   2f6a4: e2 fe ff f0  	adrp	x2, 0xe000 <_ZN18ChiMetadataManager14RegisterClientEiPjjjj16ChiMetadataUsage+0x40>
   2f6a8: c5 fe ff d0  	adrp	x5, 0x9000 <_ZN18ChiMetadataManager14RegisterClientEiPjjjj16ChiMetadataUsage+0x30>
   2f6e4: e1 fe ff b0  	adrp	x1, 0xc000 <_ZN18ChiMetadataManager14RegisterClientEiPjjjj16ChiMetadataUsage+0x78>
   2f6ec: 00 ff ff 90  	adrp	x0, 0xf000 <_ZN18ChiMetadataManager14RegisterClientEiPjjjj16ChiMetadataUsage+0x8c>
   2f6f0: c3 fe ff d0  	adrp	x3, 0x9000 <_ZN18ChiMetadataManager14RegisterClientEiPjjjj16ChiMetadataUsage+0x78>
   2f6f4: c5 fe ff d0  	adrp	x5, 0x9000 <_ZN18ChiMetadataManager14RegisterClientEiPjjjj16ChiMetadataUsage+0x7c>
   2f714: 63 12 00 94  	bl	0x340a0 <_ZN6ChiLog9LogSystemEPKcS1_S1_S1_iS1_z@plt>
   2f718: 41 00 00 14  	b	0x2f81c <_ZN18ChiMetadataManager14RegisterClientEiPjjjj16ChiMetadataUsage+0x23c>
   2f738: b7 00 00 b4  	cbz	x23, 0x2f74c <_ZN18ChiMetadataManager14RegisterClientEiPjjjj16ChiMetadataUsage+0x16c>
   2f73c: 80 00 00 b4  	cbz	x0, 0x2f74c <_ZN18ChiMetadataManager14RegisterClientEiPjjjj16ChiMetadataUsage+0x16c>
   2f74c: 28 00 00 d0  	adrp	x8, 0x35000 <_ZN18ChiMetadataManager14RegisterClientEiPjjjj16ChiMetadataUsage+0x184>
   2f758: 29 06 18 36  	tbz	w9, #3, 0x2f81c <_ZN18ChiMetadataManager14RegisterClientEiPjjjj16ChiMetadataUsage+0x23c>
   2f75c: 29 00 00 d0  	adrp	x9, 0x35000 <_ZN18ChiMetadataManager14RegisterClientEiPjjjj16ChiMetadataUsage+0x194>
   2f76c: c1 02 00 54  	b.ne	0x2f7c4 <_ZN18ChiMetadataManager14RegisterClientEiPjjjj16ChiMetadataUsage+0x1e4>
   2f770: f7 fe ff b0  	adrp	x23, 0xc000 <_ZN18ChiMetadataManager14RegisterClientEiPjjjj16ChiMetadataUsage+0x104>
   2f78c: e1 fe ff f0  	adrp	x1, 0xe000 <_ZN18ChiMetadataManager14RegisterClientEiPjjjj16ChiMetadataUsage+0x128>
   2f790: c2 fe ff f0  	adrp	x2, 0xa000 <_ZN18ChiMetadataManager14RegisterClientEiPjjjj16ChiMetadataUsage+0x11c>
   2f794: c5 fe ff d0  	adrp	x5, 0x9000 <_ZN18ChiMetadataManager14RegisterClientEiPjjjj16ChiMetadataUsage+0x11c>
   2f7c4: f8 fe ff b0  	adrp	x24, 0xc000 <_ZN18ChiMetadataManager14RegisterClientEiPjjjj16ChiMetadataUsage+0x158>
   2f7e0: e1 fe ff b0  	adrp	x1, 0xc000 <_ZN18ChiMetadataManager14RegisterClientEiPjjjj16ChiMetadataUsage+0x174>
   2f7e8: 00 ff ff 90  	adrp	x0, 0xf000 <_ZN18ChiMetadataManager14RegisterClientEiPjjjj16ChiMetadataUsage+0x188>
   2f7ec: c3 fe ff d0  	adrp	x3, 0x9000 <_ZN18ChiMetadataManager14RegisterClientEiPjjjj16ChiMetadataUsage+0x174>
   2f7f0: c5 fe ff f0  	adrp	x5, 0xa000 <_ZN18ChiMetadataManager14RegisterClientEiPjjjj16ChiMetadataUsage+0x17c>
   2f818: 22 12 00 94  	bl	0x340a0 <_ZN6ChiLog9LogSystemEPKcS1_S1_S1_iS1_z@plt>
000000000002f840 <_ZN18ChiMetadataManager23RegisterExclusiveClientEPjjj16ChiMetadataUsage>:
   2f87c: fd 12 00 94  	bl	0x34470 <_ZNSt3__15mutex4lockEv@plt>
   2f8ec: 0a 0a 00 34  	cbz	w10, 0x2fa2c <_ZN18ChiMetadataManager23RegisterExclusiveClientEPjjj16ChiMetadataUsage+0x1ec>
   2f8f4: 4a 0a 00 34  	cbz	w10, 0x2fa3c <_ZN18ChiMetadataManager23RegisterExclusiveClientEPjjj16ChiMetadataUsage+0x1fc>
   2f900: 68 0a 00 34  	cbz	w8, 0x2fa4c <_ZN18ChiMetadataManager23RegisterExclusiveClientEPjjj16ChiMetadataUsage+0x20c>
   2f908: 88 0a 00 34  	cbz	w8, 0x2fa58 <_ZN18ChiMetadataManager23RegisterExclusiveClientEPjjj16ChiMetadataUsage+0x218>
   2f910: c8 0a 00 34  	cbz	w8, 0x2fa68 <_ZN18ChiMetadataManager23RegisterExclusiveClientEPjjj16ChiMetadataUsage+0x228>
   2f918: 0a 0b 00 34  	cbz	w10, 0x2fa78 <_ZN18ChiMetadataManager23RegisterExclusiveClientEPjjj16ChiMetadataUsage+0x238>
   2f920: 48 0b 00 34  	cbz	w8, 0x2fa88 <_ZN18ChiMetadataManager23RegisterExclusiveClientEPjjj16ChiMetadataUsage+0x248>
   2f928: 8a 0b 00 34  	cbz	w10, 0x2fa98 <_ZN18ChiMetadataManager23RegisterExclusiveClientEPjjj16ChiMetadataUsage+0x258>
   2f930: c8 0b 00 34  	cbz	w8, 0x2faa8 <_ZN18ChiMetadataManager23RegisterExclusiveClientEPjjj16ChiMetadataUsage+0x268>
   2f938: 0a 0c 00 34  	cbz	w10, 0x2fab8 <_ZN18ChiMetadataManager23RegisterExclusiveClientEPjjj16ChiMetadataUsage+0x278>
   2f940: 48 0c 00 34  	cbz	w8, 0x2fac8 <_ZN18ChiMetadataManager23RegisterExclusiveClientEPjjj16ChiMetadataUsage+0x288>
   2f94c: 68 0c 00 34  	cbz	w8, 0x2fad8 <_ZN18ChiMetadataManager23RegisterExclusiveClientEPjjj16ChiMetadataUsage+0x298>
   2f958: 6c 0c 00 34  	cbz	w12, 0x2fae4 <_ZN18ChiMetadataManager23RegisterExclusiveClientEPjjj16ChiMetadataUsage+0x2a4>
   2f960: ac 0c 00 34  	cbz	w12, 0x2faf4 <_ZN18ChiMetadataManager23RegisterExclusiveClientEPjjj16ChiMetadataUsage+0x2b4>
   2f968: ea 0c 00 34  	cbz	w10, 0x2fb04 <_ZN18ChiMetadataManager23RegisterExclusiveClientEPjjj16ChiMetadataUsage+0x2c4>
   2f970: 28 0d 00 34  	cbz	w8, 0x2fb14 <_ZN18ChiMetadataManager23RegisterExclusiveClientEPjjj16ChiMetadataUsage+0x2d4>
   2f978: 6c 0d 00 34  	cbz	w12, 0x2fb24 <_ZN18ChiMetadataManager23RegisterExclusiveClientEPjjj16ChiMetadataUsage+0x2e4>
   2f980: aa 0d 00 34  	cbz	w10, 0x2fb34 <_ZN18ChiMetadataManager23RegisterExclusiveClientEPjjj16ChiMetadataUsage+0x2f4>
   2f988: e8 0d 00 34  	cbz	w8, 0x2fb44 <_ZN18ChiMetadataManager23RegisterExclusiveClientEPjjj16ChiMetadataUsage+0x304>
   2f990: 2c 0e 00 34  	cbz	w12, 0x2fb54 <_ZN18ChiMetadataManager23RegisterExclusiveClientEPjjj16ChiMetadataUsage+0x314>
   2f998: 6a 0e 00 34  	cbz	w10, 0x2fb64 <_ZN18ChiMetadataManager23RegisterExclusiveClientEPjjj16ChiMetadataUsage+0x324>
   2f9a0: a8 0e 00 34  	cbz	w8, 0x2fb74 <_ZN18ChiMetadataManager23RegisterExclusiveClientEPjjj16ChiMetadataUsage+0x334>
   2f9a8: ec 0e 00 34  	cbz	w12, 0x2fb84 <_ZN18ChiMetadataManager23RegisterExclusiveClientEPjjj16ChiMetadataUsage+0x344>
   2fa18: 61 f6 ff 54  	b.ne	0x2f8e4 <_ZN18ChiMetadataManager23RegisterExclusiveClientEPjjj16ChiMetadataUsage+0xa4>
   2fa28: 8a 00 00 14  	b	0x2fc50 <_ZN18ChiMetadataManager23RegisterExclusiveClientEPjjj16ChiMetadataUsage+0x410>
   2fa38: 55 00 00 14  	b	0x2fb8c <_ZN18ChiMetadataManager23RegisterExclusiveClientEPjjj16ChiMetadataUsage+0x34c>
   2fa48: 50 00 00 14  	b	0x2fb88 <_ZN18ChiMetadataManager23RegisterExclusiveClientEPjjj16ChiMetadataUsage+0x348>
   2fa54: 4d 00 00 14  	b	0x2fb88 <_ZN18ChiMetadataManager23RegisterExclusiveClientEPjjj16ChiMetadataUsage+0x348>
   2fa64: 49 00 00 14  	b	0x2fb88 <_ZN18ChiMetadataManager23RegisterExclusiveClientEPjjj16ChiMetadataUsage+0x348>
   2fa74: 45 00 00 14  	b	0x2fb88 <_ZN18ChiMetadataManager23RegisterExclusiveClientEPjjj16ChiMetadataUsage+0x348>
   2fa84: 41 00 00 14  	b	0x2fb88 <_ZN18ChiMetadataManager23RegisterExclusiveClientEPjjj16ChiMetadataUsage+0x348>
   2fa94: 3d 00 00 14  	b	0x2fb88 <_ZN18ChiMetadataManager23RegisterExclusiveClientEPjjj16ChiMetadataUsage+0x348>
   2faa4: 39 00 00 14  	b	0x2fb88 <_ZN18ChiMetadataManager23RegisterExclusiveClientEPjjj16ChiMetadataUsage+0x348>
   2fab4: 35 00 00 14  	b	0x2fb88 <_ZN18ChiMetadataManager23RegisterExclusiveClientEPjjj16ChiMetadataUsage+0x348>
   2fac4: 31 00 00 14  	b	0x2fb88 <_ZN18ChiMetadataManager23RegisterExclusiveClientEPjjj16ChiMetadataUsage+0x348>
   2fad4: 2d 00 00 14  	b	0x2fb88 <_ZN18ChiMetadataManager23RegisterExclusiveClientEPjjj16ChiMetadataUsage+0x348>
   2fae0: 2a 00 00 14  	b	0x2fb88 <_ZN18ChiMetadataManager23RegisterExclusiveClientEPjjj16ChiMetadataUsage+0x348>
   2faf0: 26 00 00 14  	b	0x2fb88 <_ZN18ChiMetadataManager23RegisterExclusiveClientEPjjj16ChiMetadataUsage+0x348>
   2fb00: 22 00 00 14  	b	0x2fb88 <_ZN18ChiMetadataManager23RegisterExclusiveClientEPjjj16ChiMetadataUsage+0x348>
   2fb10: 1e 00 00 14  	b	0x2fb88 <_ZN18ChiMetadataManager23RegisterExclusiveClientEPjjj16ChiMetadataUsage+0x348>
   2fb20: 1a 00 00 14  	b	0x2fb88 <_ZN18ChiMetadataManager23RegisterExclusiveClientEPjjj16ChiMetadataUsage+0x348>
   2fb30: 16 00 00 14  	b	0x2fb88 <_ZN18ChiMetadataManager23RegisterExclusiveClientEPjjj16ChiMetadataUsage+0x348>
   2fb40: 12 00 00 14  	b	0x2fb88 <_ZN18ChiMetadataManager23RegisterExclusiveClientEPjjj16ChiMetadataUsage+0x348>
   2fb50: 0e 00 00 14  	b	0x2fb88 <_ZN18ChiMetadataManager23RegisterExclusiveClientEPjjj16ChiMetadataUsage+0x348>
   2fb60: 0a 00 00 14  	b	0x2fb88 <_ZN18ChiMetadataManager23RegisterExclusiveClientEPjjj16ChiMetadataUsage+0x348>
   2fb70: 06 00 00 14  	b	0x2fb88 <_ZN18ChiMetadataManager23RegisterExclusiveClientEPjjj16ChiMetadataUsage+0x348>
   2fb80: 02 00 00 14  	b	0x2fb88 <_ZN18ChiMetadataManager23RegisterExclusiveClientEPjjj16ChiMetadataUsage+0x348>
   2fbb8: 83 03 00 54  	b.lo	0x2fc28 <_ZN18ChiMetadataManager23RegisterExclusiveClientEPjjj16ChiMetadataUsage+0x3e8>
   2fbd0: c9 02 00 54  	b.ls	0x2fc28 <_ZN18ChiMetadataManager23RegisterExclusiveClientEPjjj16ChiMetadataUsage+0x3e8>
   2fbfc: ab 00 00 54  	b.lt	0x2fc10 <_ZN18ChiMetadataManager23RegisterExclusiveClientEPjjj16ChiMetadataUsage+0x3d0>
   2fc1c: 7b 00 00 b4  	cbz	x27, 0x2fc28 <_ZN18ChiMetadataManager23RegisterExclusiveClientEPjjj16ChiMetadataUsage+0x3e8>
   2fc48: 56 13 00 94  	bl	0x349a0 <_ZN18ChiMetadataManager10MetaClient15AllocateBuffersEPjjjjj@plt>
   2fc4c: e0 05 00 34  	cbz	w0, 0x2fd08 <_ZN18ChiMetadataManager23RegisterExclusiveClientEPjjj16ChiMetadataUsage+0x4c8>
   2fc50: 2b 00 00 d0  	adrp	x11, 0x35000 <_ZN18ChiMetadataManager23RegisterExclusiveClientEPjjj16ChiMetadataUsage+0x428>
   2fc5c: 29 05 00 36  	tbz	w9, #0, 0x2fd00 <_ZN18ChiMetadataManager23RegisterExclusiveClientEPjjj16ChiMetadataUsage+0x4c0>
   2fc60: 2c 00 00 d0  	adrp	x12, 0x35000 <_ZN18ChiMetadataManager23RegisterExclusiveClientEPjjj16ChiMetadataUsage+0x438>
   2fc64: f8 fe ff b0  	adrp	x24, 0xc000 <_ZN18ChiMetadataManager23RegisterExclusiveClientEPjjj16ChiMetadataUsage+0x398>
   2fc78: 21 02 00 54  	b.ne	0x2fcbc <_ZN18ChiMetadataManager23RegisterExclusiveClientEPjjj16ChiMetadataUsage+0x47c>
   2fc90: e1 fe ff f0  	adrp	x1, 0xe000 <_ZN18ChiMetadataManager23RegisterExclusiveClientEPjjj16ChiMetadataUsage+0x3cc>
   2fc94: c2 fe ff f0  	adrp	x2, 0xa000 <_ZN18ChiMetadataManager23RegisterExclusiveClientEPjjj16ChiMetadataUsage+0x3c0>
   2fc98: e5 fe ff 90  	adrp	x5, 0xb000 <_ZN18ChiMetadataManager23RegisterExclusiveClientEPjjj16ChiMetadataUsage+0x3c8>
   2fcd0: e1 fe ff f0  	adrp	x1, 0xe000 <_ZN18ChiMetadataManager23RegisterExclusiveClientEPjjj16ChiMetadataUsage+0x40c>
   2fcd8: c0 fe ff d0  	adrp	x0, 0x9000 <_ZN18ChiMetadataManager23RegisterExclusiveClientEPjjj16ChiMetadataUsage+0x400>
   2fcdc: e3 fe ff 90  	adrp	x3, 0xb000 <_ZN18ChiMetadataManager23RegisterExclusiveClientEPjjj16ChiMetadataUsage+0x40c>
   2fce0: e5 fe ff b0  	adrp	x5, 0xc000 <_ZN18ChiMetadataManager23RegisterExclusiveClientEPjjj16ChiMetadataUsage+0x414>
   2fcfc: e9 10 00 94  	bl	0x340a0 <_ZN6ChiLog9LogSystemEPKcS1_S1_S1_iS1_z@plt>
   2fd04: 38 00 00 14  	b	0x2fde4 <_ZN18ChiMetadataManager23RegisterExclusiveClientEPjjj16ChiMetadataUsage+0x5a4>
   2fd08: 2d 00 00 d0  	adrp	x13, 0x35000 <_ZN18ChiMetadataManager23RegisterExclusiveClientEPjjj16ChiMetadataUsage+0x4e0>
   2fd18: 6b 06 18 36  	tbz	w11, #3, 0x2fde4 <_ZN18ChiMetadataManager23RegisterExclusiveClientEPjjj16ChiMetadataUsage+0x5a4>
   2fd1c: 2e 00 00 d0  	adrp	x14, 0x35000 <_ZN18ChiMetadataManager23RegisterExclusiveClientEPjjj16ChiMetadataUsage+0x4f4>
   2fd2c: e1 02 00 54  	b.ne	0x2fd88 <_ZN18ChiMetadataManager23RegisterExclusiveClientEPjjj16ChiMetadataUsage+0x548>
   2fd30: fb fe ff b0  	adrp	x27, 0xc000 <_ZN18ChiMetadataManager23RegisterExclusiveClientEPjjj16ChiMetadataUsage+0x464>
   2fd4c: e1 fe ff f0  	adrp	x1, 0xe000 <_ZN18ChiMetadataManager23RegisterExclusiveClientEPjjj16ChiMetadataUsage+0x488>
   2fd50: e2 fe ff 90  	adrp	x2, 0xb000 <_ZN18ChiMetadataManager23RegisterExclusiveClientEPjjj16ChiMetadataUsage+0x480>
   2fd54: e5 fe ff 90  	adrp	x5, 0xb000 <_ZN18ChiMetadataManager23RegisterExclusiveClientEPjjj16ChiMetadataUsage+0x484>
   2fd88: f3 fe ff b0  	adrp	x19, 0xc000 <_ZN18ChiMetadataManager23RegisterExclusiveClientEPjjj16ChiMetadataUsage+0x4bc>
   2fda4: e1 fe ff b0  	adrp	x1, 0xc000 <_ZN18ChiMetadataManager23RegisterExclusiveClientEPjjj16ChiMetadataUsage+0x4d8>
   2fdac: 00 ff ff 90  	adrp	x0, 0xf000 <_ZN18ChiMetadataManager23RegisterExclusiveClientEPjjj16ChiMetadataUsage+0x4ec>
   2fdb0: e3 fe ff 90  	adrp	x3, 0xb000 <_ZN18ChiMetadataManager23RegisterExclusiveClientEPjjj16ChiMetadataUsage+0x4e0>
   2fdb4: 05 ff ff 90  	adrp	x5, 0xf000 <_ZN18ChiMetadataManager23RegisterExclusiveClientEPjjj16ChiMetadataUsage+0x4f4>
   2fde0: b0 10 00 94  	bl	0x340a0 <_ZN6ChiLog9LogSystemEPKcS1_S1_S1_iS1_z@plt>
   2fde8: aa 11 00 94  	bl	0x34490 <_ZNSt3__15mutex6unlockEv@plt>
000000000002fe10 <_ZN18ChiMetadataManager20RegisterSharedClientEPjjj16ChiMetadataUsage>:
   2fe6c: 81 11 00 94  	bl	0x34470 <_ZNSt3__15mutex4lockEv@plt>
   2fec4: 6c 00 00 34  	cbz	w12, 0x2fed0 <_ZN18ChiMetadataManager20RegisterSharedClientEPjjj16ChiMetadataUsage+0xc0>
   2fecc: 62 07 00 35  	cbnz	w2, 0x2ffb8 <_ZN18ChiMetadataManager20RegisterSharedClientEPjjj16ChiMetadataUsage+0x1a8>
   2fed4: 63 00 00 34  	cbz	w3, 0x2fee0 <_ZN18ChiMetadataManager20RegisterSharedClientEPjjj16ChiMetadataUsage+0xd0>
   2fedc: ac 10 00 35  	cbnz	w12, 0x300f0 <_ZN18ChiMetadataManager20RegisterSharedClientEPjjj16ChiMetadataUsage+0x2e0>
   2fee8: 63 00 00 34  	cbz	w3, 0x2fef4 <_ZN18ChiMetadataManager20RegisterSharedClientEPjjj16ChiMetadataUsage+0xe4>
   2fef0: a0 1a 00 35  	cbnz	w0, 0x30244 <_ZN18ChiMetadataManager20RegisterSharedClientEPjjj16ChiMetadataUsage+0x434>
   2fef8: 65 00 00 34  	cbz	w5, 0x2ff04 <_ZN18ChiMetadataManager20RegisterSharedClientEPjjj16ChiMetadataUsage+0xf4>
   2ff00: a1 1a 00 35  	cbnz	w1, 0x30254 <_ZN18ChiMetadataManager20RegisterSharedClientEPjjj16ChiMetadataUsage+0x444>
   2ff08: 64 00 00 34  	cbz	w4, 0x2ff14 <_ZN18ChiMetadataManager20RegisterSharedClientEPjjj16ChiMetadataUsage+0x104>
   2ff10: a2 1a 00 35  	cbnz	w2, 0x30264 <_ZN18ChiMetadataManager20RegisterSharedClientEPjjj16ChiMetadataUsage+0x454>
   2ff18: 63 00 00 34  	cbz	w3, 0x2ff24 <_ZN18ChiMetadataManager20RegisterSharedClientEPjjj16ChiMetadataUsage+0x114>
   2ff20: ac 1a 00 35  	cbnz	w12, 0x30274 <_ZN18ChiMetadataManager20RegisterSharedClientEPjjj16ChiMetadataUsage+0x464>
   2ff30: 80 00 00 34  	cbz	w0, 0x2ff40 <_ZN18ChiMetadataManager20RegisterSharedClientEPjjj16ChiMetadataUsage+0x130>
   2ff3c: 65 1a 00 35  	cbnz	w5, 0x30288 <_ZN18ChiMetadataManager20RegisterSharedClientEPjjj16ChiMetadataUsage+0x478>
   2ff44: 61 00 00 34  	cbz	w1, 0x2ff50 <_ZN18ChiMetadataManager20RegisterSharedClientEPjjj16ChiMetadataUsage+0x140>
   2ff4c: 64 1a 00 35  	cbnz	w4, 0x30298 <_ZN18ChiMetadataManager20RegisterSharedClientEPjjj16ChiMetadataUsage+0x488>
   2ff54: 62 00 00 34  	cbz	w2, 0x2ff60 <_ZN18ChiMetadataManager20RegisterSharedClientEPjjj16ChiMetadataUsage+0x150>
   2ff5c: 63 1a 00 35  	cbnz	w3, 0x302a8 <_ZN18ChiMetadataManager20RegisterSharedClientEPjjj16ChiMetadataUsage+0x498>
   2ff64: 6c 00 00 34  	cbz	w12, 0x2ff70 <_ZN18ChiMetadataManager20RegisterSharedClientEPjjj16ChiMetadataUsage+0x160>
   2ff6c: 60 1a 00 35  	cbnz	w0, 0x302b8 <_ZN18ChiMetadataManager20RegisterSharedClientEPjjj16ChiMetadataUsage+0x4a8>
   2ff74: 65 00 00 34  	cbz	w5, 0x2ff80 <_ZN18ChiMetadataManager20RegisterSharedClientEPjjj16ChiMetadataUsage+0x170>
   2ff7c: 61 1a 00 35  	cbnz	w1, 0x302c8 <_ZN18ChiMetadataManager20RegisterSharedClientEPjjj16ChiMetadataUsage+0x4b8>
   2ff84: 64 00 00 34  	cbz	w4, 0x2ff90 <_ZN18ChiMetadataManager20RegisterSharedClientEPjjj16ChiMetadataUsage+0x180>
   2ff8c: 62 1a 00 35  	cbnz	w2, 0x302d8 <_ZN18ChiMetadataManager20RegisterSharedClientEPjjj16ChiMetadataUsage+0x4c8>
   2ff98: 63 00 00 34  	cbz	w3, 0x2ffa4 <_ZN18ChiMetadataManager20RegisterSharedClientEPjjj16ChiMetadataUsage+0x194>
   2ffa0: 4c 1a 00 35  	cbnz	w12, 0x302e8 <_ZN18ChiMetadataManager20RegisterSharedClientEPjjj16ChiMetadataUsage+0x4d8>
   2ffb0: 61 f8 ff 54  	b.ne	0x2febc <_ZN18ChiMetadataManager20RegisterSharedClientEPjjj16ChiMetadataUsage+0xac>
   2ffb4: 52 00 00 14  	b	0x300fc <_ZN18ChiMetadataManager20RegisterSharedClientEPjjj16ChiMetadataUsage+0x2ec>
   2ffc0: e0 09 00 54  	b.eq	0x300fc <_ZN18ChiMetadataManager20RegisterSharedClientEPjjj16ChiMetadataUsage+0x2ec>
   2fff0: 6d 18 00 34  	cbz	w13, 0x302fc <_ZN18ChiMetadataManager20RegisterSharedClientEPjjj16ChiMetadataUsage+0x4ec>
   2fff8: 6e 18 00 34  	cbz	w14, 0x30304 <_ZN18ChiMetadataManager20RegisterSharedClientEPjjj16ChiMetadataUsage+0x4f4>
   30000: 65 18 00 34  	cbz	w5, 0x3030c <_ZN18ChiMetadataManager20RegisterSharedClientEPjjj16ChiMetadataUsage+0x4fc>
   30008: 61 18 00 34  	cbz	w1, 0x30314 <_ZN18ChiMetadataManager20RegisterSharedClientEPjjj16ChiMetadataUsage+0x504>
   30010: c4 18 00 34  	cbz	w4, 0x30328 <_ZN18ChiMetadataManager20RegisterSharedClientEPjjj16ChiMetadataUsage+0x518>
   30018: 33 19 00 34  	cbz	w19, 0x3033c <_ZN18ChiMetadataManager20RegisterSharedClientEPjjj16ChiMetadataUsage+0x52c>
   30020: 68 19 00 34  	cbz	w8, 0x3034c <_ZN18ChiMetadataManager20RegisterSharedClientEPjjj16ChiMetadataUsage+0x53c>
   30028: e2 19 00 34  	cbz	w2, 0x30364 <_ZN18ChiMetadataManager20RegisterSharedClientEPjjj16ChiMetadataUsage+0x554>
   30030: 6a 1a 00 34  	cbz	w10, 0x3037c <_ZN18ChiMetadataManager20RegisterSharedClientEPjjj16ChiMetadataUsage+0x56c>
   30038: ee 1a 00 34  	cbz	w14, 0x30394 <_ZN18ChiMetadataManager20RegisterSharedClientEPjjj16ChiMetadataUsage+0x584>
   30040: 6f 1b 00 34  	cbz	w15, 0x303ac <_ZN18ChiMetadataManager20RegisterSharedClientEPjjj16ChiMetadataUsage+0x59c>
   30048: f0 1b 00 34  	cbz	w16, 0x303c4 <_ZN18ChiMetadataManager20RegisterSharedClientEPjjj16ChiMetadataUsage+0x5b4>
   30050: 71 1c 00 34  	cbz	w17, 0x303dc <_ZN18ChiMetadataManager20RegisterSharedClientEPjjj16ChiMetadataUsage+0x5cc>
   30058: e7 1c 00 34  	cbz	w7, 0x303f4 <_ZN18ChiMetadataManager20RegisterSharedClientEPjjj16ChiMetadataUsage+0x5e4>
   30060: 46 1d 00 34  	cbz	w6, 0x30408 <_ZN18ChiMetadataManager20RegisterSharedClientEPjjj16ChiMetadataUsage+0x5f8>
   30068: b4 1d 00 34  	cbz	w20, 0x3041c <_ZN18ChiMetadataManager20RegisterSharedClientEPjjj16ChiMetadataUsage+0x60c>
   30070: ed 1d 00 34  	cbz	w13, 0x3042c <_ZN18ChiMetadataManager20RegisterSharedClientEPjjj16ChiMetadataUsage+0x61c>
   30078: 65 1e 00 34  	cbz	w5, 0x30444 <_ZN18ChiMetadataManager20RegisterSharedClientEPjjj16ChiMetadataUsage+0x634>
   30080: e1 1e 00 34  	cbz	w1, 0x3045c <_ZN18ChiMetadataManager20RegisterSharedClientEPjjj16ChiMetadataUsage+0x64c>
   30088: 64 1f 00 34  	cbz	w4, 0x30474 <_ZN18ChiMetadataManager20RegisterSharedClientEPjjj16ChiMetadataUsage+0x664>
   30090: f3 1f 00 34  	cbz	w19, 0x3048c <_ZN18ChiMetadataManager20RegisterSharedClientEPjjj16ChiMetadataUsage+0x67c>
   30098: 68 20 00 34  	cbz	w8, 0x304a4 <_ZN18ChiMetadataManager20RegisterSharedClientEPjjj16ChiMetadataUsage+0x694>
   300a0: e2 20 00 34  	cbz	w2, 0x304bc <_ZN18ChiMetadataManager20RegisterSharedClientEPjjj16ChiMetadataUsage+0x6ac>
   300a8: 6a 21 00 34  	cbz	w10, 0x304d4 <_ZN18ChiMetadataManager20RegisterSharedClientEPjjj16ChiMetadataUsage+0x6c4>
   300b0: ee 21 00 34  	cbz	w14, 0x304ec <_ZN18ChiMetadataManager20RegisterSharedClientEPjjj16ChiMetadataUsage+0x6dc>
   300b8: 6f 22 00 34  	cbz	w15, 0x30504 <_ZN18ChiMetadataManager20RegisterSharedClientEPjjj16ChiMetadataUsage+0x6f4>
   300c0: d0 28 00 34  	cbz	w16, 0x305d8 <_ZN18ChiMetadataManager20RegisterSharedClientEPjjj16ChiMetadataUsage+0x7c8>
   300c8: d1 28 00 34  	cbz	w17, 0x305e0 <_ZN18ChiMetadataManager20RegisterSharedClientEPjjj16ChiMetadataUsage+0x7d0>
   300d0: c7 28 00 34  	cbz	w7, 0x305e8 <_ZN18ChiMetadataManager20RegisterSharedClientEPjjj16ChiMetadataUsage+0x7d8>
   300d8: c6 28 00 34  	cbz	w6, 0x305f0 <_ZN18ChiMetadataManager20RegisterSharedClientEPjjj16ChiMetadataUsage+0x7e0>
   300e8: 01 f8 ff 54  	b.ne	0x2ffe8 <_ZN18ChiMetadataManager20RegisterSharedClientEPjjj16ChiMetadataUsage+0x1d8>
   300ec: 13 02 00 14  	b	0x30938 <_ZN18ChiMetadataManager20RegisterSharedClientEPjjj16ChiMetadataUsage+0xb28>
   300f8: 61 f6 ff 54  	b.ne	0x2ffc4 <_ZN18ChiMetadataManager20RegisterSharedClientEPjjj16ChiMetadataUsage+0x1b4>
   30168: a0 0d 00 34  	cbz	w0, 0x3031c <_ZN18ChiMetadataManager20RegisterSharedClientEPjjj16ChiMetadataUsage+0x50c>
   30170: 14 0e 00 34  	cbz	w20, 0x30330 <_ZN18ChiMetadataManager20RegisterSharedClientEPjjj16ChiMetadataUsage+0x520>
   3017c: 43 0e 00 34  	cbz	w3, 0x30344 <_ZN18ChiMetadataManager20RegisterSharedClientEPjjj16ChiMetadataUsage+0x534>
   30184: 80 0e 00 34  	cbz	w0, 0x30354 <_ZN18ChiMetadataManager20RegisterSharedClientEPjjj16ChiMetadataUsage+0x544>
   3018c: 14 0f 00 34  	cbz	w20, 0x3036c <_ZN18ChiMetadataManager20RegisterSharedClientEPjjj16ChiMetadataUsage+0x55c>
   30194: 83 0f 00 34  	cbz	w3, 0x30384 <_ZN18ChiMetadataManager20RegisterSharedClientEPjjj16ChiMetadataUsage+0x574>
   3019c: 00 10 00 34  	cbz	w0, 0x3039c <_ZN18ChiMetadataManager20RegisterSharedClientEPjjj16ChiMetadataUsage+0x58c>
   301a4: 8d 10 00 34  	cbz	w13, 0x303b4 <_ZN18ChiMetadataManager20RegisterSharedClientEPjjj16ChiMetadataUsage+0x5a4>
   301ac: 14 11 00 34  	cbz	w20, 0x303cc <_ZN18ChiMetadataManager20RegisterSharedClientEPjjj16ChiMetadataUsage+0x5bc>
   301bc: 40 11 00 34  	cbz	w0, 0x303e4 <_ZN18ChiMetadataManager20RegisterSharedClientEPjjj16ChiMetadataUsage+0x5d4>
   301c8: a3 11 00 34  	cbz	w3, 0x303fc <_ZN18ChiMetadataManager20RegisterSharedClientEPjjj16ChiMetadataUsage+0x5ec>
   301d4: e0 11 00 34  	cbz	w0, 0x30410 <_ZN18ChiMetadataManager20RegisterSharedClientEPjjj16ChiMetadataUsage+0x600>
   301dc: 54 12 00 34  	cbz	w20, 0x30424 <_ZN18ChiMetadataManager20RegisterSharedClientEPjjj16ChiMetadataUsage+0x614>
   301e4: 83 12 00 34  	cbz	w3, 0x30434 <_ZN18ChiMetadataManager20RegisterSharedClientEPjjj16ChiMetadataUsage+0x624>
   301ec: 00 13 00 34  	cbz	w0, 0x3044c <_ZN18ChiMetadataManager20RegisterSharedClientEPjjj16ChiMetadataUsage+0x63c>
   301f4: 94 13 00 34  	cbz	w20, 0x30464 <_ZN18ChiMetadataManager20RegisterSharedClientEPjjj16ChiMetadataUsage+0x654>
   301fc: 03 14 00 34  	cbz	w3, 0x3047c <_ZN18ChiMetadataManager20RegisterSharedClientEPjjj16ChiMetadataUsage+0x66c>
   30204: 8d 14 00 34  	cbz	w13, 0x30494 <_ZN18ChiMetadataManager20RegisterSharedClientEPjjj16ChiMetadataUsage+0x684>
   3020c: 00 15 00 34  	cbz	w0, 0x304ac <_ZN18ChiMetadataManager20RegisterSharedClientEPjjj16ChiMetadataUsage+0x69c>
   30214: 94 15 00 34  	cbz	w20, 0x304c4 <_ZN18ChiMetadataManager20RegisterSharedClientEPjjj16ChiMetadataUsage+0x6b4>
   3021c: 03 16 00 34  	cbz	w3, 0x304dc <_ZN18ChiMetadataManager20RegisterSharedClientEPjjj16ChiMetadataUsage+0x6cc>
   30224: 8d 16 00 34  	cbz	w13, 0x304f4 <_ZN18ChiMetadataManager20RegisterSharedClientEPjjj16ChiMetadataUsage+0x6e4>
   3022c: 00 17 00 34  	cbz	w0, 0x3050c <_ZN18ChiMetadataManager20RegisterSharedClientEPjjj16ChiMetadataUsage+0x6fc>
   3023c: 21 f9 ff 54  	b.ne	0x30160 <_ZN18ChiMetadataManager20RegisterSharedClientEPjjj16ChiMetadataUsage+0x350>
   30240: be 01 00 14  	b	0x30938 <_ZN18ChiMetadataManager20RegisterSharedClientEPjjj16ChiMetadataUsage+0xb28>
   3024c: c1 eb ff 54  	b.ne	0x2ffc4 <_ZN18ChiMetadataManager20RegisterSharedClientEPjjj16ChiMetadataUsage+0x1b4>
   30250: ab ff ff 17  	b	0x300fc <_ZN18ChiMetadataManager20RegisterSharedClientEPjjj16ChiMetadataUsage+0x2ec>
   3025c: 41 eb ff 54  	b.ne	0x2ffc4 <_ZN18ChiMetadataManager20RegisterSharedClientEPjjj16ChiMetadataUsage+0x1b4>
   30260: a7 ff ff 17  	b	0x300fc <_ZN18ChiMetadataManager20RegisterSharedClientEPjjj16ChiMetadataUsage+0x2ec>
   3026c: c1 ea ff 54  	b.ne	0x2ffc4 <_ZN18ChiMetadataManager20RegisterSharedClientEPjjj16ChiMetadataUsage+0x1b4>
   30270: a3 ff ff 17  	b	0x300fc <_ZN18ChiMetadataManager20RegisterSharedClientEPjjj16ChiMetadataUsage+0x2ec>
   30280: 21 ea ff 54  	b.ne	0x2ffc4 <_ZN18ChiMetadataManager20RegisterSharedClientEPjjj16ChiMetadataUsage+0x1b4>
   30284: 9e ff ff 17  	b	0x300fc <_ZN18ChiMetadataManager20RegisterSharedClientEPjjj16ChiMetadataUsage+0x2ec>
   30290: a1 e9 ff 54  	b.ne	0x2ffc4 <_ZN18ChiMetadataManager20RegisterSharedClientEPjjj16ChiMetadataUsage+0x1b4>
   30294: 9a ff ff 17  	b	0x300fc <_ZN18ChiMetadataManager20RegisterSharedClientEPjjj16ChiMetadataUsage+0x2ec>
   302a0: 21 e9 ff 54  	b.ne	0x2ffc4 <_ZN18ChiMetadataManager20RegisterSharedClientEPjjj16ChiMetadataUsage+0x1b4>
   302a4: 96 ff ff 17  	b	0x300fc <_ZN18ChiMetadataManager20RegisterSharedClientEPjjj16ChiMetadataUsage+0x2ec>
   302b0: a1 e8 ff 54  	b.ne	0x2ffc4 <_ZN18ChiMetadataManager20RegisterSharedClientEPjjj16ChiMetadataUsage+0x1b4>
   302b4: 92 ff ff 17  	b	0x300fc <_ZN18ChiMetadataManager20RegisterSharedClientEPjjj16ChiMetadataUsage+0x2ec>
   302c0: 21 e8 ff 54  	b.ne	0x2ffc4 <_ZN18ChiMetadataManager20RegisterSharedClientEPjjj16ChiMetadataUsage+0x1b4>
   302c4: 8e ff ff 17  	b	0x300fc <_ZN18ChiMetadataManager20RegisterSharedClientEPjjj16ChiMetadataUsage+0x2ec>
   302d0: a1 e7 ff 54  	b.ne	0x2ffc4 <_ZN18ChiMetadataManager20RegisterSharedClientEPjjj16ChiMetadataUsage+0x1b4>
   302d4: 8a ff ff 17  	b	0x300fc <_ZN18ChiMetadataManager20RegisterSharedClientEPjjj16ChiMetadataUsage+0x2ec>
   302e0: 21 e7 ff 54  	b.ne	0x2ffc4 <_ZN18ChiMetadataManager20RegisterSharedClientEPjjj16ChiMetadataUsage+0x1b4>
   302e4: 86 ff ff 17  	b	0x300fc <_ZN18ChiMetadataManager20RegisterSharedClientEPjjj16ChiMetadataUsage+0x2ec>
   302f4: 81 e6 ff 54  	b.ne	0x2ffc4 <_ZN18ChiMetadataManager20RegisterSharedClientEPjjj16ChiMetadataUsage+0x1b4>
   302f8: 81 ff ff 17  	b	0x300fc <_ZN18ChiMetadataManager20RegisterSharedClientEPjjj16ChiMetadataUsage+0x2ec>
   30300: bd 00 00 14  	b	0x305f4 <_ZN18ChiMetadataManager20RegisterSharedClientEPjjj16ChiMetadataUsage+0x7e4>
   30308: bb 00 00 14  	b	0x305f4 <_ZN18ChiMetadataManager20RegisterSharedClientEPjjj16ChiMetadataUsage+0x7e4>
   30310: b9 00 00 14  	b	0x305f4 <_ZN18ChiMetadataManager20RegisterSharedClientEPjjj16ChiMetadataUsage+0x7e4>
   30318: b7 00 00 14  	b	0x305f4 <_ZN18ChiMetadataManager20RegisterSharedClientEPjjj16ChiMetadataUsage+0x7e4>
   30324: 7d 00 00 14  	b	0x30518 <_ZN18ChiMetadataManager20RegisterSharedClientEPjjj16ChiMetadataUsage+0x708>
   3032c: b2 00 00 14  	b	0x305f4 <_ZN18ChiMetadataManager20RegisterSharedClientEPjjj16ChiMetadataUsage+0x7e4>
   30338: 78 00 00 14  	b	0x30518 <_ZN18ChiMetadataManager20RegisterSharedClientEPjjj16ChiMetadataUsage+0x708>
   30340: ad 00 00 14  	b	0x305f4 <_ZN18ChiMetadataManager20RegisterSharedClientEPjjj16ChiMetadataUsage+0x7e4>
   30348: 74 00 00 14  	b	0x30518 <_ZN18ChiMetadataManager20RegisterSharedClientEPjjj16ChiMetadataUsage+0x708>
   30350: a9 00 00 14  	b	0x305f4 <_ZN18ChiMetadataManager20RegisterSharedClientEPjjj16ChiMetadataUsage+0x7e4>
   30360: 6e 00 00 14  	b	0x30518 <_ZN18ChiMetadataManager20RegisterSharedClientEPjjj16ChiMetadataUsage+0x708>
   30368: a3 00 00 14  	b	0x305f4 <_ZN18ChiMetadataManager20RegisterSharedClientEPjjj16ChiMetadataUsage+0x7e4>
   30378: 68 00 00 14  	b	0x30518 <_ZN18ChiMetadataManager20RegisterSharedClientEPjjj16ChiMetadataUsage+0x708>
   30380: 9d 00 00 14  	b	0x305f4 <_ZN18ChiMetadataManager20RegisterSharedClientEPjjj16ChiMetadataUsage+0x7e4>
   30390: 62 00 00 14  	b	0x30518 <_ZN18ChiMetadataManager20RegisterSharedClientEPjjj16ChiMetadataUsage+0x708>
   30398: 97 00 00 14  	b	0x305f4 <_ZN18ChiMetadataManager20RegisterSharedClientEPjjj16ChiMetadataUsage+0x7e4>
   303a8: 5c 00 00 14  	b	0x30518 <_ZN18ChiMetadataManager20RegisterSharedClientEPjjj16ChiMetadataUsage+0x708>
   303b0: 91 00 00 14  	b	0x305f4 <_ZN18ChiMetadataManager20RegisterSharedClientEPjjj16ChiMetadataUsage+0x7e4>
   303c0: 56 00 00 14  	b	0x30518 <_ZN18ChiMetadataManager20RegisterSharedClientEPjjj16ChiMetadataUsage+0x708>
   303c8: 8b 00 00 14  	b	0x305f4 <_ZN18ChiMetadataManager20RegisterSharedClientEPjjj16ChiMetadataUsage+0x7e4>
   303d8: 50 00 00 14  	b	0x30518 <_ZN18ChiMetadataManager20RegisterSharedClientEPjjj16ChiMetadataUsage+0x708>
   303e0: 85 00 00 14  	b	0x305f4 <_ZN18ChiMetadataManager20RegisterSharedClientEPjjj16ChiMetadataUsage+0x7e4>
   303f0: 4a 00 00 14  	b	0x30518 <_ZN18ChiMetadataManager20RegisterSharedClientEPjjj16ChiMetadataUsage+0x708>
   303f8: 7f 00 00 14  	b	0x305f4 <_ZN18ChiMetadataManager20RegisterSharedClientEPjjj16ChiMetadataUsage+0x7e4>
   30404: 45 00 00 14  	b	0x30518 <_ZN18ChiMetadataManager20RegisterSharedClientEPjjj16ChiMetadataUsage+0x708>
   3040c: 7a 00 00 14  	b	0x305f4 <_ZN18ChiMetadataManager20RegisterSharedClientEPjjj16ChiMetadataUsage+0x7e4>
   30418: 40 00 00 14  	b	0x30518 <_ZN18ChiMetadataManager20RegisterSharedClientEPjjj16ChiMetadataUsage+0x708>
   30420: 75 00 00 14  	b	0x305f4 <_ZN18ChiMetadataManager20RegisterSharedClientEPjjj16ChiMetadataUsage+0x7e4>
   30428: 3c 00 00 14  	b	0x30518 <_ZN18ChiMetadataManager20RegisterSharedClientEPjjj16ChiMetadataUsage+0x708>
   30430: 71 00 00 14  	b	0x305f4 <_ZN18ChiMetadataManager20RegisterSharedClientEPjjj16ChiMetadataUsage+0x7e4>
   30440: 36 00 00 14  	b	0x30518 <_ZN18ChiMetadataManager20RegisterSharedClientEPjjj16ChiMetadataUsage+0x708>
   30448: 6b 00 00 14  	b	0x305f4 <_ZN18ChiMetadataManager20RegisterSharedClientEPjjj16ChiMetadataUsage+0x7e4>
   30458: 30 00 00 14  	b	0x30518 <_ZN18ChiMetadataManager20RegisterSharedClientEPjjj16ChiMetadataUsage+0x708>
   30460: 65 00 00 14  	b	0x305f4 <_ZN18ChiMetadataManager20RegisterSharedClientEPjjj16ChiMetadataUsage+0x7e4>
   30470: 2a 00 00 14  	b	0x30518 <_ZN18ChiMetadataManager20RegisterSharedClientEPjjj16ChiMetadataUsage+0x708>
   30478: 5f 00 00 14  	b	0x305f4 <_ZN18ChiMetadataManager20RegisterSharedClientEPjjj16ChiMetadataUsage+0x7e4>
   30488: 24 00 00 14  	b	0x30518 <_ZN18ChiMetadataManager20RegisterSharedClientEPjjj16ChiMetadataUsage+0x708>
   30490: 59 00 00 14  	b	0x305f4 <_ZN18ChiMetadataManager20RegisterSharedClientEPjjj16ChiMetadataUsage+0x7e4>
   304a0: 1e 00 00 14  	b	0x30518 <_ZN18ChiMetadataManager20RegisterSharedClientEPjjj16ChiMetadataUsage+0x708>
   304a8: 53 00 00 14  	b	0x305f4 <_ZN18ChiMetadataManager20RegisterSharedClientEPjjj16ChiMetadataUsage+0x7e4>
   304b8: 18 00 00 14  	b	0x30518 <_ZN18ChiMetadataManager20RegisterSharedClientEPjjj16ChiMetadataUsage+0x708>
   304c0: 4d 00 00 14  	b	0x305f4 <_ZN18ChiMetadataManager20RegisterSharedClientEPjjj16ChiMetadataUsage+0x7e4>
   304d0: 12 00 00 14  	b	0x30518 <_ZN18ChiMetadataManager20RegisterSharedClientEPjjj16ChiMetadataUsage+0x708>
   304d8: 47 00 00 14  	b	0x305f4 <_ZN18ChiMetadataManager20RegisterSharedClientEPjjj16ChiMetadataUsage+0x7e4>
   304e8: 0c 00 00 14  	b	0x30518 <_ZN18ChiMetadataManager20RegisterSharedClientEPjjj16ChiMetadataUsage+0x708>
   304f0: 41 00 00 14  	b	0x305f4 <_ZN18ChiMetadataManager20RegisterSharedClientEPjjj16ChiMetadataUsage+0x7e4>
   30500: 06 00 00 14  	b	0x30518 <_ZN18ChiMetadataManager20RegisterSharedClientEPjjj16ChiMetadataUsage+0x708>
   30508: 3b 00 00 14  	b	0x305f4 <_ZN18ChiMetadataManager20RegisterSharedClientEPjjj16ChiMetadataUsage+0x7e4>
   3051c: 60 05 00 54  	b.eq	0x305c8 <_ZN18ChiMetadataManager20RegisterSharedClientEPjjj16ChiMetadataUsage+0x7b8>
   3055c: a8 03 00 54  	b.hi	0x305d0 <_ZN18ChiMetadataManager20RegisterSharedClientEPjjj16ChiMetadataUsage+0x7c0>
   3058c: cb 00 00 54  	b.lt	0x305a4 <_ZN18ChiMetadataManager20RegisterSharedClientEPjjj16ChiMetadataUsage+0x794>
   305b0: 60 00 00 b4  	cbz	x0, 0x305bc <_ZN18ChiMetadataManager20RegisterSharedClientEPjjj16ChiMetadataUsage+0x7ac>
   305c4: 10 00 00 14  	b	0x30604 <_ZN18ChiMetadataManager20RegisterSharedClientEPjjj16ChiMetadataUsage+0x7f4>
   305cc: db 00 00 14  	b	0x30938 <_ZN18ChiMetadataManager20RegisterSharedClientEPjjj16ChiMetadataUsage+0xb28>
   305d4: 0c 00 00 14  	b	0x30604 <_ZN18ChiMetadataManager20RegisterSharedClientEPjjj16ChiMetadataUsage+0x7f4>
   305dc: 06 00 00 14  	b	0x305f4 <_ZN18ChiMetadataManager20RegisterSharedClientEPjjj16ChiMetadataUsage+0x7e4>
   305e4: 04 00 00 14  	b	0x305f4 <_ZN18ChiMetadataManager20RegisterSharedClientEPjjj16ChiMetadataUsage+0x7e4>
   305ec: 02 00 00 14  	b	0x305f4 <_ZN18ChiMetadataManager20RegisterSharedClientEPjjj16ChiMetadataUsage+0x7e4>
   305f8: 00 1a 00 54  	b.eq	0x30938 <_ZN18ChiMetadataManager20RegisterSharedClientEPjjj16ChiMetadataUsage+0xb28>
   30608: 88 19 00 54  	b.hi	0x30938 <_ZN18ChiMetadataManager20RegisterSharedClientEPjjj16ChiMetadataUsage+0xb28>
   30610: 48 19 00 54  	b.hi	0x30938 <_ZN18ChiMetadataManager20RegisterSharedClientEPjjj16ChiMetadataUsage+0xb28>
   30624: 78 16 00 34  	cbz	w24, 0x308f0 <_ZN18ChiMetadataManager20RegisterSharedClientEPjjj16ChiMetadataUsage+0xae0>
   30638: 10 00 00 14  	b	0x30678 <_ZN18ChiMetadataManager20RegisterSharedClientEPjjj16ChiMetadataUsage+0x868>
   3064c: cb 03 00 b4  	cbz	x11, 0x306c4 <_ZN18ChiMetadataManager20RegisterSharedClientEPjjj16ChiMetadataUsage+0x8b4>
   30674: e0 13 00 54  	b.eq	0x308f0 <_ZN18ChiMetadataManager20RegisterSharedClientEPjjj16ChiMetadataUsage+0xae0>
   30680: fc 01 00 b4  	cbz	x28, 0x306bc <_ZN18ChiMetadataManager20RegisterSharedClientEPjjj16ChiMetadataUsage+0x8ac>
   30698: 49 03 00 54  	b.ls	0x30700 <_ZN18ChiMetadataManager20RegisterSharedClientEPjjj16ChiMetadataUsage+0x8f0>
   306b4: 18 03 00 b5  	cbnz	x24, 0x30714 <_ZN18ChiMetadataManager20RegisterSharedClientEPjjj16ChiMetadataUsage+0x904>
   306b8: 34 00 00 14  	b	0x30788 <_ZN18ChiMetadataManager20RegisterSharedClientEPjjj16ChiMetadataUsage+0x978>
   306c0: 32 00 00 14  	b	0x30788 <_ZN18ChiMetadataManager20RegisterSharedClientEPjjj16ChiMetadataUsage+0x978>
   306d8: 2d fc ff b4  	cbz	x13, 0x3065c <_ZN18ChiMetadataManager20RegisterSharedClientEPjjj16ChiMetadataUsage+0x84c>
   306e8: e0 0e 00 54  	b.eq	0x308c4 <_ZN18ChiMetadataManager20RegisterSharedClientEPjjj16ChiMetadataUsage+0xab4>
   306f0: c3 0e 00 54  	b.lo	0x308c8 <_ZN18ChiMetadataManager20RegisterSharedClientEPjjj16ChiMetadataUsage+0xab8>
   306fc: 73 00 00 14  	b	0x308c8 <_ZN18ChiMetadataManager20RegisterSharedClientEPjjj16ChiMetadataUsage+0xab8>
   30710: d8 03 00 b4  	cbz	x24, 0x30788 <_ZN18ChiMetadataManager20RegisterSharedClientEPjjj16ChiMetadataUsage+0x978>
   30718: 48 02 00 54  	b.hi	0x30760 <_ZN18ChiMetadataManager20RegisterSharedClientEPjjj16ChiMetadataUsage+0x950>
   30724: 38 03 00 b4  	cbz	x24, 0x30788 <_ZN18ChiMetadataManager20RegisterSharedClientEPjjj16ChiMetadataUsage+0x978>
   30738: 81 02 00 54  	b.ne	0x30788 <_ZN18ChiMetadataManager20RegisterSharedClientEPjjj16ChiMetadataUsage+0x978>
   30744: e1 fe ff 54  	b.ne	0x30720 <_ZN18ChiMetadataManager20RegisterSharedClientEPjjj16ChiMetadataUsage+0x910>
   30748: c8 ff ff 17  	b	0x30668 <_ZN18ChiMetadataManager20RegisterSharedClientEPjjj16ChiMetadataUsage+0x858>
   30750: c1 01 00 54  	b.ne	0x30788 <_ZN18ChiMetadataManager20RegisterSharedClientEPjjj16ChiMetadataUsage+0x978>
   3075c: 60 f8 ff 54  	b.eq	0x30668 <_ZN18ChiMetadataManager20RegisterSharedClientEPjjj16ChiMetadataUsage+0x858>
   30764: 38 01 00 b4  	cbz	x24, 0x30788 <_ZN18ChiMetadataManager20RegisterSharedClientEPjjj16ChiMetadataUsage+0x978>
   30770: 20 ff ff 54  	b.eq	0x30754 <_ZN18ChiMetadataManager20RegisterSharedClientEPjjj16ChiMetadataUsage+0x944>
   30778: a3 fe ff 54  	b.lo	0x3074c <_ZN18ChiMetadataManager20RegisterSharedClientEPjjj16ChiMetadataUsage+0x93c>
   30784: f2 ff ff 17  	b	0x3074c <_ZN18ChiMetadataManager20RegisterSharedClientEPjjj16ChiMetadataUsage+0x93c>
   307b4: bc 00 00 b4  	cbz	x28, 0x307c8 <_ZN18ChiMetadataManager20RegisterSharedClientEPjjj16ChiMetadataUsage+0x9b8>
   307c4: 05 f4 ff 54  	b.pl	0x30644 <_ZN18ChiMetadataManager20RegisterSharedClientEPjjj16ChiMetadataUsage+0x834>
   307f8: 61 00 00 54  	b.ne	0x30804 <_ZN18ChiMetadataManager20RegisterSharedClientEPjjj16ChiMetadataUsage+0x9f4>
   30800: 06 00 00 14  	b	0x30818 <_ZN18ChiMetadataManager20RegisterSharedClientEPjjj16ChiMetadataUsage+0xa08>
   30808: 80 00 00 54  	b.eq	0x30818 <_ZN18ChiMetadataManager20RegisterSharedClientEPjjj16ChiMetadataUsage+0xa08>
   30810: 54 10 00 94  	bl	0x34960 <_ZNSt3__112__next_primeEm@plt>
   30820: a9 00 00 54  	b.ls	0x30834 <_ZN18ChiMetadataManager20RegisterSharedClientEPjjj16ChiMetadataUsage+0xa24>
   3082c: 43 0d 00 94  	bl	0x33d38 <_ZN18ChiMetadataManager15PrintAllBuffersEj+0x2f0>
   30830: 1a 00 00 14  	b	0x30898 <_ZN18ChiMetadataManager20RegisterSharedClientEPjjj16ChiMetadataUsage+0xa88>
   30834: 22 03 00 54  	b.hs	0x30898 <_ZN18ChiMetadataManager20RegisterSharedClientEPjjj16ChiMetadataUsage+0xa88>
   30850: 23 04 00 54  	b.lo	0x308d4 <_ZN18ChiMetadataManager20RegisterSharedClientEPjjj16ChiMetadataUsage+0xac4>
   30868: 68 03 00 54  	b.hi	0x308d4 <_ZN18ChiMetadataManager20RegisterSharedClientEPjjj16ChiMetadataUsage+0xac4>
   30894: a3 02 00 54  	b.lo	0x308e8 <_ZN18ChiMetadataManager20RegisterSharedClientEPjjj16ChiMetadataUsage+0xad8>
   308a4: c0 ec ff 54  	b.eq	0x3063c <_ZN18ChiMetadataManager20RegisterSharedClientEPjjj16ChiMetadataUsage+0x82c>
   308ac: 69 00 00 54  	b.ls	0x308b8 <_ZN18ChiMetadataManager20RegisterSharedClientEPjjj16ChiMetadataUsage+0xaa8>
   308b4: 64 ff ff 17  	b	0x30644 <_ZN18ChiMetadataManager20RegisterSharedClientEPjjj16ChiMetadataUsage+0x834>
   308c0: 61 ff ff 17  	b	0x30644 <_ZN18ChiMetadataManager20RegisterSharedClientEPjjj16ChiMetadataUsage+0x834>
   308d0: 63 ff ff 17  	b	0x3065c <_ZN18ChiMetadataManager20RegisterSharedClientEPjjj16ChiMetadataUsage+0x84c>
   308d4: 23 10 00 94  	bl	0x34960 <_ZNSt3__112__next_primeEm@plt>
   308e4: a2 fd ff 54  	b.hs	0x30898 <_ZN18ChiMetadataManager20RegisterSharedClientEPjjj16ChiMetadataUsage+0xa88>
   308ec: d0 ff ff 17  	b	0x3082c <_ZN18ChiMetadataManager20RegisterSharedClientEPjjj16ChiMetadataUsage+0xa1c>
   308f8: b4 00 00 94  	bl	0x30bc8 <_ZN18ChiMetadataManager23RetrievePartialTagCountEj+0x10>
   3092c: 1d 10 00 94  	bl	0x349a0 <_ZN18ChiMetadataManager10MetaClient15AllocateBuffersEPjjjjj@plt>
   30930: c0 08 00 34  	cbz	w0, 0x30a48 <_ZN18ChiMetadataManager20RegisterSharedClientEPjjj16ChiMetadataUsage+0xc38>
   30938: 3a 00 00 b0  	adrp	x26, 0x35000 <_ZN18ChiMetadataManager20RegisterSharedClientEPjjj16ChiMetadataUsage+0xb3c>
   3094c: 68 05 00 36  	tbz	w8, #0, 0x309f8 <_ZN18ChiMetadataManager20RegisterSharedClientEPjjj16ChiMetadataUsage+0xbe8>
   30950: 36 00 00 b0  	adrp	x22, 0x35000 <_ZN18ChiMetadataManager20RegisterSharedClientEPjjj16ChiMetadataUsage+0xb54>
   30960: 61 02 00 54  	b.ne	0x309ac <_ZN18ChiMetadataManager20RegisterSharedClientEPjjj16ChiMetadataUsage+0xb9c>
   30964: f5 fe ff 90  	adrp	x21, 0xc000 <_ZN18ChiMetadataManager20RegisterSharedClientEPjjj16ChiMetadataUsage+0xac4>
   30980: e1 fe ff d0  	adrp	x1, 0xe000 <_ZN18ChiMetadataManager20RegisterSharedClientEPjjj16ChiMetadataUsage+0xae8>
   30984: c2 fe ff d0  	adrp	x2, 0xa000 <_ZN18ChiMetadataManager20RegisterSharedClientEPjjj16ChiMetadataUsage+0xadc>
   30988: e5 fe ff d0  	adrp	x5, 0xe000 <_ZN18ChiMetadataManager20RegisterSharedClientEPjjj16ChiMetadataUsage+0xaf0>
   309ac: fb fe ff 90  	adrp	x27, 0xc000 <_ZN18ChiMetadataManager20RegisterSharedClientEPjjj16ChiMetadataUsage+0xb0c>
   309c8: e1 fe ff d0  	adrp	x1, 0xe000 <_ZN18ChiMetadataManager20RegisterSharedClientEPjjj16ChiMetadataUsage+0xb30>
   309d0: c0 fe ff b0  	adrp	x0, 0x9000 <_ZN18ChiMetadataManager20RegisterSharedClientEPjjj16ChiMetadataUsage+0xb24>
   309d4: e3 fe ff d0  	adrp	x3, 0xe000 <_ZN18ChiMetadataManager20RegisterSharedClientEPjjj16ChiMetadataUsage+0xb3c>
   309d8: e5 fe ff 90  	adrp	x5, 0xc000 <_ZN18ChiMetadataManager20RegisterSharedClientEPjjj16ChiMetadataUsage+0xb38>
   309f4: ab 0d 00 94  	bl	0x340a0 <_ZN6ChiLog9LogSystemEPKcS1_S1_S1_iS1_z@plt>
   30a00: a4 0e 00 94  	bl	0x34490 <_ZNSt3__15mutex6unlockEv@plt>
   30a08: 60 00 00 b4  	cbz	x0, 0x30a14 <_ZN18ChiMetadataManager20RegisterSharedClientEPjjj16ChiMetadataUsage+0xc04>
   30a20: 21 09 00 54  	b.ne	0x30b44 <_ZN18ChiMetadataManager20RegisterSharedClientEPjjj16ChiMetadataUsage+0xd34>
   30a58: 39 00 00 b0  	adrp	x25, 0x35000 <_ZN18ChiMetadataManager20RegisterSharedClientEPjjj16ChiMetadataUsage+0xc5c>
   30a68: 40 06 00 54  	b.eq	0x30b30 <_ZN18ChiMetadataManager20RegisterSharedClientEPjjj16ChiMetadataUsage+0xd20>
   30a78: 28 fc 1f 36  	tbz	w8, #3, 0x309fc <_ZN18ChiMetadataManager20RegisterSharedClientEPjjj16ChiMetadataUsage+0xbec>
   30a7c: 2c 00 00 b0  	adrp	x12, 0x35000 <_ZN18ChiMetadataManager20RegisterSharedClientEPjjj16ChiMetadataUsage+0xc80>
   30a80: f5 fe ff 90  	adrp	x21, 0xc000 <_ZN18ChiMetadataManager20RegisterSharedClientEPjjj16ChiMetadataUsage+0xbe0>
   30a94: 61 02 00 54  	b.ne	0x30ae0 <_ZN18ChiMetadataManager20RegisterSharedClientEPjjj16ChiMetadataUsage+0xcd0>
   30aac: e1 fe ff d0  	adrp	x1, 0xe000 <_ZN18ChiMetadataManager20RegisterSharedClientEPjjj16ChiMetadataUsage+0xc14>
   30ab0: c2 fe ff d0  	adrp	x2, 0xa000 <_ZN18ChiMetadataManager20RegisterSharedClientEPjjj16ChiMetadataUsage+0xc08>
   30ab4: e5 fe ff d0  	adrp	x5, 0xe000 <_ZN18ChiMetadataManager20RegisterSharedClientEPjjj16ChiMetadataUsage+0xc1c>
   30af4: e1 fe ff 90  	adrp	x1, 0xc000 <_ZN18ChiMetadataManager20RegisterSharedClientEPjjj16ChiMetadataUsage+0xc54>
   30afc: e0 fe ff f0  	adrp	x0, 0xf000 <_ZN18ChiMetadataManager20RegisterSharedClientEPjjj16ChiMetadataUsage+0xc68>
   30b00: e3 fe ff d0  	adrp	x3, 0xe000 <_ZN18ChiMetadataManager20RegisterSharedClientEPjjj16ChiMetadataUsage+0xc68>
   30b04: c5 fe ff d0  	adrp	x5, 0xa000 <_ZN18ChiMetadataManager20RegisterSharedClientEPjjj16ChiMetadataUsage+0xc5c>
   30b28: 5e 0d 00 94  	bl	0x340a0 <_ZN6ChiLog9LogSystemEPKcS1_S1_S1_iS1_z@plt>
   30b2c: b4 ff ff 17  	b	0x309fc <_ZN18ChiMetadataManager20RegisterSharedClientEPjjj16ChiMetadataUsage+0xbec>
   30b3c: e8 f5 07 36  	tbz	w8, #0, 0x309f8 <_ZN18ChiMetadataManager20RegisterSharedClientEPjjj16ChiMetadataUsage+0xbe8>
   30b40: 84 ff ff 17  	b	0x30950 <_ZN18ChiMetadataManager20RegisterSharedClientEPjjj16ChiMetadataUsage+0xb40>
0000000000030b48 <_ZN18ChiMetadataManager12IsFreeClientERKNS_10MetaClientE>:
0000000000030b58 <_ZN18ChiMetadataManager16IsRealtimeClientERKNS_10MetaClientE>:
   30b5c: a8 00 00 34  	cbz	w8, 0x30b70 <_ZN18ChiMetadataManager16IsRealtimeClientERKNS_10MetaClientE+0x18>
0000000000030b78 <_ZN18ChiMetadataManager15IsOfflineClientERKNS_10MetaClientE>:
   30b7c: a8 00 00 34  	cbz	w8, 0x30b90 <_ZN18ChiMetadataManager15IsOfflineClientERKNS_10MetaClientE+0x18>
0000000000030b98 <_ZN18ChiMetadataManager15IsFreeSubClientERKNS_10MetaClient9SubClientE>:
0000000000030ba8 <_ZN18ChiMetadataManager19RetrievePartialTagsEj>:
0000000000030bb8 <_ZN18ChiMetadataManager23RetrievePartialTagCountEj>:
   30be0: a1 02 00 b4  	cbz	x1, 0x30c34 <_ZN18ChiMetadataManager23RetrievePartialTagCountEj+0x7c>
   30bf4: cc ff ff b5  	cbnz	x12, 0x30bec <_ZN18ChiMetadataManager23RetrievePartialTagCountEj+0x34>
   30c08: 22 02 00 54  	b.hs	0x30c4c <_ZN18ChiMetadataManager23RetrievePartialTagCountEj+0x94>
   30c1c: 02 06 00 54  	b.hs	0x30cdc <_ZN18ChiMetadataManager23RetrievePartialTagCountEj+0x124>
   30c2c: e1 06 00 54  	b.ne	0x30d08 <_ZN18ChiMetadataManager23RetrievePartialTagCountEj+0x150>
   30c30: 3b 00 00 14  	b	0x30d1c <_ZN18ChiMetadataManager23RetrievePartialTagCountEj+0x164>
   30c44: 21 06 00 54  	b.ne	0x30d08 <_ZN18ChiMetadataManager23RetrievePartialTagCountEj+0x150>
   30c48: 35 00 00 14  	b	0x30d1c <_ZN18ChiMetadataManager23RetrievePartialTagCountEj+0x164>
   30c4c: c0 00 00 b4  	cbz	x0, 0x30c64 <_ZN18ChiMetadataManager23RetrievePartialTagCountEj+0xac>
   30c6c: 22 08 00 54  	b.hs	0x30d70 <_ZN18ChiMetadataManager23RetrievePartialTagCountEj+0x1b8>
   30c90: 10 07 00 b5  	cbnz	x16, 0x30d70 <_ZN18ChiMetadataManager23RetrievePartialTagCountEj+0x1b8>
   30cc8: 74 ff ff b5  	cbnz	x20, 0x30cb4 <_ZN18ChiMetadataManager23RetrievePartialTagCountEj+0xfc>
   30ce0: eb 03 00 54  	b.lt	0x30d5c <_ZN18ChiMetadataManager23RetrievePartialTagCountEj+0x1a4>
   30cf8: ac ff ff 54  	b.gt	0x30cec <_ZN18ChiMetadataManager23RetrievePartialTagCountEj+0x134>
   30d04: c0 00 00 54  	b.eq	0x30d1c <_ZN18ChiMetadataManager23RetrievePartialTagCountEj+0x164>
   30d18: 81 ff ff 54  	b.ne	0x30d08 <_ZN18ChiMetadataManager23RetrievePartialTagCountEj+0x150>
   30d1c: 69 01 00 34  	cbz	w9, 0x30d48 <_ZN18ChiMetadataManager23RetrievePartialTagCountEj+0x190>
   30d20: 68 fd ff b4  	cbz	x8, 0x30ccc <_ZN18ChiMetadataManager23RetrievePartialTagCountEj+0x114>
   30d40: 68 ff ff b5  	cbnz	x8, 0x30d2c <_ZN18ChiMetadataManager23RetrievePartialTagCountEj+0x174>
   30d44: e2 ff ff 17  	b	0x30ccc <_ZN18ChiMetadataManager23RetrievePartialTagCountEj+0x114>
   30d68: 01 fd ff 54  	b.ne	0x30d08 <_ZN18ChiMetadataManager23RetrievePartialTagCountEj+0x150>
   30d6c: ec ff ff 17  	b	0x30d1c <_ZN18ChiMetadataManager23RetrievePartialTagCountEj+0x164>
   30d74: 07 0d 00 94  	bl	0x34190 <_ZNKSt3__120__vector_base_commonILb1EE20__throw_length_errorEv@plt>
0000000000030d78 <_ZN18ChiMetadataManager16UnregisterClientEj>:
   30da0: b4 0d 00 94  	bl	0x34470 <_ZNSt3__15mutex4lockEv@plt>
   30dac: a8 01 00 54  	b.hi	0x30de0 <_ZN18ChiMetadataManager16UnregisterClientEj+0x68>
   30dbc: 28 01 00 54  	b.hi	0x30de0 <_ZN18ChiMetadataManager16UnregisterClientEj+0x68>
   30ddc: 2e 00 00 14  	b	0x30e94 <_ZN18ChiMetadataManager16UnregisterClientEj+0x11c>
   30de0: 29 00 00 b0  	adrp	x9, 0x35000 <_ZN18ChiMetadataManager16UnregisterClientEj+0x7c>
   30dec: 28 05 00 36  	tbz	w8, #0, 0x30e90 <_ZN18ChiMetadataManager16UnregisterClientEj+0x118>
   30df0: 2a 00 00 b0  	adrp	x10, 0x35000 <_ZN18ChiMetadataManager16UnregisterClientEj+0x8c>
   30df4: f5 fe ff 90  	adrp	x21, 0xc000 <_ZN18ChiMetadataManager23RetrievePartialTagCountEj+0x1ac>
   30e08: 21 02 00 54  	b.ne	0x30e4c <_ZN18ChiMetadataManager16UnregisterClientEj+0xd4>
   30e20: e1 fe ff d0  	adrp	x1, 0xe000 <_ZN18ChiMetadataManager16UnregisterClientEj+0x20>
   30e24: c2 fe ff d0  	adrp	x2, 0xa000 <_ZN18ChiMetadataManager16UnregisterClientEj+0x14>
   30e28: e5 fe ff b0  	adrp	x5, 0xd000 <_ZN18ChiMetadataManager16UnregisterClientEj+0x24>
   30e60: e1 fe ff d0  	adrp	x1, 0xe000 <_ZN18ChiMetadataManager16UnregisterClientEj+0x60>
   30e68: c0 fe ff b0  	adrp	x0, 0x9000 <_ZN18ChiMetadataManager16UnregisterClientEj+0x54>
   30e6c: e3 fe ff b0  	adrp	x3, 0xd000 <_ZN18ChiMetadataManager16UnregisterClientEj+0x68>
   30e70: e5 fe ff d0  	adrp	x5, 0xe000 <_ZN18ChiMetadataManager16UnregisterClientEj+0x70>
   30e8c: 85 0c 00 94  	bl	0x340a0 <_ZN6ChiLog9LogSystemEPKcS1_S1_S1_iS1_z@plt>
   30e98: 7e 0d 00 94  	bl	0x34490 <_ZNSt3__15mutex6unlockEv@plt>
0000000000030eb0 <_ZN18ChiMetadataManager5FlushEv>:
   30ee4: 63 0d 00 94  	bl	0x34470 <_ZNSt3__15mutex4lockEv@plt>
   30efc: 06 00 00 14  	b	0x30f14 <_ZN18ChiMetadataManager5FlushEv+0x64>
   30f04: 63 0d 00 94  	bl	0x34490 <_ZNSt3__15mutex6unlockEv@plt>
   30f10: 60 0d 00 54  	b.eq	0x310bc <_ZN18ChiMetadataManager5FlushEv+0x20c>
   30f1c: 08 03 00 34  	cbz	w8, 0x30f7c <_ZN18ChiMetadataManager5FlushEv+0xcc>
   30f28: 52 0d 00 94  	bl	0x34470 <_ZNSt3__15mutex4lockEv@plt>
   30f34: 00 02 00 54  	b.eq	0x30f74 <_ZN18ChiMetadataManager5FlushEv+0xc4>
   30f70: 83 fe ff 54  	b.lo	0x30f40 <_ZN18ChiMetadataManager5FlushEv+0x90>
   30f78: 46 0d 00 94  	bl	0x34490 <_ZNSt3__15mutex6unlockEv@plt>
   30f80: 49 03 00 34  	cbz	w9, 0x30fe8 <_ZN18ChiMetadataManager5FlushEv+0x138>
   30f8c: 39 0d 00 94  	bl	0x34470 <_ZNSt3__15mutex4lockEv@plt>
   30f9c: 20 02 00 54  	b.eq	0x30fe0 <_ZN18ChiMetadataManager5FlushEv+0x130>
   30fdc: 63 fe ff 54  	b.lo	0x30fa8 <_ZN18ChiMetadataManager5FlushEv+0xf8>
   30fe4: 2b 0d 00 94  	bl	0x34490 <_ZNSt3__15mutex6unlockEv@plt>
   30fec: 4a 03 00 34  	cbz	w10, 0x31054 <_ZN18ChiMetadataManager5FlushEv+0x1a4>
   30ff8: 1e 0d 00 94  	bl	0x34470 <_ZNSt3__15mutex4lockEv@plt>
   31008: 20 02 00 54  	b.eq	0x3104c <_ZN18ChiMetadataManager5FlushEv+0x19c>
   31048: 63 fe ff 54  	b.lo	0x31014 <_ZN18ChiMetadataManager5FlushEv+0x164>
   31050: 10 0d 00 94  	bl	0x34490 <_ZNSt3__15mutex6unlockEv@plt>
   31058: 8b f5 ff 34  	cbz	w11, 0x30f08 <_ZN18ChiMetadataManager5FlushEv+0x58>
   31064: 03 0d 00 94  	bl	0x34470 <_ZNSt3__15mutex4lockEv@plt>
   31074: 60 f4 ff 54  	b.eq	0x30f00 <_ZN18ChiMetadataManager5FlushEv+0x50>
   310b4: 63 fe ff 54  	b.lo	0x31080 <_ZN18ChiMetadataManager5FlushEv+0x1d0>
   310b8: 92 ff ff 17  	b	0x30f00 <_ZN18ChiMetadataManager5FlushEv+0x50>
   310c0: f4 0c 00 94  	bl	0x34490 <_ZNSt3__15mutex6unlockEv@plt>
00000000000310e8 <_ZN18ChiMetadataManager13SetPipelineIdEjj>:
   31114: d7 0c 00 94  	bl	0x34470 <_ZNSt3__15mutex4lockEv@plt>
   31120: c8 01 00 54  	b.hi	0x31158 <_ZN18ChiMetadataManager13SetPipelineIdEjj+0x70>
   31130: 48 01 00 54  	b.hi	0x31158 <_ZN18ChiMetadataManager13SetPipelineIdEjj+0x70>
   31148: eb 05 00 34  	cbz	w11, 0x31204 <_ZN18ChiMetadataManager13SetPipelineIdEjj+0x11c>
   31154: 5b 00 00 14  	b	0x312c0 <_ZN18ChiMetadataManager13SetPipelineIdEjj+0x1d8>
   31158: 2b 00 00 90  	adrp	x11, 0x35000 <_ZN18ChiMetadataManager13SetPipelineIdEjj+0x80>
   31164: cc 0a 08 36  	tbz	w12, #1, 0x312bc <_ZN18ChiMetadataManager13SetPipelineIdEjj+0x1d4>
   31168: 2c 00 00 90  	adrp	x12, 0x35000 <_ZN18ChiMetadataManager13SetPipelineIdEjj+0x90>
   3116c: d5 fe ff f0  	adrp	x21, 0xc000 <_ZN18ChiMetadataManager5FlushEv+0x228>
   31180: 21 02 00 54  	b.ne	0x311c4 <_ZN18ChiMetadataManager13SetPipelineIdEjj+0xdc>
   31198: e1 fe ff b0  	adrp	x1, 0xe000 <_ZN18ChiMetadataManager13SetPipelineIdEjj+0x24>
   3119c: e2 fe ff 90  	adrp	x2, 0xd000 <_ZN18ChiMetadataManager13SetPipelineIdEjj+0x24>
   311a0: e5 fe ff 90  	adrp	x5, 0xd000 <_ZN18ChiMetadataManager13SetPipelineIdEjj+0x28>
   311d8: c1 fe ff b0  	adrp	x1, 0xa000 <_ZN18ChiMetadataManager13SetPipelineIdEjj+0x54>
   311e0: e0 fe ff 90  	adrp	x0, 0xd000 <_ZN18ChiMetadataManager13SetPipelineIdEjj+0x68>
   311e4: e3 fe ff 90  	adrp	x3, 0xd000 <_ZN18ChiMetadataManager13SetPipelineIdEjj+0x6c>
   311e8: e5 fe ff b0  	adrp	x5, 0xe000 <_ZN18ChiMetadataManager13SetPipelineIdEjj+0x74>
   31200: 2d 00 00 14  	b	0x312b4 <_ZN18ChiMetadataManager13SetPipelineIdEjj+0x1cc>
   31204: 29 00 00 90  	adrp	x9, 0x35000 <_ZN18ChiMetadataManager13SetPipelineIdEjj+0x12c>
   31210: 68 05 00 36  	tbz	w8, #0, 0x312bc <_ZN18ChiMetadataManager13SetPipelineIdEjj+0x1d4>
   31214: 2a 00 00 90  	adrp	x10, 0x35000 <_ZN18ChiMetadataManager13SetPipelineIdEjj+0x13c>
   31224: 61 02 00 54  	b.ne	0x31270 <_ZN18ChiMetadataManager13SetPipelineIdEjj+0x188>
   31228: d5 fe ff f0  	adrp	x21, 0xc000 <_ZN18ChiMetadataManager13SetPipelineIdEjj+0xac>
   31244: e1 fe ff b0  	adrp	x1, 0xe000 <_ZN18ChiMetadataManager13SetPipelineIdEjj+0xd0>
   31248: c2 fe ff d0  	adrp	x2, 0xb000 <_ZN18ChiMetadataManager13SetPipelineIdEjj+0xc8>
   3124c: e5 fe ff 90  	adrp	x5, 0xd000 <_ZN18ChiMetadataManager13SetPipelineIdEjj+0xd4>
   31270: d6 fe ff f0  	adrp	x22, 0xc000 <_ZN18ChiMetadataManager13SetPipelineIdEjj+0xf4>
   3128c: e1 fe ff b0  	adrp	x1, 0xe000 <_ZN18ChiMetadataManager13SetPipelineIdEjj+0x118>
   31294: c0 fe ff 90  	adrp	x0, 0x9000 <_ZN18ChiMetadataManager13SetPipelineIdEjj+0x10c>
   31298: e3 fe ff 90  	adrp	x3, 0xd000 <_ZN18ChiMetadataManager13SetPipelineIdEjj+0x120>
   3129c: e5 fe ff b0  	adrp	x5, 0xe000 <_ZN18ChiMetadataManager13SetPipelineIdEjj+0x128>
   312b8: 7a 0b 00 94  	bl	0x340a0 <_ZN6ChiLog9LogSystemEPKcS1_S1_S1_iS1_z@plt>
   312c4: 73 0c 00 94  	bl	0x34490 <_ZNSt3__15mutex6unlockEv@plt>
00000000000312e0 <_ZN18ChiMetadataManager13GetFreeHolderEjjjRNSt3__16chrono10time_pointINS1_12steady_clockENS1_8durationIxNS0_5ratioILl1ELl1000000000EEEEEEE>:
   31334: e9 02 00 34  	cbz	w9, 0x31390 <_ZN18ChiMetadataManager13GetFreeHolderEjjjRNSt3__16chrono10time_pointINS1_12steady_clockENS1_8durationIxNS0_5ratioILl1ELl1000000000EEEEEEE+0xb0>
   31340: 8a 02 00 34  	cbz	w10, 0x31390 <_ZN18ChiMetadataManager13GetFreeHolderEjjjRNSt3__16chrono10time_pointINS1_12steady_clockENS1_8durationIxNS0_5ratioILl1ELl1000000000EEEEEEE+0xb0>
   31354: 47 0c 00 94  	bl	0x34470 <_ZNSt3__15mutex4lockEv@plt>
   31364: 60 0a 00 54  	b.eq	0x314b0 <_ZN18ChiMetadataManager13GetFreeHolderEjjjRNSt3__16chrono10time_pointINS1_12steady_clockENS1_8durationIxNS0_5ratioILl1ELl1000000000EEEEEEE+0x1d0>
   3137c: 2b 07 00 35  	cbnz	w11, 0x31460 <_ZN18ChiMetadataManager13GetFreeHolderEjjjRNSt3__16chrono10time_pointINS1_12steady_clockENS1_8durationIxNS0_5ratioILl1ELl1000000000EEEEEEE+0x180>
   31388: 68 ff ff 54  	b.hi	0x31374 <_ZN18ChiMetadataManager13GetFreeHolderEjjjRNSt3__16chrono10time_pointINS1_12steady_clockENS1_8durationIxNS0_5ratioILl1ELl1000000000EEEEEEE+0x94>
   3138c: 38 00 00 14  	b	0x3146c <_ZN18ChiMetadataManager13GetFreeHolderEjjjRNSt3__16chrono10time_pointINS1_12steady_clockENS1_8durationIxNS0_5ratioILl1ELl1000000000EEEEEEE+0x18c>
   31390: 37 00 00 90  	adrp	x23, 0x35000 <_ZN18ChiMetadataManager13GetFreeHolderEjjjRNSt3__16chrono10time_pointINS1_12steady_clockENS1_8durationIxNS0_5ratioILl1ELl1000000000EEEEEEE+0xc0>
   3139c: f9 05 00 36  	tbz	w25, #0, 0x31458 <_ZN18ChiMetadataManager13GetFreeHolderEjjjRNSt3__16chrono10time_pointINS1_12steady_clockENS1_8durationIxNS0_5ratioILl1ELl1000000000EEEEEEE+0x178>
   313a0: 28 00 00 90  	adrp	x8, 0x35000 <_ZN18ChiMetadataManager13GetFreeHolderEjjjRNSt3__16chrono10time_pointINS1_12steady_clockENS1_8durationIxNS0_5ratioILl1ELl1000000000EEEEEEE+0xd0>
   313b0: a1 02 00 54  	b.ne	0x31404 <_ZN18ChiMetadataManager13GetFreeHolderEjjjRNSt3__16chrono10time_pointINS1_12steady_clockENS1_8durationIxNS0_5ratioILl1ELl1000000000EEEEEEE+0x124>
   313b4: db fe ff f0  	adrp	x27, 0xc000 <_ZN18ChiMetadataManager13GetFreeHolderEjjjRNSt3__16chrono10time_pointINS1_12steady_clockENS1_8durationIxNS0_5ratioILl1ELl1000000000EEEEEEE+0x40>
   313d0: e1 fe ff b0  	adrp	x1, 0xe000 <_ZN18ChiMetadataManager13GetFreeHolderEjjjRNSt3__16chrono10time_pointINS1_12steady_clockENS1_8durationIxNS0_5ratioILl1ELl1000000000EEEEEEE+0x64>
   313d4: c2 fe ff d0  	adrp	x2, 0xb000 <_ZN18ChiMetadataManager13GetFreeHolderEjjjRNSt3__16chrono10time_pointINS1_12steady_clockENS1_8durationIxNS0_5ratioILl1ELl1000000000EEEEEEE+0x5c>
   313d8: e5 fe ff 90  	adrp	x5, 0xd000 <_ZN18ChiMetadataManager13GetFreeHolderEjjjRNSt3__16chrono10time_pointINS1_12steady_clockENS1_8durationIxNS0_5ratioILl1ELl1000000000EEEEEEE+0x68>
   31404: da fe ff f0  	adrp	x26, 0xc000 <_ZN18ChiMetadataManager13GetFreeHolderEjjjRNSt3__16chrono10time_pointINS1_12steady_clockENS1_8durationIxNS0_5ratioILl1ELl1000000000EEEEEEE+0x90>
   31420: e1 fe ff b0  	adrp	x1, 0xe000 <_ZN18ChiMetadataManager13GetFreeHolderEjjjRNSt3__16chrono10time_pointINS1_12steady_clockENS1_8durationIxNS0_5ratioILl1ELl1000000000EEEEEEE+0xb4>
   31428: c0 fe ff 90  	adrp	x0, 0x9000 <_ZN18ChiMetadataManager13GetFreeHolderEjjjRNSt3__16chrono10time_pointINS1_12steady_clockENS1_8durationIxNS0_5ratioILl1ELl1000000000EEEEEEE+0xa8>
   3142c: e3 fe ff 90  	adrp	x3, 0xd000 <_ZN18ChiMetadataManager13GetFreeHolderEjjjRNSt3__16chrono10time_pointINS1_12steady_clockENS1_8durationIxNS0_5ratioILl1ELl1000000000EEEEEEE+0xbc>
   31430: c5 fe ff 90  	adrp	x5, 0x9000 <_ZN18ChiMetadataManager13GetFreeHolderEjjjRNSt3__16chrono10time_pointINS1_12steady_clockENS1_8durationIxNS0_5ratioILl1ELl1000000000EEEEEEE+0xb0>
   31454: 13 0b 00 94  	bl	0x340a0 <_ZN6ChiLog9LogSystemEPKcS1_S1_S1_iS1_z@plt>
   3145c: a0 01 00 14  	b	0x31adc <_ZN18ChiMetadataManager13GetFreeHolderEjjjRNSt3__16chrono10time_pointINS1_12steady_clockENS1_8durationIxNS0_5ratioILl1ELl1000000000EEEEEEE+0x7fc>
   31468: 99 28 00 b5  	cbnz	x25, 0x31978 <_ZN18ChiMetadataManager13GetFreeHolderEjjjRNSt3__16chrono10time_pointINS1_12steady_clockENS1_8durationIxNS0_5ratioILl1ELl1000000000EEEEEEE+0x698>
   31494: cc 14 00 34  	cbz	w12, 0x3172c <_ZN18ChiMetadataManager13GetFreeHolderEjjjRNSt3__16chrono10time_pointINS1_12steady_clockENS1_8durationIxNS0_5ratioILl1ELl1000000000EEEEEEE+0x44c>
   314a8: 63 fe ff 54  	b.lo	0x31474 <_ZN18ChiMetadataManager13GetFreeHolderEjjjRNSt3__16chrono10time_pointINS1_12steady_clockENS1_8durationIxNS0_5ratioILl1ELl1000000000EEEEEEE+0x194>
   314cc: e9 08 00 54  	b.ls	0x315e8 <_ZN18ChiMetadataManager13GetFreeHolderEjjjRNSt3__16chrono10time_pointINS1_12steady_clockENS1_8durationIxNS0_5ratioILl1ELl1000000000EEEEEEE+0x308>
   314e0: ba fd ff 97  	bl	0x30bc8 <_ZN18ChiMetadataManager23RetrievePartialTagCountEj+0x10>
   314e4: 2e 00 00 90  	adrp	x14, 0x35000 <_ZN18ChiMetadataManager13GetFreeHolderEjjjRNSt3__16chrono10time_pointINS1_12steady_clockENS1_8durationIxNS0_5ratioILl1ELl1000000000EEEEEEE+0x214>
   314fc: 10 06 28 36  	tbz	w16, #5, 0x315bc <_ZN18ChiMetadataManager13GetFreeHolderEjjjRNSt3__16chrono10time_pointINS1_12steady_clockENS1_8durationIxNS0_5ratioILl1ELl1000000000EEEEEEE+0x2dc>
   31500: 2f 00 00 90  	adrp	x15, 0x35000 <_ZN18ChiMetadataManager13GetFreeHolderEjjjRNSt3__16chrono10time_pointINS1_12steady_clockENS1_8durationIxNS0_5ratioILl1ELl1000000000EEEEEEE+0x230>
   31514: 81 02 00 54  	b.ne	0x31564 <_ZN18ChiMetadataManager13GetFreeHolderEjjjRNSt3__16chrono10time_pointINS1_12steady_clockENS1_8durationIxNS0_5ratioILl1ELl1000000000EEEEEEE+0x284>
   31518: db fe ff f0  	adrp	x27, 0xc000 <_ZN18ChiMetadataManager13GetFreeHolderEjjjRNSt3__16chrono10time_pointINS1_12steady_clockENS1_8durationIxNS0_5ratioILl1ELl1000000000EEEEEEE+0x1a4>
   31534: e1 fe ff b0  	adrp	x1, 0xe000 <_ZN18ChiMetadataManager13GetFreeHolderEjjjRNSt3__16chrono10time_pointINS1_12steady_clockENS1_8durationIxNS0_5ratioILl1ELl1000000000EEEEEEE+0x1c8>
   31538: c2 fe ff b0  	adrp	x2, 0xa000 <_ZN18ChiMetadataManager13GetFreeHolderEjjjRNSt3__16chrono10time_pointINS1_12steady_clockENS1_8durationIxNS0_5ratioILl1ELl1000000000EEEEEEE+0x1bc>
   3153c: e5 fe ff 90  	adrp	x5, 0xd000 <_ZN18ChiMetadataManager13GetFreeHolderEjjjRNSt3__16chrono10time_pointINS1_12steady_clockENS1_8durationIxNS0_5ratioILl1ELl1000000000EEEEEEE+0x1cc>
   31564: db fe ff f0  	adrp	x27, 0xc000 <_ZN18ChiMetadataManager13GetFreeHolderEjjjRNSt3__16chrono10time_pointINS1_12steady_clockENS1_8durationIxNS0_5ratioILl1ELl1000000000EEEEEEE+0x1f0>
   31580: c1 fe ff f0  	adrp	x1, 0xc000 <_ZN18ChiMetadataManager13GetFreeHolderEjjjRNSt3__16chrono10time_pointINS1_12steady_clockENS1_8durationIxNS0_5ratioILl1ELl1000000000EEEEEEE+0x20c>
   31588: e0 fe ff b0  	adrp	x0, 0xe000 <_ZN18ChiMetadataManager13GetFreeHolderEjjjRNSt3__16chrono10time_pointINS1_12steady_clockENS1_8durationIxNS0_5ratioILl1ELl1000000000EEEEEEE+0x21c>
   3158c: e3 fe ff 90  	adrp	x3, 0xd000 <_ZN18ChiMetadataManager13GetFreeHolderEjjjRNSt3__16chrono10time_pointINS1_12steady_clockENS1_8durationIxNS0_5ratioILl1ELl1000000000EEEEEEE+0x21c>
   31590: e5 fe ff 90  	adrp	x5, 0xd000 <_ZN18ChiMetadataManager13GetFreeHolderEjjjRNSt3__16chrono10time_pointINS1_12steady_clockENS1_8durationIxNS0_5ratioILl1ELl1000000000EEEEEEE+0x220>
   315b0: bc 0a 00 94  	bl	0x340a0 <_ZN6ChiLog9LogSystemEPKcS1_S1_S1_iS1_z@plt>
   315e0: f0 0c 00 94  	bl	0x349a0 <_ZN18ChiMetadataManager10MetaClient15AllocateBuffersEPjjjjj@plt>
   315e4: 60 0b 00 34  	cbz	w0, 0x31750 <_ZN18ChiMetadataManager13GetFreeHolderEjjjRNSt3__16chrono10time_pointINS1_12steady_clockENS1_8durationIxNS0_5ratioILl1ELl1000000000EEEEEEE+0x470>
   315ec: 91 00 00 34  	cbz	w17, 0x315fc <_ZN18ChiMetadataManager13GetFreeHolderEjjjRNSt3__16chrono10time_pointINS1_12steady_clockENS1_8durationIxNS0_5ratioILl1ELl1000000000EEEEEEE+0x31c>
   315f8: 21 07 00 54  	b.ne	0x316dc <_ZN18ChiMetadataManager13GetFreeHolderEjjjRNSt3__16chrono10time_pointINS1_12steady_clockENS1_8durationIxNS0_5ratioILl1ELl1000000000EEEEEEE+0x3fc>
   315fc: 38 00 00 90  	adrp	x24, 0x35000 <_ZN18ChiMetadataManager13GetFreeHolderEjjjRNSt3__16chrono10time_pointINS1_12steady_clockENS1_8durationIxNS0_5ratioILl1ELl1000000000EEEEEEE+0x32c>
   31608: 60 00 00 37  	tbnz	w0, #0, 0x31614 <_ZN18ChiMetadataManager13GetFreeHolderEjjjRNSt3__16chrono10time_pointINS1_12steady_clockENS1_8durationIxNS0_5ratioILl1ELl1000000000EEEEEEE+0x334>
   31610: 2d 01 00 14  	b	0x31ac4 <_ZN18ChiMetadataManager13GetFreeHolderEjjjRNSt3__16chrono10time_pointINS1_12steady_clockENS1_8durationIxNS0_5ratioILl1ELl1000000000EEEEEEE+0x7e4>
   31614: 39 00 00 90  	adrp	x25, 0x35000 <_ZN18ChiMetadataManager13GetFreeHolderEjjjRNSt3__16chrono10time_pointINS1_12steady_clockENS1_8durationIxNS0_5ratioILl1ELl1000000000EEEEEEE+0x344>
   31624: e1 02 00 54  	b.ne	0x31680 <_ZN18ChiMetadataManager13GetFreeHolderEjjjRNSt3__16chrono10time_pointINS1_12steady_clockENS1_8durationIxNS0_5ratioILl1ELl1000000000EEEEEEE+0x3a0>
   3162c: db fe ff f0  	adrp	x27, 0xc000 <_ZN18ChiMetadataManager13GetFreeHolderEjjjRNSt3__16chrono10time_pointINS1_12steady_clockENS1_8durationIxNS0_5ratioILl1ELl1000000000EEEEEEE+0x2b8>
   31648: e1 fe ff b0  	adrp	x1, 0xe000 <_ZN18ChiMetadataManager13GetFreeHolderEjjjRNSt3__16chrono10time_pointINS1_12steady_clockENS1_8durationIxNS0_5ratioILl1ELl1000000000EEEEEEE+0x2dc>
   3164c: c2 fe ff d0  	adrp	x2, 0xb000 <_ZN18ChiMetadataManager13GetFreeHolderEjjjRNSt3__16chrono10time_pointINS1_12steady_clockENS1_8durationIxNS0_5ratioILl1ELl1000000000EEEEEEE+0x2d4>
   31650: e5 fe ff 90  	adrp	x5, 0xd000 <_ZN18ChiMetadataManager13GetFreeHolderEjjjRNSt3__16chrono10time_pointINS1_12steady_clockENS1_8durationIxNS0_5ratioILl1ELl1000000000EEEEEEE+0x2e0>
   31680: da fe ff f0  	adrp	x26, 0xc000 <_ZN18ChiMetadataManager13GetFreeHolderEjjjRNSt3__16chrono10time_pointINS1_12steady_clockENS1_8durationIxNS0_5ratioILl1ELl1000000000EEEEEEE+0x30c>
   3169c: e1 fe ff b0  	adrp	x1, 0xe000 <_ZN18ChiMetadataManager13GetFreeHolderEjjjRNSt3__16chrono10time_pointINS1_12steady_clockENS1_8durationIxNS0_5ratioILl1ELl1000000000EEEEEEE+0x330>
   316a4: c0 fe ff 90  	adrp	x0, 0x9000 <_ZN18ChiMetadataManager13GetFreeHolderEjjjRNSt3__16chrono10time_pointINS1_12steady_clockENS1_8durationIxNS0_5ratioILl1ELl1000000000EEEEEEE+0x324>
   316a8: e3 fe ff 90  	adrp	x3, 0xd000 <_ZN18ChiMetadataManager13GetFreeHolderEjjjRNSt3__16chrono10time_pointINS1_12steady_clockENS1_8durationIxNS0_5ratioILl1ELl1000000000EEEEEEE+0x338>
   316ac: c5 fe ff 90  	adrp	x5, 0x9000 <_ZN18ChiMetadataManager13GetFreeHolderEjjjRNSt3__16chrono10time_pointINS1_12steady_clockENS1_8durationIxNS0_5ratioILl1ELl1000000000EEEEEEE+0x32c>
   316d0: 74 0a 00 94  	bl	0x340a0 <_ZN6ChiLog9LogSystemEPKcS1_S1_S1_iS1_z@plt>
   316d8: fb 00 00 14  	b	0x31ac4 <_ZN18ChiMetadataManager13GetFreeHolderEjjjRNSt3__16chrono10time_pointINS1_12steady_clockENS1_8durationIxNS0_5ratioILl1ELl1000000000EEEEEEE+0x7e4>
   316e4: 23 04 00 54  	b.lo	0x31768 <_ZN18ChiMetadataManager13GetFreeHolderEjjjRNSt3__16chrono10time_pointINS1_12steady_clockENS1_8durationIxNS0_5ratioILl1ELl1000000000EEEEEEE+0x488>
   31724: c8 fe ff 54  	b.hi	0x316fc <_ZN18ChiMetadataManager13GetFreeHolderEjjjRNSt3__16chrono10time_pointINS1_12steady_clockENS1_8durationIxNS0_5ratioILl1ELl1000000000EEEEEEE+0x41c>
   31728: 11 00 00 14  	b	0x3176c <_ZN18ChiMetadataManager13GetFreeHolderEjjjRNSt3__16chrono10time_pointINS1_12steady_clockENS1_8durationIxNS0_5ratioILl1ELl1000000000EEEEEEE+0x48c>
   3172c: 2c 00 00 90  	adrp	x12, 0x35000 <_ZN18ChiMetadataManager13GetFreeHolderEjjjRNSt3__16chrono10time_pointINS1_12steady_clockENS1_8durationIxNS0_5ratioILl1ELl1000000000EEEEEEE+0x45c>
   31740: cd 0a 28 37  	tbnz	w13, #5, 0x31898 <_ZN18ChiMetadataManager13GetFreeHolderEjjjRNSt3__16chrono10time_pointINS1_12steady_clockENS1_8durationIxNS0_5ratioILl1ELl1000000000EEEEEEE+0x5b8>
   31744: b9 11 00 b5  	cbnz	x25, 0x31978 <_ZN18ChiMetadataManager13GetFreeHolderEjjjRNSt3__16chrono10time_pointINS1_12steady_clockENS1_8durationIxNS0_5ratioILl1ELl1000000000EEEEEEE+0x698>
   3174c: 59 ff ff 17  	b	0x314b0 <_ZN18ChiMetadataManager13GetFreeHolderEjjjRNSt3__16chrono10time_pointINS1_12steady_clockENS1_8durationIxNS0_5ratioILl1ELl1000000000EEEEEEE+0x1d0>
   31760: d9 10 00 b5  	cbnz	x25, 0x31978 <_ZN18ChiMetadataManager13GetFreeHolderEjjjRNSt3__16chrono10time_pointINS1_12steady_clockENS1_8durationIxNS0_5ratioILl1ELl1000000000EEEEEEE+0x698>
   31764: a1 ff ff 17  	b	0x315e8 <_ZN18ChiMetadataManager13GetFreeHolderEjjjRNSt3__16chrono10time_pointINS1_12steady_clockENS1_8durationIxNS0_5ratioILl1ELl1000000000EEEEEEE+0x308>
   31794: 22 00 00 90  	adrp	x2, 0x35000 <_ZN18ChiMetadataManager13GetFreeHolderEjjjRNSt3__16chrono10time_pointINS1_12steady_clockENS1_8durationIxNS0_5ratioILl1ELl1000000000EEEEEEE+0x4c4>
   317a0: 62 00 18 37  	tbnz	w2, #3, 0x317ac <_ZN18ChiMetadataManager13GetFreeHolderEjjjRNSt3__16chrono10time_pointINS1_12steady_clockENS1_8durationIxNS0_5ratioILl1ELl1000000000EEEEEEE+0x4cc>
   317a4: b9 0e 00 b5  	cbnz	x25, 0x31978 <_ZN18ChiMetadataManager13GetFreeHolderEjjjRNSt3__16chrono10time_pointINS1_12steady_clockENS1_8durationIxNS0_5ratioILl1ELl1000000000EEEEEEE+0x698>
   317a8: 95 ff ff 17  	b	0x315fc <_ZN18ChiMetadataManager13GetFreeHolderEjjjRNSt3__16chrono10time_pointINS1_12steady_clockENS1_8durationIxNS0_5ratioILl1ELl1000000000EEEEEEE+0x31c>
   317ac: 24 00 00 90  	adrp	x4, 0x35000 <_ZN18ChiMetadataManager13GetFreeHolderEjjjRNSt3__16chrono10time_pointINS1_12steady_clockENS1_8durationIxNS0_5ratioILl1ELl1000000000EEEEEEE+0x4dc>
   317c0: 41 03 00 54  	b.ne	0x31828 <_ZN18ChiMetadataManager13GetFreeHolderEjjjRNSt3__16chrono10time_pointINS1_12steady_clockENS1_8durationIxNS0_5ratioILl1ELl1000000000EEEEEEE+0x548>
   317c4: da fe ff f0  	adrp	x26, 0xc000 <_ZN18ChiMetadataManager13GetFreeHolderEjjjRNSt3__16chrono10time_pointINS1_12steady_clockENS1_8durationIxNS0_5ratioILl1ELl1000000000EEEEEEE+0x450>
   317e8: e1 fe ff b0  	adrp	x1, 0xe000 <_ZN18ChiMetadataManager13GetFreeHolderEjjjRNSt3__16chrono10time_pointINS1_12steady_clockENS1_8durationIxNS0_5ratioILl1ELl1000000000EEEEEEE+0x47c>
   317ec: c2 fe ff b0  	adrp	x2, 0xa000 <_ZN18ChiMetadataManager13GetFreeHolderEjjjRNSt3__16chrono10time_pointINS1_12steady_clockENS1_8durationIxNS0_5ratioILl1ELl1000000000EEEEEEE+0x470>
   317f0: e5 fe ff 90  	adrp	x5, 0xd000 <_ZN18ChiMetadataManager13GetFreeHolderEjjjRNSt3__16chrono10time_pointINS1_12steady_clockENS1_8durationIxNS0_5ratioILl1ELl1000000000EEEEEEE+0x480>
   31828: db fe ff f0  	adrp	x27, 0xc000 <_ZN18ChiMetadataManager13GetFreeHolderEjjjRNSt3__16chrono10time_pointINS1_12steady_clockENS1_8durationIxNS0_5ratioILl1ELl1000000000EEEEEEE+0x4b4>
   31850: e0 fe ff d0  	adrp	x0, 0xf000 <_ZN18ChiMetadataManager13GetFreeHolderEjjjRNSt3__16chrono10time_pointINS1_12steady_clockENS1_8durationIxNS0_5ratioILl1ELl1000000000EEEEEEE+0x4e8>
   31854: c1 fe ff f0  	adrp	x1, 0xc000 <_ZN18ChiMetadataManager13GetFreeHolderEjjjRNSt3__16chrono10time_pointINS1_12steady_clockENS1_8durationIxNS0_5ratioILl1ELl1000000000EEEEEEE+0x4e0>
   31858: e5 fe ff 90  	adrp	x5, 0xd000 <_ZN18ChiMetadataManager13GetFreeHolderEjjjRNSt3__16chrono10time_pointINS1_12steady_clockENS1_8durationIxNS0_5ratioILl1ELl1000000000EEEEEEE+0x4e8>
   31864: e3 fe ff 90  	adrp	x3, 0xd000 <_ZN18ChiMetadataManager13GetFreeHolderEjjjRNSt3__16chrono10time_pointINS1_12steady_clockENS1_8durationIxNS0_5ratioILl1ELl1000000000EEEEEEE+0x4f4>
   3188c: 05 0a 00 94  	bl	0x340a0 <_ZN6ChiLog9LogSystemEPKcS1_S1_S1_iS1_z@plt>
   31894: 39 00 00 14  	b	0x31978 <_ZN18ChiMetadataManager13GetFreeHolderEjjjRNSt3__16chrono10time_pointINS1_12steady_clockENS1_8durationIxNS0_5ratioILl1ELl1000000000EEEEEEE+0x698>
   31898: 2d 00 00 90  	adrp	x13, 0x35000 <_ZN18ChiMetadataManager13GetFreeHolderEjjjRNSt3__16chrono10time_pointINS1_12steady_clockENS1_8durationIxNS0_5ratioILl1ELl1000000000EEEEEEE+0x5c8>
   3189c: da fe ff f0  	adrp	x26, 0xc000 <_ZN18ChiMetadataManager13GetFreeHolderEjjjRNSt3__16chrono10time_pointINS1_12steady_clockENS1_8durationIxNS0_5ratioILl1ELl1000000000EEEEEEE+0x528>
   318b0: 41 03 00 54  	b.ne	0x31918 <_ZN18ChiMetadataManager13GetFreeHolderEjjjRNSt3__16chrono10time_pointINS1_12steady_clockENS1_8durationIxNS0_5ratioILl1ELl1000000000EEEEEEE+0x638>
   318d4: e1 fe ff b0  	adrp	x1, 0xe000 <_ZN18ChiMetadataManager13GetFreeHolderEjjjRNSt3__16chrono10time_pointINS1_12steady_clockENS1_8durationIxNS0_5ratioILl1ELl1000000000EEEEEEE+0x568>
   318d8: c2 fe ff 90  	adrp	x2, 0x9000 <_ZN18ChiMetadataManager13GetFreeHolderEjjjRNSt3__16chrono10time_pointINS1_12steady_clockENS1_8durationIxNS0_5ratioILl1ELl1000000000EEEEEEE+0x558>
   318dc: e5 fe ff 90  	adrp	x5, 0xd000 <_ZN18ChiMetadataManager13GetFreeHolderEjjjRNSt3__16chrono10time_pointINS1_12steady_clockENS1_8durationIxNS0_5ratioILl1ELl1000000000EEEEEEE+0x56c>
   31938: e0 fe ff b0  	adrp	x0, 0xe000 <_ZN18ChiMetadataManager13GetFreeHolderEjjjRNSt3__16chrono10time_pointINS1_12steady_clockENS1_8durationIxNS0_5ratioILl1ELl1000000000EEEEEEE+0x5cc>
   3193c: c1 fe ff f0  	adrp	x1, 0xc000 <_ZN18ChiMetadataManager13GetFreeHolderEjjjRNSt3__16chrono10time_pointINS1_12steady_clockENS1_8durationIxNS0_5ratioILl1ELl1000000000EEEEEEE+0x5c8>
   31940: e3 fe ff 90  	adrp	x3, 0xd000 <_ZN18ChiMetadataManager13GetFreeHolderEjjjRNSt3__16chrono10time_pointINS1_12steady_clockENS1_8durationIxNS0_5ratioILl1ELl1000000000EEEEEEE+0x5d0>
   31944: e5 fe ff 90  	adrp	x5, 0xd000 <_ZN18ChiMetadataManager13GetFreeHolderEjjjRNSt3__16chrono10time_pointINS1_12steady_clockENS1_8durationIxNS0_5ratioILl1ELl1000000000EEEEEEE+0x5d4>
   31974: cb 09 00 94  	bl	0x340a0 <_ZN6ChiLog9LogSystemEPKcS1_S1_S1_iS1_z@plt>
   319b8: 60 00 00 54  	b.eq	0x319c4 <_ZN18ChiMetadataManager13GetFreeHolderEjjjRNSt3__16chrono10time_pointINS1_12steady_clockENS1_8durationIxNS0_5ratioILl1ELl1000000000EEEEEEE+0x6e4>
   319bc: b9 0a 00 94  	bl	0x344a0 <_ZNSt3__16chrono12steady_clock3nowEv@plt>
   319c4: 27 00 00 90  	adrp	x7, 0x35000 <_ZN18ChiMetadataManager13GetFreeHolderEjjjRNSt3__16chrono10time_pointINS1_12steady_clockENS1_8durationIxNS0_5ratioILl1ELl1000000000EEEEEEE+0x6f4>
   319e0: 25 07 28 36  	tbz	w5, #5, 0x31ac4 <_ZN18ChiMetadataManager13GetFreeHolderEjjjRNSt3__16chrono10time_pointINS1_12steady_clockENS1_8durationIxNS0_5ratioILl1ELl1000000000EEEEEEE+0x7e4>
   319e4: 20 00 00 90  	adrp	x0, 0x35000 <_ZN18ChiMetadataManager13GetFreeHolderEjjjRNSt3__16chrono10time_pointINS1_12steady_clockENS1_8durationIxNS0_5ratioILl1ELl1000000000EEEEEEE+0x714>
   319f4: 41 03 00 54  	b.ne	0x31a5c <_ZN18ChiMetadataManager13GetFreeHolderEjjjRNSt3__16chrono10time_pointINS1_12steady_clockENS1_8durationIxNS0_5ratioILl1ELl1000000000EEEEEEE+0x77c>
   319f8: d6 fe ff f0  	adrp	x22, 0xc000 <_ZN18ChiMetadataManager13GetFreeHolderEjjjRNSt3__16chrono10time_pointINS1_12steady_clockENS1_8durationIxNS0_5ratioILl1ELl1000000000EEEEEEE+0x684>
   31a1c: e2 fe ff b0  	adrp	x2, 0xe000 <_ZN18ChiMetadataManager13GetFreeHolderEjjjRNSt3__16chrono10time_pointINS1_12steady_clockENS1_8durationIxNS0_5ratioILl1ELl1000000000EEEEEEE+0x6b0>
   31a20: e5 fe ff 90  	adrp	x5, 0xd000 <_ZN18ChiMetadataManager13GetFreeHolderEjjjRNSt3__16chrono10time_pointINS1_12steady_clockENS1_8durationIxNS0_5ratioILl1ELl1000000000EEEEEEE+0x6b0>
   31a34: e1 fe ff b0  	adrp	x1, 0xe000 <_ZN18ChiMetadataManager13GetFreeHolderEjjjRNSt3__16chrono10time_pointINS1_12steady_clockENS1_8durationIxNS0_5ratioILl1ELl1000000000EEEEEEE+0x6c8>
   31a5c: da fe ff f0  	adrp	x26, 0xc000 <_ZN18ChiMetadataManager13GetFreeHolderEjjjRNSt3__16chrono10time_pointINS1_12steady_clockENS1_8durationIxNS0_5ratioILl1ELl1000000000EEEEEEE+0x6e8>
   31a84: e0 fe ff b0  	adrp	x0, 0xe000 <_ZN18ChiMetadataManager13GetFreeHolderEjjjRNSt3__16chrono10time_pointINS1_12steady_clockENS1_8durationIxNS0_5ratioILl1ELl1000000000EEEEEEE+0x718>
   31a88: c1 fe ff f0  	adrp	x1, 0xc000 <_ZN18ChiMetadataManager13GetFreeHolderEjjjRNSt3__16chrono10time_pointINS1_12steady_clockENS1_8durationIxNS0_5ratioILl1ELl1000000000EEEEEEE+0x714>
   31a8c: e3 fe ff 90  	adrp	x3, 0xd000 <_ZN18ChiMetadataManager13GetFreeHolderEjjjRNSt3__16chrono10time_pointINS1_12steady_clockENS1_8durationIxNS0_5ratioILl1ELl1000000000EEEEEEE+0x71c>
   31a90: c5 fe ff f0  	adrp	x5, 0xc000 <_ZN18ChiMetadataManager13GetFreeHolderEjjjRNSt3__16chrono10time_pointINS1_12steady_clockENS1_8durationIxNS0_5ratioILl1ELl1000000000EEEEEEE+0x71c>
   31ac0: 78 09 00 94  	bl	0x340a0 <_ZN6ChiLog9LogSystemEPKcS1_S1_S1_iS1_z@plt>
   31ac8: 72 0a 00 94  	bl	0x34490 <_ZNSt3__15mutex6unlockEv@plt>
   31ad0: 60 00 00 b4  	cbz	x0, 0x31adc <_ZN18ChiMetadataManager13GetFreeHolderEjjjRNSt3__16chrono10time_pointINS1_12steady_clockENS1_8durationIxNS0_5ratioILl1ELl1000000000EEEEEEE+0x7fc>
   31ae8: 41 01 00 54  	b.ne	0x31b10 <_ZN18ChiMetadataManager13GetFreeHolderEjjjRNSt3__16chrono10time_pointINS1_12steady_clockENS1_8durationIxNS0_5ratioILl1ELl1000000000EEEEEEE+0x830>
0000000000031b18 <_ZN18ChiMetadataManager3GetEjj>:
   31b50: 54 0a 00 94  	bl	0x344a0 <_ZNSt3__16chrono12steady_clock3nowEv@plt>
   31b60: 68 01 00 54  	b.hi	0x31b8c <_ZN18ChiMetadataManager3GetEjj+0x74>
   31b6c: 08 01 00 54  	b.hi	0x31b8c <_ZN18ChiMetadataManager3GetEjj+0x74>
   31b84: 93 0b 00 94  	bl	0x349d0 <_ZN18ChiMetadataManager13GetFreeHolderEjjjRNSt3__16chrono10time_pointINS1_12steady_clockENS1_8durationIxNS0_5ratioILl1ELl1000000000EEEEEEE@plt>
   31b88: 32 00 00 14  	b	0x31c50 <_ZN18ChiMetadataManager3GetEjj+0x138>
   31b8c: 28 00 00 90  	adrp	x8, 0x35000 <_ZN18ChiMetadataManager3GetEjj+0x84>
   31b98: a8 05 00 36  	tbz	w8, #0, 0x31c4c <_ZN18ChiMetadataManager3GetEjj+0x134>
   31b9c: 29 00 00 90  	adrp	x9, 0x35000 <_ZN18ChiMetadataManager3GetEjj+0x94>
   31ba0: d6 fe ff f0  	adrp	x22, 0xc000 <_ZN18ChiMetadataManager13GetFreeHolderEjjjRNSt3__16chrono10time_pointINS1_12steady_clockENS1_8durationIxNS0_5ratioILl1ELl1000000000EEEEEEE+0x82c>
   31bb4: 61 02 00 54  	b.ne	0x31c00 <_ZN18ChiMetadataManager3GetEjj+0xe8>
   31bcc: e1 fe ff b0  	adrp	x1, 0xe000 <_ZN18ChiMetadataManager3GetEjj+0x28>
   31bd0: c2 fe ff 90  	adrp	x2, 0x9000 <_ZN18ChiMetadataManager3GetEjj+0x18>
   31bd4: c5 fe ff d0  	adrp	x5, 0xb000 <_ZN18ChiMetadataManager3GetEjj+0x24>
   31c14: e1 fe ff b0  	adrp	x1, 0xe000 <_ZN18ChiMetadataManager3GetEjj+0x70>
   31c1c: c0 fe ff 90  	adrp	x0, 0x9000 <_ZN18ChiMetadataManager3GetEjj+0x64>
   31c20: c3 fe ff d0  	adrp	x3, 0xb000 <_ZN18ChiMetadataManager3GetEjj+0x70>
   31c24: c5 fe ff d0  	adrp	x5, 0xb000 <_ZN18ChiMetadataManager3GetEjj+0x74>
   31c48: 16 09 00 94  	bl	0x340a0 <_ZN6ChiLog9LogSystemEPKcS1_S1_S1_iS1_z@plt>
   31c5c: e1 00 00 54  	b.ne	0x31c78 <_ZN18ChiMetadataManager3GetEjj+0x160>
0000000000031c80 <_ZN18ChiMetadataManager24RestoreNonstickyMetadataEPK15camera_metadataP11ChiMetadata>:
   31cac: 01 07 00 b4  	cbz	x1, 0x31d8c <_ZN18ChiMetadataManager24RestoreNonstickyMetadataEPK15camera_metadataP11ChiMetadata+0x10c>
   31cd8: 80 00 00 34  	cbz	w0, 0x31ce8 <_ZN18ChiMetadataManager24RestoreNonstickyMetadataEPK15camera_metadataP11ChiMetadata+0x68>
   31ce4: 02 00 00 14  	b	0x31cec <_ZN18ChiMetadataManager24RestoreNonstickyMetadataEPK15camera_metadataP11ChiMetadata+0x6c>
   31d10: c0 00 00 34  	cbz	w0, 0x31d28 <_ZN18ChiMetadataManager24RestoreNonstickyMetadataEPK15camera_metadataP11ChiMetadata+0xa8>
   31d4c: c0 00 00 34  	cbz	w0, 0x31d64 <_ZN18ChiMetadataManager24RestoreNonstickyMetadataEPK15camera_metadataP11ChiMetadata+0xe4>
   31d60: 02 00 00 14  	b	0x31d68 <_ZN18ChiMetadataManager24RestoreNonstickyMetadataEPK15camera_metadataP11ChiMetadata+0xe8>
   31d64: 57 01 00 34  	cbz	w23, 0x31d8c <_ZN18ChiMetadataManager24RestoreNonstickyMetadataEPK15camera_metadataP11ChiMetadata+0x10c>
   31d88: 41 ff ff 54  	b.ne	0x31d70 <_ZN18ChiMetadataManager24RestoreNonstickyMetadataEPK15camera_metadataP11ChiMetadata+0xf0>
   31d98: e1 00 00 54  	b.ne	0x31db4 <_ZN18ChiMetadataManager24RestoreNonstickyMetadataEPK15camera_metadataP11ChiMetadata+0x134>
0000000000031db8 <_ZN18ChiMetadataManager8GetInputEPK15camera_metadatajbb>:
   31e04: a7 09 00 94  	bl	0x344a0 <_ZNSt3__16chrono12steady_clock3nowEv@plt>
   31e10: a8 08 00 34  	cbz	w8, 0x31f24 <_ZN18ChiMetadataManager8GetInputEPK15camera_metadatajbb+0x16c>
   31e18: 96 00 00 b4  	cbz	x22, 0x31e28 <_ZN18ChiMetadataManager8GetInputEPK15camera_metadatajbb+0x70>
   31e24: 01 05 00 54  	b.ne	0x31ec4 <_ZN18ChiMetadataManager8GetInputEPK15camera_metadatajbb+0x10c>
   31e28: f3 04 00 36  	tbz	w19, #0, 0x31ec4 <_ZN18ChiMetadataManager8GetInputEPK15camera_metadatajbb+0x10c>
   31e34: 80 04 00 54  	b.eq	0x31ec4 <_ZN18ChiMetadataManager8GetInputEPK15camera_metadatajbb+0x10c>
   31e60: 2a 03 00 34  	cbz	w10, 0x31ec4 <_ZN18ChiMetadataManager8GetInputEPK15camera_metadatajbb+0x10c>
   31e94: 60 00 00 54  	b.eq	0x31ea0 <_ZN18ChiMetadataManager8GetInputEPK15camera_metadatajbb+0xe8>
   31e98: 82 09 00 94  	bl	0x344a0 <_ZNSt3__16chrono12steady_clock3nowEv@plt>
   31ea0: 2c 00 00 90  	adrp	x12, 0x35000 <_ZN18ChiMetadataManager8GetInputEPK15camera_metadatajbb+0xf8>
   31eb4: 2b 13 28 37  	tbnz	w11, #5, 0x32118 <_ZN18ChiMetadataManager8GetInputEPK15camera_metadatajbb+0x360>
   31ebc: 80 0b 00 34  	cbz	w0, 0x3202c <_ZN18ChiMetadataManager8GetInputEPK15camera_metadatajbb+0x274>
   31ec0: cf 00 00 14  	b	0x321fc <_ZN18ChiMetadataManager8GetInputEPK15camera_metadatajbb+0x444>
   31ed8: be 0a 00 94  	bl	0x349d0 <_ZN18ChiMetadataManager13GetFreeHolderEjjjRNSt3__16chrono10time_pointINS1_12steady_clockENS1_8durationIxNS0_5ratioILl1ELl1000000000EEEEEEE@plt>
   31ee0: 76 08 00 b4  	cbz	x22, 0x31fec <_ZN18ChiMetadataManager8GetInputEPK15camera_metadatajbb+0x234>
   31ee4: 54 08 00 b4  	cbz	x20, 0x31fec <_ZN18ChiMetadataManager8GetInputEPK15camera_metadatajbb+0x234>
   31ee8: 97 09 00 36  	tbz	w23, #0, 0x32018 <_ZN18ChiMetadataManager8GetInputEPK15camera_metadatajbb+0x260>
   31f00: e0 17 00 35  	cbnz	w0, 0x321fc <_ZN18ChiMetadataManager8GetInputEPK15camera_metadatajbb+0x444>
   31f1c: 80 08 00 34  	cbz	w0, 0x3202c <_ZN18ChiMetadataManager8GetInputEPK15camera_metadatajbb+0x274>
   31f20: b7 00 00 14  	b	0x321fc <_ZN18ChiMetadataManager8GetInputEPK15camera_metadatajbb+0x444>
   31f24: 23 00 00 90  	adrp	x3, 0x35000 <_ZN18ChiMetadataManager8GetInputEPK15camera_metadatajbb+0x17c>
   31f30: af 05 00 36  	tbz	w15, #0, 0x31fe4 <_ZN18ChiMetadataManager8GetInputEPK15camera_metadatajbb+0x22c>
   31f34: 24 00 00 90  	adrp	x4, 0x35000 <_ZN18ChiMetadataManager8GetInputEPK15camera_metadatajbb+0x18c>
   31f44: 81 02 00 54  	b.ne	0x31f94 <_ZN18ChiMetadataManager8GetInputEPK15camera_metadatajbb+0x1dc>
   31f48: d6 fe ff f0  	adrp	x22, 0xc000 <_ZN18ChiMetadataManager8GetInputEPK15camera_metadatajbb+0xfc>
   31f68: e1 fe ff b0  	adrp	x1, 0xe000 <_ZN18ChiMetadataManager8GetInputEPK15camera_metadatajbb+0x124>
   31f6c: c2 fe ff 90  	adrp	x2, 0x9000 <_ZN18ChiMetadataManager8GetInputEPK15camera_metadatajbb+0x114>
   31f70: c5 fe ff 90  	adrp	x5, 0x9000 <_ZN18ChiMetadataManager8GetInputEPK15camera_metadatajbb+0x118>
   31f94: d8 fe ff f0  	adrp	x24, 0xc000 <_ZN18ChiMetadataManager8GetInputEPK15camera_metadatajbb+0x148>
   31fb8: c0 fe ff 90  	adrp	x0, 0x9000 <_ZN18ChiMetadataManager8GetInputEPK15camera_metadatajbb+0x160>
   31fbc: e1 fe ff b0  	adrp	x1, 0xe000 <_ZN18ChiMetadataManager8GetInputEPK15camera_metadatajbb+0x178>
   31fc0: c3 fe ff 90  	adrp	x3, 0x9000 <_ZN18ChiMetadataManager8GetInputEPK15camera_metadatajbb+0x168>
   31fc4: e5 fe ff 90  	adrp	x5, 0xd000 <_ZN18ChiMetadataManager8GetInputEPK15camera_metadatajbb+0x17c>
   31fe0: 30 08 00 94  	bl	0x340a0 <_ZN6ChiLog9LogSystemEPKcS1_S1_S1_iS1_z@plt>
   31fe8: b1 00 00 14  	b	0x322ac <_ZN18ChiMetadataManager8GetInputEPK15camera_metadatajbb+0x4f4>
   31ff0: d4 01 00 b4  	cbz	x20, 0x32028 <_ZN18ChiMetadataManager8GetInputEPK15camera_metadatajbb+0x270>
   31ff4: b7 01 00 36  	tbz	w23, #0, 0x32028 <_ZN18ChiMetadataManager8GetInputEPK15camera_metadatajbb+0x270>
   32010: e0 00 00 34  	cbz	w0, 0x3202c <_ZN18ChiMetadataManager8GetInputEPK15camera_metadatajbb+0x274>
   32014: 7a 00 00 14  	b	0x321fc <_ZN18ChiMetadataManager8GetInputEPK15camera_metadatajbb+0x444>
   32028: a0 0e 00 35  	cbnz	w0, 0x321fc <_ZN18ChiMetadataManager8GetInputEPK15camera_metadatajbb+0x444>
   3202c: 94 0e 00 b4  	cbz	x20, 0x321fc <_ZN18ChiMetadataManager8GetInputEPK15camera_metadatajbb+0x444>
   3203c: 96 13 00 b4  	cbz	x22, 0x322ac <_ZN18ChiMetadataManager8GetInputEPK15camera_metadatajbb+0x4f4>
   32060: 80 00 00 34  	cbz	w0, 0x32070 <_ZN18ChiMetadataManager8GetInputEPK15camera_metadatajbb+0x2b8>
   3206c: 02 00 00 14  	b	0x32074 <_ZN18ChiMetadataManager8GetInputEPK15camera_metadatajbb+0x2bc>
   32098: c0 00 00 34  	cbz	w0, 0x320b0 <_ZN18ChiMetadataManager8GetInputEPK15camera_metadatajbb+0x2f8>
   320d4: c0 00 00 34  	cbz	w0, 0x320ec <_ZN18ChiMetadataManager8GetInputEPK15camera_metadatajbb+0x334>
   320e8: 02 00 00 14  	b	0x320f0 <_ZN18ChiMetadataManager8GetInputEPK15camera_metadatajbb+0x338>
   320ec: 13 0e 00 34  	cbz	w19, 0x322ac <_ZN18ChiMetadataManager8GetInputEPK15camera_metadatajbb+0x4f4>
   32110: 41 ff ff 54  	b.ne	0x320f8 <_ZN18ChiMetadataManager8GetInputEPK15camera_metadatajbb+0x340>
   32114: 66 00 00 14  	b	0x322ac <_ZN18ChiMetadataManager8GetInputEPK15camera_metadatajbb+0x4f4>
   32118: 0d 00 00 f0  	adrp	x13, 0x35000 <_ZN18ChiMetadataManager8GetInputEPK15camera_metadatajbb+0x36c>
   32128: 41 03 00 54  	b.ne	0x32190 <_ZN18ChiMetadataManager8GetInputEPK15camera_metadatajbb+0x3d8>
   3212c: d8 fe ff d0  	adrp	x24, 0xc000 <_ZN18ChiMetadataManager8GetInputEPK15camera_metadatajbb+0x2dc>
   32150: e1 fe ff 90  	adrp	x1, 0xe000 <_ZN18ChiMetadataManager8GetInputEPK15camera_metadatajbb+0x308>
   32158: a2 fe ff f0  	adrp	x2, 0x9000 <_ZN18ChiMetadataManager8GetInputEPK15camera_metadatajbb+0x2fc>
   3215c: a5 fe ff f0  	adrp	x5, 0x9000 <_ZN18ChiMetadataManager8GetInputEPK15camera_metadatajbb+0x300>
   32190: d8 fe ff d0  	adrp	x24, 0xc000 <_ZN18ChiMetadataManager8GetInputEPK15camera_metadatajbb+0x340>
   321bc: e0 fe ff 90  	adrp	x0, 0xe000 <_ZN18ChiMetadataManager8GetInputEPK15camera_metadatajbb+0x374>
   321c0: c1 fe ff d0  	adrp	x1, 0xc000 <_ZN18ChiMetadataManager8GetInputEPK15camera_metadatajbb+0x370>
   321c4: a3 fe ff f0  	adrp	x3, 0x9000 <_ZN18ChiMetadataManager8GetInputEPK15camera_metadatajbb+0x368>
   321c8: c5 fe ff 90  	adrp	x5, 0xa000 <_ZN18ChiMetadataManager8GetInputEPK15camera_metadatajbb+0x370>
   321f0: ac 07 00 94  	bl	0x340a0 <_ZN6ChiLog9LogSystemEPKcS1_S1_S1_iS1_z@plt>
   321f8: a0 f1 ff 34  	cbz	w0, 0x3202c <_ZN18ChiMetadataManager8GetInputEPK15camera_metadatajbb+0x274>
   321fc: 01 00 00 f0  	adrp	x1, 0x35000 <_ZN18ChiMetadataManager8GetInputEPK15camera_metadatajbb+0x450>
   32208: 2e 05 00 36  	tbz	w14, #0, 0x322ac <_ZN18ChiMetadataManager8GetInputEPK15camera_metadatajbb+0x4f4>
   3220c: 02 00 00 f0  	adrp	x2, 0x35000 <_ZN18ChiMetadataManager8GetInputEPK15camera_metadatajbb+0x460>
   32210: d6 fe ff d0  	adrp	x22, 0xc000 <_ZN18ChiMetadataManager8GetInputEPK15camera_metadatajbb+0x3c0>
   32224: 21 02 00 54  	b.ne	0x32268 <_ZN18ChiMetadataManager8GetInputEPK15camera_metadatajbb+0x4b0>
   3223c: e1 fe ff 90  	adrp	x1, 0xe000 <_ZN18ChiMetadataManager8GetInputEPK15camera_metadatajbb+0x3f4>
   32240: e2 fe ff b0  	adrp	x2, 0xf000 <_ZN18ChiMetadataManager8GetInputEPK15camera_metadatajbb+0x3fc>
   32244: a5 fe ff f0  	adrp	x5, 0x9000 <_ZN18ChiMetadataManager8GetInputEPK15camera_metadatajbb+0x3e8>
   3227c: e1 fe ff 90  	adrp	x1, 0xe000 <_ZN18ChiMetadataManager8GetInputEPK15camera_metadatajbb+0x434>
   32284: a0 fe ff f0  	adrp	x0, 0x9000 <_ZN18ChiMetadataManager8GetInputEPK15camera_metadatajbb+0x428>
