    3a6c: 04 00 10 58  	ldr	x4, 0x23a6c <_ZNK19ChiFeature2RealTime16OnPrepareRequestEP24ChiFeature2RequestObject+0x3e4>
   1611c: 08 97 0a 98  	ldrsw	x8, 0x2b3fc <_ZN19ChiFeature2RealTime12OnPortCreateEP21ChiFeature2Identifier+0x1a04>
   16124: 10 9b 12 9c  	ldr	q16, 0x3b484 <_ZN9Semaphore7DestroyEv+0x3674>
   1616c: 08 97 0a 98  	ldrsw	x8, 0x2b44c <_ZN19ChiFeature2RealTime12OnPortCreateEP21ChiFeature2Identifier+0x1a54>
   16174: 10 9b 12 9c  	ldr	q16, 0x3b4d4 <_ZN9Semaphore7DestroyEv+0x36c4>
   16204: 08 97 0a 98  	ldrsw	x8, 0x2b4e4 <_ZN19ChiFeature2RealTime12OnPortCreateEP21ChiFeature2Identifier+0x1aec>
   1620c: 10 9b 12 9c  	ldr	q16, 0x3b56c <_ZN9Semaphore7DestroyEv+0x375c>
   16234: 08 97 0a 98  	ldrsw	x8, 0x2b514 <_ZN19ChiFeature2RealTime12OnPortCreateEP21ChiFeature2Identifier+0x1b1c>
   16264: 08 97 0a 98  	ldrsw	x8, 0x2b544 <_ZN19ChiFeature2RealTime12OnPortCreateEP21ChiFeature2Identifier+0x1b4c>
   1628c: 08 97 0a 98  	ldrsw	x8, 0x2b56c <_ZN19ChiFeature2RealTime12OnPortCreateEP21ChiFeature2Identifier+0x1b74>
   16294: 10 9b 12 9c  	ldr	q16, 0x3b5f4 <_ZN9Semaphore7DestroyEv+0x37e4>
   162bc: 08 97 0a 98  	ldrsw	x8, 0x2b59c <_ZN19ChiFeature2RealTime12OnPortCreateEP21ChiFeature2Identifier+0x1ba4>
   1630c: 08 97 0a 98  	ldrsw	x8, 0x2b5ec <_ZN19ChiFeature2RealTime12OnPortCreateEP21ChiFeature2Identifier+0x1bf4>
   16314: 10 9b 12 9c  	ldr	q16, 0x3b674 <_ZN9Semaphore7DestroyEv+0x3864>
   163d4: 08 97 0a 98  	ldrsw	x8, 0x2b6b4 <_ZN19ChiFeature2RealTime12OnPortCreateEP21ChiFeature2Identifier+0x1cbc>
   163dc: 10 9b 12 9c  	ldr	q16, 0x3b73c <_ZN9Semaphore7DestroyEv+0x392c>
   1641c: 08 97 0a 98  	ldrsw	x8, 0x2b6fc <_ZN19ChiFeature2RealTime12OnPortCreateEP21ChiFeature2Identifier+0x1d04>
   16444: 08 97 0a 98  	ldrsw	x8, 0x2b724 <_ZN19ChiFeature2RealTime12OnPortCreateEP21ChiFeature2Identifier+0x1d2c>
   1644c: 10 9b 12 9c  	ldr	q16, 0x3b7ac <_ZN9Semaphore7DestroyEv+0x399c>
   16474: 08 97 0a 98  	ldrsw	x8, 0x2b754 <_ZN19ChiFeature2RealTime12OnPortCreateEP21ChiFeature2Identifier+0x1d5c>
   1647c: 10 9b 12 9c  	ldr	q16, 0x3b7dc <_ZN9Semaphore7DestroyEv+0x39cc>
   164a4: 08 97 0a 98  	ldrsw	x8, 0x2b784 <_ZN19ChiFeature2RealTime12OnPortCreateEP21ChiFeature2Identifier+0x1d8c>
   164ac: 10 9b 12 9c  	ldr	q16, 0x3b80c <_ZN9Semaphore7DestroyEv+0x39fc>
   164f4: 08 97 0a 98  	ldrsw	x8, 0x2b7d4 <_ZN19ChiFeature2RealTime12OnPortCreateEP21ChiFeature2Identifier+0x1ddc>
   164fc: 10 9b 12 9c  	ldr	q16, 0x3b85c <_ZN9Semaphore7DestroyEv+0x3a4c>
   16524: 08 97 0a 98  	ldrsw	x8, 0x2b804 <_ZN19ChiFeature2RealTime12OnPortCreateEP21ChiFeature2Identifier+0x1e0c>
   1652c: 10 9b 12 9c  	ldr	q16, 0x3b88c <_ZN9Semaphore7DestroyEv+0x3a7c>
   1657c: 08 97 0a 98  	ldrsw	x8, 0x2b85c <_ZN19ChiFeature2RealTime12OnPortCreateEP21ChiFeature2Identifier+0x1e64>
   16584: 10 9b 12 9c  	ldr	q16, 0x3b8e4 <_ZN9Semaphore7DestroyEv+0x3ad4>
   165ac: 08 97 0a 98  	ldrsw	x8, 0x2b88c <_ZN19ChiFeature2RealTime12OnPortCreateEP21ChiFeature2Identifier+0x1e94>
   16664: 08 97 0a 98  	ldrsw	x8, 0x2b944 <_ZN19ChiFeature2RealTime12OnPortCreateEP21ChiFeature2Identifier+0x1f4c>
   1666c: 10 9b 12 9c  	ldr	q16, 0x3b9cc <_ZN9Semaphore7DestroyEv+0x3bbc>
   166b4: 08 97 0a 98  	ldrsw	x8, 0x2b994 <_ZN19ChiFeature2RealTime12OnPortCreateEP21ChiFeature2Identifier+0x1f9c>
   16714: 08 97 0a 98  	ldrsw	x8, 0x2b9f4 <_ZN19ChiFeature2RealTime12OnPortCreateEP21ChiFeature2Identifier+0x1ffc>
   16794: 08 97 0a 98  	ldrsw	x8, 0x2ba74 <_ZN19ChiFeature2RealTime12OnPortCreateEP21ChiFeature2Identifier+0x207c>
   1679c: 10 9b 12 9c  	ldr	q16, 0x3bafc <_ZN9Semaphore7DestroyEv+0x3cec>
   167e4: 08 97 0a 98  	ldrsw	x8, 0x2bac4 <_ZN19ChiFeature2RealTime12OnPortCreateEP21ChiFeature2Identifier+0x20cc>
   1682c: 08 97 0a 98  	ldrsw	x8, 0x2bb0c <_ZN19ChiFeature2RealTime12OnPortCreateEP21ChiFeature2Identifier+0x2114>
   1689c: 08 97 0a 98  	ldrsw	x8, 0x2bb7c <_ZN19ChiFeature2RealTime12OnPortCreateEP21ChiFeature2Identifier+0x2184>
   168c4: 08 97 0a 98  	ldrsw	x8, 0x2bba4 <_ZN19ChiFeature2RealTime18OnInitializeStreamEPK23ChiTargetPortDescriptorPK25ChiFeature2PortDescriptorPN15ChiFeature2Base20ChiFeatureStreamDataE+0x1c>
   168cc: 10 9b 12 9c  	ldr	q16, 0x3bc2c <_ZN9Semaphore7DestroyEv+0x3e1c>
   168f4: 08 97 0a 98  	ldrsw	x8, 0x2bbd4 <_ZN19ChiFeature2RealTime18OnInitializeStreamEPK23ChiTargetPortDescriptorPK25ChiFeature2PortDescriptorPN15ChiFeature2Base20ChiFeatureStreamDataE+0x4c>
   1691c: 08 97 0a 98  	ldrsw	x8, 0x2bbfc <_ZN19ChiFeature2RealTime18OnInitializeStreamEPK23ChiTargetPortDescriptorPK25ChiFeature2PortDescriptorPN15ChiFeature2Base20ChiFeatureStreamDataE+0x74>
   169a4: 08 97 0a 98  	ldrsw	x8, 0x2bc84 <_ZN19ChiFeature2RealTime18OnInitializeStreamEPK23ChiTargetPortDescriptorPK25ChiFeature2PortDescriptorPN15ChiFeature2Base20ChiFeatureStreamDataE+0xfc>
   169ac: 10 9b 12 9c  	ldr	q16, 0x3bd0c <_ZN9Semaphore7DestroyEv+0x3efc>
   169d4: 08 97 0a 98  	ldrsw	x8, 0x2bcb4 <_ZN19ChiFeature2RealTime18OnInitializeStreamEPK23ChiTargetPortDescriptorPK25ChiFeature2PortDescriptorPN15ChiFeature2Base20ChiFeatureStreamDataE+0x12c>
   169dc: 10 9b 12 9c  	ldr	q16, 0x3bd3c <_ZN9Semaphore7DestroyEv+0x3f2c>
   16a24: 08 97 0a 98  	ldrsw	x8, 0x2bd04 <_ZN19ChiFeature2RealTime18OnInitializeStreamEPK23ChiTargetPortDescriptorPK25ChiFeature2PortDescriptorPN15ChiFeature2Base20ChiFeatureStreamDataE+0x17c>
   16a2c: 10 9b 12 9c  	ldr	q16, 0x3bd8c <_ZN9Semaphore7DestroyEv+0x3f7c>
   16a54: 08 97 0a 98  	ldrsw	x8, 0x2bd34 <_ZN19ChiFeature2RealTime18OnInitializeStreamEPK23ChiTargetPortDescriptorPK25ChiFeature2PortDescriptorPN15ChiFeature2Base20ChiFeatureStreamDataE+0x1ac>
   16aa4: 08 97 0a 98  	ldrsw	x8, 0x2bd84 <_ZN19ChiFeature2RealTime18OnInitializeStreamEPK23ChiTargetPortDescriptorPK25ChiFeature2PortDescriptorPN15ChiFeature2Base20ChiFeatureStreamDataE+0x1fc>
   16aac: 10 9b 12 9c  	ldr	q16, 0x3be0c <_ZN9Semaphore7DestroyEv+0x3ffc>
   16ad4: 08 97 0a 98  	ldrsw	x8, 0x2bdb4 <_ZN19ChiFeature2RealTime18OnInitializeStreamEPK23ChiTargetPortDescriptorPK25ChiFeature2PortDescriptorPN15ChiFeature2Base20ChiFeatureStreamDataE+0x22c>
   16c54: 08 97 0a 98  	ldrsw	x8, 0x2bf34 <_ZN19ChiFeature2RealTime18OnInitializeStreamEPK23ChiTargetPortDescriptorPK25ChiFeature2PortDescriptorPN15ChiFeature2Base20ChiFeatureStreamDataE+0x3ac>
   16d24: 08 97 0a 98  	ldrsw	x8, 0x2c004 <_ZN19ChiFeature2RealTime18OnInitializeStreamEPK23ChiTargetPortDescriptorPK25ChiFeature2PortDescriptorPN15ChiFeature2Base20ChiFeatureStreamDataE+0x47c>
   16f9c: 08 97 0a 98  	ldrsw	x8, 0x2c27c <_ZN19ChiFeature2RealTime18OnInitializeStreamEPK23ChiTargetPortDescriptorPK25ChiFeature2PortDescriptorPN15ChiFeature2Base20ChiFeatureStreamDataE+0x6f4>
   16fa4: 10 9b 12 9c  	ldr	q16, 0x3c304 <_ZN9Semaphore7DestroyEv+0x44f4>
   173bc: 08 97 0a 98  	ldrsw	x8, 0x2c69c <_ZNK19ChiFeature2RealTime24OnSubmitRequestToSessionEP18ChiPipelineRequest+0x15c>
   173c4: 10 9b 12 9c  	ldr	q16, 0x3c724 <_ZN9Semaphore7DestroyEv+0x4914>
   17404: 08 97 0a 98  	ldrsw	x8, 0x2c6e4 <_ZNK19ChiFeature2RealTime24OnSubmitRequestToSessionEP18ChiPipelineRequest+0x1a4>
   174fc: 08 97 0a 98  	ldrsw	x8, 0x2c7dc <_ZNK19ChiFeature2RealTime31OnPopulateConfigurationSettingsEP24ChiFeature2RequestObjectPK21ChiFeature2IdentifierP11ChiMetadata+0x5c>
   177dc: 08 97 0a 98  	ldrsw	x8, 0x2cabc <_ZNK19ChiFeature2RealTime31OnPopulateConfigurationSettingsEP24ChiFeature2RequestObjectPK21ChiFeature2IdentifierP11ChiMetadata+0x33c>
   1780c: 08 97 0a 98  	ldrsw	x8, 0x2caec <_ZNK19ChiFeature2RealTime31OnPopulateConfigurationSettingsEP24ChiFeature2RequestObjectPK21ChiFeature2IdentifierP11ChiMetadata+0x36c>
   178e4: 08 97 0a 98  	ldrsw	x8, 0x2cbc4 <_ZNK19ChiFeature2RealTime31OnPopulateConfigurationSettingsEP24ChiFeature2RequestObjectPK21ChiFeature2IdentifierP11ChiMetadata+0x444>
   17984: 08 97 0a 98  	ldrsw	x8, 0x2cc64 <_ZNK19ChiFeature2RealTime31OnPopulateConfigurationSettingsEP24ChiFeature2RequestObjectPK21ChiFeature2IdentifierP11ChiMetadata+0x4e4>
   17a44: 08 97 0a 98  	ldrsw	x8, 0x2cd24 <_ZNK19ChiFeature2RealTime31OnPopulateConfigurationSettingsEP24ChiFeature2RequestObjectPK21ChiFeature2IdentifierP11ChiMetadata+0x5a4>
   17b14: 08 97 0a 98  	ldrsw	x8, 0x2cdf4 <_ZNK19ChiFeature2RealTime31OnPopulateConfigurationSettingsEP24ChiFeature2RequestObjectPK21ChiFeature2IdentifierP11ChiMetadata+0x674>
   17b8c: 08 97 0a 98  	ldrsw	x8, 0x2ce6c <_ZNK19ChiFeature2RealTime31OnPopulateConfigurationSettingsEP24ChiFeature2RequestObjectPK21ChiFeature2IdentifierP11ChiMetadata+0x6ec>
   17bb4: 08 97 0a 98  	ldrsw	x8, 0x2ce94 <_ZNK19ChiFeature2RealTime31OnPopulateConfigurationSettingsEP24ChiFeature2RequestObjectPK21ChiFeature2IdentifierP11ChiMetadata+0x714>
   17c04: 08 97 0a 98  	ldrsw	x8, 0x2cee4 <_ZNK19ChiFeature2RealTime31OnPopulateConfigurationSettingsEP24ChiFeature2RequestObjectPK21ChiFeature2IdentifierP11ChiMetadata+0x764>
   17c9c: 08 97 0a 98  	ldrsw	x8, 0x2cf7c <_ZNK19ChiFeature2RealTime31OnPopulateConfigurationSettingsEP24ChiFeature2RequestObjectPK21ChiFeature2IdentifierP11ChiMetadata+0x7fc>
   17d0c: 08 97 0a 98  	ldrsw	x8, 0x2cfec <_ZNK19ChiFeature2RealTime31OnPopulateConfigurationSettingsEP24ChiFeature2RequestObjectPK21ChiFeature2IdentifierP11ChiMetadata+0x86c>
   17dd4: 08 97 0a 98  	ldrsw	x8, 0x2d0b4 <_ZNK19ChiFeature2RealTime31OnPopulateConfigurationSettingsEP24ChiFeature2RequestObjectPK21ChiFeature2IdentifierP11ChiMetadata+0x934>
   17ddc: 10 9b 12 9c  	ldr	q16, 0x3d13c <_ZN9Semaphore7DestroyEv+0x532c>
   17ed4: 08 97 0a 98  	ldrsw	x8, 0x2d1b4 <_ZNK19ChiFeature2RealTime31OnPopulateConfigurationSettingsEP24ChiFeature2RequestObjectPK21ChiFeature2IdentifierP11ChiMetadata+0xa34>
   17f44: 08 97 0a 98  	ldrsw	x8, 0x2d224 <_ZNK19ChiFeature2RealTime31OnPopulateConfigurationSettingsEP24ChiFeature2RequestObjectPK21ChiFeature2IdentifierP11ChiMetadata+0xaa4>
   17ff4: 08 97 0a 98  	ldrsw	x8, 0x2d2d4 <_ZNK19ChiFeature2RealTime31OnPopulateConfigurationSettingsEP24ChiFeature2RequestObjectPK21ChiFeature2IdentifierP11ChiMetadata+0xb54>
   18064: 08 97 0a 98  	ldrsw	x8, 0x2d344 <_ZNK19ChiFeature2RealTime18OnSelectSensorModeEP24ChiFeature2RequestObjectPN15ChiFeature2Base22ChiFeaturePipelineDataEP17DesiredSensorMode+0x34>
   1806c: 10 9b 12 9c  	ldr	q16, 0x3d3cc <_ZN9Semaphore7DestroyEv+0x55bc>
   18094: 08 97 0a 98  	ldrsw	x8, 0x2d374 <_ZNK19ChiFeature2RealTime18OnSelectSensorModeEP24ChiFeature2RequestObjectPN15ChiFeature2Base22ChiFeaturePipelineDataEP17DesiredSensorMode+0x64>
   182a4: 08 97 0a 98  	ldrsw	x8, 0x2d584 <_ZNK19ChiFeature2RealTime13OnGetZSLPortsEPK24ChiFeature2RequestObject+0xac>
   18304: 08 97 0a 98  	ldrsw	x8, 0x2d5e4 <_ZNK19ChiFeature2RealTime13OnGetZSLPortsEPK24ChiFeature2RequestObject+0x10c>
   1830c: 10 9b 12 9c  	ldr	q16, 0x3d66c <_ZN9Semaphore7DestroyEv+0x585c>
   18334: 08 97 0a 98  	ldrsw	x8, 0x2d614 <_ZNK19ChiFeature2RealTime13OnGetZSLPortsEPK24ChiFeature2RequestObject+0x13c>
   1833c: 10 9b 12 9c  	ldr	q16, 0x3d69c <_ZN9Semaphore7DestroyEv+0x588c>
   1837c: 08 97 0a 98  	ldrsw	x8, 0x2d65c <_ZNK19ChiFeature2RealTime13OnGetZSLPortsEPK24ChiFeature2RequestObject+0x184>
   18384: 10 9b 12 9c  	ldr	q16, 0x3d6e4 <_ZN9Semaphore7DestroyEv+0x58d4>
   18424: 08 97 0a 98  	ldrsw	x8, 0x2d704 <_ZNK19ChiFeature2RealTime13OnGetZSLPortsEPK24ChiFeature2RequestObject+0x22c>
   1842c: 10 9b 12 9c  	ldr	q16, 0x3d78c <_ZN9Semaphore7DestroyEv+0x597c>
   18454: 08 97 0a 98  	ldrsw	x8, 0x2d734 <_ZNK19ChiFeature2RealTime13OnGetZSLPortsEPK24ChiFeature2RequestObject+0x25c>
   1845c: 10 9b 12 9c  	ldr	q16, 0x3d7bc <_ZN9Semaphore7DestroyEv+0x59ac>
   18484: 08 97 0a 98  	ldrsw	x8, 0x2d764 <_ZNK19ChiFeature2RealTime13OnGetZSLPortsEPK24ChiFeature2RequestObject+0x28c>
   1848c: 10 9b 12 9c  	ldr	q16, 0x3d7ec <_ZN9Semaphore7DestroyEv+0x59dc>
   184d4: 08 97 0a 98  	ldrsw	x8, 0x2d7b4 <_ZNK19ChiFeature2RealTime13OnGetZSLPortsEPK24ChiFeature2RequestObject+0x2dc>
   184dc: 10 9b 12 9c  	ldr	q16, 0x3d83c <_ZN9Semaphore7DestroyEv+0x5a2c>
   18524: 08 97 0a 98  	ldrsw	x8, 0x2d804 <_ZNK19ChiFeature2RealTime13OnGetZSLPortsEPK24ChiFeature2RequestObject+0x32c>
   1852c: 10 9b 12 9c  	ldr	q16, 0x3d88c <_ZN9Semaphore7DestroyEv+0x5a7c>
   18554: 08 97 0a 98  	ldrsw	x8, 0x2d834 <_ZNK19ChiFeature2RealTime13OnGetZSLPortsEPK24ChiFeature2RequestObject+0x35c>
   1857c: 08 97 0a 98  	ldrsw	x8, 0x2d85c <_ZNK19ChiFeature2RealTime13OnGetZSLPortsEPK24ChiFeature2RequestObject+0x384>
   185ac: 08 97 0a 98  	ldrsw	x8, 0x2d88c <_ZNK19ChiFeature2RealTime13OnGetZSLPortsEPK24ChiFeature2RequestObject+0x3b4>
   185b4: 10 9b 12 9c  	ldr	q16, 0x3d914 <_ZN9Semaphore7DestroyEv+0x5b04>
   186d4: 08 97 0a 98  	ldrsw	x8, 0x2d9b4 <_ZNK19ChiFeature2RealTime23IsManualCaptureRequiredEP24ChiFeature2RequestObject+0x54>
   186dc: 10 9b 12 9c  	ldr	q16, 0x3da3c <_ZN9Semaphore7DestroyEv+0x5c2c>
   1872c: 08 97 0a 98  	ldrsw	x8, 0x2da0c <_ZNK19ChiFeature2RealTime23IsManualCaptureRequiredEP24ChiFeature2RequestObject+0xac>
   18734: 10 9b 12 9c  	ldr	q16, 0x3da94 <_ZN9Semaphore7DestroyEv+0x5c84>
   1875c: 08 97 0a 98  	ldrsw	x8, 0x2da3c <_ZNK19ChiFeature2RealTime23IsManualCaptureRequiredEP24ChiFeature2RequestObject+0xdc>
   18784: 08 97 0a 98  	ldrsw	x8, 0x2da64 <_ZNK19ChiFeature2RealTime23IsManualCaptureRequiredEP24ChiFeature2RequestObject+0x104>
   187b4: 08 97 0a 98  	ldrsw	x8, 0x2da94 <_ZNK19ChiFeature2RealTime41PopulateConfigurationsForSensorModeChangeEP24ChiFeature2RequestObjectP11ChiMetadata+0xc>
   187bc: 10 9b 12 9c  	ldr	q16, 0x3db1c <_ZN9Semaphore7DestroyEv+0x5d0c>
   187e4: 08 97 0a 98  	ldrsw	x8, 0x2dac4 <_ZNK19ChiFeature2RealTime41PopulateConfigurationsForSensorModeChangeEP24ChiFeature2RequestObjectP11ChiMetadata+0x3c>
   187ec: 10 9b 12 9c  	ldr	q16, 0x3db4c <_ZN9Semaphore7DestroyEv+0x5d3c>
   18834: 08 97 0a 98  	ldrsw	x8, 0x2db14 <_ZNK19ChiFeature2RealTime41PopulateConfigurationsForSensorModeChangeEP24ChiFeature2RequestObjectP11ChiMetadata+0x8c>
   1883c: 10 9b 12 9c  	ldr	q16, 0x3db9c <_ZN9Semaphore7DestroyEv+0x5d8c>
   18884: 08 97 0a 98  	ldrsw	x8, 0x2db64 <_ZNK19ChiFeature2RealTime41PopulateConfigurationsForSensorModeChangeEP24ChiFeature2RequestObjectP11ChiMetadata+0xdc>
   1888c: 10 9b 12 9c  	ldr	q16, 0x3dbec <_ZN9Semaphore7DestroyEv+0x5ddc>
   188b4: 08 97 0a 98  	ldrsw	x8, 0x2db94 <_ZNK19ChiFeature2RealTime41PopulateConfigurationsForSensorModeChangeEP24ChiFeature2RequestObjectP11ChiMetadata+0x10c>
   188bc: 10 9b 12 9c  	ldr	q16, 0x3dc1c <_ZN9Semaphore7DestroyEv+0x5e0c>
   1890c: 08 97 0a 98  	ldrsw	x8, 0x2dbec <_ZNK19ChiFeature2RealTime41PopulateConfigurationsForSensorModeChangeEP24ChiFeature2RequestObjectP11ChiMetadata+0x164>
   18914: 10 9b 12 9c  	ldr	q16, 0x3dc74 <_ZN9Semaphore7DestroyEv+0x5e64>
   1a940: 44 ba 00 94  	bl	0x49250 <_ZN7android8hardware11hidl_stringC1EPKc@plt>
   1a97c: 35 ba 00 94  	bl	0x49250 <_ZN7android8hardware11hidl_stringC1EPKc@plt>
   1a9ac: 29 ba 00 94  	bl	0x49250 <_ZN7android8hardware11hidl_stringC1EPKc@plt>
   1a9d8: 1e ba 00 94  	bl	0x49250 <_ZN7android8hardware11hidl_stringC1EPKc@plt>
   1aa04: 13 ba 00 94  	bl	0x49250 <_ZN7android8hardware11hidl_stringC1EPKc@plt>
   1aa30: 08 ba 00 94  	bl	0x49250 <_ZN7android8hardware11hidl_stringC1EPKc@plt>
   1aa60: fc b9 00 94  	bl	0x49250 <_ZN7android8hardware11hidl_stringC1EPKc@plt>
   1aa8c: f1 b9 00 94  	bl	0x49250 <_ZN7android8hardware11hidl_stringC1EPKc@plt>
   1aab8: e6 b9 00 94  	bl	0x49250 <_ZN7android8hardware11hidl_stringC1EPKc@plt>
   1aae4: db b9 00 94  	bl	0x49250 <_ZN7android8hardware11hidl_stringC1EPKc@plt>
   1ab10: d0 b9 00 94  	bl	0x49250 <_ZN7android8hardware11hidl_stringC1EPKc@plt>
   1ab3c: c5 b9 00 94  	bl	0x49250 <_ZN7android8hardware11hidl_stringC1EPKc@plt>
   1ab68: ba b9 00 94  	bl	0x49250 <_ZN7android8hardware11hidl_stringC1EPKc@plt>
   1ab94: af b9 00 94  	bl	0x49250 <_ZN7android8hardware11hidl_stringC1EPKc@plt>
   1abc0: a4 b9 00 94  	bl	0x49250 <_ZN7android8hardware11hidl_stringC1EPKc@plt>
   1abec: 99 b9 00 94  	bl	0x49250 <_ZN7android8hardware11hidl_stringC1EPKc@plt>
   1ac18: 8e b9 00 94  	bl	0x49250 <_ZN7android8hardware11hidl_stringC1EPKc@plt>
   1ac44: 83 b9 00 94  	bl	0x49250 <_ZN7android8hardware11hidl_stringC1EPKc@plt>
   1ac70: 78 b9 00 94  	bl	0x49250 <_ZN7android8hardware11hidl_stringC1EPKc@plt>
   1ac9c: 6d b9 00 94  	bl	0x49250 <_ZN7android8hardware11hidl_stringC1EPKc@plt>
   1acc8: 62 b9 00 94  	bl	0x49250 <_ZN7android8hardware11hidl_stringC1EPKc@plt>
   1b254: 0b b8 00 94  	bl	0x49280 <_ZN7android8hardware11hidl_stringC1ERKNSt3__112basic_stringIcNS2_11char_traitsIcEENS2_9allocatorIcEEEE@plt>
   1b280: 00 b8 00 94  	bl	0x49280 <_ZN7android8hardware11hidl_stringC1ERKNSt3__112basic_stringIcNS2_11char_traitsIcEENS2_9allocatorIcEEEE@plt>
   1b2ac: f5 b7 00 94  	bl	0x49280 <_ZN7android8hardware11hidl_stringC1ERKNSt3__112basic_stringIcNS2_11char_traitsIcEENS2_9allocatorIcEEEE@plt>
   1b2d8: ea b7 00 94  	bl	0x49280 <_ZN7android8hardware11hidl_stringC1ERKNSt3__112basic_stringIcNS2_11char_traitsIcEENS2_9allocatorIcEEEE@plt>
   1b304: df b7 00 94  	bl	0x49280 <_ZN7android8hardware11hidl_stringC1ERKNSt3__112basic_stringIcNS2_11char_traitsIcEENS2_9allocatorIcEEEE@plt>
   1b330: d4 b7 00 94  	bl	0x49280 <_ZN7android8hardware11hidl_stringC1ERKNSt3__112basic_stringIcNS2_11char_traitsIcEENS2_9allocatorIcEEEE@plt>
   1b35c: c9 b7 00 94  	bl	0x49280 <_ZN7android8hardware11hidl_stringC1ERKNSt3__112basic_stringIcNS2_11char_traitsIcEENS2_9allocatorIcEEEE@plt>
   1b388: be b7 00 94  	bl	0x49280 <_ZN7android8hardware11hidl_stringC1ERKNSt3__112basic_stringIcNS2_11char_traitsIcEENS2_9allocatorIcEEEE@plt>
   1b3b4: b3 b7 00 94  	bl	0x49280 <_ZN7android8hardware11hidl_stringC1ERKNSt3__112basic_stringIcNS2_11char_traitsIcEENS2_9allocatorIcEEEE@plt>
   1b3e0: a8 b7 00 94  	bl	0x49280 <_ZN7android8hardware11hidl_stringC1ERKNSt3__112basic_stringIcNS2_11char_traitsIcEENS2_9allocatorIcEEEE@plt>
   1b40c: 9d b7 00 94  	bl	0x49280 <_ZN7android8hardware11hidl_stringC1ERKNSt3__112basic_stringIcNS2_11char_traitsIcEENS2_9allocatorIcEEEE@plt>
   1b438: 92 b7 00 94  	bl	0x49280 <_ZN7android8hardware11hidl_stringC1ERKNSt3__112basic_stringIcNS2_11char_traitsIcEENS2_9allocatorIcEEEE@plt>
   1b464: 87 b7 00 94  	bl	0x49280 <_ZN7android8hardware11hidl_stringC1ERKNSt3__112basic_stringIcNS2_11char_traitsIcEENS2_9allocatorIcEEEE@plt>
   1b490: 7c b7 00 94  	bl	0x49280 <_ZN7android8hardware11hidl_stringC1ERKNSt3__112basic_stringIcNS2_11char_traitsIcEENS2_9allocatorIcEEEE@plt>
   1b4bc: 71 b7 00 94  	bl	0x49280 <_ZN7android8hardware11hidl_stringC1ERKNSt3__112basic_stringIcNS2_11char_traitsIcEENS2_9allocatorIcEEEE@plt>
   1b4e8: 66 b7 00 94  	bl	0x49280 <_ZN7android8hardware11hidl_stringC1ERKNSt3__112basic_stringIcNS2_11char_traitsIcEENS2_9allocatorIcEEEE@plt>
   1b514: 5b b7 00 94  	bl	0x49280 <_ZN7android8hardware11hidl_stringC1ERKNSt3__112basic_stringIcNS2_11char_traitsIcEENS2_9allocatorIcEEEE@plt>
   1b540: 50 b7 00 94  	bl	0x49280 <_ZN7android8hardware11hidl_stringC1ERKNSt3__112basic_stringIcNS2_11char_traitsIcEENS2_9allocatorIcEEEE@plt>
   1b56c: 45 b7 00 94  	bl	0x49280 <_ZN7android8hardware11hidl_stringC1ERKNSt3__112basic_stringIcNS2_11char_traitsIcEENS2_9allocatorIcEEEE@plt>
   1b598: 3a b7 00 94  	bl	0x49280 <_ZN7android8hardware11hidl_stringC1ERKNSt3__112basic_stringIcNS2_11char_traitsIcEENS2_9allocatorIcEEEE@plt>
   1b5c4: 2f b7 00 94  	bl	0x49280 <_ZN7android8hardware11hidl_stringC1ERKNSt3__112basic_stringIcNS2_11char_traitsIcEENS2_9allocatorIcEEEE@plt>
   1b5f0: 24 b7 00 94  	bl	0x49280 <_ZN7android8hardware11hidl_stringC1ERKNSt3__112basic_stringIcNS2_11char_traitsIcEENS2_9allocatorIcEEEE@plt>
   1b61c: 19 b7 00 94  	bl	0x49280 <_ZN7android8hardware11hidl_stringC1ERKNSt3__112basic_stringIcNS2_11char_traitsIcEENS2_9allocatorIcEEEE@plt>
   1b648: 0e b7 00 94  	bl	0x49280 <_ZN7android8hardware11hidl_stringC1ERKNSt3__112basic_stringIcNS2_11char_traitsIcEENS2_9allocatorIcEEEE@plt>
   1b674: 03 b7 00 94  	bl	0x49280 <_ZN7android8hardware11hidl_stringC1ERKNSt3__112basic_stringIcNS2_11char_traitsIcEENS2_9allocatorIcEEEE@plt>
   1b6a0: f8 b6 00 94  	bl	0x49280 <_ZN7android8hardware11hidl_stringC1ERKNSt3__112basic_stringIcNS2_11char_traitsIcEENS2_9allocatorIcEEEE@plt>
   1b6c8: f2 b6 00 94  	bl	0x49290 <_ZNSt3__112basic_stringIcNS_11char_traitsIcEENS_9allocatorIcEEEC1ERKS5_@plt>
   1b6f4: e7 b6 00 94  	bl	0x49290 <_ZNSt3__112basic_stringIcNS_11char_traitsIcEENS_9allocatorIcEEEC1ERKS5_@plt>
   1b720: dc b6 00 94  	bl	0x49290 <_ZNSt3__112basic_stringIcNS_11char_traitsIcEENS_9allocatorIcEEEC1ERKS5_@plt>
   1b74c: d1 b6 00 94  	bl	0x49290 <_ZNSt3__112basic_stringIcNS_11char_traitsIcEENS_9allocatorIcEEEC1ERKS5_@plt>
   1db60: bc ad 00 94  	bl	0x49250 <_ZN7android8hardware11hidl_stringC1EPKc@plt>
   1db9c: ad ad 00 94  	bl	0x49250 <_ZN7android8hardware11hidl_stringC1EPKc@plt>
   1dbc8: a2 ad 00 94  	bl	0x49250 <_ZN7android8hardware11hidl_stringC1EPKc@plt>
   1dbf4: 97 ad 00 94  	bl	0x49250 <_ZN7android8hardware11hidl_stringC1EPKc@plt>
   1dc20: 8c ad 00 94  	bl	0x49250 <_ZN7android8hardware11hidl_stringC1EPKc@plt>
   1dc4c: 81 ad 00 94  	bl	0x49250 <_ZN7android8hardware11hidl_stringC1EPKc@plt>
   1dc78: 76 ad 00 94  	bl	0x49250 <_ZN7android8hardware11hidl_stringC1EPKc@plt>
   1dca4: 6b ad 00 94  	bl	0x49250 <_ZN7android8hardware11hidl_stringC1EPKc@plt>
   1dcd0: 60 ad 00 94  	bl	0x49250 <_ZN7android8hardware11hidl_stringC1EPKc@plt>
   1dcfc: 55 ad 00 94  	bl	0x49250 <_ZN7android8hardware11hidl_stringC1EPKc@plt>
   1dd28: 4a ad 00 94  	bl	0x49250 <_ZN7android8hardware11hidl_stringC1EPKc@plt>
   1dd54: 3f ad 00 94  	bl	0x49250 <_ZN7android8hardware11hidl_stringC1EPKc@plt>
   1dd80: 34 ad 00 94  	bl	0x49250 <_ZN7android8hardware11hidl_stringC1EPKc@plt>
   1ddac: 29 ad 00 94  	bl	0x49250 <_ZN7android8hardware11hidl_stringC1EPKc@plt>
   1ddd8: 1e ad 00 94  	bl	0x49250 <_ZN7android8hardware11hidl_stringC1EPKc@plt>
   1de04: 13 ad 00 94  	bl	0x49250 <_ZN7android8hardware11hidl_stringC1EPKc@plt>
   1de30: 08 ad 00 94  	bl	0x49250 <_ZN7android8hardware11hidl_stringC1EPKc@plt>
   1de5c: fd ac 00 94  	bl	0x49250 <_ZN7android8hardware11hidl_stringC1EPKc@plt>
   1de88: f2 ac 00 94  	bl	0x49250 <_ZN7android8hardware11hidl_stringC1EPKc@plt>
   1deb4: e7 ac 00 94  	bl	0x49250 <_ZN7android8hardware11hidl_stringC1EPKc@plt>
   1dee0: dc ac 00 94  	bl	0x49250 <_ZN7android8hardware11hidl_stringC1EPKc@plt>
   1e46c: 85 ab 00 94  	bl	0x49280 <_ZN7android8hardware11hidl_stringC1ERKNSt3__112basic_stringIcNS2_11char_traitsIcEENS2_9allocatorIcEEEE@plt>
   1e498: 7a ab 00 94  	bl	0x49280 <_ZN7android8hardware11hidl_stringC1ERKNSt3__112basic_stringIcNS2_11char_traitsIcEENS2_9allocatorIcEEEE@plt>
   1e4c4: 6f ab 00 94  	bl	0x49280 <_ZN7android8hardware11hidl_stringC1ERKNSt3__112basic_stringIcNS2_11char_traitsIcEENS2_9allocatorIcEEEE@plt>
   1e4f0: 64 ab 00 94  	bl	0x49280 <_ZN7android8hardware11hidl_stringC1ERKNSt3__112basic_stringIcNS2_11char_traitsIcEENS2_9allocatorIcEEEE@plt>
   1e51c: 59 ab 00 94  	bl	0x49280 <_ZN7android8hardware11hidl_stringC1ERKNSt3__112basic_stringIcNS2_11char_traitsIcEENS2_9allocatorIcEEEE@plt>
   1e548: 4e ab 00 94  	bl	0x49280 <_ZN7android8hardware11hidl_stringC1ERKNSt3__112basic_stringIcNS2_11char_traitsIcEENS2_9allocatorIcEEEE@plt>
   1e574: 43 ab 00 94  	bl	0x49280 <_ZN7android8hardware11hidl_stringC1ERKNSt3__112basic_stringIcNS2_11char_traitsIcEENS2_9allocatorIcEEEE@plt>
   1e5a0: 38 ab 00 94  	bl	0x49280 <_ZN7android8hardware11hidl_stringC1ERKNSt3__112basic_stringIcNS2_11char_traitsIcEENS2_9allocatorIcEEEE@plt>
   1e5cc: 2d ab 00 94  	bl	0x49280 <_ZN7android8hardware11hidl_stringC1ERKNSt3__112basic_stringIcNS2_11char_traitsIcEENS2_9allocatorIcEEEE@plt>
   1e5f8: 22 ab 00 94  	bl	0x49280 <_ZN7android8hardware11hidl_stringC1ERKNSt3__112basic_stringIcNS2_11char_traitsIcEENS2_9allocatorIcEEEE@plt>
   1e624: 17 ab 00 94  	bl	0x49280 <_ZN7android8hardware11hidl_stringC1ERKNSt3__112basic_stringIcNS2_11char_traitsIcEENS2_9allocatorIcEEEE@plt>
   1e650: 0c ab 00 94  	bl	0x49280 <_ZN7android8hardware11hidl_stringC1ERKNSt3__112basic_stringIcNS2_11char_traitsIcEENS2_9allocatorIcEEEE@plt>
   1e67c: 01 ab 00 94  	bl	0x49280 <_ZN7android8hardware11hidl_stringC1ERKNSt3__112basic_stringIcNS2_11char_traitsIcEENS2_9allocatorIcEEEE@plt>
   1e6a8: f6 aa 00 94  	bl	0x49280 <_ZN7android8hardware11hidl_stringC1ERKNSt3__112basic_stringIcNS2_11char_traitsIcEENS2_9allocatorIcEEEE@plt>
   1e6d4: eb aa 00 94  	bl	0x49280 <_ZN7android8hardware11hidl_stringC1ERKNSt3__112basic_stringIcNS2_11char_traitsIcEENS2_9allocatorIcEEEE@plt>
   1e700: e0 aa 00 94  	bl	0x49280 <_ZN7android8hardware11hidl_stringC1ERKNSt3__112basic_stringIcNS2_11char_traitsIcEENS2_9allocatorIcEEEE@plt>
   1e72c: d5 aa 00 94  	bl	0x49280 <_ZN7android8hardware11hidl_stringC1ERKNSt3__112basic_stringIcNS2_11char_traitsIcEENS2_9allocatorIcEEEE@plt>
   1e758: ca aa 00 94  	bl	0x49280 <_ZN7android8hardware11hidl_stringC1ERKNSt3__112basic_stringIcNS2_11char_traitsIcEENS2_9allocatorIcEEEE@plt>
   1e784: bf aa 00 94  	bl	0x49280 <_ZN7android8hardware11hidl_stringC1ERKNSt3__112basic_stringIcNS2_11char_traitsIcEENS2_9allocatorIcEEEE@plt>
   1e7b0: b4 aa 00 94  	bl	0x49280 <_ZN7android8hardware11hidl_stringC1ERKNSt3__112basic_stringIcNS2_11char_traitsIcEENS2_9allocatorIcEEEE@plt>
   1e7dc: a9 aa 00 94  	bl	0x49280 <_ZN7android8hardware11hidl_stringC1ERKNSt3__112basic_stringIcNS2_11char_traitsIcEENS2_9allocatorIcEEEE@plt>
   1e808: 9e aa 00 94  	bl	0x49280 <_ZN7android8hardware11hidl_stringC1ERKNSt3__112basic_stringIcNS2_11char_traitsIcEENS2_9allocatorIcEEEE@plt>
   1e834: 93 aa 00 94  	bl	0x49280 <_ZN7android8hardware11hidl_stringC1ERKNSt3__112basic_stringIcNS2_11char_traitsIcEENS2_9allocatorIcEEEE@plt>
   1e860: 88 aa 00 94  	bl	0x49280 <_ZN7android8hardware11hidl_stringC1ERKNSt3__112basic_stringIcNS2_11char_traitsIcEENS2_9allocatorIcEEEE@plt>
   1e88c: 7d aa 00 94  	bl	0x49280 <_ZN7android8hardware11hidl_stringC1ERKNSt3__112basic_stringIcNS2_11char_traitsIcEENS2_9allocatorIcEEEE@plt>
   1e8b8: 72 aa 00 94  	bl	0x49280 <_ZN7android8hardware11hidl_stringC1ERKNSt3__112basic_stringIcNS2_11char_traitsIcEENS2_9allocatorIcEEEE@plt>
   1e8e0: 6c aa 00 94  	bl	0x49290 <_ZNSt3__112basic_stringIcNS_11char_traitsIcEENS_9allocatorIcEEEC1ERKS5_@plt>
   1e90c: 61 aa 00 94  	bl	0x49290 <_ZNSt3__112basic_stringIcNS_11char_traitsIcEENS_9allocatorIcEEEC1ERKS5_@plt>
   1e938: 56 aa 00 94  	bl	0x49290 <_ZNSt3__112basic_stringIcNS_11char_traitsIcEENS_9allocatorIcEEEC1ERKS5_@plt>
   1e964: 4b aa 00 94  	bl	0x49290 <_ZNSt3__112basic_stringIcNS_11char_traitsIcEENS_9allocatorIcEEEC1ERKS5_@plt>
   207b0: a8 a2 00 94  	bl	0x49250 <_ZN7android8hardware11hidl_stringC1EPKc@plt>
   207ec: 99 a2 00 94  	bl	0x49250 <_ZN7android8hardware11hidl_stringC1EPKc@plt>
   20818: 8e a2 00 94  	bl	0x49250 <_ZN7android8hardware11hidl_stringC1EPKc@plt>
   20844: 83 a2 00 94  	bl	0x49250 <_ZN7android8hardware11hidl_stringC1EPKc@plt>
   20870: 78 a2 00 94  	bl	0x49250 <_ZN7android8hardware11hidl_stringC1EPKc@plt>
   2089c: 6d a2 00 94  	bl	0x49250 <_ZN7android8hardware11hidl_stringC1EPKc@plt>
   208c8: 62 a2 00 94  	bl	0x49250 <_ZN7android8hardware11hidl_stringC1EPKc@plt>
   208f4: 57 a2 00 94  	bl	0x49250 <_ZN7android8hardware11hidl_stringC1EPKc@plt>
   20920: 4c a2 00 94  	bl	0x49250 <_ZN7android8hardware11hidl_stringC1EPKc@plt>
   2094c: 41 a2 00 94  	bl	0x49250 <_ZN7android8hardware11hidl_stringC1EPKc@plt>
   20978: 36 a2 00 94  	bl	0x49250 <_ZN7android8hardware11hidl_stringC1EPKc@plt>
   209a4: 2b a2 00 94  	bl	0x49250 <_ZN7android8hardware11hidl_stringC1EPKc@plt>
   209d0: 20 a2 00 94  	bl	0x49250 <_ZN7android8hardware11hidl_stringC1EPKc@plt>
   209fc: 15 a2 00 94  	bl	0x49250 <_ZN7android8hardware11hidl_stringC1EPKc@plt>
   20a28: 0a a2 00 94  	bl	0x49250 <_ZN7android8hardware11hidl_stringC1EPKc@plt>
   20a54: ff a1 00 94  	bl	0x49250 <_ZN7android8hardware11hidl_stringC1EPKc@plt>
   20a80: f4 a1 00 94  	bl	0x49250 <_ZN7android8hardware11hidl_stringC1EPKc@plt>
   20aac: e9 a1 00 94  	bl	0x49250 <_ZN7android8hardware11hidl_stringC1EPKc@plt>
   20ad8: de a1 00 94  	bl	0x49250 <_ZN7android8hardware11hidl_stringC1EPKc@plt>
   20b04: d3 a1 00 94  	bl	0x49250 <_ZN7android8hardware11hidl_stringC1EPKc@plt>
   20b30: c8 a1 00 94  	bl	0x49250 <_ZN7android8hardware11hidl_stringC1EPKc@plt>
   210b4: 73 a0 00 94  	bl	0x49280 <_ZN7android8hardware11hidl_stringC1ERKNSt3__112basic_stringIcNS2_11char_traitsIcEENS2_9allocatorIcEEEE@plt>
   210e0: 68 a0 00 94  	bl	0x49280 <_ZN7android8hardware11hidl_stringC1ERKNSt3__112basic_stringIcNS2_11char_traitsIcEENS2_9allocatorIcEEEE@plt>
   2110c: 5d a0 00 94  	bl	0x49280 <_ZN7android8hardware11hidl_stringC1ERKNSt3__112basic_stringIcNS2_11char_traitsIcEENS2_9allocatorIcEEEE@plt>
   21138: 52 a0 00 94  	bl	0x49280 <_ZN7android8hardware11hidl_stringC1ERKNSt3__112basic_stringIcNS2_11char_traitsIcEENS2_9allocatorIcEEEE@plt>
   21164: 47 a0 00 94  	bl	0x49280 <_ZN7android8hardware11hidl_stringC1ERKNSt3__112basic_stringIcNS2_11char_traitsIcEENS2_9allocatorIcEEEE@plt>
   21190: 3c a0 00 94  	bl	0x49280 <_ZN7android8hardware11hidl_stringC1ERKNSt3__112basic_stringIcNS2_11char_traitsIcEENS2_9allocatorIcEEEE@plt>
   211bc: 31 a0 00 94  	bl	0x49280 <_ZN7android8hardware11hidl_stringC1ERKNSt3__112basic_stringIcNS2_11char_traitsIcEENS2_9allocatorIcEEEE@plt>
   211e8: 26 a0 00 94  	bl	0x49280 <_ZN7android8hardware11hidl_stringC1ERKNSt3__112basic_stringIcNS2_11char_traitsIcEENS2_9allocatorIcEEEE@plt>
   21214: 1b a0 00 94  	bl	0x49280 <_ZN7android8hardware11hidl_stringC1ERKNSt3__112basic_stringIcNS2_11char_traitsIcEENS2_9allocatorIcEEEE@plt>
   21240: 10 a0 00 94  	bl	0x49280 <_ZN7android8hardware11hidl_stringC1ERKNSt3__112basic_stringIcNS2_11char_traitsIcEENS2_9allocatorIcEEEE@plt>
   2126c: 05 a0 00 94  	bl	0x49280 <_ZN7android8hardware11hidl_stringC1ERKNSt3__112basic_stringIcNS2_11char_traitsIcEENS2_9allocatorIcEEEE@plt>
   21298: fa 9f 00 94  	bl	0x49280 <_ZN7android8hardware11hidl_stringC1ERKNSt3__112basic_stringIcNS2_11char_traitsIcEENS2_9allocatorIcEEEE@plt>
   212c4: ef 9f 00 94  	bl	0x49280 <_ZN7android8hardware11hidl_stringC1ERKNSt3__112basic_stringIcNS2_11char_traitsIcEENS2_9allocatorIcEEEE@plt>
   212f0: e4 9f 00 94  	bl	0x49280 <_ZN7android8hardware11hidl_stringC1ERKNSt3__112basic_stringIcNS2_11char_traitsIcEENS2_9allocatorIcEEEE@plt>
   2131c: d9 9f 00 94  	bl	0x49280 <_ZN7android8hardware11hidl_stringC1ERKNSt3__112basic_stringIcNS2_11char_traitsIcEENS2_9allocatorIcEEEE@plt>
   21348: ce 9f 00 94  	bl	0x49280 <_ZN7android8hardware11hidl_stringC1ERKNSt3__112basic_stringIcNS2_11char_traitsIcEENS2_9allocatorIcEEEE@plt>
   21374: c3 9f 00 94  	bl	0x49280 <_ZN7android8hardware11hidl_stringC1ERKNSt3__112basic_stringIcNS2_11char_traitsIcEENS2_9allocatorIcEEEE@plt>
   213a0: b8 9f 00 94  	bl	0x49280 <_ZN7android8hardware11hidl_stringC1ERKNSt3__112basic_stringIcNS2_11char_traitsIcEENS2_9allocatorIcEEEE@plt>
   213cc: ad 9f 00 94  	bl	0x49280 <_ZN7android8hardware11hidl_stringC1ERKNSt3__112basic_stringIcNS2_11char_traitsIcEENS2_9allocatorIcEEEE@plt>
   213f8: a2 9f 00 94  	bl	0x49280 <_ZN7android8hardware11hidl_stringC1ERKNSt3__112basic_stringIcNS2_11char_traitsIcEENS2_9allocatorIcEEEE@plt>
   21424: 97 9f 00 94  	bl	0x49280 <_ZN7android8hardware11hidl_stringC1ERKNSt3__112basic_stringIcNS2_11char_traitsIcEENS2_9allocatorIcEEEE@plt>
   21450: 8c 9f 00 94  	bl	0x49280 <_ZN7android8hardware11hidl_stringC1ERKNSt3__112basic_stringIcNS2_11char_traitsIcEENS2_9allocatorIcEEEE@plt>
   2147c: 81 9f 00 94  	bl	0x49280 <_ZN7android8hardware11hidl_stringC1ERKNSt3__112basic_stringIcNS2_11char_traitsIcEENS2_9allocatorIcEEEE@plt>
   214a8: 76 9f 00 94  	bl	0x49280 <_ZN7android8hardware11hidl_stringC1ERKNSt3__112basic_stringIcNS2_11char_traitsIcEENS2_9allocatorIcEEEE@plt>
   214d4: 6b 9f 00 94  	bl	0x49280 <_ZN7android8hardware11hidl_stringC1ERKNSt3__112basic_stringIcNS2_11char_traitsIcEENS2_9allocatorIcEEEE@plt>
   21500: 60 9f 00 94  	bl	0x49280 <_ZN7android8hardware11hidl_stringC1ERKNSt3__112basic_stringIcNS2_11char_traitsIcEENS2_9allocatorIcEEEE@plt>
   21528: 5a 9f 00 94  	bl	0x49290 <_ZNSt3__112basic_stringIcNS_11char_traitsIcEENS_9allocatorIcEEEC1ERKS5_@plt>
   21554: 4f 9f 00 94  	bl	0x49290 <_ZNSt3__112basic_stringIcNS_11char_traitsIcEENS_9allocatorIcEEEC1ERKS5_@plt>
   21580: 44 9f 00 94  	bl	0x49290 <_ZNSt3__112basic_stringIcNS_11char_traitsIcEENS_9allocatorIcEEEC1ERKS5_@plt>
   215ac: 39 9f 00 94  	bl	0x49290 <_ZNSt3__112basic_stringIcNS_11char_traitsIcEENS_9allocatorIcEEEC1ERKS5_@plt>
   21610: 2c 9f 00 14  	b	0x492c0 <_ZN7android8hardware11hidl_stringD1Ev@plt>
   216ac: 09 9f 00 94  	bl	0x492d0 <_ZNK24ChiFeature2RequestObject23GetUsecaseRequestObjectEv@plt>
   216e4: 03 9f 00 94  	bl	0x492f0 <_ZN18ChiMetadataManager21GetMetadataFromHandleEPv@plt>
   216fc: 01 9f 00 94  	bl	0x49300 <_ZN8ChxUtils17GetVendorTagValueEP11ChiMetadata9VendorTagPPv@plt>
   2170c: fd 9e 00 94  	bl	0x49300 <_ZN8ChxUtils17GetVendorTagValueEP11ChiMetadata9VendorTagPPv@plt>
   21768: ea 9e 00 94  	bl	0x49310 <_ZN16CHIThreadManager16GetAllPostedJobsEmRNSt3__16vectorIPvNS0_9allocatorIS2_EEEE@plt>
   217a0: cc 9e 00 94  	bl	0x492d0 <_ZNK24ChiFeature2RequestObject23GetUsecaseRequestObjectEv@plt>
   21800: cc 9e 00 94  	bl	0x49330 <_ZNK19ChiFeature2RealTime21AreRequestsCompatibleEhPP18ChiPipelineRequest@plt>
   218d8: a2 9e 00 94  	bl	0x49360 <_ZN6ChiLog9LogSystemEPKcS1_S1_S1_iS1_z@plt>
   21900: 9c 9e 00 94  	bl	0x49370 <_ZNK19ChiFeature2RealTime21MergePipelineRequestsEhPP18ChiPipelineRequest@plt>
   21918: 9a 9e 00 94  	bl	0x49380 <_ZN16CHIThreadManager9RemoveJobEmPv@plt>
   21948: 92 9e 00 94  	bl	0x49390 <_ZNK15ChiFeature2Base24OnSubmitRequestToSessionEP18ChiPipelineRequest@plt>
   2196c: 8d 9e 00 94  	bl	0x493a0 <_ZNK24ChiFeature2RequestObject19GetSequencePrivDataE24ChiFeature2SequenceOrderh@plt>
   219ec: 75 9e 00 94  	bl	0x493c0 <_ZNK15ChiFeature2Base18HandleRequestErrorEPK20ChiMessageDescriptorPNS_27ChiFeatureFrameCallbackDataE@plt>
0000000000021af0 <_ZNK19ChiFeature2RealTime21AreRequestsCompatibleEhPP18ChiPipelineRequest>:
   21b08: 41 08 00 54  	b.ne	0x21c10 <_ZNK19ChiFeature2RealTime21AreRequestsCompatibleEhPP18ChiPipelineRequest+0x120>
   21b0c: 62 0d 00 b4  	cbz	x2, 0x21cb8 <_ZNK19ChiFeature2RealTime21AreRequestsCompatibleEhPP18ChiPipelineRequest+0x1c8>
   21b14: 2b 0d 00 b4  	cbz	x11, 0x21cb8 <_ZNK19ChiFeature2RealTime21AreRequestsCompatibleEhPP18ChiPipelineRequest+0x1c8>
   21b1c: ec 0c 00 b4  	cbz	x12, 0x21cb8 <_ZNK19ChiFeature2RealTime21AreRequestsCompatibleEhPP18ChiPipelineRequest+0x1c8>
   21b28: 81 0c 00 54  	b.ne	0x21cb8 <_ZNK19ChiFeature2RealTime21AreRequestsCompatibleEhPP18ChiPipelineRequest+0x1c8>
   21b34: 21 0c 00 54  	b.ne	0x21cb8 <_ZNK19ChiFeature2RealTime21AreRequestsCompatibleEhPP18ChiPipelineRequest+0x1c8>
   21b44: a1 0b 00 54  	b.ne	0x21cb8 <_ZNK19ChiFeature2RealTime21AreRequestsCompatibleEhPP18ChiPipelineRequest+0x1c8>
   21b5c: e1 0a 00 54  	b.ne	0x21cb8 <_ZNK19ChiFeature2RealTime21AreRequestsCompatibleEhPP18ChiPipelineRequest+0x1c8>
   21b64: 45 01 00 f0  	adrp	x5, 0x4c000 <_ZNK19ChiFeature2RealTime21AreRequestsCompatibleEhPP18ChiPipelineRequest+0x120>
   21b74: 81 11 00 54  	b.ne	0x21da4 <_ZNK19ChiFeature2RealTime21AreRequestsCompatibleEhPP18ChiPipelineRequest+0x2b4>
   21b7c: 21 13 00 54  	b.ne	0x21de0 <_ZNK19ChiFeature2RealTime21AreRequestsCompatibleEhPP18ChiPipelineRequest+0x2f0>
   21b88: 81 14 00 54  	b.ne	0x21e18 <_ZNK19ChiFeature2RealTime21AreRequestsCompatibleEhPP18ChiPipelineRequest+0x328>
   21b8c: 69 01 00 b0  	adrp	x9, 0x4e000 <_ZNK19ChiFeature2RealTime21AreRequestsCompatibleEhPP18ChiPipelineRequest+0x150>
   21ba0: c2 08 00 54  	b.hs	0x21cb8 <_ZNK19ChiFeature2RealTime21AreRequestsCompatibleEhPP18ChiPipelineRequest+0x1c8>
   21ba8: 91 08 00 b4  	cbz	x17, 0x21cb8 <_ZNK19ChiFeature2RealTime21AreRequestsCompatibleEhPP18ChiPipelineRequest+0x1c8>
   21bac: 70 01 00 b0  	adrp	x16, 0x4e000 <_ZNK19ChiFeature2RealTime21AreRequestsCompatibleEhPP18ChiPipelineRequest+0x170>
   21bc4: a2 07 00 54  	b.hs	0x21cb8 <_ZNK19ChiFeature2RealTime21AreRequestsCompatibleEhPP18ChiPipelineRequest+0x1c8>
   21bcc: 69 07 00 b4  	cbz	x9, 0x21cb8 <_ZNK19ChiFeature2RealTime21AreRequestsCompatibleEhPP18ChiPipelineRequest+0x1c8>
   21bdc: 88 07 00 54  	b.hi	0x21ccc <_ZNK19ChiFeature2RealTime21AreRequestsCompatibleEhPP18ChiPipelineRequest+0x1dc>
   21c08: 89 05 00 54  	b.ls	0x21cb8 <_ZNK19ChiFeature2RealTime21AreRequestsCompatibleEhPP18ChiPipelineRequest+0x1c8>
   21c0c: 3b 00 00 14  	b	0x21cf8 <_ZNK19ChiFeature2RealTime21AreRequestsCompatibleEhPP18ChiPipelineRequest+0x208>
   21c10: 46 01 00 f0  	adrp	x6, 0x4c000 <_ZNK19ChiFeature2RealTime21AreRequestsCompatibleEhPP18ChiPipelineRequest+0x1cc>
   21c1c: e9 04 00 36  	tbz	w9, #0, 0x21cb8 <_ZNK19ChiFeature2RealTime21AreRequestsCompatibleEhPP18ChiPipelineRequest+0x1c8>
   21c20: 47 01 00 f0  	adrp	x7, 0x4c000 <_ZNK19ChiFeature2RealTime21AreRequestsCompatibleEhPP18ChiPipelineRequest+0x1dc>
   21c24: 73 ff ff d0  	adrp	x19, 0xf000 <_ZNK19ChiFeature2RealTime21AreRequestsCompatibleEhPP18ChiPipelineRequest+0xec>
   21c38: 01 02 00 54  	b.ne	0x21c78 <_ZNK19ChiFeature2RealTime21AreRequestsCompatibleEhPP18ChiPipelineRequest+0x188>
   21c50: 81 ff ff f0  	adrp	x1, 0x14000 <_ZNK19ChiFeature2RealTime21AreRequestsCompatibleEhPP18ChiPipelineRequest+0x12c>
   21c54: 62 ff ff 90  	adrp	x2, 0xd000 <_ZNK19ChiFeature2RealTime21AreRequestsCompatibleEhPP18ChiPipelineRequest+0x114>
   21c58: 85 ff ff 90  	adrp	x5, 0x11000 <_ZNK19ChiFeature2RealTime21AreRequestsCompatibleEhPP18ChiPipelineRequest+0x128>
   21c8c: 81 ff ff d0  	adrp	x1, 0x13000 <_ZNK19ChiFeature2RealTime21AreRequestsCompatibleEhPP18ChiPipelineRequest+0x164>
   21c94: 60 ff ff 90  	adrp	x0, 0xd000 <_ZNK19ChiFeature2RealTime21AreRequestsCompatibleEhPP18ChiPipelineRequest+0x154>
   21c98: 83 ff ff 90  	adrp	x3, 0x11000 <_ZNK19ChiFeature2RealTime21AreRequestsCompatibleEhPP18ChiPipelineRequest+0x168>
   21c9c: 85 ff ff d0  	adrp	x5, 0x13000 <_ZNK19ChiFeature2RealTime21AreRequestsCompatibleEhPP18ChiPipelineRequest+0x174>
   21cb4: ab 9d 00 94  	bl	0x49360 <_ZN6ChiLog9LogSystemEPKcS1_S1_S1_iS1_z@plt>
   21cf4: 29 fe ff 54  	b.ls	0x21cb8 <_ZNK19ChiFeature2RealTime21AreRequestsCompatibleEhPP18ChiPipelineRequest+0x1c8>
   21cfc: ec fd ff b4  	cbz	x12, 0x21cb8 <_ZNK19ChiFeature2RealTime21AreRequestsCompatibleEhPP18ChiPipelineRequest+0x1c8>
   21d04: ed 01 00 34  	cbz	w13, 0x21d40 <_ZNK19ChiFeature2RealTime21AreRequestsCompatibleEhPP18ChiPipelineRequest+0x250>
   21d38: 61 ff ff 54  	b.ne	0x21d24 <_ZNK19ChiFeature2RealTime21AreRequestsCompatibleEhPP18ChiPipelineRequest+0x234>
   21d3c: 02 00 00 14  	b	0x21d44 <_ZNK19ChiFeature2RealTime21AreRequestsCompatibleEhPP18ChiPipelineRequest+0x254>
   21d48: 4e 02 00 34  	cbz	w14, 0x21d90 <_ZNK19ChiFeature2RealTime21AreRequestsCompatibleEhPP18ChiPipelineRequest+0x2a0>
   21d80: 61 ff ff 54  	b.ne	0x21d6c <_ZNK19ChiFeature2RealTime21AreRequestsCompatibleEhPP18ChiPipelineRequest+0x27c>
   21d8c: 02 00 00 14  	b	0x21d94 <_ZNK19ChiFeature2RealTime21AreRequestsCompatibleEhPP18ChiPipelineRequest+0x2a4>
   21da0: c7 ff ff 17  	b	0x21cbc <_ZNK19ChiFeature2RealTime21AreRequestsCompatibleEhPP18ChiPipelineRequest+0x1cc>
   21dc8: 45 01 00 f0  	adrp	x5, 0x4c000 <_ZNK19ChiFeature2RealTime21MergePipelineRequestsEhPP18ChiPipelineRequest+0x2c>
   21ddc: 20 ed ff 54  	b.eq	0x21b80 <_ZNK19ChiFeature2RealTime21AreRequestsCompatibleEhPP18ChiPipelineRequest+0x90>
   21e04: 45 01 00 f0  	adrp	x5, 0x4c000 <_ZNK19ChiFeature2RealTime21MergePipelineRequestsEhPP18ChiPipelineRequest+0x68>
   21e14: 5b ff ff 17  	b	0x21b80 <_ZNK19ChiFeature2RealTime21AreRequestsCompatibleEhPP18ChiPipelineRequest+0x90>
   21e40: 53 ff ff 17  	b	0x21b8c <_ZNK19ChiFeature2RealTime21AreRequestsCompatibleEhPP18ChiPipelineRequest+0x9c>
0000000000021e48 <_ZNK19ChiFeature2RealTime21MergePipelineRequestsEhPP18ChiPipelineRequest>:
   21e70: e1 11 00 54  	b.ne	0x220ac <_ZNK19ChiFeature2RealTime21MergePipelineRequestsEhPP18ChiPipelineRequest+0x264>
   21e74: 42 44 00 b4  	cbz	x2, 0x226fc <_ZNK19ChiFeature2RealTime21MergePipelineRequestsEhPP18ChiPipelineRequest+0x8b4>
   21e84: f5 43 00 b4  	cbz	x21, 0x22700 <_ZNK19ChiFeature2RealTime21MergePipelineRequestsEhPP18ChiPipelineRequest+0x8b8>
   21e8c: a5 43 00 b4  	cbz	x5, 0x22700 <_ZNK19ChiFeature2RealTime21MergePipelineRequestsEhPP18ChiPipelineRequest+0x8b8>
   21ea0: 00 43 00 b4  	cbz	x0, 0x22700 <_ZNK19ChiFeature2RealTime21MergePipelineRequestsEhPP18ChiPipelineRequest+0x8b8>
   21ebc: 3c 42 00 b4  	cbz	x28, 0x22700 <_ZNK19ChiFeature2RealTime21MergePipelineRequestsEhPP18ChiPipelineRequest+0x8b8>
   21ec0: 1b 42 00 b4  	cbz	x27, 0x22700 <_ZNK19ChiFeature2RealTime21MergePipelineRequestsEhPP18ChiPipelineRequest+0x8b8>
   21ecc: b8 41 00 b4  	cbz	x24, 0x22700 <_ZNK19ChiFeature2RealTime21MergePipelineRequestsEhPP18ChiPipelineRequest+0x8b8>
   21ed8: 47 41 00 b4  	cbz	x7, 0x22700 <_ZNK19ChiFeature2RealTime21MergePipelineRequestsEhPP18ChiPipelineRequest+0x8b8>
   21eec: 62 45 00 54  	b.hs	0x22798 <_ZNK19ChiFeature2RealTime21MergePipelineRequestsEhPP18ChiPipelineRequest+0x950>
   21f0c: a0 3f 00 b4  	cbz	x0, 0x22700 <_ZNK19ChiFeature2RealTime21MergePipelineRequestsEhPP18ChiPipelineRequest+0x8b8>
   21f34: 4a 14 00 34  	cbz	w10, 0x221bc <_ZNK19ChiFeature2RealTime21MergePipelineRequestsEhPP18ChiPipelineRequest+0x374>
   21f3c: 03 11 00 54  	b.lo	0x2215c <_ZNK19ChiFeature2RealTime21MergePipelineRequestsEhPP18ChiPipelineRequest+0x314>
   21f80: f1 0e 00 37  	tbnz	w17, #0, 0x2215c <_ZNK19ChiFeature2RealTime21MergePipelineRequestsEhPP18ChiPipelineRequest+0x314>
   21f88: a3 0e 00 36  	tbz	w3, #0, 0x2215c <_ZNK19ChiFeature2RealTime21MergePipelineRequestsEhPP18ChiPipelineRequest+0x314>
   22044: 61 fb ff 54  	b.ne	0x21fb0 <_ZNK19ChiFeature2RealTime21MergePipelineRequestsEhPP18ChiPipelineRequest+0x168>
   22050: 0b 0b 00 b4  	cbz	x11, 0x221b0 <_ZNK19ChiFeature2RealTime21MergePipelineRequestsEhPP18ChiPipelineRequest+0x368>
   220a4: 8b fe ff 54  	b.lt	0x22074 <_ZNK19ChiFeature2RealTime21MergePipelineRequestsEhPP18ChiPipelineRequest+0x22c>
   220a8: 42 00 00 14  	b	0x221b0 <_ZNK19ChiFeature2RealTime21MergePipelineRequestsEhPP18ChiPipelineRequest+0x368>
   220ac: 48 01 00 d0  	adrp	x8, 0x4c000 <_ZNK19ChiFeature2RealTime21MergePipelineRequestsEhPP18ChiPipelineRequest+0x30c>
   220b8: ea 04 00 36  	tbz	w10, #0, 0x22154 <_ZNK19ChiFeature2RealTime21MergePipelineRequestsEhPP18ChiPipelineRequest+0x30c>
   220bc: 49 01 00 d0  	adrp	x9, 0x4c000 <_ZNK19ChiFeature2RealTime21MergePipelineRequestsEhPP18ChiPipelineRequest+0x31c>
   220c0: 76 ff ff b0  	adrp	x22, 0xf000 <_ZNK19ChiFeature2RealTime21MergePipelineRequestsEhPP18ChiPipelineRequest+0x22c>
   220d4: 01 02 00 54  	b.ne	0x22114 <_ZNK19ChiFeature2RealTime21MergePipelineRequestsEhPP18ChiPipelineRequest+0x2cc>
   220ec: 81 ff ff d0  	adrp	x1, 0x14000 <_ZNK19ChiFeature2RealTime21MergePipelineRequestsEhPP18ChiPipelineRequest+0x26c>
   220f0: 42 ff ff f0  	adrp	x2, 0xd000 <_ZNK19ChiFeature2RealTime21MergePipelineRequestsEhPP18ChiPipelineRequest+0x254>
   220f4: 65 ff ff f0  	adrp	x5, 0x11000 <_ZNK19ChiFeature2RealTime21MergePipelineRequestsEhPP18ChiPipelineRequest+0x268>
   22128: 81 ff ff b0  	adrp	x1, 0x13000 <_ZNK19ChiFeature2RealTime21MergePipelineRequestsEhPP18ChiPipelineRequest+0x2a4>
   22130: 40 ff ff f0  	adrp	x0, 0xd000 <_ZNK19ChiFeature2RealTime21MergePipelineRequestsEhPP18ChiPipelineRequest+0x294>
   22134: 63 ff ff f0  	adrp	x3, 0x11000 <_ZNK19ChiFeature2RealTime21MergePipelineRequestsEhPP18ChiPipelineRequest+0x2a8>
   22138: 85 ff ff b0  	adrp	x5, 0x13000 <_ZNK19ChiFeature2RealTime21MergePipelineRequestsEhPP18ChiPipelineRequest+0x2b4>
   22150: 84 9c 00 94  	bl	0x49360 <_ZN6ChiLog9LogSystemEPKcS1_S1_S1_iS1_z@plt>
   22158: 6a 01 00 14  	b	0x22700 <_ZNK19ChiFeature2RealTime21MergePipelineRequestsEhPP18ChiPipelineRequest+0x8b8>
   221ac: 23 fe ff 54  	b.lo	0x22170 <_ZNK19ChiFeature2RealTime21MergePipelineRequestsEhPP18ChiPipelineRequest+0x328>
   221b8: 04 00 00 14  	b	0x221c8 <_ZNK19ChiFeature2RealTime21MergePipelineRequestsEhPP18ChiPipelineRequest+0x380>
   221c8: 4f 01 00 d0  	adrp	x15, 0x4c000 <_ZNK19ChiFeature2RealTime21MergePipelineRequestsEhPP18ChiPipelineRequest+0x428>
   221f0: 0a 00 00 14  	b	0x22218 <_ZNK19ChiFeature2RealTime21MergePipelineRequestsEhPP18ChiPipelineRequest+0x3d0>
   22214: 20 2c 00 54  	b.eq	0x22798 <_ZNK19ChiFeature2RealTime21MergePipelineRequestsEhPP18ChiPipelineRequest+0x950>
   22220: 82 1c 00 54  	b.hs	0x225b0 <_ZNK19ChiFeature2RealTime21MergePipelineRequestsEhPP18ChiPipelineRequest+0x768>
   22224: b6 01 00 34  	cbz	w22, 0x22258 <_ZNK19ChiFeature2RealTime21MergePipelineRequestsEhPP18ChiPipelineRequest+0x410>
   22244: 60 02 00 54  	b.eq	0x22290 <_ZNK19ChiFeature2RealTime21MergePipelineRequestsEhPP18ChiPipelineRequest+0x448>
   22254: 41 ff ff 54  	b.ne	0x2223c <_ZNK19ChiFeature2RealTime21MergePipelineRequestsEhPP18ChiPipelineRequest+0x3f4>
   2225c: e2 29 00 54  	b.hs	0x22798 <_ZNK19ChiFeature2RealTime21MergePipelineRequestsEhPP18ChiPipelineRequest+0x950>
   2228c: df ff ff 17  	b	0x22208 <_ZNK19ChiFeature2RealTime21MergePipelineRequestsEhPP18ChiPipelineRequest+0x3c0>
   22294: b4 fb ff b4  	cbz	x20, 0x22208 <_ZNK19ChiFeature2RealTime21MergePipelineRequestsEhPP18ChiPipelineRequest+0x3c0>
   222a0: 40 fb ff 54  	b.eq	0x22208 <_ZNK19ChiFeature2RealTime21MergePipelineRequestsEhPP18ChiPipelineRequest+0x3c0>
   222b0: 2f 00 00 14  	b	0x2236c <_ZNK19ChiFeature2RealTime21MergePipelineRequestsEhPP18ChiPipelineRequest+0x524>
   222b4: 70 ff ff b0  	adrp	x16, 0xf000 <_ZNK19ChiFeature2RealTime21MergePipelineRequestsEhPP18ChiPipelineRequest+0x420>
   222d8: 61 ff ff f0  	adrp	x1, 0x11000 <_ZNK19ChiFeature2RealTime21MergePipelineRequestsEhPP18ChiPipelineRequest+0x44c>
   222e0: 7b ff ff b0  	adrp	x27, 0xf000 <_ZNK19ChiFeature2RealTime21MergePipelineRequestsEhPP18ChiPipelineRequest+0x44c>
   222e8: 63 ff ff f0  	adrp	x3, 0x11000 <_ZNK19ChiFeature2RealTime21MergePipelineRequestsEhPP18ChiPipelineRequest+0x45c>
   222f4: 80 ff ff d0  	adrp	x0, 0x14000 <_ZNK19ChiFeature2RealTime21MergePipelineRequestsEhPP18ChiPipelineRequest+0x474>
   222f8: 65 ff ff f0  	adrp	x5, 0x11000 <_ZNK19ChiFeature2RealTime21MergePipelineRequestsEhPP18ChiPipelineRequest+0x46c>
   22314: 13 9c 00 94  	bl	0x49360 <_ZN6ChiLog9LogSystemEPKcS1_S1_S1_iS1_z@plt>
   22330: 38 9c 00 94  	bl	0x49410 <_ZN22CHITargetBufferManager12UpdateTargetEjmPv15ChiTargetStatusPS0_@plt>
   22338: 4f 01 00 d0  	adrp	x15, 0x4c000 <_ZNK19ChiFeature2RealTime21MergePipelineRequestsEhPP18ChiPipelineRequest+0x598>
   22368: 69 f4 ff 54  	b.ls	0x221f4 <_ZNK19ChiFeature2RealTime21MergePipelineRequestsEhPP18ChiPipelineRequest+0x3ac>
   22374: c1 0c 00 54  	b.ne	0x2250c <_ZNK19ChiFeature2RealTime21MergePipelineRequestsEhPP18ChiPipelineRequest+0x6c4>
   22380: 21 0e 00 54  	b.ne	0x22544 <_ZNK19ChiFeature2RealTime21MergePipelineRequestsEhPP18ChiPipelineRequest+0x6fc>
   22388: a1 0f 00 54  	b.ne	0x2257c <_ZNK19ChiFeature2RealTime21MergePipelineRequestsEhPP18ChiPipelineRequest+0x734>
   2238c: 19 fe ff b4  	cbz	x25, 0x2234c <_ZNK19ChiFeature2RealTime21MergePipelineRequestsEhPP18ChiPipelineRequest+0x504>
   223a4: 42 fd ff 54  	b.hs	0x2234c <_ZNK19ChiFeature2RealTime21MergePipelineRequestsEhPP18ChiPipelineRequest+0x504>
   223ac: 03 fd ff b4  	cbz	x3, 0x2234c <_ZNK19ChiFeature2RealTime21MergePipelineRequestsEhPP18ChiPipelineRequest+0x504>
   223c4: 42 fc ff 54  	b.hs	0x2234c <_ZNK19ChiFeature2RealTime21MergePipelineRequestsEhPP18ChiPipelineRequest+0x504>
   223cc: 0d fc ff b4  	cbz	x13, 0x2234c <_ZNK19ChiFeature2RealTime21MergePipelineRequestsEhPP18ChiPipelineRequest+0x504>
   223e0: a8 01 00 54  	b.hi	0x22414 <_ZNK19ChiFeature2RealTime21MergePipelineRequestsEhPP18ChiPipelineRequest+0x5cc>
   2240c: 09 fa ff 54  	b.ls	0x2234c <_ZNK19ChiFeature2RealTime21MergePipelineRequestsEhPP18ChiPipelineRequest+0x504>
   22410: 11 00 00 14  	b	0x22454 <_ZNK19ChiFeature2RealTime21MergePipelineRequestsEhPP18ChiPipelineRequest+0x60c>
   22434: 4f 01 00 d0  	adrp	x15, 0x4c000 <_ZNK19ChiFeature2RealTime21MergePipelineRequestsEhPP18ChiPipelineRequest+0x694>
   22450: e9 f7 ff 54  	b.ls	0x2234c <_ZNK19ChiFeature2RealTime21MergePipelineRequestsEhPP18ChiPipelineRequest+0x504>
   22458: b9 f7 ff b4  	cbz	x25, 0x2234c <_ZNK19ChiFeature2RealTime21MergePipelineRequestsEhPP18ChiPipelineRequest+0x504>
   22470: e1 f6 ff 54  	b.ne	0x2234c <_ZNK19ChiFeature2RealTime21MergePipelineRequestsEhPP18ChiPipelineRequest+0x504>
   22474: 49 01 00 d0  	adrp	x9, 0x4c000 <_ZNK19ChiFeature2RealTime21MergePipelineRequestsEhPP18ChiPipelineRequest+0x6d4>
   2248c: 66 00 18 37  	tbnz	w6, #3, 0x22498 <_ZNK19ChiFeature2RealTime21MergePipelineRequestsEhPP18ChiPipelineRequest+0x650>
   22494: a3 ff ff 17  	b	0x22320 <_ZNK19ChiFeature2RealTime21MergePipelineRequestsEhPP18ChiPipelineRequest+0x4d8>
   22498: 4b 01 00 d0  	adrp	x11, 0x4c000 <_ZNK19ChiFeature2RealTime21MergePipelineRequestsEhPP18ChiPipelineRequest+0x6f8>
   224ac: 41 f0 ff 54  	b.ne	0x222b4 <_ZNK19ChiFeature2RealTime21MergePipelineRequestsEhPP18ChiPipelineRequest+0x46c>
   224b0: 78 ff ff b0  	adrp	x24, 0xf000 <_ZNK19ChiFeature2RealTime21MergePipelineRequestsEhPP18ChiPipelineRequest+0x61c>
   224d4: 81 ff ff d0  	adrp	x1, 0x14000 <_ZNK19ChiFeature2RealTime21MergePipelineRequestsEhPP18ChiPipelineRequest+0x654>
   224dc: 62 ff ff f0  	adrp	x2, 0x11000 <_ZNK19ChiFeature2RealTime21MergePipelineRequestsEhPP18ChiPipelineRequest+0x650>
   224e0: 65 ff ff f0  	adrp	x5, 0x11000 <_ZNK19ChiFeature2RealTime21MergePipelineRequestsEhPP18ChiPipelineRequest+0x654>
   22508: 6b ff ff 17  	b	0x222b4 <_ZNK19ChiFeature2RealTime21MergePipelineRequestsEhPP18ChiPipelineRequest+0x46c>
   22528: 4f 01 00 d0  	adrp	x15, 0x4c000 <_ZNK19ChiFeature2RealTime21MergePipelineRequestsEhPP18ChiPipelineRequest+0x788>
   22540: 8e ff ff 17  	b	0x22378 <_ZNK19ChiFeature2RealTime21MergePipelineRequestsEhPP18ChiPipelineRequest+0x530>
   2255c: 4f 01 00 d0  	adrp	x15, 0x4c000 <_ZNK19ChiFeature2RealTime21MergePipelineRequestsEhPP18ChiPipelineRequest+0x7bc>
   22578: a0 f0 ff 54  	b.eq	0x2238c <_ZNK19ChiFeature2RealTime21MergePipelineRequestsEhPP18ChiPipelineRequest+0x544>
   22594: 4f 01 00 d0  	adrp	x15, 0x4c000 <_ZNK19ChiFeature2RealTime21MergePipelineRequestsEhPP18ChiPipelineRequest+0x7f4>
   225a8: 59 ef ff b5  	cbnz	x25, 0x22390 <_ZNK19ChiFeature2RealTime21MergePipelineRequestsEhPP18ChiPipelineRequest+0x548>
   225ac: 68 ff ff 17  	b	0x2234c <_ZNK19ChiFeature2RealTime21MergePipelineRequestsEhPP18ChiPipelineRequest+0x504>
   22600: 01 09 00 54  	b.ne	0x22720 <_ZNK19ChiFeature2RealTime21MergePipelineRequestsEhPP18ChiPipelineRequest+0x8d8>
   22608: 01 0a 00 54  	b.ne	0x22748 <_ZNK19ChiFeature2RealTime21MergePipelineRequestsEhPP18ChiPipelineRequest+0x900>
   2260c: 75 01 00 90  	adrp	x21, 0x4e000 <_ZNK19ChiFeature2RealTime21MergePipelineRequestsEhPP18ChiPipelineRequest+0x874>
   22620: e2 05 00 54  	b.hs	0x226dc <_ZNK19ChiFeature2RealTime21MergePipelineRequestsEhPP18ChiPipelineRequest+0x894>
   22628: a4 05 00 b4  	cbz	x4, 0x226dc <_ZNK19ChiFeature2RealTime21MergePipelineRequestsEhPP18ChiPipelineRequest+0x894>
   2262c: 70 01 00 90  	adrp	x16, 0x4e000 <_ZNK19ChiFeature2RealTime21MergePipelineRequestsEhPP18ChiPipelineRequest+0x894>
   22644: c2 04 00 54  	b.hs	0x226dc <_ZNK19ChiFeature2RealTime21MergePipelineRequestsEhPP18ChiPipelineRequest+0x894>
   2264c: 95 04 00 b4  	cbz	x21, 0x226dc <_ZNK19ChiFeature2RealTime21MergePipelineRequestsEhPP18ChiPipelineRequest+0x894>
   22654: 56 04 00 b4  	cbz	x22, 0x226dc <_ZNK19ChiFeature2RealTime21MergePipelineRequestsEhPP18ChiPipelineRequest+0x894>
   2265c: 1a 04 00 b4  	cbz	x26, 0x226dc <_ZNK19ChiFeature2RealTime21MergePipelineRequestsEhPP18ChiPipelineRequest+0x894>
   2266c: e1 07 00 54  	b.ne	0x22768 <_ZNK19ChiFeature2RealTime21MergePipelineRequestsEhPP18ChiPipelineRequest+0x920>
   22678: 1e 9b 00 94  	bl	0x492f0 <_ZN18ChiMetadataManager21GetMetadataFromHandleEPv@plt>
   22688: c1 07 00 54  	b.ne	0x22780 <_ZNK19ChiFeature2RealTime21MergePipelineRequestsEhPP18ChiPipelineRequest+0x938>
   22694: 17 9b 00 94  	bl	0x492f0 <_ZN18ChiMetadataManager21GetMetadataFromHandleEPv@plt>
   2269c: 18 02 00 b4  	cbz	x24, 0x226dc <_ZNK19ChiFeature2RealTime21MergePipelineRequestsEhPP18ChiPipelineRequest+0x894>
   226a0: e0 01 00 b4  	cbz	x0, 0x226dc <_ZNK19ChiFeature2RealTime21MergePipelineRequestsEhPP18ChiPipelineRequest+0x894>
   226bc: 55 9b 00 94  	bl	0x49410 <_ZN22CHITargetBufferManager12UpdateTargetEjmPv15ChiTargetStatusPS0_@plt>
   226d8: 4e 9b 00 94  	bl	0x49410 <_ZN22CHITargetBufferManager12UpdateTargetEjmPv15ChiTargetStatusPS0_@plt>
   22734: 4f 01 00 d0  	adrp	x15, 0x4c000 <_ZNK19ChiFeature2RealTime21MergePipelineRequestsEhPP18ChiPipelineRequest+0x994>
   22744: 40 f6 ff 54  	b.eq	0x2260c <_ZNK19ChiFeature2RealTime21MergePipelineRequestsEhPP18ChiPipelineRequest+0x7c4>
   2275c: 4f 01 00 d0  	adrp	x15, 0x4c000 <_ZNK19ChiFeature2RealTime21MergePipelineRequestsEhPP18ChiPipelineRequest+0x9bc>
   22764: aa ff ff 17  	b	0x2260c <_ZNK19ChiFeature2RealTime21MergePipelineRequestsEhPP18ChiPipelineRequest+0x7c4>
   2277c: bd ff ff 17  	b	0x22670 <_ZNK19ChiFeature2RealTime21MergePipelineRequestsEhPP18ChiPipelineRequest+0x828>
   22794: be ff ff 17  	b	0x2268c <_ZNK19ChiFeature2RealTime21MergePipelineRequestsEhPP18ChiPipelineRequest+0x844>
   227f4: 48 01 00 d0  	adrp	x8, 0x4c000 <_ZNK19ChiFeature2RealTime21MergePipelineRequestsEhPP18ChiPipelineRequest+0xa54>
   22820: 60 07 00 b4  	cbz	x0, 0x2290c <_ZNK19ChiFeature2RealTime21MergePipelineRequestsEhPP18ChiPipelineRequest+0xac4>
   22828: 54 0d 00 b4  	cbz	x20, 0x229d0 <_ZNK19ChiFeature2RealTime21MergePipelineRequestsEhPP18ChiPipelineRequest+0xb88>
   22834: fb 9a 00 94  	bl	0x49420 <_ZN15ChiFeature2Base10InitializeEP26ChiFeature2CreateInputInfo@plt>
   22838: 40 0c 00 34  	cbz	w0, 0x229c0 <_ZNK19ChiFeature2RealTime21MergePipelineRequestsEhPP18ChiPipelineRequest+0xb78>
   2283c: 4d 01 00 d0  	adrp	x13, 0x4c000 <_ZNK19ChiFeature2RealTime21MergePipelineRequestsEhPP18ChiPipelineRequest+0xa9c>
   22848: ea 04 00 36  	tbz	w10, #0, 0x228e4 <_ZNK19ChiFeature2RealTime21MergePipelineRequestsEhPP18ChiPipelineRequest+0xa9c>
   2284c: 4e 01 00 d0  	adrp	x14, 0x4c000 <_ZNK19ChiFeature2RealTime21MergePipelineRequestsEhPP18ChiPipelineRequest+0xaac>
   22850: 74 ff ff b0  	adrp	x20, 0xf000 <_ZNK19ChiFeature2RealTime21MergePipelineRequestsEhPP18ChiPipelineRequest+0x9bc>
   22864: 01 02 00 54  	b.ne	0x228a4 <_ZNK19ChiFeature2RealTime21MergePipelineRequestsEhPP18ChiPipelineRequest+0xa5c>
   2287c: 81 ff ff d0  	adrp	x1, 0x14000 <_ZNK19ChiFeature2RealTime21MergePipelineRequestsEhPP18ChiPipelineRequest+0x9fc>
   22880: 82 ff ff 90  	adrp	x2, 0x12000 <_ZNK19ChiFeature2RealTime21MergePipelineRequestsEhPP18ChiPipelineRequest+0x9f8>
   22884: 85 ff ff b0  	adrp	x5, 0x13000 <_ZNK19ChiFeature2RealTime21MergePipelineRequestsEhPP18ChiPipelineRequest+0xa00>
   228b8: 81 ff ff b0  	adrp	x1, 0x13000 <_ZNK19ChiFeature2RealTime21MergePipelineRequestsEhPP18ChiPipelineRequest+0xa34>
   228c0: 40 ff ff f0  	adrp	x0, 0xd000 <_ZNK19ChiFeature2RealTime21MergePipelineRequestsEhPP18ChiPipelineRequest+0xa24>
   228c4: 83 ff ff b0  	adrp	x3, 0x13000 <_ZNK19ChiFeature2RealTime21MergePipelineRequestsEhPP18ChiPipelineRequest+0xa40>
   228c8: 65 ff ff d0  	adrp	x5, 0x10000 <_ZNK19ChiFeature2RealTime21MergePipelineRequestsEhPP18ChiPipelineRequest+0xa38>
   228e0: a0 9a 00 94  	bl	0x49360 <_ZN6ChiLog9LogSystemEPKcS1_S1_S1_iS1_z@plt>
   228e8: 4f 01 00 d0  	adrp	x15, 0x4c000 <_ZNK19ChiFeature2RealTime21MergePipelineRequestsEhPP18ChiPipelineRequest+0xb48>
   228f8: 61 0c 00 54  	b.ne	0x22a84 <_ZNK19ChiFeature2RealTime21MergePipelineRequestsEhPP18ChiPipelineRequest+0xc3c>
   22908: 2d 00 00 14  	b	0x229bc <_ZNK19ChiFeature2RealTime21MergePipelineRequestsEhPP18ChiPipelineRequest+0xb74>
   2290c: 51 01 00 d0  	adrp	x17, 0x4c000 <_ZNK19ChiFeature2RealTime21MergePipelineRequestsEhPP18ChiPipelineRequest+0xb6c>
   22918: 2b 05 00 36  	tbz	w11, #0, 0x229bc <_ZNK19ChiFeature2RealTime21MergePipelineRequestsEhPP18ChiPipelineRequest+0xb74>
   2291c: 41 01 00 d0  	adrp	x1, 0x4c000 <_ZNK19ChiFeature2RealTime21MergePipelineRequestsEhPP18ChiPipelineRequest+0xb7c>
   2292c: 41 02 00 54  	b.ne	0x22974 <_ZNK19ChiFeature2RealTime21MergePipelineRequestsEhPP18ChiPipelineRequest+0xb2c>
   22930: 74 ff ff b0  	adrp	x20, 0xf000 <_ZNK19ChiFeature2RealTime21MergePipelineRequestsEhPP18ChiPipelineRequest+0xa9c>
   2294c: 81 ff ff d0  	adrp	x1, 0x14000 <_ZNK19ChiFeature2RealTime21MergePipelineRequestsEhPP18ChiPipelineRequest+0xacc>
   22950: 62 ff ff b0  	adrp	x2, 0xf000 <_ZNK19ChiFeature2RealTime21MergePipelineRequestsEhPP18ChiPipelineRequest+0xabc>
   22954: 85 ff ff b0  	adrp	x5, 0x13000 <_ZNK19ChiFeature2RealTime21MergePipelineRequestsEhPP18ChiPipelineRequest+0xad0>
   22974: 74 ff ff b0  	adrp	x20, 0xf000 <_ZNK19ChiFeature2RealTime21MergePipelineRequestsEhPP18ChiPipelineRequest+0xae0>
   22990: 81 ff ff b0  	adrp	x1, 0x13000 <_ZNK19ChiFeature2RealTime21MergePipelineRequestsEhPP18ChiPipelineRequest+0xb0c>
   22998: 40 ff ff f0  	adrp	x0, 0xd000 <_ZNK19ChiFeature2RealTime21MergePipelineRequestsEhPP18ChiPipelineRequest+0xafc>
   2299c: 83 ff ff b0  	adrp	x3, 0x13000 <_ZNK19ChiFeature2RealTime21MergePipelineRequestsEhPP18ChiPipelineRequest+0xb18>
   229a0: 65 ff ff f0  	adrp	x5, 0x11000 <_ZNK19ChiFeature2RealTime21MergePipelineRequestsEhPP18ChiPipelineRequest+0xb14>
   229b8: 6a 9a 00 94  	bl	0x49360 <_ZN6ChiLog9LogSystemEPKcS1_S1_S1_iS1_z@plt>
   229d0: 4b 01 00 d0  	adrp	x11, 0x4c000 <_ZNK19ChiFeature2RealTime21MergePipelineRequestsEhPP18ChiPipelineRequest+0xc30>
   229dc: 29 ff 07 36  	tbz	w9, #0, 0x229c0 <_ZNK19ChiFeature2RealTime21MergePipelineRequestsEhPP18ChiPipelineRequest+0xb78>
   229e0: 4c 01 00 d0  	adrp	x12, 0x4c000 <_ZNK19ChiFeature2RealTime21MergePipelineRequestsEhPP18ChiPipelineRequest+0xc40>
   229f0: 41 02 00 54  	b.ne	0x22a38 <_ZNK19ChiFeature2RealTime21MergePipelineRequestsEhPP18ChiPipelineRequest+0xbf0>
   229f4: 74 ff ff b0  	adrp	x20, 0xf000 <_ZNK19ChiFeature2RealTime21MergePipelineRequestsEhPP18ChiPipelineRequest+0xb60>
   22a10: 81 ff ff d0  	adrp	x1, 0x14000 <_ZNK19ChiFeature2RealTime21MergePipelineRequestsEhPP18ChiPipelineRequest+0xb90>
   22a14: 42 ff ff f0  	adrp	x2, 0xd000 <_ZNK19ChiFeature2RealTime21MergePipelineRequestsEhPP18ChiPipelineRequest+0xb78>
   22a18: 85 ff ff b0  	adrp	x5, 0x13000 <_ZNK19ChiFeature2RealTime21MergePipelineRequestsEhPP18ChiPipelineRequest+0xb94>
   22a38: 74 ff ff b0  	adrp	x20, 0xf000 <_ZNK19ChiFeature2RealTime21MergePipelineRequestsEhPP18ChiPipelineRequest+0xba4>
   22a54: 81 ff ff b0  	adrp	x1, 0x13000 <_ZNK19ChiFeature2RealTime21MergePipelineRequestsEhPP18ChiPipelineRequest+0xbd0>
   22a5c: 40 ff ff f0  	adrp	x0, 0xd000 <_ZNK19ChiFeature2RealTime21MergePipelineRequestsEhPP18ChiPipelineRequest+0xbc0>
   22a60: 83 ff ff b0  	adrp	x3, 0x13000 <_ZNK19ChiFeature2RealTime21MergePipelineRequestsEhPP18ChiPipelineRequest+0xbdc>
   22a64: 85 ff ff 90  	adrp	x5, 0x12000 <_ZNK19ChiFeature2RealTime21MergePipelineRequestsEhPP18ChiPipelineRequest+0xbdc>
   22a7c: 39 9a 00 94  	bl	0x49360 <_ZN6ChiLog9LogSystemEPKcS1_S1_S1_iS1_z@plt>
   22a80: d0 ff ff 17  	b	0x229c0 <_ZNK19ChiFeature2RealTime21MergePipelineRequestsEhPP18ChiPipelineRequest+0xb78>
   22a9c: 98 ff ff 17  	b	0x228fc <_ZNK19ChiFeature2RealTime21MergePipelineRequestsEhPP18ChiPipelineRequest+0xab4>
0000000000022aa0 <_ZNK19ChiFeature2RealTime26GetRequestExecutionTimeoutEP24ChiFeature2RequestObject>:
   22ac8: 49 01 00 d0  	adrp	x9, 0x4c000 <_ZNK19ChiFeature2RealTime26GetRequestExecutionTimeoutEP24ChiFeature2RequestObject+0xd0>
   22ae0: 01 05 00 54  	b.ne	0x22b80 <_ZNK19ChiFeature2RealTime26GetRequestExecutionTimeoutEP24ChiFeature2RequestObject+0xe0>
   22af0: 50 9a 00 94  	bl	0x49430 <_ZNK24ChiFeature2RequestObject20GetAppRequestSettingEPP11ChiMetadata@plt>
   22af8: 16 03 00 b4  	cbz	x22, 0x22b58 <_ZNK19ChiFeature2RealTime26GetRequestExecutionTimeoutEP24ChiFeature2RequestObject+0xb8>
   22b34: 28 01 00 b4  	cbz	x8, 0x22b58 <_ZNK19ChiFeature2RealTime26GetRequestExecutionTimeoutEP24ChiFeature2RequestObject+0xb8>
   22b64: e1 01 00 54  	b.ne	0x22ba0 <_ZNK19ChiFeature2RealTime26GetRequestExecutionTimeoutEP24ChiFeature2RequestObject+0x100>
   22b9c: d2 ff ff 17  	b	0x22ae4 <_ZNK19ChiFeature2RealTime26GetRequestExecutionTimeoutEP24ChiFeature2RequestObject+0x44>
0000000000022ba8 <_ZN19ChiFeature2RealTime7DestroyEv>:
   22bbc: 55 01 00 d0  	adrp	x21, 0x4c000 <_ZN19ChiFeature2RealTime7DestroyEv+0xbc>
   22bd0: a1 08 00 54  	b.ne	0x22ce4 <_ZN19ChiFeature2RealTime7DestroyEv+0x13c>
   22bd8: 00 06 00 b4  	cbz	x0, 0x22c98 <_ZN19ChiFeature2RealTime7DestroyEv+0xf0>
   22be0: c1 05 00 b4  	cbz	x1, 0x22c98 <_ZN19ChiFeature2RealTime7DestroyEv+0xf0>
   22be8: 16 9a 00 94  	bl	0x49440 <_ZN16CHIThreadManager4SyncEmi@plt>
   22bec: 60 05 00 34  	cbz	w0, 0x22c98 <_ZN19ChiFeature2RealTime7DestroyEv+0xf0>
   22bf0: 49 01 00 d0  	adrp	x9, 0x4c000 <_ZN19ChiFeature2RealTime7DestroyEv+0xf0>
   22bfc: e8 04 00 36  	tbz	w8, #0, 0x22c98 <_ZN19ChiFeature2RealTime7DestroyEv+0xf0>
   22c00: 4a 01 00 d0  	adrp	x10, 0x4c000 <_ZN19ChiFeature2RealTime7DestroyEv+0x100>
   22c04: 74 ff ff b0  	adrp	x20, 0xf000 <_ZN19ChiFeature2RealTime7DestroyEv+0x10>
   22c18: 01 02 00 54  	b.ne	0x22c58 <_ZN19ChiFeature2RealTime7DestroyEv+0xb0>
   22c30: 81 ff ff d0  	adrp	x1, 0x14000 <_ZN19ChiFeature2RealTime7DestroyEv+0x50>
   22c34: 82 ff ff 90  	adrp	x2, 0x12000 <_ZN19ChiFeature2RealTime7DestroyEv+0x4c>
   22c38: 65 ff ff f0  	adrp	x5, 0x11000 <_ZN19ChiFeature2RealTime7DestroyEv+0x4c>
   22c6c: 81 ff ff b0  	adrp	x1, 0x13000 <_ZN19ChiFeature2RealTime7DestroyEv+0x88>
   22c74: 40 ff ff f0  	adrp	x0, 0xd000 <_ZN19ChiFeature2RealTime7DestroyEv+0x78>
   22c78: 63 ff ff f0  	adrp	x3, 0x11000 <_ZN19ChiFeature2RealTime7DestroyEv+0x8c>
   22c7c: 65 ff ff f0  	adrp	x5, 0x11000 <_ZN19ChiFeature2RealTime7DestroyEv+0x90>
   22c94: b3 99 00 94  	bl	0x49360 <_ZN6ChiLog9LogSystemEPKcS1_S1_S1_iS1_z@plt>
   22c9c: 14 01 00 b4  	cbz	x20, 0x22cbc <_ZN19ChiFeature2RealTime7DestroyEv+0x114>
   22ca4: eb 99 00 94  	bl	0x49450 <_ZNSt3__118condition_variableD1Ev@plt>
   22cac: ed 99 00 94  	bl	0x49460 <_ZNSt3__15mutexD1Ev@plt>
   22cc8: e1 01 00 54  	b.ne	0x22d04 <_ZN19ChiFeature2RealTime7DestroyEv+0x15c>
   22cfc: 00 f7 ff b5  	cbnz	x0, 0x22bdc <_ZN19ChiFeature2RealTime7DestroyEv+0x34>
   22d00: e6 ff ff 17  	b	0x22c98 <_ZN19ChiFeature2RealTime7DestroyEv+0xf0>
   22d1c: ec ff ff 17  	b	0x22ccc <_ZN19ChiFeature2RealTime7DestroyEv+0x124>
0000000000022d20 <_ZN19ChiFeature2RealTime11OnDumpEventEimjP24ChiFeature2RequestObject>:
   22d50: 59 01 00 d0  	adrp	x25, 0x4c000 <_ZN19ChiFeature2RealTime11OnDumpEventEimjP24ChiFeature2RequestObject+0xd8>
   22d98: 01 18 00 54  	b.ne	0x23098 <_ZN19ChiFeature2RealTime11OnDumpEventEimjP24ChiFeature2RequestObject+0x378>
   22d9c: 77 16 00 b4  	cbz	x23, 0x23068 <_ZN19ChiFeature2RealTime11OnDumpEventEimjP24ChiFeature2RequestObject+0x348>
   22db4: 01 18 00 54  	b.ne	0x230b4 <_ZN19ChiFeature2RealTime11OnDumpEventEimjP24ChiFeature2RequestObject+0x394>
   22dc0: ac 99 00 94  	bl	0x49470 <_ZNK15ChiFeature2Base21GetFeaturePrivContextEP24ChiFeature2RequestObject@plt>
   22dd0: e1 17 00 54  	b.ne	0x230cc <_ZN19ChiFeature2RealTime11OnDumpEventEimjP24ChiFeature2RequestObject+0x3ac>
   22de0: 70 99 00 94  	bl	0x493a0 <_ZNK24ChiFeature2RequestObject19GetSequencePrivDataE24ChiFeature2SequenceOrderh@plt>
   22de4: 80 00 00 b4  	cbz	x0, 0x22df4 <_ZN19ChiFeature2RealTime11OnDumpEventEimjP24ChiFeature2RequestObject+0xd4>
   22dec: 98 00 00 b5  	cbnz	x24, 0x22dfc <_ZN19ChiFeature2RealTime11OnDumpEventEimjP24ChiFeature2RequestObject+0xdc>
   22df0: 9e 00 00 14  	b	0x23068 <_ZN19ChiFeature2RealTime11OnDumpEventEimjP24ChiFeature2RequestObject+0x348>
   22df8: 98 13 00 b4  	cbz	x24, 0x23068 <_ZN19ChiFeature2RealTime11OnDumpEventEimjP24ChiFeature2RequestObject+0x348>
   22e08: e1 16 00 54  	b.ne	0x230e4 <_ZN19ChiFeature2RealTime11OnDumpEventEimjP24ChiFeature2RequestObject+0x3c4>
   22e1c: 99 99 00 94  	bl	0x49480 <_ZN8CdkUtils8SNPrintFEPcmPKcz@plt>
   22e30: 40 08 00 54  	b.eq	0x22f38 <_ZN19ChiFeature2RealTime11OnDumpEventEimjP24ChiFeature2RequestObject+0x218>
   22e58: 61 15 00 54  	b.ne	0x23104 <_ZN19ChiFeature2RealTime11OnDumpEventEimjP24ChiFeature2RequestObject+0x3e4>
   22e68: c2 14 00 54  	b.hs	0x23100 <_ZN19ChiFeature2RealTime11OnDumpEventEimjP24ChiFeature2RequestObject+0x3e0>
   22e8c: 41 01 00 d0  	adrp	x1, 0x4c000 <_ZN19ChiFeature2RealTime11OnDumpEventEimjP24ChiFeature2RequestObject+0x214>
   22f3c: 22 0e 00 54  	b.hs	0x23100 <_ZN19ChiFeature2RealTime11OnDumpEventEimjP24ChiFeature2RequestObject+0x3e0>
   22f40: 5a ff ff f0  	adrp	x26, 0xd000 <_ZN19ChiFeature2RealTime11OnDumpEventEimjP24ChiFeature2RequestObject+0x1cc>
   22f44: 9b ff ff b0  	adrp	x27, 0x13000 <_ZN19ChiFeature2RealTime11OnDumpEventEimjP24ChiFeature2RequestObject+0x1e8>
   22f60: 58 99 00 94  	bl	0x494c0 <_ZN8ChxUtils7DPrintFEiPKcz@plt>
   22f64: 81 ff ff b0  	adrp	x1, 0x13000 <_ZN19ChiFeature2RealTime11OnDumpEventEimjP24ChiFeature2RequestObject+0x208>
   22f78: 52 99 00 94  	bl	0x494c0 <_ZN8ChxUtils7DPrintFEiPKcz@plt>
   22f8c: 4d 99 00 94  	bl	0x494c0 <_ZN8ChxUtils7DPrintFEiPKcz@plt>
   22f94: 62 0b 00 54  	b.hs	0x23100 <_ZN19ChiFeature2RealTime11OnDumpEventEimjP24ChiFeature2RequestObject+0x3e0>
   22f98: 96 ff ff b0  	adrp	x22, 0x13000 <_ZN19ChiFeature2RealTime11OnDumpEventEimjP24ChiFeature2RequestObject+0x23c>
   22f9c: 81 ff ff 90  	adrp	x1, 0x12000 <_ZN19ChiFeature2RealTime11OnDumpEventEimjP24ChiFeature2RequestObject+0x23c>
   22fb8: 42 99 00 94  	bl	0x494c0 <_ZN8ChxUtils7DPrintFEiPKcz@plt>
   22fbc: 81 ff ff d0  	adrp	x1, 0x14000 <_ZN19ChiFeature2RealTime11OnDumpEventEimjP24ChiFeature2RequestObject+0x264>
   22fd4: 3b 99 00 94  	bl	0x494c0 <_ZN8ChxUtils7DPrintFEiPKcz@plt>
   22fd8: 61 ff ff d0  	adrp	x1, 0x10000 <_ZN19ChiFeature2RealTime11OnDumpEventEimjP24ChiFeature2RequestObject+0x270>
   22ff0: 34 99 00 94  	bl	0x494c0 <_ZN8ChxUtils7DPrintFEiPKcz@plt>
   22ff4: 61 ff ff d0  	adrp	x1, 0x10000 <_ZN19ChiFeature2RealTime11OnDumpEventEimjP24ChiFeature2RequestObject+0x28c>
   2300c: 2d 99 00 94  	bl	0x494c0 <_ZN8ChxUtils7DPrintFEiPKcz@plt>
   23010: 61 ff ff b0  	adrp	x1, 0x10000 <_ZN19ChiFeature2RealTime11OnDumpEventEimjP24ChiFeature2RequestObject+0x2a4>
   23028: 26 99 00 94  	bl	0x494c0 <_ZN8ChxUtils7DPrintFEiPKcz@plt>
   23030: 41 ff ff b0  	adrp	x1, 0xc000 <_ZN19ChiFeature2RealTime11OnDumpEventEimjP24ChiFeature2RequestObject+0x2b4>
   23048: 1e 99 00 94  	bl	0x494c0 <_ZN8ChxUtils7DPrintFEiPKcz@plt>
   23050: 81 ff ff 90  	adrp	x1, 0x13000 <_ZN19ChiFeature2RealTime11OnDumpEventEimjP24ChiFeature2RequestObject+0x2f0>
   23064: 17 99 00 94  	bl	0x494c0 <_ZN8ChxUtils7DPrintFEiPKcz@plt>
   23074: 41 04 00 54  	b.ne	0x230fc <_ZN19ChiFeature2RealTime11OnDumpEventEimjP24ChiFeature2RequestObject+0x3dc>
   230ac: b7 e7 ff b5  	cbnz	x23, 0x22da0 <_ZN19ChiFeature2RealTime11OnDumpEventEimjP24ChiFeature2RequestObject+0x80>
   230b0: ee ff ff 17  	b	0x23068 <_ZN19ChiFeature2RealTime11OnDumpEventEimjP24ChiFeature2RequestObject+0x348>
   230c8: 3c ff ff 17  	b	0x22db8 <_ZN19ChiFeature2RealTime11OnDumpEventEimjP24ChiFeature2RequestObject+0x98>
   230e0: 3d ff ff 17  	b	0x22dd4 <_ZN19ChiFeature2RealTime11OnDumpEventEimjP24ChiFeature2RequestObject+0xb4>
   230f8: 45 ff ff 17  	b	0x22e0c <_ZN19ChiFeature2RealTime11OnDumpEventEimjP24ChiFeature2RequestObject+0xec>
0000000000023108 <_ZNK19ChiFeature2RealTime24OnInflightBufferCallbackEP24ChiFeature2RequestObjectP21ChiFeature2IdentifierPvm>:
   23134: 4d 28 00 34  	cbz	w13, 0x2363c <_ZNK19ChiFeature2RealTime24OnInflightBufferCallbackEP24ChiFeature2RequestObjectP21ChiFeature2IdentifierPvm+0x534>
   2316c: d9 98 00 94  	bl	0x494d0 <_ZN24ChiFeature2RequestObject25GetOutputGeneratedForPortE21ChiFeature2Identifierh@plt>
   23170: c0 00 00 34  	cbz	w0, 0x23188 <_ZNK19ChiFeature2RealTime24OnInflightBufferCallbackEP24ChiFeature2RequestObjectP21ChiFeature2IdentifierPvm+0x80>
   23180: 83 fe ff 54  	b.lo	0x23150 <_ZNK19ChiFeature2RealTime24OnInflightBufferCallbackEP24ChiFeature2RequestObjectP21ChiFeature2IdentifierPvm+0x48>
   23184: 2e 01 00 14  	b	0x2363c <_ZNK19ChiFeature2RealTime24OnInflightBufferCallbackEP24ChiFeature2RequestObjectP21ChiFeature2IdentifierPvm+0x534>
   23188: 49 01 00 b0  	adrp	x9, 0x4c000 <_ZNK19ChiFeature2RealTime24OnInflightBufferCallbackEP24ChiFeature2RequestObjectP21ChiFeature2IdentifierPvm+0x124>
   23194: 2e 05 18 36  	tbz	w14, #3, 0x23238 <_ZNK19ChiFeature2RealTime24OnInflightBufferCallbackEP24ChiFeature2RequestObjectP21ChiFeature2IdentifierPvm+0x130>
   23198: 4a 01 00 b0  	adrp	x10, 0x4c000 <_ZNK19ChiFeature2RealTime24OnInflightBufferCallbackEP24ChiFeature2RequestObjectP21ChiFeature2IdentifierPvm+0x134>
   2319c: 79 ff ff 90  	adrp	x25, 0xf000 <_ZNK19ChiFeature2RealTime24OnInflightBufferCallbackEP24ChiFeature2RequestObjectP21ChiFeature2IdentifierPvm+0x44>
   231b0: 21 02 00 54  	b.ne	0x231f4 <_ZNK19ChiFeature2RealTime24OnInflightBufferCallbackEP24ChiFeature2RequestObjectP21ChiFeature2IdentifierPvm+0xec>
   231c8: 81 ff ff b0  	adrp	x1, 0x14000 <_ZNK19ChiFeature2RealTime24OnInflightBufferCallbackEP24ChiFeature2RequestObjectP21ChiFeature2IdentifierPvm+0x84>
   231cc: 62 ff ff d0  	adrp	x2, 0x11000 <_ZNK19ChiFeature2RealTime24OnInflightBufferCallbackEP24ChiFeature2RequestObjectP21ChiFeature2IdentifierPvm+0x7c>
   231d0: 45 ff ff f0  	adrp	x5, 0xe000 <_ZNK19ChiFeature2RealTime24OnInflightBufferCallbackEP24ChiFeature2RequestObjectP21ChiFeature2IdentifierPvm+0x74>
   23208: 61 ff ff d0  	adrp	x1, 0x11000 <_ZNK19ChiFeature2RealTime24OnInflightBufferCallbackEP24ChiFeature2RequestObjectP21ChiFeature2IdentifierPvm+0xb8>
   23210: 80 ff ff b0  	adrp	x0, 0x14000 <_ZNK19ChiFeature2RealTime24OnInflightBufferCallbackEP24ChiFeature2RequestObjectP21ChiFeature2IdentifierPvm+0xcc>
   23214: 43 ff ff f0  	adrp	x3, 0xe000 <_ZNK19ChiFeature2RealTime24OnInflightBufferCallbackEP24ChiFeature2RequestObjectP21ChiFeature2IdentifierPvm+0xb8>
   23218: 85 ff ff 90  	adrp	x5, 0x13000 <_ZNK19ChiFeature2RealTime24OnInflightBufferCallbackEP24ChiFeature2RequestObjectP21ChiFeature2IdentifierPvm+0xd0>
   23234: 4b 98 00 94  	bl	0x49360 <_ZN6ChiLog9LogSystemEPKcS1_S1_S1_iS1_z@plt>
   2324c: 58 01 00 b0  	adrp	x24, 0x4c000 <_ZNK19ChiFeature2RealTime24OnInflightBufferCallbackEP24ChiFeature2RequestObjectP21ChiFeature2IdentifierPvm+0x1e8>
   23264: a1 0c 00 54  	b.ne	0x233f8 <_ZNK19ChiFeature2RealTime24OnInflightBufferCallbackEP24ChiFeature2RequestObjectP21ChiFeature2IdentifierPvm+0x2f0>
   2326c: 21 0e 00 54  	b.ne	0x23430 <_ZNK19ChiFeature2RealTime24OnInflightBufferCallbackEP24ChiFeature2RequestObjectP21ChiFeature2IdentifierPvm+0x328>
   23274: 2e 14 00 b4  	cbz	x14, 0x234f8 <_ZNK19ChiFeature2RealTime24OnInflightBufferCallbackEP24ChiFeature2RequestObjectP21ChiFeature2IdentifierPvm+0x3f0>
   23284: e1 0e 00 54  	b.ne	0x23460 <_ZNK19ChiFeature2RealTime24OnInflightBufferCallbackEP24ChiFeature2RequestObjectP21ChiFeature2IdentifierPvm+0x358>
   2328c: cc 00 30 37  	tbnz	w12, #6, 0x232a4 <_ZNK19ChiFeature2RealTime24OnInflightBufferCallbackEP24ChiFeature2RequestObjectP21ChiFeature2IdentifierPvm+0x19c>
   2329c: 61 11 00 54  	b.ne	0x234c8 <_ZNK19ChiFeature2RealTime24OnInflightBufferCallbackEP24ChiFeature2RequestObjectP21ChiFeature2IdentifierPvm+0x3c0>
   232a0: cc 12 28 36  	tbz	w12, #5, 0x234f8 <_ZNK19ChiFeature2RealTime24OnInflightBufferCallbackEP24ChiFeature2RequestObjectP21ChiFeature2IdentifierPvm+0x3f0>
   232b0: 21 0f 00 54  	b.ne	0x23494 <_ZNK19ChiFeature2RealTime24OnInflightBufferCallbackEP24ChiFeature2RequestObjectP21ChiFeature2IdentifierPvm+0x38c>
   232b8: 0f 12 00 37  	tbnz	w15, #0, 0x234f8 <_ZNK19ChiFeature2RealTime24OnInflightBufferCallbackEP24ChiFeature2RequestObjectP21ChiFeature2IdentifierPvm+0x3f0>
   232bc: 4c 01 00 f0  	adrp	x12, 0x4e000 <_ZNK19ChiFeature2RealTime24OnInflightBufferCallbackEP24ChiFeature2RequestObjectP21ChiFeature2IdentifierPvm+0x260>
   232cc: 21 02 00 54  	b.ne	0x23310 <_ZNK19ChiFeature2RealTime24OnInflightBufferCallbackEP24ChiFeature2RequestObjectP21ChiFeature2IdentifierPvm+0x208>
   232d8: c1 01 00 54  	b.ne	0x23310 <_ZNK19ChiFeature2RealTime24OnInflightBufferCallbackEP24ChiFeature2RequestObjectP21ChiFeature2IdentifierPvm+0x208>
   232e4: 61 01 00 54  	b.ne	0x23310 <_ZNK19ChiFeature2RealTime24OnInflightBufferCallbackEP24ChiFeature2RequestObjectP21ChiFeature2IdentifierPvm+0x208>
   232f0: 01 01 00 54  	b.ne	0x23310 <_ZNK19ChiFeature2RealTime24OnInflightBufferCallbackEP24ChiFeature2RequestObjectP21ChiFeature2IdentifierPvm+0x208>
   232fc: a1 00 00 54  	b.ne	0x23310 <_ZNK19ChiFeature2RealTime24OnInflightBufferCallbackEP24ChiFeature2RequestObjectP21ChiFeature2IdentifierPvm+0x208>
   23318: 21 02 00 54  	b.ne	0x2335c <_ZNK19ChiFeature2RealTime24OnInflightBufferCallbackEP24ChiFeature2RequestObjectP21ChiFeature2IdentifierPvm+0x254>
   23324: c1 01 00 54  	b.ne	0x2335c <_ZNK19ChiFeature2RealTime24OnInflightBufferCallbackEP24ChiFeature2RequestObjectP21ChiFeature2IdentifierPvm+0x254>
   23330: 61 01 00 54  	b.ne	0x2335c <_ZNK19ChiFeature2RealTime24OnInflightBufferCallbackEP24ChiFeature2RequestObjectP21ChiFeature2IdentifierPvm+0x254>
   2333c: 01 01 00 54  	b.ne	0x2335c <_ZNK19ChiFeature2RealTime24OnInflightBufferCallbackEP24ChiFeature2RequestObjectP21ChiFeature2IdentifierPvm+0x254>
   23348: a1 00 00 54  	b.ne	0x2335c <_ZNK19ChiFeature2RealTime24OnInflightBufferCallbackEP24ChiFeature2RequestObjectP21ChiFeature2IdentifierPvm+0x254>
   23364: 21 02 00 54  	b.ne	0x233a8 <_ZNK19ChiFeature2RealTime24OnInflightBufferCallbackEP24ChiFeature2RequestObjectP21ChiFeature2IdentifierPvm+0x2a0>
   23370: c1 01 00 54  	b.ne	0x233a8 <_ZNK19ChiFeature2RealTime24OnInflightBufferCallbackEP24ChiFeature2RequestObjectP21ChiFeature2IdentifierPvm+0x2a0>
   2337c: 61 01 00 54  	b.ne	0x233a8 <_ZNK19ChiFeature2RealTime24OnInflightBufferCallbackEP24ChiFeature2RequestObjectP21ChiFeature2IdentifierPvm+0x2a0>
   23388: 01 01 00 54  	b.ne	0x233a8 <_ZNK19ChiFeature2RealTime24OnInflightBufferCallbackEP24ChiFeature2RequestObjectP21ChiFeature2IdentifierPvm+0x2a0>
   23394: a1 00 00 54  	b.ne	0x233a8 <_ZNK19ChiFeature2RealTime24OnInflightBufferCallbackEP24ChiFeature2RequestObjectP21ChiFeature2IdentifierPvm+0x2a0>
   233b0: a1 11 00 54  	b.ne	0x235e4 <_ZNK19ChiFeature2RealTime24OnInflightBufferCallbackEP24ChiFeature2RequestObjectP21ChiFeature2IdentifierPvm+0x4dc>
   233bc: 41 11 00 54  	b.ne	0x235e4 <_ZNK19ChiFeature2RealTime24OnInflightBufferCallbackEP24ChiFeature2RequestObjectP21ChiFeature2IdentifierPvm+0x4dc>
   233c8: e1 10 00 54  	b.ne	0x235e4 <_ZNK19ChiFeature2RealTime24OnInflightBufferCallbackEP24ChiFeature2RequestObjectP21ChiFeature2IdentifierPvm+0x4dc>
   233d4: 81 10 00 54  	b.ne	0x235e4 <_ZNK19ChiFeature2RealTime24OnInflightBufferCallbackEP24ChiFeature2RequestObjectP21ChiFeature2IdentifierPvm+0x4dc>
   233e0: 21 10 00 54  	b.ne	0x235e4 <_ZNK19ChiFeature2RealTime24OnInflightBufferCallbackEP24ChiFeature2RequestObjectP21ChiFeature2IdentifierPvm+0x4dc>
   233f4: 7c 00 00 14  	b	0x235e4 <_ZNK19ChiFeature2RealTime24OnInflightBufferCallbackEP24ChiFeature2RequestObjectP21ChiFeature2IdentifierPvm+0x4dc>
   2342c: 20 f2 ff 54  	b.eq	0x23270 <_ZNK19ChiFeature2RealTime24OnInflightBufferCallbackEP24ChiFeature2RequestObjectP21ChiFeature2IdentifierPvm+0x168>
   23458: 0e f1 ff b5  	cbnz	x14, 0x23278 <_ZNK19ChiFeature2RealTime24OnInflightBufferCallbackEP24ChiFeature2RequestObjectP21ChiFeature2IdentifierPvm+0x170>
   2345c: 27 00 00 14  	b	0x234f8 <_ZNK19ChiFeature2RealTime24OnInflightBufferCallbackEP24ChiFeature2RequestObjectP21ChiFeature2IdentifierPvm+0x3f0>
   2348c: 2c f0 37 36  	tbz	w12, #6, 0x23290 <_ZNK19ChiFeature2RealTime24OnInflightBufferCallbackEP24ChiFeature2RequestObjectP21ChiFeature2IdentifierPvm+0x188>
   23490: 85 ff ff 17  	b	0x232a4 <_ZNK19ChiFeature2RealTime24OnInflightBufferCallbackEP24ChiFeature2RequestObjectP21ChiFeature2IdentifierPvm+0x19c>
   234c0: ef ef 07 36  	tbz	w15, #0, 0x232bc <_ZNK19ChiFeature2RealTime24OnInflightBufferCallbackEP24ChiFeature2RequestObjectP21ChiFeature2IdentifierPvm+0x1b4>
   234c4: 0d 00 00 14  	b	0x234f8 <_ZNK19ChiFeature2RealTime24OnInflightBufferCallbackEP24ChiFeature2RequestObjectP21ChiFeature2IdentifierPvm+0x3f0>
   234f4: 8c ed 2f 37  	tbnz	w12, #5, 0x232a4 <_ZNK19ChiFeature2RealTime24OnInflightBufferCallbackEP24ChiFeature2RequestObjectP21ChiFeature2IdentifierPvm+0x19c>
   234f8: 4d 01 00 f0  	adrp	x13, 0x4e000 <_ZNK19ChiFeature2RealTime24OnInflightBufferCallbackEP24ChiFeature2RequestObjectP21ChiFeature2IdentifierPvm+0x49c>
   23508: 21 02 00 54  	b.ne	0x2354c <_ZNK19ChiFeature2RealTime24OnInflightBufferCallbackEP24ChiFeature2RequestObjectP21ChiFeature2IdentifierPvm+0x444>
   23514: c1 01 00 54  	b.ne	0x2354c <_ZNK19ChiFeature2RealTime24OnInflightBufferCallbackEP24ChiFeature2RequestObjectP21ChiFeature2IdentifierPvm+0x444>
   23520: 61 01 00 54  	b.ne	0x2354c <_ZNK19ChiFeature2RealTime24OnInflightBufferCallbackEP24ChiFeature2RequestObjectP21ChiFeature2IdentifierPvm+0x444>
   2352c: 01 01 00 54  	b.ne	0x2354c <_ZNK19ChiFeature2RealTime24OnInflightBufferCallbackEP24ChiFeature2RequestObjectP21ChiFeature2IdentifierPvm+0x444>
   23538: a1 00 00 54  	b.ne	0x2354c <_ZNK19ChiFeature2RealTime24OnInflightBufferCallbackEP24ChiFeature2RequestObjectP21ChiFeature2IdentifierPvm+0x444>
   23554: 21 02 00 54  	b.ne	0x23598 <_ZNK19ChiFeature2RealTime24OnInflightBufferCallbackEP24ChiFeature2RequestObjectP21ChiFeature2IdentifierPvm+0x490>
   23560: c1 01 00 54  	b.ne	0x23598 <_ZNK19ChiFeature2RealTime24OnInflightBufferCallbackEP24ChiFeature2RequestObjectP21ChiFeature2IdentifierPvm+0x490>
   2356c: 61 01 00 54  	b.ne	0x23598 <_ZNK19ChiFeature2RealTime24OnInflightBufferCallbackEP24ChiFeature2RequestObjectP21ChiFeature2IdentifierPvm+0x490>
   23578: 01 01 00 54  	b.ne	0x23598 <_ZNK19ChiFeature2RealTime24OnInflightBufferCallbackEP24ChiFeature2RequestObjectP21ChiFeature2IdentifierPvm+0x490>
   23584: a1 00 00 54  	b.ne	0x23598 <_ZNK19ChiFeature2RealTime24OnInflightBufferCallbackEP24ChiFeature2RequestObjectP21ChiFeature2IdentifierPvm+0x490>
   235a0: 21 02 00 54  	b.ne	0x235e4 <_ZNK19ChiFeature2RealTime24OnInflightBufferCallbackEP24ChiFeature2RequestObjectP21ChiFeature2IdentifierPvm+0x4dc>
   235ac: c1 01 00 54  	b.ne	0x235e4 <_ZNK19ChiFeature2RealTime24OnInflightBufferCallbackEP24ChiFeature2RequestObjectP21ChiFeature2IdentifierPvm+0x4dc>
   235b8: 61 01 00 54  	b.ne	0x235e4 <_ZNK19ChiFeature2RealTime24OnInflightBufferCallbackEP24ChiFeature2RequestObjectP21ChiFeature2IdentifierPvm+0x4dc>
   235c4: 01 01 00 54  	b.ne	0x235e4 <_ZNK19ChiFeature2RealTime24OnInflightBufferCallbackEP24ChiFeature2RequestObjectP21ChiFeature2IdentifierPvm+0x4dc>
   235d0: a1 00 00 54  	b.ne	0x235e4 <_ZNK19ChiFeature2RealTime24OnInflightBufferCallbackEP24ChiFeature2RequestObjectP21ChiFeature2IdentifierPvm+0x4dc>
   2360c: b5 97 00 94  	bl	0x494e0 <_ZN24ChiFeature2RequestObject13SetBufferInfoE31ChiFeature2RequestObjectOpsTypePK21ChiFeature2IdentifierPvmihh@plt>
   23624: 41 02 00 54  	b.ne	0x2366c <_ZNK19ChiFeature2RealTime24OnInflightBufferCallbackEP24ChiFeature2RequestObjectP21ChiFeature2IdentifierPvm+0x564>
   23638: ae 97 00 94  	bl	0x494f0 <_ZNK19ChiFeature2RealTime17ProcessZSLRequestEP24ChiFeature2RequestObjectP21ChiFeature2PortIdListh@plt>
   23648: e1 01 00 54  	b.ne	0x23684 <_ZNK19ChiFeature2RealTime24OnInflightBufferCallbackEP24ChiFeature2RequestObjectP21ChiFeature2IdentifierPvm+0x57c>
   23680: ea ff ff 17  	b	0x23628 <_ZNK19ChiFeature2RealTime24OnInflightBufferCallbackEP24ChiFeature2RequestObjectP21ChiFeature2IdentifierPvm+0x520>
0000000000023688 <_ZNK19ChiFeature2RealTime16OnPrepareRequestEP24ChiFeature2RequestObject>:
   236ac: 56 01 00 b0  	adrp	x22, 0x4c000 <_ZNK19ChiFeature2RealTime16OnPrepareRequestEP24ChiFeature2RequestObject+0xc8>
   236c8: a1 16 00 54  	b.ne	0x2399c <_ZNK19ChiFeature2RealTime16OnPrepareRequestEP24ChiFeature2RequestObject+0x314>
   236cc: 93 26 00 b4  	cbz	x19, 0x23b9c <_ZNK19ChiFeature2RealTime16OnPrepareRequestEP24ChiFeature2RequestObject+0x514>
   236d4: 57 26 00 b4  	cbz	x23, 0x23b9c <_ZNK19ChiFeature2RealTime16OnPrepareRequestEP24ChiFeature2RequestObject+0x514>
   236e4: 40 00 00 b4  	cbz	x0, 0x236ec <_ZNK19ChiFeature2RealTime16OnPrepareRequestEP24ChiFeature2RequestObject+0x64>
   236f8: 01 16 00 54  	b.ne	0x239b8 <_ZNK19ChiFeature2RealTime16OnPrepareRequestEP24ChiFeature2RequestObject+0x330>
   23704: 7f 97 00 94  	bl	0x49500 <_ZNK15ChiFeature2Base21SetFeaturePrivContextEP24ChiFeature2RequestObjectPv@plt>
   23710: 41 16 00 54  	b.ne	0x239d8 <_ZNK19ChiFeature2RealTime16OnPrepareRequestEP24ChiFeature2RequestObject+0x350>
   2371c: c1 16 00 54  	b.ne	0x239f4 <_ZNK19ChiFeature2RealTime16OnPrepareRequestEP24ChiFeature2RequestObject+0x36c>
   23724: 88 01 00 b4  	cbz	x8, 0x23754 <_ZNK19ChiFeature2RealTime16OnPrepareRequestEP24ChiFeature2RequestObject+0xcc>
   23734: 01 17 00 54  	b.ne	0x23a14 <_ZNK19ChiFeature2RealTime16OnPrepareRequestEP24ChiFeature2RequestObject+0x38c>
   2373c: e9 18 30 37  	tbnz	w9, #6, 0x23a58 <_ZNK19ChiFeature2RealTime16OnPrepareRequestEP24ChiFeature2RequestObject+0x3d0>
   2374c: 61 17 00 54  	b.ne	0x23a38 <_ZNK19ChiFeature2RealTime16OnPrepareRequestEP24ChiFeature2RequestObject+0x3b0>
   23750: 49 18 28 37  	tbnz	w9, #5, 0x23a58 <_ZNK19ChiFeature2RealTime16OnPrepareRequestEP24ChiFeature2RequestObject+0x3d0>
   23760: c1 24 00 54  	b.ne	0x23bf8 <_ZNK19ChiFeature2RealTime16OnPrepareRequestEP24ChiFeature2RequestObject+0x570>
   23764: 4a 01 00 f0  	adrp	x10, 0x4e000 <_ZNK19ChiFeature2RealTime16OnPrepareRequestEP24ChiFeature2RequestObject+0x188>
   23780: 64 97 00 94  	bl	0x49510 <_ZNK15ChiFeature2Base26IsPortEnabledInFinalOutputEPK24ChiFeature2RequestObject21ChiFeature2Identifierh@plt>
   23788: a1 20 00 54  	b.ne	0x23b9c <_ZNK19ChiFeature2RealTime16OnPrepareRequestEP24ChiFeature2RequestObject+0x514>
   23790: 71 20 00 37  	tbnz	w17, #0, 0x23b9c <_ZNK19ChiFeature2RealTime16OnPrepareRequestEP24ChiFeature2RequestObject+0x514>
   23794: 41 01 00 f0  	adrp	x1, 0x4e000 <_ZNK19ChiFeature2RealTime16OnPrepareRequestEP24ChiFeature2RequestObject+0x1b8>
   237a8: 10 28 00 94  	bl	0x2d7e8 <_ZNK19ChiFeature2RealTime13OnGetZSLPortsEPK24ChiFeature2RequestObject+0x310>
   237ac: 41 01 00 f0  	adrp	x1, 0x4e000 <_ZNK19ChiFeature2RealTime16OnPrepareRequestEP24ChiFeature2RequestObject+0x1d0>
   237b8: 0c 28 00 94  	bl	0x2d7e8 <_ZNK19ChiFeature2RealTime13OnGetZSLPortsEPK24ChiFeature2RequestObject+0x310>
   237c8: 01 23 00 54  	b.ne	0x23c28 <_ZNK19ChiFeature2RealTime16OnPrepareRequestEP24ChiFeature2RequestObject+0x5a0>
   237d0: c1 23 00 54  	b.ne	0x23c48 <_ZNK19ChiFeature2RealTime16OnPrepareRequestEP24ChiFeature2RequestObject+0x5c0>
   237dc: 41 24 00 54  	b.ne	0x23c64 <_ZNK19ChiFeature2RealTime16OnPrepareRequestEP24ChiFeature2RequestObject+0x5dc>
   237e0: 4b 01 00 f0  	adrp	x11, 0x4e000 <_ZNK19ChiFeature2RealTime16OnPrepareRequestEP24ChiFeature2RequestObject+0x204>
   237f4: 22 06 00 54  	b.hs	0x238b8 <_ZNK19ChiFeature2RealTime16OnPrepareRequestEP24ChiFeature2RequestObject+0x230>
   237fc: eb 05 00 b4  	cbz	x11, 0x238b8 <_ZNK19ChiFeature2RealTime16OnPrepareRequestEP24ChiFeature2RequestObject+0x230>
   23800: 4a 01 00 f0  	adrp	x10, 0x4e000 <_ZNK19ChiFeature2RealTime16OnPrepareRequestEP24ChiFeature2RequestObject+0x224>
   23818: 02 05 00 54  	b.hs	0x238b8 <_ZNK19ChiFeature2RealTime16OnPrepareRequestEP24ChiFeature2RequestObject+0x230>
   23820: c9 04 00 b4  	cbz	x9, 0x238b8 <_ZNK19ChiFeature2RealTime16OnPrepareRequestEP24ChiFeature2RequestObject+0x230>
   23830: a8 01 00 54  	b.hi	0x23864 <_ZNK19ChiFeature2RealTime16OnPrepareRequestEP24ChiFeature2RequestObject+0x1dc>
   2385c: a8 01 00 54  	b.hi	0x23890 <_ZNK19ChiFeature2RealTime16OnPrepareRequestEP24ChiFeature2RequestObject+0x208>
   23860: 16 00 00 14  	b	0x238b8 <_ZNK19ChiFeature2RealTime16OnPrepareRequestEP24ChiFeature2RequestObject+0x230>
   2388c: 69 01 00 54  	b.ls	0x238b8 <_ZNK19ChiFeature2RealTime16OnPrepareRequestEP24ChiFeature2RequestObject+0x230>
   23894: 2a 01 00 b4  	cbz	x10, 0x238b8 <_ZNK19ChiFeature2RealTime16OnPrepareRequestEP24ChiFeature2RequestObject+0x230>
   238a4: a0 00 00 35  	cbnz	w0, 0x238b8 <_ZNK19ChiFeature2RealTime16OnPrepareRequestEP24ChiFeature2RequestObject+0x230>
   238a8: 41 01 00 f0  	adrp	x1, 0x4e000 <_ZNK19ChiFeature2RealTime16OnPrepareRequestEP24ChiFeature2RequestObject+0x2cc>
   238b4: cd 27 00 94  	bl	0x2d7e8 <_ZNK19ChiFeature2RealTime13OnGetZSLPortsEPK24ChiFeature2RequestObject+0x310>
   238e8: a1 1c 00 54  	b.ne	0x23c7c <_ZNK19ChiFeature2RealTime16OnPrepareRequestEP24ChiFeature2RequestObject+0x5f4>
   238f4: 21 1d 00 54  	b.ne	0x23c98 <_ZNK19ChiFeature2RealTime16OnPrepareRequestEP24ChiFeature2RequestObject+0x610>
   238f8: f8 01 00 b4  	cbz	x24, 0x23934 <_ZNK19ChiFeature2RealTime16OnPrepareRequestEP24ChiFeature2RequestObject+0x2ac>
   23900: a6 01 28 36  	tbz	w6, #5, 0x23934 <_ZNK19ChiFeature2RealTime16OnPrepareRequestEP24ChiFeature2RequestObject+0x2ac>
   23908: 6f 01 00 b4  	cbz	x15, 0x23934 <_ZNK19ChiFeature2RealTime16OnPrepareRequestEP24ChiFeature2RequestObject+0x2ac>
   23914: 01 01 00 54  	b.ne	0x23934 <_ZNK19ChiFeature2RealTime16OnPrepareRequestEP24ChiFeature2RequestObject+0x2ac>
   23924: c1 1f 00 54  	b.ne	0x23d1c <_ZNK19ChiFeature2RealTime16OnPrepareRequestEP24ChiFeature2RequestObject+0x694>
   23930: fc 96 00 94  	bl	0x49520 <_ZNK15ChiFeature2Base13ResetZSLQueueEP24ChiFeature2RequestObject@plt>
   23940: a1 1b 00 54  	b.ne	0x23cb4 <_ZNK19ChiFeature2RealTime16OnPrepareRequestEP24ChiFeature2RequestObject+0x62c>
   23944: 43 01 00 f0  	adrp	x3, 0x4e000 <_ZNK19ChiFeature2RealTime16OnPrepareRequestEP24ChiFeature2RequestObject+0x368>
   23948: 44 01 00 f0  	adrp	x4, 0x4e000 <_ZNK19ChiFeature2RealTime16OnPrepareRequestEP24ChiFeature2RequestObject+0x36c>
   23960: f4 96 00 94  	bl	0x49530 <_ZNK15ChiFeature2Base15PrepareZSLQueueEP24ChiFeature2RequestObjectPK21ChiFeature2PortIdListPK21ChiFeature2IdentifierS7_@plt>
   23968: a0 11 00 b4  	cbz	x0, 0x23b9c <_ZNK19ChiFeature2RealTime16OnPrepareRequestEP24ChiFeature2RequestObject+0x514>
   23990: 04 1e 00 b5  	cbnz	x4, 0x23d50 <_ZNK19ChiFeature2RealTime16OnPrepareRequestEP24ChiFeature2RequestObject+0x6c8>
   23998: 81 00 00 14  	b	0x23b9c <_ZNK19ChiFeature2RealTime16OnPrepareRequestEP24ChiFeature2RequestObject+0x514>
   239b0: 13 e9 ff b5  	cbnz	x19, 0x236d0 <_ZNK19ChiFeature2RealTime16OnPrepareRequestEP24ChiFeature2RequestObject+0x48>
   239b4: 7a 00 00 14  	b	0x23b9c <_ZNK19ChiFeature2RealTime16OnPrepareRequestEP24ChiFeature2RequestObject+0x514>
   239d4: 4a ff ff 17  	b	0x236fc <_ZNK19ChiFeature2RealTime16OnPrepareRequestEP24ChiFeature2RequestObject+0x74>
   239f0: 49 ff ff 17  	b	0x23714 <_ZNK19ChiFeature2RealTime16OnPrepareRequestEP24ChiFeature2RequestObject+0x8c>
   23a0c: e8 e8 ff b5  	cbnz	x8, 0x23728 <_ZNK19ChiFeature2RealTime16OnPrepareRequestEP24ChiFeature2RequestObject+0xa0>
   23a10: 51 ff ff 17  	b	0x23754 <_ZNK19ChiFeature2RealTime16OnPrepareRequestEP24ChiFeature2RequestObject+0xcc>
   23a30: 89 e8 37 36  	tbz	w9, #6, 0x23740 <_ZNK19ChiFeature2RealTime16OnPrepareRequestEP24ChiFeature2RequestObject+0xb8>
   23a34: 09 00 00 14  	b	0x23a58 <_ZNK19ChiFeature2RealTime16OnPrepareRequestEP24ChiFeature2RequestObject+0x3d0>
   23a54: 09 e8 2f 36  	tbz	w9, #5, 0x23754 <_ZNK19ChiFeature2RealTime16OnPrepareRequestEP24ChiFeature2RequestObject+0xcc>
   23a64: 21 0b 00 54  	b.ne	0x23bc8 <_ZNK19ChiFeature2RealTime16OnPrepareRequestEP24ChiFeature2RequestObject+0x540>
   23a6c: 08 0c 00 37  	tbnz	w8, #0, 0x23bec <_ZNK19ChiFeature2RealTime16OnPrepareRequestEP24ChiFeature2RequestObject+0x564>
   23a78: c1 0c 00 54  	b.ne	0x23c10 <_ZNK19ChiFeature2RealTime16OnPrepareRequestEP24ChiFeature2RequestObject+0x588>
   23a7c: 58 01 00 f0  	adrp	x24, 0x4e000 <_ZNK19ChiFeature2RealTime16OnPrepareRequestEP24ChiFeature2RequestObject+0x4a0>
   23a98: 9e 96 00 94  	bl	0x49510 <_ZNK15ChiFeature2Base26IsPortEnabledInFinalOutputEPK24ChiFeature2RequestObject21ChiFeature2Identifierh@plt>
   23aa0: e1 07 00 54  	b.ne	0x23b9c <_ZNK19ChiFeature2RealTime16OnPrepareRequestEP24ChiFeature2RequestObject+0x514>
   23aa8: aa 07 00 37  	tbnz	w10, #0, 0x23b9c <_ZNK19ChiFeature2RealTime16OnPrepareRequestEP24ChiFeature2RequestObject+0x514>
   23aac: 41 01 00 f0  	adrp	x1, 0x4e000 <_ZNK19ChiFeature2RealTime16OnPrepareRequestEP24ChiFeature2RequestObject+0x4d0>
   23ab0: 47 01 00 f0  	adrp	x7, 0x4e000 <_ZNK19ChiFeature2RealTime16OnPrepareRequestEP24ChiFeature2RequestObject+0x4d4>
   23ac0: 42 01 00 f0  	adrp	x2, 0x4e000 <_ZNK19ChiFeature2RealTime16OnPrepareRequestEP24ChiFeature2RequestObject+0x4e4>
   23b20: 61 0d 00 54  	b.ne	0x23ccc <_ZNK19ChiFeature2RealTime16OnPrepareRequestEP24ChiFeature2RequestObject+0x644>
   23b2c: e1 0d 00 54  	b.ne	0x23ce8 <_ZNK19ChiFeature2RealTime16OnPrepareRequestEP24ChiFeature2RequestObject+0x660>
   23b30: f7 01 00 b4  	cbz	x23, 0x23b6c <_ZNK19ChiFeature2RealTime16OnPrepareRequestEP24ChiFeature2RequestObject+0x4e4>
   23b38: b0 01 28 36  	tbz	w16, #5, 0x23b6c <_ZNK19ChiFeature2RealTime16OnPrepareRequestEP24ChiFeature2RequestObject+0x4e4>
   23b40: 6e 01 00 b4  	cbz	x14, 0x23b6c <_ZNK19ChiFeature2RealTime16OnPrepareRequestEP24ChiFeature2RequestObject+0x4e4>
   23b4c: 01 01 00 54  	b.ne	0x23b6c <_ZNK19ChiFeature2RealTime16OnPrepareRequestEP24ChiFeature2RequestObject+0x4e4>
   23b5c: c1 0e 00 54  	b.ne	0x23d34 <_ZNK19ChiFeature2RealTime16OnPrepareRequestEP24ChiFeature2RequestObject+0x6ac>
   23b68: 6e 96 00 94  	bl	0x49520 <_ZNK15ChiFeature2Base13ResetZSLQueueEP24ChiFeature2RequestObject@plt>
   23b78: 61 0c 00 54  	b.ne	0x23d04 <_ZNK19ChiFeature2RealTime16OnPrepareRequestEP24ChiFeature2RequestObject+0x67c>
   23b7c: 43 01 00 f0  	adrp	x3, 0x4e000 <_ZNK19ChiFeature2RealTime16OnPrepareRequestEP24ChiFeature2RequestObject+0x5a0>
   23b80: 44 01 00 f0  	adrp	x4, 0x4e000 <_ZNK19ChiFeature2RealTime16OnPrepareRequestEP24ChiFeature2RequestObject+0x5a4>
   23b98: 66 96 00 94  	bl	0x49530 <_ZNK15ChiFeature2Base15PrepareZSLQueueEP24ChiFeature2RequestObjectPK21ChiFeature2PortIdListPK21ChiFeature2IdentifierS7_@plt>
   23ba8: 21 0d 00 54  	b.ne	0x23d4c <_ZNK19ChiFeature2RealTime16OnPrepareRequestEP24ChiFeature2RequestObject+0x6c4>
   23be8: 48 f4 07 36  	tbz	w8, #0, 0x23a70 <_ZNK19ChiFeature2RealTime16OnPrepareRequestEP24ChiFeature2RequestObject+0x3e8>
   23bf4: 80 db ff 54  	b.eq	0x23764 <_ZNK19ChiFeature2RealTime16OnPrepareRequestEP24ChiFeature2RequestObject+0xdc>
   23c0c: d6 fe ff 17  	b	0x23764 <_ZNK19ChiFeature2RealTime16OnPrepareRequestEP24ChiFeature2RequestObject+0xdc>
   23c24: 96 ff ff 17  	b	0x23a7c <_ZNK19ChiFeature2RealTime16OnPrepareRequestEP24ChiFeature2RequestObject+0x3f4>
   23c44: 80 dc ff 54  	b.eq	0x237d4 <_ZNK19ChiFeature2RealTime16OnPrepareRequestEP24ChiFeature2RequestObject+0x14c>
   23c60: dd fe ff 17  	b	0x237d4 <_ZNK19ChiFeature2RealTime16OnPrepareRequestEP24ChiFeature2RequestObject+0x14c>
   23c78: da fe ff 17  	b	0x237e0 <_ZNK19ChiFeature2RealTime16OnPrepareRequestEP24ChiFeature2RequestObject+0x158>
   23c94: 16 ff ff 17  	b	0x238ec <_ZNK19ChiFeature2RealTime16OnPrepareRequestEP24ChiFeature2RequestObject+0x264>
   23cac: 98 e2 ff b5  	cbnz	x24, 0x238fc <_ZNK19ChiFeature2RealTime16OnPrepareRequestEP24ChiFeature2RequestObject+0x274>
   23cb0: 21 ff ff 17  	b	0x23934 <_ZNK19ChiFeature2RealTime16OnPrepareRequestEP24ChiFeature2RequestObject+0x2ac>
   23cc8: 1f ff ff 17  	b	0x23944 <_ZNK19ChiFeature2RealTime16OnPrepareRequestEP24ChiFeature2RequestObject+0x2bc>
   23ce4: 90 ff ff 17  	b	0x23b24 <_ZNK19ChiFeature2RealTime16OnPrepareRequestEP24ChiFeature2RequestObject+0x49c>
   23cfc: d7 f1 ff b5  	cbnz	x23, 0x23b34 <_ZNK19ChiFeature2RealTime16OnPrepareRequestEP24ChiFeature2RequestObject+0x4ac>
   23d00: 9b ff ff 17  	b	0x23b6c <_ZNK19ChiFeature2RealTime16OnPrepareRequestEP24ChiFeature2RequestObject+0x4e4>
   23d18: 99 ff ff 17  	b	0x23b7c <_ZNK19ChiFeature2RealTime16OnPrepareRequestEP24ChiFeature2RequestObject+0x4f4>
   23d30: fe fe ff 17  	b	0x23928 <_ZNK19ChiFeature2RealTime16OnPrepareRequestEP24ChiFeature2RequestObject+0x2a0>
   23d48: 86 ff ff 17  	b	0x23b60 <_ZNK19ChiFeature2RealTime16OnPrepareRequestEP24ChiFeature2RequestObject+0x4d8>
0000000000023d58 <_ZNK19ChiFeature2RealTime23OnExecuteProcessRequestEP24ChiFeature2RequestObject>:
   23d84: 5c 01 00 b0  	adrp	x28, 0x4c000 <_ZNK19ChiFeature2RealTime23OnExecuteProcessRequestEP24ChiFeature2RequestObject+0xd0>
   23db4: 01 06 00 54  	b.ne	0x23e74 <_ZNK19ChiFeature2RealTime23OnExecuteProcessRequestEP24ChiFeature2RequestObject+0x11c>
   23dbc: c1 06 00 54  	b.ne	0x23e94 <_ZNK19ChiFeature2RealTime23OnExecuteProcessRequestEP24ChiFeature2RequestObject+0x13c>
   23dc0: 59 01 00 f0  	adrp	x25, 0x4e000 <_ZNK19ChiFeature2RealTime23OnExecuteProcessRequestEP24ChiFeature2RequestObject+0x114>
   23ddc: cd 95 00 94  	bl	0x49510 <_ZNK15ChiFeature2Base26IsPortEnabledInFinalOutputEPK24ChiFeature2RequestObject21ChiFeature2Identifierh@plt>
   23de4: ba 00 00 b4  	cbz	x26, 0x23df8 <_ZNK19ChiFeature2RealTime23OnExecuteProcessRequestEP24ChiFeature2RequestObject+0xa0>
   23dec: 61 00 00 54  	b.ne	0x23df8 <_ZNK19ChiFeature2RealTime23OnExecuteProcessRequestEP24ChiFeature2RequestObject+0xa0>
   23e00: 8c 95 00 94  	bl	0x49430 <_ZNK24ChiFeature2RequestObject20GetAppRequestSettingEPP11ChiMetadata@plt>
   23e10: e1 04 00 54  	b.ne	0x23eac <_ZNK19ChiFeature2RealTime23OnExecuteProcessRequestEP24ChiFeature2RequestObject+0x154>
   23e18: a1 05 00 54  	b.ne	0x23ecc <_ZNK19ChiFeature2RealTime23OnExecuteProcessRequestEP24ChiFeature2RequestObject+0x174>
   23e20: 58 06 00 34  	cbz	w24, 0x23ee8 <_ZNK19ChiFeature2RealTime23OnExecuteProcessRequestEP24ChiFeature2RequestObject+0x190>
   23e48: 22 95 00 94  	bl	0x492d0 <_ZNK24ChiFeature2RequestObject23GetUsecaseRequestObjectEv@plt>
   23e70: 32 00 00 14  	b	0x23f38 <_ZNK19ChiFeature2RealTime23OnExecuteProcessRequestEP24ChiFeature2RequestObject+0x1e0>
   23e90: 80 f9 ff 54  	b.eq	0x23dc0 <_ZNK19ChiFeature2RealTime23OnExecuteProcessRequestEP24ChiFeature2RequestObject+0x68>
   23ea8: c6 ff ff 17  	b	0x23dc0 <_ZNK19ChiFeature2RealTime23OnExecuteProcessRequestEP24ChiFeature2RequestObject+0x68>
   23ec8: a0 fa ff 54  	b.eq	0x23e1c <_ZNK19ChiFeature2RealTime23OnExecuteProcessRequestEP24ChiFeature2RequestObject+0xc4>
   23ee4: 18 fa ff 35  	cbnz	w24, 0x23e24 <_ZNK19ChiFeature2RealTime23OnExecuteProcessRequestEP24ChiFeature2RequestObject+0xcc>
   23ef4: e1 78 00 54  	b.ne	0x24e10 <_ZNK19ChiFeature2RealTime23OnExecuteProcessRequestEP24ChiFeature2RequestObject+0x10b8>
   23efc: a1 79 00 54  	b.ne	0x24e30 <_ZNK19ChiFeature2RealTime23OnExecuteProcessRequestEP24ChiFeature2RequestObject+0x10d8>
   23f04: 8e 01 00 b4  	cbz	x14, 0x23f34 <_ZNK19ChiFeature2RealTime23OnExecuteProcessRequestEP24ChiFeature2RequestObject+0x1dc>
   23f14: a1 7a 00 54  	b.ne	0x24e68 <_ZNK19ChiFeature2RealTime23OnExecuteProcessRequestEP24ChiFeature2RequestObject+0x1110>
   23f1c: cf 00 00 36  	tbz	w15, #0, 0x23f34 <_ZNK19ChiFeature2RealTime23OnExecuteProcessRequestEP24ChiFeature2RequestObject+0x1dc>
   23f2c: 01 7b 00 54  	b.ne	0x24e8c <_ZNK19ChiFeature2RealTime23OnExecuteProcessRequestEP24ChiFeature2RequestObject+0x1134>
   23f30: ef 7b 08 37  	tbnz	w15, #1, 0x24eac <_ZNK19ChiFeature2RealTime23OnExecuteProcessRequestEP24ChiFeature2RequestObject+0x1154>
   23f44: e1 73 00 54  	b.ne	0x24dc0 <_ZNK19ChiFeature2RealTime23OnExecuteProcessRequestEP24ChiFeature2RequestObject+0x1068>
   23f54: 41 74 00 54  	b.ne	0x24ddc <_ZNK19ChiFeature2RealTime23OnExecuteProcessRequestEP24ChiFeature2RequestObject+0x1084>
   23f58: 7a 00 00 b4  	cbz	x26, 0x23f64 <_ZNK19ChiFeature2RealTime23OnExecuteProcessRequestEP24ChiFeature2RequestObject+0x20c>
   23f60: c0 16 28 37  	tbnz	w0, #5, 0x24238 <_ZNK19ChiFeature2RealTime23OnExecuteProcessRequestEP24ChiFeature2RequestObject+0x4e0>
   23f74: 21 74 00 54  	b.ne	0x24df8 <_ZNK19ChiFeature2RealTime23OnExecuteProcessRequestEP24ChiFeature2RequestObject+0x10a0>
   23f84: 6f 95 00 94  	bl	0x49540 <_ZNK15ChiFeature2Base19GetCurrentStageInfoEP24ChiFeature2RequestObjectP20ChiFeature2StageInfo@plt>
   23f8c: c0 60 00 35  	cbnz	w0, 0x24ba4 <_ZNK19ChiFeature2RealTime23OnExecuteProcessRequestEP24ChiFeature2RequestObject+0xe4c>
   23fa0: 81 75 00 54  	b.ne	0x24e50 <_ZNK19ChiFeature2RealTime23OnExecuteProcessRequestEP24ChiFeature2RequestObject+0x10f8>
   23fb0: 30 95 00 94  	bl	0x49470 <_ZNK15ChiFeature2Base21GetFeaturePrivContextEP24ChiFeature2RequestObject@plt>
   23fb4: 40 00 00 b4  	cbz	x0, 0x23fbc <_ZNK19ChiFeature2RealTime23OnExecuteProcessRequestEP24ChiFeature2RequestObject+0x264>
   23fcc: c1 94 00 94  	bl	0x492d0 <_ZNK24ChiFeature2RequestObject23GetUsecaseRequestObjectEv@plt>
   23fec: 46 01 00 b0  	adrp	x6, 0x4c000 <_ZNK19ChiFeature2RealTime23OnExecuteProcessRequestEP24ChiFeature2RequestObject+0x338>
   23ff8: 03 07 28 36  	tbz	w3, #5, 0x240d8 <_ZNK19ChiFeature2RealTime23OnExecuteProcessRequestEP24ChiFeature2RequestObject+0x380>
   23ffc: 46 01 00 b0  	adrp	x6, 0x4c000 <_ZNK19ChiFeature2RealTime23OnExecuteProcessRequestEP24ChiFeature2RequestObject+0x348>
   24014: c1 02 00 54  	b.ne	0x2406c <_ZNK19ChiFeature2RealTime23OnExecuteProcessRequestEP24ChiFeature2RequestObject+0x314>
   24018: 5b ff ff f0  	adrp	x27, 0xf000 <_ZNK19ChiFeature2RealTime23OnExecuteProcessRequestEP24ChiFeature2RequestObject+0x26c>
   24034: 81 ff ff 90  	adrp	x1, 0x14000 <_ZNK19ChiFeature2RealTime23OnExecuteProcessRequestEP24ChiFeature2RequestObject+0x29c>
   24038: 62 ff ff 90  	adrp	x2, 0x10000 <_ZNK19ChiFeature2RealTime23OnExecuteProcessRequestEP24ChiFeature2RequestObject+0x290>
   2403c: 65 ff ff f0  	adrp	x5, 0x13000 <_ZNK19ChiFeature2RealTime23OnExecuteProcessRequestEP24ChiFeature2RequestObject+0x2a0>
   2406c: 5b ff ff f0  	adrp	x27, 0xf000 <_ZNK19ChiFeature2RealTime23OnExecuteProcessRequestEP24ChiFeature2RequestObject+0x2c0>
   24088: 61 ff ff b0  	adrp	x1, 0x11000 <_ZNK19ChiFeature2RealTime23OnExecuteProcessRequestEP24ChiFeature2RequestObject+0x2e4>
   24090: 60 ff ff f0  	adrp	x0, 0x13000 <_ZNK19ChiFeature2RealTime23OnExecuteProcessRequestEP24ChiFeature2RequestObject+0x2f4>
   24094: 63 ff ff f0  	adrp	x3, 0x13000 <_ZNK19ChiFeature2RealTime23OnExecuteProcessRequestEP24ChiFeature2RequestObject+0x2f8>
   24098: 45 ff ff f0  	adrp	x5, 0xf000 <_ZNK19ChiFeature2RealTime23OnExecuteProcessRequestEP24ChiFeature2RequestObject+0x2ec>
   240c4: a7 94 00 94  	bl	0x49360 <_ZN6ChiLog9LogSystemEPKcS1_S1_S1_iS1_z@plt>
   240c8: 46 01 00 90  	adrp	x6, 0x4c000 <_ZNK19ChiFeature2RealTime23OnExecuteProcessRequestEP24ChiFeature2RequestObject+0x410>
   240cc: 5c 01 00 90  	adrp	x28, 0x4c000 <_ZNK19ChiFeature2RealTime23OnExecuteProcessRequestEP24ChiFeature2RequestObject+0x414>
   240d8: fb 0e 00 34  	cbz	w27, 0x242b4 <_ZNK19ChiFeature2RealTime23OnExecuteProcessRequestEP24ChiFeature2RequestObject+0x55c>
   240e0: c0 0b 00 54  	b.eq	0x24258 <_ZNK19ChiFeature2RealTime23OnExecuteProcessRequestEP24ChiFeature2RequestObject+0x500>
   240e8: 61 18 00 54  	b.ne	0x243f4 <_ZNK19ChiFeature2RealTime23OnExecuteProcessRequestEP24ChiFeature2RequestObject+0x69c>
   240f8: a1 73 00 54  	b.ne	0x24f6c <_ZNK19ChiFeature2RealTime23OnExecuteProcessRequestEP24ChiFeature2RequestObject+0x1214>
   24108: 12 95 00 94  	bl	0x49550 <_ZNK15ChiFeature2Base13SetConfigInfoEP24ChiFeature2RequestObjectj@plt>
   24114: 81 73 00 54  	b.ne	0x24f84 <_ZNK19ChiFeature2RealTime23OnExecuteProcessRequestEP24ChiFeature2RequestObject+0x122c>
   24120: 04 30 00 94  	bl	0x30130 <_ZNK19ChiFeature2RealTime19GetNumDummyRequestsEP24ChiFeature2RequestObject+0x98>
   24124: e0 53 00 b4  	cbz	x0, 0x24ba0 <_ZNK19ChiFeature2RealTime23OnExecuteProcessRequestEP24ChiFeature2RequestObject+0xe48>
   24138: 01 78 00 54  	b.ne	0x25038 <_ZNK19ChiFeature2RealTime23OnExecuteProcessRequestEP24ChiFeature2RequestObject+0x12e0>
   24150: 04 95 00 94  	bl	0x49560 <_ZNK15ChiFeature2Base35SetNextStageInfoFromStageDescriptorEP24ChiFeature2RequestObjectPK26ChiFeature2StageDescriptorhh@plt>
   2415c: a1 77 00 54  	b.ne	0x25050 <_ZNK19ChiFeature2RealTime23OnExecuteProcessRequestEP24ChiFeature2RequestObject+0x12f8>
   24168: 02 95 00 94  	bl	0x49570 <_ZNK19ChiFeature2RealTime22ProcessRequestMetadataEP24ChiFeature2RequestObject@plt>
   24178: 81 77 00 54  	b.ne	0x25068 <_ZNK19ChiFeature2RealTime23OnExecuteProcessRequestEP24ChiFeature2RequestObject+0x1310>
   24190: e0 94 00 94  	bl	0x49510 <_ZNK15ChiFeature2Base26IsPortEnabledInFinalOutputEPK24ChiFeature2RequestObject21ChiFeature2Identifierh@plt>
   241a0: 01 77 00 54  	b.ne	0x25080 <_ZNK19ChiFeature2RealTime23OnExecuteProcessRequestEP24ChiFeature2RequestObject+0x1328>
   241ac: 81 77 00 54  	b.ne	0x2509c <_ZNK19ChiFeature2RealTime23OnExecuteProcessRequestEP24ChiFeature2RequestObject+0x1344>
   241b4: 29 47 00 b4  	cbz	x9, 0x24a98 <_ZNK19ChiFeature2RealTime23OnExecuteProcessRequestEP24ChiFeature2RequestObject+0xd40>
   241c4: 41 7b 00 54  	b.ne	0x2512c <_ZNK19ChiFeature2RealTime23OnExecuteProcessRequestEP24ChiFeature2RequestObject+0x13d4>
   241cc: c8 00 30 37  	tbnz	w8, #6, 0x241e4 <_ZNK19ChiFeature2RealTime23OnExecuteProcessRequestEP24ChiFeature2RequestObject+0x48c>
   241dc: 61 8a 00 54  	b.ne	0x25328 <_ZNK19ChiFeature2RealTime23OnExecuteProcessRequestEP24ChiFeature2RequestObject+0x15d0>
   241e0: c8 45 28 36  	tbz	w8, #5, 0x24a98 <_ZNK19ChiFeature2RealTime23OnExecuteProcessRequestEP24ChiFeature2RequestObject+0xd40>
   241f0: 41 85 00 54  	b.ne	0x25298 <_ZNK19ChiFeature2RealTime23OnExecuteProcessRequestEP24ChiFeature2RequestObject+0x1540>
   241f8: 02 45 00 37  	tbnz	w2, #0, 0x24a98 <_ZNK19ChiFeature2RealTime23OnExecuteProcessRequestEP24ChiFeature2RequestObject+0xd40>
   24208: 81 91 00 54  	b.ne	0x25438 <_ZNK19ChiFeature2RealTime23OnExecuteProcessRequestEP24ChiFeature2RequestObject+0x16e0>
   2420c: 5a 01 00 d0  	adrp	x26, 0x4e000 <_ZNK19ChiFeature2RealTime23OnExecuteProcessRequestEP24ChiFeature2RequestObject+0x55c>
   24228: ba 94 00 94  	bl	0x49510 <_ZNK15ChiFeature2Base26IsPortEnabledInFinalOutputEPK24ChiFeature2RequestObject21ChiFeature2Identifierh@plt>
   2422c: a0 41 00 34  	cbz	w0, 0x24a60 <_ZNK19ChiFeature2RealTime23OnExecuteProcessRequestEP24ChiFeature2RequestObject+0xd08>
   24234: 19 02 00 14  	b	0x24a98 <_ZNK19ChiFeature2RealTime23OnExecuteProcessRequestEP24ChiFeature2RequestObject+0xd40>
   2423c: 77 e9 ff 35  	cbnz	w23, 0x23f68 <_ZNK19ChiFeature2RealTime23OnExecuteProcessRequestEP24ChiFeature2RequestObject+0x210>
   24244: 2f e9 ff b4  	cbz	x15, 0x23f68 <_ZNK19ChiFeature2RealTime23OnExecuteProcessRequestEP24ChiFeature2RequestObject+0x210>
   24254: 45 ff ff 17  	b	0x23f68 <_ZNK19ChiFeature2RealTime23OnExecuteProcessRequestEP24ChiFeature2RequestObject+0x210>
   24264: c1 69 00 54  	b.ne	0x24f9c <_ZNK19ChiFeature2RealTime23OnExecuteProcessRequestEP24ChiFeature2RequestObject+0x1244>
   2426c: c1 6a 00 54  	b.ne	0x24fc4 <_ZNK19ChiFeature2RealTime23OnExecuteProcessRequestEP24ChiFeature2RequestObject+0x126c>
   24274: 8d 01 00 b4  	cbz	x13, 0x242a4 <_ZNK19ChiFeature2RealTime23OnExecuteProcessRequestEP24ChiFeature2RequestObject+0x54c>
   24284: c1 71 00 54  	b.ne	0x250bc <_ZNK19ChiFeature2RealTime23OnExecuteProcessRequestEP24ChiFeature2RequestObject+0x1364>
   2428c: ce 00 00 36  	tbz	w14, #0, 0x242a4 <_ZNK19ChiFeature2RealTime23OnExecuteProcessRequestEP24ChiFeature2RequestObject+0x54c>
   2429c: 81 7a 00 54  	b.ne	0x251ec <_ZNK19ChiFeature2RealTime23OnExecuteProcessRequestEP24ChiFeature2RequestObject+0x1494>
   242a0: ee 7b 08 37  	tbnz	w14, #1, 0x2521c <_ZNK19ChiFeature2RealTime23OnExecuteProcessRequestEP24ChiFeature2RequestObject+0x14c4>
   242a8: 5b 10 00 37  	tbnz	w27, #0, 0x244b0 <_ZNK19ChiFeature2RealTime23OnExecuteProcessRequestEP24ChiFeature2RequestObject+0x758>
   242b0: 3d 02 00 14  	b	0x24ba4 <_ZNK19ChiFeature2RealTime23OnExecuteProcessRequestEP24ChiFeature2RequestObject+0xe4c>
   242c4: 41 69 00 54  	b.ne	0x24fec <_ZNK19ChiFeature2RealTime23OnExecuteProcessRequestEP24ChiFeature2RequestObject+0x1294>
   242d0: c1 69 00 54  	b.ne	0x25008 <_ZNK19ChiFeature2RealTime23OnExecuteProcessRequestEP24ChiFeature2RequestObject+0x12b0>
   242dc: 8b 01 00 b4  	cbz	x11, 0x2430c <_ZNK19ChiFeature2RealTime23OnExecuteProcessRequestEP24ChiFeature2RequestObject+0x5b4>
   242ec: 21 70 00 54  	b.ne	0x250f0 <_ZNK19ChiFeature2RealTime23OnExecuteProcessRequestEP24ChiFeature2RequestObject+0x1398>
   242f4: cc 00 00 36  	tbz	w12, #0, 0x2430c <_ZNK19ChiFeature2RealTime23OnExecuteProcessRequestEP24ChiFeature2RequestObject+0x5b4>
   24304: a1 79 00 54  	b.ne	0x25238 <_ZNK19ChiFeature2RealTime23OnExecuteProcessRequestEP24ChiFeature2RequestObject+0x14e0>
   24308: 8c 7a 08 37  	tbnz	w12, #1, 0x25258 <_ZNK19ChiFeature2RealTime23OnExecuteProcessRequestEP24ChiFeature2RequestObject+0x1500>
   2430c: 7b 12 00 34  	cbz	w27, 0x24558 <_ZNK19ChiFeature2RealTime23OnExecuteProcessRequestEP24ChiFeature2RequestObject+0x800>
   2431c: 21 68 00 54  	b.ne	0x25020 <_ZNK19ChiFeature2RealTime23OnExecuteProcessRequestEP24ChiFeature2RequestObject+0x12c8>
   2432c: 55 35 00 94  	bl	0x31880 <_ZNK19ChiFeature2RealTime17ProcessZSLRequestEP24ChiFeature2RequestObjectP21ChiFeature2PortIdListh+0xd18>
   24330: c0 17 00 34  	cbz	w0, 0x24628 <_ZNK19ChiFeature2RealTime23OnExecuteProcessRequestEP24ChiFeature2RequestObject+0x8d0>
   24334: 43 01 00 90  	adrp	x3, 0x4c000 <_ZNK19ChiFeature2RealTime23OnExecuteProcessRequestEP24ChiFeature2RequestObject+0x67c>
   24344: 04 43 00 36  	tbz	w4, #0, 0x24ba4 <_ZNK19ChiFeature2RealTime23OnExecuteProcessRequestEP24ChiFeature2RequestObject+0xe4c>
   24348: 53 01 00 90  	adrp	x19, 0x4c000 <_ZNK19ChiFeature2RealTime23OnExecuteProcessRequestEP24ChiFeature2RequestObject+0x690>
   24358: 61 02 00 54  	b.ne	0x243a4 <_ZNK19ChiFeature2RealTime23OnExecuteProcessRequestEP24ChiFeature2RequestObject+0x64c>
   2435c: 55 ff ff f0  	adrp	x21, 0xf000 <_ZNK19ChiFeature2RealTime23OnExecuteProcessRequestEP24ChiFeature2RequestObject+0x5b0>
   24378: 81 ff ff 90  	adrp	x1, 0x14000 <_ZNK19ChiFeature2RealTime23OnExecuteProcessRequestEP24ChiFeature2RequestObject+0x5e0>
   2437c: 62 ff ff b0  	adrp	x2, 0x11000 <_ZNK19ChiFeature2RealTime23OnExecuteProcessRequestEP24ChiFeature2RequestObject+0x5d8>
   24380: 65 ff ff f0  	adrp	x5, 0x13000 <_ZNK19ChiFeature2RealTime23OnExecuteProcessRequestEP24ChiFeature2RequestObject+0x5e4>
   243a4: 5b ff ff f0  	adrp	x27, 0xf000 <_ZNK19ChiFeature2RealTime23OnExecuteProcessRequestEP24ChiFeature2RequestObject+0x5f8>
   243c0: 61 ff ff f0  	adrp	x1, 0x13000 <_ZNK19ChiFeature2RealTime23OnExecuteProcessRequestEP24ChiFeature2RequestObject+0x624>
   243c8: 40 ff ff b0  	adrp	x0, 0xd000 <_ZNK19ChiFeature2RealTime23OnExecuteProcessRequestEP24ChiFeature2RequestObject+0x614>
   243cc: 63 ff ff f0  	adrp	x3, 0x13000 <_ZNK19ChiFeature2RealTime23OnExecuteProcessRequestEP24ChiFeature2RequestObject+0x630>
   243d0: 65 ff ff 90  	adrp	x5, 0x10000 <_ZNK19ChiFeature2RealTime23OnExecuteProcessRequestEP24ChiFeature2RequestObject+0x628>
   243ec: dd 93 00 94  	bl	0x49360 <_ZN6ChiLog9LogSystemEPKcS1_S1_S1_iS1_z@plt>
   243f0: ed 01 00 14  	b	0x24ba4 <_ZNK19ChiFeature2RealTime23OnExecuteProcessRequestEP24ChiFeature2RequestObject+0xe4c>
   243f8: 57 3d 00 36  	tbz	w23, #0, 0x24ba0 <_ZNK19ChiFeature2RealTime23OnExecuteProcessRequestEP24ChiFeature2RequestObject+0xe48>
   243fc: 50 01 00 90  	adrp	x16, 0x4c000 <_ZNK19ChiFeature2RealTime23OnExecuteProcessRequestEP24ChiFeature2RequestObject+0x744>
   2440c: a1 02 00 54  	b.ne	0x24460 <_ZNK19ChiFeature2RealTime23OnExecuteProcessRequestEP24ChiFeature2RequestObject+0x708>
   24414: 5b ff ff f0  	adrp	x27, 0xf000 <_ZNK19ChiFeature2RealTime23OnExecuteProcessRequestEP24ChiFeature2RequestObject+0x668>
   24430: 81 ff ff 90  	adrp	x1, 0x14000 <_ZNK19ChiFeature2RealTime23OnExecuteProcessRequestEP24ChiFeature2RequestObject+0x698>
   24434: 62 ff ff d0  	adrp	x2, 0x12000 <_ZNK19ChiFeature2RealTime23OnExecuteProcessRequestEP24ChiFeature2RequestObject+0x694>
   24438: 65 ff ff f0  	adrp	x5, 0x13000 <_ZNK19ChiFeature2RealTime23OnExecuteProcessRequestEP24ChiFeature2RequestObject+0x69c>
   24460: 55 ff ff f0  	adrp	x21, 0xf000 <_ZNK19ChiFeature2RealTime23OnExecuteProcessRequestEP24ChiFeature2RequestObject+0x6b4>
   2447c: 61 ff ff f0  	adrp	x1, 0x13000 <_ZNK19ChiFeature2RealTime23OnExecuteProcessRequestEP24ChiFeature2RequestObject+0x6e0>
   24484: 40 ff ff b0  	adrp	x0, 0xd000 <_ZNK19ChiFeature2RealTime23OnExecuteProcessRequestEP24ChiFeature2RequestObject+0x6d0>
   24488: 63 ff ff f0  	adrp	x3, 0x13000 <_ZNK19ChiFeature2RealTime23OnExecuteProcessRequestEP24ChiFeature2RequestObject+0x6ec>
   2448c: 65 ff ff 90  	adrp	x5, 0x10000 <_ZNK19ChiFeature2RealTime23OnExecuteProcessRequestEP24ChiFeature2RequestObject+0x6e4>
   244a8: ae 93 00 94  	bl	0x49360 <_ZN6ChiLog9LogSystemEPKcS1_S1_S1_iS1_z@plt>
   244ac: bd 01 00 14  	b	0x24ba0 <_ZNK19ChiFeature2RealTime23OnExecuteProcessRequestEP24ChiFeature2RequestObject+0xe48>
   244b0: 4f 01 00 90  	adrp	x15, 0x4c000 <_ZNK19ChiFeature2RealTime23OnExecuteProcessRequestEP24ChiFeature2RequestObject+0x7f8>
   244c0: 41 02 00 54  	b.ne	0x24508 <_ZNK19ChiFeature2RealTime23OnExecuteProcessRequestEP24ChiFeature2RequestObject+0x7b0>
   244c4: 56 ff ff f0  	adrp	x22, 0xf000 <_ZNK19ChiFeature2RealTime23OnExecuteProcessRequestEP24ChiFeature2RequestObject+0x718>
   244e0: 81 ff ff 90  	adrp	x1, 0x14000 <_ZNK19ChiFeature2RealTime23OnExecuteProcessRequestEP24ChiFeature2RequestObject+0x748>
   244e4: 62 ff ff b0  	adrp	x2, 0x11000 <_ZNK19ChiFeature2RealTime23OnExecuteProcessRequestEP24ChiFeature2RequestObject+0x740>
   244e8: 65 ff ff f0  	adrp	x5, 0x13000 <_ZNK19ChiFeature2RealTime23OnExecuteProcessRequestEP24ChiFeature2RequestObject+0x74c>
   24508: 55 ff ff f0  	adrp	x21, 0xf000 <_ZNK19ChiFeature2RealTime23OnExecuteProcessRequestEP24ChiFeature2RequestObject+0x75c>
   24524: 61 ff ff f0  	adrp	x1, 0x13000 <_ZNK19ChiFeature2RealTime23OnExecuteProcessRequestEP24ChiFeature2RequestObject+0x788>
   2452c: 40 ff ff b0  	adrp	x0, 0xd000 <_ZNK19ChiFeature2RealTime23OnExecuteProcessRequestEP24ChiFeature2RequestObject+0x778>
   24530: 63 ff ff f0  	adrp	x3, 0x13000 <_ZNK19ChiFeature2RealTime23OnExecuteProcessRequestEP24ChiFeature2RequestObject+0x794>
   24534: 65 ff ff 90  	adrp	x5, 0x10000 <_ZNK19ChiFeature2RealTime23OnExecuteProcessRequestEP24ChiFeature2RequestObject+0x78c>
   2454c: 85 93 00 94  	bl	0x49360 <_ZN6ChiLog9LogSystemEPKcS1_S1_S1_iS1_z@plt>
   24554: 94 01 00 14  	b	0x24ba4 <_ZNK19ChiFeature2RealTime23OnExecuteProcessRequestEP24ChiFeature2RequestObject+0xe4c>
   24564: 61 5f 00 54  	b.ne	0x25150 <_ZNK19ChiFeature2RealTime23OnExecuteProcessRequestEP24ChiFeature2RequestObject+0x13f8>
   2457c: e5 93 00 94  	bl	0x49510 <_ZNK15ChiFeature2Base26IsPortEnabledInFinalOutputEPK24ChiFeature2RequestObject21ChiFeature2Identifierh@plt>
   2458c: e1 5e 00 54  	b.ne	0x25168 <_ZNK19ChiFeature2RealTime23OnExecuteProcessRequestEP24ChiFeature2RequestObject+0x1410>
   2459c: 41 5f 00 54  	b.ne	0x25184 <_ZNK19ChiFeature2RealTime23OnExecuteProcessRequestEP24ChiFeature2RequestObject+0x142c>
   245a4: aa 34 00 b4  	cbz	x10, 0x24c38 <_ZNK19ChiFeature2RealTime23OnExecuteProcessRequestEP24ChiFeature2RequestObject+0xee0>
   245b4: 41 68 00 54  	b.ne	0x252bc <_ZNK19ChiFeature2RealTime23OnExecuteProcessRequestEP24ChiFeature2RequestObject+0x1564>
   245bc: c9 00 30 37  	tbnz	w9, #6, 0x245d4 <_ZNK19ChiFeature2RealTime23OnExecuteProcessRequestEP24ChiFeature2RequestObject+0x87c>
   245cc: e1 74 00 54  	b.ne	0x25468 <_ZNK19ChiFeature2RealTime23OnExecuteProcessRequestEP24ChiFeature2RequestObject+0x1710>
   245d0: 49 33 28 36  	tbz	w9, #5, 0x24c38 <_ZNK19ChiFeature2RealTime23OnExecuteProcessRequestEP24ChiFeature2RequestObject+0xee0>
   245e0: a1 71 00 54  	b.ne	0x25414 <_ZNK19ChiFeature2RealTime23OnExecuteProcessRequestEP24ChiFeature2RequestObject+0x16bc>
   245e8: 81 32 00 37  	tbnz	w1, #0, 0x24c38 <_ZNK19ChiFeature2RealTime23OnExecuteProcessRequestEP24ChiFeature2RequestObject+0xee0>
   245f8: 21 78 00 54  	b.ne	0x254fc <_ZNK19ChiFeature2RealTime23OnExecuteProcessRequestEP24ChiFeature2RequestObject+0x17a4>
   245fc: 47 01 00 d0  	adrp	x7, 0x4e000 <_ZNK19ChiFeature2RealTime23OnExecuteProcessRequestEP24ChiFeature2RequestObject+0x94c>
   24618: be 93 00 94  	bl	0x49510 <_ZNK15ChiFeature2Base26IsPortEnabledInFinalOutputEPK24ChiFeature2RequestObject21ChiFeature2Identifierh@plt>
   2461c: 20 2f 00 34  	cbz	w0, 0x24c00 <_ZNK19ChiFeature2RealTime23OnExecuteProcessRequestEP24ChiFeature2RequestObject+0xea8>
   24624: 85 01 00 14  	b	0x24c38 <_ZNK19ChiFeature2RealTime23OnExecuteProcessRequestEP24ChiFeature2RequestObject+0xee0>
   2463c: 41 5b 00 54  	b.ne	0x251a4 <_ZNK19ChiFeature2RealTime23OnExecuteProcessRequestEP24ChiFeature2RequestObject+0x144c>
   24654: cb 93 00 94  	bl	0x49580 <_ZNK19ChiFeature2RealTime17SelectOutputPortsEP24ChiFeature2RequestObjectP21ChiFeature2PortIdListh@plt>
   24664: 20 04 00 54  	b.eq	0x246e8 <_ZNK19ChiFeature2RealTime23OnExecuteProcessRequestEP24ChiFeature2RequestObject+0x990>
   24678: 61 67 00 54  	b.ne	0x25364 <_ZNK19ChiFeature2RealTime23OnExecuteProcessRequestEP24ChiFeature2RequestObject+0x160c>
   24680: 21 68 00 54  	b.ne	0x25384 <_ZNK19ChiFeature2RealTime23OnExecuteProcessRequestEP24ChiFeature2RequestObject+0x162c>
   2468c: 4c 02 00 b4  	cbz	x12, 0x246d4 <_ZNK19ChiFeature2RealTime23OnExecuteProcessRequestEP24ChiFeature2RequestObject+0x97c>
   2469c: 81 6f 00 54  	b.ne	0x2548c <_ZNK19ChiFeature2RealTime23OnExecuteProcessRequestEP24ChiFeature2RequestObject+0x1734>
   246a4: 8d 01 18 36  	tbz	w13, #3, 0x246d4 <_ZNK19ChiFeature2RealTime23OnExecuteProcessRequestEP24ChiFeature2RequestObject+0x97c>
   246b4: a1 78 00 54  	b.ne	0x255c8 <_ZNK19ChiFeature2RealTime23OnExecuteProcessRequestEP24ChiFeature2RequestObject+0x1870>
   246b8: ed 00 00 37  	tbnz	w13, #0, 0x246d4 <_ZNK19ChiFeature2RealTime23OnExecuteProcessRequestEP24ChiFeature2RequestObject+0x97c>
   246c8: 21 88 00 54  	b.ne	0x257cc <_ZNK19ChiFeature2RealTime23OnExecuteProcessRequestEP24ChiFeature2RequestObject+0x1a74>
   246d0: b0 93 00 94  	bl	0x49590 <_ZNK19ChiFeature2RealTime26AddOutputPortsForBPSCameraERNSt3__16vectorI21ChiFeature2IdentifierNS0_9allocatorIS2_EEEE@plt>
   246d4: 41 01 00 d0  	adrp	x1, 0x4e000 <_ZNK19ChiFeature2RealTime23OnExecuteProcessRequestEP24ChiFeature2RequestObject+0xa24>
   246e0: 42 24 00 94  	bl	0x2d7e8 <_ZNK19ChiFeature2RealTime13OnGetZSLPortsEPK24ChiFeature2RequestObject+0x310>
   24710: 61 55 00 54  	b.ne	0x251bc <_ZNK19ChiFeature2RealTime23OnExecuteProcessRequestEP24ChiFeature2RequestObject+0x1464>
   24720: 20 93 00 94  	bl	0x493a0 <_ZNK24ChiFeature2RequestObject19GetSequencePrivDataE24ChiFeature2SequenceOrderh@plt>
   24728: a0 01 00 b4  	cbz	x0, 0x2475c <_ZNK19ChiFeature2RealTime23OnExecuteProcessRequestEP24ChiFeature2RequestObject+0xa04>
   24738: 41 5d 00 54  	b.ne	0x252e0 <_ZNK19ChiFeature2RealTime23OnExecuteProcessRequestEP24ChiFeature2RequestObject+0x1588>
   24748: be 38 00 94  	bl	0x32a40 <_ZNK19ChiFeature2RealTime26AddOutputPortsForBPSCameraERNSt3__16vectorI21ChiFeature2IdentifierNS0_9allocatorIS2_EEEE+0x1c0>
   24750: 61 00 00 54  	b.ne	0x2475c <_ZNK19ChiFeature2RealTime23OnExecuteProcessRequestEP24ChiFeature2RequestObject+0xa04>
   24764: 61 03 00 b4  	cbz	x1, 0x247d0 <_ZNK19ChiFeature2RealTime23OnExecuteProcessRequestEP24ChiFeature2RequestObject+0xa78>
   24770: 01 03 00 54  	b.ne	0x247d0 <_ZNK19ChiFeature2RealTime23OnExecuteProcessRequestEP24ChiFeature2RequestObject+0xa78>
   24784: 61 69 00 54  	b.ne	0x254b0 <_ZNK19ChiFeature2RealTime23OnExecuteProcessRequestEP24ChiFeature2RequestObject+0x1758>
   24794: c1 69 00 54  	b.ne	0x254cc <_ZNK19ChiFeature2RealTime23OnExecuteProcessRequestEP24ChiFeature2RequestObject+0x1774>
   247a0: 34 93 00 94  	bl	0x49470 <_ZNK15ChiFeature2Base21GetFeaturePrivContextEP24ChiFeature2RequestObject@plt>
   247a8: bb 21 00 34  	cbz	w27, 0x24bdc <_ZNK19ChiFeature2RealTime23OnExecuteProcessRequestEP24ChiFeature2RequestObject+0xe84>
   247d4: 43 01 00 34  	cbz	w3, 0x247fc <_ZNK19ChiFeature2RealTime23OnExecuteProcessRequestEP24ChiFeature2RequestObject+0xaa4>
   247e4: a1 58 00 54  	b.ne	0x252f8 <_ZNK19ChiFeature2RealTime23OnExecuteProcessRequestEP24ChiFeature2RequestObject+0x15a0>
   247f8: 6a 93 00 94  	bl	0x495a0 <_ZNK15ChiFeature2Base25PopulatePortConfigurationEP24ChiFeature2RequestObjectPK21ChiFeature2PortIdListS4_@plt>
   247fc: 5a 01 00 b4  	cbz	x26, 0x24824 <_ZNK19ChiFeature2RealTime23OnExecuteProcessRequestEP24ChiFeature2RequestObject+0xacc>
   24804: 1a 01 00 35  	cbnz	w26, 0x24824 <_ZNK19ChiFeature2RealTime23OnExecuteProcessRequestEP24ChiFeature2RequestObject+0xacc>
   24814: 01 68 00 54  	b.ne	0x25514 <_ZNK19ChiFeature2RealTime23OnExecuteProcessRequestEP24ChiFeature2RequestObject+0x17bc>
   24820: 64 93 00 94  	bl	0x495b0 <_ZNK19ChiFeature2RealTime15AcquireResourceEP24ChiFeature2RequestObject@plt>
   24834: e1 01 00 54  	b.ne	0x24870 <_ZNK19ChiFeature2RealTime23OnExecuteProcessRequestEP24ChiFeature2RequestObject+0xb18>
   24844: c1 5a 00 54  	b.ne	0x2539c <_ZNK19ChiFeature2RealTime23OnExecuteProcessRequestEP24ChiFeature2RequestObject+0x1644>
   24850: 5c 93 00 94  	bl	0x495c0 <_ZNK15ChiFeature2Base13ClearZSLQueueEP24ChiFeature2RequestObject@plt>
   2485c: c1 5a 00 54  	b.ne	0x253b4 <_ZNK19ChiFeature2RealTime23OnExecuteProcessRequestEP24ChiFeature2RequestObject+0x165c>
   24868: 5a 93 00 94  	bl	0x495d0 <_ZNK15ChiFeature2Base18ClearZSLReferencesEP24ChiFeature2RequestObject@plt>
   24874: 81 02 00 34  	cbz	w1, 0x248c4 <_ZNK19ChiFeature2RealTime23OnExecuteProcessRequestEP24ChiFeature2RequestObject+0xb6c>
   24884: 61 54 00 54  	b.ne	0x25310 <_ZNK19ChiFeature2RealTime23OnExecuteProcessRequestEP24ChiFeature2RequestObject+0x15b8>
   24890: 54 93 00 94  	bl	0x495e0 <_ZNK15ChiFeature2Base22SubmitRequestToSessionEP24ChiFeature2RequestObject@plt>
   24898: 60 01 00 34  	cbz	w0, 0x248c4 <_ZNK19ChiFeature2RealTime23OnExecuteProcessRequestEP24ChiFeature2RequestObject+0xb6c>
   2489c: 44 01 00 90  	adrp	x4, 0x4c000 <_ZNK19ChiFeature2RealTime23OnExecuteProcessRequestEP24ChiFeature2RequestObject+0xbe4>
   248ac: d6 07 00 37  	tbnz	w22, #0, 0x249a4 <_ZNK19ChiFeature2RealTime23OnExecuteProcessRequestEP24ChiFeature2RequestObject+0xc4c>
   248b4: 58 05 00 34  	cbz	w24, 0x2495c <_ZNK19ChiFeature2RealTime23OnExecuteProcessRequestEP24ChiFeature2RequestObject+0xc04>
   248bc: c0 05 00 b5  	cbnz	x0, 0x24974 <_ZNK19ChiFeature2RealTime23OnExecuteProcessRequestEP24ChiFeature2RequestObject+0xc1c>
   248c0: b9 00 00 14  	b	0x24ba4 <_ZNK19ChiFeature2RealTime23OnExecuteProcessRequestEP24ChiFeature2RequestObject+0xe4c>
   248d4: c1 53 00 54  	b.ne	0x2534c <_ZNK19ChiFeature2RealTime23OnExecuteProcessRequestEP24ChiFeature2RequestObject+0x15f4>
   248e8: 56 38 00 94  	bl	0x32a40 <_ZNK19ChiFeature2RealTime26AddOutputPortsForBPSCameraERNSt3__16vectorI21ChiFeature2IdentifierNS0_9allocatorIS2_EEEE+0x1c0>
   248ec: 78 00 00 35  	cbnz	w24, 0x248f8 <_ZNK19ChiFeature2RealTime23OnExecuteProcessRequestEP24ChiFeature2RequestObject+0xba0>
   248f4: e1 02 00 54  	b.ne	0x24950 <_ZNK19ChiFeature2RealTime23OnExecuteProcessRequestEP24ChiFeature2RequestObject+0xbf8>
   24900: 82 02 00 54  	b.hs	0x24950 <_ZNK19ChiFeature2RealTime23OnExecuteProcessRequestEP24ChiFeature2RequestObject+0xbf8>
   24910: a1 67 00 54  	b.ne	0x25604 <_ZNK19ChiFeature2RealTime23OnExecuteProcessRequestEP24ChiFeature2RequestObject+0x18ac>
   2491c: 05 2e 00 94  	bl	0x30130 <_ZNK19ChiFeature2RealTime19GetNumDummyRequestsEP24ChiFeature2RequestObject+0x98>
   24920: 80 01 00 b4  	cbz	x0, 0x24950 <_ZNK19ChiFeature2RealTime23OnExecuteProcessRequestEP24ChiFeature2RequestObject+0xbf8>
   24934: e1 6d 00 54  	b.ne	0x256f0 <_ZNK19ChiFeature2RealTime23OnExecuteProcessRequestEP24ChiFeature2RequestObject+0x1998>
   2494c: 05 93 00 94  	bl	0x49560 <_ZNK15ChiFeature2Base35SetNextStageInfoFromStageDescriptorEP24ChiFeature2RequestObjectPK26ChiFeature2StageDescriptorhh@plt>
   24958: 18 fb ff 35  	cbnz	w24, 0x248b8 <_ZNK19ChiFeature2RealTime23OnExecuteProcessRequestEP24ChiFeature2RequestObject+0xb60>
   24968: 22 93 00 94  	bl	0x495f0 <_ZN24ChiFeature2RequestObject18SetCurRequestStateE23ChiFeature2RequestStateh@plt>
   24970: a0 11 00 b4  	cbz	x0, 0x24ba4 <_ZNK19ChiFeature2RealTime23OnExecuteProcessRequestEP24ChiFeature2RequestObject+0xe4c>
   24998: 45 74 00 b5  	cbnz	x5, 0x25820 <_ZNK19ChiFeature2RealTime23OnExecuteProcessRequestEP24ChiFeature2RequestObject+0x1ac8>
   249a0: 81 00 00 14  	b	0x24ba4 <_ZNK19ChiFeature2RealTime23OnExecuteProcessRequestEP24ChiFeature2RequestObject+0xe4c>
   249a4: 54 01 00 90  	adrp	x20, 0x4c000 <_ZNK19ChiFeature2RealTime23OnExecuteProcessRequestEP24ChiFeature2RequestObject+0xcec>
   249b4: 81 02 00 54  	b.ne	0x24a04 <_ZNK19ChiFeature2RealTime23OnExecuteProcessRequestEP24ChiFeature2RequestObject+0xcac>
   249b8: 56 ff ff f0  	adrp	x22, 0xf000 <_ZNK19ChiFeature2RealTime23OnExecuteProcessRequestEP24ChiFeature2RequestObject+0xc0c>
   249d4: 81 ff ff 90  	adrp	x1, 0x14000 <_ZNK19ChiFeature2RealTime23OnExecuteProcessRequestEP24ChiFeature2RequestObject+0xc3c>
   249d8: 42 ff ff f0  	adrp	x2, 0xf000 <_ZNK19ChiFeature2RealTime23OnExecuteProcessRequestEP24ChiFeature2RequestObject+0xc2c>
   249dc: 65 ff ff f0  	adrp	x5, 0x13000 <_ZNK19ChiFeature2RealTime23OnExecuteProcessRequestEP24ChiFeature2RequestObject+0xc40>
   24a04: 5b ff ff f0  	adrp	x27, 0xf000 <_ZNK19ChiFeature2RealTime23OnExecuteProcessRequestEP24ChiFeature2RequestObject+0xc58>
   24a20: 61 ff ff f0  	adrp	x1, 0x13000 <_ZNK19ChiFeature2RealTime23OnExecuteProcessRequestEP24ChiFeature2RequestObject+0xc84>
   24a28: 40 ff ff b0  	adrp	x0, 0xd000 <_ZNK19ChiFeature2RealTime23OnExecuteProcessRequestEP24ChiFeature2RequestObject+0xc74>
   24a2c: 63 ff ff f0  	adrp	x3, 0x13000 <_ZNK19ChiFeature2RealTime23OnExecuteProcessRequestEP24ChiFeature2RequestObject+0xc90>
   24a30: 65 ff ff d0  	adrp	x5, 0x12000 <_ZNK19ChiFeature2RealTime23OnExecuteProcessRequestEP24ChiFeature2RequestObject+0xc90>
   24a50: 44 92 00 94  	bl	0x49360 <_ZN6ChiLog9LogSystemEPKcS1_S1_S1_iS1_z@plt>
   24a58: 18 f3 ff 35  	cbnz	w24, 0x248b8 <_ZNK19ChiFeature2RealTime23OnExecuteProcessRequestEP24ChiFeature2RequestObject+0xb60>
   24a5c: c0 ff ff 17  	b	0x2495c <_ZNK19ChiFeature2RealTime23OnExecuteProcessRequestEP24ChiFeature2RequestObject+0xc04>
   24a6c: 21 5a 00 54  	b.ne	0x255b0 <_ZNK19ChiFeature2RealTime23OnExecuteProcessRequestEP24ChiFeature2RequestObject+0x1858>
   24a70: 5b 01 00 d0  	adrp	x27, 0x4e000 <_ZNK19ChiFeature2RealTime23OnExecuteProcessRequestEP24ChiFeature2RequestObject+0xdc0>
   24a8c: a1 92 00 94  	bl	0x49510 <_ZNK15ChiFeature2Base26IsPortEnabledInFinalOutputEPK24ChiFeature2RequestObject21ChiFeature2Identifierh@plt>
   24aa8: 61 33 00 54  	b.ne	0x25114 <_ZNK19ChiFeature2RealTime23OnExecuteProcessRequestEP24ChiFeature2RequestObject+0x13bc>
   24aac: 57 01 00 d0  	adrp	x23, 0x4e000 <_ZNK19ChiFeature2RealTime23OnExecuteProcessRequestEP24ChiFeature2RequestObject+0xdfc>
   24ac8: 92 92 00 94  	bl	0x49510 <_ZNK15ChiFeature2Base26IsPortEnabledInFinalOutputEPK24ChiFeature2RequestObject21ChiFeature2Identifierh@plt>
   24ad4: 81 06 00 54  	b.ne	0x24ba4 <_ZNK19ChiFeature2RealTime23OnExecuteProcessRequestEP24ChiFeature2RequestObject+0xe4c>
   24ad8: 60 06 00 35  	cbnz	w0, 0x24ba4 <_ZNK19ChiFeature2RealTime23OnExecuteProcessRequestEP24ChiFeature2RequestObject+0xe4c>
   24aec: a1 3c 00 54  	b.ne	0x25280 <_ZNK19ChiFeature2RealTime23OnExecuteProcessRequestEP24ChiFeature2RequestObject+0x1528>
   24af8: c2 92 00 94  	bl	0x49600 <_ZNK19ChiFeature2RealTime23IsManualCaptureRequiredEP24ChiFeature2RequestObject@plt>
   24afc: 20 05 00 35  	cbnz	w0, 0x24ba0 <_ZNK19ChiFeature2RealTime23OnExecuteProcessRequestEP24ChiFeature2RequestObject+0xe48>
   24b0c: 21 4a 00 54  	b.ne	0x25450 <_ZNK19ChiFeature2RealTime23OnExecuteProcessRequestEP24ChiFeature2RequestObject+0x16f8>
   24b10: 4d 01 00 d0  	adrp	x13, 0x4e000 <_ZNK19ChiFeature2RealTime23OnExecuteProcessRequestEP24ChiFeature2RequestObject+0xe60>
   24b2c: 79 92 00 94  	bl	0x49510 <_ZNK15ChiFeature2Base26IsPortEnabledInFinalOutputEPK24ChiFeature2RequestObject21ChiFeature2Identifierh@plt>
   24b38: c1 00 00 54  	b.ne	0x24b50 <_ZNK19ChiFeature2RealTime23OnExecuteProcessRequestEP24ChiFeature2RequestObject+0xdf8>
   24b44: c1 51 00 54  	b.ne	0x2557c <_ZNK19ChiFeature2RealTime23OnExecuteProcessRequestEP24ChiFeature2RequestObject+0x1824>
   24b4c: 05 00 00 14  	b	0x24b60 <_ZNK19ChiFeature2RealTime23OnExecuteProcessRequestEP24ChiFeature2RequestObject+0xe08>
   24b58: 01 52 00 54  	b.ne	0x25598 <_ZNK19ChiFeature2RealTime23OnExecuteProcessRequestEP24ChiFeature2RequestObject+0x1840>
   24b70: a8 92 00 94  	bl	0x49610 <_ZNK15ChiFeature2Base36GetDependencyListFromStageDescriptorEPK26ChiFeature2StageDescriptorhhh@plt>
   24b74: 60 01 00 b4  	cbz	x0, 0x24ba0 <_ZNK19ChiFeature2RealTime23OnExecuteProcessRequestEP24ChiFeature2RequestObject+0xe48>
   24b88: 21 4d 00 54  	b.ne	0x2552c <_ZNK19ChiFeature2RealTime23OnExecuteProcessRequestEP24ChiFeature2RequestObject+0x17d4>
   24b9c: a1 92 00 94  	bl	0x49620 <_ZNK15ChiFeature2Base23PopulateDependencyPortsEP24ChiFeature2RequestObjecthPK26ChiFeature2InputDependency@plt>
   24bb4: 41 63 00 54  	b.ne	0x2581c <_ZNK19ChiFeature2RealTime23OnExecuteProcessRequestEP24ChiFeature2RequestObject+0x1ac4>
   24be0: 66 0d 00 34  	cbz	w6, 0x24d8c <_ZNK19ChiFeature2RealTime23OnExecuteProcessRequestEP24ChiFeature2RequestObject+0x1034>
   24bf4: 01 0d 00 54  	b.ne	0x24d94 <_ZNK19ChiFeature2RealTime23OnExecuteProcessRequestEP24ChiFeature2RequestObject+0x103c>
   24bfc: f4 fe ff 17  	b	0x247cc <_ZNK19ChiFeature2RealTime23OnExecuteProcessRequestEP24ChiFeature2RequestObject+0xa74>
   24c0c: e1 57 00 54  	b.ne	0x25708 <_ZNK19ChiFeature2RealTime23OnExecuteProcessRequestEP24ChiFeature2RequestObject+0x19b0>
   24c10: 4a 01 00 d0  	adrp	x10, 0x4e000 <_ZNK19ChiFeature2RealTime23OnExecuteProcessRequestEP24ChiFeature2RequestObject+0xf60>
   24c2c: 39 92 00 94  	bl	0x49510 <_ZNK15ChiFeature2Base26IsPortEnabledInFinalOutputEPK24ChiFeature2RequestObject21ChiFeature2Identifierh@plt>
   24c44: 81 2c 00 54  	b.ne	0x251d4 <_ZNK19ChiFeature2RealTime23OnExecuteProcessRequestEP24ChiFeature2RequestObject+0x147c>
   24c48: 49 01 00 d0  	adrp	x9, 0x4e000 <_ZNK19ChiFeature2RealTime23OnExecuteProcessRequestEP24ChiFeature2RequestObject+0xf98>
   24c64: 2b 92 00 94  	bl	0x49510 <_ZNK15ChiFeature2Base26IsPortEnabledInFinalOutputEPK24ChiFeature2RequestObject21ChiFeature2Identifierh@plt>
   24c6c: 21 b5 ff 54  	b.ne	0x24310 <_ZNK19ChiFeature2RealTime23OnExecuteProcessRequestEP24ChiFeature2RequestObject+0x5b8>
   24c70: 00 b5 ff 35  	cbnz	w0, 0x24310 <_ZNK19ChiFeature2RealTime23OnExecuteProcessRequestEP24ChiFeature2RequestObject+0x5b8>
   24c80: 61 3a 00 54  	b.ne	0x253cc <_ZNK19ChiFeature2RealTime23OnExecuteProcessRequestEP24ChiFeature2RequestObject+0x1674>
   24c8c: 5d 92 00 94  	bl	0x49600 <_ZNK19ChiFeature2RealTime23IsManualCaptureRequiredEP24ChiFeature2RequestObject@plt>
   24c94: e0 02 00 34  	cbz	w0, 0x24cf0 <_ZNK19ChiFeature2RealTime23OnExecuteProcessRequestEP24ChiFeature2RequestObject+0xf98>
   24ca0: 21 42 00 54  	b.ne	0x254e4 <_ZNK19ChiFeature2RealTime23OnExecuteProcessRequestEP24ChiFeature2RequestObject+0x178c>
   24cac: 55 92 00 94  	bl	0x49600 <_ZNK19ChiFeature2RealTime23IsManualCaptureRequiredEP24ChiFeature2RequestObject@plt>
   24cb4: e1 b2 ff 54  	b.ne	0x24310 <_ZNK19ChiFeature2RealTime23OnExecuteProcessRequestEP24ChiFeature2RequestObject+0x5b8>
   24ce0: b0 91 00 94  	bl	0x493a0 <_ZNK24ChiFeature2RequestObject19GetSequencePrivDataE24ChiFeature2SequenceOrderh@plt>
   24ce4: c0 03 00 b4  	cbz	x0, 0x24d5c <_ZNK19ChiFeature2RealTime23OnExecuteProcessRequestEP24ChiFeature2RequestObject+0x1004>
   24cec: 1d 00 00 14  	b	0x24d60 <_ZNK19ChiFeature2RealTime23OnExecuteProcessRequestEP24ChiFeature2RequestObject+0x1008>
   24cfc: 41 42 00 54  	b.ne	0x25544 <_ZNK19ChiFeature2RealTime23OnExecuteProcessRequestEP24ChiFeature2RequestObject+0x17ec>
   24d04: 01 43 00 54  	b.ne	0x25564 <_ZNK19ChiFeature2RealTime23OnExecuteProcessRequestEP24ChiFeature2RequestObject+0x180c>
   24d0c: 5c 01 00 d0  	adrp	x28, 0x4e000 <_ZNK19ChiFeature2RealTime23OnExecuteProcessRequestEP24ChiFeature2RequestObject+0x105c>
   24d10: 5a 01 00 d0  	adrp	x26, 0x4e000 <_ZNK19ChiFeature2RealTime23OnExecuteProcessRequestEP24ChiFeature2RequestObject+0x1060>
   24d1c: 28 51 00 b4  	cbz	x8, 0x25740 <_ZNK19ChiFeature2RealTime23OnExecuteProcessRequestEP24ChiFeature2RequestObject+0x19e8>
   24d2c: 81 47 00 54  	b.ne	0x2561c <_ZNK19ChiFeature2RealTime23OnExecuteProcessRequestEP24ChiFeature2RequestObject+0x18c4>
   24d34: 4a 48 30 37  	tbnz	w10, #6, 0x2563c <_ZNK19ChiFeature2RealTime23OnExecuteProcessRequestEP24ChiFeature2RequestObject+0x18e4>
   24d48: e1 54 00 54  	b.ne	0x257e4 <_ZNK19ChiFeature2RealTime23OnExecuteProcessRequestEP24ChiFeature2RequestObject+0x1a8c>
   24d54: 6a 47 28 37  	tbnz	w10, #5, 0x25640 <_ZNK19ChiFeature2RealTime23OnExecuteProcessRequestEP24ChiFeature2RequestObject+0x18e8>
   24d58: 7a 02 00 14  	b	0x25740 <_ZNK19ChiFeature2RealTime23OnExecuteProcessRequestEP24ChiFeature2RequestObject+0x19e8>
   24d78: a1 43 00 54  	b.ne	0x255ec <_ZNK19ChiFeature2RealTime23OnExecuteProcessRequestEP24ChiFeature2RequestObject+0x1894>
   24d84: 2b 92 00 94  	bl	0x49630 <_ZNK15ChiFeature2Base21ProcessFeatureMessageEP28ChiFeature2MessageDescriptor@plt>
   24d88: 62 fd ff 17  	b	0x24310 <_ZNK19ChiFeature2RealTime23OnExecuteProcessRequestEP24ChiFeature2RequestObject+0x5b8>
   24d90: 8d fe ff 17  	b	0x247c4 <_ZNK19ChiFeature2RealTime23OnExecuteProcessRequestEP24ChiFeature2RequestObject+0xa6c>
   24d98: 01 01 00 54  	b.ne	0x24db8 <_ZNK19ChiFeature2RealTime23OnExecuteProcessRequestEP24ChiFeature2RequestObject+0x1060>
   24d9c: e0 00 00 b4  	cbz	x0, 0x24db8 <_ZNK19ChiFeature2RealTime23OnExecuteProcessRequestEP24ChiFeature2RequestObject+0x1060>
   24dac: 61 00 00 54  	b.ne	0x24db8 <_ZNK19ChiFeature2RealTime23OnExecuteProcessRequestEP24ChiFeature2RequestObject+0x1060>
   24db4: 86 fe ff 17  	b	0x247cc <_ZNK19ChiFeature2RealTime23OnExecuteProcessRequestEP24ChiFeature2RequestObject+0xa74>
   24dbc: 84 fe ff 17  	b	0x247cc <_ZNK19ChiFeature2RealTime23OnExecuteProcessRequestEP24ChiFeature2RequestObject+0xa74>
   24dd8: 5c fc ff 17  	b	0x23f48 <_ZNK19ChiFeature2RealTime23OnExecuteProcessRequestEP24ChiFeature2RequestObject+0x1f0>
   24df0: 7a 8b ff b5  	cbnz	x26, 0x23f5c <_ZNK19ChiFeature2RealTime23OnExecuteProcessRequestEP24ChiFeature2RequestObject+0x204>
   24df4: 5c fc ff 17  	b	0x23f64 <_ZNK19ChiFeature2RealTime23OnExecuteProcessRequestEP24ChiFeature2RequestObject+0x20c>
   24e0c: 5b fc ff 17  	b	0x23f78 <_ZNK19ChiFeature2RealTime23OnExecuteProcessRequestEP24ChiFeature2RequestObject+0x220>
   24e2c: a0 86 ff 54  	b.eq	0x23f00 <_ZNK19ChiFeature2RealTime23OnExecuteProcessRequestEP24ChiFeature2RequestObject+0x1a8>
   24e48: 0e 86 ff b5  	cbnz	x14, 0x23f08 <_ZNK19ChiFeature2RealTime23OnExecuteProcessRequestEP24ChiFeature2RequestObject+0x1b0>
   24e4c: 3a fc ff 17  	b	0x23f34 <_ZNK19ChiFeature2RealTime23OnExecuteProcessRequestEP24ChiFeature2RequestObject+0x1dc>
   24e64: 50 fc ff 17  	b	0x23fa4 <_ZNK19ChiFeature2RealTime23OnExecuteProcessRequestEP24ChiFeature2RequestObject+0x24c>
   24e84: 8f 85 07 36  	tbz	w15, #0, 0x23f34 <_ZNK19ChiFeature2RealTime23OnExecuteProcessRequestEP24ChiFeature2RequestObject+0x1dc>
   24e88: 26 fc ff 17  	b	0x23f20 <_ZNK19ChiFeature2RealTime23OnExecuteProcessRequestEP24ChiFeature2RequestObject+0x1c8>
   24ea8: 6f 84 0f 36  	tbz	w15, #1, 0x23f34 <_ZNK19ChiFeature2RealTime23OnExecuteProcessRequestEP24ChiFeature2RequestObject+0x1dc>
   24eac: 42 01 00 90  	adrp	x2, 0x4c000 <_ZNK19ChiFeature2RealTime23OnExecuteProcessRequestEP24ChiFeature2RequestObject+0x11f4>
   24eb8: 7a 00 28 37  	tbnz	w26, #5, 0x24ec4 <_ZNK19ChiFeature2RealTime23OnExecuteProcessRequestEP24ChiFeature2RequestObject+0x116c>
   24ec0: 1e fc ff 17  	b	0x23f38 <_ZNK19ChiFeature2RealTime23OnExecuteProcessRequestEP24ChiFeature2RequestObject+0x1e0>
   24ec4: 43 01 00 90  	adrp	x3, 0x4c000 <_ZNK19ChiFeature2RealTime23OnExecuteProcessRequestEP24ChiFeature2RequestObject+0x120c>
   24ec8: 56 ff ff f0  	adrp	x22, 0xf000 <_ZNK19ChiFeature2RealTime23OnExecuteProcessRequestEP24ChiFeature2RequestObject+0x111c>
   24edc: 21 02 00 54  	b.ne	0x24f20 <_ZNK19ChiFeature2RealTime23OnExecuteProcessRequestEP24ChiFeature2RequestObject+0x11c8>
   24ef4: 81 ff ff 90  	adrp	x1, 0x14000 <_ZNK19ChiFeature2RealTime23OnExecuteProcessRequestEP24ChiFeature2RequestObject+0x115c>
   24ef8: 42 ff ff d0  	adrp	x2, 0xe000 <_ZNK19ChiFeature2RealTime23OnExecuteProcessRequestEP24ChiFeature2RequestObject+0x1148>
   24efc: 65 ff ff f0  	adrp	x5, 0x13000 <_ZNK19ChiFeature2RealTime23OnExecuteProcessRequestEP24ChiFeature2RequestObject+0x1160>
   24f34: 61 ff ff b0  	adrp	x1, 0x11000 <_ZNK19ChiFeature2RealTime23OnExecuteProcessRequestEP24ChiFeature2RequestObject+0x1190>
   24f3c: 60 ff ff f0  	adrp	x0, 0x13000 <_ZNK19ChiFeature2RealTime23OnExecuteProcessRequestEP24ChiFeature2RequestObject+0x11a0>
   24f40: 63 ff ff f0  	adrp	x3, 0x13000 <_ZNK19ChiFeature2RealTime23OnExecuteProcessRequestEP24ChiFeature2RequestObject+0x11a4>
   24f44: 65 ff ff d0  	adrp	x5, 0x12000 <_ZNK19ChiFeature2RealTime23OnExecuteProcessRequestEP24ChiFeature2RequestObject+0x11a4>
   24f64: ff 90 00 94  	bl	0x49360 <_ZN6ChiLog9LogSystemEPKcS1_S1_S1_iS1_z@plt>
   24f68: f4 fb ff 17  	b	0x23f38 <_ZNK19ChiFeature2RealTime23OnExecuteProcessRequestEP24ChiFeature2RequestObject+0x1e0>
   24f80: 5f fc ff 17  	b	0x240fc <_ZNK19ChiFeature2RealTime23OnExecuteProcessRequestEP24ChiFeature2RequestObject+0x3a4>
   24f98: 60 fc ff 17  	b	0x24118 <_ZNK19ChiFeature2RealTime23OnExecuteProcessRequestEP24ChiFeature2RequestObject+0x3c0>
   24fc0: 80 95 ff 54  	b.eq	0x24270 <_ZNK19ChiFeature2RealTime23OnExecuteProcessRequestEP24ChiFeature2RequestObject+0x518>
   24fe4: ad 94 ff b5  	cbnz	x13, 0x24278 <_ZNK19ChiFeature2RealTime23OnExecuteProcessRequestEP24ChiFeature2RequestObject+0x520>
   24fe8: af fc ff 17  	b	0x242a4 <_ZNK19ChiFeature2RealTime23OnExecuteProcessRequestEP24ChiFeature2RequestObject+0x54c>
   25004: b1 fc ff 17  	b	0x242c8 <_ZNK19ChiFeature2RealTime23OnExecuteProcessRequestEP24ChiFeature2RequestObject+0x570>
   2501c: ae fc ff 17  	b	0x242d4 <_ZNK19ChiFeature2RealTime23OnExecuteProcessRequestEP24ChiFeature2RequestObject+0x57c>
   25034: bb fc ff 17  	b	0x24320 <_ZNK19ChiFeature2RealTime23OnExecuteProcessRequestEP24ChiFeature2RequestObject+0x5c8>
   2504c: 3c fc ff 17  	b	0x2413c <_ZNK19ChiFeature2RealTime23OnExecuteProcessRequestEP24ChiFeature2RequestObject+0x3e4>
   25064: 3f fc ff 17  	b	0x24160 <_ZNK19ChiFeature2RealTime23OnExecuteProcessRequestEP24ChiFeature2RequestObject+0x408>
   2507c: 40 fc ff 17  	b	0x2417c <_ZNK19ChiFeature2RealTime23OnExecuteProcessRequestEP24ChiFeature2RequestObject+0x424>
   25098: 43 fc ff 17  	b	0x241a4 <_ZNK19ChiFeature2RealTime23OnExecuteProcessRequestEP24ChiFeature2RequestObject+0x44c>
   250b4: 29 88 ff b5  	cbnz	x9, 0x241b8 <_ZNK19ChiFeature2RealTime23OnExecuteProcessRequestEP24ChiFeature2RequestObject+0x460>
   250b8: 78 fe ff 17  	b	0x24a98 <_ZNK19ChiFeature2RealTime23OnExecuteProcessRequestEP24ChiFeature2RequestObject+0xd40>
   250e8: 4e 8d 07 37  	tbnz	w14, #0, 0x24290 <_ZNK19ChiFeature2RealTime23OnExecuteProcessRequestEP24ChiFeature2RequestObject+0x538>
   250ec: 6e fc ff 17  	b	0x242a4 <_ZNK19ChiFeature2RealTime23OnExecuteProcessRequestEP24ChiFeature2RequestObject+0x54c>
   2510c: 6c 8f 07 37  	tbnz	w12, #0, 0x242f8 <_ZNK19ChiFeature2RealTime23OnExecuteProcessRequestEP24ChiFeature2RequestObject+0x5a0>
   25110: 7f fc ff 17  	b	0x2430c <_ZNK19ChiFeature2RealTime23OnExecuteProcessRequestEP24ChiFeature2RequestObject+0x5b4>
   25128: 61 fe ff 17  	b	0x24aac <_ZNK19ChiFeature2RealTime23OnExecuteProcessRequestEP24ChiFeature2RequestObject+0xd54>
   25148: 48 84 37 36  	tbz	w8, #6, 0x241d0 <_ZNK19ChiFeature2RealTime23OnExecuteProcessRequestEP24ChiFeature2RequestObject+0x478>
   2514c: 26 fc ff 17  	b	0x241e4 <_ZNK19ChiFeature2RealTime23OnExecuteProcessRequestEP24ChiFeature2RequestObject+0x48c>
   25164: 01 fd ff 17  	b	0x24568 <_ZNK19ChiFeature2RealTime23OnExecuteProcessRequestEP24ChiFeature2RequestObject+0x810>
   25180: 04 fd ff 17  	b	0x24590 <_ZNK19ChiFeature2RealTime23OnExecuteProcessRequestEP24ChiFeature2RequestObject+0x838>
   2519c: 6a a0 ff b5  	cbnz	x10, 0x245a8 <_ZNK19ChiFeature2RealTime23OnExecuteProcessRequestEP24ChiFeature2RequestObject+0x850>
   251a0: a6 fe ff 17  	b	0x24c38 <_ZNK19ChiFeature2RealTime23OnExecuteProcessRequestEP24ChiFeature2RequestObject+0xee0>
   251b8: 22 fd ff 17  	b	0x24640 <_ZNK19ChiFeature2RealTime23OnExecuteProcessRequestEP24ChiFeature2RequestObject+0x8e8>
   251d0: 51 fd ff 17  	b	0x24714 <_ZNK19ChiFeature2RealTime23OnExecuteProcessRequestEP24ChiFeature2RequestObject+0x9bc>
   251e8: 98 fe ff 17  	b	0x24c48 <_ZNK19ChiFeature2RealTime23OnExecuteProcessRequestEP24ChiFeature2RequestObject+0xef0>
   25218: 6e 84 0f 36  	tbz	w14, #1, 0x242a4 <_ZNK19ChiFeature2RealTime23OnExecuteProcessRequestEP24ChiFeature2RequestObject+0x54c>
   25228: e1 0d 00 54  	b.ne	0x253e4 <_ZNK19ChiFeature2RealTime23OnExecuteProcessRequestEP24ChiFeature2RequestObject+0x168c>
   25234: 0f 00 00 14  	b	0x25270 <_ZNK19ChiFeature2RealTime23OnExecuteProcessRequestEP24ChiFeature2RequestObject+0x1518>
   25254: cc 85 0f 36  	tbz	w12, #1, 0x2430c <_ZNK19ChiFeature2RealTime23OnExecuteProcessRequestEP24ChiFeature2RequestObject+0x5b4>
   25264: c1 0c 00 54  	b.ne	0x253fc <_ZNK19ChiFeature2RealTime23OnExecuteProcessRequestEP24ChiFeature2RequestObject+0x16a4>
   25274: f3 90 00 94  	bl	0x49640 <_ZNK19ChiFeature2RealTime25ProcessSWRemosaicSnapshotEhP24ChiFeature2RequestObject@plt>
   2527c: 4a fe ff 17  	b	0x24ba4 <_ZNK19ChiFeature2RealTime23OnExecuteProcessRequestEP24ChiFeature2RequestObject+0xe4c>
   25294: 17 fe ff 17  	b	0x24af0 <_ZNK19ChiFeature2RealTime23OnExecuteProcessRequestEP24ChiFeature2RequestObject+0xd98>
   252b4: 42 7a 07 36  	tbz	w2, #0, 0x241fc <_ZNK19ChiFeature2RealTime23OnExecuteProcessRequestEP24ChiFeature2RequestObject+0x4a4>
   252b8: f8 fd ff 17  	b	0x24a98 <_ZNK19ChiFeature2RealTime23OnExecuteProcessRequestEP24ChiFeature2RequestObject+0xd40>
   252d8: 49 97 37 36  	tbz	w9, #6, 0x245c0 <_ZNK19ChiFeature2RealTime23OnExecuteProcessRequestEP24ChiFeature2RequestObject+0x868>
   252dc: be fc ff 17  	b	0x245d4 <_ZNK19ChiFeature2RealTime23OnExecuteProcessRequestEP24ChiFeature2RequestObject+0x87c>
   252f4: 12 fd ff 17  	b	0x2473c <_ZNK19ChiFeature2RealTime23OnExecuteProcessRequestEP24ChiFeature2RequestObject+0x9e4>
   2530c: 37 fd ff 17  	b	0x247e8 <_ZNK19ChiFeature2RealTime23OnExecuteProcessRequestEP24ChiFeature2RequestObject+0xa90>
   25324: 59 fd ff 17  	b	0x24888 <_ZNK19ChiFeature2RealTime23OnExecuteProcessRequestEP24ChiFeature2RequestObject+0xb30>
   25344: 08 75 2f 37  	tbnz	w8, #5, 0x241e4 <_ZNK19ChiFeature2RealTime23OnExecuteProcessRequestEP24ChiFeature2RequestObject+0x48c>
   25348: d4 fd ff 17  	b	0x24a98 <_ZNK19ChiFeature2RealTime23OnExecuteProcessRequestEP24ChiFeature2RequestObject+0xd40>
   25360: 5e fd ff 17  	b	0x248d8 <_ZNK19ChiFeature2RealTime23OnExecuteProcessRequestEP24ChiFeature2RequestObject+0xb80>
   25380: 20 98 ff 54  	b.eq	0x24684 <_ZNK19ChiFeature2RealTime23OnExecuteProcessRequestEP24ChiFeature2RequestObject+0x92c>
   25398: bb fc ff 17  	b	0x24684 <_ZNK19ChiFeature2RealTime23OnExecuteProcessRequestEP24ChiFeature2RequestObject+0x92c>
   253b0: 26 fd ff 17  	b	0x24848 <_ZNK19ChiFeature2RealTime23OnExecuteProcessRequestEP24ChiFeature2RequestObject+0xaf0>
   253c8: 26 fd ff 17  	b	0x24860 <_ZNK19ChiFeature2RealTime23OnExecuteProcessRequestEP24ChiFeature2RequestObject+0xb08>
   253e0: 29 fe ff 17  	b	0x24c84 <_ZNK19ChiFeature2RealTime23OnExecuteProcessRequestEP24ChiFeature2RequestObject+0xf2c>
   253f8: 8d ff ff 17  	b	0x2522c <_ZNK19ChiFeature2RealTime23OnExecuteProcessRequestEP24ChiFeature2RequestObject+0x14d4>
   25410: 96 ff ff 17  	b	0x25268 <_ZNK19ChiFeature2RealTime23OnExecuteProcessRequestEP24ChiFeature2RequestObject+0x1510>
   25430: e1 8d 07 36  	tbz	w1, #0, 0x245ec <_ZNK19ChiFeature2RealTime23OnExecuteProcessRequestEP24ChiFeature2RequestObject+0x894>
   25434: 01 fe ff 17  	b	0x24c38 <_ZNK19ChiFeature2RealTime23OnExecuteProcessRequestEP24ChiFeature2RequestObject+0xee0>
   2544c: 70 fb ff 17  	b	0x2420c <_ZNK19ChiFeature2RealTime23OnExecuteProcessRequestEP24ChiFeature2RequestObject+0x4b4>
   25464: ab fd ff 17  	b	0x24b10 <_ZNK19ChiFeature2RealTime23OnExecuteProcessRequestEP24ChiFeature2RequestObject+0xdb8>
   25484: 89 8a 2f 37  	tbnz	w9, #5, 0x245d4 <_ZNK19ChiFeature2RealTime23OnExecuteProcessRequestEP24ChiFeature2RequestObject+0x87c>
   25488: ec fd ff 17  	b	0x24c38 <_ZNK19ChiFeature2RealTime23OnExecuteProcessRequestEP24ChiFeature2RequestObject+0xee0>
   254a8: 0d 90 1f 37  	tbnz	w13, #3, 0x246a8 <_ZNK19ChiFeature2RealTime23OnExecuteProcessRequestEP24ChiFeature2RequestObject+0x950>
   254ac: 8a fc ff 17  	b	0x246d4 <_ZNK19ChiFeature2RealTime23OnExecuteProcessRequestEP24ChiFeature2RequestObject+0x97c>
   254c8: b0 fc ff 17  	b	0x24788 <_ZNK19ChiFeature2RealTime23OnExecuteProcessRequestEP24ChiFeature2RequestObject+0xa30>
   254e0: ae fc ff 17  	b	0x24798 <_ZNK19ChiFeature2RealTime23OnExecuteProcessRequestEP24ChiFeature2RequestObject+0xa40>
   254f8: eb fd ff 17  	b	0x24ca4 <_ZNK19ChiFeature2RealTime23OnExecuteProcessRequestEP24ChiFeature2RequestObject+0xf4c>
   25510: 3b fc ff 17  	b	0x245fc <_ZNK19ChiFeature2RealTime23OnExecuteProcessRequestEP24ChiFeature2RequestObject+0x8a4>
   25528: bc fc ff 17  	b	0x24818 <_ZNK19ChiFeature2RealTime23OnExecuteProcessRequestEP24ChiFeature2RequestObject+0xac0>
   25540: 93 fd ff 17  	b	0x24b8c <_ZNK19ChiFeature2RealTime23OnExecuteProcessRequestEP24ChiFeature2RequestObject+0xe34>
   25560: 40 bd ff 54  	b.eq	0x24d08 <_ZNK19ChiFeature2RealTime23OnExecuteProcessRequestEP24ChiFeature2RequestObject+0xfb0>
   25578: e4 fd ff 17  	b	0x24d08 <_ZNK19ChiFeature2RealTime23OnExecuteProcessRequestEP24ChiFeature2RequestObject+0xfb0>
   25594: 73 fd ff 17  	b	0x24b60 <_ZNK19ChiFeature2RealTime23OnExecuteProcessRequestEP24ChiFeature2RequestObject+0xe08>
   255ac: 6c fd ff 17  	b	0x24b5c <_ZNK19ChiFeature2RealTime23OnExecuteProcessRequestEP24ChiFeature2RequestObject+0xe04>
   255c4: 2b fd ff 17  	b	0x24a70 <_ZNK19ChiFeature2RealTime23OnExecuteProcessRequestEP24ChiFeature2RequestObject+0xd18>
   255e4: cd 86 07 36  	tbz	w13, #0, 0x246bc <_ZNK19ChiFeature2RealTime23OnExecuteProcessRequestEP24ChiFeature2RequestObject+0x964>
   255e8: 3b fc ff 17  	b	0x246d4 <_ZNK19ChiFeature2RealTime23OnExecuteProcessRequestEP24ChiFeature2RequestObject+0x97c>
   25600: df fd ff 17  	b	0x24d7c <_ZNK19ChiFeature2RealTime23OnExecuteProcessRequestEP24ChiFeature2RequestObject+0x1024>
   25618: bf fc ff 17  	b	0x24914 <_ZNK19ChiFeature2RealTime23OnExecuteProcessRequestEP24ChiFeature2RequestObject+0xbbc>
   25638: 0a b8 37 36  	tbz	w10, #6, 0x24d38 <_ZNK19ChiFeature2RealTime23OnExecuteProcessRequestEP24ChiFeature2RequestObject+0xfe0>
   2564c: a1 06 00 54  	b.ne	0x25720 <_ZNK19ChiFeature2RealTime23OnExecuteProcessRequestEP24ChiFeature2RequestObject+0x19c8>
   25654: 64 07 00 37  	tbnz	w4, #0, 0x25740 <_ZNK19ChiFeature2RealTime23OnExecuteProcessRequestEP24ChiFeature2RequestObject+0x19e8>
   25658: 4c 01 00 b0  	adrp	x12, 0x4e000 <_ZNK19ChiFeature2RealTime23OnExecuteProcessRequestEP24ChiFeature2RequestObject+0x19a4>
   2565c: 4d 01 00 b0  	adrp	x13, 0x4e000 <_ZNK19ChiFeature2RealTime23OnExecuteProcessRequestEP24ChiFeature2RequestObject+0x19a8>
   256c8: e1 09 00 54  	b.ne	0x25804 <_ZNK19ChiFeature2RealTime23OnExecuteProcessRequestEP24ChiFeature2RequestObject+0x1aac>
   256dc: 85 8f 00 94  	bl	0x494f0 <_ZNK19ChiFeature2RealTime17ProcessZSLRequestEP24ChiFeature2RequestObjectP21ChiFeature2PortIdListh@plt>
   256ec: 09 fb ff 17  	b	0x24310 <_ZNK19ChiFeature2RealTime23OnExecuteProcessRequestEP24ChiFeature2RequestObject+0x5b8>
   25704: 8d fc ff 17  	b	0x24938 <_ZNK19ChiFeature2RealTime23OnExecuteProcessRequestEP24ChiFeature2RequestObject+0xbe0>
   2571c: 3d fd ff 17  	b	0x24c10 <_ZNK19ChiFeature2RealTime23OnExecuteProcessRequestEP24ChiFeature2RequestObject+0xeb8>
   2573c: e4 f8 07 36  	tbz	w4, #0, 0x25658 <_ZNK19ChiFeature2RealTime23OnExecuteProcessRequestEP24ChiFeature2RequestObject+0x1900>
   25740: 4f 01 00 b0  	adrp	x15, 0x4e000 <_ZNK19ChiFeature2RealTime23OnExecuteProcessRequestEP24ChiFeature2RequestObject+0x1a8c>
   25798: e1 00 00 54  	b.ne	0x257b4 <_ZNK19ChiFeature2RealTime23OnExecuteProcessRequestEP24ChiFeature2RequestObject+0x1a5c>
   257ac: 51 8f 00 94  	bl	0x494f0 <_ZNK19ChiFeature2RealTime17ProcessZSLRequestEP24ChiFeature2RequestObjectP21ChiFeature2PortIdListh@plt>
   257b0: d8 fa ff 17  	b	0x24310 <_ZNK19ChiFeature2RealTime23OnExecuteProcessRequestEP24ChiFeature2RequestObject+0x5b8>
   257c8: f5 ff ff 17  	b	0x2579c <_ZNK19ChiFeature2RealTime23OnExecuteProcessRequestEP24ChiFeature2RequestObject+0x1a44>
   257e0: bb fb ff 17  	b	0x246cc <_ZNK19ChiFeature2RealTime23OnExecuteProcessRequestEP24ChiFeature2RequestObject+0x974>
   25800: 53 fd ff 17  	b	0x24d4c <_ZNK19ChiFeature2RealTime23OnExecuteProcessRequestEP24ChiFeature2RequestObject+0xff4>
   25818: ad ff ff 17  	b	0x256cc <_ZNK19ChiFeature2RealTime23OnExecuteProcessRequestEP24ChiFeature2RequestObject+0x1974>
0000000000025828 <_ZN19ChiFeature2RealTime14OnBufferResultEP24ChiFeature2RequestObjecthP20ChiFeature2StageInfoP21ChiFeature2IdentifierPK15ChiStreamBufferjPv>:
   25868: 7a 8f 00 94  	bl	0x49650 <_ZN15ExtensionModule11GetInstanceEv@plt>
   25870: 3b 01 00 f0  	adrp	x27, 0x4c000 <_ZN19ChiFeature2RealTime14OnBufferResultEP24ChiFeature2RequestObjecthP20ChiFeature2StageInfoP21ChiFeature2IdentifierPK15ChiStreamBufferjPv+0xe4>
   25880: c0 00 00 54  	b.eq	0x25898 <_ZN19ChiFeature2RealTime14OnBufferResultEP24ChiFeature2RequestObjecthP20ChiFeature2StageInfoP21ChiFeature2IdentifierPK15ChiStreamBufferjPv+0x70>
   25884: 73 8f 00 94  	bl	0x49650 <_ZN15ExtensionModule11GetInstanceEv@plt>
   25894: 81 0a 00 54  	b.ne	0x259e4 <_ZN19ChiFeature2RealTime14OnBufferResultEP24ChiFeature2RequestObjecthP20ChiFeature2StageInfoP21ChiFeature2IdentifierPK15ChiStreamBufferjPv+0x1bc>
   25898: 75 0a 00 b4  	cbz	x21, 0x259e4 <_ZN19ChiFeature2RealTime14OnBufferResultEP24ChiFeature2RequestObjecthP20ChiFeature2StageInfoP21ChiFeature2IdentifierPK15ChiStreamBufferjPv+0x1bc>
   2589c: 53 0a 00 b4  	cbz	x19, 0x259e4 <_ZN19ChiFeature2RealTime14OnBufferResultEP24ChiFeature2RequestObjecthP20ChiFeature2StageInfoP21ChiFeature2IdentifierPK15ChiStreamBufferjPv+0x1bc>
   258b0: 08 8f 00 94  	bl	0x494d0 <_ZN24ChiFeature2RequestObject25GetOutputGeneratedForPortE21ChiFeature2Identifierh@plt>
   258b4: 80 09 00 35  	cbnz	w0, 0x259e4 <_ZN19ChiFeature2RealTime14OnBufferResultEP24ChiFeature2RequestObjecthP20ChiFeature2StageInfoP21ChiFeature2IdentifierPK15ChiStreamBufferjPv+0x1bc>
   258b8: 4d 01 00 b0  	adrp	x13, 0x4e000 <_ZN19ChiFeature2RealTime14OnBufferResultEP24ChiFeature2RequestObjecthP20ChiFeature2StageInfoP21ChiFeature2IdentifierPK15ChiStreamBufferjPv+0x134>
   258c8: 61 02 00 54  	b.ne	0x25914 <_ZN19ChiFeature2RealTime14OnBufferResultEP24ChiFeature2RequestObjecthP20ChiFeature2StageInfoP21ChiFeature2IdentifierPK15ChiStreamBufferjPv+0xec>
   258cc: 49 01 00 b0  	adrp	x9, 0x4e000 <_ZN19ChiFeature2RealTime14OnBufferResultEP24ChiFeature2RequestObjecthP20ChiFeature2StageInfoP21ChiFeature2IdentifierPK15ChiStreamBufferjPv+0x148>
   258e0: a1 01 00 54  	b.ne	0x25914 <_ZN19ChiFeature2RealTime14OnBufferResultEP24ChiFeature2RequestObjecthP20ChiFeature2StageInfoP21ChiFeature2IdentifierPK15ChiStreamBufferjPv+0xec>
   258f0: 21 01 00 54  	b.ne	0x25914 <_ZN19ChiFeature2RealTime14OnBufferResultEP24ChiFeature2RequestObjecthP20ChiFeature2StageInfoP21ChiFeature2IdentifierPK15ChiStreamBufferjPv+0xec>
   25900: a1 00 00 54  	b.ne	0x25914 <_ZN19ChiFeature2RealTime14OnBufferResultEP24ChiFeature2RequestObjecthP20ChiFeature2StageInfoP21ChiFeature2IdentifierPK15ChiStreamBufferjPv+0xec>
   25910: a0 05 00 54  	b.eq	0x259c4 <_ZN19ChiFeature2RealTime14OnBufferResultEP24ChiFeature2RequestObjecthP20ChiFeature2StageInfoP21ChiFeature2IdentifierPK15ChiStreamBufferjPv+0x19c>
   25914: 4e 01 00 b0  	adrp	x14, 0x4e000 <_ZN19ChiFeature2RealTime14OnBufferResultEP24ChiFeature2RequestObjecthP20ChiFeature2StageInfoP21ChiFeature2IdentifierPK15ChiStreamBufferjPv+0x190>
   25920: 61 02 00 54  	b.ne	0x2596c <_ZN19ChiFeature2RealTime14OnBufferResultEP24ChiFeature2RequestObjecthP20ChiFeature2StageInfoP21ChiFeature2IdentifierPK15ChiStreamBufferjPv+0x144>
   25924: 4a 01 00 b0  	adrp	x10, 0x4e000 <_ZN19ChiFeature2RealTime14OnBufferResultEP24ChiFeature2RequestObjecthP20ChiFeature2StageInfoP21ChiFeature2IdentifierPK15ChiStreamBufferjPv+0x1a0>
   25938: a1 01 00 54  	b.ne	0x2596c <_ZN19ChiFeature2RealTime14OnBufferResultEP24ChiFeature2RequestObjecthP20ChiFeature2StageInfoP21ChiFeature2IdentifierPK15ChiStreamBufferjPv+0x144>
   25948: 21 01 00 54  	b.ne	0x2596c <_ZN19ChiFeature2RealTime14OnBufferResultEP24ChiFeature2RequestObjecthP20ChiFeature2StageInfoP21ChiFeature2IdentifierPK15ChiStreamBufferjPv+0x144>
   25958: a1 00 00 54  	b.ne	0x2596c <_ZN19ChiFeature2RealTime14OnBufferResultEP24ChiFeature2RequestObjecthP20ChiFeature2StageInfoP21ChiFeature2IdentifierPK15ChiStreamBufferjPv+0x144>
   25968: e0 02 00 54  	b.eq	0x259c4 <_ZN19ChiFeature2RealTime14OnBufferResultEP24ChiFeature2RequestObjecthP20ChiFeature2StageInfoP21ChiFeature2IdentifierPK15ChiStreamBufferjPv+0x19c>
   2596c: 4f 01 00 b0  	adrp	x15, 0x4e000 <_ZN19ChiFeature2RealTime14OnBufferResultEP24ChiFeature2RequestObjecthP20ChiFeature2StageInfoP21ChiFeature2IdentifierPK15ChiStreamBufferjPv+0x1e8>
   25978: 61 03 00 54  	b.ne	0x259e4 <_ZN19ChiFeature2RealTime14OnBufferResultEP24ChiFeature2RequestObjecthP20ChiFeature2StageInfoP21ChiFeature2IdentifierPK15ChiStreamBufferjPv+0x1bc>
   2597c: 48 01 00 b0  	adrp	x8, 0x4e000 <_ZN19ChiFeature2RealTime14OnBufferResultEP24ChiFeature2RequestObjecthP20ChiFeature2StageInfoP21ChiFeature2IdentifierPK15ChiStreamBufferjPv+0x1f8>
   25990: a1 02 00 54  	b.ne	0x259e4 <_ZN19ChiFeature2RealTime14OnBufferResultEP24ChiFeature2RequestObjecthP20ChiFeature2StageInfoP21ChiFeature2IdentifierPK15ChiStreamBufferjPv+0x1bc>
   259a0: 21 02 00 54  	b.ne	0x259e4 <_ZN19ChiFeature2RealTime14OnBufferResultEP24ChiFeature2RequestObjecthP20ChiFeature2StageInfoP21ChiFeature2IdentifierPK15ChiStreamBufferjPv+0x1bc>
   259b0: a1 01 00 54  	b.ne	0x259e4 <_ZN19ChiFeature2RealTime14OnBufferResultEP24ChiFeature2RequestObjecthP20ChiFeature2StageInfoP21ChiFeature2IdentifierPK15ChiStreamBufferjPv+0x1bc>
   259c0: 21 01 00 54  	b.ne	0x259e4 <_ZN19ChiFeature2RealTime14OnBufferResultEP24ChiFeature2RequestObjecthP20ChiFeature2StageInfoP21ChiFeature2IdentifierPK15ChiStreamBufferjPv+0x1bc>
   259d0: e1 13 00 54  	b.ne	0x25c4c <_ZN19ChiFeature2RealTime14OnBufferResultEP24ChiFeature2RequestObjecthP20ChiFeature2StageInfoP21ChiFeature2IdentifierPK15ChiStreamBufferjPv+0x424>
   259e0: 20 8f 00 94  	bl	0x49660 <_ZNK19ChiFeature2RealTime19HandleDebugDataCopyEP24ChiFeature2RequestObjecth@plt>
   259f0: a1 10 00 54  	b.ne	0x25c04 <_ZN19ChiFeature2RealTime14OnBufferResultEP24ChiFeature2RequestObjecthP20ChiFeature2StageInfoP21ChiFeature2IdentifierPK15ChiStreamBufferjPv+0x3dc>
   25a14: 17 8f 00 94  	bl	0x49670 <_ZN15ChiFeature2Base14OnBufferResultEP24ChiFeature2RequestObjecthP20ChiFeature2StageInfoP21ChiFeature2IdentifierPK15ChiStreamBufferjPv@plt>
   25a1c: 35 0e 00 b4  	cbz	x21, 0x25be0 <_ZN19ChiFeature2RealTime14OnBufferResultEP24ChiFeature2RequestObjecthP20ChiFeature2StageInfoP21ChiFeature2IdentifierPK15ChiStreamBufferjPv+0x3b8>
   25a20: 13 0e 00 b4  	cbz	x19, 0x25be0 <_ZN19ChiFeature2RealTime14OnBufferResultEP24ChiFeature2RequestObjecthP20ChiFeature2StageInfoP21ChiFeature2IdentifierPK15ChiStreamBufferjPv+0x3b8>
   25a30: 61 0f 00 54  	b.ne	0x25c1c <_ZN19ChiFeature2RealTime14OnBufferResultEP24ChiFeature2RequestObjecthP20ChiFeature2StageInfoP21ChiFeature2IdentifierPK15ChiStreamBufferjPv+0x3f4>
   25a34: 59 01 00 b0  	adrp	x25, 0x4e000 <_ZN19ChiFeature2RealTime14OnBufferResultEP24ChiFeature2RequestObjecthP20ChiFeature2StageInfoP21ChiFeature2IdentifierPK15ChiStreamBufferjPv+0x2b0>
   25a50: b0 8e 00 94  	bl	0x49510 <_ZNK15ChiFeature2Base26IsPortEnabledInFinalOutputEPK24ChiFeature2RequestObject21ChiFeature2Identifierh@plt>
   25a54: 40 0b 00 34  	cbz	w0, 0x25bbc <_ZN19ChiFeature2RealTime14OnBufferResultEP24ChiFeature2RequestObjecthP20ChiFeature2StageInfoP21ChiFeature2IdentifierPK15ChiStreamBufferjPv+0x394>
   25a58: 41 01 00 b0  	adrp	x1, 0x4e000 <_ZN19ChiFeature2RealTime14OnBufferResultEP24ChiFeature2RequestObjecthP20ChiFeature2StageInfoP21ChiFeature2IdentifierPK15ChiStreamBufferjPv+0x2d4>
   25a68: a1 0a 00 54  	b.ne	0x25bbc <_ZN19ChiFeature2RealTime14OnBufferResultEP24ChiFeature2RequestObjecthP20ChiFeature2StageInfoP21ChiFeature2IdentifierPK15ChiStreamBufferjPv+0x394>
   25a78: 21 0a 00 54  	b.ne	0x25bbc <_ZN19ChiFeature2RealTime14OnBufferResultEP24ChiFeature2RequestObjecthP20ChiFeature2StageInfoP21ChiFeature2IdentifierPK15ChiStreamBufferjPv+0x394>
   25a88: a1 09 00 54  	b.ne	0x25bbc <_ZN19ChiFeature2RealTime14OnBufferResultEP24ChiFeature2RequestObjecthP20ChiFeature2StageInfoP21ChiFeature2IdentifierPK15ChiStreamBufferjPv+0x394>
   25a98: 21 09 00 54  	b.ne	0x25bbc <_ZN19ChiFeature2RealTime14OnBufferResultEP24ChiFeature2RequestObjecthP20ChiFeature2StageInfoP21ChiFeature2IdentifierPK15ChiStreamBufferjPv+0x394>
   25aa8: a1 08 00 54  	b.ne	0x25bbc <_ZN19ChiFeature2RealTime14OnBufferResultEP24ChiFeature2RequestObjecthP20ChiFeature2StageInfoP21ChiFeature2IdentifierPK15ChiStreamBufferjPv+0x394>
   25aac: 23 01 00 f0  	adrp	x3, 0x4c000 <_ZN19ChiFeature2RealTime14OnBufferResultEP24ChiFeature2RequestObjecthP20ChiFeature2StageInfoP21ChiFeature2IdentifierPK15ChiStreamBufferjPv+0x320>
   25ab8: 6b 06 18 36  	tbz	w11, #3, 0x25b84 <_ZN19ChiFeature2RealTime14OnBufferResultEP24ChiFeature2RequestObjecthP20ChiFeature2StageInfoP21ChiFeature2IdentifierPK15ChiStreamBufferjPv+0x35c>
   25abc: 24 01 00 f0  	adrp	x4, 0x4c000 <_ZN19ChiFeature2RealTime14OnBufferResultEP24ChiFeature2RequestObjecthP20ChiFeature2StageInfoP21ChiFeature2IdentifierPK15ChiStreamBufferjPv+0x330>
   25ac0: 5a ff ff d0  	adrp	x26, 0xf000 <_ZN19ChiFeature2RealTime14OnBufferResultEP24ChiFeature2RequestObjecthP20ChiFeature2StageInfoP21ChiFeature2IdentifierPK15ChiStreamBufferjPv+0x240>
   25ad4: c1 02 00 54  	b.ne	0x25b2c <_ZN19ChiFeature2RealTime14OnBufferResultEP24ChiFeature2RequestObjecthP20ChiFeature2StageInfoP21ChiFeature2IdentifierPK15ChiStreamBufferjPv+0x304>
   25af4: 61 ff ff f0  	adrp	x1, 0x14000 <_ZN19ChiFeature2RealTime14OnBufferResultEP24ChiFeature2RequestObjecthP20ChiFeature2StageInfoP21ChiFeature2IdentifierPK15ChiStreamBufferjPv+0x288>
   25afc: 62 ff ff d0  	adrp	x2, 0x13000 <_ZN19ChiFeature2RealTime14OnBufferResultEP24ChiFeature2RequestObjecthP20ChiFeature2StageInfoP21ChiFeature2IdentifierPK15ChiStreamBufferjPv+0x28c>
   25b04: 45 ff ff b0  	adrp	x5, 0xe000 <_ZN19ChiFeature2RealTime14OnBufferResultEP24ChiFeature2RequestObjecthP20ChiFeature2StageInfoP21ChiFeature2IdentifierPK15ChiStreamBufferjPv+0x280>
   25b50: 60 ff ff f0  	adrp	x0, 0x14000 <_ZN19ChiFeature2RealTime14OnBufferResultEP24ChiFeature2RequestObjecthP20ChiFeature2StageInfoP21ChiFeature2IdentifierPK15ChiStreamBufferjPv+0x2e4>
   25b58: 61 ff ff 90  	adrp	x1, 0x11000 <_ZN19ChiFeature2RealTime14OnBufferResultEP24ChiFeature2RequestObjecthP20ChiFeature2StageInfoP21ChiFeature2IdentifierPK15ChiStreamBufferjPv+0x2e0>
   25b5c: 43 ff ff b0  	adrp	x3, 0xe000 <_ZN19ChiFeature2RealTime14OnBufferResultEP24ChiFeature2RequestObjecthP20ChiFeature2StageInfoP21ChiFeature2IdentifierPK15ChiStreamBufferjPv+0x2d8>
   25b60: 45 ff ff f0  	adrp	x5, 0x10000 <_ZN19ChiFeature2RealTime14OnBufferResultEP24ChiFeature2RequestObjecthP20ChiFeature2StageInfoP21ChiFeature2IdentifierPK15ChiStreamBufferjPv+0x2e4>
   25b80: f8 8d 00 94  	bl	0x49360 <_ZN6ChiLog9LogSystemEPKcS1_S1_S1_iS1_z@plt>
   25b90: a1 06 00 54  	b.ne	0x25c64 <_ZN19ChiFeature2RealTime14OnBufferResultEP24ChiFeature2RequestObjecthP20ChiFeature2StageInfoP21ChiFeature2IdentifierPK15ChiStreamBufferjPv+0x43c>
   25b94: 46 01 00 b0  	adrp	x6, 0x4e000 <_ZN19ChiFeature2RealTime14OnBufferResultEP24ChiFeature2RequestObjecthP20ChiFeature2StageInfoP21ChiFeature2IdentifierPK15ChiStreamBufferjPv+0x410>
   25bb8: b2 8e 00 94  	bl	0x49680 <_ZNK19ChiFeature2RealTime17SendResultForPortEP24ChiFeature2RequestObject21ChiFeature2IdentifierS2_h@plt>
   25bc8: 61 03 00 54  	b.ne	0x25c34 <_ZN19ChiFeature2RealTime14OnBufferResultEP24ChiFeature2RequestObjecthP20ChiFeature2StageInfoP21ChiFeature2IdentifierPK15ChiStreamBufferjPv+0x40c>
   25bdc: ad 8e 00 94  	bl	0x49690 <_ZNK19ChiFeature2RealTime15ReleaseResourceEP24ChiFeature2RequestObjectP21ChiFeature2Identifierh@plt>
   25c18: 77 ff ff 17  	b	0x259f4 <_ZN19ChiFeature2RealTime14OnBufferResultEP24ChiFeature2RequestObjecthP20ChiFeature2StageInfoP21ChiFeature2IdentifierPK15ChiStreamBufferjPv+0x1cc>
   25c30: 81 ff ff 17  	b	0x25a34 <_ZN19ChiFeature2RealTime14OnBufferResultEP24ChiFeature2RequestObjecthP20ChiFeature2StageInfoP21ChiFeature2IdentifierPK15ChiStreamBufferjPv+0x20c>
   25c48: e1 ff ff 17  	b	0x25bcc <_ZN19ChiFeature2RealTime14OnBufferResultEP24ChiFeature2RequestObjecthP20ChiFeature2StageInfoP21ChiFeature2IdentifierPK15ChiStreamBufferjPv+0x3a4>
   25c60: 5d ff ff 17  	b	0x259d4 <_ZN19ChiFeature2RealTime14OnBufferResultEP24ChiFeature2RequestObjecthP20ChiFeature2StageInfoP21ChiFeature2IdentifierPK15ChiStreamBufferjPv+0x1ac>
   25c78: c7 ff ff 17  	b	0x25b94 <_ZN19ChiFeature2RealTime14OnBufferResultEP24ChiFeature2RequestObjecthP20ChiFeature2StageInfoP21ChiFeature2IdentifierPK15ChiStreamBufferjPv+0x36c>
0000000000025c80 <_ZNK19ChiFeature2RealTime13OnBufferErrorEP24ChiFeature2RequestObjectP21ChiFeature2IdentifierhP20ChiFeature2StageInfo>:
   25c80: c1 01 00 b4  	cbz	x1, 0x25cb8 <_ZNK19ChiFeature2RealTime13OnBufferErrorEP24ChiFeature2RequestObjectP21ChiFeature2IdentifierhP20ChiFeature2StageInfo+0x38>
   25c84: a2 01 00 b4  	cbz	x2, 0x25cb8 <_ZNK19ChiFeature2RealTime13OnBufferErrorEP24ChiFeature2RequestObjectP21ChiFeature2IdentifierhP20ChiFeature2StageInfo+0x38>
   25c98: 29 01 00 f0  	adrp	x9, 0x4c000 <_ZNK19ChiFeature2RealTime16OnMetadataResultEP24ChiFeature2RequestObjecthP20ChiFeature2StageInfoP21ChiFeature2IdentifierP11ChiMetadatajPv+0x34>
   25ca8: a1 00 00 54  	b.ne	0x25cbc <_ZNK19ChiFeature2RealTime13OnBufferErrorEP24ChiFeature2RequestObjectP21ChiFeature2IdentifierhP20ChiFeature2StageInfo+0x3c>
   25cb4: 77 8e 00 14  	b	0x49690 <_ZNK19ChiFeature2RealTime15ReleaseResourceEP24ChiFeature2RequestObjectP21ChiFeature2Identifierh@plt>
   25cf8: ed ff ff 17  	b	0x25cac <_ZNK19ChiFeature2RealTime13OnBufferErrorEP24ChiFeature2RequestObjectP21ChiFeature2IdentifierhP20ChiFeature2StageInfo+0x2c>
0000000000025d00 <_ZNK19ChiFeature2RealTime16OnMetadataResultEP24ChiFeature2RequestObjecthP20ChiFeature2StageInfoP21ChiFeature2IdentifierP11ChiMetadatajPv>:
   25d3c: 45 8e 00 94  	bl	0x49650 <_ZN15ExtensionModule11GetInstanceEv@plt>
   25d40: 3c 01 00 f0  	adrp	x28, 0x4c000 <_ZNK19ChiFeature2RealTime16OnMetadataResultEP24ChiFeature2RequestObjecthP20ChiFeature2StageInfoP21ChiFeature2IdentifierP11ChiMetadatajPv+0xdc>
   25d4c: b5 00 00 b4  	cbz	x21, 0x25d60 <_ZNK19ChiFeature2RealTime16OnMetadataResultEP24ChiFeature2RequestObjecthP20ChiFeature2StageInfoP21ChiFeature2IdentifierP11ChiMetadatajPv+0x60>
   25d5c: 01 09 00 54  	b.ne	0x25e7c <_ZNK19ChiFeature2RealTime16OnMetadataResultEP24ChiFeature2RequestObjecthP20ChiFeature2StageInfoP21ChiFeature2IdentifierP11ChiMetadatajPv+0x17c>
   25d6c: 4d 8e 00 94  	bl	0x496a0 <_ZNK24ChiFeature2RequestObject15CheckIfSinkPortEP21ChiFeature2Identifierh@plt>
   25d74: 21 01 00 54  	b.ne	0x25d98 <_ZNK19ChiFeature2RealTime16OnMetadataResultEP24ChiFeature2RequestObjecthP20ChiFeature2StageInfoP21ChiFeature2IdentifierP11ChiMetadatajPv+0x98>
   25d84: 41 09 00 54  	b.ne	0x25eac <_ZNK19ChiFeature2RealTime16OnMetadataResultEP24ChiFeature2RequestObjecthP20ChiFeature2StageInfoP21ChiFeature2IdentifierP11ChiMetadatajPv+0x1ac>
   25d94: 47 8e 00 94  	bl	0x496b0 <_ZNK19ChiFeature2RealTime34PopulateSensorModeOnMetadataResultEP24ChiFeature2RequestObjectP11ChiMetadata@plt>
   25da4: 01 02 00 54  	b.ne	0x25de4 <_ZNK19ChiFeature2RealTime16OnMetadataResultEP24ChiFeature2RequestObjecthP20ChiFeature2StageInfoP21ChiFeature2IdentifierP11ChiMetadatajPv+0xe4>
   25db4: 81 08 00 54  	b.ne	0x25ec4 <_ZNK19ChiFeature2RealTime16OnMetadataResultEP24ChiFeature2RequestObjecthP20ChiFeature2StageInfoP21ChiFeature2IdentifierP11ChiMetadatajPv+0x1c4>
   25db8: 4c 01 00 b0  	adrp	x12, 0x4e000 <_ZNK19ChiFeature2RealTime16OnMetadataResultEP24ChiFeature2RequestObjecthP20ChiFeature2StageInfoP21ChiFeature2IdentifierP11ChiMetadatajPv+0x15c>
   25dd4: cf 8d 00 94  	bl	0x49510 <_ZNK15ChiFeature2Base26IsPortEnabledInFinalOutputEPK24ChiFeature2RequestObject21ChiFeature2Identifierh@plt>
   25dd8: a0 00 00 35  	cbnz	w0, 0x25dec <_ZNK19ChiFeature2RealTime16OnMetadataResultEP24ChiFeature2RequestObjecthP20ChiFeature2StageInfoP21ChiFeature2IdentifierP11ChiMetadatajPv+0xec>
   25de8: 81 01 00 54  	b.ne	0x25e18 <_ZNK19ChiFeature2RealTime16OnMetadataResultEP24ChiFeature2RequestObjecthP20ChiFeature2StageInfoP21ChiFeature2IdentifierP11ChiMetadatajPv+0x118>
   25df8: e1 04 00 54  	b.ne	0x25e94 <_ZNK19ChiFeature2RealTime16OnMetadataResultEP24ChiFeature2RequestObjecthP20ChiFeature2StageInfoP21ChiFeature2IdentifierP11ChiMetadatajPv+0x194>
   25e14: 2b 8e 00 94  	bl	0x496c0 <_ZNK15ChiFeature2Base16ProcessDebugDataEP24ChiFeature2RequestObjectPK20ChiFeature2StageInfoPK21ChiFeature2IdentifierP11ChiMetadataj@plt>
   25e24: 01 02 00 54  	b.ne	0x25e64 <_ZNK19ChiFeature2RealTime16OnMetadataResultEP24ChiFeature2RequestObjecthP20ChiFeature2StageInfoP21ChiFeature2IdentifierP11ChiMetadatajPv+0x164>
   25e60: 1c 8e 00 14  	b	0x496d0 <_ZNK15ChiFeature2Base16OnMetadataResultEP24ChiFeature2RequestObjecthP20ChiFeature2StageInfoP21ChiFeature2IdentifierP11ChiMetadatajPv@plt>
   25e78: ec ff ff 17  	b	0x25e28 <_ZNK19ChiFeature2RealTime16OnMetadataResultEP24ChiFeature2RequestObjecthP20ChiFeature2StageInfoP21ChiFeature2IdentifierP11ChiMetadatajPv+0x128>
   25e90: b4 ff ff 17  	b	0x25d60 <_ZNK19ChiFeature2RealTime16OnMetadataResultEP24ChiFeature2RequestObjecthP20ChiFeature2StageInfoP21ChiFeature2IdentifierP11ChiMetadatajPv+0x60>
   25ea8: d5 ff ff 17  	b	0x25dfc <_ZNK19ChiFeature2RealTime16OnMetadataResultEP24ChiFeature2RequestObjecthP20ChiFeature2StageInfoP21ChiFeature2IdentifierP11ChiMetadatajPv+0xfc>
   25ec0: b2 ff ff 17  	b	0x25d88 <_ZNK19ChiFeature2RealTime16OnMetadataResultEP24ChiFeature2RequestObjecthP20ChiFeature2StageInfoP21ChiFeature2IdentifierP11ChiMetadatajPv+0x88>
   25ed8: b8 ff ff 17  	b	0x25db8 <_ZNK19ChiFeature2RealTime16OnMetadataResultEP24ChiFeature2RequestObjecthP20ChiFeature2StageInfoP21ChiFeature2IdentifierP11ChiMetadatajPv+0xb8>
0000000000025ee0 <_ZNK19ChiFeature2RealTime16DoCleanupRequestEP24ChiFeature2RequestObject>:
   25ef0: c1 02 00 b4  	cbz	x1, 0x25f48 <_ZNK19ChiFeature2RealTime16DoCleanupRequestEP24ChiFeature2RequestObject+0x68>
   25efc: 35 01 00 f0  	adrp	x21, 0x4c000 <_ZN19ChiFeature2RealTime7DoFlushEv+0x8>
   25f10: 61 02 00 54  	b.ne	0x25f5c <_ZNK19ChiFeature2RealTime16DoCleanupRequestEP24ChiFeature2RequestObject+0x7c>
   25f1c: 55 8d 00 94  	bl	0x49470 <_ZNK15ChiFeature2Base21GetFeaturePrivContextEP24ChiFeature2RequestObject@plt>
   25f20: 40 01 00 b4  	cbz	x0, 0x25f48 <_ZNK19ChiFeature2RealTime16DoCleanupRequestEP24ChiFeature2RequestObject+0x68>
   25f34: 01 02 00 54  	b.ne	0x25f74 <_ZNK19ChiFeature2RealTime16DoCleanupRequestEP24ChiFeature2RequestObject+0x94>
   25f44: 6f 8d 00 94  	bl	0x49500 <_ZNK15ChiFeature2Base21SetFeaturePrivContextEP24ChiFeature2RequestObjectPv@plt>
   25f70: e9 ff ff 17  	b	0x25f14 <_ZNK19ChiFeature2RealTime16DoCleanupRequestEP24ChiFeature2RequestObject+0x34>
   25f88: ec ff ff 17  	b	0x25f38 <_ZNK19ChiFeature2RealTime16DoCleanupRequestEP24ChiFeature2RequestObject+0x58>
0000000000025f90 <_ZN19ChiFeature2RealTime7DoFlushEv>:
   25fa0: 28 01 00 f0  	adrp	x8, 0x4c000 <_ZN19ChiFeature2RealTime7DoFlushEv+0xac>
   25fb4: a1 06 00 54  	b.ne	0x26088 <_ZN19ChiFeature2RealTime7DoFlushEv+0xf8>
   25fbc: 40 07 00 b4  	cbz	x0, 0x260a4 <_ZN19ChiFeature2RealTime7DoFlushEv+0x114>
   25fc8: 1e 8d 00 94  	bl	0x49440 <_ZN16CHIThreadManager4SyncEmi@plt>
   25fd4: a1 06 00 54  	b.ne	0x260a8 <_ZN19ChiFeature2RealTime7DoFlushEv+0x118>
   25fd8: 2a 01 00 f0  	adrp	x10, 0x4c000 <_ZN19ChiFeature2RealTime7DoFlushEv+0xe4>
   25fe4: e8 04 00 36  	tbz	w8, #0, 0x26080 <_ZN19ChiFeature2RealTime7DoFlushEv+0xf0>
   25fe8: 2b 01 00 f0  	adrp	x11, 0x4c000 <_ZN19ChiFeature2RealTime7DoFlushEv+0xf4>
   25fec: 54 ff ff d0  	adrp	x20, 0xf000 <_ZN19ChiFeature2RealTime7DoFlushEv+0x4>
   26000: 01 02 00 54  	b.ne	0x26040 <_ZN19ChiFeature2RealTime7DoFlushEv+0xb0>
   26018: 61 ff ff d0  	adrp	x1, 0x14000 <_ZN19ChiFeature2RealTime7DoFlushEv+0x40>
   2601c: 22 ff ff f0  	adrp	x2, 0xd000 <_ZN19ChiFeature2RealTime7DoFlushEv+0x28>
   26020: 65 ff ff d0  	adrp	x5, 0x14000 <_ZN19ChiFeature2RealTime7DoFlushEv+0x48>
   26054: 61 ff ff b0  	adrp	x1, 0x13000 <_ZN19ChiFeature2RealTime7DoFlushEv+0x78>
   2605c: 20 ff ff f0  	adrp	x0, 0xd000 <_ZN19ChiFeature2RealTime7DoFlushEv+0x68>
   26060: 63 ff ff d0  	adrp	x3, 0x14000 <_ZN19ChiFeature2RealTime7DoFlushEv+0x88>
   26064: 45 ff ff b0  	adrp	x5, 0xf000 <_ZN19ChiFeature2RealTime7DoFlushEv+0x78>
   2607c: b9 8c 00 94  	bl	0x49360 <_ZN6ChiLog9LogSystemEPKcS1_S1_S1_iS1_z@plt>
   26084: 09 00 00 14  	b	0x260a8 <_ZN19ChiFeature2RealTime7DoFlushEv+0x118>
   260a0: 00 f9 ff b5  	cbnz	x0, 0x25fc0 <_ZN19ChiFeature2RealTime7DoFlushEv+0x30>
   260ac: 8d 8d 00 94  	bl	0x496e0 <_ZN9Semaphore5ResetEv@plt>
00000000000260c0 <_ZN19ChiFeature2RealTime32CalculateMaxFeatureExecutionTimeEv>:
00000000000260c8 <_ZN19ChiFeature2RealTimeD0Ev>:
   260d4: 28 01 00 d0  	adrp	x8, 0x4c000 <_ZN19ChiFeature2RealTime12OnInitializeEP26ChiFeature2CreateInputInfo+0x4c>
   260ec: e0 00 00 b4  	cbz	x0, 0x26108 <_ZN19ChiFeature2RealTimeD0Ev+0x40>
   260f0: 21 01 00 d0  	adrp	x1, 0x4c000 <_ZN19ChiFeature2RealTime12OnInitializeEP26ChiFeature2CreateInputInfo+0x68>
   260f8: 62 ff ff 90  	adrp	x2, 0x12000 <_ZN19ChiFeature2RealTime7DoFlushEv+0x118>
   26104: 7b 8d 00 94  	bl	0x496f0 <_ZN16CHIThreadManager19UnregisterJobFamilyEPFPvS0_EPKcm@plt>
   2610c: 7d 8d 00 94  	bl	0x49700 <_ZN15ChiFeature2BaseD2Ev@plt>
0000000000026120 <_ZN19ChiFeature2RealTime12OnInitializeEP26ChiFeature2CreateInputInfo>:
   26154: a8 00 00 b4  	cbz	x8, 0x26168 <_ZN19ChiFeature2RealTime12OnInitializeEP26ChiFeature2CreateInputInfo+0x48>
   26164: 2e 00 00 14  	b	0x2621c <_ZN19ChiFeature2RealTime12OnInitializeEP26ChiFeature2CreateInputInfo+0xfc>
   26168: 29 01 00 d0  	adrp	x9, 0x4c000 <_ZN19ChiFeature2RealTime12OnInitializeEP26ChiFeature2CreateInputInfo+0xe0>
   26174: 2d 05 00 36  	tbz	w13, #0, 0x26218 <_ZN19ChiFeature2RealTime12OnInitializeEP26ChiFeature2CreateInputInfo+0xf8>
   26178: 2a 01 00 d0  	adrp	x10, 0x4c000 <_ZN19ChiFeature2RealTime12OnInitializeEP26ChiFeature2CreateInputInfo+0xf0>
   26188: 41 02 00 54  	b.ne	0x261d0 <_ZN19ChiFeature2RealTime12OnInitializeEP26ChiFeature2CreateInputInfo+0xb0>
   2618c: 54 ff ff b0  	adrp	x20, 0xf000 <_ZN19ChiFeature2RealTime12OnInitializeEP26ChiFeature2CreateInputInfo+0x10>
   261a8: 61 ff ff d0  	adrp	x1, 0x14000 <_ZN19ChiFeature2RealTime12OnInitializeEP26ChiFeature2CreateInputInfo+0x40>
   261ac: 42 ff ff b0  	adrp	x2, 0xf000 <_ZN19ChiFeature2RealTime12OnInitializeEP26ChiFeature2CreateInputInfo+0x30>
   261b0: 65 ff ff 90  	adrp	x5, 0x12000 <_ZN19ChiFeature2RealTime12OnInitializeEP26ChiFeature2CreateInputInfo+0x40>
   261d0: 54 ff ff b0  	adrp	x20, 0xf000 <_ZN19ChiFeature2RealTime12OnInitializeEP26ChiFeature2CreateInputInfo+0x54>
   261ec: 61 ff ff b0  	adrp	x1, 0x13000 <_ZN19ChiFeature2RealTime12OnInitializeEP26ChiFeature2CreateInputInfo+0x80>
   261f4: 20 ff ff f0  	adrp	x0, 0xd000 <_ZN19ChiFeature2RealTime12OnInitializeEP26ChiFeature2CreateInputInfo+0x70>
   261f8: 63 ff ff 90  	adrp	x3, 0x12000 <_ZN19ChiFeature2RealTime12OnInitializeEP26ChiFeature2CreateInputInfo+0x88>
   261fc: 65 ff ff 90  	adrp	x5, 0x12000 <_ZN19ChiFeature2RealTime12OnInitializeEP26ChiFeature2CreateInputInfo+0x8c>
   26214: 53 8c 00 94  	bl	0x49360 <_ZN6ChiLog9LogSystemEPKcS1_S1_S1_iS1_z@plt>
   26220: 2b 01 00 d0  	adrp	x11, 0x4c000 <_ZN19ChiFeature2RealTime12OnInitializeEP26ChiFeature2CreateInputInfo+0x198>
   26230: c1 07 00 54  	b.ne	0x26328 <_ZN19ChiFeature2RealTime12OnInitializeEP26ChiFeature2CreateInputInfo+0x208>
   26238: 80 06 00 b4  	cbz	x0, 0x26308 <_ZN19ChiFeature2RealTime12OnInitializeEP26ChiFeature2CreateInputInfo+0x1e8>
   2623c: 21 01 00 d0  	adrp	x1, 0x4c000 <_ZN19ChiFeature2RealTime12OnInitializeEP26ChiFeature2CreateInputInfo+0x1b4>
   26244: 62 ff ff 90  	adrp	x2, 0x12000 <_ZN19ChiFeature2RealTime12OnInitializeEP26ChiFeature2CreateInputInfo+0xd4>
   26258: 2e 8d 00 94  	bl	0x49710 <_ZN16CHIThreadManager17RegisterJobFamilyEPFPvS0_EPKcPmi@plt>
   2625c: e0 05 00 34  	cbz	w0, 0x26318 <_ZN19ChiFeature2RealTime12OnInitializeEP26ChiFeature2CreateInputInfo+0x1f8>
   26260: 2d 01 00 d0  	adrp	x13, 0x4c000 <_ZN19ChiFeature2RealTime12OnInitializeEP26ChiFeature2CreateInputInfo+0x1d8>
   2626c: ee 04 18 36  	tbz	w14, #3, 0x26308 <_ZN19ChiFeature2RealTime12OnInitializeEP26ChiFeature2CreateInputInfo+0x1e8>
   26270: 2e 01 00 d0  	adrp	x14, 0x4c000 <_ZN19ChiFeature2RealTime12OnInitializeEP26ChiFeature2CreateInputInfo+0x1e8>
   26274: 53 ff ff b0  	adrp	x19, 0xf000 <_ZN19ChiFeature2RealTime12OnInitializeEP26ChiFeature2CreateInputInfo+0xf8>
   26288: 01 02 00 54  	b.ne	0x262c8 <_ZN19ChiFeature2RealTime12OnInitializeEP26ChiFeature2CreateInputInfo+0x1a8>
   262a0: 61 ff ff d0  	adrp	x1, 0x14000 <_ZN19ChiFeature2RealTime12OnInitializeEP26ChiFeature2CreateInputInfo+0x138>
   262a4: 62 ff ff 90  	adrp	x2, 0x12000 <_ZN19ChiFeature2RealTime12OnInitializeEP26ChiFeature2CreateInputInfo+0x134>
   262a8: 65 ff ff 90  	adrp	x5, 0x12000 <_ZN19ChiFeature2RealTime12OnInitializeEP26ChiFeature2CreateInputInfo+0x138>
   262dc: 41 ff ff f0  	adrp	x1, 0x11000 <_ZN19ChiFeature2RealTime12OnInitializeEP26ChiFeature2CreateInputInfo+0x168>
   262e4: 60 ff ff d0  	adrp	x0, 0x14000 <_ZN19ChiFeature2RealTime12OnInitializeEP26ChiFeature2CreateInputInfo+0x17c>
   262e8: 63 ff ff 90  	adrp	x3, 0x12000 <_ZN19ChiFeature2RealTime12OnInitializeEP26ChiFeature2CreateInputInfo+0x178>
   262ec: 65 ff ff b0  	adrp	x5, 0x13000 <_ZN19ChiFeature2RealTime12OnInitializeEP26ChiFeature2CreateInputInfo+0x180>
   26304: 17 8c 00 94  	bl	0x49360 <_ZN6ChiLog9LogSystemEPKcS1_S1_S1_iS1_z@plt>
   2631c: 28 fa ff b4  	cbz	x8, 0x26260 <_ZN19ChiFeature2RealTime12OnInitializeEP26ChiFeature2CreateInputInfo+0x140>
   26324: fa ff ff 17  	b	0x2630c <_ZN19ChiFeature2RealTime12OnInitializeEP26ChiFeature2CreateInputInfo+0x1ec>
   26340: e0 f7 ff b5  	cbnz	x0, 0x2623c <_ZN19ChiFeature2RealTime12OnInitializeEP26ChiFeature2CreateInputInfo+0x11c>
   26344: f1 ff ff 17  	b	0x26308 <_ZN19ChiFeature2RealTime12OnInitializeEP26ChiFeature2CreateInputInfo+0x1e8>
0000000000026348 <_ZNK19ChiFeature2RealTime22OnConfigureOutputPortsERKNSt3__16vectorI27ChiFeatureBufferOptionsDataNS0_9allocatorIS2_EEEE>:
   26374: 3a 01 00 d0  	adrp	x26, 0x4c000 <_ZNK19ChiFeature2RealTime22OnConfigureOutputPortsERKNSt3__16vectorI27ChiFeatureBufferOptionsDataNS0_9allocatorIS2_EEEE+0xc4>
   26390: 01 68 00 54  	b.ne	0x27090 <_ZNK19ChiFeature2RealTime22OnConfigureOutputPortsERKNSt3__16vectorI27ChiFeatureBufferOptionsDataNS0_9allocatorIS2_EEEE+0xd48>
   2639c: e1 8c 00 94  	bl	0x49720 <_ZNK15ChiFeature2Base22OnConfigureOutputPortsERKNSt3__16vectorI27ChiFeatureBufferOptionsDataNS0_9allocatorIS2_EEEE@plt>
   263ac: 60 1b 00 54  	b.eq	0x26718 <_ZNK19ChiFeature2RealTime22OnConfigureOutputPortsERKNSt3__16vectorI27ChiFeatureBufferOptionsDataNS0_9allocatorIS2_EEEE+0x3d0>
   263bc: 01 6b 00 54  	b.ne	0x2711c <_ZNK19ChiFeature2RealTime22OnConfigureOutputPortsERKNSt3__16vectorI27ChiFeatureBufferOptionsDataNS0_9allocatorIS2_EEEE+0xdd4>
   263c4: c1 6b 00 54  	b.ne	0x2713c <_ZNK19ChiFeature2RealTime22OnConfigureOutputPortsERKNSt3__16vectorI27ChiFeatureBufferOptionsDataNS0_9allocatorIS2_EEEE+0xdf4>
   263d0: 41 6c 00 54  	b.ne	0x27158 <_ZNK19ChiFeature2RealTime22OnConfigureOutputPortsERKNSt3__16vectorI27ChiFeatureBufferOptionsDataNS0_9allocatorIS2_EEEE+0xe10>
   263d4: 54 01 00 90  	adrp	x20, 0x4e000 <_ZNK19ChiFeature2RealTime22OnConfigureOutputPortsERKNSt3__16vectorI27ChiFeatureBufferOptionsDataNS0_9allocatorIS2_EEEE+0x12c>
   263e8: 82 19 00 54  	b.hs	0x26718 <_ZNK19ChiFeature2RealTime22OnConfigureOutputPortsERKNSt3__16vectorI27ChiFeatureBufferOptionsDataNS0_9allocatorIS2_EEEE+0x3d0>
   263f0: 50 19 00 b4  	cbz	x16, 0x26718 <_ZNK19ChiFeature2RealTime22OnConfigureOutputPortsERKNSt3__16vectorI27ChiFeatureBufferOptionsDataNS0_9allocatorIS2_EEEE+0x3d0>
   263f4: 4c 01 00 90  	adrp	x12, 0x4e000 <_ZNK19ChiFeature2RealTime22OnConfigureOutputPortsERKNSt3__16vectorI27ChiFeatureBufferOptionsDataNS0_9allocatorIS2_EEEE+0x14c>
   2640c: 62 18 00 54  	b.hs	0x26718 <_ZNK19ChiFeature2RealTime22OnConfigureOutputPortsERKNSt3__16vectorI27ChiFeatureBufferOptionsDataNS0_9allocatorIS2_EEEE+0x3d0>
   26414: 28 18 00 b4  	cbz	x8, 0x26718 <_ZNK19ChiFeature2RealTime22OnConfigureOutputPortsERKNSt3__16vectorI27ChiFeatureBufferOptionsDataNS0_9allocatorIS2_EEEE+0x3d0>
   26424: a8 01 00 54  	b.hi	0x26458 <_ZNK19ChiFeature2RealTime22OnConfigureOutputPortsERKNSt3__16vectorI27ChiFeatureBufferOptionsDataNS0_9allocatorIS2_EEEE+0x110>
   26450: a8 01 00 54  	b.hi	0x26484 <_ZNK19ChiFeature2RealTime22OnConfigureOutputPortsERKNSt3__16vectorI27ChiFeatureBufferOptionsDataNS0_9allocatorIS2_EEEE+0x13c>
   26454: b1 00 00 14  	b	0x26718 <_ZNK19ChiFeature2RealTime22OnConfigureOutputPortsERKNSt3__16vectorI27ChiFeatureBufferOptionsDataNS0_9allocatorIS2_EEEE+0x3d0>
   26480: c9 14 00 54  	b.ls	0x26718 <_ZNK19ChiFeature2RealTime22OnConfigureOutputPortsERKNSt3__16vectorI27ChiFeatureBufferOptionsDataNS0_9allocatorIS2_EEEE+0x3d0>
   26488: 95 14 00 b4  	cbz	x21, 0x26718 <_ZNK19ChiFeature2RealTime22OnConfigureOutputPortsERKNSt3__16vectorI27ChiFeatureBufferOptionsDataNS0_9allocatorIS2_EEEE+0x3d0>
   2649c: e1 13 00 54  	b.ne	0x26718 <_ZNK19ChiFeature2RealTime22OnConfigureOutputPortsERKNSt3__16vectorI27ChiFeatureBufferOptionsDataNS0_9allocatorIS2_EEEE+0x3d0>
   264ac: e1 69 00 54  	b.ne	0x271e8 <_ZNK19ChiFeature2RealTime22OnConfigureOutputPortsERKNSt3__16vectorI27ChiFeatureBufferOptionsDataNS0_9allocatorIS2_EEEE+0xea0>
   264f0: 1a 00 00 14  	b	0x26558 <_ZNK19ChiFeature2RealTime22OnConfigureOutputPortsERKNSt3__16vectorI27ChiFeatureBufferOptionsDataNS0_9allocatorIS2_EEEE+0x210>
   26540: 66 21 00 94  	bl	0x2ead8 <_ZN19ChiFeature2RealTime22UpdateStreamCropEnableEP11ChiMetadata+0x1f8>
   26554: 40 6f 00 54  	b.eq	0x2733c <_ZNK19ChiFeature2RealTime22OnConfigureOutputPortsERKNSt3__16vectorI27ChiFeatureBufferOptionsDataNS0_9allocatorIS2_EEEE+0xff4>
   2655c: e0 01 00 54  	b.eq	0x26598 <_ZNK19ChiFeature2RealTime22OnConfigureOutputPortsERKNSt3__16vectorI27ChiFeatureBufferOptionsDataNS0_9allocatorIS2_EEEE+0x250>
   26564: 73 8c 00 94  	bl	0x49730 <_ZN15UsecaseSelector11IsRawStreamEPK14camera3_stream@plt>
   26568: e0 fe ff 34  	cbz	w0, 0x26544 <_ZNK19ChiFeature2RealTime22OnConfigureOutputPortsERKNSt3__16vectorI27ChiFeatureBufferOptionsDataNS0_9allocatorIS2_EEEE+0x1fc>
   26574: 8c fe ff 35  	cbnz	w12, 0x26544 <_ZNK19ChiFeature2RealTime22OnConfigureOutputPortsERKNSt3__16vectorI27ChiFeatureBufferOptionsDataNS0_9allocatorIS2_EEEE+0x1fc>
   26584: 88 fb ff 54  	b.hi	0x264f4 <_ZNK19ChiFeature2RealTime22OnConfigureOutputPortsERKNSt3__16vectorI27ChiFeatureBufferOptionsDataNS0_9allocatorIS2_EEEE+0x1ac>
   26590: a9 fd ff 54  	b.ls	0x26544 <_ZNK19ChiFeature2RealTime22OnConfigureOutputPortsERKNSt3__16vectorI27ChiFeatureBufferOptionsDataNS0_9allocatorIS2_EEEE+0x1fc>
   26594: d8 ff ff 17  	b	0x264f4 <_ZNK19ChiFeature2RealTime22OnConfigureOutputPortsERKNSt3__16vectorI27ChiFeatureBufferOptionsDataNS0_9allocatorIS2_EEEE+0x1ac>
   26598: 2e 01 00 d0  	adrp	x14, 0x4c000 <_ZNK19ChiFeature2RealTime22OnConfigureOutputPortsERKNSt3__16vectorI27ChiFeatureBufferOptionsDataNS0_9allocatorIS2_EEEE+0x2e8>
   265a8: 8b 0b 28 36  	tbz	w11, #5, 0x26718 <_ZNK19ChiFeature2RealTime22OnConfigureOutputPortsERKNSt3__16vectorI27ChiFeatureBufferOptionsDataNS0_9allocatorIS2_EEEE+0x3d0>
   265ac: 2f 01 00 d0  	adrp	x15, 0x4c000 <_ZNK19ChiFeature2RealTime22OnConfigureOutputPortsERKNSt3__16vectorI27ChiFeatureBufferOptionsDataNS0_9allocatorIS2_EEEE+0x2fc>
   265b0: 55 ff ff b0  	adrp	x21, 0xf000 <_ZNK19ChiFeature2RealTime22OnConfigureOutputPortsERKNSt3__16vectorI27ChiFeatureBufferOptionsDataNS0_9allocatorIS2_EEEE+0x20c>
   265c4: 61 05 00 54  	b.ne	0x26670 <_ZNK19ChiFeature2RealTime22OnConfigureOutputPortsERKNSt3__16vectorI27ChiFeatureBufferOptionsDataNS0_9allocatorIS2_EEEE+0x328>
   265ec: a1 64 00 54  	b.ne	0x27280 <_ZNK19ChiFeature2RealTime22OnConfigureOutputPortsERKNSt3__16vectorI27ChiFeatureBufferOptionsDataNS0_9allocatorIS2_EEEE+0xf38>
   26628: 61 ff ff d0  	adrp	x1, 0x14000 <_ZNK19ChiFeature2RealTime22OnConfigureOutputPortsERKNSt3__16vectorI27ChiFeatureBufferOptionsDataNS0_9allocatorIS2_EEEE+0x298>
   26638: 45 ff ff d0  	adrp	x5, 0x10000 <_ZNK19ChiFeature2RealTime22OnConfigureOutputPortsERKNSt3__16vectorI27ChiFeatureBufferOptionsDataNS0_9allocatorIS2_EEEE+0x298>
   26640: 42 ff ff f0  	adrp	x2, 0x11000 <_ZNK19ChiFeature2RealTime22OnConfigureOutputPortsERKNSt3__16vectorI27ChiFeatureBufferOptionsDataNS0_9allocatorIS2_EEEE+0x2a4>
   26694: 21 5c 00 54  	b.ne	0x27218 <_ZNK19ChiFeature2RealTime22OnConfigureOutputPortsERKNSt3__16vectorI27ChiFeatureBufferOptionsDataNS0_9allocatorIS2_EEEE+0xed0>
   266a8: 43 ff ff d0  	adrp	x3, 0x10000 <_ZNK19ChiFeature2RealTime22OnConfigureOutputPortsERKNSt3__16vectorI27ChiFeatureBufferOptionsDataNS0_9allocatorIS2_EEEE+0x308>
   266ac: 45 ff ff b0  	adrp	x5, 0xf000 <_ZNK19ChiFeature2RealTime22OnConfigureOutputPortsERKNSt3__16vectorI27ChiFeatureBufferOptionsDataNS0_9allocatorIS2_EEEE+0x308>
   266e0: 60 ff ff b0  	adrp	x0, 0x13000 <_ZNK19ChiFeature2RealTime22OnConfigureOutputPortsERKNSt3__16vectorI27ChiFeatureBufferOptionsDataNS0_9allocatorIS2_EEEE+0x34c>
   266f0: 41 ff ff f0  	adrp	x1, 0x11000 <_ZNK19ChiFeature2RealTime22OnConfigureOutputPortsERKNSt3__16vectorI27ChiFeatureBufferOptionsDataNS0_9allocatorIS2_EEEE+0x354>
   26714: 13 8b 00 94  	bl	0x49360 <_ZN6ChiLog9LogSystemEPKcS1_S1_S1_iS1_z@plt>
   26724: 21 4c 00 54  	b.ne	0x270a8 <_ZNK19ChiFeature2RealTime22OnConfigureOutputPortsERKNSt3__16vectorI27ChiFeatureBufferOptionsDataNS0_9allocatorIS2_EEEE+0xd60>
   2672c: e1 4c 00 54  	b.ne	0x270c8 <_ZNK19ChiFeature2RealTime22OnConfigureOutputPortsERKNSt3__16vectorI27ChiFeatureBufferOptionsDataNS0_9allocatorIS2_EEEE+0xd80>
   26738: 61 4d 00 54  	b.ne	0x270e4 <_ZNK19ChiFeature2RealTime22OnConfigureOutputPortsERKNSt3__16vectorI27ChiFeatureBufferOptionsDataNS0_9allocatorIS2_EEEE+0xd9c>
   2673c: 49 01 00 90  	adrp	x9, 0x4e000 <_ZNK19ChiFeature2RealTime22OnConfigureOutputPortsERKNSt3__16vectorI27ChiFeatureBufferOptionsDataNS0_9allocatorIS2_EEEE+0x494>
   26750: 22 15 00 54  	b.hs	0x269f4 <_ZNK19ChiFeature2RealTime22OnConfigureOutputPortsERKNSt3__16vectorI27ChiFeatureBufferOptionsDataNS0_9allocatorIS2_EEEE+0x6ac>
   26758: f1 14 00 b4  	cbz	x17, 0x269f4 <_ZNK19ChiFeature2RealTime22OnConfigureOutputPortsERKNSt3__16vectorI27ChiFeatureBufferOptionsDataNS0_9allocatorIS2_EEEE+0x6ac>
   2675c: 4d 01 00 90  	adrp	x13, 0x4e000 <_ZNK19ChiFeature2RealTime22OnConfigureOutputPortsERKNSt3__16vectorI27ChiFeatureBufferOptionsDataNS0_9allocatorIS2_EEEE+0x4b4>
   26774: 02 14 00 54  	b.hs	0x269f4 <_ZNK19ChiFeature2RealTime22OnConfigureOutputPortsERKNSt3__16vectorI27ChiFeatureBufferOptionsDataNS0_9allocatorIS2_EEEE+0x6ac>
   2677c: c9 13 00 b4  	cbz	x9, 0x269f4 <_ZNK19ChiFeature2RealTime22OnConfigureOutputPortsERKNSt3__16vectorI27ChiFeatureBufferOptionsDataNS0_9allocatorIS2_EEEE+0x6ac>
   2678c: a8 01 00 54  	b.hi	0x267c0 <_ZNK19ChiFeature2RealTime22OnConfigureOutputPortsERKNSt3__16vectorI27ChiFeatureBufferOptionsDataNS0_9allocatorIS2_EEEE+0x478>
   267b8: a8 01 00 54  	b.hi	0x267ec <_ZNK19ChiFeature2RealTime22OnConfigureOutputPortsERKNSt3__16vectorI27ChiFeatureBufferOptionsDataNS0_9allocatorIS2_EEEE+0x4a4>
   267bc: 8e 00 00 14  	b	0x269f4 <_ZNK19ChiFeature2RealTime22OnConfigureOutputPortsERKNSt3__16vectorI27ChiFeatureBufferOptionsDataNS0_9allocatorIS2_EEEE+0x6ac>
   267e8: 69 10 00 54  	b.ls	0x269f4 <_ZNK19ChiFeature2RealTime22OnConfigureOutputPortsERKNSt3__16vectorI27ChiFeatureBufferOptionsDataNS0_9allocatorIS2_EEEE+0x6ac>
   267f0: 38 10 00 b4  	cbz	x24, 0x269f4 <_ZNK19ChiFeature2RealTime22OnConfigureOutputPortsERKNSt3__16vectorI27ChiFeatureBufferOptionsDataNS0_9allocatorIS2_EEEE+0x6ac>
   26804: 81 0f 00 54  	b.ne	0x269f4 <_ZNK19ChiFeature2RealTime22OnConfigureOutputPortsERKNSt3__16vectorI27ChiFeatureBufferOptionsDataNS0_9allocatorIS2_EEEE+0x6ac>
   26808: 35 01 00 d0  	adrp	x21, 0x4c000 <_ZNK19ChiFeature2RealTime22OnConfigureOutputPortsERKNSt3__16vectorI27ChiFeatureBufferOptionsDataNS0_9allocatorIS2_EEEE+0x558>
   26878: 98 20 00 94  	bl	0x2ead8 <_ZN19ChiFeature2RealTime22UpdateStreamCropEnableEP11ChiMetadata+0x1f8>
   2687c: 2e 01 00 d0  	adrp	x14, 0x4c000 <_ZNK19ChiFeature2RealTime22OnConfigureOutputPortsERKNSt3__16vectorI27ChiFeatureBufferOptionsDataNS0_9allocatorIS2_EEEE+0x5cc>
   26888: 66 0b 28 36  	tbz	w6, #5, 0x269f4 <_ZNK19ChiFeature2RealTime22OnConfigureOutputPortsERKNSt3__16vectorI27ChiFeatureBufferOptionsDataNS0_9allocatorIS2_EEEE+0x6ac>
   2688c: 31 01 00 d0  	adrp	x17, 0x4c000 <_ZNK19ChiFeature2RealTime22OnConfigureOutputPortsERKNSt3__16vectorI27ChiFeatureBufferOptionsDataNS0_9allocatorIS2_EEEE+0x5dc>
   2689c: 61 05 00 54  	b.ne	0x26948 <_ZNK19ChiFeature2RealTime22OnConfigureOutputPortsERKNSt3__16vectorI27ChiFeatureBufferOptionsDataNS0_9allocatorIS2_EEEE+0x600>
   268a0: 56 ff ff b0  	adrp	x22, 0xf000 <_ZNK19ChiFeature2RealTime22OnConfigureOutputPortsERKNSt3__16vectorI27ChiFeatureBufferOptionsDataNS0_9allocatorIS2_EEEE+0x4fc>
   268cc: e1 4c 00 54  	b.ne	0x27268 <_ZNK19ChiFeature2RealTime22OnConfigureOutputPortsERKNSt3__16vectorI27ChiFeatureBufferOptionsDataNS0_9allocatorIS2_EEEE+0xf20>
   268dc: 45 ff ff d0  	adrp	x5, 0x10000 <_ZNK19ChiFeature2RealTime22OnConfigureOutputPortsERKNSt3__16vectorI27ChiFeatureBufferOptionsDataNS0_9allocatorIS2_EEEE+0x53c>
   268fc: 61 ff ff d0  	adrp	x1, 0x14000 <_ZNK19ChiFeature2RealTime22OnConfigureOutputPortsERKNSt3__16vectorI27ChiFeatureBufferOptionsDataNS0_9allocatorIS2_EEEE+0x56c>
   26928: 42 ff ff f0  	adrp	x2, 0x11000 <_ZNK19ChiFeature2RealTime22OnConfigureOutputPortsERKNSt3__16vectorI27ChiFeatureBufferOptionsDataNS0_9allocatorIS2_EEEE+0x58c>
   26948: 56 ff ff b0  	adrp	x22, 0xf000 <_ZNK19ChiFeature2RealTime22OnConfigureOutputPortsERKNSt3__16vectorI27ChiFeatureBufferOptionsDataNS0_9allocatorIS2_EEEE+0x5a4>
   26974: 61 44 00 54  	b.ne	0x27200 <_ZNK19ChiFeature2RealTime22OnConfigureOutputPortsERKNSt3__16vectorI27ChiFeatureBufferOptionsDataNS0_9allocatorIS2_EEEE+0xeb8>
   26984: 41 ff ff f0  	adrp	x1, 0x11000 <_ZNK19ChiFeature2RealTime22OnConfigureOutputPortsERKNSt3__16vectorI27ChiFeatureBufferOptionsDataNS0_9allocatorIS2_EEEE+0x5e8>
   26990: 43 ff ff d0  	adrp	x3, 0x10000 <_ZNK19ChiFeature2RealTime22OnConfigureOutputPortsERKNSt3__16vectorI27ChiFeatureBufferOptionsDataNS0_9allocatorIS2_EEEE+0x5f0>
   269c4: 45 ff ff b0  	adrp	x5, 0xf000 <_ZNK19ChiFeature2RealTime22OnConfigureOutputPortsERKNSt3__16vectorI27ChiFeatureBufferOptionsDataNS0_9allocatorIS2_EEEE+0x620>
   269cc: 60 ff ff b0  	adrp	x0, 0x13000 <_ZNK19ChiFeature2RealTime22OnConfigureOutputPortsERKNSt3__16vectorI27ChiFeatureBufferOptionsDataNS0_9allocatorIS2_EEEE+0x638>
   269f0: 5c 8a 00 94  	bl	0x49360 <_ZN6ChiLog9LogSystemEPKcS1_S1_S1_iS1_z@plt>
   26a00: e1 37 00 54  	b.ne	0x270fc <_ZNK19ChiFeature2RealTime22OnConfigureOutputPortsERKNSt3__16vectorI27ChiFeatureBufferOptionsDataNS0_9allocatorIS2_EEEE+0xdb4>
   26a08: ab 32 00 b4  	cbz	x11, 0x2705c <_ZNK19ChiFeature2RealTime22OnConfigureOutputPortsERKNSt3__16vectorI27ChiFeatureBufferOptionsDataNS0_9allocatorIS2_EEEE+0xd14>
   26a18: c1 3a 00 54  	b.ne	0x27170 <_ZNK19ChiFeature2RealTime22OnConfigureOutputPortsERKNSt3__16vectorI27ChiFeatureBufferOptionsDataNS0_9allocatorIS2_EEEE+0xe28>
   26a20: e7 31 00 36  	tbz	w7, #0, 0x2705c <_ZNK19ChiFeature2RealTime22OnConfigureOutputPortsERKNSt3__16vectorI27ChiFeatureBufferOptionsDataNS0_9allocatorIS2_EEEE+0xd14>
   26a30: 21 3b 00 54  	b.ne	0x27194 <_ZNK19ChiFeature2RealTime22OnConfigureOutputPortsERKNSt3__16vectorI27ChiFeatureBufferOptionsDataNS0_9allocatorIS2_EEEE+0xe4c>
   26a38: e1 3b 00 54  	b.ne	0x271b4 <_ZNK19ChiFeature2RealTime22OnConfigureOutputPortsERKNSt3__16vectorI27ChiFeatureBufferOptionsDataNS0_9allocatorIS2_EEEE+0xe6c>
   26a44: 61 3c 00 54  	b.ne	0x271d0 <_ZNK19ChiFeature2RealTime22OnConfigureOutputPortsERKNSt3__16vectorI27ChiFeatureBufferOptionsDataNS0_9allocatorIS2_EEEE+0xe88>
   26a48: 56 01 00 90  	adrp	x22, 0x4e000 <_ZNK19ChiFeature2RealTime22OnConfigureOutputPortsERKNSt3__16vectorI27ChiFeatureBufferOptionsDataNS0_9allocatorIS2_EEEE+0x7a0>
   26a5c: 02 30 00 54  	b.hs	0x2705c <_ZNK19ChiFeature2RealTime22OnConfigureOutputPortsERKNSt3__16vectorI27ChiFeatureBufferOptionsDataNS0_9allocatorIS2_EEEE+0xd14>
   26a64: c1 2f 00 b4  	cbz	x1, 0x2705c <_ZNK19ChiFeature2RealTime22OnConfigureOutputPortsERKNSt3__16vectorI27ChiFeatureBufferOptionsDataNS0_9allocatorIS2_EEEE+0xd14>
   26a68: 4e 01 00 90  	adrp	x14, 0x4e000 <_ZNK19ChiFeature2RealTime22OnConfigureOutputPortsERKNSt3__16vectorI27ChiFeatureBufferOptionsDataNS0_9allocatorIS2_EEEE+0x7c0>
   26a80: e2 2e 00 54  	b.hs	0x2705c <_ZNK19ChiFeature2RealTime22OnConfigureOutputPortsERKNSt3__16vectorI27ChiFeatureBufferOptionsDataNS0_9allocatorIS2_EEEE+0xd14>
   26a88: aa 2e 00 b4  	cbz	x10, 0x2705c <_ZNK19ChiFeature2RealTime22OnConfigureOutputPortsERKNSt3__16vectorI27ChiFeatureBufferOptionsDataNS0_9allocatorIS2_EEEE+0xd14>
   26a98: a8 01 00 54  	b.hi	0x26acc <_ZNK19ChiFeature2RealTime22OnConfigureOutputPortsERKNSt3__16vectorI27ChiFeatureBufferOptionsDataNS0_9allocatorIS2_EEEE+0x784>
   26ac4: a8 01 00 54  	b.hi	0x26af8 <_ZNK19ChiFeature2RealTime22OnConfigureOutputPortsERKNSt3__16vectorI27ChiFeatureBufferOptionsDataNS0_9allocatorIS2_EEEE+0x7b0>
   26ac8: 65 01 00 14  	b	0x2705c <_ZNK19ChiFeature2RealTime22OnConfigureOutputPortsERKNSt3__16vectorI27ChiFeatureBufferOptionsDataNS0_9allocatorIS2_EEEE+0xd14>
   26af4: 49 2b 00 54  	b.ls	0x2705c <_ZNK19ChiFeature2RealTime22OnConfigureOutputPortsERKNSt3__16vectorI27ChiFeatureBufferOptionsDataNS0_9allocatorIS2_EEEE+0xd14>
   26afc: 14 2b 00 b4  	cbz	x20, 0x2705c <_ZNK19ChiFeature2RealTime22OnConfigureOutputPortsERKNSt3__16vectorI27ChiFeatureBufferOptionsDataNS0_9allocatorIS2_EEEE+0xd14>
   26b10: 61 2a 00 54  	b.ne	0x2705c <_ZNK19ChiFeature2RealTime22OnConfigureOutputPortsERKNSt3__16vectorI27ChiFeatureBufferOptionsDataNS0_9allocatorIS2_EEEE+0xd14>
   26b20: 81 38 00 54  	b.ne	0x27230 <_ZNK19ChiFeature2RealTime22OnConfigureOutputPortsERKNSt3__16vectorI27ChiFeatureBufferOptionsDataNS0_9allocatorIS2_EEEE+0xee8>
   26b28: 41 39 00 54  	b.ne	0x27250 <_ZNK19ChiFeature2RealTime22OnConfigureOutputPortsERKNSt3__16vectorI27ChiFeatureBufferOptionsDataNS0_9allocatorIS2_EEEE+0xf08>
   26b44: c2 28 00 54  	b.hs	0x2705c <_ZNK19ChiFeature2RealTime22OnConfigureOutputPortsERKNSt3__16vectorI27ChiFeatureBufferOptionsDataNS0_9allocatorIS2_EEEE+0xd14>
   26b4c: 8f 28 00 b4  	cbz	x15, 0x2705c <_ZNK19ChiFeature2RealTime22OnConfigureOutputPortsERKNSt3__16vectorI27ChiFeatureBufferOptionsDataNS0_9allocatorIS2_EEEE+0xd14>
   26b6c: 82 27 00 54  	b.hs	0x2705c <_ZNK19ChiFeature2RealTime22OnConfigureOutputPortsERKNSt3__16vectorI27ChiFeatureBufferOptionsDataNS0_9allocatorIS2_EEEE+0xd14>
   26b74: 56 27 00 b4  	cbz	x22, 0x2705c <_ZNK19ChiFeature2RealTime22OnConfigureOutputPortsERKNSt3__16vectorI27ChiFeatureBufferOptionsDataNS0_9allocatorIS2_EEEE+0xd14>
   26b78: b6 8a 00 94  	bl	0x49650 <_ZN15ExtensionModule11GetInstanceEv@plt>
   26ba8: a1 37 00 54  	b.ne	0x2729c <_ZNK19ChiFeature2RealTime22OnConfigureOutputPortsERKNSt3__16vectorI27ChiFeatureBufferOptionsDataNS0_9allocatorIS2_EEEE+0xf54>
   26bb8: 01 38 00 54  	b.ne	0x272b8 <_ZNK19ChiFeature2RealTime22OnConfigureOutputPortsERKNSt3__16vectorI27ChiFeatureBufferOptionsDataNS0_9allocatorIS2_EEEE+0xf70>
   26bc8: c1 06 00 54  	b.ne	0x26ca0 <_ZNK19ChiFeature2RealTime22OnConfigureOutputPortsERKNSt3__16vectorI27ChiFeatureBufferOptionsDataNS0_9allocatorIS2_EEEE+0x958>
   26bcc: 35 01 00 d0  	adrp	x21, 0x4c000 <_ZNK19ChiFeature2RealTime22OnConfigureOutputPortsERKNSt3__16vectorI27ChiFeatureBufferOptionsDataNS0_9allocatorIS2_EEEE+0x91c>
   26bdc: 21 06 28 36  	tbz	w1, #5, 0x26ca0 <_ZNK19ChiFeature2RealTime22OnConfigureOutputPortsERKNSt3__16vectorI27ChiFeatureBufferOptionsDataNS0_9allocatorIS2_EEEE+0x958>
   26be0: 2b 01 00 d0  	adrp	x11, 0x4c000 <_ZNK19ChiFeature2RealTime22OnConfigureOutputPortsERKNSt3__16vectorI27ChiFeatureBufferOptionsDataNS0_9allocatorIS2_EEEE+0x930>
   26be4: 56 ff ff f0  	adrp	x22, 0x11000 <_ZNK19ChiFeature2RealTime22OnConfigureOutputPortsERKNSt3__16vectorI27ChiFeatureBufferOptionsDataNS0_9allocatorIS2_EEEE+0x848>
   26bf8: a1 02 00 54  	b.ne	0x26c4c <_ZNK19ChiFeature2RealTime22OnConfigureOutputPortsERKNSt3__16vectorI27ChiFeatureBufferOptionsDataNS0_9allocatorIS2_EEEE+0x904>
   26c14: 61 ff ff d0  	adrp	x1, 0x14000 <_ZNK19ChiFeature2RealTime22OnConfigureOutputPortsERKNSt3__16vectorI27ChiFeatureBufferOptionsDataNS0_9allocatorIS2_EEEE+0x884>
   26c18: 62 ff ff 90  	adrp	x2, 0x12000 <_ZNK19ChiFeature2RealTime22OnConfigureOutputPortsERKNSt3__16vectorI27ChiFeatureBufferOptionsDataNS0_9allocatorIS2_EEEE+0x880>
   26c1c: 25 ff ff d0  	adrp	x5, 0xc000 <_ZNK19ChiFeature2RealTime22OnConfigureOutputPortsERKNSt3__16vectorI27ChiFeatureBufferOptionsDataNS0_9allocatorIS2_EEEE+0x86c>
   26c68: 60 ff ff b0  	adrp	x0, 0x13000 <_ZNK19ChiFeature2RealTime22OnConfigureOutputPortsERKNSt3__16vectorI27ChiFeatureBufferOptionsDataNS0_9allocatorIS2_EEEE+0x8d4>
   26c6c: 41 ff ff f0  	adrp	x1, 0x11000 <_ZNK19ChiFeature2RealTime22OnConfigureOutputPortsERKNSt3__16vectorI27ChiFeatureBufferOptionsDataNS0_9allocatorIS2_EEEE+0x8d0>
   26c70: 23 ff ff d0  	adrp	x3, 0xc000 <_ZNK19ChiFeature2RealTime22OnConfigureOutputPortsERKNSt3__16vectorI27ChiFeatureBufferOptionsDataNS0_9allocatorIS2_EEEE+0x8c0>
   26c74: 45 ff ff 90  	adrp	x5, 0xe000 <_ZNK19ChiFeature2RealTime22OnConfigureOutputPortsERKNSt3__16vectorI27ChiFeatureBufferOptionsDataNS0_9allocatorIS2_EEEE+0x8cc>
   26c9c: b1 89 00 94  	bl	0x49360 <_ZN6ChiLog9LogSystemEPKcS1_S1_S1_iS1_z@plt>
   26cac: 21 31 00 54  	b.ne	0x272d0 <_ZNK19ChiFeature2RealTime22OnConfigureOutputPortsERKNSt3__16vectorI27ChiFeatureBufferOptionsDataNS0_9allocatorIS2_EEEE+0xf88>
   26cbc: a9 00 00 54  	b.ls	0x26cd0 <_ZNK19ChiFeature2RealTime22OnConfigureOutputPortsERKNSt3__16vectorI27ChiFeatureBufferOptionsDataNS0_9allocatorIS2_EEEE+0x988>
   26ccc: 02 00 00 14  	b	0x26cd4 <_ZNK19ChiFeature2RealTime22OnConfigureOutputPortsERKNSt3__16vectorI27ChiFeatureBufferOptionsDataNS0_9allocatorIS2_EEEE+0x98c>
   26d08: 01 2f 00 54  	b.ne	0x272e8 <_ZNK19ChiFeature2RealTime22OnConfigureOutputPortsERKNSt3__16vectorI27ChiFeatureBufferOptionsDataNS0_9allocatorIS2_EEEE+0xfa0>
   26d14: ca 00 08 37  	tbnz	w10, #1, 0x26d2c <_ZNK19ChiFeature2RealTime22OnConfigureOutputPortsERKNSt3__16vectorI27ChiFeatureBufferOptionsDataNS0_9allocatorIS2_EEEE+0x9e4>
   26d24: e1 2e 00 54  	b.ne	0x27300 <_ZNK19ChiFeature2RealTime22OnConfigureOutputPortsERKNSt3__16vectorI27ChiFeatureBufferOptionsDataNS0_9allocatorIS2_EEEE+0xfb8>
   26d28: 6a 00 10 36  	tbz	w10, #2, 0x26d34 <_ZNK19ChiFeature2RealTime22OnConfigureOutputPortsERKNSt3__16vectorI27ChiFeatureBufferOptionsDataNS0_9allocatorIS2_EEEE+0x9ec>
   26d38: 46 8a 00 94  	bl	0x49650 <_ZN15ExtensionModule11GetInstanceEv@plt>
   26d40: 97 00 00 b4  	cbz	x23, 0x26d50 <_ZNK19ChiFeature2RealTime22OnConfigureOutputPortsERKNSt3__16vectorI27ChiFeatureBufferOptionsDataNS0_9allocatorIS2_EEEE+0xa08>
   26d4c: 81 01 00 54  	b.ne	0x26d7c <_ZNK19ChiFeature2RealTime22OnConfigureOutputPortsERKNSt3__16vectorI27ChiFeatureBufferOptionsDataNS0_9allocatorIS2_EEEE+0xa34>
   26d58: 28 01 00 54  	b.hi	0x26d7c <_ZNK19ChiFeature2RealTime22OnConfigureOutputPortsERKNSt3__16vectorI27ChiFeatureBufferOptionsDataNS0_9allocatorIS2_EEEE+0xa34>
   26d60: e9 00 00 b4  	cbz	x9, 0x26d7c <_ZNK19ChiFeature2RealTime22OnConfigureOutputPortsERKNSt3__16vectorI27ChiFeatureBufferOptionsDataNS0_9allocatorIS2_EEEE+0xa34>
   26d7c: 2b 01 00 d0  	adrp	x11, 0x4c000 <_ZNK19ChiFeature2RealTime22OnConfigureOutputPortsERKNSt3__16vectorI27ChiFeatureBufferOptionsDataNS0_9allocatorIS2_EEEE+0xacc>
   26d94: 4f 06 28 36  	tbz	w15, #5, 0x26e5c <_ZNK19ChiFeature2RealTime22OnConfigureOutputPortsERKNSt3__16vectorI27ChiFeatureBufferOptionsDataNS0_9allocatorIS2_EEEE+0xb14>
   26d98: 27 01 00 d0  	adrp	x7, 0x4c000 <_ZNK19ChiFeature2RealTime22OnConfigureOutputPortsERKNSt3__16vectorI27ChiFeatureBufferOptionsDataNS0_9allocatorIS2_EEEE+0xae8>
   26da0: 36 ff ff f0  	adrp	x22, 0xd000 <_ZNK19ChiFeature2RealTime22OnConfigureOutputPortsERKNSt3__16vectorI27ChiFeatureBufferOptionsDataNS0_9allocatorIS2_EEEE+0x9f4>
   26db4: e1 02 00 54  	b.ne	0x26e10 <_ZNK19ChiFeature2RealTime22OnConfigureOutputPortsERKNSt3__16vectorI27ChiFeatureBufferOptionsDataNS0_9allocatorIS2_EEEE+0xac8>
   26db8: 20 ff ff f0  	adrp	x0, 0xd000 <_ZNK19ChiFeature2RealTime22OnConfigureOutputPortsERKNSt3__16vectorI27ChiFeatureBufferOptionsDataNS0_9allocatorIS2_EEEE+0xa0c>
   26dcc: 22 ff ff f0  	adrp	x2, 0xd000 <_ZNK19ChiFeature2RealTime22OnConfigureOutputPortsERKNSt3__16vectorI27ChiFeatureBufferOptionsDataNS0_9allocatorIS2_EEEE+0xa20>
   26dd8: 61 ff ff d0  	adrp	x1, 0x14000 <_ZNK19ChiFeature2RealTime22OnConfigureOutputPortsERKNSt3__16vectorI27ChiFeatureBufferOptionsDataNS0_9allocatorIS2_EEEE+0xa48>
   26de0: 62 ff ff 90  	adrp	x2, 0x12000 <_ZNK19ChiFeature2RealTime22OnConfigureOutputPortsERKNSt3__16vectorI27ChiFeatureBufferOptionsDataNS0_9allocatorIS2_EEEE+0xa48>
   26de4: 65 ff ff 90  	adrp	x5, 0x12000 <_ZNK19ChiFeature2RealTime22OnConfigureOutputPortsERKNSt3__16vectorI27ChiFeatureBufferOptionsDataNS0_9allocatorIS2_EEEE+0xa4c>
   26e08: 36 ff ff f0  	adrp	x22, 0xd000 <_ZNK19ChiFeature2RealTime22OnConfigureOutputPortsERKNSt3__16vectorI27ChiFeatureBufferOptionsDataNS0_9allocatorIS2_EEEE+0xa5c>
   26e24: 41 ff ff f0  	adrp	x1, 0x11000 <_ZNK19ChiFeature2RealTime22OnConfigureOutputPortsERKNSt3__16vectorI27ChiFeatureBufferOptionsDataNS0_9allocatorIS2_EEEE+0xa88>
   26e2c: 60 ff ff b0  	adrp	x0, 0x13000 <_ZNK19ChiFeature2RealTime22OnConfigureOutputPortsERKNSt3__16vectorI27ChiFeatureBufferOptionsDataNS0_9allocatorIS2_EEEE+0xa98>
   26e30: 63 ff ff 90  	adrp	x3, 0x12000 <_ZNK19ChiFeature2RealTime22OnConfigureOutputPortsERKNSt3__16vectorI27ChiFeatureBufferOptionsDataNS0_9allocatorIS2_EEEE+0xa98>
   26e34: 25 ff ff f0  	adrp	x5, 0xd000 <_ZNK19ChiFeature2RealTime22OnConfigureOutputPortsERKNSt3__16vectorI27ChiFeatureBufferOptionsDataNS0_9allocatorIS2_EEEE+0xa88>
   26e54: 43 89 00 94  	bl	0x49360 <_ZN6ChiLog9LogSystemEPKcS1_S1_S1_iS1_z@plt>
   26e68: 36 8a 00 94  	bl	0x49740 <_ZN19ChxSensorModeSelect18FindBestSensorModeEjPK17DesiredSensorMode@plt>
   26ec4: 05 1f 00 94  	bl	0x2ead8 <_ZN19ChiFeature2RealTime22UpdateStreamCropEnableEP11ChiMetadata+0x1f8>
   26ec8: 36 01 00 d0  	adrp	x22, 0x4c000 <_ZNK19ChiFeature2RealTime22OnConfigureOutputPortsERKNSt3__16vectorI27ChiFeatureBufferOptionsDataNS0_9allocatorIS2_EEEE+0xc18>
   26ed4: 57 0c 28 36  	tbz	w23, #5, 0x2705c <_ZNK19ChiFeature2RealTime22OnConfigureOutputPortsERKNSt3__16vectorI27ChiFeatureBufferOptionsDataNS0_9allocatorIS2_EEEE+0xd14>
   26ed8: 36 01 00 d0  	adrp	x22, 0x4c000 <_ZNK19ChiFeature2RealTime22OnConfigureOutputPortsERKNSt3__16vectorI27ChiFeatureBufferOptionsDataNS0_9allocatorIS2_EEEE+0xc28>
   26ef4: a1 05 00 54  	b.ne	0x26fa8 <_ZNK19ChiFeature2RealTime22OnConfigureOutputPortsERKNSt3__16vectorI27ChiFeatureBufferOptionsDataNS0_9allocatorIS2_EEEE+0xc60>
   26ef8: 56 ff ff b0  	adrp	x22, 0xf000 <_ZNK19ChiFeature2RealTime22OnConfigureOutputPortsERKNSt3__16vectorI27ChiFeatureBufferOptionsDataNS0_9allocatorIS2_EEEE+0xb54>
   26f24: e1 20 00 54  	b.ne	0x27340 <_ZNK19ChiFeature2RealTime22OnConfigureOutputPortsERKNSt3__16vectorI27ChiFeatureBufferOptionsDataNS0_9allocatorIS2_EEEE+0xff8>
   26f4c: 42 ff ff f0  	adrp	x2, 0x11000 <_ZNK19ChiFeature2RealTime22OnConfigureOutputPortsERKNSt3__16vectorI27ChiFeatureBufferOptionsDataNS0_9allocatorIS2_EEEE+0xbb0>
   26f74: 45 ff ff d0  	adrp	x5, 0x10000 <_ZNK19ChiFeature2RealTime22OnConfigureOutputPortsERKNSt3__16vectorI27ChiFeatureBufferOptionsDataNS0_9allocatorIS2_EEEE+0xbd4>
   26f84: 61 ff ff d0  	adrp	x1, 0x14000 <_ZNK19ChiFeature2RealTime22OnConfigureOutputPortsERKNSt3__16vectorI27ChiFeatureBufferOptionsDataNS0_9allocatorIS2_EEEE+0xbf4>
   26fa8: 56 ff ff b0  	adrp	x22, 0xf000 <_ZNK19ChiFeature2RealTime22OnConfigureOutputPortsERKNSt3__16vectorI27ChiFeatureBufferOptionsDataNS0_9allocatorIS2_EEEE+0xc04>
   26fd4: 81 1a 00 54  	b.ne	0x27324 <_ZNK19ChiFeature2RealTime22OnConfigureOutputPortsERKNSt3__16vectorI27ChiFeatureBufferOptionsDataNS0_9allocatorIS2_EEEE+0xfdc>
   26fe4: 60 ff ff b0  	adrp	x0, 0x13000 <_ZNK19ChiFeature2RealTime22OnConfigureOutputPortsERKNSt3__16vectorI27ChiFeatureBufferOptionsDataNS0_9allocatorIS2_EEEE+0xc50>
   26ff4: 43 ff ff d0  	adrp	x3, 0x10000 <_ZNK19ChiFeature2RealTime22OnConfigureOutputPortsERKNSt3__16vectorI27ChiFeatureBufferOptionsDataNS0_9allocatorIS2_EEEE+0xc54>
   26ffc: 41 ff ff f0  	adrp	x1, 0x11000 <_ZNK19ChiFeature2RealTime22OnConfigureOutputPortsERKNSt3__16vectorI27ChiFeatureBufferOptionsDataNS0_9allocatorIS2_EEEE+0xc60>
   27004: 45 ff ff 90  	adrp	x5, 0xf000 <_ZNK19ChiFeature2RealTime22OnConfigureOutputPortsERKNSt3__16vectorI27ChiFeatureBufferOptionsDataNS0_9allocatorIS2_EEEE+0xc5c>
   27058: c2 88 00 94  	bl	0x49360 <_ZN6ChiLog9LogSystemEPKcS1_S1_S1_iS1_z@plt>
   27068: 81 11 00 54  	b.ne	0x27298 <_ZNK19ChiFeature2RealTime22OnConfigureOutputPortsERKNSt3__16vectorI27ChiFeatureBufferOptionsDataNS0_9allocatorIS2_EEEE+0xf50>
   270a4: bc fc ff 17  	b	0x26394 <_ZNK19ChiFeature2RealTime22OnConfigureOutputPortsERKNSt3__16vectorI27ChiFeatureBufferOptionsDataNS0_9allocatorIS2_EEEE+0x4c>
   270c4: 60 b3 ff 54  	b.eq	0x26730 <_ZNK19ChiFeature2RealTime22OnConfigureOutputPortsERKNSt3__16vectorI27ChiFeatureBufferOptionsDataNS0_9allocatorIS2_EEEE+0x3e8>
   270e0: 94 fd ff 17  	b	0x26730 <_ZNK19ChiFeature2RealTime22OnConfigureOutputPortsERKNSt3__16vectorI27ChiFeatureBufferOptionsDataNS0_9allocatorIS2_EEEE+0x3e8>
   270f8: 91 fd ff 17  	b	0x2673c <_ZNK19ChiFeature2RealTime22OnConfigureOutputPortsERKNSt3__16vectorI27ChiFeatureBufferOptionsDataNS0_9allocatorIS2_EEEE+0x3f4>
   27114: cb c7 ff b5  	cbnz	x11, 0x26a0c <_ZNK19ChiFeature2RealTime22OnConfigureOutputPortsERKNSt3__16vectorI27ChiFeatureBufferOptionsDataNS0_9allocatorIS2_EEEE+0x6c4>
   27118: d1 ff ff 17  	b	0x2705c <_ZNK19ChiFeature2RealTime22OnConfigureOutputPortsERKNSt3__16vectorI27ChiFeatureBufferOptionsDataNS0_9allocatorIS2_EEEE+0xd14>
   27138: 80 94 ff 54  	b.eq	0x263c8 <_ZNK19ChiFeature2RealTime22OnConfigureOutputPortsERKNSt3__16vectorI27ChiFeatureBufferOptionsDataNS0_9allocatorIS2_EEEE+0x80>
   27154: 9d fc ff 17  	b	0x263c8 <_ZNK19ChiFeature2RealTime22OnConfigureOutputPortsERKNSt3__16vectorI27ChiFeatureBufferOptionsDataNS0_9allocatorIS2_EEEE+0x80>
   2716c: 9a fc ff 17  	b	0x263d4 <_ZNK19ChiFeature2RealTime22OnConfigureOutputPortsERKNSt3__16vectorI27ChiFeatureBufferOptionsDataNS0_9allocatorIS2_EEEE+0x8c>
   2718c: c7 c4 07 37  	tbnz	w7, #0, 0x26a24 <_ZNK19ChiFeature2RealTime22OnConfigureOutputPortsERKNSt3__16vectorI27ChiFeatureBufferOptionsDataNS0_9allocatorIS2_EEEE+0x6dc>
   27190: b3 ff ff 17  	b	0x2705c <_ZNK19ChiFeature2RealTime22OnConfigureOutputPortsERKNSt3__16vectorI27ChiFeatureBufferOptionsDataNS0_9allocatorIS2_EEEE+0xd14>
   271b0: 60 c4 ff 54  	b.eq	0x26a3c <_ZNK19ChiFeature2RealTime22OnConfigureOutputPortsERKNSt3__16vectorI27ChiFeatureBufferOptionsDataNS0_9allocatorIS2_EEEE+0x6f4>
   271cc: 1c fe ff 17  	b	0x26a3c <_ZNK19ChiFeature2RealTime22OnConfigureOutputPortsERKNSt3__16vectorI27ChiFeatureBufferOptionsDataNS0_9allocatorIS2_EEEE+0x6f4>
   271e4: 19 fe ff 17  	b	0x26a48 <_ZNK19ChiFeature2RealTime22OnConfigureOutputPortsERKNSt3__16vectorI27ChiFeatureBufferOptionsDataNS0_9allocatorIS2_EEEE+0x700>
   271fc: ad fc ff 17  	b	0x264b0 <_ZNK19ChiFeature2RealTime22OnConfigureOutputPortsERKNSt3__16vectorI27ChiFeatureBufferOptionsDataNS0_9allocatorIS2_EEEE+0x168>
   27214: d9 fd ff 17  	b	0x26978 <_ZNK19ChiFeature2RealTime22OnConfigureOutputPortsERKNSt3__16vectorI27ChiFeatureBufferOptionsDataNS0_9allocatorIS2_EEEE+0x630>
   2722c: 1b fd ff 17  	b	0x26698 <_ZNK19ChiFeature2RealTime22OnConfigureOutputPortsERKNSt3__16vectorI27ChiFeatureBufferOptionsDataNS0_9allocatorIS2_EEEE+0x350>
   2724c: 00 c7 ff 54  	b.eq	0x26b2c <_ZNK19ChiFeature2RealTime22OnConfigureOutputPortsERKNSt3__16vectorI27ChiFeatureBufferOptionsDataNS0_9allocatorIS2_EEEE+0x7e4>
   27264: 32 fe ff 17  	b	0x26b2c <_ZNK19ChiFeature2RealTime22OnConfigureOutputPortsERKNSt3__16vectorI27ChiFeatureBufferOptionsDataNS0_9allocatorIS2_EEEE+0x7e4>
   2727c: 95 fd ff 17  	b	0x268d0 <_ZNK19ChiFeature2RealTime22OnConfigureOutputPortsERKNSt3__16vectorI27ChiFeatureBufferOptionsDataNS0_9allocatorIS2_EEEE+0x588>
   27294: d7 fc ff 17  	b	0x265f0 <_ZNK19ChiFeature2RealTime22OnConfigureOutputPortsERKNSt3__16vectorI27ChiFeatureBufferOptionsDataNS0_9allocatorIS2_EEEE+0x2a8>
   272b4: 3e fe ff 17  	b	0x26bac <_ZNK19ChiFeature2RealTime22OnConfigureOutputPortsERKNSt3__16vectorI27ChiFeatureBufferOptionsDataNS0_9allocatorIS2_EEEE+0x864>
   272cc: 3c fe ff 17  	b	0x26bbc <_ZNK19ChiFeature2RealTime22OnConfigureOutputPortsERKNSt3__16vectorI27ChiFeatureBufferOptionsDataNS0_9allocatorIS2_EEEE+0x874>
   272e4: 73 fe ff 17  	b	0x26cb0 <_ZNK19ChiFeature2RealTime22OnConfigureOutputPortsERKNSt3__16vectorI27ChiFeatureBufferOptionsDataNS0_9allocatorIS2_EEEE+0x968>
   272fc: 84 fe ff 17  	b	0x26d0c <_ZNK19ChiFeature2RealTime22OnConfigureOutputPortsERKNSt3__16vectorI27ChiFeatureBufferOptionsDataNS0_9allocatorIS2_EEEE+0x9c4>
   2731c: 8a d0 17 37  	tbnz	w10, #2, 0x26d2c <_ZNK19ChiFeature2RealTime22OnConfigureOutputPortsERKNSt3__16vectorI27ChiFeatureBufferOptionsDataNS0_9allocatorIS2_EEEE+0x9e4>
   27320: 85 fe ff 17  	b	0x26d34 <_ZNK19ChiFeature2RealTime22OnConfigureOutputPortsERKNSt3__16vectorI27ChiFeatureBufferOptionsDataNS0_9allocatorIS2_EEEE+0x9ec>
   27338: 28 ff ff 17  	b	0x26fd8 <_ZNK19ChiFeature2RealTime22OnConfigureOutputPortsERKNSt3__16vectorI27ChiFeatureBufferOptionsDataNS0_9allocatorIS2_EEEE+0xc90>
   27354: f5 fe ff 17  	b	0x26f28 <_ZNK19ChiFeature2RealTime22OnConfigureOutputPortsERKNSt3__16vectorI27ChiFeatureBufferOptionsDataNS0_9allocatorIS2_EEEE+0xbe0>
0000000000027360 <_ZN19ChiFeature2RealTime15OnSessionCreateEP21ChiFeature2Identifier>:
   27390: c1 24 00 b4  	cbz	x1, 0x27828 <_ZN19ChiFeature2RealTime15OnSessionCreateEP21ChiFeature2Identifier+0x4c8>
   273a0: 35 01 00 b0  	adrp	x21, 0x4c000 <_ZN19ChiFeature2RealTime15OnSessionCreateEP21ChiFeature2Identifier+0xd4>
   273c8: 81 24 00 54  	b.ne	0x27858 <_ZN19ChiFeature2RealTime15OnSessionCreateEP21ChiFeature2Identifier+0x4f8>
   273d0: 41 25 00 54  	b.ne	0x27878 <_ZN19ChiFeature2RealTime15OnSessionCreateEP21ChiFeature2Identifier+0x518>
   273e4: 42 01 00 54  	b.hs	0x2740c <_ZN19ChiFeature2RealTime15OnSessionCreateEP21ChiFeature2Identifier+0xac>
   273ec: 09 01 00 b4  	cbz	x9, 0x2740c <_ZN19ChiFeature2RealTime15OnSessionCreateEP21ChiFeature2Identifier+0xac>
   27400: 62 00 00 54  	b.hs	0x2740c <_ZN19ChiFeature2RealTime15OnSessionCreateEP21ChiFeature2Identifier+0xac>
   27408: 02 00 00 14  	b	0x27410 <_ZN19ChiFeature2RealTime15OnSessionCreateEP21ChiFeature2Identifier+0xb0>
   2741c: a1 23 00 54  	b.ne	0x27890 <_ZN19ChiFeature2RealTime15OnSessionCreateEP21ChiFeature2Identifier+0x530>
   27420: 58 20 00 b4  	cbz	x24, 0x27828 <_ZN19ChiFeature2RealTime15OnSessionCreateEP21ChiFeature2Identifier+0x4c8>
   2742c: 60 02 00 b4  	cbz	x0, 0x27478 <_ZN19ChiFeature2RealTime15OnSessionCreateEP21ChiFeature2Identifier+0x118>
   27430: 59 02 00 b4  	cbz	x25, 0x27478 <_ZN19ChiFeature2RealTime15OnSessionCreateEP21ChiFeature2Identifier+0x118>
   27450: c0 88 00 94  	bl	0x49750 <_ZN18ChiMetadataManager14RegisterClientEiPjjjj16ChiMetadataUsage@plt>
   27464: 41 22 00 54  	b.ne	0x278ac <_ZN19ChiFeature2RealTime15OnSessionCreateEP21ChiFeature2Identifier+0x54c>
   27470: 4d 00 00 b4  	cbz	x13, 0x27478 <_ZN19ChiFeature2RealTime15OnSessionCreateEP21ChiFeature2Identifier+0x118>
   274ac: 06 00 00 14  	b	0x274c4 <_ZN19ChiFeature2RealTime15OnSessionCreateEP21ChiFeature2Identifier+0x164>
   274c0: 20 20 00 54  	b.eq	0x278c4 <_ZN19ChiFeature2RealTime15OnSessionCreateEP21ChiFeature2Identifier+0x564>
   274d8: e9 0d 00 54  	b.ls	0x27694 <_ZN19ChiFeature2RealTime15OnSessionCreateEP21ChiFeature2Identifier+0x334>
   274e4: c1 06 00 54  	b.ne	0x275bc <_ZN19ChiFeature2RealTime15OnSessionCreateEP21ChiFeature2Identifier+0x25c>
   274f0: 81 08 00 54  	b.ne	0x27600 <_ZN19ChiFeature2RealTime15OnSessionCreateEP21ChiFeature2Identifier+0x2a0>
   274f8: a1 0a 00 54  	b.ne	0x2764c <_ZN19ChiFeature2RealTime15OnSessionCreateEP21ChiFeature2Identifier+0x2ec>
   274fc: ae fd ff b4  	cbz	x14, 0x274b0 <_ZN19ChiFeature2RealTime15OnSessionCreateEP21ChiFeature2Identifier+0x150>
   27510: 02 fd ff 54  	b.hs	0x274b0 <_ZN19ChiFeature2RealTime15OnSessionCreateEP21ChiFeature2Identifier+0x150>
   27518: c1 fc ff b4  	cbz	x1, 0x274b0 <_ZN19ChiFeature2RealTime15OnSessionCreateEP21ChiFeature2Identifier+0x150>
   27530: 02 fc ff 54  	b.hs	0x274b0 <_ZN19ChiFeature2RealTime15OnSessionCreateEP21ChiFeature2Identifier+0x150>
   27538: cf fb ff b4  	cbz	x15, 0x274b0 <_ZN19ChiFeature2RealTime15OnSessionCreateEP21ChiFeature2Identifier+0x150>
   27548: 28 01 00 54  	b.hi	0x2756c <_ZN19ChiFeature2RealTime15OnSessionCreateEP21ChiFeature2Identifier+0x20c>
   27564: 69 fa ff 54  	b.ls	0x274b0 <_ZN19ChiFeature2RealTime15OnSessionCreateEP21ChiFeature2Identifier+0x150>
   27568: 08 00 00 14  	b	0x27588 <_ZN19ChiFeature2RealTime15OnSessionCreateEP21ChiFeature2Identifier+0x228>
   27584: 69 f9 ff 54  	b.ls	0x274b0 <_ZN19ChiFeature2RealTime15OnSessionCreateEP21ChiFeature2Identifier+0x150>
   2758c: 2f f9 ff b4  	cbz	x15, 0x274b0 <_ZN19ChiFeature2RealTime15OnSessionCreateEP21ChiFeature2Identifier+0x150>
   27598: d1 f8 ff b4  	cbz	x17, 0x274b0 <_ZN19ChiFeature2RealTime15OnSessionCreateEP21ChiFeature2Identifier+0x150>
   275b8: be ff ff 17  	b	0x274b0 <_ZN19ChiFeature2RealTime15OnSessionCreateEP21ChiFeature2Identifier+0x150>
   275d8: 35 01 00 b0  	adrp	x21, 0x4c000 <_ZN19ChiFeature2RealTime15OnSessionCreateEP21ChiFeature2Identifier+0x30c>
   275fc: bb ff ff 17  	b	0x274e8 <_ZN19ChiFeature2RealTime15OnSessionCreateEP21ChiFeature2Identifier+0x188>
   27620: 35 01 00 b0  	adrp	x21, 0x4c000 <_ZN19ChiFeature2RealTime15OnSessionCreateEP21ChiFeature2Identifier+0x354>
   27648: a0 f5 ff 54  	b.eq	0x274fc <_ZN19ChiFeature2RealTime15OnSessionCreateEP21ChiFeature2Identifier+0x19c>
   27678: 35 01 00 b0  	adrp	x21, 0x4c000 <_ZN19ChiFeature2RealTime15OnSessionCreateEP21ChiFeature2Identifier+0x3ac>
   2768c: ae f3 ff b5  	cbnz	x14, 0x27500 <_ZN19ChiFeature2RealTime15OnSessionCreateEP21ChiFeature2Identifier+0x1a0>
   27690: 88 ff ff 17  	b	0x274b0 <_ZN19ChiFeature2RealTime15OnSessionCreateEP21ChiFeature2Identifier+0x150>
   27694: b9 0c 00 b4  	cbz	x25, 0x27828 <_ZN19ChiFeature2RealTime15OnSessionCreateEP21ChiFeature2Identifier+0x4c8>
   2769c: ed 87 00 94  	bl	0x49650 <_ZN15ExtensionModule11GetInstanceEv@plt>
   276a4: 2f 88 00 94  	bl	0x49760 <_ZN15ExtensionModule15GetVendorTagOpsEP16ChiVendorTagsOps@plt>
   276c4: 20 ff ff b0  	adrp	x0, 0xc000 <_ZN19ChiFeature2RealTime15OnSessionCreateEP21ChiFeature2Identifier+0x2f8>
   276c8: 41 ff ff b0  	adrp	x1, 0x10000 <_ZN19ChiFeature2RealTime15OnSessionCreateEP21ChiFeature2Identifier+0x30c>
   27714: 20 01 00 b0  	adrp	x0, 0x4c000 <_ZN19ChiFeature2RealTime15OnSessionCreateEP21ChiFeature2Identifier+0x448>
   2772c: 28 05 30 36  	tbz	w8, #6, 0x277d0 <_ZN19ChiFeature2RealTime15OnSessionCreateEP21ChiFeature2Identifier+0x470>
   27730: 28 01 00 b0  	adrp	x8, 0x4c000 <_ZN19ChiFeature2RealTime15OnSessionCreateEP21ChiFeature2Identifier+0x464>
   27734: 55 ff ff 90  	adrp	x21, 0xf000 <_ZN19ChiFeature2RealTime15OnSessionCreateEP21ChiFeature2Identifier+0x374>
   27748: 21 02 00 54  	b.ne	0x2778c <_ZN19ChiFeature2RealTime15OnSessionCreateEP21ChiFeature2Identifier+0x42c>
   27760: 61 ff ff b0  	adrp	x1, 0x14000 <_ZN19ChiFeature2RealTime15OnSessionCreateEP21ChiFeature2Identifier+0x3b4>
   27764: 22 ff ff d0  	adrp	x2, 0xd000 <_ZN19ChiFeature2RealTime15OnSessionCreateEP21ChiFeature2Identifier+0x39c>
   27768: 45 ff ff 90  	adrp	x5, 0xf000 <_ZN19ChiFeature2RealTime15OnSessionCreateEP21ChiFeature2Identifier+0x3a8>
   277a0: 21 ff ff f0  	adrp	x1, 0xe000 <_ZN19ChiFeature2RealTime15OnSessionCreateEP21ChiFeature2Identifier+0x3dc>
   277a8: 40 ff ff f0  	adrp	x0, 0x12000 <_ZN19ChiFeature2RealTime15OnSessionCreateEP21ChiFeature2Identifier+0x3f4>
   277ac: 43 ff ff 90  	adrp	x3, 0xf000 <_ZN19ChiFeature2RealTime15OnSessionCreateEP21ChiFeature2Identifier+0x3ec>
   277b0: 25 ff ff d0  	adrp	x5, 0xd000 <_ZN19ChiFeature2RealTime15OnSessionCreateEP21ChiFeature2Identifier+0x3e8>
   277cc: e5 86 00 94  	bl	0x49360 <_ZN6ChiLog9LogSystemEPKcS1_S1_S1_iS1_z@plt>
   277d4: 75 01 00 b4  	cbz	x21, 0x27800 <_ZN19ChiFeature2RealTime15OnSessionCreateEP21ChiFeature2Identifier+0x4a0>
   277e0: 49 02 00 54  	b.ls	0x27828 <_ZN19ChiFeature2RealTime15OnSessionCreateEP21ChiFeature2Identifier+0x4c8>
   277e8: 1a 87 00 94  	bl	0x49450 <_ZNSt3__118condition_variableD1Ev@plt>
   277f0: 1c 87 00 94  	bl	0x49460 <_ZNSt3__15mutexD1Ev@plt>
   2781c: 40 00 00 b4  	cbz	x0, 0x27824 <_ZN19ChiFeature2RealTime15OnSessionCreateEP21ChiFeature2Identifier+0x4c4>
   27834: a1 04 00 54  	b.ne	0x278c8 <_ZN19ChiFeature2RealTime15OnSessionCreateEP21ChiFeature2Identifier+0x568>
   27874: 00 db ff 54  	b.eq	0x273d4 <_ZN19ChiFeature2RealTime15OnSessionCreateEP21ChiFeature2Identifier+0x74>
   2788c: d2 fe ff 17  	b	0x273d4 <_ZN19ChiFeature2RealTime15OnSessionCreateEP21ChiFeature2Identifier+0x74>
   278a4: 18 dc ff b5  	cbnz	x24, 0x27424 <_ZN19ChiFeature2RealTime15OnSessionCreateEP21ChiFeature2Identifier+0xc4>
   278a8: e0 ff ff 17  	b	0x27828 <_ZN19ChiFeature2RealTime15OnSessionCreateEP21ChiFeature2Identifier+0x4c8>
   278c0: ea fe ff 17  	b	0x27468 <_ZN19ChiFeature2RealTime15OnSessionCreateEP21ChiFeature2Identifier+0x108>
00000000000278d0 <_ZNK19ChiFeature2RealTime16OnPipelineSelectEPKcPK26ChiFeature2CreateInputInfoh>:
   278fc: 9d 87 00 94  	bl	0x49770 <_ZN8ChxUtils9ReadSocIDEv@plt>
   27900: 9c 05 00 b4  	cbz	x28, 0x279b0 <_ZNK19ChiFeature2RealTime16OnPipelineSelectEPKcPK26ChiFeature2CreateInputInfoh+0xe0>
   27904: 7b 05 00 b4  	cbz	x27, 0x279b0 <_ZNK19ChiFeature2RealTime16OnPipelineSelectEPKcPK26ChiFeature2CreateInputInfoh+0xe0>
   2790c: 24 05 00 b4  	cbz	x4, 0x279b0 <_ZNK19ChiFeature2RealTime16OnPipelineSelectEPKcPK26ChiFeature2CreateInputInfoh+0xe0>
   27914: e7 04 00 b4  	cbz	x7, 0x279b0 <_ZNK19ChiFeature2RealTime16OnPipelineSelectEPKcPK26ChiFeature2CreateInputInfoh+0xe0>
   2791c: b7 04 00 b4  	cbz	x23, 0x279b0 <_ZNK19ChiFeature2RealTime16OnPipelineSelectEPKcPK26ChiFeature2CreateInputInfoh+0xe0>
   27924: 3a 01 00 b0  	adrp	x26, 0x4c000 <_ZNK19ChiFeature2RealTime16OnPipelineSelectEPKcPK26ChiFeature2CreateInputInfoh+0xe8>
   27938: 61 44 00 54  	b.ne	0x281c4 <_ZNK19ChiFeature2RealTime16OnPipelineSelectEPKcPK26ChiFeature2CreateInputInfoh+0x8f4>
   27940: 21 45 00 54  	b.ne	0x281e4 <_ZNK19ChiFeature2RealTime16OnPipelineSelectEPKcPK26ChiFeature2CreateInputInfoh+0x914>
   27948: ea 00 00 b4  	cbz	x10, 0x27964 <_ZNK19ChiFeature2RealTime16OnPipelineSelectEPKcPK26ChiFeature2CreateInputInfoh+0x94>
   27958: 61 45 00 54  	b.ne	0x28204 <_ZNK19ChiFeature2RealTime16OnPipelineSelectEPKcPK26ChiFeature2CreateInputInfoh+0x934>
   27960: 29 46 18 37  	tbnz	w9, #3, 0x28224 <_ZNK19ChiFeature2RealTime16OnPipelineSelectEPKcPK26ChiFeature2CreateInputInfoh+0x954>
   2796c: 10 12 00 34  	cbz	w16, 0x27bac <_ZNK19ChiFeature2RealTime16OnPipelineSelectEPKcPK26ChiFeature2CreateInputInfoh+0x2dc>
   279ac: 3f 00 00 14  	b	0x27aa8 <_ZNK19ChiFeature2RealTime16OnPipelineSelectEPKcPK26ChiFeature2CreateInputInfoh+0x1d8>
   279b0: 31 01 00 b0  	adrp	x17, 0x4c000 <_ZNK19ChiFeature2RealTime16OnPipelineSelectEPKcPK26ChiFeature2CreateInputInfoh+0x174>
   279bc: 2f 05 00 36  	tbz	w15, #0, 0x27a60 <_ZNK19ChiFeature2RealTime16OnPipelineSelectEPKcPK26ChiFeature2CreateInputInfoh+0x190>
   279c0: 21 01 00 b0  	adrp	x1, 0x4c000 <_ZNK19ChiFeature2RealTime16OnPipelineSelectEPKcPK26ChiFeature2CreateInputInfoh+0x184>
   279d0: 41 02 00 54  	b.ne	0x27a18 <_ZNK19ChiFeature2RealTime16OnPipelineSelectEPKcPK26ChiFeature2CreateInputInfoh+0x148>
   279d4: 53 ff ff 90  	adrp	x19, 0xf000 <_ZNK19ChiFeature2RealTime16OnPipelineSelectEPKcPK26ChiFeature2CreateInputInfoh+0xa4>
   279f0: 61 ff ff b0  	adrp	x1, 0x14000 <_ZNK19ChiFeature2RealTime16OnPipelineSelectEPKcPK26ChiFeature2CreateInputInfoh+0xd4>
   279f4: 42 ff ff f0  	adrp	x2, 0x12000 <_ZNK19ChiFeature2RealTime16OnPipelineSelectEPKcPK26ChiFeature2CreateInputInfoh+0xd0>
   279f8: 45 ff ff b0  	adrp	x5, 0x10000 <_ZNK19ChiFeature2RealTime16OnPipelineSelectEPKcPK26ChiFeature2CreateInputInfoh+0xcc>
   27a18: 56 ff ff 90  	adrp	x22, 0xf000 <_ZNK19ChiFeature2RealTime16OnPipelineSelectEPKcPK26ChiFeature2CreateInputInfoh+0xe8>
   27a34: 61 ff ff 90  	adrp	x1, 0x13000 <_ZNK19ChiFeature2RealTime16OnPipelineSelectEPKcPK26ChiFeature2CreateInputInfoh+0x114>
   27a3c: 20 ff ff d0  	adrp	x0, 0xd000 <_ZNK19ChiFeature2RealTime16OnPipelineSelectEPKcPK26ChiFeature2CreateInputInfoh+0x104>
   27a40: 43 ff ff b0  	adrp	x3, 0x10000 <_ZNK19ChiFeature2RealTime16OnPipelineSelectEPKcPK26ChiFeature2CreateInputInfoh+0x114>
   27a44: 45 ff ff d0  	adrp	x5, 0x11000 <_ZNK19ChiFeature2RealTime16OnPipelineSelectEPKcPK26ChiFeature2CreateInputInfoh+0x11c>
   27a5c: 41 86 00 94  	bl	0x49360 <_ZN6ChiLog9LogSystemEPKcS1_S1_S1_iS1_z@plt>
   27a94: 02 5a 00 54  	b.hs	0x285d4 <_ZNK19ChiFeature2RealTime16OnPipelineSelectEPKcPK26ChiFeature2CreateInputInfoh+0xd04>
   27aa4: 42 09 00 54  	b.hs	0x27bcc <_ZNK19ChiFeature2RealTime16OnPipelineSelectEPKcPK26ChiFeature2CreateInputInfoh+0x2fc>
   27ab4: 33 87 00 94  	bl	0x49780 <_ZN15UsecaseSelector14IsZSLOutStreamEPK14camera3_stream@plt>
   27ab8: 60 01 00 34  	cbz	w0, 0x27ae4 <_ZNK19ChiFeature2RealTime16OnPipelineSelectEPKcPK26ChiFeature2CreateInputInfoh+0x214>
   27abc: e5 86 00 94  	bl	0x49650 <_ZN15ExtensionModule11GetInstanceEv@plt>
   27acc: 88 00 00 54  	b.hi	0x27adc <_ZNK19ChiFeature2RealTime16OnPipelineSelectEPKcPK26ChiFeature2CreateInputInfoh+0x20c>
   27ad8: 01 fe ff 54  	b.ne	0x27a98 <_ZNK19ChiFeature2RealTime16OnPipelineSelectEPKcPK26ChiFeature2CreateInputInfoh+0x1c8>
   27ae0: c0 fd ff 54  	b.eq	0x27a98 <_ZNK19ChiFeature2RealTime16OnPipelineSelectEPKcPK26ChiFeature2CreateInputInfoh+0x1c8>
   27ae8: e5 00 00 36  	tbz	w5, #0, 0x27b04 <_ZNK19ChiFeature2RealTime16OnPipelineSelectEPKcPK26ChiFeature2CreateInputInfoh+0x234>
   27af0: a6 00 00 36  	tbz	w6, #0, 0x27b04 <_ZNK19ChiFeature2RealTime16OnPipelineSelectEPKcPK26ChiFeature2CreateInputInfoh+0x234>
   27b00: 21 02 00 54  	b.ne	0x27b44 <_ZNK19ChiFeature2RealTime16OnPipelineSelectEPKcPK26ChiFeature2CreateInputInfoh+0x274>
   27b08: 22 87 00 94  	bl	0x49790 <_ZN15UsecaseSelector15IsPreviewStreamEPK14camera3_stream@plt>
   27b0c: c0 00 00 34  	cbz	w0, 0x27b24 <_ZNK19ChiFeature2RealTime16OnPipelineSelectEPKcPK26ChiFeature2CreateInputInfoh+0x254>
   27b20: 14 00 00 14  	b	0x27b70 <_ZNK19ChiFeature2RealTime16OnPipelineSelectEPKcPK26ChiFeature2CreateInputInfoh+0x2a0>
   27b28: 1e 87 00 94  	bl	0x497a0 <_ZN15UsecaseSelector11IsYUVStreamEPK14camera3_stream@plt>
   27b2c: 60 01 00 34  	cbz	w0, 0x27b58 <_ZNK19ChiFeature2RealTime16OnPipelineSelectEPKcPK26ChiFeature2CreateInputInfoh+0x288>
   27b40: 0c 00 00 14  	b	0x27b70 <_ZNK19ChiFeature2RealTime16OnPipelineSelectEPKcPK26ChiFeature2CreateInputInfoh+0x2a0>
   27b54: 07 00 00 14  	b	0x27b70 <_ZNK19ChiFeature2RealTime16OnPipelineSelectEPKcPK26ChiFeature2CreateInputInfoh+0x2a0>
   27b5c: 15 87 00 94  	bl	0x497b0 <_ZN15UsecaseSelector20IsJPEGSnapshotStreamEPK14camera3_stream@plt>
   27b74: 0b 87 00 94  	bl	0x497a0 <_ZN15UsecaseSelector11IsYUVStreamEPK14camera3_stream@plt>
   27b7c: e1 f8 ff 54  	b.ne	0x27a98 <_ZNK19ChiFeature2RealTime16OnPipelineSelectEPKcPK26ChiFeature2CreateInputInfoh+0x1c8>
   27b84: 03 87 00 94  	bl	0x49790 <_ZN15UsecaseSelector15IsPreviewStreamEPK14camera3_stream@plt>
   27b88: 60 00 00 34  	cbz	w0, 0x27b94 <_ZNK19ChiFeature2RealTime16OnPipelineSelectEPKcPK26ChiFeature2CreateInputInfoh+0x2c4>
   27b90: 22 52 00 54  	b.hs	0x285d4 <_ZNK19ChiFeature2RealTime16OnPipelineSelectEPKcPK26ChiFeature2CreateInputInfoh+0xd04>
   27b98: 80 f7 ff 54  	b.eq	0x27a88 <_ZNK19ChiFeature2RealTime16OnPipelineSelectEPKcPK26ChiFeature2CreateInputInfoh+0x1b8>
   27b9c: b4 f7 ff 35  	cbnz	w20, 0x27a90 <_ZNK19ChiFeature2RealTime16OnPipelineSelectEPKcPK26ChiFeature2CreateInputInfoh+0x1c0>
   27ba8: ba ff ff 17  	b	0x27a90 <_ZNK19ChiFeature2RealTime16OnPipelineSelectEPKcPK26ChiFeature2CreateInputInfoh+0x1c0>
   27bcc: a1 86 00 94  	bl	0x49650 <_ZN15ExtensionModule11GetInstanceEv@plt>
   27bdc: 21 08 00 54  	b.ne	0x27ce0 <_ZNK19ChiFeature2RealTime16OnPipelineSelectEPKcPK26ChiFeature2CreateInputInfoh+0x410>
   27be8: 01 14 00 54  	b.ne	0x27e68 <_ZNK19ChiFeature2RealTime16OnPipelineSelectEPKcPK26ChiFeature2CreateInputInfoh+0x598>
   27bec: 29 01 00 f0  	adrp	x9, 0x4e000 <_ZNK19ChiFeature2RealTime16OnPipelineSelectEPKcPK26ChiFeature2CreateInputInfoh+0x3b8>
   27bf0: 2b 01 00 f0  	adrp	x11, 0x4e000 <_ZNK19ChiFeature2RealTime16OnPipelineSelectEPKcPK26ChiFeature2CreateInputInfoh+0x3bc>
   27c08: 81 15 00 54  	b.ne	0x27eb8 <_ZNK19ChiFeature2RealTime16OnPipelineSelectEPKcPK26ChiFeature2CreateInputInfoh+0x5e8>
   27c10: 43 15 00 54  	b.lo	0x27eb8 <_ZNK19ChiFeature2RealTime16OnPipelineSelectEPKcPK26ChiFeature2CreateInputInfoh+0x5e8>
   27c1c: e3 14 00 54  	b.lo	0x27eb8 <_ZNK19ChiFeature2RealTime16OnPipelineSelectEPKcPK26ChiFeature2CreateInputInfoh+0x5e8>
   27c28: 81 14 00 54  	b.ne	0x27eb8 <_ZNK19ChiFeature2RealTime16OnPipelineSelectEPKcPK26ChiFeature2CreateInputInfoh+0x5e8>
   27c2c: 89 86 00 94  	bl	0x49650 <_ZN15ExtensionModule11GetInstanceEv@plt>
   27c34: 30 14 00 b4  	cbz	x16, 0x27eb8 <_ZNK19ChiFeature2RealTime16OnPipelineSelectEPKcPK26ChiFeature2CreateInputInfoh+0x5e8>
   27c40: c1 13 00 54  	b.ne	0x27eb8 <_ZNK19ChiFeature2RealTime16OnPipelineSelectEPKcPK26ChiFeature2CreateInputInfoh+0x5e8>
   27c44: 83 86 00 94  	bl	0x49650 <_ZN15ExtensionModule11GetInstanceEv@plt>
   27c58: a8 20 00 54  	b.hi	0x2806c <_ZNK19ChiFeature2RealTime16OnPipelineSelectEPKcPK26ChiFeature2CreateInputInfoh+0x79c>
   27c78: a0 1f 00 54  	b.eq	0x2806c <_ZNK19ChiFeature2RealTime16OnPipelineSelectEPKcPK26ChiFeature2CreateInputInfoh+0x79c>
   27c84: a1 11 00 54  	b.ne	0x27eb8 <_ZNK19ChiFeature2RealTime16OnPipelineSelectEPKcPK26ChiFeature2CreateInputInfoh+0x5e8>
   27c88: 88 11 00 34  	cbz	w8, 0x27eb8 <_ZNK19ChiFeature2RealTime16OnPipelineSelectEPKcPK26ChiFeature2CreateInputInfoh+0x5e8>
   27ca0: 01 1f 00 54  	b.ne	0x28080 <_ZNK19ChiFeature2RealTime16OnPipelineSelectEPKcPK26ChiFeature2CreateInputInfoh+0x7b0>
   27ca8: f6 19 00 37  	tbnz	w22, #0, 0x27fe4 <_ZNK19ChiFeature2RealTime16OnPipelineSelectEPKcPK26ChiFeature2CreateInputInfoh+0x714>
   27cb8: 01 49 00 54  	b.ne	0x285d8 <_ZNK19ChiFeature2RealTime16OnPipelineSelectEPKcPK26ChiFeature2CreateInputInfoh+0xd08>
   27cc4: a1 48 00 54  	b.ne	0x285d8 <_ZNK19ChiFeature2RealTime16OnPipelineSelectEPKcPK26ChiFeature2CreateInputInfoh+0xd08>
   27ccc: 29 1e 00 54  	b.ls	0x28090 <_ZNK19ChiFeature2RealTime16OnPipelineSelectEPKcPK26ChiFeature2CreateInputInfoh+0x7c0>
   27cd0: 21 ff ff d0  	adrp	x1, 0xd000 <_ZNK19ChiFeature2RealTime16OnPipelineSelectEPKcPK26ChiFeature2CreateInputInfoh+0x398>
   27cdc: f0 00 00 14  	b	0x2809c <_ZNK19ChiFeature2RealTime16OnPipelineSelectEPKcPK26ChiFeature2CreateInputInfoh+0x7cc>
   27ce0: 37 01 00 b0  	adrp	x23, 0x4c000 <_ZNK19ChiFeature2RealTime16OnPipelineSelectEPKcPK26ChiFeature2CreateInputInfoh+0x4a4>
   27ce4: 33 01 00 b0  	adrp	x19, 0x4c000 <_ZNK19ChiFeature2RealTime16OnPipelineSelectEPKcPK26ChiFeature2CreateInputInfoh+0x4a8>
   27cf8: 6f 07 18 36  	tbz	w15, #3, 0x27de4 <_ZNK19ChiFeature2RealTime16OnPipelineSelectEPKcPK26ChiFeature2CreateInputInfoh+0x514>
   27cfc: 2e 01 00 b0  	adrp	x14, 0x4c000 <_ZNK19ChiFeature2RealTime16OnPipelineSelectEPKcPK26ChiFeature2CreateInputInfoh+0x4c0>
   27d0c: 61 03 00 54  	b.ne	0x27d78 <_ZNK19ChiFeature2RealTime16OnPipelineSelectEPKcPK26ChiFeature2CreateInputInfoh+0x4a8>
   27d10: 57 ff ff 90  	adrp	x23, 0xf000 <_ZNK19ChiFeature2RealTime16OnPipelineSelectEPKcPK26ChiFeature2CreateInputInfoh+0x3e0>
   27d2c: 41 ff ff d0  	adrp	x1, 0x11000 <_ZNK19ChiFeature2RealTime16OnPipelineSelectEPKcPK26ChiFeature2CreateInputInfoh+0x404>
   27d44: 61 ff ff b0  	adrp	x1, 0x14000 <_ZNK19ChiFeature2RealTime16OnPipelineSelectEPKcPK26ChiFeature2CreateInputInfoh+0x428>
   27d48: 42 ff ff f0  	adrp	x2, 0x12000 <_ZNK19ChiFeature2RealTime16OnPipelineSelectEPKcPK26ChiFeature2CreateInputInfoh+0x424>
   27d4c: 45 ff ff b0  	adrp	x5, 0x10000 <_ZNK19ChiFeature2RealTime16OnPipelineSelectEPKcPK26ChiFeature2CreateInputInfoh+0x420>
   27d78: 57 ff ff 90  	adrp	x23, 0xf000 <_ZNK19ChiFeature2RealTime16OnPipelineSelectEPKcPK26ChiFeature2CreateInputInfoh+0x448>
   27d94: 41 ff ff d0  	adrp	x1, 0x11000 <_ZNK19ChiFeature2RealTime16OnPipelineSelectEPKcPK26ChiFeature2CreateInputInfoh+0x46c>
   27dac: 60 ff ff b0  	adrp	x0, 0x14000 <_ZNK19ChiFeature2RealTime16OnPipelineSelectEPKcPK26ChiFeature2CreateInputInfoh+0x490>
   27db0: 41 ff ff d0  	adrp	x1, 0x11000 <_ZNK19ChiFeature2RealTime16OnPipelineSelectEPKcPK26ChiFeature2CreateInputInfoh+0x488>
   27db4: 43 ff ff b0  	adrp	x3, 0x10000 <_ZNK19ChiFeature2RealTime16OnPipelineSelectEPKcPK26ChiFeature2CreateInputInfoh+0x488>
   27db8: 65 ff ff 90  	adrp	x5, 0x13000 <_ZNK19ChiFeature2RealTime16OnPipelineSelectEPKcPK26ChiFeature2CreateInputInfoh+0x498>
   27de0: 60 85 00 94  	bl	0x49360 <_ZN6ChiLog9LogSystemEPKcS1_S1_S1_iS1_z@plt>
   27df0: 21 24 00 54  	b.ne	0x28274 <_ZNK19ChiFeature2RealTime16OnPipelineSelectEPKcPK26ChiFeature2CreateInputInfoh+0x9a4>
   27df8: e1 24 00 54  	b.ne	0x28294 <_ZNK19ChiFeature2RealTime16OnPipelineSelectEPKcPK26ChiFeature2CreateInputInfoh+0x9c4>
   27e00: 28 2a 00 b4  	cbz	x8, 0x28344 <_ZNK19ChiFeature2RealTime16OnPipelineSelectEPKcPK26ChiFeature2CreateInputInfoh+0xa74>
   27e10: 61 26 00 54  	b.ne	0x282dc <_ZNK19ChiFeature2RealTime16OnPipelineSelectEPKcPK26ChiFeature2CreateInputInfoh+0xa0c>
   27e18: ca 00 30 37  	tbnz	w10, #6, 0x27e30 <_ZNK19ChiFeature2RealTime16OnPipelineSelectEPKcPK26ChiFeature2CreateInputInfoh+0x560>
   27e28: e1 27 00 54  	b.ne	0x28324 <_ZNK19ChiFeature2RealTime16OnPipelineSelectEPKcPK26ChiFeature2CreateInputInfoh+0xa54>
   27e2c: ca 28 28 36  	tbz	w10, #5, 0x28344 <_ZNK19ChiFeature2RealTime16OnPipelineSelectEPKcPK26ChiFeature2CreateInputInfoh+0xa74>
   27e3c: 21 26 00 54  	b.ne	0x28300 <_ZNK19ChiFeature2RealTime16OnPipelineSelectEPKcPK26ChiFeature2CreateInputInfoh+0xa30>
   27e44: 10 28 00 37  	tbnz	w16, #0, 0x28344 <_ZNK19ChiFeature2RealTime16OnPipelineSelectEPKcPK26ChiFeature2CreateInputInfoh+0xa74>
   27e48: 61 ff ff 90  	adrp	x1, 0x13000 <_ZNK19ChiFeature2RealTime16OnPipelineSelectEPKcPK26ChiFeature2CreateInputInfoh+0x528>
   27e64: d6 00 00 14  	b	0x281bc <_ZNK19ChiFeature2RealTime16OnPipelineSelectEPKcPK26ChiFeature2CreateInputInfoh+0x8ec>
   27e6c: 43 04 00 54  	b.lo	0x27ef4 <_ZNK19ChiFeature2RealTime16OnPipelineSelectEPKcPK26ChiFeature2CreateInputInfoh+0x624>
   27e74: 03 04 00 54  	b.lo	0x27ef4 <_ZNK19ChiFeature2RealTime16OnPipelineSelectEPKcPK26ChiFeature2CreateInputInfoh+0x624>
   27e80: 94 0d 00 37  	tbnz	w20, #0, 0x28030 <_ZNK19ChiFeature2RealTime16OnPipelineSelectEPKcPK26ChiFeature2CreateInputInfoh+0x760>
   27e90: 41 3a 00 54  	b.ne	0x285d8 <_ZNK19ChiFeature2RealTime16OnPipelineSelectEPKcPK26ChiFeature2CreateInputInfoh+0xd08>
   27ea0: c1 39 00 54  	b.ne	0x285d8 <_ZNK19ChiFeature2RealTime16OnPipelineSelectEPKcPK26ChiFeature2CreateInputInfoh+0xd08>
   27ea8: 69 04 00 54  	b.ls	0x27f34 <_ZNK19ChiFeature2RealTime16OnPipelineSelectEPKcPK26ChiFeature2CreateInputInfoh+0x664>
   27eac: 61 ff ff 90  	adrp	x1, 0x13000 <_ZNK19ChiFeature2RealTime16OnPipelineSelectEPKcPK26ChiFeature2CreateInputInfoh+0x58c>
   27eb4: 22 00 00 14  	b	0x27f3c <_ZNK19ChiFeature2RealTime16OnPipelineSelectEPKcPK26ChiFeature2CreateInputInfoh+0x66c>
   27ec4: 81 04 00 54  	b.ne	0x27f54 <_ZNK19ChiFeature2RealTime16OnPipelineSelectEPKcPK26ChiFeature2CreateInputInfoh+0x684>
   27ef0: 1a 00 00 14  	b	0x27f58 <_ZNK19ChiFeature2RealTime16OnPipelineSelectEPKcPK26ChiFeature2CreateInputInfoh+0x688>
   27efc: 61 05 00 54  	b.ne	0x27fa8 <_ZNK19ChiFeature2RealTime16OnPipelineSelectEPKcPK26ChiFeature2CreateInputInfoh+0x6d8>
   27f08: 56 09 00 37  	tbnz	w22, #0, 0x28030 <_ZNK19ChiFeature2RealTime16OnPipelineSelectEPKcPK26ChiFeature2CreateInputInfoh+0x760>
   27f18: 01 36 00 54  	b.ne	0x285d8 <_ZNK19ChiFeature2RealTime16OnPipelineSelectEPKcPK26ChiFeature2CreateInputInfoh+0xd08>
   27f28: 81 35 00 54  	b.ne	0x285d8 <_ZNK19ChiFeature2RealTime16OnPipelineSelectEPKcPK26ChiFeature2CreateInputInfoh+0xd08>
   27f30: e8 fb ff 54  	b.hi	0x27eac <_ZNK19ChiFeature2RealTime16OnPipelineSelectEPKcPK26ChiFeature2CreateInputInfoh+0x5dc>
   27f34: 41 ff ff f0  	adrp	x1, 0x12000 <_ZNK19ChiFeature2RealTime16OnPipelineSelectEPKcPK26ChiFeature2CreateInputInfoh+0x610>
   27f44: 60 07 00 35  	cbnz	w0, 0x28030 <_ZNK19ChiFeature2RealTime16OnPipelineSelectEPKcPK26ChiFeature2CreateInputInfoh+0x760>
   27f50: 57 00 00 14  	b	0x280ac <_ZNK19ChiFeature2RealTime16OnPipelineSelectEPKcPK26ChiFeature2CreateInputInfoh+0x7dc>
   27f6c: c1 03 00 54  	b.ne	0x27fe4 <_ZNK19ChiFeature2RealTime16OnPipelineSelectEPKcPK26ChiFeature2CreateInputInfoh+0x714>
   27f70: b6 03 00 37  	tbnz	w22, #0, 0x27fe4 <_ZNK19ChiFeature2RealTime16OnPipelineSelectEPKcPK26ChiFeature2CreateInputInfoh+0x714>
   27f80: c1 32 00 54  	b.ne	0x285d8 <_ZNK19ChiFeature2RealTime16OnPipelineSelectEPKcPK26ChiFeature2CreateInputInfoh+0xd08>
   27f8c: 61 32 00 54  	b.ne	0x285d8 <_ZNK19ChiFeature2RealTime16OnPipelineSelectEPKcPK26ChiFeature2CreateInputInfoh+0xd08>
   27f94: c9 01 00 54  	b.ls	0x27fcc <_ZNK19ChiFeature2RealTime16OnPipelineSelectEPKcPK26ChiFeature2CreateInputInfoh+0x6fc>
   27f98: 41 ff ff b0  	adrp	x1, 0x10000 <_ZNK19ChiFeature2RealTime16OnPipelineSelectEPKcPK26ChiFeature2CreateInputInfoh+0x66c>
   27fa4: 0d 00 00 14  	b	0x27fd8 <_ZNK19ChiFeature2RealTime16OnPipelineSelectEPKcPK26ChiFeature2CreateInputInfoh+0x708>
   27fb8: a1 03 00 54  	b.ne	0x2802c <_ZNK19ChiFeature2RealTime16OnPipelineSelectEPKcPK26ChiFeature2CreateInputInfoh+0x75c>
   27fbc: ab 03 00 37  	tbnz	w11, #0, 0x28030 <_ZNK19ChiFeature2RealTime16OnPipelineSelectEPKcPK26ChiFeature2CreateInputInfoh+0x760>
   27fc0: 61 ff ff 90  	adrp	x1, 0x13000 <_ZNK19ChiFeature2RealTime16OnPipelineSelectEPKcPK26ChiFeature2CreateInputInfoh+0x6a0>
   27fc8: 23 00 00 14  	b	0x28054 <_ZNK19ChiFeature2RealTime16OnPipelineSelectEPKcPK26ChiFeature2CreateInputInfoh+0x784>
   27fcc: 41 ff ff 90  	adrp	x1, 0xf000 <_ZNK19ChiFeature2RealTime16OnPipelineSelectEPKcPK26ChiFeature2CreateInputInfoh+0x69c>
   27fe0: 40 06 00 34  	cbz	w0, 0x280a8 <_ZNK19ChiFeature2RealTime16OnPipelineSelectEPKcPK26ChiFeature2CreateInputInfoh+0x7d8>
   27fe4: 36 05 00 37  	tbnz	w22, #0, 0x28088 <_ZNK19ChiFeature2RealTime16OnPipelineSelectEPKcPK26ChiFeature2CreateInputInfoh+0x7b8>
   27ff4: 21 2f 00 54  	b.ne	0x285d8 <_ZNK19ChiFeature2RealTime16OnPipelineSelectEPKcPK26ChiFeature2CreateInputInfoh+0xd08>
   28000: c1 2e 00 54  	b.ne	0x285d8 <_ZNK19ChiFeature2RealTime16OnPipelineSelectEPKcPK26ChiFeature2CreateInputInfoh+0xd08>
   28008: 89 00 00 54  	b.ls	0x28018 <_ZNK19ChiFeature2RealTime16OnPipelineSelectEPKcPK26ChiFeature2CreateInputInfoh+0x748>
   2800c: 41 ff ff 90  	adrp	x1, 0x10000 <_ZNK19ChiFeature2RealTime16OnPipelineSelectEPKcPK26ChiFeature2CreateInputInfoh+0x6dc>
   28014: 03 00 00 14  	b	0x28020 <_ZNK19ChiFeature2RealTime16OnPipelineSelectEPKcPK26ChiFeature2CreateInputInfoh+0x750>
   28018: 21 ff ff f0  	adrp	x1, 0xf000 <_ZNK19ChiFeature2RealTime16OnPipelineSelectEPKcPK26ChiFeature2CreateInputInfoh+0x6e4>
   28028: 0e 00 00 14  	b	0x28060 <_ZNK19ChiFeature2RealTime16OnPipelineSelectEPKcPK26ChiFeature2CreateInputInfoh+0x790>
   2802c: 8b 00 00 37  	tbnz	w11, #0, 0x2803c <_ZNK19ChiFeature2RealTime16OnPipelineSelectEPKcPK26ChiFeature2CreateInputInfoh+0x76c>
   28038: 1d 00 00 14  	b	0x280ac <_ZNK19ChiFeature2RealTime16OnPipelineSelectEPKcPK26ChiFeature2CreateInputInfoh+0x7dc>
   2803c: 8b 00 08 37  	tbnz	w11, #1, 0x2804c <_ZNK19ChiFeature2RealTime16OnPipelineSelectEPKcPK26ChiFeature2CreateInputInfoh+0x77c>
   28040: 41 ff ff b0  	adrp	x1, 0x11000 <_ZNK19ChiFeature2RealTime16OnPipelineSelectEPKcPK26ChiFeature2CreateInputInfoh+0x714>
   28048: 03 00 00 14  	b	0x28054 <_ZNK19ChiFeature2RealTime16OnPipelineSelectEPKcPK26ChiFeature2CreateInputInfoh+0x784>
   2804c: 41 ff ff b0  	adrp	x1, 0x11000 <_ZNK19ChiFeature2RealTime16OnPipelineSelectEPKcPK26ChiFeature2CreateInputInfoh+0x720>
   28068: 11 00 00 14  	b	0x280ac <_ZNK19ChiFeature2RealTime16OnPipelineSelectEPKcPK26ChiFeature2CreateInputInfoh+0x7dc>
   28070: 60 e0 ff 54  	b.eq	0x27c7c <_ZNK19ChiFeature2RealTime16OnPipelineSelectEPKcPK26ChiFeature2CreateInputInfoh+0x3ac>
   2807c: 00 ff ff 17  	b	0x27c7c <_ZNK19ChiFeature2RealTime16OnPipelineSelectEPKcPK26ChiFeature2CreateInputInfoh+0x3ac>
   28084: 36 fb 07 36  	tbz	w22, #0, 0x27fe8 <_ZNK19ChiFeature2RealTime16OnPipelineSelectEPKcPK26ChiFeature2CreateInputInfoh+0x718>
   2808c: 08 00 00 14  	b	0x280ac <_ZNK19ChiFeature2RealTime16OnPipelineSelectEPKcPK26ChiFeature2CreateInputInfoh+0x7dc>
   28090: 21 ff ff d0  	adrp	x1, 0xe000 <_ZNK19ChiFeature2RealTime16OnPipelineSelectEPKcPK26ChiFeature2CreateInputInfoh+0x758>
   280a4: 00 fa ff 35  	cbnz	w0, 0x27fe4 <_ZNK19ChiFeature2RealTime16OnPipelineSelectEPKcPK26ChiFeature2CreateInputInfoh+0x714>
   280ac: 35 01 00 90  	adrp	x21, 0x4c000 <_ZNK19ChiFeature2RealTime16OnPipelineSelectEPKcPK26ChiFeature2CreateInputInfoh+0x86c>
   280b8: 28 08 18 36  	tbz	w8, #3, 0x281bc <_ZNK19ChiFeature2RealTime16OnPipelineSelectEPKcPK26ChiFeature2CreateInputInfoh+0x8ec>
   280bc: 29 01 00 90  	adrp	x9, 0x4c000 <_ZNK19ChiFeature2RealTime16OnPipelineSelectEPKcPK26ChiFeature2CreateInputInfoh+0x87c>
   280cc: c1 03 00 54  	b.ne	0x28144 <_ZNK19ChiFeature2RealTime16OnPipelineSelectEPKcPK26ChiFeature2CreateInputInfoh+0x874>
   280d0: 36 ff ff f0  	adrp	x22, 0xf000 <_ZNK19ChiFeature2RealTime16OnPipelineSelectEPKcPK26ChiFeature2CreateInputInfoh+0x79c>
   280f4: 61 ff ff 90  	adrp	x1, 0x14000 <_ZNK19ChiFeature2RealTime16OnPipelineSelectEPKcPK26ChiFeature2CreateInputInfoh+0x7d4>
   280f8: 42 ff ff 90  	adrp	x2, 0x10000 <_ZNK19ChiFeature2RealTime16OnPipelineSelectEPKcPK26ChiFeature2CreateInputInfoh+0x7c8>
   280fc: 45 ff ff 90  	adrp	x5, 0x10000 <_ZNK19ChiFeature2RealTime16OnPipelineSelectEPKcPK26ChiFeature2CreateInputInfoh+0x7cc>
   28144: 36 ff ff f0  	adrp	x22, 0xf000 <_ZNK19ChiFeature2RealTime16OnPipelineSelectEPKcPK26ChiFeature2CreateInputInfoh+0x810>
   2816c: 60 ff ff 90  	adrp	x0, 0x14000 <_ZNK19ChiFeature2RealTime16OnPipelineSelectEPKcPK26ChiFeature2CreateInputInfoh+0x84c>
   28170: 41 ff ff b0  	adrp	x1, 0x11000 <_ZNK19ChiFeature2RealTime16OnPipelineSelectEPKcPK26ChiFeature2CreateInputInfoh+0x844>
   28174: 43 ff ff 90  	adrp	x3, 0x10000 <_ZNK19ChiFeature2RealTime16OnPipelineSelectEPKcPK26ChiFeature2CreateInputInfoh+0x844>
   28178: 45 ff ff f0  	adrp	x5, 0x13000 <_ZNK19ChiFeature2RealTime16OnPipelineSelectEPKcPK26ChiFeature2CreateInputInfoh+0x854>
   281b8: 6a 84 00 94  	bl	0x49360 <_ZN6ChiLog9LogSystemEPKcS1_S1_S1_iS1_z@plt>
   281bc: 34 c5 ff 34  	cbz	w20, 0x27a60 <_ZNK19ChiFeature2RealTime16OnPipelineSelectEPKcPK26ChiFeature2CreateInputInfoh+0x190>
   281c0: a6 00 00 14  	b	0x28458 <_ZNK19ChiFeature2RealTime16OnPipelineSelectEPKcPK26ChiFeature2CreateInputInfoh+0xb88>
   281e0: 20 bb ff 54  	b.eq	0x27944 <_ZNK19ChiFeature2RealTime16OnPipelineSelectEPKcPK26ChiFeature2CreateInputInfoh+0x74>
   281fc: 8a ba ff b5  	cbnz	x10, 0x2794c <_ZNK19ChiFeature2RealTime16OnPipelineSelectEPKcPK26ChiFeature2CreateInputInfoh+0x7c>
   28200: d9 fd ff 17  	b	0x27964 <_ZNK19ChiFeature2RealTime16OnPipelineSelectEPKcPK26ChiFeature2CreateInputInfoh+0x94>
   28220: 29 ba 1f 36  	tbz	w9, #3, 0x27964 <_ZNK19ChiFeature2RealTime16OnPipelineSelectEPKcPK26ChiFeature2CreateInputInfoh+0x94>
   28230: 21 04 00 54  	b.ne	0x282b4 <_ZNK19ChiFeature2RealTime16OnPipelineSelectEPKcPK26ChiFeature2CreateInputInfoh+0x9e4>
   28238: 89 b9 07 37  	tbnz	w9, #0, 0x27968 <_ZNK19ChiFeature2RealTime16OnPipelineSelectEPKcPK26ChiFeature2CreateInputInfoh+0x98>
   28248: 00 01 00 54  	b.eq	0x28268 <_ZNK19ChiFeature2RealTime16OnPipelineSelectEPKcPK26ChiFeature2CreateInputInfoh+0x998>
   28258: 80 00 00 54  	b.eq	0x28268 <_ZNK19ChiFeature2RealTime16OnPipelineSelectEPKcPK26ChiFeature2CreateInputInfoh+0x998>
   2825c: 21 ff ff f0  	adrp	x1, 0xf000 <_ZNK19ChiFeature2RealTime16OnPipelineSelectEPKcPK26ChiFeature2CreateInputInfoh+0x928>
   28264: 78 00 00 14  	b	0x28444 <_ZNK19ChiFeature2RealTime16OnPipelineSelectEPKcPK26ChiFeature2CreateInputInfoh+0xb74>
   28268: 21 ff ff 90  	adrp	x1, 0xc000 <_ZNK19ChiFeature2RealTime16OnPipelineSelectEPKcPK26ChiFeature2CreateInputInfoh+0x928>
   28270: 75 00 00 14  	b	0x28444 <_ZNK19ChiFeature2RealTime16OnPipelineSelectEPKcPK26ChiFeature2CreateInputInfoh+0xb74>
   28290: 60 db ff 54  	b.eq	0x27dfc <_ZNK19ChiFeature2RealTime16OnPipelineSelectEPKcPK26ChiFeature2CreateInputInfoh+0x52c>
   282ac: c8 da ff b5  	cbnz	x8, 0x27e04 <_ZNK19ChiFeature2RealTime16OnPipelineSelectEPKcPK26ChiFeature2CreateInputInfoh+0x534>
   282b0: 25 00 00 14  	b	0x28344 <_ZNK19ChiFeature2RealTime16OnPipelineSelectEPKcPK26ChiFeature2CreateInputInfoh+0xa74>
   282d4: a9 b4 07 37  	tbnz	w9, #0, 0x27968 <_ZNK19ChiFeature2RealTime16OnPipelineSelectEPKcPK26ChiFeature2CreateInputInfoh+0x98>
   282d8: d9 ff ff 17  	b	0x2823c <_ZNK19ChiFeature2RealTime16OnPipelineSelectEPKcPK26ChiFeature2CreateInputInfoh+0x96c>
   282f8: 2a d9 37 36  	tbz	w10, #6, 0x27e1c <_ZNK19ChiFeature2RealTime16OnPipelineSelectEPKcPK26ChiFeature2CreateInputInfoh+0x54c>
   282fc: cd fe ff 17  	b	0x27e30 <_ZNK19ChiFeature2RealTime16OnPipelineSelectEPKcPK26ChiFeature2CreateInputInfoh+0x560>
   2831c: 70 d9 07 36  	tbz	w16, #0, 0x27e48 <_ZNK19ChiFeature2RealTime16OnPipelineSelectEPKcPK26ChiFeature2CreateInputInfoh+0x578>
   28320: 09 00 00 14  	b	0x28344 <_ZNK19ChiFeature2RealTime16OnPipelineSelectEPKcPK26ChiFeature2CreateInputInfoh+0xa74>
   28340: 8a d7 2f 37  	tbnz	w10, #5, 0x27e30 <_ZNK19ChiFeature2RealTime16OnPipelineSelectEPKcPK26ChiFeature2CreateInputInfoh+0x560>
   28348: e1 02 00 54  	b.ne	0x283a4 <_ZNK19ChiFeature2RealTime16OnPipelineSelectEPKcPK26ChiFeature2CreateInputInfoh+0xad4>
   2835c: e0 07 00 54  	b.eq	0x28458 <_ZNK19ChiFeature2RealTime16OnPipelineSelectEPKcPK26ChiFeature2CreateInputInfoh+0xb88>
   2836c: 60 07 00 54  	b.eq	0x28458 <_ZNK19ChiFeature2RealTime16OnPipelineSelectEPKcPK26ChiFeature2CreateInputInfoh+0xb88>
   28370: 41 ff ff f0  	adrp	x1, 0x13000 <_ZNK19ChiFeature2RealTime16OnPipelineSelectEPKcPK26ChiFeature2CreateInputInfoh+0xa4c>
   28388: a1 05 00 54  	b.ne	0x2843c <_ZNK19ChiFeature2RealTime16OnPipelineSelectEPKcPK26ChiFeature2CreateInputInfoh+0xb6c>
   28394: 41 05 00 54  	b.ne	0x2843c <_ZNK19ChiFeature2RealTime16OnPipelineSelectEPKcPK26ChiFeature2CreateInputInfoh+0xb6c>
   28398: 20 05 00 35  	cbnz	w0, 0x2843c <_ZNK19ChiFeature2RealTime16OnPipelineSelectEPKcPK26ChiFeature2CreateInputInfoh+0xb6c>
   283a0: 2e 00 00 14  	b	0x28458 <_ZNK19ChiFeature2RealTime16OnPipelineSelectEPKcPK26ChiFeature2CreateInputInfoh+0xb88>
   283ac: 8c 00 00 37  	tbnz	w12, #0, 0x283bc <_ZNK19ChiFeature2RealTime16OnPipelineSelectEPKcPK26ChiFeature2CreateInputInfoh+0xaec>
   283b0: 41 ff ff b0  	adrp	x1, 0x11000 <_ZNK19ChiFeature2RealTime16OnPipelineSelectEPKcPK26ChiFeature2CreateInputInfoh+0xa84>
   283b8: 23 00 00 14  	b	0x28444 <_ZNK19ChiFeature2RealTime16OnPipelineSelectEPKcPK26ChiFeature2CreateInputInfoh+0xb74>
   283bc: 2c 02 08 37  	tbnz	w12, #1, 0x28400 <_ZNK19ChiFeature2RealTime16OnPipelineSelectEPKcPK26ChiFeature2CreateInputInfoh+0xb30>
   283c4: ec b4 17 36  	tbz	w12, #2, 0x27a60 <_ZNK19ChiFeature2RealTime16OnPipelineSelectEPKcPK26ChiFeature2CreateInputInfoh+0x190>
   283d0: e8 00 00 54  	b.hi	0x283ec <_ZNK19ChiFeature2RealTime16OnPipelineSelectEPKcPK26ChiFeature2CreateInputInfoh+0xb1c>
   283e8: 61 00 00 54  	b.ne	0x283f4 <_ZNK19ChiFeature2RealTime16OnPipelineSelectEPKcPK26ChiFeature2CreateInputInfoh+0xb24>
   283f0: c1 0e 00 54  	b.ne	0x285c8 <_ZNK19ChiFeature2RealTime16OnPipelineSelectEPKcPK26ChiFeature2CreateInputInfoh+0xcf8>
   283f4: 21 ff ff b0  	adrp	x1, 0xd000 <_ZNK19ChiFeature2RealTime16OnPipelineSelectEPKcPK26ChiFeature2CreateInputInfoh+0xab8>
   283fc: 12 00 00 14  	b	0x28444 <_ZNK19ChiFeature2RealTime16OnPipelineSelectEPKcPK26ChiFeature2CreateInputInfoh+0xb74>
   2840c: e8 00 00 54  	b.hi	0x28428 <_ZNK19ChiFeature2RealTime16OnPipelineSelectEPKcPK26ChiFeature2CreateInputInfoh+0xb58>
   28424: 61 00 00 54  	b.ne	0x28430 <_ZNK19ChiFeature2RealTime16OnPipelineSelectEPKcPK26ChiFeature2CreateInputInfoh+0xb60>
   2842c: 81 0c 00 54  	b.ne	0x285bc <_ZNK19ChiFeature2RealTime16OnPipelineSelectEPKcPK26ChiFeature2CreateInputInfoh+0xcec>
   28430: 41 ff ff f0  	adrp	x1, 0x13000 <_ZNK19ChiFeature2RealTime16OnPipelineSelectEPKcPK26ChiFeature2CreateInputInfoh+0xb0c>
   28438: 03 00 00 14  	b	0x28444 <_ZNK19ChiFeature2RealTime16OnPipelineSelectEPKcPK26ChiFeature2CreateInputInfoh+0xb74>
   2843c: 61 ff ff 90  	adrp	x1, 0x14000 <_ZNK19ChiFeature2RealTime16OnPipelineSelectEPKcPK26ChiFeature2CreateInputInfoh+0xb1c>
   28454: 80 b0 ff 35  	cbnz	w0, 0x27a64 <_ZNK19ChiFeature2RealTime16OnPipelineSelectEPKcPK26ChiFeature2CreateInputInfoh+0x194>
   28458: 22 01 00 90  	adrp	x2, 0x4c000 <_ZNK19ChiFeature2RealTime16OnPipelineSelectEPKcPK26ChiFeature2CreateInputInfoh+0xc18>
   28464: 65 00 18 37  	tbnz	w5, #3, 0x28470 <_ZNK19ChiFeature2RealTime16OnPipelineSelectEPKcPK26ChiFeature2CreateInputInfoh+0xba0>
   2846c: 7e fd ff 17  	b	0x27a64 <_ZNK19ChiFeature2RealTime16OnPipelineSelectEPKcPK26ChiFeature2CreateInputInfoh+0x194>
   28470: 23 01 00 90  	adrp	x3, 0x4c000 <_ZNK19ChiFeature2RealTime16OnPipelineSelectEPKcPK26ChiFeature2CreateInputInfoh+0xc30>
   28474: 36 ff ff f0  	adrp	x22, 0xf000 <_ZNK19ChiFeature2RealTime16OnPipelineSelectEPKcPK26ChiFeature2CreateInputInfoh+0xb40>
   28488: c1 04 00 54  	b.ne	0x28520 <_ZNK19ChiFeature2RealTime16OnPipelineSelectEPKcPK26ChiFeature2CreateInputInfoh+0xc50>
   284ac: 22 ff ff f0  	adrp	x2, 0xf000 <_ZNK19ChiFeature2RealTime16OnPipelineSelectEPKcPK26ChiFeature2CreateInputInfoh+0xb78>
   284c0: 45 ff ff 90  	adrp	x5, 0x10000 <_ZNK19ChiFeature2RealTime16OnPipelineSelectEPKcPK26ChiFeature2CreateInputInfoh+0xb90>
   284ec: 61 ff ff 90  	adrp	x1, 0x14000 <_ZNK19ChiFeature2RealTime16OnPipelineSelectEPKcPK26ChiFeature2CreateInputInfoh+0xbcc>
   28544: 60 ff ff 90  	adrp	x0, 0x14000 <_ZNK19ChiFeature2RealTime16OnPipelineSelectEPKcPK26ChiFeature2CreateInputInfoh+0xc24>
   28548: 41 ff ff b0  	adrp	x1, 0x11000 <_ZNK19ChiFeature2RealTime16OnPipelineSelectEPKcPK26ChiFeature2CreateInputInfoh+0xc1c>
   2854c: 25 ff ff b0  	adrp	x5, 0xd000 <_ZNK19ChiFeature2RealTime16OnPipelineSelectEPKcPK26ChiFeature2CreateInputInfoh+0xc10>
   28564: 43 ff ff 90  	adrp	x3, 0x10000 <_ZNK19ChiFeature2RealTime16OnPipelineSelectEPKcPK26ChiFeature2CreateInputInfoh+0xc34>
   285b4: 6b 83 00 94  	bl	0x49360 <_ZN6ChiLog9LogSystemEPKcS1_S1_S1_iS1_z@plt>
   285b8: 2b fd ff 17  	b	0x27a64 <_ZNK19ChiFeature2RealTime16OnPipelineSelectEPKcPK26ChiFeature2CreateInputInfoh+0x194>
   285bc: 41 ff ff b0  	adrp	x1, 0x11000 <_ZNK19ChiFeature2RealTime16OnPipelineSelectEPKcPK26ChiFeature2CreateInputInfoh+0xc90>
   285c4: a0 ff ff 17  	b	0x28444 <_ZNK19ChiFeature2RealTime16OnPipelineSelectEPKcPK26ChiFeature2CreateInputInfoh+0xb74>
   285c8: 41 ff ff b0  	adrp	x1, 0x11000 <_ZNK19ChiFeature2RealTime16OnPipelineSelectEPKcPK26ChiFeature2CreateInputInfoh+0xc9c>
   285d0: 9d ff ff 17  	b	0x28444 <_ZNK19ChiFeature2RealTime16OnPipelineSelectEPKcPK26ChiFeature2CreateInputInfoh+0xb74>
00000000000285e0 <_ZNK19ChiFeature2RealTime24OnPruneUsecaseDescriptorEPK26ChiFeature2CreateInputInfoRNSt3__16vectorI12PruneVariantNS3_9allocatorIS5_EEEE>:
   28614: 61 00 00 b4  	cbz	x1, 0x28620 <_ZNK19ChiFeature2RealTime24OnPruneUsecaseDescriptorEPK26ChiFeature2CreateInputInfoRNSt3__16vectorI12PruneVariantNS3_9allocatorIS5_EEEE+0x40>
   2861c: 02 00 00 14  	b	0x28624 <_ZNK19ChiFeature2RealTime24OnPruneUsecaseDescriptorEPK26ChiFeature2CreateInputInfoRNSt3__16vectorI12PruneVariantNS3_9allocatorIS5_EEEE+0x44>
   28624: 0b 84 00 94  	bl	0x49650 <_ZN15ExtensionModule11GetInstanceEv@plt>
   28628: 38 01 00 90  	adrp	x24, 0x4c000 <_ZNK19ChiFeature2RealTime24OnPruneUsecaseDescriptorEPK26ChiFeature2CreateInputInfoRNSt3__16vectorI12PruneVariantNS3_9allocatorIS5_EEEE+0xd8>
   28630: 3c 20 00 b4  	cbz	x28, 0x28a34 <_ZNK19ChiFeature2RealTime24OnPruneUsecaseDescriptorEPK26ChiFeature2CreateInputInfoRNSt3__16vectorI12PruneVariantNS3_9allocatorIS5_EEEE+0x454>
   28640: a1 1f 00 54  	b.ne	0x28a34 <_ZNK19ChiFeature2RealTime24OnPruneUsecaseDescriptorEPK26ChiFeature2CreateInputInfoRNSt3__16vectorI12PruneVariantNS3_9allocatorIS5_EEEE+0x454>
   2864c: ea 06 00 34  	cbz	w10, 0x28728 <_ZNK19ChiFeature2RealTime24OnPruneUsecaseDescriptorEPK26ChiFeature2CreateInputInfoRNSt3__16vectorI12PruneVariantNS3_9allocatorIS5_EEEE+0x148>
   28678: 0a 00 00 14  	b	0x286a0 <_ZNK19ChiFeature2RealTime24OnPruneUsecaseDescriptorEPK26ChiFeature2CreateInputInfoRNSt3__16vectorI12PruneVariantNS3_9allocatorIS5_EEEE+0xc0>
   28680: 44 84 00 94  	bl	0x49790 <_ZN15UsecaseSelector15IsPreviewStreamEPK14camera3_stream@plt>
   28684: c0 02 00 34  	cbz	w0, 0x286dc <_ZNK19ChiFeature2RealTime24OnPruneUsecaseDescriptorEPK26ChiFeature2CreateInputInfoRNSt3__16vectorI12PruneVariantNS3_9allocatorIS5_EEEE+0xfc>
   2869c: c2 02 00 54  	b.hs	0x286f4 <_ZNK19ChiFeature2RealTime24OnPruneUsecaseDescriptorEPK26ChiFeature2CreateInputInfoRNSt3__16vectorI12PruneVariantNS3_9allocatorIS5_EEEE+0x114>
   286ac: 8b fe 07 36  	tbz	w11, #0, 0x2867c <_ZNK19ChiFeature2RealTime24OnPruneUsecaseDescriptorEPK26ChiFeature2CreateInputInfoRNSt3__16vectorI12PruneVariantNS3_9allocatorIS5_EEEE+0x9c>
   286b4: 4c fe 07 36  	tbz	w12, #0, 0x2867c <_ZNK19ChiFeature2RealTime24OnPruneUsecaseDescriptorEPK26ChiFeature2CreateInputInfoRNSt3__16vectorI12PruneVariantNS3_9allocatorIS5_EEEE+0x9c>
   286c4: c0 fd ff 54  	b.eq	0x2867c <_ZNK19ChiFeature2RealTime24OnPruneUsecaseDescriptorEPK26ChiFeature2CreateInputInfoRNSt3__16vectorI12PruneVariantNS3_9allocatorIS5_EEEE+0x9c>
   286d8: ee ff ff 17  	b	0x28690 <_ZNK19ChiFeature2RealTime24OnPruneUsecaseDescriptorEPK26ChiFeature2CreateInputInfoRNSt3__16vectorI12PruneVariantNS3_9allocatorIS5_EEEE+0xb0>
   286e0: 30 84 00 94  	bl	0x497a0 <_ZN15UsecaseSelector11IsYUVStreamEPK14camera3_stream@plt>
   286e4: 60 fd ff 34  	cbz	w0, 0x28690 <_ZNK19ChiFeature2RealTime24OnPruneUsecaseDescriptorEPK26ChiFeature2CreateInputInfoRNSt3__16vectorI12PruneVariantNS3_9allocatorIS5_EEEE+0xb0>
   286f0: e8 ff ff 17  	b	0x28690 <_ZNK19ChiFeature2RealTime24OnPruneUsecaseDescriptorEPK26ChiFeature2CreateInputInfoRNSt3__16vectorI12PruneVariantNS3_9allocatorIS5_EEEE+0xb0>
   28700: a1 01 00 54  	b.ne	0x28734 <_ZNK19ChiFeature2RealTime24OnPruneUsecaseDescriptorEPK26ChiFeature2CreateInputInfoRNSt3__16vectorI12PruneVariantNS3_9allocatorIS5_EEEE+0x154>
   28710: 01 2b 00 54  	b.ne	0x28c70 <_ZNK19ChiFeature2RealTime24OnPruneUsecaseDescriptorEPK26ChiFeature2CreateInputInfoRNSt3__16vectorI12PruneVariantNS3_9allocatorIS5_EEEE+0x690>
   28720: 20 01 00 54  	b.eq	0x28744 <_ZNK19ChiFeature2RealTime24OnPruneUsecaseDescriptorEPK26ChiFeature2CreateInputInfoRNSt3__16vectorI12PruneVariantNS3_9allocatorIS5_EEEE+0x164>
   28724: 0d 00 00 14  	b	0x28758 <_ZNK19ChiFeature2RealTime24OnPruneUsecaseDescriptorEPK26ChiFeature2CreateInputInfoRNSt3__16vectorI12PruneVariantNS3_9allocatorIS5_EEEE+0x178>
   28730: 28 00 00 14  	b	0x287d0 <_ZNK19ChiFeature2RealTime24OnPruneUsecaseDescriptorEPK26ChiFeature2CreateInputInfoRNSt3__16vectorI12PruneVariantNS3_9allocatorIS5_EEEE+0x1f0>
   28740: c1 00 00 54  	b.ne	0x28758 <_ZNK19ChiFeature2RealTime24OnPruneUsecaseDescriptorEPK26ChiFeature2CreateInputInfoRNSt3__16vectorI12PruneVariantNS3_9allocatorIS5_EEEE+0x178>
   2874c: 21 29 00 54  	b.ne	0x28c70 <_ZNK19ChiFeature2RealTime24OnPruneUsecaseDescriptorEPK26ChiFeature2CreateInputInfoRNSt3__16vectorI12PruneVariantNS3_9allocatorIS5_EEEE+0x690>
   28764: 21 01 00 54  	b.ne	0x28788 <_ZNK19ChiFeature2RealTime24OnPruneUsecaseDescriptorEPK26ChiFeature2CreateInputInfoRNSt3__16vectorI12PruneVariantNS3_9allocatorIS5_EEEE+0x1a8>
   28770: 01 28 00 54  	b.ne	0x28c70 <_ZNK19ChiFeature2RealTime24OnPruneUsecaseDescriptorEPK26ChiFeature2CreateInputInfoRNSt3__16vectorI12PruneVariantNS3_9allocatorIS5_EEEE+0x690>
   28780: a3 00 00 54  	b.lo	0x28794 <_ZNK19ChiFeature2RealTime24OnPruneUsecaseDescriptorEPK26ChiFeature2CreateInputInfoRNSt3__16vectorI12PruneVariantNS3_9allocatorIS5_EEEE+0x1b4>
   28784: 06 00 00 14  	b	0x2879c <_ZNK19ChiFeature2RealTime24OnPruneUsecaseDescriptorEPK26ChiFeature2CreateInputInfoRNSt3__16vectorI12PruneVariantNS3_9allocatorIS5_EEEE+0x1bc>
   28790: 62 00 00 54  	b.hs	0x2879c <_ZNK19ChiFeature2RealTime24OnPruneUsecaseDescriptorEPK26ChiFeature2CreateInputInfoRNSt3__16vectorI12PruneVariantNS3_9allocatorIS5_EEEE+0x1bc>
   28798: a8 00 00 54  	b.hi	0x287ac <_ZNK19ChiFeature2RealTime24OnPruneUsecaseDescriptorEPK26ChiFeature2CreateInputInfoRNSt3__16vectorI12PruneVariantNS3_9allocatorIS5_EEEE+0x1cc>
   287a0: 82 01 00 54  	b.hs	0x287d0 <_ZNK19ChiFeature2RealTime24OnPruneUsecaseDescriptorEPK26ChiFeature2CreateInputInfoRNSt3__16vectorI12PruneVariantNS3_9allocatorIS5_EEEE+0x1f0>
   287a8: 49 01 00 54  	b.ls	0x287d0 <_ZNK19ChiFeature2RealTime24OnPruneUsecaseDescriptorEPK26ChiFeature2CreateInputInfoRNSt3__16vectorI12PruneVariantNS3_9allocatorIS5_EEEE+0x1f0>
   287b4: e1 25 00 54  	b.ne	0x28c70 <_ZNK19ChiFeature2RealTime24OnPruneUsecaseDescriptorEPK26ChiFeature2CreateInputInfoRNSt3__16vectorI12PruneVariantNS3_9allocatorIS5_EEEE+0x690>
   287c0: 81 25 00 54  	b.ne	0x28c70 <_ZNK19ChiFeature2RealTime24OnPruneUsecaseDescriptorEPK26ChiFeature2CreateInputInfoRNSt3__16vectorI12PruneVariantNS3_9allocatorIS5_EEEE+0x690>
   287d0: 60 ff ff 90  	adrp	x0, 0x14000 <_ZNK19ChiFeature2RealTime24OnPruneUsecaseDescriptorEPK26ChiFeature2CreateInputInfoRNSt3__16vectorI12PruneVariantNS3_9allocatorIS5_EEEE+0x1a0>
   287dc: fd 83 00 94  	bl	0x497d0 <_ZN15UsecaseSelector15GetVariantGroupEPKc@plt>
   287e0: 58 ff ff 90  	adrp	x24, 0x10000 <_ZNK19ChiFeature2RealTime24OnPruneUsecaseDescriptorEPK26ChiFeature2CreateInputInfoRNSt3__16vectorI12PruneVariantNS3_9allocatorIS5_EEEE+0x1a0>
   287e4: 36 ff ff d0  	adrp	x22, 0xe000 <_ZNK19ChiFeature2RealTime24OnPruneUsecaseDescriptorEPK26ChiFeature2CreateInputInfoRNSt3__16vectorI12PruneVariantNS3_9allocatorIS5_EEEE+0x19c>
   28800: f8 83 00 94  	bl	0x497e0 <_ZN15UsecaseSelector14GetVariantTypeEPKc@plt>
   28808: 20 ff ff b0  	adrp	x0, 0xd000 <_ZNK19ChiFeature2RealTime24OnPruneUsecaseDescriptorEPK26ChiFeature2CreateInputInfoRNSt3__16vectorI12PruneVariantNS3_9allocatorIS5_EEEE+0x1bc>
   28814: ef 83 00 94  	bl	0x497d0 <_ZN15UsecaseSelector15GetVariantGroupEPKc@plt>
   28828: ee 83 00 94  	bl	0x497e0 <_ZN15UsecaseSelector14GetVariantTypeEPKc@plt>
   28830: 20 ff ff d0  	adrp	x0, 0xe000 <_ZNK19ChiFeature2RealTime24OnPruneUsecaseDescriptorEPK26ChiFeature2CreateInputInfoRNSt3__16vectorI12PruneVariantNS3_9allocatorIS5_EEEE+0x1e8>
   28838: e6 83 00 94  	bl	0x497d0 <_ZN15UsecaseSelector15GetVariantGroupEPKc@plt>
   28844: e7 83 00 94  	bl	0x497e0 <_ZN15UsecaseSelector14GetVariantTypeEPKc@plt>
   2884c: 20 ff ff d0  	adrp	x0, 0xe000 <_ZNK19ChiFeature2RealTime24OnPruneUsecaseDescriptorEPK26ChiFeature2CreateInputInfoRNSt3__16vectorI12PruneVariantNS3_9allocatorIS5_EEEE+0x204>
   28858: de 83 00 94  	bl	0x497d0 <_ZN15UsecaseSelector15GetVariantGroupEPKc@plt>
   28860: 50 ff ff d0  	adrp	x16, 0x12000 <_ZNK19ChiFeature2RealTime24OnPruneUsecaseDescriptorEPK26ChiFeature2CreateInputInfoRNSt3__16vectorI12PruneVariantNS3_9allocatorIS5_EEEE+0x228>
   28868: 51 ff ff f0  	adrp	x17, 0x13000 <_ZNK19ChiFeature2RealTime24OnPruneUsecaseDescriptorEPK26ChiFeature2CreateInputInfoRNSt3__16vectorI12PruneVariantNS3_9allocatorIS5_EEEE+0x234>
   2888c: d5 83 00 94  	bl	0x497e0 <_ZN15UsecaseSelector14GetVariantTypeEPKc@plt>
   288ac: 48 04 00 54  	b.hi	0x28934 <_ZNK19ChiFeature2RealTime24OnPruneUsecaseDescriptorEPK26ChiFeature2CreateInputInfoRNSt3__16vectorI12PruneVariantNS3_9allocatorIS5_EEEE+0x354>
   288cc: ab 01 00 54  	b.lt	0x28900 <_ZNK19ChiFeature2RealTime24OnPruneUsecaseDescriptorEPK26ChiFeature2CreateInputInfoRNSt3__16vectorI12PruneVariantNS3_9allocatorIS5_EEEE+0x320>
   288d8: c1 1c 00 54  	b.ne	0x28c70 <_ZNK19ChiFeature2RealTime24OnPruneUsecaseDescriptorEPK26ChiFeature2CreateInputInfoRNSt3__16vectorI12PruneVariantNS3_9allocatorIS5_EEEE+0x690>
   288fc: 02 00 00 14  	b	0x28904 <_ZNK19ChiFeature2RealTime24OnPruneUsecaseDescriptorEPK26ChiFeature2CreateInputInfoRNSt3__16vectorI12PruneVariantNS3_9allocatorIS5_EEEE+0x324>
   28918: f8 00 00 b4  	cbz	x24, 0x28934 <_ZNK19ChiFeature2RealTime24OnPruneUsecaseDescriptorEPK26ChiFeature2CreateInputInfoRNSt3__16vectorI12PruneVariantNS3_9allocatorIS5_EEEE+0x354>
   28928: 43 1a 00 b5  	cbnz	x3, 0x28c70 <_ZNK19ChiFeature2RealTime24OnPruneUsecaseDescriptorEPK26ChiFeature2CreateInputInfoRNSt3__16vectorI12PruneVariantNS3_9allocatorIS5_EEEE+0x690>
   2893c: 15 18 00 94  	bl	0x2e990 <_ZN19ChiFeature2RealTime22UpdateStreamCropEnableEP11ChiMetadata+0xb0>
   28948: 12 18 00 94  	bl	0x2e990 <_ZN19ChiFeature2RealTime22UpdateStreamCropEnableEP11ChiMetadata+0xb0>
   28954: 0f 18 00 94  	bl	0x2e990 <_ZN19ChiFeature2RealTime22UpdateStreamCropEnableEP11ChiMetadata+0xb0>
   28960: 0c 18 00 94  	bl	0x2e990 <_ZN19ChiFeature2RealTime22UpdateStreamCropEnableEP11ChiMetadata+0xb0>
   28964: 38 01 00 90  	adrp	x24, 0x4c000 <_ZNK19ChiFeature2RealTime24OnPruneUsecaseDescriptorEPK26ChiFeature2CreateInputInfoRNSt3__16vectorI12PruneVariantNS3_9allocatorIS5_EEEE+0x414>
   28970: 30 06 18 36  	tbz	w16, #3, 0x28a34 <_ZNK19ChiFeature2RealTime24OnPruneUsecaseDescriptorEPK26ChiFeature2CreateInputInfoRNSt3__16vectorI12PruneVariantNS3_9allocatorIS5_EEEE+0x454>
   28974: 2d 01 00 90  	adrp	x13, 0x4c000 <_ZNK19ChiFeature2RealTime24OnPruneUsecaseDescriptorEPK26ChiFeature2CreateInputInfoRNSt3__16vectorI12PruneVariantNS3_9allocatorIS5_EEEE+0x424>
   28984: a1 02 00 54  	b.ne	0x289d8 <_ZNK19ChiFeature2RealTime24OnPruneUsecaseDescriptorEPK26ChiFeature2CreateInputInfoRNSt3__16vectorI12PruneVariantNS3_9allocatorIS5_EEEE+0x3f8>
   28988: 38 ff ff f0  	adrp	x24, 0xf000 <_ZNK19ChiFeature2RealTime24OnPruneUsecaseDescriptorEPK26ChiFeature2CreateInputInfoRNSt3__16vectorI12PruneVariantNS3_9allocatorIS5_EEEE+0x344>
   289a4: 61 ff ff 90  	adrp	x1, 0x14000 <_ZNK19ChiFeature2RealTime24OnPruneUsecaseDescriptorEPK26ChiFeature2CreateInputInfoRNSt3__16vectorI12PruneVariantNS3_9allocatorIS5_EEEE+0x374>
   289a8: 62 ff ff 90  	adrp	x2, 0x14000 <_ZNK19ChiFeature2RealTime24OnPruneUsecaseDescriptorEPK26ChiFeature2CreateInputInfoRNSt3__16vectorI12PruneVariantNS3_9allocatorIS5_EEEE+0x378>
   289ac: 45 ff ff f0  	adrp	x5, 0x13000 <_ZNK19ChiFeature2RealTime24OnPruneUsecaseDescriptorEPK26ChiFeature2CreateInputInfoRNSt3__16vectorI12PruneVariantNS3_9allocatorIS5_EEEE+0x378>
   289d8: 38 ff ff f0  	adrp	x24, 0xf000 <_ZNK19ChiFeature2RealTime24OnPruneUsecaseDescriptorEPK26ChiFeature2CreateInputInfoRNSt3__16vectorI12PruneVariantNS3_9allocatorIS5_EEEE+0x394>
   289f4: 41 ff ff b0  	adrp	x1, 0x11000 <_ZNK19ChiFeature2RealTime24OnPruneUsecaseDescriptorEPK26ChiFeature2CreateInputInfoRNSt3__16vectorI12PruneVariantNS3_9allocatorIS5_EEEE+0x3b8>
   289fc: 60 ff ff 90  	adrp	x0, 0x14000 <_ZNK19ChiFeature2RealTime24OnPruneUsecaseDescriptorEPK26ChiFeature2CreateInputInfoRNSt3__16vectorI12PruneVariantNS3_9allocatorIS5_EEEE+0x3cc>
   28a00: 43 ff ff f0  	adrp	x3, 0x13000 <_ZNK19ChiFeature2RealTime24OnPruneUsecaseDescriptorEPK26ChiFeature2CreateInputInfoRNSt3__16vectorI12PruneVariantNS3_9allocatorIS5_EEEE+0x3cc>
   28a04: 45 ff ff b0  	adrp	x5, 0x11000 <_ZNK19ChiFeature2RealTime24OnPruneUsecaseDescriptorEPK26ChiFeature2CreateInputInfoRNSt3__16vectorI12PruneVariantNS3_9allocatorIS5_EEEE+0x3c8>
   28a28: 4e 82 00 94  	bl	0x49360 <_ZN6ChiLog9LogSystemEPKcS1_S1_S1_iS1_z@plt>
   28a2c: 38 01 00 90  	adrp	x24, 0x4c000 <_ZNK19ChiFeature2RealTime24OnPruneUsecaseDescriptorEPK26ChiFeature2CreateInputInfoRNSt3__16vectorI12PruneVariantNS3_9allocatorIS5_EEEE+0x4dc>
   28a34: 5c 10 00 b4  	cbz	x28, 0x28c3c <_ZNK19ChiFeature2RealTime24OnPruneUsecaseDescriptorEPK26ChiFeature2CreateInputInfoRNSt3__16vectorI12PruneVariantNS3_9allocatorIS5_EEEE+0x65c>
   28a3c: a8 02 00 b4  	cbz	x8, 0x28a90 <_ZNK19ChiFeature2RealTime24OnPruneUsecaseDescriptorEPK26ChiFeature2CreateInputInfoRNSt3__16vectorI12PruneVariantNS3_9allocatorIS5_EEEE+0x4b0>
   28a44: 20 ff ff d0  	adrp	x0, 0xe000 <_ZNK19ChiFeature2RealTime24OnPruneUsecaseDescriptorEPK26ChiFeature2CreateInputInfoRNSt3__16vectorI12PruneVariantNS3_9allocatorIS5_EEEE+0x3fc>
   28a54: 5f 83 00 94  	bl	0x497d0 <_ZN15UsecaseSelector15GetVariantGroupEPKc@plt>
   28a58: 55 ff ff 90  	adrp	x21, 0x10000 <_ZNK19ChiFeature2RealTime24OnPruneUsecaseDescriptorEPK26ChiFeature2CreateInputInfoRNSt3__16vectorI12PruneVariantNS3_9allocatorIS5_EEEE+0x418>
   28a68: 5e 83 00 94  	bl	0x497e0 <_ZN15UsecaseSelector14GetVariantTypeEPKc@plt>
   28a70: c0 02 00 54  	b.eq	0x28ac8 <_ZNK19ChiFeature2RealTime24OnPruneUsecaseDescriptorEPK26ChiFeature2CreateInputInfoRNSt3__16vectorI12PruneVariantNS3_9allocatorIS5_EEEE+0x4e8>
   28a78: 20 02 00 54  	b.eq	0x28abc <_ZNK19ChiFeature2RealTime24OnPruneUsecaseDescriptorEPK26ChiFeature2CreateInputInfoRNSt3__16vectorI12PruneVariantNS3_9allocatorIS5_EEEE+0x4dc>
   28a80: 81 02 00 54  	b.ne	0x28ad0 <_ZNK19ChiFeature2RealTime24OnPruneUsecaseDescriptorEPK26ChiFeature2CreateInputInfoRNSt3__16vectorI12PruneVariantNS3_9allocatorIS5_EEEE+0x4f0>
   28a84: 55 ff ff d0  	adrp	x21, 0x12000 <_ZNK19ChiFeature2RealTime24OnPruneUsecaseDescriptorEPK26ChiFeature2CreateInputInfoRNSt3__16vectorI12PruneVariantNS3_9allocatorIS5_EEEE+0x44c>
   28a8c: 11 00 00 14  	b	0x28ad0 <_ZNK19ChiFeature2RealTime24OnPruneUsecaseDescriptorEPK26ChiFeature2CreateInputInfoRNSt3__16vectorI12PruneVariantNS3_9allocatorIS5_EEEE+0x4f0>
   28a90: 20 ff ff d0  	adrp	x0, 0xe000 <_ZNK19ChiFeature2RealTime24OnPruneUsecaseDescriptorEPK26ChiFeature2CreateInputInfoRNSt3__16vectorI12PruneVariantNS3_9allocatorIS5_EEEE+0x448>
   28a9c: 4d 83 00 94  	bl	0x497d0 <_ZN15UsecaseSelector15GetVariantGroupEPKc@plt>
   28aa0: 55 ff ff 90  	adrp	x21, 0x10000 <_ZNK19ChiFeature2RealTime24OnPruneUsecaseDescriptorEPK26ChiFeature2CreateInputInfoRNSt3__16vectorI12PruneVariantNS3_9allocatorIS5_EEEE+0x460>
   28ab0: 4c 83 00 94  	bl	0x497e0 <_ZN15UsecaseSelector14GetVariantTypeEPKc@plt>
   28ab8: 06 00 00 14  	b	0x28ad0 <_ZNK19ChiFeature2RealTime24OnPruneUsecaseDescriptorEPK26ChiFeature2CreateInputInfoRNSt3__16vectorI12PruneVariantNS3_9allocatorIS5_EEEE+0x4f0>
   28abc: 55 ff ff f0  	adrp	x21, 0x13000 <_ZNK19ChiFeature2RealTime24OnPruneUsecaseDescriptorEPK26ChiFeature2CreateInputInfoRNSt3__16vectorI12PruneVariantNS3_9allocatorIS5_EEEE+0x488>
   28ac4: 03 00 00 14  	b	0x28ad0 <_ZNK19ChiFeature2RealTime24OnPruneUsecaseDescriptorEPK26ChiFeature2CreateInputInfoRNSt3__16vectorI12PruneVariantNS3_9allocatorIS5_EEEE+0x4f0>
   28ac8: 55 ff ff f0  	adrp	x21, 0x13000 <_ZNK19ChiFeature2RealTime24OnPruneUsecaseDescriptorEPK26ChiFeature2CreateInputInfoRNSt3__16vectorI12PruneVariantNS3_9allocatorIS5_EEEE+0x494>
   28ad4: 43 83 00 94  	bl	0x497e0 <_ZN15UsecaseSelector14GetVariantTypeEPKc@plt>
   28ad8: 39 01 00 90  	adrp	x25, 0x4c000 <_ZNK19ChiFeature2RealTime24OnPruneUsecaseDescriptorEPK26ChiFeature2CreateInputInfoRNSt3__16vectorI12PruneVariantNS3_9allocatorIS5_EEEE+0x588>
   28ae8: 09 05 18 36  	tbz	w9, #3, 0x28b88 <_ZNK19ChiFeature2RealTime24OnPruneUsecaseDescriptorEPK26ChiFeature2CreateInputInfoRNSt3__16vectorI12PruneVariantNS3_9allocatorIS5_EEEE+0x5a8>
   28af0: 37 ff ff b0  	adrp	x23, 0xd000 <_ZNK19ChiFeature2RealTime24OnPruneUsecaseDescriptorEPK26ChiFeature2CreateInputInfoRNSt3__16vectorI12PruneVariantNS3_9allocatorIS5_EEEE+0x4a4>
   28afc: 21 02 00 54  	b.ne	0x28b40 <_ZNK19ChiFeature2RealTime24OnPruneUsecaseDescriptorEPK26ChiFeature2CreateInputInfoRNSt3__16vectorI12PruneVariantNS3_9allocatorIS5_EEEE+0x560>
   28b14: 61 ff ff 90  	adrp	x1, 0x14000 <_ZNK19ChiFeature2RealTime24OnPruneUsecaseDescriptorEPK26ChiFeature2CreateInputInfoRNSt3__16vectorI12PruneVariantNS3_9allocatorIS5_EEEE+0x4e4>
   28b18: 22 ff ff d0  	adrp	x2, 0xe000 <_ZNK19ChiFeature2RealTime24OnPruneUsecaseDescriptorEPK26ChiFeature2CreateInputInfoRNSt3__16vectorI12PruneVariantNS3_9allocatorIS5_EEEE+0x4d0>
   28b1c: 25 ff ff f0  	adrp	x5, 0xf000 <_ZNK19ChiFeature2RealTime24OnPruneUsecaseDescriptorEPK26ChiFeature2CreateInputInfoRNSt3__16vectorI12PruneVariantNS3_9allocatorIS5_EEEE+0x4d8>
   28b54: 41 ff ff b0  	adrp	x1, 0x11000 <_ZNK19ChiFeature2RealTime24OnPruneUsecaseDescriptorEPK26ChiFeature2CreateInputInfoRNSt3__16vectorI12PruneVariantNS3_9allocatorIS5_EEEE+0x518>
   28b5c: 60 ff ff 90  	adrp	x0, 0x14000 <_ZNK19ChiFeature2RealTime24OnPruneUsecaseDescriptorEPK26ChiFeature2CreateInputInfoRNSt3__16vectorI12PruneVariantNS3_9allocatorIS5_EEEE+0x52c>
   28b60: 23 ff ff f0  	adrp	x3, 0xf000 <_ZNK19ChiFeature2RealTime24OnPruneUsecaseDescriptorEPK26ChiFeature2CreateInputInfoRNSt3__16vectorI12PruneVariantNS3_9allocatorIS5_EEEE+0x51c>
   28b64: 45 ff ff 90  	adrp	x5, 0x10000 <_ZNK19ChiFeature2RealTime24OnPruneUsecaseDescriptorEPK26ChiFeature2CreateInputInfoRNSt3__16vectorI12PruneVariantNS3_9allocatorIS5_EEEE+0x524>
   28b80: f8 81 00 94  	bl	0x49360 <_ZN6ChiLog9LogSystemEPKcS1_S1_S1_iS1_z@plt>
   28b8c: 29 05 18 36  	tbz	w9, #3, 0x28c30 <_ZNK19ChiFeature2RealTime24OnPruneUsecaseDescriptorEPK26ChiFeature2CreateInputInfoRNSt3__16vectorI12PruneVariantNS3_9allocatorIS5_EEEE+0x650>
   28b94: 36 ff ff f0  	adrp	x22, 0xf000 <_ZNK19ChiFeature2RealTime24OnPruneUsecaseDescriptorEPK26ChiFeature2CreateInputInfoRNSt3__16vectorI12PruneVariantNS3_9allocatorIS5_EEEE+0x550>
   28ba0: 41 02 00 54  	b.ne	0x28be8 <_ZNK19ChiFeature2RealTime24OnPruneUsecaseDescriptorEPK26ChiFeature2CreateInputInfoRNSt3__16vectorI12PruneVariantNS3_9allocatorIS5_EEEE+0x608>
   28bb8: 61 ff ff 90  	adrp	x1, 0x14000 <_ZNK19ChiFeature2RealTime24OnPruneUsecaseDescriptorEPK26ChiFeature2CreateInputInfoRNSt3__16vectorI12PruneVariantNS3_9allocatorIS5_EEEE+0x588>
   28bbc: 22 ff ff b0  	adrp	x2, 0xd000 <_ZNK19ChiFeature2RealTime24OnPruneUsecaseDescriptorEPK26ChiFeature2CreateInputInfoRNSt3__16vectorI12PruneVariantNS3_9allocatorIS5_EEEE+0x570>
   28bc0: 45 ff ff f0  	adrp	x5, 0x13000 <_ZNK19ChiFeature2RealTime24OnPruneUsecaseDescriptorEPK26ChiFeature2CreateInputInfoRNSt3__16vectorI12PruneVariantNS3_9allocatorIS5_EEEE+0x58c>
   28bfc: 41 ff ff b0  	adrp	x1, 0x11000 <_ZNK19ChiFeature2RealTime24OnPruneUsecaseDescriptorEPK26ChiFeature2CreateInputInfoRNSt3__16vectorI12PruneVariantNS3_9allocatorIS5_EEEE+0x5c0>
   28c04: 60 ff ff 90  	adrp	x0, 0x14000 <_ZNK19ChiFeature2RealTime24OnPruneUsecaseDescriptorEPK26ChiFeature2CreateInputInfoRNSt3__16vectorI12PruneVariantNS3_9allocatorIS5_EEEE+0x5d4>
   28c08: 43 ff ff f0  	adrp	x3, 0x13000 <_ZNK19ChiFeature2RealTime24OnPruneUsecaseDescriptorEPK26ChiFeature2CreateInputInfoRNSt3__16vectorI12PruneVariantNS3_9allocatorIS5_EEEE+0x5d4>
   28c0c: 25 ff ff f0  	adrp	x5, 0xf000 <_ZNK19ChiFeature2RealTime24OnPruneUsecaseDescriptorEPK26ChiFeature2CreateInputInfoRNSt3__16vectorI12PruneVariantNS3_9allocatorIS5_EEEE+0x5c8>
   28c2c: cd 81 00 94  	bl	0x49360 <_ZN6ChiLog9LogSystemEPKcS1_S1_S1_iS1_z@plt>
   28c38: 56 17 00 94  	bl	0x2e990 <_ZN19ChiFeature2RealTime22UpdateStreamCropEnableEP11ChiMetadata+0xb0>
   28c48: 61 01 00 54  	b.ne	0x28c74 <_ZNK19ChiFeature2RealTime24OnPruneUsecaseDescriptorEPK26ChiFeature2CreateInputInfoRNSt3__16vectorI12PruneVariantNS3_9allocatorIS5_EEEE+0x694>
0000000000028c78 <_ZN19ChiFeature2RealTime23OnPreparePipelineCreateEP21ChiFeature2Identifier>:
   28ca4: 3a 01 00 90  	adrp	x26, 0x4c000 <_ZN19ChiFeature2RealTime23OnPreparePipelineCreateEP21ChiFeature2Identifier+0xbc>
   28cc0: 21 5d 00 54  	b.ne	0x29864 <_ZN19ChiFeature2RealTime23OnPreparePipelineCreateEP21ChiFeature2Identifier+0xbec>
   28ccc: cd 82 00 94  	bl	0x49800 <_ZN15ChiFeature2Base23OnPreparePipelineCreateEP21ChiFeature2Identifier@plt>
   28cd4: c0 01 00 34  	cbz	w0, 0x28d0c <_ZN19ChiFeature2RealTime23OnPreparePipelineCreateEP21ChiFeature2Identifier+0x94>
   28ce4: c1 65 00 54  	b.ne	0x2999c <_ZN19ChiFeature2RealTime23OnPreparePipelineCreateEP21ChiFeature2Identifier+0xd24>
   28d18: 21 5b 00 54  	b.ne	0x2987c <_ZN19ChiFeature2RealTime23OnPreparePipelineCreateEP21ChiFeature2Identifier+0xc04>
   28d20: e1 5b 00 54  	b.ne	0x2989c <_ZN19ChiFeature2RealTime23OnPreparePipelineCreateEP21ChiFeature2Identifier+0xc24>
   28d24: 14 02 00 b4  	cbz	x20, 0x28d64 <_ZN19ChiFeature2RealTime23OnPreparePipelineCreateEP21ChiFeature2Identifier+0xec>
   28d38: 42 01 00 54  	b.hs	0x28d60 <_ZN19ChiFeature2RealTime23OnPreparePipelineCreateEP21ChiFeature2Identifier+0xe8>
   28d40: 0a 01 00 b4  	cbz	x10, 0x28d60 <_ZN19ChiFeature2RealTime23OnPreparePipelineCreateEP21ChiFeature2Identifier+0xe8>
   28d54: 62 00 00 54  	b.hs	0x28d60 <_ZN19ChiFeature2RealTime23OnPreparePipelineCreateEP21ChiFeature2Identifier+0xe8>
   28d5c: 02 00 00 14  	b	0x28d64 <_ZN19ChiFeature2RealTime23OnPreparePipelineCreateEP21ChiFeature2Identifier+0xec>
   28d70: 41 5a 00 54  	b.ne	0x298b8 <_ZN19ChiFeature2RealTime23OnPreparePipelineCreateEP21ChiFeature2Identifier+0xc40>
   28d78: 14 fb ff b4  	cbz	x20, 0x28cd8 <_ZN19ChiFeature2RealTime23OnPreparePipelineCreateEP21ChiFeature2Identifier+0x60>
   28d80: db fa ff b4  	cbz	x27, 0x28cd8 <_ZN19ChiFeature2RealTime23OnPreparePipelineCreateEP21ChiFeature2Identifier+0x60>
   28d88: cb 09 00 b4  	cbz	x11, 0x28ec0 <_ZN19ChiFeature2RealTime23OnPreparePipelineCreateEP21ChiFeature2Identifier+0x248>
   28d9c: e1 59 00 54  	b.ne	0x298d8 <_ZN19ChiFeature2RealTime23OnPreparePipelineCreateEP21ChiFeature2Identifier+0xc60>
   28db0: 54 0a 00 b4  	cbz	x20, 0x28ef8 <_ZN19ChiFeature2RealTime23OnPreparePipelineCreateEP21ChiFeature2Identifier+0x280>
   28dc8: e1 5a 00 54  	b.ne	0x29924 <_ZN19ChiFeature2RealTime23OnPreparePipelineCreateEP21ChiFeature2Identifier+0xcac>
   28dd0: 88 13 00 94  	bl	0x2dbf0 <_ZNK19ChiFeature2RealTime41PopulateConfigurationsForSensorModeChangeEP24ChiFeature2RequestObjectP11ChiMetadata+0x168>
   28dec: 61 ff ff 90  	adrp	x1, 0x14000 <_ZN19ChiFeature2RealTime23OnPreparePipelineCreateEP21ChiFeature2Identifier+0x124>
   28df0: 42 ff ff b0  	adrp	x2, 0x11000 <_ZN19ChiFeature2RealTime23OnPreparePipelineCreateEP21ChiFeature2Identifier+0x11c>
   28e10: 00 03 00 35  	cbnz	w0, 0x28e70 <_ZN19ChiFeature2RealTime23OnPreparePipelineCreateEP21ChiFeature2Identifier+0x1f8>
   28e24: 01 5b 00 54  	b.ne	0x29984 <_ZN19ChiFeature2RealTime23OnPreparePipelineCreateEP21ChiFeature2Identifier+0xd0c>
   28e30: 6b 00 28 36  	tbz	w11, #5, 0x28e3c <_ZN19ChiFeature2RealTime23OnPreparePipelineCreateEP21ChiFeature2Identifier+0x1c4>
   28e50: 61 ff ff 90  	adrp	x1, 0x14000 <_ZN19ChiFeature2RealTime23OnPreparePipelineCreateEP21ChiFeature2Identifier+0x188>
   28e54: 22 ff ff d0  	adrp	x2, 0xe000 <_ZN19ChiFeature2RealTime23OnPreparePipelineCreateEP21ChiFeature2Identifier+0x174>
   28e80: e1 55 00 54  	b.ne	0x2993c <_ZN19ChiFeature2RealTime23OnPreparePipelineCreateEP21ChiFeature2Identifier+0xcc4>
   28e84: f3 81 00 94  	bl	0x49650 <_ZN15ExtensionModule11GetInstanceEv@plt>
   28e94: 01 56 00 54  	b.ne	0x29954 <_ZN19ChiFeature2RealTime23OnPreparePipelineCreateEP21ChiFeature2Identifier+0xcdc>
   28ea4: 28 01 00 54  	b.hi	0x28ec8 <_ZN19ChiFeature2RealTime23OnPreparePipelineCreateEP21ChiFeature2Identifier+0x250>
   28eb4: a1 00 00 54  	b.ne	0x28ec8 <_ZN19ChiFeature2RealTime23OnPreparePipelineCreateEP21ChiFeature2Identifier+0x250>
   28ebc: 16 00 00 14  	b	0x28f14 <_ZN19ChiFeature2RealTime23OnPreparePipelineCreateEP21ChiFeature2Identifier+0x29c>
   28ec4: 85 ff ff 17  	b	0x28cd8 <_ZN19ChiFeature2RealTime23OnPreparePipelineCreateEP21ChiFeature2Identifier+0x60>
   28ec8: e2 81 00 94  	bl	0x49650 <_ZN15ExtensionModule11GetInstanceEv@plt>
   28edc: 81 54 00 54  	b.ne	0x2996c <_ZN19ChiFeature2RealTime23OnPreparePipelineCreateEP21ChiFeature2Identifier+0xcf4>
   28eec: a9 00 00 54  	b.ls	0x28f00 <_ZN19ChiFeature2RealTime23OnPreparePipelineCreateEP21ChiFeature2Identifier+0x288>
   28ef4: 08 00 00 14  	b	0x28f14 <_ZN19ChiFeature2RealTime23OnPreparePipelineCreateEP21ChiFeature2Identifier+0x29c>
   28efc: de 00 00 14  	b	0x29274 <_ZN19ChiFeature2RealTime23OnPreparePipelineCreateEP21ChiFeature2Identifier+0x5fc>
   28f2c: 21 ff ff f0  	adrp	x1, 0xf000 <_ZN19ChiFeature2RealTime23OnPreparePipelineCreateEP21ChiFeature2Identifier+0x250>
   28f30: 42 ff ff d0  	adrp	x2, 0x12000 <_ZN19ChiFeature2RealTime23OnPreparePipelineCreateEP21ChiFeature2Identifier+0x260>
   28f50: a0 0b 00 34  	cbz	w0, 0x290c4 <_ZN19ChiFeature2RealTime23OnPreparePipelineCreateEP21ChiFeature2Identifier+0x44c>
   28f54: 3c 01 00 90  	adrp	x28, 0x4c000 <_ZN19ChiFeature2RealTime23OnPreparePipelineCreateEP21ChiFeature2Identifier+0x36c>
   28f60: 89 05 00 36  	tbz	w9, #0, 0x29010 <_ZN19ChiFeature2RealTime23OnPreparePipelineCreateEP21ChiFeature2Identifier+0x398>
   28f64: 29 01 00 90  	adrp	x9, 0x4c000 <_ZN19ChiFeature2RealTime23OnPreparePipelineCreateEP21ChiFeature2Identifier+0x37c>
   28f68: 38 ff ff f0  	adrp	x24, 0xf000 <_ZN19ChiFeature2RealTime23OnPreparePipelineCreateEP21ChiFeature2Identifier+0x28c>
   28f7c: 41 02 00 54  	b.ne	0x28fc4 <_ZN19ChiFeature2RealTime23OnPreparePipelineCreateEP21ChiFeature2Identifier+0x34c>
   28f98: 61 ff ff 90  	adrp	x1, 0x14000 <_ZN19ChiFeature2RealTime23OnPreparePipelineCreateEP21ChiFeature2Identifier+0x2d0>
   28f9c: 22 ff ff b0  	adrp	x2, 0xd000 <_ZN19ChiFeature2RealTime23OnPreparePipelineCreateEP21ChiFeature2Identifier+0x2b8>
   28fa0: 25 ff ff f0  	adrp	x5, 0xf000 <_ZN19ChiFeature2RealTime23OnPreparePipelineCreateEP21ChiFeature2Identifier+0x2c4>
   28fe0: 20 ff ff b0  	adrp	x0, 0xd000 <_ZN19ChiFeature2RealTime23OnPreparePipelineCreateEP21ChiFeature2Identifier+0x2fc>
   28fe4: 41 ff ff f0  	adrp	x1, 0x13000 <_ZN19ChiFeature2RealTime23OnPreparePipelineCreateEP21ChiFeature2Identifier+0x318>
   28fe8: 23 ff ff f0  	adrp	x3, 0xf000 <_ZN19ChiFeature2RealTime23OnPreparePipelineCreateEP21ChiFeature2Identifier+0x30c>
   28fec: 25 ff ff d0  	adrp	x5, 0xe000 <_ZN19ChiFeature2RealTime23OnPreparePipelineCreateEP21ChiFeature2Identifier+0x30c>
   29008: d6 80 00 94  	bl	0x49360 <_ZN6ChiLog9LogSystemEPKcS1_S1_S1_iS1_z@plt>
   29010: a9 05 00 36  	tbz	w9, #0, 0x290c4 <_ZN19ChiFeature2RealTime23OnPreparePipelineCreateEP21ChiFeature2Identifier+0x44c>
   29014: 08 01 00 f0  	adrp	x8, 0x4c000 <_ZN19ChiFeature2RealTime23OnPreparePipelineCreateEP21ChiFeature2Identifier+0x428>
   29024: 81 02 00 54  	b.ne	0x29074 <_ZN19ChiFeature2RealTime23OnPreparePipelineCreateEP21ChiFeature2Identifier+0x3fc>
   29028: 38 ff ff d0  	adrp	x24, 0xf000 <_ZN19ChiFeature2RealTime23OnPreparePipelineCreateEP21ChiFeature2Identifier+0x348>
   29048: 41 ff ff f0  	adrp	x1, 0x14000 <_ZN19ChiFeature2RealTime23OnPreparePipelineCreateEP21ChiFeature2Identifier+0x37c>
   2904c: 22 ff ff f0  	adrp	x2, 0x10000 <_ZN19ChiFeature2RealTime23OnPreparePipelineCreateEP21ChiFeature2Identifier+0x370>
   29050: 25 ff ff d0  	adrp	x5, 0xf000 <_ZN19ChiFeature2RealTime23OnPreparePipelineCreateEP21ChiFeature2Identifier+0x370>
   29074: 38 ff ff d0  	adrp	x24, 0xf000 <_ZN19ChiFeature2RealTime23OnPreparePipelineCreateEP21ChiFeature2Identifier+0x394>
   29098: 20 ff ff 90  	adrp	x0, 0xd000 <_ZN19ChiFeature2RealTime23OnPreparePipelineCreateEP21ChiFeature2Identifier+0x3b0>
   2909c: 41 ff ff d0  	adrp	x1, 0x13000 <_ZN19ChiFeature2RealTime23OnPreparePipelineCreateEP21ChiFeature2Identifier+0x3cc>
   290a0: 23 ff ff d0  	adrp	x3, 0xf000 <_ZN19ChiFeature2RealTime23OnPreparePipelineCreateEP21ChiFeature2Identifier+0x3c0>
   290a4: 25 ff ff d0  	adrp	x5, 0xf000 <_ZN19ChiFeature2RealTime23OnPreparePipelineCreateEP21ChiFeature2Identifier+0x3c4>
   290c0: a8 80 00 94  	bl	0x49360 <_ZN6ChiLog9LogSystemEPKcS1_S1_S1_iS1_z@plt>
   290c4: 37 05 00 b4  	cbz	x23, 0x29168 <_ZN19ChiFeature2RealTime23OnPreparePipelineCreateEP21ChiFeature2Identifier+0x4f0>
   290d0: 60 81 00 94  	bl	0x49650 <_ZN15ExtensionModule11GetInstanceEv@plt>
   290e4: c0 12 00 34  	cbz	w0, 0x2933c <_ZN19ChiFeature2RealTime23OnPreparePipelineCreateEP21ChiFeature2Identifier+0x6c4>
   290f0: 58 81 00 94  	bl	0x49650 <_ZN15ExtensionModule11GetInstanceEv@plt>
   29104: 00 1a 00 34  	cbz	w0, 0x29444 <_ZN19ChiFeature2RealTime23OnPreparePipelineCreateEP21ChiFeature2Identifier+0x7cc>
   29110: 50 81 00 94  	bl	0x49650 <_ZN15ExtensionModule11GetInstanceEv@plt>
   29124: 40 21 00 34  	cbz	w0, 0x2954c <_ZN19ChiFeature2RealTime23OnPreparePipelineCreateEP21ChiFeature2Identifier+0x8d4>
   29130: 48 81 00 94  	bl	0x49650 <_ZN15ExtensionModule11GetInstanceEv@plt>
   29144: 80 28 00 34  	cbz	w0, 0x29654 <_ZN19ChiFeature2RealTime23OnPreparePipelineCreateEP21ChiFeature2Identifier+0x9dc>
   29150: 40 81 00 94  	bl	0x49650 <_ZN15ExtensionModule11GetInstanceEv@plt>
   29164: c0 2f 00 34  	cbz	w0, 0x2975c <_ZN19ChiFeature2RealTime23OnPreparePipelineCreateEP21ChiFeature2Identifier+0xae4>
   2916c: 43 08 18 36  	tbz	w3, #3, 0x29274 <_ZN19ChiFeature2RealTime23OnPreparePipelineCreateEP21ChiFeature2Identifier+0x5fc>
   2918c: 41 ff ff b0  	adrp	x1, 0x12000 <_ZN19ChiFeature2RealTime23OnPreparePipelineCreateEP21ChiFeature2Identifier+0x4b8>
   29190: 42 ff ff d0  	adrp	x2, 0x13000 <_ZN19ChiFeature2RealTime23OnPreparePipelineCreateEP21ChiFeature2Identifier+0x4c0>
   291b0: 20 06 00 34  	cbz	w0, 0x29274 <_ZN19ChiFeature2RealTime23OnPreparePipelineCreateEP21ChiFeature2Identifier+0x5fc>
   291b4: 04 01 00 f0  	adrp	x4, 0x4c000 <_ZN19ChiFeature2RealTime23OnPreparePipelineCreateEP21ChiFeature2Identifier+0x5c8>
   291c0: a7 05 00 36  	tbz	w7, #0, 0x29274 <_ZN19ChiFeature2RealTime23OnPreparePipelineCreateEP21ChiFeature2Identifier+0x5fc>
   291c4: 01 01 00 f0  	adrp	x1, 0x4c000 <_ZN19ChiFeature2RealTime23OnPreparePipelineCreateEP21ChiFeature2Identifier+0x5d8>
   291d4: 81 02 00 54  	b.ne	0x29224 <_ZN19ChiFeature2RealTime23OnPreparePipelineCreateEP21ChiFeature2Identifier+0x5ac>
   291d8: 37 ff ff d0  	adrp	x23, 0xf000 <_ZN19ChiFeature2RealTime23OnPreparePipelineCreateEP21ChiFeature2Identifier+0x4f8>
   291f8: 41 ff ff f0  	adrp	x1, 0x14000 <_ZN19ChiFeature2RealTime23OnPreparePipelineCreateEP21ChiFeature2Identifier+0x52c>
   291fc: 22 ff ff b0  	adrp	x2, 0xe000 <_ZN19ChiFeature2RealTime23OnPreparePipelineCreateEP21ChiFeature2Identifier+0x518>
   29200: 25 ff ff d0  	adrp	x5, 0xf000 <_ZN19ChiFeature2RealTime23OnPreparePipelineCreateEP21ChiFeature2Identifier+0x520>
   29224: 38 ff ff d0  	adrp	x24, 0xf000 <_ZN19ChiFeature2RealTime23OnPreparePipelineCreateEP21ChiFeature2Identifier+0x544>
   29248: 20 ff ff 90  	adrp	x0, 0xd000 <_ZN19ChiFeature2RealTime23OnPreparePipelineCreateEP21ChiFeature2Identifier+0x560>
   2924c: 41 ff ff d0  	adrp	x1, 0x13000 <_ZN19ChiFeature2RealTime23OnPreparePipelineCreateEP21ChiFeature2Identifier+0x57c>
   29250: 23 ff ff d0  	adrp	x3, 0xf000 <_ZN19ChiFeature2RealTime23OnPreparePipelineCreateEP21ChiFeature2Identifier+0x570>
   29254: 25 ff ff b0  	adrp	x5, 0xe000 <_ZN19ChiFeature2RealTime23OnPreparePipelineCreateEP21ChiFeature2Identifier+0x570>
   29270: 3c 80 00 94  	bl	0x49360 <_ZN6ChiLog9LogSystemEPKcS1_S1_S1_iS1_z@plt>
   29280: 81 33 00 54  	b.ne	0x298f0 <_ZN19ChiFeature2RealTime23OnPreparePipelineCreateEP21ChiFeature2Identifier+0xc78>
   2928c: 65 81 00 94  	bl	0x49820 <_ZN19ChiFeature2RealTime19SetStreamDimensionsEP11ChiMetadata@plt>
   29290: f0 80 00 94  	bl	0x49650 <_ZN15ExtensionModule11GetInstanceEv@plt>
   292a0: 88 02 00 54  	b.hi	0x292f0 <_ZN19ChiFeature2RealTime23OnPreparePipelineCreateEP21ChiFeature2Identifier+0x678>
   292c0: 80 01 00 54  	b.eq	0x292f0 <_ZN19ChiFeature2RealTime23OnPreparePipelineCreateEP21ChiFeature2Identifier+0x678>
   292d0: c1 31 00 54  	b.ne	0x29908 <_ZN19ChiFeature2RealTime23OnPreparePipelineCreateEP21ChiFeature2Identifier+0xc90>
   292d4: 34 d0 ff b4  	cbz	x20, 0x28cd8 <_ZN19ChiFeature2RealTime23OnPreparePipelineCreateEP21ChiFeature2Identifier+0x60>
   292dc: dd 80 00 94  	bl	0x49650 <_ZN15ExtensionModule11GetInstanceEv@plt>
   292e4: cf 00 00 b4  	cbz	x15, 0x292fc <_ZN19ChiFeature2RealTime23OnPreparePipelineCreateEP21ChiFeature2Identifier+0x684>
   292ec: 05 00 00 14  	b	0x29300 <_ZN19ChiFeature2RealTime23OnPreparePipelineCreateEP21ChiFeature2Identifier+0x688>
   292f4: 21 cf ff 54  	b.ne	0x28cd8 <_ZN19ChiFeature2RealTime23OnPreparePipelineCreateEP21ChiFeature2Identifier+0x60>
   292f8: f3 ff ff 17  	b	0x292c4 <_ZN19ChiFeature2RealTime23OnPreparePipelineCreateEP21ChiFeature2Identifier+0x64c>
   29318: 41 ff ff 90  	adrp	x1, 0x11000 <_ZN19ChiFeature2RealTime23OnPreparePipelineCreateEP21ChiFeature2Identifier+0x640>
   2931c: 22 ff ff b0  	adrp	x2, 0xe000 <_ZN19ChiFeature2RealTime23OnPreparePipelineCreateEP21ChiFeature2Identifier+0x638>
   29338: 68 fe ff 17  	b	0x28cd8 <_ZN19ChiFeature2RealTime23OnPreparePipelineCreateEP21ChiFeature2Identifier+0x60>
   29340: 58 ed ff b4  	cbz	x24, 0x290e8 <_ZN19ChiFeature2RealTime23OnPreparePipelineCreateEP21ChiFeature2Identifier+0x470>
   29358: 21 ff ff 90  	adrp	x1, 0xd000 <_ZN19ChiFeature2RealTime23OnPreparePipelineCreateEP21ChiFeature2Identifier+0x670>
   2935c: 42 ff ff b0  	adrp	x2, 0x12000 <_ZN19ChiFeature2RealTime23OnPreparePipelineCreateEP21ChiFeature2Identifier+0x688>
   2937c: 60 eb ff 34  	cbz	w0, 0x290e8 <_ZN19ChiFeature2RealTime23OnPreparePipelineCreateEP21ChiFeature2Identifier+0x470>
   29380: 0a 01 00 f0  	adrp	x10, 0x4c000 <_ZN19ChiFeature2RealTime23OnPreparePipelineCreateEP21ChiFeature2Identifier+0x794>
   2938c: ee ea 07 36  	tbz	w14, #0, 0x290e8 <_ZN19ChiFeature2RealTime23OnPreparePipelineCreateEP21ChiFeature2Identifier+0x470>
   29390: 0b 01 00 f0  	adrp	x11, 0x4c000 <_ZN19ChiFeature2RealTime23OnPreparePipelineCreateEP21ChiFeature2Identifier+0x7a4>
   293a0: 81 02 00 54  	b.ne	0x293f0 <_ZN19ChiFeature2RealTime23OnPreparePipelineCreateEP21ChiFeature2Identifier+0x778>
   293a4: 38 ff ff d0  	adrp	x24, 0xf000 <_ZN19ChiFeature2RealTime23OnPreparePipelineCreateEP21ChiFeature2Identifier+0x6c4>
   293c4: 41 ff ff f0  	adrp	x1, 0x14000 <_ZN19ChiFeature2RealTime23OnPreparePipelineCreateEP21ChiFeature2Identifier+0x6f8>
   293c8: 22 ff ff 90  	adrp	x2, 0xd000 <_ZN19ChiFeature2RealTime23OnPreparePipelineCreateEP21ChiFeature2Identifier+0x6e0>
   293cc: 25 ff ff d0  	adrp	x5, 0xf000 <_ZN19ChiFeature2RealTime23OnPreparePipelineCreateEP21ChiFeature2Identifier+0x6ec>
   293f0: 38 ff ff d0  	adrp	x24, 0xf000 <_ZN19ChiFeature2RealTime23OnPreparePipelineCreateEP21ChiFeature2Identifier+0x710>
   29414: 20 ff ff 90  	adrp	x0, 0xd000 <_ZN19ChiFeature2RealTime23OnPreparePipelineCreateEP21ChiFeature2Identifier+0x72c>
   29418: 41 ff ff d0  	adrp	x1, 0x13000 <_ZN19ChiFeature2RealTime23OnPreparePipelineCreateEP21ChiFeature2Identifier+0x748>
   2941c: 23 ff ff d0  	adrp	x3, 0xf000 <_ZN19ChiFeature2RealTime23OnPreparePipelineCreateEP21ChiFeature2Identifier+0x73c>
   29420: 45 ff ff b0  	adrp	x5, 0x12000 <_ZN19ChiFeature2RealTime23OnPreparePipelineCreateEP21ChiFeature2Identifier+0x74c>
   2943c: c9 7f 00 94  	bl	0x49360 <_ZN6ChiLog9LogSystemEPKcS1_S1_S1_iS1_z@plt>
   29440: 2a ff ff 17  	b	0x290e8 <_ZN19ChiFeature2RealTime23OnPreparePipelineCreateEP21ChiFeature2Identifier+0x470>
   29448: 18 e6 ff b4  	cbz	x24, 0x29108 <_ZN19ChiFeature2RealTime23OnPreparePipelineCreateEP21ChiFeature2Identifier+0x490>
   29460: 21 ff ff 90  	adrp	x1, 0xd000 <_ZN19ChiFeature2RealTime23OnPreparePipelineCreateEP21ChiFeature2Identifier+0x778>
   29464: 42 ff ff 90  	adrp	x2, 0x11000 <_ZN19ChiFeature2RealTime23OnPreparePipelineCreateEP21ChiFeature2Identifier+0x78c>
   29484: 20 e4 ff 34  	cbz	w0, 0x29108 <_ZN19ChiFeature2RealTime23OnPreparePipelineCreateEP21ChiFeature2Identifier+0x490>
   29488: 0c 01 00 f0  	adrp	x12, 0x4c000 <_ZN19ChiFeature2RealTime23OnPreparePipelineCreateEP21ChiFeature2Identifier+0x89c>
   29494: af e3 07 36  	tbz	w15, #0, 0x29108 <_ZN19ChiFeature2RealTime23OnPreparePipelineCreateEP21ChiFeature2Identifier+0x490>
   29498: 0d 01 00 f0  	adrp	x13, 0x4c000 <_ZN19ChiFeature2RealTime23OnPreparePipelineCreateEP21ChiFeature2Identifier+0x8ac>
   294a8: 81 02 00 54  	b.ne	0x294f8 <_ZN19ChiFeature2RealTime23OnPreparePipelineCreateEP21ChiFeature2Identifier+0x880>
   294ac: 38 ff ff d0  	adrp	x24, 0xf000 <_ZN19ChiFeature2RealTime23OnPreparePipelineCreateEP21ChiFeature2Identifier+0x7cc>
   294cc: 41 ff ff f0  	adrp	x1, 0x14000 <_ZN19ChiFeature2RealTime23OnPreparePipelineCreateEP21ChiFeature2Identifier+0x800>
   294d0: 42 ff ff f0  	adrp	x2, 0x14000 <_ZN19ChiFeature2RealTime23OnPreparePipelineCreateEP21ChiFeature2Identifier+0x804>
   294d4: 25 ff ff d0  	adrp	x5, 0xf000 <_ZN19ChiFeature2RealTime23OnPreparePipelineCreateEP21ChiFeature2Identifier+0x7f4>
   294f8: 38 ff ff d0  	adrp	x24, 0xf000 <_ZN19ChiFeature2RealTime23OnPreparePipelineCreateEP21ChiFeature2Identifier+0x818>
   2951c: 20 ff ff 90  	adrp	x0, 0xd000 <_ZN19ChiFeature2RealTime23OnPreparePipelineCreateEP21ChiFeature2Identifier+0x834>
   29520: 41 ff ff d0  	adrp	x1, 0x13000 <_ZN19ChiFeature2RealTime23OnPreparePipelineCreateEP21ChiFeature2Identifier+0x850>
   29524: 23 ff ff d0  	adrp	x3, 0xf000 <_ZN19ChiFeature2RealTime23OnPreparePipelineCreateEP21ChiFeature2Identifier+0x844>
   29528: 45 ff ff d0  	adrp	x5, 0x13000 <_ZN19ChiFeature2RealTime23OnPreparePipelineCreateEP21ChiFeature2Identifier+0x858>
   29544: 87 7f 00 94  	bl	0x49360 <_ZN6ChiLog9LogSystemEPKcS1_S1_S1_iS1_z@plt>
   29548: f0 fe ff 17  	b	0x29108 <_ZN19ChiFeature2RealTime23OnPreparePipelineCreateEP21ChiFeature2Identifier+0x490>
   29550: d8 de ff b4  	cbz	x24, 0x29128 <_ZN19ChiFeature2RealTime23OnPreparePipelineCreateEP21ChiFeature2Identifier+0x4b0>
   29568: 21 ff ff 90  	adrp	x1, 0xd000 <_ZN19ChiFeature2RealTime23OnPreparePipelineCreateEP21ChiFeature2Identifier+0x880>
   2956c: 42 ff ff b0  	adrp	x2, 0x12000 <_ZN19ChiFeature2RealTime23OnPreparePipelineCreateEP21ChiFeature2Identifier+0x898>
   2958c: e0 dc ff 34  	cbz	w0, 0x29128 <_ZN19ChiFeature2RealTime23OnPreparePipelineCreateEP21ChiFeature2Identifier+0x4b0>
   29590: 0e 01 00 f0  	adrp	x14, 0x4c000 <_ZN19ChiFeature2RealTime23OnPreparePipelineCreateEP21ChiFeature2Identifier+0x9a4>
   2959c: 70 dc 07 36  	tbz	w16, #0, 0x29128 <_ZN19ChiFeature2RealTime23OnPreparePipelineCreateEP21ChiFeature2Identifier+0x4b0>
   295a0: 0f 01 00 f0  	adrp	x15, 0x4c000 <_ZN19ChiFeature2RealTime23OnPreparePipelineCreateEP21ChiFeature2Identifier+0x9b4>
   295b0: 81 02 00 54  	b.ne	0x29600 <_ZN19ChiFeature2RealTime23OnPreparePipelineCreateEP21ChiFeature2Identifier+0x988>
   295b4: 38 ff ff d0  	adrp	x24, 0xf000 <_ZN19ChiFeature2RealTime23OnPreparePipelineCreateEP21ChiFeature2Identifier+0x8d4>
   295d4: 41 ff ff f0  	adrp	x1, 0x14000 <_ZN19ChiFeature2RealTime23OnPreparePipelineCreateEP21ChiFeature2Identifier+0x908>
   295d8: 22 ff ff b0  	adrp	x2, 0xe000 <_ZN19ChiFeature2RealTime23OnPreparePipelineCreateEP21ChiFeature2Identifier+0x8f4>
   295dc: 25 ff ff d0  	adrp	x5, 0xf000 <_ZN19ChiFeature2RealTime23OnPreparePipelineCreateEP21ChiFeature2Identifier+0x8fc>
   29600: 38 ff ff d0  	adrp	x24, 0xf000 <_ZN19ChiFeature2RealTime23OnPreparePipelineCreateEP21ChiFeature2Identifier+0x920>
   29624: 20 ff ff 90  	adrp	x0, 0xd000 <_ZN19ChiFeature2RealTime23OnPreparePipelineCreateEP21ChiFeature2Identifier+0x93c>
   29628: 41 ff ff d0  	adrp	x1, 0x13000 <_ZN19ChiFeature2RealTime23OnPreparePipelineCreateEP21ChiFeature2Identifier+0x958>
   2962c: 23 ff ff d0  	adrp	x3, 0xf000 <_ZN19ChiFeature2RealTime23OnPreparePipelineCreateEP21ChiFeature2Identifier+0x94c>
   29630: 25 ff ff b0  	adrp	x5, 0xe000 <_ZN19ChiFeature2RealTime23OnPreparePipelineCreateEP21ChiFeature2Identifier+0x94c>
   2964c: 45 7f 00 94  	bl	0x49360 <_ZN6ChiLog9LogSystemEPKcS1_S1_S1_iS1_z@plt>
   29650: b6 fe ff 17  	b	0x29128 <_ZN19ChiFeature2RealTime23OnPreparePipelineCreateEP21ChiFeature2Identifier+0x4b0>
   29658: 98 d7 ff b4  	cbz	x24, 0x29148 <_ZN19ChiFeature2RealTime23OnPreparePipelineCreateEP21ChiFeature2Identifier+0x4d0>
   29670: 21 ff ff 90  	adrp	x1, 0xd000 <_ZN19ChiFeature2RealTime23OnPreparePipelineCreateEP21ChiFeature2Identifier+0x988>
   29674: 22 ff ff 90  	adrp	x2, 0xd000 <_ZN19ChiFeature2RealTime23OnPreparePipelineCreateEP21ChiFeature2Identifier+0x98c>
   29694: a0 d5 ff 34  	cbz	w0, 0x29148 <_ZN19ChiFeature2RealTime23OnPreparePipelineCreateEP21ChiFeature2Identifier+0x4d0>
   29698: 10 01 00 f0  	adrp	x16, 0x4c000 <_ZN19ChiFeature2RealTime23OnPreparePipelineCreateEP21ChiFeature2Identifier+0xaac>
   296a4: 31 d5 07 36  	tbz	w17, #0, 0x29148 <_ZN19ChiFeature2RealTime23OnPreparePipelineCreateEP21ChiFeature2Identifier+0x4d0>
   296a8: 11 01 00 f0  	adrp	x17, 0x4c000 <_ZN19ChiFeature2RealTime23OnPreparePipelineCreateEP21ChiFeature2Identifier+0xabc>
   296b8: 81 02 00 54  	b.ne	0x29708 <_ZN19ChiFeature2RealTime23OnPreparePipelineCreateEP21ChiFeature2Identifier+0xa90>
   296bc: 38 ff ff d0  	adrp	x24, 0xf000 <_ZN19ChiFeature2RealTime23OnPreparePipelineCreateEP21ChiFeature2Identifier+0x9dc>
   296dc: 41 ff ff f0  	adrp	x1, 0x14000 <_ZN19ChiFeature2RealTime23OnPreparePipelineCreateEP21ChiFeature2Identifier+0xa10>
   296e0: 22 ff ff b0  	adrp	x2, 0xe000 <_ZN19ChiFeature2RealTime23OnPreparePipelineCreateEP21ChiFeature2Identifier+0x9fc>
   296e4: 25 ff ff d0  	adrp	x5, 0xf000 <_ZN19ChiFeature2RealTime23OnPreparePipelineCreateEP21ChiFeature2Identifier+0xa04>
   29708: 38 ff ff d0  	adrp	x24, 0xf000 <_ZN19ChiFeature2RealTime23OnPreparePipelineCreateEP21ChiFeature2Identifier+0xa28>
   2972c: 20 ff ff 90  	adrp	x0, 0xd000 <_ZN19ChiFeature2RealTime23OnPreparePipelineCreateEP21ChiFeature2Identifier+0xa44>
   29730: 41 ff ff d0  	adrp	x1, 0x13000 <_ZN19ChiFeature2RealTime23OnPreparePipelineCreateEP21ChiFeature2Identifier+0xa60>
   29734: 23 ff ff d0  	adrp	x3, 0xf000 <_ZN19ChiFeature2RealTime23OnPreparePipelineCreateEP21ChiFeature2Identifier+0xa54>
   29738: 05 ff ff f0  	adrp	x5, 0xc000 <_ZN19ChiFeature2RealTime23OnPreparePipelineCreateEP21ChiFeature2Identifier+0xa4c>
   29754: 03 7f 00 94  	bl	0x49360 <_ZN6ChiLog9LogSystemEPKcS1_S1_S1_iS1_z@plt>
   29758: 7c fe ff 17  	b	0x29148 <_ZN19ChiFeature2RealTime23OnPreparePipelineCreateEP21ChiFeature2Identifier+0x4d0>
   29760: 57 d0 ff b4  	cbz	x23, 0x29168 <_ZN19ChiFeature2RealTime23OnPreparePipelineCreateEP21ChiFeature2Identifier+0x4f0>
   29778: 21 ff ff 90  	adrp	x1, 0xd000 <_ZN19ChiFeature2RealTime23OnPreparePipelineCreateEP21ChiFeature2Identifier+0xa90>
   2977c: 22 ff ff 90  	adrp	x2, 0xd000 <_ZN19ChiFeature2RealTime23OnPreparePipelineCreateEP21ChiFeature2Identifier+0xa94>
   2979c: 60 ce ff 34  	cbz	w0, 0x29168 <_ZN19ChiFeature2RealTime23OnPreparePipelineCreateEP21ChiFeature2Identifier+0x4f0>
   297a0: 02 01 00 f0  	adrp	x2, 0x4c000 <_ZN19ChiFeature2RealTime23OnPreparePipelineCreateEP21ChiFeature2Identifier+0xbb4>
   297ac: e2 cd 0f 36  	tbz	w2, #1, 0x29168 <_ZN19ChiFeature2RealTime23OnPreparePipelineCreateEP21ChiFeature2Identifier+0x4f0>
   297b0: 03 01 00 f0  	adrp	x3, 0x4c000 <_ZN19ChiFeature2RealTime23OnPreparePipelineCreateEP21ChiFeature2Identifier+0xbc4>
   297c0: 81 02 00 54  	b.ne	0x29810 <_ZN19ChiFeature2RealTime23OnPreparePipelineCreateEP21ChiFeature2Identifier+0xb98>
   297c4: 37 ff ff d0  	adrp	x23, 0xf000 <_ZN19ChiFeature2RealTime23OnPreparePipelineCreateEP21ChiFeature2Identifier+0xae4>
   297e4: 41 ff ff f0  	adrp	x1, 0x14000 <_ZN19ChiFeature2RealTime23OnPreparePipelineCreateEP21ChiFeature2Identifier+0xb18>
   297e8: 42 ff ff b0  	adrp	x2, 0x12000 <_ZN19ChiFeature2RealTime23OnPreparePipelineCreateEP21ChiFeature2Identifier+0xb14>
   297ec: 25 ff ff d0  	adrp	x5, 0xf000 <_ZN19ChiFeature2RealTime23OnPreparePipelineCreateEP21ChiFeature2Identifier+0xb0c>
   29810: 38 ff ff d0  	adrp	x24, 0xf000 <_ZN19ChiFeature2RealTime23OnPreparePipelineCreateEP21ChiFeature2Identifier+0xb30>
   29834: 40 ff ff 90  	adrp	x0, 0x11000 <_ZN19ChiFeature2RealTime23OnPreparePipelineCreateEP21ChiFeature2Identifier+0xb5c>
   29838: 21 ff ff b0  	adrp	x1, 0xe000 <_ZN19ChiFeature2RealTime23OnPreparePipelineCreateEP21ChiFeature2Identifier+0xb54>
   2983c: 23 ff ff d0  	adrp	x3, 0xf000 <_ZN19ChiFeature2RealTime23OnPreparePipelineCreateEP21ChiFeature2Identifier+0xb5c>
   29840: 45 ff ff b0  	adrp	x5, 0x12000 <_ZN19ChiFeature2RealTime23OnPreparePipelineCreateEP21ChiFeature2Identifier+0xb6c>
   2985c: c1 7e 00 94  	bl	0x49360 <_ZN6ChiLog9LogSystemEPKcS1_S1_S1_iS1_z@plt>
   29860: 42 fe ff 17  	b	0x29168 <_ZN19ChiFeature2RealTime23OnPreparePipelineCreateEP21ChiFeature2Identifier+0x4f0>
   29878: 13 fd ff 17  	b	0x28cc4 <_ZN19ChiFeature2RealTime23OnPreparePipelineCreateEP21ChiFeature2Identifier+0x4c>
   29898: 60 a4 ff 54  	b.eq	0x28d24 <_ZN19ChiFeature2RealTime23OnPreparePipelineCreateEP21ChiFeature2Identifier+0xac>
   298b0: d4 a3 ff b5  	cbnz	x20, 0x28d28 <_ZN19ChiFeature2RealTime23OnPreparePipelineCreateEP21ChiFeature2Identifier+0xb0>
   298b4: 2c fd ff 17  	b	0x28d64 <_ZN19ChiFeature2RealTime23OnPreparePipelineCreateEP21ChiFeature2Identifier+0xec>
   298d0: 74 a5 ff b5  	cbnz	x20, 0x28d7c <_ZN19ChiFeature2RealTime23OnPreparePipelineCreateEP21ChiFeature2Identifier+0x104>
   298d4: 01 fd ff 17  	b	0x28cd8 <_ZN19ChiFeature2RealTime23OnPreparePipelineCreateEP21ChiFeature2Identifier+0x60>
   298ec: 2d fd ff 17  	b	0x28da0 <_ZN19ChiFeature2RealTime23OnPreparePipelineCreateEP21ChiFeature2Identifier+0x128>
   29904: 60 fe ff 17  	b	0x29284 <_ZN19ChiFeature2RealTime23OnPreparePipelineCreateEP21ChiFeature2Identifier+0x60c>
   2991c: f4 cd ff b5  	cbnz	x20, 0x292d8 <_ZN19ChiFeature2RealTime23OnPreparePipelineCreateEP21ChiFeature2Identifier+0x660>
   29920: ee fc ff 17  	b	0x28cd8 <_ZN19ChiFeature2RealTime23OnPreparePipelineCreateEP21ChiFeature2Identifier+0x60>
   29938: 25 fd ff 17  	b	0x28dcc <_ZN19ChiFeature2RealTime23OnPreparePipelineCreateEP21ChiFeature2Identifier+0x154>
   29950: 4d fd ff 17  	b	0x28e84 <_ZN19ChiFeature2RealTime23OnPreparePipelineCreateEP21ChiFeature2Identifier+0x20c>
   29968: 4c fd ff 17  	b	0x28e98 <_ZN19ChiFeature2RealTime23OnPreparePipelineCreateEP21ChiFeature2Identifier+0x220>
   29980: 58 fd ff 17  	b	0x28ee0 <_ZN19ChiFeature2RealTime23OnPreparePipelineCreateEP21ChiFeature2Identifier+0x268>
   29998: 24 fd ff 17  	b	0x28e28 <_ZN19ChiFeature2RealTime23OnPreparePipelineCreateEP21ChiFeature2Identifier+0x1b0>
00000000000299a0 <_ZN19ChiFeature2RealTime16OnPipelineCreateEP21ChiFeature2Identifier>:
   299b0: 09 01 00 f0  	adrp	x9, 0x4c000 <_ZN19ChiFeature2RealTime12OnPortCreateEP21ChiFeature2Identifier+0x44>
   299c0: 81 00 00 54  	b.ne	0x299d0 <_ZN19ChiFeature2RealTime16OnPipelineCreateEP21ChiFeature2Identifier+0x30>
   299cc: 99 7f 00 14  	b	0x49830 <_ZN19ChiFeature2RealTime19CreateROITranslatorEP21ChiFeature2Identifier@plt>
   299f4: f4 ff ff 17  	b	0x299c4 <_ZN19ChiFeature2RealTime16OnPipelineCreateEP21ChiFeature2Identifier+0x24>
00000000000299f8 <_ZN19ChiFeature2RealTime12OnPortCreateEP21ChiFeature2Identifier>:
   29a24: 18 01 00 f0  	adrp	x24, 0x4c000 <_ZN19ChiFeature2RealTime12OnPortCreateEP21ChiFeature2Identifier+0xb8>
   29a40: 01 1d 00 54  	b.ne	0x29de0 <_ZN19ChiFeature2RealTime12OnPortCreateEP21ChiFeature2Identifier+0x3e8>
   29a4c: 81 1d 00 54  	b.ne	0x29dfc <_ZN19ChiFeature2RealTime12OnPortCreateEP21ChiFeature2Identifier+0x404>
   29a58: 7a 7f 00 94  	bl	0x49840 <_ZN15ChiFeature2Base12OnPortCreateEP21ChiFeature2Identifier@plt>
   29a60: 36 01 00 b0  	adrp	x22, 0x4e000 <_ZN19ChiFeature2RealTime12OnPortCreateEP21ChiFeature2Identifier+0xfc>
   29a64: 3b 01 00 b0  	adrp	x27, 0x4e000 <_ZN19ChiFeature2RealTime12OnPortCreateEP21ChiFeature2Identifier+0x100>
   29a68: 3a 01 00 b0  	adrp	x26, 0x4e000 <_ZN19ChiFeature2RealTime12OnPortCreateEP21ChiFeature2Identifier+0x104>
   29a6c: f7 6f 00 b4  	cbz	x23, 0x2a868 <_ZN19ChiFeature2RealTime12OnPortCreateEP21ChiFeature2Identifier+0xe70>
   29a70: d4 6f 00 35  	cbnz	w20, 0x2a868 <_ZN19ChiFeature2RealTime12OnPortCreateEP21ChiFeature2Identifier+0xe70>
   29a80: a1 1c 00 54  	b.ne	0x29e14 <_ZN19ChiFeature2RealTime12OnPortCreateEP21ChiFeature2Identifier+0x41c>
   29a88: 61 1d 00 54  	b.ne	0x29e34 <_ZN19ChiFeature2RealTime12OnPortCreateEP21ChiFeature2Identifier+0x43c>
   29a94: e1 1d 00 54  	b.ne	0x29e50 <_ZN19ChiFeature2RealTime12OnPortCreateEP21ChiFeature2Identifier+0x458>
   29a98: 93 6e 00 b4  	cbz	x19, 0x2a868 <_ZN19ChiFeature2RealTime12OnPortCreateEP21ChiFeature2Identifier+0xe70>
   29aac: e2 6d 00 54  	b.hs	0x2a868 <_ZN19ChiFeature2RealTime12OnPortCreateEP21ChiFeature2Identifier+0xe70>
   29ab4: a1 6d 00 b4  	cbz	x1, 0x2a868 <_ZN19ChiFeature2RealTime12OnPortCreateEP21ChiFeature2Identifier+0xe70>
   29ac8: 02 6d 00 54  	b.hs	0x2a868 <_ZN19ChiFeature2RealTime12OnPortCreateEP21ChiFeature2Identifier+0xe70>
   29ad0: cc 6c 00 b4  	cbz	x12, 0x2a868 <_ZN19ChiFeature2RealTime12OnPortCreateEP21ChiFeature2Identifier+0xe70>
   29ae0: a8 01 00 54  	b.hi	0x29b14 <_ZN19ChiFeature2RealTime12OnPortCreateEP21ChiFeature2Identifier+0x11c>
   29b0c: a8 01 00 54  	b.hi	0x29b40 <_ZN19ChiFeature2RealTime12OnPortCreateEP21ChiFeature2Identifier+0x148>
   29b10: 56 03 00 14  	b	0x2a868 <_ZN19ChiFeature2RealTime12OnPortCreateEP21ChiFeature2Identifier+0xe70>
   29b3c: 69 69 00 54  	b.ls	0x2a868 <_ZN19ChiFeature2RealTime12OnPortCreateEP21ChiFeature2Identifier+0xe70>
   29b44: 3c 69 00 b4  	cbz	x28, 0x2a868 <_ZN19ChiFeature2RealTime12OnPortCreateEP21ChiFeature2Identifier+0xe70>
   29b54: b0 68 00 b4  	cbz	x16, 0x2a868 <_ZN19ChiFeature2RealTime12OnPortCreateEP21ChiFeature2Identifier+0xe70>
   29b58: 24 01 00 b0  	adrp	x4, 0x4e000 <_ZN19ChiFeature2RealTime12OnPortCreateEP21ChiFeature2Identifier+0x1f4>
   29b6c: c1 01 00 54  	b.ne	0x29ba4 <_ZN19ChiFeature2RealTime12OnPortCreateEP21ChiFeature2Identifier+0x1ac>
   29b78: 61 01 00 54  	b.ne	0x29ba4 <_ZN19ChiFeature2RealTime12OnPortCreateEP21ChiFeature2Identifier+0x1ac>
   29b84: 01 01 00 54  	b.ne	0x29ba4 <_ZN19ChiFeature2RealTime12OnPortCreateEP21ChiFeature2Identifier+0x1ac>
   29b90: a1 00 00 54  	b.ne	0x29ba4 <_ZN19ChiFeature2RealTime12OnPortCreateEP21ChiFeature2Identifier+0x1ac>
   29ba0: 20 07 00 54  	b.eq	0x29c84 <_ZN19ChiFeature2RealTime12OnPortCreateEP21ChiFeature2Identifier+0x28c>
   29ba4: 2f 01 00 b0  	adrp	x15, 0x4e000 <_ZN19ChiFeature2RealTime12OnPortCreateEP21ChiFeature2Identifier+0x240>
   29bb4: 01 02 00 54  	b.ne	0x29bf4 <_ZN19ChiFeature2RealTime12OnPortCreateEP21ChiFeature2Identifier+0x1fc>
   29bc0: a1 01 00 54  	b.ne	0x29bf4 <_ZN19ChiFeature2RealTime12OnPortCreateEP21ChiFeature2Identifier+0x1fc>
   29bcc: 41 01 00 54  	b.ne	0x29bf4 <_ZN19ChiFeature2RealTime12OnPortCreateEP21ChiFeature2Identifier+0x1fc>
   29bd8: e1 00 00 54  	b.ne	0x29bf4 <_ZN19ChiFeature2RealTime12OnPortCreateEP21ChiFeature2Identifier+0x1fc>
   29be8: 24 01 00 b0  	adrp	x4, 0x4e000 <_ZN19ChiFeature2RealTime12OnPortCreateEP21ChiFeature2Identifier+0x284>
   29bf0: a0 04 00 54  	b.eq	0x29c84 <_ZN19ChiFeature2RealTime12OnPortCreateEP21ChiFeature2Identifier+0x28c>
   29bf4: 30 01 00 b0  	adrp	x16, 0x4e000 <_ZN19ChiFeature2RealTime12OnPortCreateEP21ChiFeature2Identifier+0x290>
   29c04: c1 01 00 54  	b.ne	0x29c3c <_ZN19ChiFeature2RealTime12OnPortCreateEP21ChiFeature2Identifier+0x244>
   29c10: 61 01 00 54  	b.ne	0x29c3c <_ZN19ChiFeature2RealTime12OnPortCreateEP21ChiFeature2Identifier+0x244>
   29c1c: 01 01 00 54  	b.ne	0x29c3c <_ZN19ChiFeature2RealTime12OnPortCreateEP21ChiFeature2Identifier+0x244>
   29c28: a1 00 00 54  	b.ne	0x29c3c <_ZN19ChiFeature2RealTime12OnPortCreateEP21ChiFeature2Identifier+0x244>
   29c38: 60 02 00 54  	b.eq	0x29c84 <_ZN19ChiFeature2RealTime12OnPortCreateEP21ChiFeature2Identifier+0x28c>
   29c3c: 31 01 00 b0  	adrp	x17, 0x4e000 <_ZN19ChiFeature2RealTime12OnPortCreateEP21ChiFeature2Identifier+0x2d8>
   29c4c: 41 19 00 54  	b.ne	0x29f74 <_ZN19ChiFeature2RealTime12OnPortCreateEP21ChiFeature2Identifier+0x57c>
   29c58: e1 18 00 54  	b.ne	0x29f74 <_ZN19ChiFeature2RealTime12OnPortCreateEP21ChiFeature2Identifier+0x57c>
   29c64: 81 18 00 54  	b.ne	0x29f74 <_ZN19ChiFeature2RealTime12OnPortCreateEP21ChiFeature2Identifier+0x57c>
   29c70: 21 18 00 54  	b.ne	0x29f74 <_ZN19ChiFeature2RealTime12OnPortCreateEP21ChiFeature2Identifier+0x57c>
   29c80: a1 17 00 54  	b.ne	0x29f74 <_ZN19ChiFeature2RealTime12OnPortCreateEP21ChiFeature2Identifier+0x57c>
   29c98: f2 10 00 94  	bl	0x2e060 <_ZN19ChiFeature2RealTime19GetRegOutDimensionsEjjPjS0_+0x330>
   29c9c: e0 05 00 34  	cbz	w0, 0x29d58 <_ZN19ChiFeature2RealTime12OnPortCreateEP21ChiFeature2Identifier+0x360>
   29ca0: 09 01 00 f0  	adrp	x9, 0x4c000 <_ZN19ChiFeature2RealTime12OnPortCreateEP21ChiFeature2Identifier+0x334>
   29cac: 60 05 08 36  	tbz	w0, #1, 0x29d58 <_ZN19ChiFeature2RealTime12OnPortCreateEP21ChiFeature2Identifier+0x360>
   29cb0: 1c 01 00 f0  	adrp	x28, 0x4c000 <_ZN19ChiFeature2RealTime12OnPortCreateEP21ChiFeature2Identifier+0x344>
   29cc0: 61 02 00 54  	b.ne	0x29d0c <_ZN19ChiFeature2RealTime12OnPortCreateEP21ChiFeature2Identifier+0x314>
   29cc4: 3c ff ff d0  	adrp	x28, 0xf000 <_ZN19ChiFeature2RealTime12OnPortCreateEP21ChiFeature2Identifier+0x264>
   29ce4: 41 ff ff f0  	adrp	x1, 0x14000 <_ZN19ChiFeature2RealTime12OnPortCreateEP21ChiFeature2Identifier+0x298>
   29ce8: 42 ff ff 90  	adrp	x2, 0x11000 <_ZN19ChiFeature2RealTime12OnPortCreateEP21ChiFeature2Identifier+0x290>
   29cec: 25 ff ff f0  	adrp	x5, 0x10000 <_ZN19ChiFeature2RealTime12OnPortCreateEP21ChiFeature2Identifier+0x290>
   29d0c: 3c ff ff d0  	adrp	x28, 0xf000 <_ZN19ChiFeature2RealTime12OnPortCreateEP21ChiFeature2Identifier+0x2ac>
   29d30: 40 ff ff 90  	adrp	x0, 0x11000 <_ZN19ChiFeature2RealTime12OnPortCreateEP21ChiFeature2Identifier+0x2d8>
   29d34: 21 ff ff b0  	adrp	x1, 0xe000 <_ZN19ChiFeature2RealTime12OnPortCreateEP21ChiFeature2Identifier+0x2d0>
   29d38: 23 ff ff f0  	adrp	x3, 0x10000 <_ZN19ChiFeature2RealTime12OnPortCreateEP21ChiFeature2Identifier+0x2dc>
   29d3c: 25 ff ff f0  	adrp	x5, 0x10000 <_ZN19ChiFeature2RealTime12OnPortCreateEP21ChiFeature2Identifier+0x2e0>
   29d54: 83 7d 00 94  	bl	0x49360 <_ZN6ChiLog9LogSystemEPKcS1_S1_S1_iS1_z@plt>
   29d58: 3e 7e 00 94  	bl	0x49650 <_ZN15ExtensionModule11GetInstanceEv@plt>
   29d7c: 81 07 00 54  	b.ne	0x29e6c <_ZN19ChiFeature2RealTime12OnPortCreateEP21ChiFeature2Identifier+0x474>
   29d88: 41 08 00 54  	b.ne	0x29e90 <_ZN19ChiFeature2RealTime12OnPortCreateEP21ChiFeature2Identifier+0x498>
   29d94: 88 01 00 b4  	cbz	x8, 0x29dc4 <_ZN19ChiFeature2RealTime12OnPortCreateEP21ChiFeature2Identifier+0x3cc>
   29da4: 81 08 00 54  	b.ne	0x29eb4 <_ZN19ChiFeature2RealTime12OnPortCreateEP21ChiFeature2Identifier+0x4bc>
   29dac: 2b 0b 30 37  	tbnz	w11, #6, 0x29f10 <_ZN19ChiFeature2RealTime12OnPortCreateEP21ChiFeature2Identifier+0x518>
   29dbc: 41 09 00 54  	b.ne	0x29ee4 <_ZN19ChiFeature2RealTime12OnPortCreateEP21ChiFeature2Identifier+0x4ec>
   29dc0: 8b 0a 28 37  	tbnz	w11, #5, 0x29f10 <_ZN19ChiFeature2RealTime12OnPortCreateEP21ChiFeature2Identifier+0x518>
   29ddc: 5b 00 00 14  	b	0x29f48 <_ZN19ChiFeature2RealTime12OnPortCreateEP21ChiFeature2Identifier+0x550>
   29df8: 13 ff ff 17  	b	0x29a44 <_ZN19ChiFeature2RealTime12OnPortCreateEP21ChiFeature2Identifier+0x4c>
   29e10: 10 ff ff 17  	b	0x29a50 <_ZN19ChiFeature2RealTime12OnPortCreateEP21ChiFeature2Identifier+0x58>
   29e30: e0 e2 ff 54  	b.eq	0x29a8c <_ZN19ChiFeature2RealTime12OnPortCreateEP21ChiFeature2Identifier+0x94>
   29e4c: 10 ff ff 17  	b	0x29a8c <_ZN19ChiFeature2RealTime12OnPortCreateEP21ChiFeature2Identifier+0x94>
   29e64: d3 e1 ff b5  	cbnz	x19, 0x29a9c <_ZN19ChiFeature2RealTime12OnPortCreateEP21ChiFeature2Identifier+0xa4>
   29e68: 80 02 00 14  	b	0x2a868 <_ZN19ChiFeature2RealTime12OnPortCreateEP21ChiFeature2Identifier+0xe70>
   29e8c: bd ff ff 17  	b	0x29d80 <_ZN19ChiFeature2RealTime12OnPortCreateEP21ChiFeature2Identifier+0x388>
   29eb0: b7 ff ff 17  	b	0x29d8c <_ZN19ChiFeature2RealTime12OnPortCreateEP21ChiFeature2Identifier+0x394>
   29edc: ab f6 37 36  	tbz	w11, #6, 0x29db0 <_ZN19ChiFeature2RealTime12OnPortCreateEP21ChiFeature2Identifier+0x3b8>
   29ee0: 0c 00 00 14  	b	0x29f10 <_ZN19ChiFeature2RealTime12OnPortCreateEP21ChiFeature2Identifier+0x518>
   29f0c: cb f5 2f 36  	tbz	w11, #5, 0x29dc4 <_ZN19ChiFeature2RealTime12OnPortCreateEP21ChiFeature2Identifier+0x3cc>
   29f1c: 61 de 00 54  	b.ne	0x2bae8 <_ZN19ChiFeature2RealTime12OnPortCreateEP21ChiFeature2Identifier+0x20f0>
   29f40: 41 00 00 37  	tbnz	w1, #0, 0x29f48 <_ZN19ChiFeature2RealTime12OnPortCreateEP21ChiFeature2Identifier+0x550>
   29f64: 24 01 00 b0  	adrp	x4, 0x4e000 <_ZN19ChiFeature2RealTime12OnPortCreateEP21ChiFeature2Identifier+0x600>
   29f78: 8d 00 00 36  	tbz	w13, #0, 0x29f88 <_ZN19ChiFeature2RealTime12OnPortCreateEP21ChiFeature2Identifier+0x590>
   29f90: 80 00 00 54  	b.eq	0x29fa0 <_ZN19ChiFeature2RealTime12OnPortCreateEP21ChiFeature2Identifier+0x5a8>
   29f9c: a1 08 00 54  	b.ne	0x2a0b0 <_ZN19ChiFeature2RealTime12OnPortCreateEP21ChiFeature2Identifier+0x6b8>
   29fac: 21 02 00 54  	b.ne	0x29ff0 <_ZN19ChiFeature2RealTime12OnPortCreateEP21ChiFeature2Identifier+0x5f8>
   29fbc: a1 01 00 54  	b.ne	0x29ff0 <_ZN19ChiFeature2RealTime12OnPortCreateEP21ChiFeature2Identifier+0x5f8>
   29fcc: 21 01 00 54  	b.ne	0x29ff0 <_ZN19ChiFeature2RealTime12OnPortCreateEP21ChiFeature2Identifier+0x5f8>
   29fdc: a1 00 00 54  	b.ne	0x29ff0 <_ZN19ChiFeature2RealTime12OnPortCreateEP21ChiFeature2Identifier+0x5f8>
   29fec: a0 05 00 54  	b.eq	0x2a0a0 <_ZN19ChiFeature2RealTime12OnPortCreateEP21ChiFeature2Identifier+0x6a8>
   29ff0: 31 01 00 b0  	adrp	x17, 0x4e000 <_ZN19ChiFeature2RealTime12OnPortCreateEP21ChiFeature2Identifier+0x68c>
   29ffc: 61 02 00 54  	b.ne	0x2a048 <_ZN19ChiFeature2RealTime12OnPortCreateEP21ChiFeature2Identifier+0x650>
   2a000: 21 01 00 90  	adrp	x1, 0x4e000 <_ZN19ChiFeature2RealTime12OnPortCreateEP21ChiFeature2Identifier+0x698>
   2a014: a1 01 00 54  	b.ne	0x2a048 <_ZN19ChiFeature2RealTime12OnPortCreateEP21ChiFeature2Identifier+0x650>
   2a024: 21 01 00 54  	b.ne	0x2a048 <_ZN19ChiFeature2RealTime12OnPortCreateEP21ChiFeature2Identifier+0x650>
   2a034: a1 00 00 54  	b.ne	0x2a048 <_ZN19ChiFeature2RealTime12OnPortCreateEP21ChiFeature2Identifier+0x650>
   2a044: e0 02 00 54  	b.eq	0x2a0a0 <_ZN19ChiFeature2RealTime12OnPortCreateEP21ChiFeature2Identifier+0x6a8>
   2a048: 21 01 00 90  	adrp	x1, 0x4e000 <_ZN19ChiFeature2RealTime12OnPortCreateEP21ChiFeature2Identifier+0x6e0>
   2a054: 01 03 00 54  	b.ne	0x2a0b4 <_ZN19ChiFeature2RealTime12OnPortCreateEP21ChiFeature2Identifier+0x6bc>
   2a058: 2a 01 00 90  	adrp	x10, 0x4e000 <_ZN19ChiFeature2RealTime12OnPortCreateEP21ChiFeature2Identifier+0x6f0>
   2a06c: 41 02 00 54  	b.ne	0x2a0b4 <_ZN19ChiFeature2RealTime12OnPortCreateEP21ChiFeature2Identifier+0x6bc>
   2a07c: c1 01 00 54  	b.ne	0x2a0b4 <_ZN19ChiFeature2RealTime12OnPortCreateEP21ChiFeature2Identifier+0x6bc>
   2a08c: 41 01 00 54  	b.ne	0x2a0b4 <_ZN19ChiFeature2RealTime12OnPortCreateEP21ChiFeature2Identifier+0x6bc>
   2a09c: c1 00 00 54  	b.ne	0x2a0b4 <_ZN19ChiFeature2RealTime12OnPortCreateEP21ChiFeature2Identifier+0x6bc>
   2a0ac: 02 00 00 14  	b	0x2a0b4 <_ZN19ChiFeature2RealTime12OnPortCreateEP21ChiFeature2Identifier+0x6bc>
   2a0b4: 23 01 00 90  	adrp	x3, 0x4e000 <_ZN19ChiFeature2RealTime12OnPortCreateEP21ChiFeature2Identifier+0x74c>
   2a0c0: 61 02 00 54  	b.ne	0x2a10c <_ZN19ChiFeature2RealTime12OnPortCreateEP21ChiFeature2Identifier+0x714>
   2a0c4: 22 01 00 90  	adrp	x2, 0x4e000 <_ZN19ChiFeature2RealTime12OnPortCreateEP21ChiFeature2Identifier+0x75c>
   2a0d8: a1 01 00 54  	b.ne	0x2a10c <_ZN19ChiFeature2RealTime12OnPortCreateEP21ChiFeature2Identifier+0x714>
   2a0e8: 21 01 00 54  	b.ne	0x2a10c <_ZN19ChiFeature2RealTime12OnPortCreateEP21ChiFeature2Identifier+0x714>
   2a0f8: a1 00 00 54  	b.ne	0x2a10c <_ZN19ChiFeature2RealTime12OnPortCreateEP21ChiFeature2Identifier+0x714>
   2a108: 80 1b 00 54  	b.eq	0x2a478 <_ZN19ChiFeature2RealTime12OnPortCreateEP21ChiFeature2Identifier+0xa80>
   2a10c: 24 01 00 90  	adrp	x4, 0x4e000 <_ZN19ChiFeature2RealTime12OnPortCreateEP21ChiFeature2Identifier+0x7a4>
   2a118: 61 02 00 54  	b.ne	0x2a164 <_ZN19ChiFeature2RealTime12OnPortCreateEP21ChiFeature2Identifier+0x76c>
   2a11c: 23 01 00 90  	adrp	x3, 0x4e000 <_ZN19ChiFeature2RealTime12OnPortCreateEP21ChiFeature2Identifier+0x7b4>
   2a130: a1 01 00 54  	b.ne	0x2a164 <_ZN19ChiFeature2RealTime12OnPortCreateEP21ChiFeature2Identifier+0x76c>
   2a140: 21 01 00 54  	b.ne	0x2a164 <_ZN19ChiFeature2RealTime12OnPortCreateEP21ChiFeature2Identifier+0x76c>
   2a150: a1 00 00 54  	b.ne	0x2a164 <_ZN19ChiFeature2RealTime12OnPortCreateEP21ChiFeature2Identifier+0x76c>
   2a160: c0 18 00 54  	b.eq	0x2a478 <_ZN19ChiFeature2RealTime12OnPortCreateEP21ChiFeature2Identifier+0xa80>
   2a164: 25 01 00 90  	adrp	x5, 0x4e000 <_ZN19ChiFeature2RealTime12OnPortCreateEP21ChiFeature2Identifier+0x7fc>
   2a170: 61 02 00 54  	b.ne	0x2a1bc <_ZN19ChiFeature2RealTime12OnPortCreateEP21ChiFeature2Identifier+0x7c4>
   2a174: 24 01 00 90  	adrp	x4, 0x4e000 <_ZN19ChiFeature2RealTime12OnPortCreateEP21ChiFeature2Identifier+0x80c>
   2a188: a1 01 00 54  	b.ne	0x2a1bc <_ZN19ChiFeature2RealTime12OnPortCreateEP21ChiFeature2Identifier+0x7c4>
   2a198: 21 01 00 54  	b.ne	0x2a1bc <_ZN19ChiFeature2RealTime12OnPortCreateEP21ChiFeature2Identifier+0x7c4>
   2a1a8: a1 00 00 54  	b.ne	0x2a1bc <_ZN19ChiFeature2RealTime12OnPortCreateEP21ChiFeature2Identifier+0x7c4>
   2a1b8: 00 16 00 54  	b.eq	0x2a478 <_ZN19ChiFeature2RealTime12OnPortCreateEP21ChiFeature2Identifier+0xa80>
   2a1bc: 26 01 00 90  	adrp	x6, 0x4e000 <_ZN19ChiFeature2RealTime12OnPortCreateEP21ChiFeature2Identifier+0x854>
   2a1c8: 61 02 00 54  	b.ne	0x2a214 <_ZN19ChiFeature2RealTime12OnPortCreateEP21ChiFeature2Identifier+0x81c>
   2a1cc: 25 01 00 90  	adrp	x5, 0x4e000 <_ZN19ChiFeature2RealTime12OnPortCreateEP21ChiFeature2Identifier+0x864>
   2a1e0: a1 01 00 54  	b.ne	0x2a214 <_ZN19ChiFeature2RealTime12OnPortCreateEP21ChiFeature2Identifier+0x81c>
   2a1f0: 21 01 00 54  	b.ne	0x2a214 <_ZN19ChiFeature2RealTime12OnPortCreateEP21ChiFeature2Identifier+0x81c>
   2a200: a1 00 00 54  	b.ne	0x2a214 <_ZN19ChiFeature2RealTime12OnPortCreateEP21ChiFeature2Identifier+0x81c>
   2a210: 40 13 00 54  	b.eq	0x2a478 <_ZN19ChiFeature2RealTime12OnPortCreateEP21ChiFeature2Identifier+0xa80>
   2a214: 27 01 00 90  	adrp	x7, 0x4e000 <_ZN19ChiFeature2RealTime12OnPortCreateEP21ChiFeature2Identifier+0x8ac>
   2a220: 61 02 00 54  	b.ne	0x2a26c <_ZN19ChiFeature2RealTime12OnPortCreateEP21ChiFeature2Identifier+0x874>
   2a224: 26 01 00 90  	adrp	x6, 0x4e000 <_ZN19ChiFeature2RealTime12OnPortCreateEP21ChiFeature2Identifier+0x8bc>
   2a238: a1 01 00 54  	b.ne	0x2a26c <_ZN19ChiFeature2RealTime12OnPortCreateEP21ChiFeature2Identifier+0x874>
   2a248: 21 01 00 54  	b.ne	0x2a26c <_ZN19ChiFeature2RealTime12OnPortCreateEP21ChiFeature2Identifier+0x874>
   2a258: a1 00 00 54  	b.ne	0x2a26c <_ZN19ChiFeature2RealTime12OnPortCreateEP21ChiFeature2Identifier+0x874>
   2a268: 80 10 00 54  	b.eq	0x2a478 <_ZN19ChiFeature2RealTime12OnPortCreateEP21ChiFeature2Identifier+0xa80>
   2a26c: 20 01 00 90  	adrp	x0, 0x4e000 <_ZN19ChiFeature2RealTime12OnPortCreateEP21ChiFeature2Identifier+0x904>
   2a278: 61 02 00 54  	b.ne	0x2a2c4 <_ZN19ChiFeature2RealTime12OnPortCreateEP21ChiFeature2Identifier+0x8cc>
   2a27c: 27 01 00 90  	adrp	x7, 0x4e000 <_ZN19ChiFeature2RealTime12OnPortCreateEP21ChiFeature2Identifier+0x914>
   2a290: a1 01 00 54  	b.ne	0x2a2c4 <_ZN19ChiFeature2RealTime12OnPortCreateEP21ChiFeature2Identifier+0x8cc>
   2a2a0: 21 01 00 54  	b.ne	0x2a2c4 <_ZN19ChiFeature2RealTime12OnPortCreateEP21ChiFeature2Identifier+0x8cc>
   2a2b0: a1 00 00 54  	b.ne	0x2a2c4 <_ZN19ChiFeature2RealTime12OnPortCreateEP21ChiFeature2Identifier+0x8cc>
   2a2c0: c0 0d 00 54  	b.eq	0x2a478 <_ZN19ChiFeature2RealTime12OnPortCreateEP21ChiFeature2Identifier+0xa80>
   2a2c4: 29 01 00 90  	adrp	x9, 0x4e000 <_ZN19ChiFeature2RealTime12OnPortCreateEP21ChiFeature2Identifier+0x95c>
   2a2d0: 61 02 00 54  	b.ne	0x2a31c <_ZN19ChiFeature2RealTime12OnPortCreateEP21ChiFeature2Identifier+0x924>
   2a2d4: 20 01 00 90  	adrp	x0, 0x4e000 <_ZN19ChiFeature2RealTime12OnPortCreateEP21ChiFeature2Identifier+0x96c>
   2a2e8: a1 01 00 54  	b.ne	0x2a31c <_ZN19ChiFeature2RealTime12OnPortCreateEP21ChiFeature2Identifier+0x924>
   2a2f8: 21 01 00 54  	b.ne	0x2a31c <_ZN19ChiFeature2RealTime12OnPortCreateEP21ChiFeature2Identifier+0x924>
   2a308: a1 00 00 54  	b.ne	0x2a31c <_ZN19ChiFeature2RealTime12OnPortCreateEP21ChiFeature2Identifier+0x924>
   2a318: 00 0b 00 54  	b.eq	0x2a478 <_ZN19ChiFeature2RealTime12OnPortCreateEP21ChiFeature2Identifier+0xa80>
   2a31c: 3c 01 00 90  	adrp	x28, 0x4e000 <_ZN19ChiFeature2RealTime12OnPortCreateEP21ChiFeature2Identifier+0x9b4>
   2a328: 61 02 00 54  	b.ne	0x2a374 <_ZN19ChiFeature2RealTime12OnPortCreateEP21ChiFeature2Identifier+0x97c>
   2a32c: 29 01 00 90  	adrp	x9, 0x4e000 <_ZN19ChiFeature2RealTime12OnPortCreateEP21ChiFeature2Identifier+0x9c4>
   2a340: a1 01 00 54  	b.ne	0x2a374 <_ZN19ChiFeature2RealTime12OnPortCreateEP21ChiFeature2Identifier+0x97c>
   2a350: 21 01 00 54  	b.ne	0x2a374 <_ZN19ChiFeature2RealTime12OnPortCreateEP21ChiFeature2Identifier+0x97c>
   2a360: a1 00 00 54  	b.ne	0x2a374 <_ZN19ChiFeature2RealTime12OnPortCreateEP21ChiFeature2Identifier+0x97c>
   2a370: 40 08 00 54  	b.eq	0x2a478 <_ZN19ChiFeature2RealTime12OnPortCreateEP21ChiFeature2Identifier+0xa80>
   2a374: 2a 01 00 90  	adrp	x10, 0x4e000 <_ZN19ChiFeature2RealTime12OnPortCreateEP21ChiFeature2Identifier+0xa0c>
   2a380: 61 02 00 54  	b.ne	0x2a3cc <_ZN19ChiFeature2RealTime12OnPortCreateEP21ChiFeature2Identifier+0x9d4>
   2a384: 2a 01 00 90  	adrp	x10, 0x4e000 <_ZN19ChiFeature2RealTime12OnPortCreateEP21ChiFeature2Identifier+0xa1c>
   2a398: a1 01 00 54  	b.ne	0x2a3cc <_ZN19ChiFeature2RealTime12OnPortCreateEP21ChiFeature2Identifier+0x9d4>
   2a3a8: 21 01 00 54  	b.ne	0x2a3cc <_ZN19ChiFeature2RealTime12OnPortCreateEP21ChiFeature2Identifier+0x9d4>
   2a3b8: a1 00 00 54  	b.ne	0x2a3cc <_ZN19ChiFeature2RealTime12OnPortCreateEP21ChiFeature2Identifier+0x9d4>
   2a3c8: 80 05 00 54  	b.eq	0x2a478 <_ZN19ChiFeature2RealTime12OnPortCreateEP21ChiFeature2Identifier+0xa80>
   2a3cc: 2c 01 00 90  	adrp	x12, 0x4e000 <_ZN19ChiFeature2RealTime12OnPortCreateEP21ChiFeature2Identifier+0xa64>
   2a3d8: 61 02 00 54  	b.ne	0x2a424 <_ZN19ChiFeature2RealTime12OnPortCreateEP21ChiFeature2Identifier+0xa2c>
   2a3dc: 2c 01 00 90  	adrp	x12, 0x4e000 <_ZN19ChiFeature2RealTime12OnPortCreateEP21ChiFeature2Identifier+0xa74>
   2a3f0: a1 01 00 54  	b.ne	0x2a424 <_ZN19ChiFeature2RealTime12OnPortCreateEP21ChiFeature2Identifier+0xa2c>
   2a400: 21 01 00 54  	b.ne	0x2a424 <_ZN19ChiFeature2RealTime12OnPortCreateEP21ChiFeature2Identifier+0xa2c>
   2a410: a1 00 00 54  	b.ne	0x2a424 <_ZN19ChiFeature2RealTime12OnPortCreateEP21ChiFeature2Identifier+0xa2c>
   2a420: c0 02 00 54  	b.eq	0x2a478 <_ZN19ChiFeature2RealTime12OnPortCreateEP21ChiFeature2Identifier+0xa80>
   2a42c: 01 0f 00 54  	b.ne	0x2a60c <_ZN19ChiFeature2RealTime12OnPortCreateEP21ChiFeature2Identifier+0xc14>
   2a430: 28 01 00 90  	adrp	x8, 0x4e000 <_ZN19ChiFeature2RealTime12OnPortCreateEP21ChiFeature2Identifier+0xac8>
   2a444: 41 0e 00 54  	b.ne	0x2a60c <_ZN19ChiFeature2RealTime12OnPortCreateEP21ChiFeature2Identifier+0xc14>
   2a454: c1 0d 00 54  	b.ne	0x2a60c <_ZN19ChiFeature2RealTime12OnPortCreateEP21ChiFeature2Identifier+0xc14>
   2a464: 41 0d 00 54  	b.ne	0x2a60c <_ZN19ChiFeature2RealTime12OnPortCreateEP21ChiFeature2Identifier+0xc14>
   2a474: c1 0c 00 54  	b.ne	0x2a60c <_ZN19ChiFeature2RealTime12OnPortCreateEP21ChiFeature2Identifier+0xc14>
   2a484: 61 b4 00 54  	b.ne	0x2bb10 <_ZN19ChiFeature2RealTime12OnPortCreateEP21ChiFeature2Identifier+0x2118>
   2a48c: 61 b5 00 54  	b.ne	0x2bb38 <_ZN19ChiFeature2RealTime12OnPortCreateEP21ChiFeature2Identifier+0x2140>
   2a4a0: 42 01 00 54  	b.hs	0x2a4c8 <_ZN19ChiFeature2RealTime12OnPortCreateEP21ChiFeature2Identifier+0xad0>
   2a4a8: 3c 01 00 b4  	cbz	x28, 0x2a4cc <_ZN19ChiFeature2RealTime12OnPortCreateEP21ChiFeature2Identifier+0xad4>
   2a4bc: 62 00 00 54  	b.hs	0x2a4c8 <_ZN19ChiFeature2RealTime12OnPortCreateEP21ChiFeature2Identifier+0xad0>
   2a4c4: 02 00 00 14  	b	0x2a4cc <_ZN19ChiFeature2RealTime12OnPortCreateEP21ChiFeature2Identifier+0xad4>
   2a4d8: 01 b4 00 54  	b.ne	0x2bb58 <_ZN19ChiFeature2RealTime12OnPortCreateEP21ChiFeature2Identifier+0x2160>
   2a4dc: 9c 09 00 b4  	cbz	x28, 0x2a60c <_ZN19ChiFeature2RealTime12OnPortCreateEP21ChiFeature2Identifier+0xc14>
   2a4e4: 50 09 00 b4  	cbz	x16, 0x2a60c <_ZN19ChiFeature2RealTime12OnPortCreateEP21ChiFeature2Identifier+0xc14>
   2a4ec: 03 09 00 b4  	cbz	x3, 0x2a60c <_ZN19ChiFeature2RealTime12OnPortCreateEP21ChiFeature2Identifier+0xc14>
   2a500: 61 08 00 54  	b.ne	0x2a60c <_ZN19ChiFeature2RealTime12OnPortCreateEP21ChiFeature2Identifier+0xc14>
   2a518: d2 0e 00 94  	bl	0x2e060 <_ZN19ChiFeature2RealTime19GetRegOutDimensionsEjjPjS0_+0x330>
   2a51c: e0 05 00 34  	cbz	w0, 0x2a5d8 <_ZN19ChiFeature2RealTime12OnPortCreateEP21ChiFeature2Identifier+0xbe0>
   2a520: 17 01 00 d0  	adrp	x23, 0x4c000 <_ZN19ChiFeature2RealTime12OnPortCreateEP21ChiFeature2Identifier+0xbb0>
   2a52c: 65 05 08 36  	tbz	w5, #1, 0x2a5d8 <_ZN19ChiFeature2RealTime12OnPortCreateEP21ChiFeature2Identifier+0xbe0>
   2a530: 0b 01 00 d0  	adrp	x11, 0x4c000 <_ZN19ChiFeature2RealTime12OnPortCreateEP21ChiFeature2Identifier+0xbc0>
   2a540: 61 02 00 54  	b.ne	0x2a58c <_ZN19ChiFeature2RealTime12OnPortCreateEP21ChiFeature2Identifier+0xb94>
   2a544: 37 ff ff b0  	adrp	x23, 0xf000 <_ZN19ChiFeature2RealTime12OnPortCreateEP21ChiFeature2Identifier+0xae0>
   2a564: 41 ff ff d0  	adrp	x1, 0x14000 <_ZN19ChiFeature2RealTime12OnPortCreateEP21ChiFeature2Identifier+0xb14>
   2a568: 22 ff ff f0  	adrp	x2, 0x11000 <_ZN19ChiFeature2RealTime12OnPortCreateEP21ChiFeature2Identifier+0xb0c>
   2a56c: 25 ff ff d0  	adrp	x5, 0x10000 <_ZN19ChiFeature2RealTime12OnPortCreateEP21ChiFeature2Identifier+0xb0c>
   2a58c: 37 ff ff b0  	adrp	x23, 0xf000 <_ZN19ChiFeature2RealTime12OnPortCreateEP21ChiFeature2Identifier+0xb28>
   2a5b0: 20 ff ff f0  	adrp	x0, 0x11000 <_ZN19ChiFeature2RealTime12OnPortCreateEP21ChiFeature2Identifier+0xb54>
   2a5b4: 21 ff ff 90  	adrp	x1, 0xe000 <_ZN19ChiFeature2RealTime12OnPortCreateEP21ChiFeature2Identifier+0xb4c>
   2a5b8: 23 ff ff d0  	adrp	x3, 0x10000 <_ZN19ChiFeature2RealTime12OnPortCreateEP21ChiFeature2Identifier+0xb58>
   2a5bc: 25 ff ff d0  	adrp	x5, 0x10000 <_ZN19ChiFeature2RealTime12OnPortCreateEP21ChiFeature2Identifier+0xb5c>
   2a5d4: 63 7b 00 94  	bl	0x49360 <_ZN6ChiLog9LogSystemEPKcS1_S1_S1_iS1_z@plt>
   2a61c: 41 0c 00 54  	b.ne	0x2a7a4 <_ZN19ChiFeature2RealTime12OnPortCreateEP21ChiFeature2Identifier+0xdac>
   2a620: 2f 01 00 90  	adrp	x15, 0x4e000 <_ZN19ChiFeature2RealTime12OnPortCreateEP21ChiFeature2Identifier+0xcb8>
   2a630: 61 02 00 54  	b.ne	0x2a67c <_ZN19ChiFeature2RealTime12OnPortCreateEP21ChiFeature2Identifier+0xc84>
   2a634: 2b 01 00 90  	adrp	x11, 0x4e000 <_ZN19ChiFeature2RealTime12OnPortCreateEP21ChiFeature2Identifier+0xccc>
   2a648: a1 01 00 54  	b.ne	0x2a67c <_ZN19ChiFeature2RealTime12OnPortCreateEP21ChiFeature2Identifier+0xc84>
   2a658: 21 01 00 54  	b.ne	0x2a67c <_ZN19ChiFeature2RealTime12OnPortCreateEP21ChiFeature2Identifier+0xc84>
   2a668: a1 00 00 54  	b.ne	0x2a67c <_ZN19ChiFeature2RealTime12OnPortCreateEP21ChiFeature2Identifier+0xc84>
   2a678: 60 09 00 54  	b.eq	0x2a7a4 <_ZN19ChiFeature2RealTime12OnPortCreateEP21ChiFeature2Identifier+0xdac>
   2a67c: 2e 01 00 90  	adrp	x14, 0x4e000 <_ZN19ChiFeature2RealTime12OnPortCreateEP21ChiFeature2Identifier+0xd14>
   2a688: 61 02 00 54  	b.ne	0x2a6d4 <_ZN19ChiFeature2RealTime12OnPortCreateEP21ChiFeature2Identifier+0xcdc>
   2a68c: 2d 01 00 90  	adrp	x13, 0x4e000 <_ZN19ChiFeature2RealTime12OnPortCreateEP21ChiFeature2Identifier+0xd24>
   2a6a0: a1 01 00 54  	b.ne	0x2a6d4 <_ZN19ChiFeature2RealTime12OnPortCreateEP21ChiFeature2Identifier+0xcdc>
   2a6b0: 21 01 00 54  	b.ne	0x2a6d4 <_ZN19ChiFeature2RealTime12OnPortCreateEP21ChiFeature2Identifier+0xcdc>
   2a6c0: a1 00 00 54  	b.ne	0x2a6d4 <_ZN19ChiFeature2RealTime12OnPortCreateEP21ChiFeature2Identifier+0xcdc>
   2a6d0: a0 06 00 54  	b.eq	0x2a7a4 <_ZN19ChiFeature2RealTime12OnPortCreateEP21ChiFeature2Identifier+0xdac>
   2a6dc: 21 03 00 54  	b.ne	0x2a740 <_ZN19ChiFeature2RealTime12OnPortCreateEP21ChiFeature2Identifier+0xd48>
   2a6e0: 28 01 00 90  	adrp	x8, 0x4e000 <_ZN19ChiFeature2RealTime12OnPortCreateEP21ChiFeature2Identifier+0xd78>
   2a6f4: 61 02 00 54  	b.ne	0x2a740 <_ZN19ChiFeature2RealTime12OnPortCreateEP21ChiFeature2Identifier+0xd48>
   2a6f8: 21 01 00 90  	adrp	x1, 0x4e000 <_ZN19ChiFeature2RealTime12OnPortCreateEP21ChiFeature2Identifier+0xd90>
   2a70c: a1 01 00 54  	b.ne	0x2a740 <_ZN19ChiFeature2RealTime12OnPortCreateEP21ChiFeature2Identifier+0xd48>
   2a710: 31 01 00 90  	adrp	x17, 0x4e000 <_ZN19ChiFeature2RealTime12OnPortCreateEP21ChiFeature2Identifier+0xda8>
   2a724: e1 00 00 54  	b.ne	0x2a740 <_ZN19ChiFeature2RealTime12OnPortCreateEP21ChiFeature2Identifier+0xd48>
   2a728: 22 01 00 90  	adrp	x2, 0x4e000 <_ZN19ChiFeature2RealTime12OnPortCreateEP21ChiFeature2Identifier+0xdc0>
   2a73c: 40 03 00 54  	b.eq	0x2a7a4 <_ZN19ChiFeature2RealTime12OnPortCreateEP21ChiFeature2Identifier+0xdac>
   2a748: 61 02 00 54  	b.ne	0x2a794 <_ZN19ChiFeature2RealTime12OnPortCreateEP21ChiFeature2Identifier+0xd9c>
   2a74c: 2e 01 00 90  	adrp	x14, 0x4e000 <_ZN19ChiFeature2RealTime12OnPortCreateEP21ChiFeature2Identifier+0xde4>
   2a760: a1 01 00 54  	b.ne	0x2a794 <_ZN19ChiFeature2RealTime12OnPortCreateEP21ChiFeature2Identifier+0xd9c>
   2a770: 21 01 00 54  	b.ne	0x2a794 <_ZN19ChiFeature2RealTime12OnPortCreateEP21ChiFeature2Identifier+0xd9c>
   2a780: a1 00 00 54  	b.ne	0x2a794 <_ZN19ChiFeature2RealTime12OnPortCreateEP21ChiFeature2Identifier+0xd9c>
   2a790: a0 00 00 54  	b.eq	0x2a7a4 <_ZN19ChiFeature2RealTime12OnPortCreateEP21ChiFeature2Identifier+0xdac>
   2a7b0: 21 92 00 54  	b.ne	0x2b9f4 <_ZN19ChiFeature2RealTime12OnPortCreateEP21ChiFeature2Identifier+0x1ffc>
   2a7b8: 41 93 00 54  	b.ne	0x2ba20 <_ZN19ChiFeature2RealTime12OnPortCreateEP21ChiFeature2Identifier+0x2028>
   2a7c0: 4b 05 00 b4  	cbz	x11, 0x2a868 <_ZN19ChiFeature2RealTime12OnPortCreateEP21ChiFeature2Identifier+0xe70>
   2a7d0: 41 97 00 54  	b.ne	0x2bab8 <_ZN19ChiFeature2RealTime12OnPortCreateEP21ChiFeature2Identifier+0x20c0>
   2a7d8: 90 04 00 36  	tbz	w16, #0, 0x2a868 <_ZN19ChiFeature2RealTime12OnPortCreateEP21ChiFeature2Identifier+0xe70>
   2a7e8: 05 04 00 b4  	cbz	x5, 0x2a868 <_ZN19ChiFeature2RealTime12OnPortCreateEP21ChiFeature2Identifier+0xe70>
   2a7f4: 60 00 00 54  	b.eq	0x2a800 <_ZN19ChiFeature2RealTime12OnPortCreateEP21ChiFeature2Identifier+0xe08>
   2a7fc: 61 03 00 54  	b.ne	0x2a868 <_ZN19ChiFeature2RealTime12OnPortCreateEP21ChiFeature2Identifier+0xe70>
   2a804: 93 7b 00 94  	bl	0x49650 <_ZN15ExtensionModule11GetInstanceEv@plt>
   2a80c: 66 00 00 b4  	cbz	x6, 0x2a818 <_ZN19ChiFeature2RealTime12OnPortCreateEP21ChiFeature2Identifier+0xe20>
   2a814: 02 00 00 14  	b	0x2a81c <_ZN19ChiFeature2RealTime12OnPortCreateEP21ChiFeature2Identifier+0xe24>
   2a830: 81 9a 00 54  	b.ne	0x2bb80 <_ZN19ChiFeature2RealTime12OnPortCreateEP21ChiFeature2Identifier+0x2188>
   2a838: 8a 01 00 34  	cbz	w10, 0x2a868 <_ZN19ChiFeature2RealTime12OnPortCreateEP21ChiFeature2Identifier+0xe70>
   2a840: 49 01 00 54  	b.ls	0x2a868 <_ZN19ChiFeature2RealTime12OnPortCreateEP21ChiFeature2Identifier+0xe70>
   2a848: 43 ff ff d0  	adrp	x3, 0x14000 <_ZN19ChiFeature2RealTime12OnPortCreateEP21ChiFeature2Identifier+0xdf8>
   2a874: e1 12 00 54  	b.ne	0x2aad0 <_ZN19ChiFeature2RealTime12OnPortCreateEP21ChiFeature2Identifier+0x10d8>
   2a878: 37 01 00 90  	adrp	x23, 0x4e000 <_ZN19ChiFeature2RealTime12OnPortCreateEP21ChiFeature2Identifier+0xf10>
   2a88c: 21 12 00 54  	b.ne	0x2aad0 <_ZN19ChiFeature2RealTime12OnPortCreateEP21ChiFeature2Identifier+0x10d8>
   2a89c: a1 11 00 54  	b.ne	0x2aad0 <_ZN19ChiFeature2RealTime12OnPortCreateEP21ChiFeature2Identifier+0x10d8>
   2a8ac: 21 11 00 54  	b.ne	0x2aad0 <_ZN19ChiFeature2RealTime12OnPortCreateEP21ChiFeature2Identifier+0x10d8>
   2a8bc: a1 10 00 54  	b.ne	0x2aad0 <_ZN19ChiFeature2RealTime12OnPortCreateEP21ChiFeature2Identifier+0x10d8>
   2a8cc: e1 7e 00 54  	b.ne	0x2b8a8 <_ZN19ChiFeature2RealTime12OnPortCreateEP21ChiFeature2Identifier+0x1eb0>
   2a8d4: a1 7f 00 54  	b.ne	0x2b8c8 <_ZN19ChiFeature2RealTime12OnPortCreateEP21ChiFeature2Identifier+0x1ed0>
   2a8dc: ad 0f 00 b4  	cbz	x13, 0x2aad0 <_ZN19ChiFeature2RealTime12OnPortCreateEP21ChiFeature2Identifier+0x10d8>
   2a8ec: 21 85 00 54  	b.ne	0x2b990 <_ZN19ChiFeature2RealTime12OnPortCreateEP21ChiFeature2Identifier+0x1f98>
   2a8f4: ed 0e 18 36  	tbz	w13, #3, 0x2aad0 <_ZN19ChiFeature2RealTime12OnPortCreateEP21ChiFeature2Identifier+0x10d8>
   2a904: 81 85 00 54  	b.ne	0x2b9b4 <_ZN19ChiFeature2RealTime12OnPortCreateEP21ChiFeature2Identifier+0x1fbc>
   2a908: 4d 0e 00 37  	tbnz	w13, #0, 0x2aad0 <_ZN19ChiFeature2RealTime12OnPortCreateEP21ChiFeature2Identifier+0x10d8>
   2a918: 61 8a 00 54  	b.ne	0x2ba64 <_ZN19ChiFeature2RealTime12OnPortCreateEP21ChiFeature2Identifier+0x206c>
   2a920: 21 8b 00 54  	b.ne	0x2ba84 <_ZN19ChiFeature2RealTime12OnPortCreateEP21ChiFeature2Identifier+0x208c>
   2a92c: a1 8b 00 54  	b.ne	0x2baa0 <_ZN19ChiFeature2RealTime12OnPortCreateEP21ChiFeature2Identifier+0x20a8>
   2a940: 02 07 00 54  	b.hs	0x2aa20 <_ZN19ChiFeature2RealTime12OnPortCreateEP21ChiFeature2Identifier+0x1028>
   2a948: c2 06 00 b4  	cbz	x2, 0x2aa20 <_ZN19ChiFeature2RealTime12OnPortCreateEP21ChiFeature2Identifier+0x1028>
   2a95c: 22 06 00 54  	b.hs	0x2aa20 <_ZN19ChiFeature2RealTime12OnPortCreateEP21ChiFeature2Identifier+0x1028>
   2a964: eb 05 00 b4  	cbz	x11, 0x2aa20 <_ZN19ChiFeature2RealTime12OnPortCreateEP21ChiFeature2Identifier+0x1028>
   2a974: a8 01 00 54  	b.hi	0x2a9a8 <_ZN19ChiFeature2RealTime12OnPortCreateEP21ChiFeature2Identifier+0xfb0>
   2a9a0: a8 01 00 54  	b.hi	0x2a9d4 <_ZN19ChiFeature2RealTime12OnPortCreateEP21ChiFeature2Identifier+0xfdc>
   2a9a4: 1f 00 00 14  	b	0x2aa20 <_ZN19ChiFeature2RealTime12OnPortCreateEP21ChiFeature2Identifier+0x1028>
   2a9d0: 89 02 00 54  	b.ls	0x2aa20 <_ZN19ChiFeature2RealTime12OnPortCreateEP21ChiFeature2Identifier+0x1028>
   2a9d8: 44 02 00 b4  	cbz	x4, 0x2aa20 <_ZN19ChiFeature2RealTime12OnPortCreateEP21ChiFeature2Identifier+0x1028>
   2a9e8: cf 01 00 b4  	cbz	x15, 0x2aa20 <_ZN19ChiFeature2RealTime12OnPortCreateEP21ChiFeature2Identifier+0x1028>
   2aa00: 5c ff ff d0  	adrp	x28, 0x14000 <_ZN19ChiFeature2RealTime12OnPortCreateEP21ChiFeature2Identifier+0xfb0>
   2aa1c: 2d 00 00 14  	b	0x2aad0 <_ZN19ChiFeature2RealTime12OnPortCreateEP21ChiFeature2Identifier+0x10d8>
   2aa20: 0a 01 00 d0  	adrp	x10, 0x4c000 <_ZN19ChiFeature2RealTime12OnPortCreateEP21ChiFeature2Identifier+0x10b0>
   2aa2c: 2f 05 00 36  	tbz	w15, #0, 0x2aad0 <_ZN19ChiFeature2RealTime12OnPortCreateEP21ChiFeature2Identifier+0x10d8>
   2aa30: 0c 01 00 d0  	adrp	x12, 0x4c000 <_ZN19ChiFeature2RealTime12OnPortCreateEP21ChiFeature2Identifier+0x10c0>
   2aa40: 41 02 00 54  	b.ne	0x2aa88 <_ZN19ChiFeature2RealTime12OnPortCreateEP21ChiFeature2Identifier+0x1090>
   2aa44: 3c ff ff b0  	adrp	x28, 0xf000 <_ZN19ChiFeature2RealTime12OnPortCreateEP21ChiFeature2Identifier+0xfe0>
   2aa60: 41 ff ff d0  	adrp	x1, 0x14000 <_ZN19ChiFeature2RealTime12OnPortCreateEP21ChiFeature2Identifier+0x1010>
   2aa64: 02 ff ff d0  	adrp	x2, 0xc000 <_ZN19ChiFeature2RealTime12OnPortCreateEP21ChiFeature2Identifier+0xff4>
   2aa68: 25 ff ff d0  	adrp	x5, 0x10000 <_ZN19ChiFeature2RealTime12OnPortCreateEP21ChiFeature2Identifier+0x1008>
   2aa88: 37 ff ff b0  	adrp	x23, 0xf000 <_ZN19ChiFeature2RealTime12OnPortCreateEP21ChiFeature2Identifier+0x1024>
   2aaa4: 41 ff ff b0  	adrp	x1, 0x13000 <_ZN19ChiFeature2RealTime12OnPortCreateEP21ChiFeature2Identifier+0x1050>
   2aaac: 00 ff ff f0  	adrp	x0, 0xd000 <_ZN19ChiFeature2RealTime12OnPortCreateEP21ChiFeature2Identifier+0x1040>
   2aab0: 23 ff ff d0  	adrp	x3, 0x10000 <_ZN19ChiFeature2RealTime12OnPortCreateEP21ChiFeature2Identifier+0x1050>
   2aab4: 25 ff ff b0  	adrp	x5, 0xf000 <_ZN19ChiFeature2RealTime12OnPortCreateEP21ChiFeature2Identifier+0x1050>
   2aacc: 25 7a 00 94  	bl	0x49360 <_ZN6ChiLog9LogSystemEPKcS1_S1_S1_iS1_z@plt>
   2aadc: a1 09 00 54  	b.ne	0x2ac10 <_ZN19ChiFeature2RealTime12OnPortCreateEP21ChiFeature2Identifier+0x1218>
   2aae0: 2c 01 00 90  	adrp	x12, 0x4e000 <_ZN19ChiFeature2RealTime12OnPortCreateEP21ChiFeature2Identifier+0x1178>
   2aaf4: e1 08 00 54  	b.ne	0x2ac10 <_ZN19ChiFeature2RealTime12OnPortCreateEP21ChiFeature2Identifier+0x1218>
   2ab04: 61 08 00 54  	b.ne	0x2ac10 <_ZN19ChiFeature2RealTime12OnPortCreateEP21ChiFeature2Identifier+0x1218>
   2ab14: e1 07 00 54  	b.ne	0x2ac10 <_ZN19ChiFeature2RealTime12OnPortCreateEP21ChiFeature2Identifier+0x1218>
   2ab24: 61 07 00 54  	b.ne	0x2ac10 <_ZN19ChiFeature2RealTime12OnPortCreateEP21ChiFeature2Identifier+0x1218>
   2ab34: a1 6d 00 54  	b.ne	0x2b8e8 <_ZN19ChiFeature2RealTime12OnPortCreateEP21ChiFeature2Identifier+0x1ef0>
   2ab3c: 61 6e 00 54  	b.ne	0x2b908 <_ZN19ChiFeature2RealTime12OnPortCreateEP21ChiFeature2Identifier+0x1f10>
   2ab48: e1 6e 00 54  	b.ne	0x2b924 <_ZN19ChiFeature2RealTime12OnPortCreateEP21ChiFeature2Identifier+0x1f2c>
   2ab5c: a2 05 00 54  	b.hs	0x2ac10 <_ZN19ChiFeature2RealTime12OnPortCreateEP21ChiFeature2Identifier+0x1218>
   2ab64: 6a 05 00 b4  	cbz	x10, 0x2ac10 <_ZN19ChiFeature2RealTime12OnPortCreateEP21ChiFeature2Identifier+0x1218>
   2ab78: c2 04 00 54  	b.hs	0x2ac10 <_ZN19ChiFeature2RealTime12OnPortCreateEP21ChiFeature2Identifier+0x1218>
   2ab80: 8e 04 00 b4  	cbz	x14, 0x2ac10 <_ZN19ChiFeature2RealTime12OnPortCreateEP21ChiFeature2Identifier+0x1218>
   2ab90: a8 01 00 54  	b.hi	0x2abc4 <_ZN19ChiFeature2RealTime12OnPortCreateEP21ChiFeature2Identifier+0x11cc>
   2abbc: a8 01 00 54  	b.hi	0x2abf0 <_ZN19ChiFeature2RealTime12OnPortCreateEP21ChiFeature2Identifier+0x11f8>
   2abc0: 14 00 00 14  	b	0x2ac10 <_ZN19ChiFeature2RealTime12OnPortCreateEP21ChiFeature2Identifier+0x1218>
   2abec: 29 01 00 54  	b.ls	0x2ac10 <_ZN19ChiFeature2RealTime12OnPortCreateEP21ChiFeature2Identifier+0x1218>
   2abf4: ed 00 00 b4  	cbz	x13, 0x2ac10 <_ZN19ChiFeature2RealTime12OnPortCreateEP21ChiFeature2Identifier+0x1218>
   2ac18: 61 02 00 54  	b.ne	0x2ac64 <_ZN19ChiFeature2RealTime12OnPortCreateEP21ChiFeature2Identifier+0x126c>
   2ac1c: 3b 01 00 90  	adrp	x27, 0x4e000 <_ZN19ChiFeature2RealTime12OnPortCreateEP21ChiFeature2Identifier+0x12b4>
   2ac30: a1 01 00 54  	b.ne	0x2ac64 <_ZN19ChiFeature2RealTime12OnPortCreateEP21ChiFeature2Identifier+0x126c>
   2ac40: 21 01 00 54  	b.ne	0x2ac64 <_ZN19ChiFeature2RealTime12OnPortCreateEP21ChiFeature2Identifier+0x126c>
   2ac50: a1 00 00 54  	b.ne	0x2ac64 <_ZN19ChiFeature2RealTime12OnPortCreateEP21ChiFeature2Identifier+0x126c>
   2ac60: a0 05 00 54  	b.eq	0x2ad14 <_ZN19ChiFeature2RealTime12OnPortCreateEP21ChiFeature2Identifier+0x131c>
   2ac64: 3b 01 00 90  	adrp	x27, 0x4e000 <_ZN19ChiFeature2RealTime12OnPortCreateEP21ChiFeature2Identifier+0x12fc>
   2ac70: 61 02 00 54  	b.ne	0x2acbc <_ZN19ChiFeature2RealTime12OnPortCreateEP21ChiFeature2Identifier+0x12c4>
   2ac74: 3c 01 00 90  	adrp	x28, 0x4e000 <_ZN19ChiFeature2RealTime12OnPortCreateEP21ChiFeature2Identifier+0x130c>
   2ac88: a1 01 00 54  	b.ne	0x2acbc <_ZN19ChiFeature2RealTime12OnPortCreateEP21ChiFeature2Identifier+0x12c4>
   2ac98: 21 01 00 54  	b.ne	0x2acbc <_ZN19ChiFeature2RealTime12OnPortCreateEP21ChiFeature2Identifier+0x12c4>
   2aca8: a1 00 00 54  	b.ne	0x2acbc <_ZN19ChiFeature2RealTime12OnPortCreateEP21ChiFeature2Identifier+0x12c4>
   2acb8: e0 02 00 54  	b.eq	0x2ad14 <_ZN19ChiFeature2RealTime12OnPortCreateEP21ChiFeature2Identifier+0x131c>
   2acbc: 28 01 00 90  	adrp	x8, 0x4e000 <_ZN19ChiFeature2RealTime12OnPortCreateEP21ChiFeature2Identifier+0x1354>
   2acc8: e1 14 00 54  	b.ne	0x2af64 <_ZN19ChiFeature2RealTime12OnPortCreateEP21ChiFeature2Identifier+0x156c>
   2accc: 28 01 00 90  	adrp	x8, 0x4e000 <_ZN19ChiFeature2RealTime12OnPortCreateEP21ChiFeature2Identifier+0x1364>
   2ace0: 21 14 00 54  	b.ne	0x2af64 <_ZN19ChiFeature2RealTime12OnPortCreateEP21ChiFeature2Identifier+0x156c>
   2acf0: a1 13 00 54  	b.ne	0x2af64 <_ZN19ChiFeature2RealTime12OnPortCreateEP21ChiFeature2Identifier+0x156c>
   2ad00: 21 13 00 54  	b.ne	0x2af64 <_ZN19ChiFeature2RealTime12OnPortCreateEP21ChiFeature2Identifier+0x156c>
   2ad10: a1 12 00 54  	b.ne	0x2af64 <_ZN19ChiFeature2RealTime12OnPortCreateEP21ChiFeature2Identifier+0x156c>
   2ad20: e1 57 00 54  	b.ne	0x2b81c <_ZN19ChiFeature2RealTime12OnPortCreateEP21ChiFeature2Identifier+0x1e24>
   2ad28: a1 58 00 54  	b.ne	0x2b83c <_ZN19ChiFeature2RealTime12OnPortCreateEP21ChiFeature2Identifier+0x1e44>
   2ad34: 21 59 00 54  	b.ne	0x2b858 <_ZN19ChiFeature2RealTime12OnPortCreateEP21ChiFeature2Identifier+0x1e60>
   2ad48: 02 05 00 54  	b.hs	0x2ade8 <_ZN19ChiFeature2RealTime12OnPortCreateEP21ChiFeature2Identifier+0x13f0>
   2ad50: fb 04 00 b4  	cbz	x27, 0x2adec <_ZN19ChiFeature2RealTime12OnPortCreateEP21ChiFeature2Identifier+0x13f4>
   2ad64: 22 04 00 54  	b.hs	0x2ade8 <_ZN19ChiFeature2RealTime12OnPortCreateEP21ChiFeature2Identifier+0x13f0>
   2ad6c: ee 03 00 b4  	cbz	x14, 0x2ade8 <_ZN19ChiFeature2RealTime12OnPortCreateEP21ChiFeature2Identifier+0x13f0>
   2ad7c: c8 01 00 54  	b.hi	0x2adb4 <_ZN19ChiFeature2RealTime12OnPortCreateEP21ChiFeature2Identifier+0x13bc>
   2ada4: 29 02 00 54  	b.ls	0x2ade8 <_ZN19ChiFeature2RealTime12OnPortCreateEP21ChiFeature2Identifier+0x13f0>
   2adb0: 0f 00 00 14  	b	0x2adec <_ZN19ChiFeature2RealTime12OnPortCreateEP21ChiFeature2Identifier+0x13f4>
   2add8: 89 00 00 54  	b.ls	0x2ade8 <_ZN19ChiFeature2RealTime12OnPortCreateEP21ChiFeature2Identifier+0x13f0>
   2ade4: 02 00 00 14  	b	0x2adec <_ZN19ChiFeature2RealTime12OnPortCreateEP21ChiFeature2Identifier+0x13f4>
   2adf8: c1 53 00 54  	b.ne	0x2b870 <_ZN19ChiFeature2RealTime12OnPortCreateEP21ChiFeature2Identifier+0x1e78>
   2ae00: 81 54 00 54  	b.ne	0x2b890 <_ZN19ChiFeature2RealTime12OnPortCreateEP21ChiFeature2Identifier+0x1e98>
   2ae14: 82 0a 00 54  	b.hs	0x2af64 <_ZN19ChiFeature2RealTime12OnPortCreateEP21ChiFeature2Identifier+0x156c>
   2ae1c: 4c 0a 00 b4  	cbz	x12, 0x2af64 <_ZN19ChiFeature2RealTime12OnPortCreateEP21ChiFeature2Identifier+0x156c>
   2ae30: a2 09 00 54  	b.hs	0x2af64 <_ZN19ChiFeature2RealTime12OnPortCreateEP21ChiFeature2Identifier+0x156c>
   2ae38: 62 09 00 b4  	cbz	x2, 0x2af64 <_ZN19ChiFeature2RealTime12OnPortCreateEP21ChiFeature2Identifier+0x156c>
   2ae3c: 5b 09 00 b4  	cbz	x27, 0x2af64 <_ZN19ChiFeature2RealTime12OnPortCreateEP21ChiFeature2Identifier+0x156c>
   2ae44: 00 09 00 b4  	cbz	x0, 0x2af64 <_ZN19ChiFeature2RealTime12OnPortCreateEP21ChiFeature2Identifier+0x156c>
   2ae4c: cb 08 00 b4  	cbz	x11, 0x2af64 <_ZN19ChiFeature2RealTime12OnPortCreateEP21ChiFeature2Identifier+0x156c>
   2ae54: 97 08 00 b4  	cbz	x23, 0x2af64 <_ZN19ChiFeature2RealTime12OnPortCreateEP21ChiFeature2Identifier+0x156c>
   2ae64: e1 68 00 54  	b.ne	0x2bb80 <_ZN19ChiFeature2RealTime12OnPortCreateEP21ChiFeature2Identifier+0x2188>
   2ae78: 41 68 00 54  	b.ne	0x2bb80 <_ZN19ChiFeature2RealTime12OnPortCreateEP21ChiFeature2Identifier+0x2188>
   2ae80: 29 07 00 54  	b.ls	0x2af64 <_ZN19ChiFeature2RealTime12OnPortCreateEP21ChiFeature2Identifier+0x156c>
   2ae84: 10 01 00 d0  	adrp	x16, 0x4c000 <_ZN19ChiFeature2RealTime12OnPortCreateEP21ChiFeature2Identifier+0x1514>
   2ae90: 90 06 18 36  	tbz	w16, #3, 0x2af60 <_ZN19ChiFeature2RealTime12OnPortCreateEP21ChiFeature2Identifier+0x1568>
   2ae94: 0e 01 00 d0  	adrp	x14, 0x4c000 <_ZN19ChiFeature2RealTime12OnPortCreateEP21ChiFeature2Identifier+0x1524>
   2ae98: 3c ff ff b0  	adrp	x28, 0xf000 <_ZN19ChiFeature2RealTime12OnPortCreateEP21ChiFeature2Identifier+0x1434>
   2aeac: a1 02 00 54  	b.ne	0x2af00 <_ZN19ChiFeature2RealTime12OnPortCreateEP21ChiFeature2Identifier+0x1508>
   2aec8: 41 ff ff d0  	adrp	x1, 0x14000 <_ZN19ChiFeature2RealTime12OnPortCreateEP21ChiFeature2Identifier+0x1478>
   2aecc: 22 ff ff f0  	adrp	x2, 0x11000 <_ZN19ChiFeature2RealTime12OnPortCreateEP21ChiFeature2Identifier+0x1470>
   2aed0: 25 ff ff d0  	adrp	x5, 0x10000 <_ZN19ChiFeature2RealTime12OnPortCreateEP21ChiFeature2Identifier+0x1470>
   2af20: 40 ff ff d0  	adrp	x0, 0x14000 <_ZN19ChiFeature2RealTime12OnPortCreateEP21ChiFeature2Identifier+0x14d0>
   2af24: 23 ff ff d0  	adrp	x3, 0x10000 <_ZN19ChiFeature2RealTime12OnPortCreateEP21ChiFeature2Identifier+0x14c4>
   2af28: 25 ff ff 90  	adrp	x5, 0xe000 <_ZN19ChiFeature2RealTime12OnPortCreateEP21ChiFeature2Identifier+0x14c0>
   2af30: 21 ff ff f0  	adrp	x1, 0x11000 <_ZN19ChiFeature2RealTime12OnPortCreateEP21ChiFeature2Identifier+0x14d4>
   2af50: 04 79 00 94  	bl	0x49360 <_ZN6ChiLog9LogSystemEPKcS1_S1_S1_iS1_z@plt>
   2af6c: 01 07 00 54  	b.ne	0x2b04c <_ZN19ChiFeature2RealTime12OnPortCreateEP21ChiFeature2Identifier+0x1654>
   2af70: 36 01 00 90  	adrp	x22, 0x4e000 <_ZN19ChiFeature2RealTime12OnPortCreateEP21ChiFeature2Identifier+0x1608>
   2af84: 41 06 00 54  	b.ne	0x2b04c <_ZN19ChiFeature2RealTime12OnPortCreateEP21ChiFeature2Identifier+0x1654>
   2af94: c1 05 00 54  	b.ne	0x2b04c <_ZN19ChiFeature2RealTime12OnPortCreateEP21ChiFeature2Identifier+0x1654>
   2afa4: 41 05 00 54  	b.ne	0x2b04c <_ZN19ChiFeature2RealTime12OnPortCreateEP21ChiFeature2Identifier+0x1654>
   2afb4: c1 04 00 54  	b.ne	0x2b04c <_ZN19ChiFeature2RealTime12OnPortCreateEP21ChiFeature2Identifier+0x1654>
   2afc4: c1 4b 00 54  	b.ne	0x2b93c <_ZN19ChiFeature2RealTime12OnPortCreateEP21ChiFeature2Identifier+0x1f44>
   2afcc: 81 4c 00 54  	b.ne	0x2b95c <_ZN19ChiFeature2RealTime12OnPortCreateEP21ChiFeature2Identifier+0x1f64>
   2afe0: 42 01 00 54  	b.hs	0x2b008 <_ZN19ChiFeature2RealTime12OnPortCreateEP21ChiFeature2Identifier+0x1610>
   2afe8: 36 01 00 b4  	cbz	x22, 0x2b00c <_ZN19ChiFeature2RealTime12OnPortCreateEP21ChiFeature2Identifier+0x1614>
   2affc: 62 00 00 54  	b.hs	0x2b008 <_ZN19ChiFeature2RealTime12OnPortCreateEP21ChiFeature2Identifier+0x1610>
   2b004: 02 00 00 14  	b	0x2b00c <_ZN19ChiFeature2RealTime12OnPortCreateEP21ChiFeature2Identifier+0x1614>
   2b018: e1 4a 00 54  	b.ne	0x2b974 <_ZN19ChiFeature2RealTime12OnPortCreateEP21ChiFeature2Identifier+0x1f7c>
   2b01c: 96 01 00 b4  	cbz	x22, 0x2b04c <_ZN19ChiFeature2RealTime12OnPortCreateEP21ChiFeature2Identifier+0x1654>
   2b024: 51 01 00 b4  	cbz	x17, 0x2b04c <_ZN19ChiFeature2RealTime12OnPortCreateEP21ChiFeature2Identifier+0x1654>
   2b02c: 0a 01 00 b4  	cbz	x10, 0x2b04c <_ZN19ChiFeature2RealTime12OnPortCreateEP21ChiFeature2Identifier+0x1654>
   2b040: 61 00 00 54  	b.ne	0x2b04c <_ZN19ChiFeature2RealTime12OnPortCreateEP21ChiFeature2Identifier+0x1654>
   2b058: 21 36 00 54  	b.ne	0x2b71c <_ZN19ChiFeature2RealTime12OnPortCreateEP21ChiFeature2Identifier+0x1d24>
   2b060: e1 36 00 54  	b.ne	0x2b73c <_ZN19ChiFeature2RealTime12OnPortCreateEP21ChiFeature2Identifier+0x1d44>
   2b068: 09 34 00 b4  	cbz	x9, 0x2b6e8 <_ZN19ChiFeature2RealTime12OnPortCreateEP21ChiFeature2Identifier+0x1cf0>
   2b078: 21 37 00 54  	b.ne	0x2b75c <_ZN19ChiFeature2RealTime12OnPortCreateEP21ChiFeature2Identifier+0x1d64>
   2b080: cc 00 30 37  	tbnz	w12, #6, 0x2b098 <_ZN19ChiFeature2RealTime12OnPortCreateEP21ChiFeature2Identifier+0x16a0>
   2b090: a1 38 00 54  	b.ne	0x2b7a4 <_ZN19ChiFeature2RealTime12OnPortCreateEP21ChiFeature2Identifier+0x1dac>
   2b094: ac 32 28 36  	tbz	w12, #5, 0x2b6e8 <_ZN19ChiFeature2RealTime12OnPortCreateEP21ChiFeature2Identifier+0x1cf0>
   2b0a4: e1 36 00 54  	b.ne	0x2b780 <_ZN19ChiFeature2RealTime12OnPortCreateEP21ChiFeature2Identifier+0x1d88>
   2b0ac: f0 31 00 37  	tbnz	w16, #0, 0x2b6e8 <_ZN19ChiFeature2RealTime12OnPortCreateEP21ChiFeature2Identifier+0x1cf0>
   2b0bc: 61 38 00 54  	b.ne	0x2b7c8 <_ZN19ChiFeature2RealTime12OnPortCreateEP21ChiFeature2Identifier+0x1dd0>
   2b0c4: 21 39 00 54  	b.ne	0x2b7e8 <_ZN19ChiFeature2RealTime12OnPortCreateEP21ChiFeature2Identifier+0x1df0>
   2b0d0: a1 39 00 54  	b.ne	0x2b804 <_ZN19ChiFeature2RealTime12OnPortCreateEP21ChiFeature2Identifier+0x1e0c>
   2b0e4: 22 30 00 54  	b.hs	0x2b6e8 <_ZN19ChiFeature2RealTime12OnPortCreateEP21ChiFeature2Identifier+0x1cf0>
   2b0ec: e3 2f 00 b4  	cbz	x3, 0x2b6e8 <_ZN19ChiFeature2RealTime12OnPortCreateEP21ChiFeature2Identifier+0x1cf0>
   2b100: 42 2f 00 54  	b.hs	0x2b6e8 <_ZN19ChiFeature2RealTime12OnPortCreateEP21ChiFeature2Identifier+0x1cf0>
   2b108: 0d 2f 00 b4  	cbz	x13, 0x2b6e8 <_ZN19ChiFeature2RealTime12OnPortCreateEP21ChiFeature2Identifier+0x1cf0>
   2b118: a8 01 00 54  	b.hi	0x2b14c <_ZN19ChiFeature2RealTime12OnPortCreateEP21ChiFeature2Identifier+0x1754>
   2b144: a8 01 00 54  	b.hi	0x2b178 <_ZN19ChiFeature2RealTime12OnPortCreateEP21ChiFeature2Identifier+0x1780>
   2b148: 68 01 00 14  	b	0x2b6e8 <_ZN19ChiFeature2RealTime12OnPortCreateEP21ChiFeature2Identifier+0x1cf0>
   2b174: a9 2b 00 54  	b.ls	0x2b6e8 <_ZN19ChiFeature2RealTime12OnPortCreateEP21ChiFeature2Identifier+0x1cf0>
   2b17c: 7c 2b 00 b4  	cbz	x28, 0x2b6e8 <_ZN19ChiFeature2RealTime12OnPortCreateEP21ChiFeature2Identifier+0x1cf0>
   2b18c: 61 42 00 54  	b.ne	0x2b9d8 <_ZN19ChiFeature2RealTime12OnPortCreateEP21ChiFeature2Identifier+0x1fe0>
   2b190: 07 01 00 f0  	adrp	x7, 0x4e000 <_ZN19ChiFeature2RealTime12OnPortCreateEP21ChiFeature2Identifier+0x1824>
   2b19c: 61 02 00 54  	b.ne	0x2b1e8 <_ZN19ChiFeature2RealTime12OnPortCreateEP21ChiFeature2Identifier+0x17f0>
   2b1a0: 0f 01 00 f0  	adrp	x15, 0x4e000 <_ZN19ChiFeature2RealTime12OnPortCreateEP21ChiFeature2Identifier+0x1834>
   2b1b4: a1 01 00 54  	b.ne	0x2b1e8 <_ZN19ChiFeature2RealTime12OnPortCreateEP21ChiFeature2Identifier+0x17f0>
   2b1c4: 21 01 00 54  	b.ne	0x2b1e8 <_ZN19ChiFeature2RealTime12OnPortCreateEP21ChiFeature2Identifier+0x17f0>
   2b1d4: a1 00 00 54  	b.ne	0x2b1e8 <_ZN19ChiFeature2RealTime12OnPortCreateEP21ChiFeature2Identifier+0x17f0>
   2b1e4: 40 13 00 54  	b.eq	0x2b44c <_ZN19ChiFeature2RealTime12OnPortCreateEP21ChiFeature2Identifier+0x1a54>
   2b1e8: 00 01 00 f0  	adrp	x0, 0x4e000 <_ZN19ChiFeature2RealTime12OnPortCreateEP21ChiFeature2Identifier+0x187c>
   2b1f4: 61 02 00 54  	b.ne	0x2b240 <_ZN19ChiFeature2RealTime12OnPortCreateEP21ChiFeature2Identifier+0x1848>
   2b1f8: 10 01 00 f0  	adrp	x16, 0x4e000 <_ZN19ChiFeature2RealTime12OnPortCreateEP21ChiFeature2Identifier+0x188c>
   2b20c: a1 01 00 54  	b.ne	0x2b240 <_ZN19ChiFeature2RealTime12OnPortCreateEP21ChiFeature2Identifier+0x1848>
   2b21c: 21 01 00 54  	b.ne	0x2b240 <_ZN19ChiFeature2RealTime12OnPortCreateEP21ChiFeature2Identifier+0x1848>
   2b22c: a1 00 00 54  	b.ne	0x2b240 <_ZN19ChiFeature2RealTime12OnPortCreateEP21ChiFeature2Identifier+0x1848>
   2b23c: 80 10 00 54  	b.eq	0x2b44c <_ZN19ChiFeature2RealTime12OnPortCreateEP21ChiFeature2Identifier+0x1a54>
   2b240: 09 01 00 f0  	adrp	x9, 0x4e000 <_ZN19ChiFeature2RealTime12OnPortCreateEP21ChiFeature2Identifier+0x18d4>
   2b24c: 61 02 00 54  	b.ne	0x2b298 <_ZN19ChiFeature2RealTime12OnPortCreateEP21ChiFeature2Identifier+0x18a0>
   2b250: 11 01 00 f0  	adrp	x17, 0x4e000 <_ZN19ChiFeature2RealTime12OnPortCreateEP21ChiFeature2Identifier+0x18e4>
   2b264: a1 01 00 54  	b.ne	0x2b298 <_ZN19ChiFeature2RealTime12OnPortCreateEP21ChiFeature2Identifier+0x18a0>
   2b274: 21 01 00 54  	b.ne	0x2b298 <_ZN19ChiFeature2RealTime12OnPortCreateEP21ChiFeature2Identifier+0x18a0>
   2b284: a1 00 00 54  	b.ne	0x2b298 <_ZN19ChiFeature2RealTime12OnPortCreateEP21ChiFeature2Identifier+0x18a0>
   2b294: c0 0d 00 54  	b.eq	0x2b44c <_ZN19ChiFeature2RealTime12OnPortCreateEP21ChiFeature2Identifier+0x1a54>
   2b298: 0a 01 00 f0  	adrp	x10, 0x4e000 <_ZN19ChiFeature2RealTime12OnPortCreateEP21ChiFeature2Identifier+0x192c>
   2b2a4: 61 02 00 54  	b.ne	0x2b2f0 <_ZN19ChiFeature2RealTime12OnPortCreateEP21ChiFeature2Identifier+0x18f8>
   2b2a8: 01 01 00 f0  	adrp	x1, 0x4e000 <_ZN19ChiFeature2RealTime12OnPortCreateEP21ChiFeature2Identifier+0x193c>
   2b2bc: a1 01 00 54  	b.ne	0x2b2f0 <_ZN19ChiFeature2RealTime12OnPortCreateEP21ChiFeature2Identifier+0x18f8>
   2b2cc: 21 01 00 54  	b.ne	0x2b2f0 <_ZN19ChiFeature2RealTime12OnPortCreateEP21ChiFeature2Identifier+0x18f8>
   2b2dc: a1 00 00 54  	b.ne	0x2b2f0 <_ZN19ChiFeature2RealTime12OnPortCreateEP21ChiFeature2Identifier+0x18f8>
   2b2ec: 00 0b 00 54  	b.eq	0x2b44c <_ZN19ChiFeature2RealTime12OnPortCreateEP21ChiFeature2Identifier+0x1a54>
   2b2f8: 61 02 00 54  	b.ne	0x2b344 <_ZN19ChiFeature2RealTime12OnPortCreateEP21ChiFeature2Identifier+0x194c>
   2b2fc: 1a 01 00 f0  	adrp	x26, 0x4e000 <_ZN19ChiFeature2RealTime12OnPortCreateEP21ChiFeature2Identifier+0x1990>
   2b310: a1 01 00 54  	b.ne	0x2b344 <_ZN19ChiFeature2RealTime12OnPortCreateEP21ChiFeature2Identifier+0x194c>
   2b320: 21 01 00 54  	b.ne	0x2b344 <_ZN19ChiFeature2RealTime12OnPortCreateEP21ChiFeature2Identifier+0x194c>
   2b330: a1 00 00 54  	b.ne	0x2b344 <_ZN19ChiFeature2RealTime12OnPortCreateEP21ChiFeature2Identifier+0x194c>
   2b340: 60 08 00 54  	b.eq	0x2b44c <_ZN19ChiFeature2RealTime12OnPortCreateEP21ChiFeature2Identifier+0x1a54>
   2b344: 1a 01 00 f0  	adrp	x26, 0x4e000 <_ZN19ChiFeature2RealTime12OnPortCreateEP21ChiFeature2Identifier+0x19d8>
   2b350: 61 02 00 54  	b.ne	0x2b39c <_ZN19ChiFeature2RealTime12OnPortCreateEP21ChiFeature2Identifier+0x19a4>
   2b354: 02 01 00 f0  	adrp	x2, 0x4e000 <_ZN19ChiFeature2RealTime12OnPortCreateEP21ChiFeature2Identifier+0x19e8>
   2b368: a1 01 00 54  	b.ne	0x2b39c <_ZN19ChiFeature2RealTime12OnPortCreateEP21ChiFeature2Identifier+0x19a4>
   2b378: 21 01 00 54  	b.ne	0x2b39c <_ZN19ChiFeature2RealTime12OnPortCreateEP21ChiFeature2Identifier+0x19a4>
   2b388: a1 00 00 54  	b.ne	0x2b39c <_ZN19ChiFeature2RealTime12OnPortCreateEP21ChiFeature2Identifier+0x19a4>
   2b398: a0 05 00 54  	b.eq	0x2b44c <_ZN19ChiFeature2RealTime12OnPortCreateEP21ChiFeature2Identifier+0x1a54>
   2b39c: 0c 01 00 f0  	adrp	x12, 0x4e000 <_ZN19ChiFeature2RealTime12OnPortCreateEP21ChiFeature2Identifier+0x1a30>
   2b3a8: 61 02 00 54  	b.ne	0x2b3f4 <_ZN19ChiFeature2RealTime12OnPortCreateEP21ChiFeature2Identifier+0x19fc>
   2b3ac: 03 01 00 f0  	adrp	x3, 0x4e000 <_ZN19ChiFeature2RealTime12OnPortCreateEP21ChiFeature2Identifier+0x1a40>
   2b3c0: a1 01 00 54  	b.ne	0x2b3f4 <_ZN19ChiFeature2RealTime12OnPortCreateEP21ChiFeature2Identifier+0x19fc>
   2b3d0: 21 01 00 54  	b.ne	0x2b3f4 <_ZN19ChiFeature2RealTime12OnPortCreateEP21ChiFeature2Identifier+0x19fc>
   2b3e0: a1 00 00 54  	b.ne	0x2b3f4 <_ZN19ChiFeature2RealTime12OnPortCreateEP21ChiFeature2Identifier+0x19fc>
   2b3f0: e0 02 00 54  	b.eq	0x2b44c <_ZN19ChiFeature2RealTime12OnPortCreateEP21ChiFeature2Identifier+0x1a54>
   2b3f4: 0d 01 00 f0  	adrp	x13, 0x4e000 <_ZN19ChiFeature2RealTime12OnPortCreateEP21ChiFeature2Identifier+0x1a88>
   2b400: 01 03 00 54  	b.ne	0x2b460 <_ZN19ChiFeature2RealTime12OnPortCreateEP21ChiFeature2Identifier+0x1a68>
   2b404: 04 01 00 f0  	adrp	x4, 0x4e000 <_ZN19ChiFeature2RealTime12OnPortCreateEP21ChiFeature2Identifier+0x1a98>
   2b418: 41 02 00 54  	b.ne	0x2b460 <_ZN19ChiFeature2RealTime12OnPortCreateEP21ChiFeature2Identifier+0x1a68>
   2b428: c1 01 00 54  	b.ne	0x2b460 <_ZN19ChiFeature2RealTime12OnPortCreateEP21ChiFeature2Identifier+0x1a68>
   2b438: 41 01 00 54  	b.ne	0x2b460 <_ZN19ChiFeature2RealTime12OnPortCreateEP21ChiFeature2Identifier+0x1a68>
   2b448: c1 00 00 54  	b.ne	0x2b460 <_ZN19ChiFeature2RealTime12OnPortCreateEP21ChiFeature2Identifier+0x1a68>
   2b45c: a3 00 00 14  	b	0x2b6e8 <_ZN19ChiFeature2RealTime12OnPortCreateEP21ChiFeature2Identifier+0x1cf0>
   2b46c: e1 2e 00 54  	b.ne	0x2ba48 <_ZN19ChiFeature2RealTime12OnPortCreateEP21ChiFeature2Identifier+0x2050>
   2b470: 18 01 00 f0  	adrp	x24, 0x4e000 <_ZN19ChiFeature2RealTime12OnPortCreateEP21ChiFeature2Identifier+0x1b04>
   2b47c: 61 02 00 54  	b.ne	0x2b4c8 <_ZN19ChiFeature2RealTime12OnPortCreateEP21ChiFeature2Identifier+0x1ad0>
   2b480: 15 01 00 f0  	adrp	x21, 0x4e000 <_ZN19ChiFeature2RealTime12OnPortCreateEP21ChiFeature2Identifier+0x1b14>
   2b494: a1 01 00 54  	b.ne	0x2b4c8 <_ZN19ChiFeature2RealTime12OnPortCreateEP21ChiFeature2Identifier+0x1ad0>
   2b4a4: 21 01 00 54  	b.ne	0x2b4c8 <_ZN19ChiFeature2RealTime12OnPortCreateEP21ChiFeature2Identifier+0x1ad0>
   2b4b4: a1 00 00 54  	b.ne	0x2b4c8 <_ZN19ChiFeature2RealTime12OnPortCreateEP21ChiFeature2Identifier+0x1ad0>
   2b4c4: a0 10 00 54  	b.eq	0x2b6d8 <_ZN19ChiFeature2RealTime12OnPortCreateEP21ChiFeature2Identifier+0x1ce0>
   2b4c8: 17 01 00 f0  	adrp	x23, 0x4e000 <_ZN19ChiFeature2RealTime12OnPortCreateEP21ChiFeature2Identifier+0x1b5c>
   2b4d4: 61 02 00 54  	b.ne	0x2b520 <_ZN19ChiFeature2RealTime12OnPortCreateEP21ChiFeature2Identifier+0x1b28>
   2b4d8: 18 01 00 f0  	adrp	x24, 0x4e000 <_ZN19ChiFeature2RealTime12OnPortCreateEP21ChiFeature2Identifier+0x1b6c>
   2b4ec: a1 01 00 54  	b.ne	0x2b520 <_ZN19ChiFeature2RealTime12OnPortCreateEP21ChiFeature2Identifier+0x1b28>
   2b4fc: 21 01 00 54  	b.ne	0x2b520 <_ZN19ChiFeature2RealTime12OnPortCreateEP21ChiFeature2Identifier+0x1b28>
   2b50c: a1 00 00 54  	b.ne	0x2b520 <_ZN19ChiFeature2RealTime12OnPortCreateEP21ChiFeature2Identifier+0x1b28>
   2b51c: e0 0d 00 54  	b.eq	0x2b6d8 <_ZN19ChiFeature2RealTime12OnPortCreateEP21ChiFeature2Identifier+0x1ce0>
   2b520: 0b 01 00 f0  	adrp	x11, 0x4e000 <_ZN19ChiFeature2RealTime12OnPortCreateEP21ChiFeature2Identifier+0x1bb4>
   2b52c: 61 02 00 54  	b.ne	0x2b578 <_ZN19ChiFeature2RealTime12OnPortCreateEP21ChiFeature2Identifier+0x1b80>
   2b530: 05 01 00 f0  	adrp	x5, 0x4e000 <_ZN19ChiFeature2RealTime12OnPortCreateEP21ChiFeature2Identifier+0x1bc4>
   2b544: a1 01 00 54  	b.ne	0x2b578 <_ZN19ChiFeature2RealTime12OnPortCreateEP21ChiFeature2Identifier+0x1b80>
   2b554: 21 01 00 54  	b.ne	0x2b578 <_ZN19ChiFeature2RealTime12OnPortCreateEP21ChiFeature2Identifier+0x1b80>
   2b564: a1 00 00 54  	b.ne	0x2b578 <_ZN19ChiFeature2RealTime12OnPortCreateEP21ChiFeature2Identifier+0x1b80>
   2b574: 20 0b 00 54  	b.eq	0x2b6d8 <_ZN19ChiFeature2RealTime12OnPortCreateEP21ChiFeature2Identifier+0x1ce0>
   2b578: 1b 01 00 f0  	adrp	x27, 0x4e000 <_ZN19ChiFeature2RealTime12OnPortCreateEP21ChiFeature2Identifier+0x1c0c>
   2b584: 61 02 00 54  	b.ne	0x2b5d0 <_ZN19ChiFeature2RealTime12OnPortCreateEP21ChiFeature2Identifier+0x1bd8>
   2b588: 06 01 00 f0  	adrp	x6, 0x4e000 <_ZN19ChiFeature2RealTime12OnPortCreateEP21ChiFeature2Identifier+0x1c1c>
   2b59c: a1 01 00 54  	b.ne	0x2b5d0 <_ZN19ChiFeature2RealTime12OnPortCreateEP21ChiFeature2Identifier+0x1bd8>
   2b5ac: 21 01 00 54  	b.ne	0x2b5d0 <_ZN19ChiFeature2RealTime12OnPortCreateEP21ChiFeature2Identifier+0x1bd8>
   2b5bc: a1 00 00 54  	b.ne	0x2b5d0 <_ZN19ChiFeature2RealTime12OnPortCreateEP21ChiFeature2Identifier+0x1bd8>
   2b5cc: 60 08 00 54  	b.eq	0x2b6d8 <_ZN19ChiFeature2RealTime12OnPortCreateEP21ChiFeature2Identifier+0x1ce0>
   2b5d0: 0f 01 00 f0  	adrp	x15, 0x4e000 <_ZN19ChiFeature2RealTime12OnPortCreateEP21ChiFeature2Identifier+0x1c64>
   2b5dc: 61 02 00 54  	b.ne	0x2b628 <_ZN19ChiFeature2RealTime12OnPortCreateEP21ChiFeature2Identifier+0x1c30>
   2b5e0: 07 01 00 f0  	adrp	x7, 0x4e000 <_ZN19ChiFeature2RealTime12OnPortCreateEP21ChiFeature2Identifier+0x1c74>
   2b5f4: a1 01 00 54  	b.ne	0x2b628 <_ZN19ChiFeature2RealTime12OnPortCreateEP21ChiFeature2Identifier+0x1c30>
   2b604: 21 01 00 54  	b.ne	0x2b628 <_ZN19ChiFeature2RealTime12OnPortCreateEP21ChiFeature2Identifier+0x1c30>
   2b614: a1 00 00 54  	b.ne	0x2b628 <_ZN19ChiFeature2RealTime12OnPortCreateEP21ChiFeature2Identifier+0x1c30>
   2b624: a0 05 00 54  	b.eq	0x2b6d8 <_ZN19ChiFeature2RealTime12OnPortCreateEP21ChiFeature2Identifier+0x1ce0>
   2b628: 10 01 00 f0  	adrp	x16, 0x4e000 <_ZN19ChiFeature2RealTime12OnPortCreateEP21ChiFeature2Identifier+0x1cbc>
   2b634: 61 02 00 54  	b.ne	0x2b680 <_ZN19ChiFeature2RealTime12OnPortCreateEP21ChiFeature2Identifier+0x1c88>
   2b638: 00 01 00 f0  	adrp	x0, 0x4e000 <_ZN19ChiFeature2RealTime12OnPortCreateEP21ChiFeature2Identifier+0x1ccc>
   2b64c: a1 01 00 54  	b.ne	0x2b680 <_ZN19ChiFeature2RealTime12OnPortCreateEP21ChiFeature2Identifier+0x1c88>
   2b65c: 21 01 00 54  	b.ne	0x2b680 <_ZN19ChiFeature2RealTime12OnPortCreateEP21ChiFeature2Identifier+0x1c88>
   2b66c: a1 00 00 54  	b.ne	0x2b680 <_ZN19ChiFeature2RealTime12OnPortCreateEP21ChiFeature2Identifier+0x1c88>
   2b67c: e0 02 00 54  	b.eq	0x2b6d8 <_ZN19ChiFeature2RealTime12OnPortCreateEP21ChiFeature2Identifier+0x1ce0>
   2b680: 0e 01 00 f0  	adrp	x14, 0x4e000 <_ZN19ChiFeature2RealTime12OnPortCreateEP21ChiFeature2Identifier+0x1d14>
   2b68c: e1 02 00 54  	b.ne	0x2b6e8 <_ZN19ChiFeature2RealTime12OnPortCreateEP21ChiFeature2Identifier+0x1cf0>
   2b690: 09 01 00 f0  	adrp	x9, 0x4e000 <_ZN19ChiFeature2RealTime12OnPortCreateEP21ChiFeature2Identifier+0x1d24>
   2b6a4: 21 02 00 54  	b.ne	0x2b6e8 <_ZN19ChiFeature2RealTime12OnPortCreateEP21ChiFeature2Identifier+0x1cf0>
   2b6b4: a1 01 00 54  	b.ne	0x2b6e8 <_ZN19ChiFeature2RealTime12OnPortCreateEP21ChiFeature2Identifier+0x1cf0>
   2b6c4: 21 01 00 54  	b.ne	0x2b6e8 <_ZN19ChiFeature2RealTime12OnPortCreateEP21ChiFeature2Identifier+0x1cf0>
   2b6d4: a1 00 00 54  	b.ne	0x2b6e8 <_ZN19ChiFeature2RealTime12OnPortCreateEP21ChiFeature2Identifier+0x1cf0>
   2b6f4: 41 24 00 54  	b.ne	0x2bb7c <_ZN19ChiFeature2RealTime12OnPortCreateEP21ChiFeature2Identifier+0x2184>
   2b738: 60 c9 ff 54  	b.eq	0x2b064 <_ZN19ChiFeature2RealTime12OnPortCreateEP21ChiFeature2Identifier+0x166c>
   2b754: c9 c8 ff b5  	cbnz	x9, 0x2b06c <_ZN19ChiFeature2RealTime12OnPortCreateEP21ChiFeature2Identifier+0x1674>
   2b758: e4 ff ff 17  	b	0x2b6e8 <_ZN19ChiFeature2RealTime12OnPortCreateEP21ChiFeature2Identifier+0x1cf0>
   2b778: 6c c8 37 36  	tbz	w12, #6, 0x2b084 <_ZN19ChiFeature2RealTime12OnPortCreateEP21ChiFeature2Identifier+0x168c>
   2b77c: 47 fe ff 17  	b	0x2b098 <_ZN19ChiFeature2RealTime12OnPortCreateEP21ChiFeature2Identifier+0x16a0>
   2b79c: b0 c8 07 36  	tbz	w16, #0, 0x2b0b0 <_ZN19ChiFeature2RealTime12OnPortCreateEP21ChiFeature2Identifier+0x16b8>
   2b7a0: d2 ff ff 17  	b	0x2b6e8 <_ZN19ChiFeature2RealTime12OnPortCreateEP21ChiFeature2Identifier+0x1cf0>
   2b7c0: cc c6 2f 37  	tbnz	w12, #5, 0x2b098 <_ZN19ChiFeature2RealTime12OnPortCreateEP21ChiFeature2Identifier+0x16a0>
   2b7c4: c9 ff ff 17  	b	0x2b6e8 <_ZN19ChiFeature2RealTime12OnPortCreateEP21ChiFeature2Identifier+0x1cf0>
   2b7e4: 20 c7 ff 54  	b.eq	0x2b0c8 <_ZN19ChiFeature2RealTime12OnPortCreateEP21ChiFeature2Identifier+0x16d0>
   2b800: 32 fe ff 17  	b	0x2b0c8 <_ZN19ChiFeature2RealTime12OnPortCreateEP21ChiFeature2Identifier+0x16d0>
   2b818: 2f fe ff 17  	b	0x2b0d4 <_ZN19ChiFeature2RealTime12OnPortCreateEP21ChiFeature2Identifier+0x16dc>
   2b838: a0 a7 ff 54  	b.eq	0x2ad2c <_ZN19ChiFeature2RealTime12OnPortCreateEP21ChiFeature2Identifier+0x1334>
   2b854: 36 fd ff 17  	b	0x2ad2c <_ZN19ChiFeature2RealTime12OnPortCreateEP21ChiFeature2Identifier+0x1334>
   2b86c: 33 fd ff 17  	b	0x2ad38 <_ZN19ChiFeature2RealTime12OnPortCreateEP21ChiFeature2Identifier+0x1340>
   2b88c: c0 ab ff 54  	b.eq	0x2ae04 <_ZN19ChiFeature2RealTime12OnPortCreateEP21ChiFeature2Identifier+0x140c>
   2b8a4: 58 fd ff 17  	b	0x2ae04 <_ZN19ChiFeature2RealTime12OnPortCreateEP21ChiFeature2Identifier+0x140c>
   2b8c4: a0 80 ff 54  	b.eq	0x2a8d8 <_ZN19ChiFeature2RealTime12OnPortCreateEP21ChiFeature2Identifier+0xee0>
   2b8e0: 0d 80 ff b5  	cbnz	x13, 0x2a8e0 <_ZN19ChiFeature2RealTime12OnPortCreateEP21ChiFeature2Identifier+0xee8>
   2b8e4: 7b fc ff 17  	b	0x2aad0 <_ZN19ChiFeature2RealTime12OnPortCreateEP21ChiFeature2Identifier+0x10d8>
   2b904: e0 91 ff 54  	b.eq	0x2ab40 <_ZN19ChiFeature2RealTime12OnPortCreateEP21ChiFeature2Identifier+0x1148>
   2b920: 88 fc ff 17  	b	0x2ab40 <_ZN19ChiFeature2RealTime12OnPortCreateEP21ChiFeature2Identifier+0x1148>
   2b938: 85 fc ff 17  	b	0x2ab4c <_ZN19ChiFeature2RealTime12OnPortCreateEP21ChiFeature2Identifier+0x1154>
   2b958: c0 b3 ff 54  	b.eq	0x2afd0 <_ZN19ChiFeature2RealTime12OnPortCreateEP21ChiFeature2Identifier+0x15d8>
   2b970: 98 fd ff 17  	b	0x2afd0 <_ZN19ChiFeature2RealTime12OnPortCreateEP21ChiFeature2Identifier+0x15d8>
   2b988: d6 b4 ff b5  	cbnz	x22, 0x2b020 <_ZN19ChiFeature2RealTime12OnPortCreateEP21ChiFeature2Identifier+0x1628>
   2b98c: b0 fd ff 17  	b	0x2b04c <_ZN19ChiFeature2RealTime12OnPortCreateEP21ChiFeature2Identifier+0x1654>
   2b9ac: 6d 7a 1f 37  	tbnz	w13, #3, 0x2a8f8 <_ZN19ChiFeature2RealTime12OnPortCreateEP21ChiFeature2Identifier+0xf00>
   2b9b0: 48 fc ff 17  	b	0x2aad0 <_ZN19ChiFeature2RealTime12OnPortCreateEP21ChiFeature2Identifier+0x10d8>
   2b9d0: ed 79 07 36  	tbz	w13, #0, 0x2a90c <_ZN19ChiFeature2RealTime12OnPortCreateEP21ChiFeature2Identifier+0xf14>
   2b9d4: 3f fc ff 17  	b	0x2aad0 <_ZN19ChiFeature2RealTime12OnPortCreateEP21ChiFeature2Identifier+0x10d8>
   2b9f0: e8 fd ff 17  	b	0x2b190 <_ZN19ChiFeature2RealTime12OnPortCreateEP21ChiFeature2Identifier+0x1798>
   2ba1c: 00 6d ff 54  	b.eq	0x2a7bc <_ZN19ChiFeature2RealTime12OnPortCreateEP21ChiFeature2Identifier+0xdc4>
   2ba40: 2b 6c ff b5  	cbnz	x11, 0x2a7c4 <_ZN19ChiFeature2RealTime12OnPortCreateEP21ChiFeature2Identifier+0xdcc>
   2ba44: 89 fb ff 17  	b	0x2a868 <_ZN19ChiFeature2RealTime12OnPortCreateEP21ChiFeature2Identifier+0xe70>
   2ba60: 84 fe ff 17  	b	0x2b470 <_ZN19ChiFeature2RealTime12OnPortCreateEP21ChiFeature2Identifier+0x1a78>
   2ba80: 20 75 ff 54  	b.eq	0x2a924 <_ZN19ChiFeature2RealTime12OnPortCreateEP21ChiFeature2Identifier+0xf2c>
   2ba9c: a2 fb ff 17  	b	0x2a924 <_ZN19ChiFeature2RealTime12OnPortCreateEP21ChiFeature2Identifier+0xf2c>
   2bab4: 9f fb ff 17  	b	0x2a930 <_ZN19ChiFeature2RealTime12OnPortCreateEP21ChiFeature2Identifier+0xf38>
   2bae0: f0 67 07 37  	tbnz	w16, #0, 0x2a7dc <_ZN19ChiFeature2RealTime12OnPortCreateEP21ChiFeature2Identifier+0xde4>
   2bae4: 61 fb ff 17  	b	0x2a868 <_ZN19ChiFeature2RealTime12OnPortCreateEP21ChiFeature2Identifier+0xe70>
   2bb0c: 05 f9 ff 17  	b	0x29f20 <_ZN19ChiFeature2RealTime12OnPortCreateEP21ChiFeature2Identifier+0x528>
   2bb34: e0 4a ff 54  	b.eq	0x2a490 <_ZN19ChiFeature2RealTime12OnPortCreateEP21ChiFeature2Identifier+0xa98>
   2bb54: 4f fa ff 17  	b	0x2a490 <_ZN19ChiFeature2RealTime12OnPortCreateEP21ChiFeature2Identifier+0xa98>
   2bb74: 7c 4b ff b5  	cbnz	x28, 0x2a4e0 <_ZN19ChiFeature2RealTime12OnPortCreateEP21ChiFeature2Identifier+0xae8>
   2bb78: a5 fa ff 17  	b	0x2a60c <_ZN19ChiFeature2RealTime12OnPortCreateEP21ChiFeature2Identifier+0xc14>
000000000002bb88 <_ZN19ChiFeature2RealTime18OnInitializeStreamEPK23ChiTargetPortDescriptorPK25ChiFeature2PortDescriptorPN15ChiFeature2Base20ChiFeatureStreamDataE>:
   2bbc0: 01 06 00 b4  	cbz	x1, 0x2bc80 <_ZN19ChiFeature2RealTime18OnInitializeStreamEPK23ChiTargetPortDescriptorPK25ChiFeature2PortDescriptorPN15ChiFeature2Base20ChiFeatureStreamDataE+0xf8>
   2bbc4: f7 05 00 b4  	cbz	x23, 0x2bc80 <_ZN19ChiFeature2RealTime18OnInitializeStreamEPK23ChiTargetPortDescriptorPK25ChiFeature2PortDescriptorPN15ChiFeature2Base20ChiFeatureStreamDataE+0xf8>
   2bbc8: da 05 00 b4  	cbz	x26, 0x2bc80 <_ZN19ChiFeature2RealTime18OnInitializeStreamEPK23ChiTargetPortDescriptorPK25ChiFeature2PortDescriptorPN15ChiFeature2Base20ChiFeatureStreamDataE+0xf8>
   2bbd0: 93 05 00 b4  	cbz	x19, 0x2bc80 <_ZN19ChiFeature2RealTime18OnInitializeStreamEPK23ChiTargetPortDescriptorPK25ChiFeature2PortDescriptorPN15ChiFeature2Base20ChiFeatureStreamDataE+0xf8>
   2bbdc: 20 ff ff 90  	adrp	x0, 0xf000 <_ZN19ChiFeature2RealTime12OnPortCreateEP21ChiFeature2Identifier+0x2174>
   2bbec: 20 07 00 34  	cbz	w0, 0x2bcd0 <_ZN19ChiFeature2RealTime18OnInitializeStreamEPK23ChiTargetPortDescriptorPK25ChiFeature2PortDescriptorPN15ChiFeature2Base20ChiFeatureStreamDataE+0x148>
   2bbf0: 40 ff ff 90  	adrp	x0, 0x13000 <_ZN19ChiFeature2RealTime18OnInitializeStreamEPK23ChiTargetPortDescriptorPK25ChiFeature2PortDescriptorPN15ChiFeature2Base20ChiFeatureStreamDataE+0x8>
   2bc0c: c0 0c 00 34  	cbz	w0, 0x2bda4 <_ZN19ChiFeature2RealTime18OnInitializeStreamEPK23ChiTargetPortDescriptorPK25ChiFeature2PortDescriptorPN15ChiFeature2Base20ChiFeatureStreamDataE+0x21c>
   2bc18: a1 3c 00 54  	b.ne	0x2c3ac <_ZN19ChiFeature2RealTime18OnInitializeStreamEPK23ChiTargetPortDescriptorPK25ChiFeature2PortDescriptorPN15ChiFeature2Base20ChiFeatureStreamDataE+0x824>
   2bc2c: 02 00 00 14  	b	0x2bc34 <_ZN19ChiFeature2RealTime18OnInitializeStreamEPK23ChiTargetPortDescriptorPK25ChiFeature2PortDescriptorPN15ChiFeature2Base20ChiFeatureStreamDataE+0xac>
   2bc38: 00 1b 00 54  	b.eq	0x2bf98 <_ZN19ChiFeature2RealTime18OnInitializeStreamEPK23ChiTargetPortDescriptorPK25ChiFeature2PortDescriptorPN15ChiFeature2Base20ChiFeatureStreamDataE+0x410>
   2bc4c: 21 ff ff 54  	b.ne	0x2bc30 <_ZN19ChiFeature2RealTime18OnInitializeStreamEPK23ChiTargetPortDescriptorPK25ChiFeature2PortDescriptorPN15ChiFeature2Base20ChiFeatureStreamDataE+0xa8>
   2bc54: cf 76 00 94  	bl	0x49790 <_ZN15UsecaseSelector15IsPreviewStreamEPK14camera3_stream@plt>
   2bc58: 00 2e 00 35  	cbnz	w0, 0x2c218 <_ZN19ChiFeature2RealTime18OnInitializeStreamEPK23ChiTargetPortDescriptorPK25ChiFeature2PortDescriptorPN15ChiFeature2Base20ChiFeatureStreamDataE+0x690>
   2bc68: 41 fe ff 54  	b.ne	0x2bc30 <_ZN19ChiFeature2RealTime18OnInitializeStreamEPK23ChiTargetPortDescriptorPK25ChiFeature2PortDescriptorPN15ChiFeature2Base20ChiFeatureStreamDataE+0xa8>
   2bc70: f8 76 00 94  	bl	0x49850 <_ZN15UsecaseSelector13IsVideoStreamEPK14camera3_stream@plt>
   2bc74: e0 fd ff 34  	cbz	w0, 0x2bc30 <_ZN19ChiFeature2RealTime18OnInitializeStreamEPK23ChiTargetPortDescriptorPK25ChiFeature2PortDescriptorPN15ChiFeature2Base20ChiFeatureStreamDataE+0xa8>
   2bc7c: c9 00 00 14  	b	0x2bfa0 <_ZN19ChiFeature2RealTime18OnInitializeStreamEPK23ChiTargetPortDescriptorPK25ChiFeature2PortDescriptorPN15ChiFeature2Base20ChiFeatureStreamDataE+0x418>
   2bc80: 16 01 00 b0  	adrp	x22, 0x4c000 <_ZN19ChiFeature2RealTime18OnInitializeStreamEPK23ChiTargetPortDescriptorPK25ChiFeature2PortDescriptorPN15ChiFeature2Base20ChiFeatureStreamDataE+0x17c>
   2bc8c: 29 25 00 36  	tbz	w9, #0, 0x2c130 <_ZN19ChiFeature2RealTime18OnInitializeStreamEPK23ChiTargetPortDescriptorPK25ChiFeature2PortDescriptorPN15ChiFeature2Base20ChiFeatureStreamDataE+0x5a8>
   2bc90: 13 01 00 b0  	adrp	x19, 0x4c000 <_ZN19ChiFeature2RealTime18OnInitializeStreamEPK23ChiTargetPortDescriptorPK25ChiFeature2PortDescriptorPN15ChiFeature2Base20ChiFeatureStreamDataE+0x18c>
   2bc94: 3c ff ff 90  	adrp	x28, 0xf000 <_ZN19ChiFeature2RealTime18OnInitializeStreamEPK23ChiTargetPortDescriptorPK25ChiFeature2PortDescriptorPN15ChiFeature2Base20ChiFeatureStreamDataE+0x9c>
   2bca8: 61 21 00 54  	b.ne	0x2c0d4 <_ZN19ChiFeature2RealTime18OnInitializeStreamEPK23ChiTargetPortDescriptorPK25ChiFeature2PortDescriptorPN15ChiFeature2Base20ChiFeatureStreamDataE+0x54c>
   2bcc4: fa 1e 00 b4  	cbz	x26, 0x2c0a0 <_ZN19ChiFeature2RealTime18OnInitializeStreamEPK23ChiTargetPortDescriptorPK25ChiFeature2PortDescriptorPN15ChiFeature2Base20ChiFeatureStreamDataE+0x518>
   2bccc: f6 00 00 14  	b	0x2c0a4 <_ZN19ChiFeature2RealTime18OnInitializeStreamEPK23ChiTargetPortDescriptorPK25ChiFeature2PortDescriptorPN15ChiFeature2Base20ChiFeatureStreamDataE+0x51c>
   2bcd0: 0c 01 00 b0  	adrp	x12, 0x4c000 <_ZN19ChiFeature2RealTime18OnInitializeStreamEPK23ChiTargetPortDescriptorPK25ChiFeature2PortDescriptorPN15ChiFeature2Base20ChiFeatureStreamDataE+0x1cc>
   2bcd4: 17 01 00 b0  	adrp	x23, 0x4c000 <_ZN19ChiFeature2RealTime18OnInitializeStreamEPK23ChiTargetPortDescriptorPK25ChiFeature2PortDescriptorPN15ChiFeature2Base20ChiFeatureStreamDataE+0x1d0>
   2bd04: 01 3b 00 54  	b.ne	0x2c464 <_ZN19ChiFeature2RealTime18OnInitializeStreamEPK23ChiTargetPortDescriptorPK25ChiFeature2PortDescriptorPN15ChiFeature2Base20ChiFeatureStreamDataE+0x8dc>
   2bd10: d4 76 00 94  	bl	0x49860 <_ZN15ChiFeature2Base11CloneStreamEP9ChiStream@plt>
   2bd18: 60 22 00 b4  	cbz	x0, 0x2c164 <_ZN19ChiFeature2RealTime18OnInitializeStreamEPK23ChiTargetPortDescriptorPK25ChiFeature2PortDescriptorPN15ChiFeature2Base20ChiFeatureStreamDataE+0x5dc>
   2bd28: a1 3a 00 54  	b.ne	0x2c47c <_ZN19ChiFeature2RealTime18OnInitializeStreamEPK23ChiTargetPortDescriptorPK25ChiFeature2PortDescriptorPN15ChiFeature2Base20ChiFeatureStreamDataE+0x8f4>
   2bd30: 61 3b 00 54  	b.ne	0x2c49c <_ZN19ChiFeature2RealTime18OnInitializeStreamEPK23ChiTargetPortDescriptorPK25ChiFeature2PortDescriptorPN15ChiFeature2Base20ChiFeatureStreamDataE+0x914>
   2bd38: 49 38 00 b4  	cbz	x9, 0x2c440 <_ZN19ChiFeature2RealTime18OnInitializeStreamEPK23ChiTargetPortDescriptorPK25ChiFeature2PortDescriptorPN15ChiFeature2Base20ChiFeatureStreamDataE+0x8b8>
   2bd48: 61 3c 00 54  	b.ne	0x2c4d4 <_ZN19ChiFeature2RealTime18OnInitializeStreamEPK23ChiTargetPortDescriptorPK25ChiFeature2PortDescriptorPN15ChiFeature2Base20ChiFeatureStreamDataE+0x94c>
   2bd50: 8e 37 18 36  	tbz	w14, #3, 0x2c440 <_ZN19ChiFeature2RealTime18OnInitializeStreamEPK23ChiTargetPortDescriptorPK25ChiFeature2PortDescriptorPN15ChiFeature2Base20ChiFeatureStreamDataE+0x8b8>
   2bd60: c1 3c 00 54  	b.ne	0x2c4f8 <_ZN19ChiFeature2RealTime18OnInitializeStreamEPK23ChiTargetPortDescriptorPK25ChiFeature2PortDescriptorPN15ChiFeature2Base20ChiFeatureStreamDataE+0x970>
   2bd64: ee 36 00 37  	tbnz	w14, #0, 0x2c440 <_ZN19ChiFeature2RealTime18OnInitializeStreamEPK23ChiTargetPortDescriptorPK25ChiFeature2PortDescriptorPN15ChiFeature2Base20ChiFeatureStreamDataE+0x8b8>
   2bd70: 40 01 00 54  	b.eq	0x2bd98 <_ZN19ChiFeature2RealTime18OnInitializeStreamEPK23ChiTargetPortDescriptorPK25ChiFeature2PortDescriptorPN15ChiFeature2Base20ChiFeatureStreamDataE+0x210>
   2bd80: 20 34 00 54  	b.eq	0x2c404 <_ZN19ChiFeature2RealTime18OnInitializeStreamEPK23ChiTargetPortDescriptorPK25ChiFeature2PortDescriptorPN15ChiFeature2Base20ChiFeatureStreamDataE+0x87c>
   2bd88: e0 33 00 54  	b.eq	0x2c404 <_ZN19ChiFeature2RealTime18OnInitializeStreamEPK23ChiTargetPortDescriptorPK25ChiFeature2PortDescriptorPN15ChiFeature2Base20ChiFeatureStreamDataE+0x87c>
   2bd94: 01 ff ff 54  	b.ne	0x2bd74 <_ZN19ChiFeature2RealTime18OnInitializeStreamEPK23ChiTargetPortDescriptorPK25ChiFeature2PortDescriptorPN15ChiFeature2Base20ChiFeatureStreamDataE+0x1ec>
   2bda0: 9a 01 00 14  	b	0x2c408 <_ZN19ChiFeature2RealTime18OnInitializeStreamEPK23ChiTargetPortDescriptorPK25ChiFeature2PortDescriptorPN15ChiFeature2Base20ChiFeatureStreamDataE+0x880>
   2bda4: 15 01 00 b0  	adrp	x21, 0x4c000 <_ZN19ChiFeature2RealTime18OnInitializeStreamEPK23ChiTargetPortDescriptorPK25ChiFeature2PortDescriptorPN15ChiFeature2Base20ChiFeatureStreamDataE+0x2a0>
   2bda8: 37 ff ff 90  	adrp	x23, 0xf000 <_ZN19ChiFeature2RealTime18OnInitializeStreamEPK23ChiTargetPortDescriptorPK25ChiFeature2PortDescriptorPN15ChiFeature2Base20ChiFeatureStreamDataE+0x1b0>
   2bdac: 3b ff ff d0  	adrp	x27, 0x11000 <_ZN19ChiFeature2RealTime18OnInitializeStreamEPK23ChiTargetPortDescriptorPK25ChiFeature2PortDescriptorPN15ChiFeature2Base20ChiFeatureStreamDataE+0x1bc>
   2bdc4: 15 00 00 14  	b	0x2be18 <_ZN19ChiFeature2RealTime18OnInitializeStreamEPK23ChiTargetPortDescriptorPK25ChiFeature2PortDescriptorPN15ChiFeature2Base20ChiFeatureStreamDataE+0x290>
   2bddc: 01 ff ff f0  	adrp	x1, 0xe000 <_ZN19ChiFeature2RealTime18OnInitializeStreamEPK23ChiTargetPortDescriptorPK25ChiFeature2PortDescriptorPN15ChiFeature2Base20ChiFeatureStreamDataE+0x1e0>
   2bde4: 20 ff ff d0  	adrp	x0, 0x11000 <_ZN19ChiFeature2RealTime18OnInitializeStreamEPK23ChiTargetPortDescriptorPK25ChiFeature2PortDescriptorPN15ChiFeature2Base20ChiFeatureStreamDataE+0x1f4>
   2bde8: 25 ff ff 90  	adrp	x5, 0xf000 <_ZN19ChiFeature2RealTime18OnInitializeStreamEPK23ChiTargetPortDescriptorPK25ChiFeature2PortDescriptorPN15ChiFeature2Base20ChiFeatureStreamDataE+0x1f0>
   2be04: 57 75 00 94  	bl	0x49360 <_ZN6ChiLog9LogSystemEPKcS1_S1_S1_iS1_z@plt>
   2be14: 00 39 00 54  	b.eq	0x2c534 <_ZN19ChiFeature2RealTime18OnInitializeStreamEPK23ChiTargetPortDescriptorPK25ChiFeature2PortDescriptorPN15ChiFeature2Base20ChiFeatureStreamDataE+0x9ac>
   2be24: 62 ef ff 54  	b.hs	0x2bc10 <_ZN19ChiFeature2RealTime18OnInitializeStreamEPK23ChiTargetPortDescriptorPK25ChiFeature2PortDescriptorPN15ChiFeature2Base20ChiFeatureStreamDataE+0x88>
   2be30: 31 07 28 36  	tbz	w17, #5, 0x2bf14 <_ZN19ChiFeature2RealTime18OnInitializeStreamEPK23ChiTargetPortDescriptorPK25ChiFeature2PortDescriptorPN15ChiFeature2Base20ChiFeatureStreamDataE+0x38c>
   2be34: 0d 01 00 b0  	adrp	x13, 0x4c000 <_ZN19ChiFeature2RealTime18OnInitializeStreamEPK23ChiTargetPortDescriptorPK25ChiFeature2PortDescriptorPN15ChiFeature2Base20ChiFeatureStreamDataE+0x330>
   2be44: 41 03 00 54  	b.ne	0x2beac <_ZN19ChiFeature2RealTime18OnInitializeStreamEPK23ChiTargetPortDescriptorPK25ChiFeature2PortDescriptorPN15ChiFeature2Base20ChiFeatureStreamDataE+0x324>
   2be68: 7a 76 00 94  	bl	0x49850 <_ZN15UsecaseSelector13IsVideoStreamEPK14camera3_stream@plt>
   2be70: 41 ff ff b0  	adrp	x1, 0x14000 <_ZN19ChiFeature2RealTime18OnInitializeStreamEPK23ChiTargetPortDescriptorPK25ChiFeature2PortDescriptorPN15ChiFeature2Base20ChiFeatureStreamDataE+0x28c>
   2be74: 02 ff ff d0  	adrp	x2, 0xd000 <_ZN19ChiFeature2RealTime18OnInitializeStreamEPK23ChiTargetPortDescriptorPK25ChiFeature2PortDescriptorPN15ChiFeature2Base20ChiFeatureStreamDataE+0x274>
   2becc: 61 76 00 94  	bl	0x49850 <_ZN15UsecaseSelector13IsVideoStreamEPK14camera3_stream@plt>
   2bed8: 40 ff ff 90  	adrp	x0, 0x13000 <_ZN19ChiFeature2RealTime18OnInitializeStreamEPK23ChiTargetPortDescriptorPK25ChiFeature2PortDescriptorPN15ChiFeature2Base20ChiFeatureStreamDataE+0x2f0>
   2bedc: 21 ff ff d0  	adrp	x1, 0x11000 <_ZN19ChiFeature2RealTime18OnInitializeStreamEPK23ChiTargetPortDescriptorPK25ChiFeature2PortDescriptorPN15ChiFeature2Base20ChiFeatureStreamDataE+0x2ec>
   2bee0: 25 ff ff b0  	adrp	x5, 0x10000 <_ZN19ChiFeature2RealTime18OnInitializeStreamEPK23ChiTargetPortDescriptorPK25ChiFeature2PortDescriptorPN15ChiFeature2Base20ChiFeatureStreamDataE+0x2ec>
   2bf10: 14 75 00 94  	bl	0x49360 <_ZN6ChiLog9LogSystemEPKcS1_S1_S1_iS1_z@plt>
   2bf20: 41 f7 ff 54  	b.ne	0x2be08 <_ZN19ChiFeature2RealTime18OnInitializeStreamEPK23ChiTargetPortDescriptorPK25ChiFeature2PortDescriptorPN15ChiFeature2Base20ChiFeatureStreamDataE+0x280>
   2bf28: 4a 76 00 94  	bl	0x49850 <_ZN15UsecaseSelector13IsVideoStreamEPK14camera3_stream@plt>
   2bf2c: e0 f6 ff 34  	cbz	w0, 0x2be08 <_ZN19ChiFeature2RealTime18OnInitializeStreamEPK23ChiTargetPortDescriptorPK25ChiFeature2PortDescriptorPN15ChiFeature2Base20ChiFeatureStreamDataE+0x280>
   2bf38: 43 17 00 34  	cbz	w3, 0x2c220 <_ZN19ChiFeature2RealTime18OnInitializeStreamEPK23ChiTargetPortDescriptorPK25ChiFeature2PortDescriptorPN15ChiFeature2Base20ChiFeatureStreamDataE+0x698>
   2bf40: 46 f6 0f 36  	tbz	w6, #1, 0x2be08 <_ZN19ChiFeature2RealTime18OnInitializeStreamEPK23ChiTargetPortDescriptorPK25ChiFeature2PortDescriptorPN15ChiFeature2Base20ChiFeatureStreamDataE+0x280>
   2bf44: 0c 01 00 b0  	adrp	x12, 0x4c000 <_ZN19ChiFeature2RealTime18OnInitializeStreamEPK23ChiTargetPortDescriptorPK25ChiFeature2PortDescriptorPN15ChiFeature2Base20ChiFeatureStreamDataE+0x440>
   2bf54: a1 f3 ff 54  	b.ne	0x2bdc8 <_ZN19ChiFeature2RealTime18OnInitializeStreamEPK23ChiTargetPortDescriptorPK25ChiFeature2PortDescriptorPN15ChiFeature2Base20ChiFeatureStreamDataE+0x240>
   2bf6c: 41 ff ff b0  	adrp	x1, 0x14000 <_ZN19ChiFeature2RealTime18OnInitializeStreamEPK23ChiTargetPortDescriptorPK25ChiFeature2PortDescriptorPN15ChiFeature2Base20ChiFeatureStreamDataE+0x388>
   2bf70: 22 ff ff 90  	adrp	x2, 0xf000 <_ZN19ChiFeature2RealTime18OnInitializeStreamEPK23ChiTargetPortDescriptorPK25ChiFeature2PortDescriptorPN15ChiFeature2Base20ChiFeatureStreamDataE+0x378>
   2bf94: 8d ff ff 17  	b	0x2bdc8 <_ZN19ChiFeature2RealTime18OnInitializeStreamEPK23ChiTargetPortDescriptorPK25ChiFeature2PortDescriptorPN15ChiFeature2Base20ChiFeatureStreamDataE+0x240>
   2bfa4: 20 ff ff f0  	adrp	x0, 0x12000 <_ZN19ChiFeature2RealTime18OnInitializeStreamEPK23ChiTargetPortDescriptorPK25ChiFeature2PortDescriptorPN15ChiFeature2Base20ChiFeatureStreamDataE+0x3b8>
   2bfb8: e0 14 00 34  	cbz	w0, 0x2c254 <_ZN19ChiFeature2RealTime18OnInitializeStreamEPK23ChiTargetPortDescriptorPK25ChiFeature2PortDescriptorPN15ChiFeature2Base20ChiFeatureStreamDataE+0x6cc>
   2bfbc: 20 ff ff f0  	adrp	x0, 0x12000 <_ZN19ChiFeature2RealTime18OnInitializeStreamEPK23ChiTargetPortDescriptorPK25ChiFeature2PortDescriptorPN15ChiFeature2Base20ChiFeatureStreamDataE+0x3d0>
   2bfcc: 40 14 00 34  	cbz	w0, 0x2c254 <_ZN19ChiFeature2RealTime18OnInitializeStreamEPK23ChiTargetPortDescriptorPK25ChiFeature2PortDescriptorPN15ChiFeature2Base20ChiFeatureStreamDataE+0x6cc>
   2bfd0: 40 ff ff 90  	adrp	x0, 0x13000 <_ZN19ChiFeature2RealTime18OnInitializeStreamEPK23ChiTargetPortDescriptorPK25ChiFeature2PortDescriptorPN15ChiFeature2Base20ChiFeatureStreamDataE+0x3e8>
   2bfe0: a0 13 00 34  	cbz	w0, 0x2c254 <_ZN19ChiFeature2RealTime18OnInitializeStreamEPK23ChiTargetPortDescriptorPK25ChiFeature2PortDescriptorPN15ChiFeature2Base20ChiFeatureStreamDataE+0x6cc>
   2bfe4: 20 ff ff 90  	adrp	x0, 0xf000 <_ZN19ChiFeature2RealTime18OnInitializeStreamEPK23ChiTargetPortDescriptorPK25ChiFeature2PortDescriptorPN15ChiFeature2Base20ChiFeatureStreamDataE+0x3ec>
   2bff4: 00 13 00 34  	cbz	w0, 0x2c254 <_ZN19ChiFeature2RealTime18OnInitializeStreamEPK23ChiTargetPortDescriptorPK25ChiFeature2PortDescriptorPN15ChiFeature2Base20ChiFeatureStreamDataE+0x6cc>
   2bff8: 20 ff ff 90  	adrp	x0, 0xf000 <_ZN19ChiFeature2RealTime18OnInitializeStreamEPK23ChiTargetPortDescriptorPK25ChiFeature2PortDescriptorPN15ChiFeature2Base20ChiFeatureStreamDataE+0x400>
   2c008: 40 12 00 34  	cbz	w0, 0x2c250 <_ZN19ChiFeature2RealTime18OnInitializeStreamEPK23ChiTargetPortDescriptorPK25ChiFeature2PortDescriptorPN15ChiFeature2Base20ChiFeatureStreamDataE+0x6c8>
   2c00c: 00 ff ff f0  	adrp	x0, 0xf000 <_ZN19ChiFeature2RealTime18OnInitializeStreamEPK23ChiTargetPortDescriptorPK25ChiFeature2PortDescriptorPN15ChiFeature2Base20ChiFeatureStreamDataE+0x410>
   2c01c: a0 11 00 34  	cbz	w0, 0x2c250 <_ZN19ChiFeature2RealTime18OnInitializeStreamEPK23ChiTargetPortDescriptorPK25ChiFeature2PortDescriptorPN15ChiFeature2Base20ChiFeatureStreamDataE+0x6c8>
   2c020: 20 ff ff b0  	adrp	x0, 0x11000 <_ZN19ChiFeature2RealTime18OnInitializeStreamEPK23ChiTargetPortDescriptorPK25ChiFeature2PortDescriptorPN15ChiFeature2Base20ChiFeatureStreamDataE+0x42c>
   2c030: 00 11 00 34  	cbz	w0, 0x2c250 <_ZN19ChiFeature2RealTime18OnInitializeStreamEPK23ChiTargetPortDescriptorPK25ChiFeature2PortDescriptorPN15ChiFeature2Base20ChiFeatureStreamDataE+0x6c8>
   2c034: 20 ff ff b0  	adrp	x0, 0x11000 <_ZN19ChiFeature2RealTime18OnInitializeStreamEPK23ChiTargetPortDescriptorPK25ChiFeature2PortDescriptorPN15ChiFeature2Base20ChiFeatureStreamDataE+0x440>
   2c044: 60 10 00 34  	cbz	w0, 0x2c250 <_ZN19ChiFeature2RealTime18OnInitializeStreamEPK23ChiTargetPortDescriptorPK25ChiFeature2PortDescriptorPN15ChiFeature2Base20ChiFeatureStreamDataE+0x6c8>
   2c048: 20 ff ff f0  	adrp	x0, 0x13000 <_ZN19ChiFeature2RealTime18OnInitializeStreamEPK23ChiTargetPortDescriptorPK25ChiFeature2PortDescriptorPN15ChiFeature2Base20ChiFeatureStreamDataE+0x45c>
   2c058: c0 0f 00 34  	cbz	w0, 0x2c250 <_ZN19ChiFeature2RealTime18OnInitializeStreamEPK23ChiTargetPortDescriptorPK25ChiFeature2PortDescriptorPN15ChiFeature2Base20ChiFeatureStreamDataE+0x6c8>
   2c05c: 20 ff ff f0  	adrp	x0, 0x13000 <_ZN19ChiFeature2RealTime18OnInitializeStreamEPK23ChiTargetPortDescriptorPK25ChiFeature2PortDescriptorPN15ChiFeature2Base20ChiFeatureStreamDataE+0x470>
   2c06c: 20 0f 00 34  	cbz	w0, 0x2c250 <_ZN19ChiFeature2RealTime18OnInitializeStreamEPK23ChiTargetPortDescriptorPK25ChiFeature2PortDescriptorPN15ChiFeature2Base20ChiFeatureStreamDataE+0x6c8>
   2c070: 00 ff ff d0  	adrp	x0, 0xe000 <_ZN19ChiFeature2RealTime18OnInitializeStreamEPK23ChiTargetPortDescriptorPK25ChiFeature2PortDescriptorPN15ChiFeature2Base20ChiFeatureStreamDataE+0x470>
   2c080: 80 0e 00 34  	cbz	w0, 0x2c250 <_ZN19ChiFeature2RealTime18OnInitializeStreamEPK23ChiTargetPortDescriptorPK25ChiFeature2PortDescriptorPN15ChiFeature2Base20ChiFeatureStreamDataE+0x6c8>
   2c084: 20 ff ff f0  	adrp	x0, 0x13000 <_ZN19ChiFeature2RealTime18OnInitializeStreamEPK23ChiTargetPortDescriptorPK25ChiFeature2PortDescriptorPN15ChiFeature2Base20ChiFeatureStreamDataE+0x498>
   2c098: a0 18 00 35  	cbnz	w0, 0x2c3ac <_ZN19ChiFeature2RealTime18OnInitializeStreamEPK23ChiTargetPortDescriptorPK25ChiFeature2PortDescriptorPN15ChiFeature2Base20ChiFeatureStreamDataE+0x824>
   2c09c: 6e 00 00 14  	b	0x2c254 <_ZN19ChiFeature2RealTime18OnInitializeStreamEPK23ChiTargetPortDescriptorPK25ChiFeature2PortDescriptorPN15ChiFeature2Base20ChiFeatureStreamDataE+0x6cc>
   2c0a4: 41 ff ff 90  	adrp	x1, 0x14000 <_ZN19ChiFeature2RealTime18OnInitializeStreamEPK23ChiTargetPortDescriptorPK25ChiFeature2PortDescriptorPN15ChiFeature2Base20ChiFeatureStreamDataE+0x4bc>
   2c0a8: 22 ff ff 90  	adrp	x2, 0x10000 <_ZN19ChiFeature2RealTime18OnInitializeStreamEPK23ChiTargetPortDescriptorPK25ChiFeature2PortDescriptorPN15ChiFeature2Base20ChiFeatureStreamDataE+0x4b0>
   2c0ac: 25 ff ff b0  	adrp	x5, 0x11000 <_ZN19ChiFeature2RealTime18OnInitializeStreamEPK23ChiTargetPortDescriptorPK25ChiFeature2PortDescriptorPN15ChiFeature2Base20ChiFeatureStreamDataE+0x4b8>
   2c0ec: 7a 00 00 b4  	cbz	x26, 0x2c0f8 <_ZN19ChiFeature2RealTime18OnInitializeStreamEPK23ChiTargetPortDescriptorPK25ChiFeature2PortDescriptorPN15ChiFeature2Base20ChiFeatureStreamDataE+0x570>
   2c0f4: 02 00 00 14  	b	0x2c0fc <_ZN19ChiFeature2RealTime18OnInitializeStreamEPK23ChiTargetPortDescriptorPK25ChiFeature2PortDescriptorPN15ChiFeature2Base20ChiFeatureStreamDataE+0x574>
   2c0fc: 00 ff ff b0  	adrp	x0, 0xd000 <_ZN19ChiFeature2RealTime18OnInitializeStreamEPK23ChiTargetPortDescriptorPK25ChiFeature2PortDescriptorPN15ChiFeature2Base20ChiFeatureStreamDataE+0x4f8>
   2c100: 21 ff ff f0  	adrp	x1, 0x13000 <_ZN19ChiFeature2RealTime18OnInitializeStreamEPK23ChiTargetPortDescriptorPK25ChiFeature2PortDescriptorPN15ChiFeature2Base20ChiFeatureStreamDataE+0x514>
   2c104: 23 ff ff b0  	adrp	x3, 0x11000 <_ZN19ChiFeature2RealTime18OnInitializeStreamEPK23ChiTargetPortDescriptorPK25ChiFeature2PortDescriptorPN15ChiFeature2Base20ChiFeatureStreamDataE+0x510>
   2c108: 25 ff ff b0  	adrp	x5, 0x11000 <_ZN19ChiFeature2RealTime18OnInitializeStreamEPK23ChiTargetPortDescriptorPK25ChiFeature2PortDescriptorPN15ChiFeature2Base20ChiFeatureStreamDataE+0x514>
   2c12c: 8d 74 00 94  	bl	0x49360 <_ZN6ChiLog9LogSystemEPKcS1_S1_S1_iS1_z@plt>
   2c140: 01 16 00 54  	b.ne	0x2c400 <_ZN19ChiFeature2RealTime18OnInitializeStreamEPK23ChiTargetPortDescriptorPK25ChiFeature2PortDescriptorPN15ChiFeature2Base20ChiFeatureStreamDataE+0x878>
   2c164: 05 01 00 90  	adrp	x5, 0x4c000 <_ZN19ChiFeature2RealTime18OnInitializeStreamEPK23ChiTargetPortDescriptorPK25ChiFeature2PortDescriptorPN15ChiFeature2Base20ChiFeatureStreamDataE+0x65c>
   2c170: 10 fe 07 36  	tbz	w16, #0, 0x2c130 <_ZN19ChiFeature2RealTime18OnInitializeStreamEPK23ChiTargetPortDescriptorPK25ChiFeature2PortDescriptorPN15ChiFeature2Base20ChiFeatureStreamDataE+0x5a8>
   2c174: 06 01 00 90  	adrp	x6, 0x4c000 <_ZN19ChiFeature2RealTime18OnInitializeStreamEPK23ChiTargetPortDescriptorPK25ChiFeature2PortDescriptorPN15ChiFeature2Base20ChiFeatureStreamDataE+0x66c>
   2c184: 41 02 00 54  	b.ne	0x2c1cc <_ZN19ChiFeature2RealTime18OnInitializeStreamEPK23ChiTargetPortDescriptorPK25ChiFeature2PortDescriptorPN15ChiFeature2Base20ChiFeatureStreamDataE+0x644>
   2c188: 15 ff ff f0  	adrp	x21, 0xf000 <_ZN19ChiFeature2RealTime18OnInitializeStreamEPK23ChiTargetPortDescriptorPK25ChiFeature2PortDescriptorPN15ChiFeature2Base20ChiFeatureStreamDataE+0x58c>
   2c1a4: 41 ff ff 90  	adrp	x1, 0x14000 <_ZN19ChiFeature2RealTime18OnInitializeStreamEPK23ChiTargetPortDescriptorPK25ChiFeature2PortDescriptorPN15ChiFeature2Base20ChiFeatureStreamDataE+0x5bc>
   2c1a8: 22 ff ff d0  	adrp	x2, 0x12000 <_ZN19ChiFeature2RealTime18OnInitializeStreamEPK23ChiTargetPortDescriptorPK25ChiFeature2PortDescriptorPN15ChiFeature2Base20ChiFeatureStreamDataE+0x5b8>
   2c1ac: 25 ff ff b0  	adrp	x5, 0x11000 <_ZN19ChiFeature2RealTime18OnInitializeStreamEPK23ChiTargetPortDescriptorPK25ChiFeature2PortDescriptorPN15ChiFeature2Base20ChiFeatureStreamDataE+0x5b8>
   2c1cc: 1a ff ff f0  	adrp	x26, 0xf000 <_ZN19ChiFeature2RealTime18OnInitializeStreamEPK23ChiTargetPortDescriptorPK25ChiFeature2PortDescriptorPN15ChiFeature2Base20ChiFeatureStreamDataE+0x5d0>
   2c1e8: 21 ff ff f0  	adrp	x1, 0x13000 <_ZN19ChiFeature2RealTime18OnInitializeStreamEPK23ChiTargetPortDescriptorPK25ChiFeature2PortDescriptorPN15ChiFeature2Base20ChiFeatureStreamDataE+0x5fc>
   2c1f0: 00 ff ff b0  	adrp	x0, 0xd000 <_ZN19ChiFeature2RealTime18OnInitializeStreamEPK23ChiTargetPortDescriptorPK25ChiFeature2PortDescriptorPN15ChiFeature2Base20ChiFeatureStreamDataE+0x5ec>
   2c1f4: 23 ff ff b0  	adrp	x3, 0x11000 <_ZN19ChiFeature2RealTime18OnInitializeStreamEPK23ChiTargetPortDescriptorPK25ChiFeature2PortDescriptorPN15ChiFeature2Base20ChiFeatureStreamDataE+0x600>
   2c1f8: 25 ff ff f0  	adrp	x5, 0x13000 <_ZN19ChiFeature2RealTime18OnInitializeStreamEPK23ChiTargetPortDescriptorPK25ChiFeature2PortDescriptorPN15ChiFeature2Base20ChiFeatureStreamDataE+0x60c>
   2c210: 54 74 00 94  	bl	0x49360 <_ZN6ChiLog9LogSystemEPKcS1_S1_S1_iS1_z@plt>
   2c214: c7 ff ff 17  	b	0x2c130 <_ZN19ChiFeature2RealTime18OnInitializeStreamEPK23ChiTargetPortDescriptorPK25ChiFeature2PortDescriptorPN15ChiFeature2Base20ChiFeatureStreamDataE+0x5a8>
   2c21c: 60 ff ff 17  	b	0x2bf9c <_ZN19ChiFeature2RealTime18OnInitializeStreamEPK23ChiTargetPortDescriptorPK25ChiFeature2PortDescriptorPN15ChiFeature2Base20ChiFeatureStreamDataE+0x414>
   2c24c: 71 fe ff 17  	b	0x2bc10 <_ZN19ChiFeature2RealTime18OnInitializeStreamEPK23ChiTargetPortDescriptorPK25ChiFeature2PortDescriptorPN15ChiFeature2Base20ChiFeatureStreamDataE+0x88>
   2c254: d4 0a 00 b4  	cbz	x20, 0x2c3ac <_ZN19ChiFeature2RealTime18OnInitializeStreamEPK23ChiTargetPortDescriptorPK25ChiFeature2PortDescriptorPN15ChiFeature2Base20ChiFeatureStreamDataE+0x824>
   2c25c: 20 ff ff f0  	adrp	x0, 0x13000 <_ZN19ChiFeature2RealTime18OnInitializeStreamEPK23ChiTargetPortDescriptorPK25ChiFeature2PortDescriptorPN15ChiFeature2Base20ChiFeatureStreamDataE+0x670>
   2c28c: 00 02 00 34  	cbz	w0, 0x2c2cc <_ZN19ChiFeature2RealTime18OnInitializeStreamEPK23ChiTargetPortDescriptorPK25ChiFeature2PortDescriptorPN15ChiFeature2Base20ChiFeatureStreamDataE+0x744>
   2c290: 00 ff ff f0  	adrp	x0, 0xf000 <_ZN19ChiFeature2RealTime18OnInitializeStreamEPK23ChiTargetPortDescriptorPK25ChiFeature2PortDescriptorPN15ChiFeature2Base20ChiFeatureStreamDataE+0x694>
   2c2a0: 60 01 00 34  	cbz	w0, 0x2c2cc <_ZN19ChiFeature2RealTime18OnInitializeStreamEPK23ChiTargetPortDescriptorPK25ChiFeature2PortDescriptorPN15ChiFeature2Base20ChiFeatureStreamDataE+0x744>
   2c2a4: 20 ff ff f0  	adrp	x0, 0x13000 <_ZN19ChiFeature2RealTime18OnInitializeStreamEPK23ChiTargetPortDescriptorPK25ChiFeature2PortDescriptorPN15ChiFeature2Base20ChiFeatureStreamDataE+0x6b8>
   2c2b4: c0 00 00 34  	cbz	w0, 0x2c2cc <_ZN19ChiFeature2RealTime18OnInitializeStreamEPK23ChiTargetPortDescriptorPK25ChiFeature2PortDescriptorPN15ChiFeature2Base20ChiFeatureStreamDataE+0x744>
   2c2b8: 20 ff ff f0  	adrp	x0, 0x13000 <_ZN19ChiFeature2RealTime18OnInitializeStreamEPK23ChiTargetPortDescriptorPK25ChiFeature2PortDescriptorPN15ChiFeature2Base20ChiFeatureStreamDataE+0x6cc>
   2c2c8: 00 03 00 35  	cbnz	w0, 0x2c328 <_ZN19ChiFeature2RealTime18OnInitializeStreamEPK23ChiTargetPortDescriptorPK25ChiFeature2PortDescriptorPN15ChiFeature2Base20ChiFeatureStreamDataE+0x7a0>
   2c2d8: a0 00 00 54  	b.eq	0x2c2ec <_ZN19ChiFeature2RealTime18OnInitializeStreamEPK23ChiTargetPortDescriptorPK25ChiFeature2PortDescriptorPN15ChiFeature2Base20ChiFeatureStreamDataE+0x764>
   2c2e0: c3 12 00 54  	b.lo	0x2c538 <_ZN19ChiFeature2RealTime18OnInitializeStreamEPK23ChiTargetPortDescriptorPK25ChiFeature2PortDescriptorPN15ChiFeature2Base20ChiFeatureStreamDataE+0x9b0>
   2c2e8: 62 12 00 54  	b.hs	0x2c534 <_ZN19ChiFeature2RealTime18OnInitializeStreamEPK23ChiTargetPortDescriptorPK25ChiFeature2PortDescriptorPN15ChiFeature2Base20ChiFeatureStreamDataE+0x9ac>
   2c304: a0 00 00 54  	b.eq	0x2c318 <_ZN19ChiFeature2RealTime18OnInitializeStreamEPK23ChiTargetPortDescriptorPK25ChiFeature2PortDescriptorPN15ChiFeature2Base20ChiFeatureStreamDataE+0x790>
   2c30c: 63 11 00 54  	b.lo	0x2c538 <_ZN19ChiFeature2RealTime18OnInitializeStreamEPK23ChiTargetPortDescriptorPK25ChiFeature2PortDescriptorPN15ChiFeature2Base20ChiFeatureStreamDataE+0x9b0>
   2c314: 02 11 00 54  	b.hs	0x2c534 <_ZN19ChiFeature2RealTime18OnInitializeStreamEPK23ChiTargetPortDescriptorPK25ChiFeature2PortDescriptorPN15ChiFeature2Base20ChiFeatureStreamDataE+0x9ac>
   2c328: 00 ff ff d0  	adrp	x0, 0xe000 <_ZN19ChiFeature2RealTime18OnInitializeStreamEPK23ChiTargetPortDescriptorPK25ChiFeature2PortDescriptorPN15ChiFeature2Base20ChiFeatureStreamDataE+0x728>
   2c338: c0 00 00 34  	cbz	w0, 0x2c350 <_ZN19ChiFeature2RealTime18OnInitializeStreamEPK23ChiTargetPortDescriptorPK25ChiFeature2PortDescriptorPN15ChiFeature2Base20ChiFeatureStreamDataE+0x7c8>
   2c33c: 20 ff ff f0  	adrp	x0, 0x13000 <_ZN19ChiFeature2RealTime18OnInitializeStreamEPK23ChiTargetPortDescriptorPK25ChiFeature2PortDescriptorPN15ChiFeature2Base20ChiFeatureStreamDataE+0x750>
   2c34c: 00 03 00 35  	cbnz	w0, 0x2c3ac <_ZN19ChiFeature2RealTime18OnInitializeStreamEPK23ChiTargetPortDescriptorPK25ChiFeature2PortDescriptorPN15ChiFeature2Base20ChiFeatureStreamDataE+0x824>
   2c35c: a0 00 00 54  	b.eq	0x2c370 <_ZN19ChiFeature2RealTime18OnInitializeStreamEPK23ChiTargetPortDescriptorPK25ChiFeature2PortDescriptorPN15ChiFeature2Base20ChiFeatureStreamDataE+0x7e8>
   2c364: a3 0e 00 54  	b.lo	0x2c538 <_ZN19ChiFeature2RealTime18OnInitializeStreamEPK23ChiTargetPortDescriptorPK25ChiFeature2PortDescriptorPN15ChiFeature2Base20ChiFeatureStreamDataE+0x9b0>
   2c36c: 42 0e 00 54  	b.hs	0x2c534 <_ZN19ChiFeature2RealTime18OnInitializeStreamEPK23ChiTargetPortDescriptorPK25ChiFeature2PortDescriptorPN15ChiFeature2Base20ChiFeatureStreamDataE+0x9ac>
   2c388: a0 00 00 54  	b.eq	0x2c39c <_ZN19ChiFeature2RealTime18OnInitializeStreamEPK23ChiTargetPortDescriptorPK25ChiFeature2PortDescriptorPN15ChiFeature2Base20ChiFeatureStreamDataE+0x814>
   2c390: 43 0d 00 54  	b.lo	0x2c538 <_ZN19ChiFeature2RealTime18OnInitializeStreamEPK23ChiTargetPortDescriptorPK25ChiFeature2PortDescriptorPN15ChiFeature2Base20ChiFeatureStreamDataE+0x9b0>
   2c398: e2 0c 00 54  	b.hs	0x2c534 <_ZN19ChiFeature2RealTime18OnInitializeStreamEPK23ChiTargetPortDescriptorPK25ChiFeature2PortDescriptorPN15ChiFeature2Base20ChiFeatureStreamDataE+0x9ac>
   2c3b0: 8e 00 00 b4  	cbz	x14, 0x2c3c0 <_ZN19ChiFeature2RealTime18OnInitializeStreamEPK23ChiTargetPortDescriptorPK25ChiFeature2PortDescriptorPN15ChiFeature2Base20ChiFeatureStreamDataE+0x838>
   2c3bc: 5e ff ff 17  	b	0x2c134 <_ZN19ChiFeature2RealTime18OnInitializeStreamEPK23ChiTargetPortDescriptorPK25ChiFeature2PortDescriptorPN15ChiFeature2Base20ChiFeatureStreamDataE+0x5ac>
   2c3c4: 17 01 00 90  	adrp	x23, 0x4c000 <_ZN19ChiFeature2RealTime18OnInitializeStreamEPK23ChiTargetPortDescriptorPK25ChiFeature2PortDescriptorPN15ChiFeature2Base20ChiFeatureStreamDataE+0x8bc>
   2c3d4: 41 07 00 54  	b.ne	0x2c4bc <_ZN19ChiFeature2RealTime18OnInitializeStreamEPK23ChiTargetPortDescriptorPK25ChiFeature2PortDescriptorPN15ChiFeature2Base20ChiFeatureStreamDataE+0x934>
   2c3e8: 22 75 00 94  	bl	0x49870 <_ZN15ChiFeature2Base18OnInitializeStreamEPK23ChiTargetPortDescriptorPK25ChiFeature2PortDescriptorPNS_20ChiFeatureStreamDataE@plt>
   2c3fc: 40 ea ff 54  	b.eq	0x2c144 <_ZN19ChiFeature2RealTime18OnInitializeStreamEPK23ChiTargetPortDescriptorPK25ChiFeature2PortDescriptorPN15ChiFeature2Base20ChiFeatureStreamDataE+0x5bc>
   2c414: 41 08 00 54  	b.ne	0x2c51c <_ZN19ChiFeature2RealTime18OnInitializeStreamEPK23ChiTargetPortDescriptorPK25ChiFeature2PortDescriptorPN15ChiFeature2Base20ChiFeatureStreamDataE+0x994>
   2c42c: 15 75 00 94  	bl	0x49880 <_ZN19ChiFeature2RealTime19GetRegOutDimensionsEjjPjS0_@plt>
   2c460: 35 ff ff 17  	b	0x2c134 <_ZN19ChiFeature2RealTime18OnInitializeStreamEPK23ChiTargetPortDescriptorPK25ChiFeature2PortDescriptorPN15ChiFeature2Base20ChiFeatureStreamDataE+0x5ac>
   2c478: 24 fe ff 17  	b	0x2bd08 <_ZN19ChiFeature2RealTime18OnInitializeStreamEPK23ChiTargetPortDescriptorPK25ChiFeature2PortDescriptorPN15ChiFeature2Base20ChiFeatureStreamDataE+0x180>
   2c498: e0 c4 ff 54  	b.eq	0x2bd34 <_ZN19ChiFeature2RealTime18OnInitializeStreamEPK23ChiTargetPortDescriptorPK25ChiFeature2PortDescriptorPN15ChiFeature2Base20ChiFeatureStreamDataE+0x1ac>
   2c4b4: 49 c4 ff b5  	cbnz	x9, 0x2bd3c <_ZN19ChiFeature2RealTime18OnInitializeStreamEPK23ChiTargetPortDescriptorPK25ChiFeature2PortDescriptorPN15ChiFeature2Base20ChiFeatureStreamDataE+0x1b4>
   2c4b8: e2 ff ff 17  	b	0x2c440 <_ZN19ChiFeature2RealTime18OnInitializeStreamEPK23ChiTargetPortDescriptorPK25ChiFeature2PortDescriptorPN15ChiFeature2Base20ChiFeatureStreamDataE+0x8b8>
   2c4d0: c2 ff ff 17  	b	0x2c3d8 <_ZN19ChiFeature2RealTime18OnInitializeStreamEPK23ChiTargetPortDescriptorPK25ChiFeature2PortDescriptorPN15ChiFeature2Base20ChiFeatureStreamDataE+0x850>
   2c4f0: 2e c3 1f 37  	tbnz	w14, #3, 0x2bd54 <_ZN19ChiFeature2RealTime18OnInitializeStreamEPK23ChiTargetPortDescriptorPK25ChiFeature2PortDescriptorPN15ChiFeature2Base20ChiFeatureStreamDataE+0x1cc>
   2c4f4: d3 ff ff 17  	b	0x2c440 <_ZN19ChiFeature2RealTime18OnInitializeStreamEPK23ChiTargetPortDescriptorPK25ChiFeature2PortDescriptorPN15ChiFeature2Base20ChiFeatureStreamDataE+0x8b8>
   2c514: ae c2 07 36  	tbz	w14, #0, 0x2bd68 <_ZN19ChiFeature2RealTime18OnInitializeStreamEPK23ChiTargetPortDescriptorPK25ChiFeature2PortDescriptorPN15ChiFeature2Base20ChiFeatureStreamDataE+0x1e0>
   2c518: ca ff ff 17  	b	0x2c440 <_ZN19ChiFeature2RealTime18OnInitializeStreamEPK23ChiTargetPortDescriptorPK25ChiFeature2PortDescriptorPN15ChiFeature2Base20ChiFeatureStreamDataE+0x8b8>
   2c530: ba ff ff 17  	b	0x2c418 <_ZN19ChiFeature2RealTime18OnInitializeStreamEPK23ChiTargetPortDescriptorPK25ChiFeature2PortDescriptorPN15ChiFeature2Base20ChiFeatureStreamDataE+0x890>
000000000002c540 <_ZNK19ChiFeature2RealTime24OnSubmitRequestToSessionEP18ChiPipelineRequest>:
   2c55c: 16 01 00 90  	adrp	x22, 0x4c000 <_ZNK19ChiFeature2RealTime24OnSubmitRequestToSessionEP18ChiPipelineRequest+0x9c>
   2c570: e1 0a 00 54  	b.ne	0x2c6cc <_ZNK19ChiFeature2RealTime24OnSubmitRequestToSessionEP18ChiPipelineRequest+0x18c>
   2c578: a1 0b 00 54  	b.ne	0x2c6ec <_ZNK19ChiFeature2RealTime24OnSubmitRequestToSessionEP18ChiPipelineRequest+0x1ac>
   2c584: e8 0c 00 37  	tbnz	w8, #0, 0x2c720 <_ZNK19ChiFeature2RealTime24OnSubmitRequestToSessionEP18ChiPipelineRequest+0x1e0>
   2c594: 81 0b 00 54  	b.ne	0x2c704 <_ZNK19ChiFeature2RealTime24OnSubmitRequestToSessionEP18ChiPipelineRequest+0x1c4>
   2c59c: 29 0c 10 37  	tbnz	w9, #2, 0x2c720 <_ZNK19ChiFeature2RealTime24OnSubmitRequestToSessionEP18ChiPipelineRequest+0x1e0>
   2c5ac: c1 0d 00 54  	b.ne	0x2c764 <_ZNK19ChiFeature2RealTime24OnSubmitRequestToSessionEP18ChiPipelineRequest+0x224>
   2c5cc: 95 01 00 b4  	cbz	x21, 0x2c5fc <_ZNK19ChiFeature2RealTime24OnSubmitRequestToSessionEP18ChiPipelineRequest+0xbc>
   2c5d0: 76 01 00 b4  	cbz	x22, 0x2c5fc <_ZNK19ChiFeature2RealTime24OnSubmitRequestToSessionEP18ChiPipelineRequest+0xbc>
   2c5f8: aa 74 00 14  	b	0x498a0 <_ZN16CHIThreadManager7PostJobEmPvm@plt>
   2c5fc: 0d 01 00 90  	adrp	x13, 0x4c000 <_ZNK19ChiFeature2RealTime24OnSubmitRequestToSessionEP18ChiPipelineRequest+0x13c>
   2c608: 6a 05 00 36  	tbz	w10, #0, 0x2c6b4 <_ZNK19ChiFeature2RealTime24OnSubmitRequestToSessionEP18ChiPipelineRequest+0x174>
   2c60c: 0e 01 00 90  	adrp	x14, 0x4c000 <_ZNK19ChiFeature2RealTime24OnSubmitRequestToSessionEP18ChiPipelineRequest+0x14c>
   2c610: 13 ff ff f0  	adrp	x19, 0xf000 <_ZNK19ChiFeature2RealTime24OnSubmitRequestToSessionEP18ChiPipelineRequest+0x5c>
   2c624: 41 02 00 54  	b.ne	0x2c66c <_ZNK19ChiFeature2RealTime24OnSubmitRequestToSessionEP18ChiPipelineRequest+0x12c>
   2c63c: 41 ff ff 90  	adrp	x1, 0x14000 <_ZNK19ChiFeature2RealTime24OnSubmitRequestToSessionEP18ChiPipelineRequest+0x9c>
   2c640: 22 ff ff f0  	adrp	x2, 0x13000 <_ZNK19ChiFeature2RealTime24OnSubmitRequestToSessionEP18ChiPipelineRequest+0x9c>
   2c644: 25 ff ff 90  	adrp	x5, 0x10000 <_ZNK19ChiFeature2RealTime24OnSubmitRequestToSessionEP18ChiPipelineRequest+0x94>
   2c680: 21 ff ff f0  	adrp	x1, 0x13000 <_ZNK19ChiFeature2RealTime24OnSubmitRequestToSessionEP18ChiPipelineRequest+0xdc>
   2c688: 00 ff ff b0  	adrp	x0, 0xd000 <_ZNK19ChiFeature2RealTime24OnSubmitRequestToSessionEP18ChiPipelineRequest+0xcc>
   2c68c: 23 ff ff 90  	adrp	x3, 0x10000 <_ZNK19ChiFeature2RealTime24OnSubmitRequestToSessionEP18ChiPipelineRequest+0xdc>
   2c690: 25 ff ff b0  	adrp	x5, 0x11000 <_ZNK19ChiFeature2RealTime24OnSubmitRequestToSessionEP18ChiPipelineRequest+0xe4>
   2c6b0: 2c 73 00 94  	bl	0x49360 <_ZN6ChiLog9LogSystemEPKcS1_S1_S1_iS1_z@plt>
   2c6e8: a0 f4 ff 54  	b.eq	0x2c57c <_ZNK19ChiFeature2RealTime24OnSubmitRequestToSessionEP18ChiPipelineRequest+0x3c>
   2c700: 9f ff ff 17  	b	0x2c57c <_ZNK19ChiFeature2RealTime24OnSubmitRequestToSessionEP18ChiPipelineRequest+0x3c>
   2c71c: 29 f4 17 36  	tbz	w9, #2, 0x2c5a0 <_ZNK19ChiFeature2RealTime24OnSubmitRequestToSessionEP18ChiPipelineRequest+0x60>
   2c72c: 01 01 00 54  	b.ne	0x2c74c <_ZNK19ChiFeature2RealTime24OnSubmitRequestToSessionEP18ChiPipelineRequest+0x20c>
   2c748: 12 73 00 14  	b	0x49390 <_ZNK15ChiFeature2Base24OnSubmitRequestToSessionEP18ChiPipelineRequest@plt>
   2c760: f4 ff ff 17  	b	0x2c730 <_ZNK19ChiFeature2RealTime24OnSubmitRequestToSessionEP18ChiPipelineRequest+0x1f0>
   2c778: 8e ff ff 17  	b	0x2c5b0 <_ZNK19ChiFeature2RealTime24OnSubmitRequestToSessionEP18ChiPipelineRequest+0x70>
000000000002c780 <_ZNK19ChiFeature2RealTime31OnPopulateConfigurationSettingsEP24ChiFeature2RequestObjectPK21ChiFeature2IdentifierP11ChiMetadata>:
   2c7d4: bf 72 00 94  	bl	0x492d0 <_ZNK24ChiFeature2RequestObject23GetUsecaseRequestObjectEv@plt>
   2c804: b3 72 00 94  	bl	0x492d0 <_ZNK24ChiFeature2RequestObject23GetUsecaseRequestObjectEv@plt>
   2c81c: 16 01 00 90  	adrp	x22, 0x4c000 <_ZNK19ChiFeature2RealTime31OnPopulateConfigurationSettingsEP24ChiFeature2RequestObjectPK21ChiFeature2IdentifierP11ChiMetadata+0x11c>
   2c82c: 41 02 00 54  	b.ne	0x2c874 <_ZNK19ChiFeature2RealTime31OnPopulateConfigurationSettingsEP24ChiFeature2RequestObjectPK21ChiFeature2IdentifierP11ChiMetadata+0xf4>
   2c834: 01 03 00 54  	b.ne	0x2c894 <_ZNK19ChiFeature2RealTime31OnPopulateConfigurationSettingsEP24ChiFeature2RequestObjectPK21ChiFeature2IdentifierP11ChiMetadata+0x114>
   2c838: b3 03 00 b4  	cbz	x19, 0x2c8ac <_ZNK19ChiFeature2RealTime31OnPopulateConfigurationSettingsEP24ChiFeature2RequestObjectPK21ChiFeature2IdentifierP11ChiMetadata+0x12c>
   2c84c: 02 03 00 54  	b.hs	0x2c8ac <_ZNK19ChiFeature2RealTime31OnPopulateConfigurationSettingsEP24ChiFeature2RequestObjectPK21ChiFeature2IdentifierP11ChiMetadata+0x12c>
   2c854: cd 02 00 b4  	cbz	x13, 0x2c8ac <_ZNK19ChiFeature2RealTime31OnPopulateConfigurationSettingsEP24ChiFeature2RequestObjectPK21ChiFeature2IdentifierP11ChiMetadata+0x12c>
   2c868: 22 02 00 54  	b.hs	0x2c8ac <_ZNK19ChiFeature2RealTime31OnPopulateConfigurationSettingsEP24ChiFeature2RequestObjectPK21ChiFeature2IdentifierP11ChiMetadata+0x12c>
   2c870: 10 00 00 14  	b	0x2c8b0 <_ZNK19ChiFeature2RealTime31OnPopulateConfigurationSettingsEP24ChiFeature2RequestObjectPK21ChiFeature2IdentifierP11ChiMetadata+0x130>
   2c890: 40 fd ff 54  	b.eq	0x2c838 <_ZNK19ChiFeature2RealTime31OnPopulateConfigurationSettingsEP24ChiFeature2RequestObjectPK21ChiFeature2IdentifierP11ChiMetadata+0xb8>
   2c8a8: b3 fc ff b5  	cbnz	x19, 0x2c83c <_ZNK19ChiFeature2RealTime31OnPopulateConfigurationSettingsEP24ChiFeature2RequestObjectPK21ChiFeature2IdentifierP11ChiMetadata+0xbc>
   2c8b4: af 73 00 94  	bl	0x49770 <_ZN8ChxUtils9ReadSocIDEv@plt>
   2c8c8: 81 3c 00 54  	b.ne	0x2d058 <_ZNK19ChiFeature2RealTime31OnPopulateConfigurationSettingsEP24ChiFeature2RequestObjectPK21ChiFeature2IdentifierP11ChiMetadata+0x8d8>
   2c8d4: 4b 73 00 94  	bl	0x49600 <_ZNK19ChiFeature2RealTime23IsManualCaptureRequiredEP24ChiFeature2RequestObject@plt>
   2c8dc: a1 04 00 54  	b.ne	0x2c970 <_ZNK19ChiFeature2RealTime31OnPopulateConfigurationSettingsEP24ChiFeature2RequestObjectPK21ChiFeature2IdentifierP11ChiMetadata+0x1f0>
   2c8ec: e1 3f 00 54  	b.ne	0x2d0e8 <_ZNK19ChiFeature2RealTime31OnPopulateConfigurationSettingsEP24ChiFeature2RequestObjectPK21ChiFeature2IdentifierP11ChiMetadata+0x968>
   2c8f4: a1 40 00 54  	b.ne	0x2d108 <_ZNK19ChiFeature2RealTime31OnPopulateConfigurationSettingsEP24ChiFeature2RequestObjectPK21ChiFeature2IdentifierP11ChiMetadata+0x988>
   2c8fc: ea 00 00 b4  	cbz	x10, 0x2c918 <_ZNK19ChiFeature2RealTime31OnPopulateConfigurationSettingsEP24ChiFeature2RequestObjectPK21ChiFeature2IdentifierP11ChiMetadata+0x198>
   2c90c: 21 46 00 54  	b.ne	0x2d1d0 <_ZNK19ChiFeature2RealTime31OnPopulateConfigurationSettingsEP24ChiFeature2RequestObjectPK21ChiFeature2IdentifierP11ChiMetadata+0xa50>
   2c914: e8 46 00 37  	tbnz	w8, #0, 0x2d1f0 <_ZNK19ChiFeature2RealTime31OnPopulateConfigurationSettingsEP24ChiFeature2RequestObjectPK21ChiFeature2IdentifierP11ChiMetadata+0xa70>
   2c924: 61 47 00 54  	b.ne	0x2d210 <_ZNK19ChiFeature2RealTime31OnPopulateConfigurationSettingsEP24ChiFeature2RequestObjectPK21ChiFeature2IdentifierP11ChiMetadata+0xa90>
   2c938: de 73 00 94  	bl	0x498b0 <_ZNK15ChiFeature2Base24GetExternalInputSettingsEP24ChiFeature2RequestObjectPK21ChiFeature2Identifierh@plt>
   2c940: 80 01 00 b4  	cbz	x0, 0x2c970 <_ZNK19ChiFeature2RealTime31OnPopulateConfigurationSettingsEP24ChiFeature2RequestObjectPK21ChiFeature2IdentifierP11ChiMetadata+0x1f0>
   2c97c: a1 37 00 54  	b.ne	0x2d070 <_ZNK19ChiFeature2RealTime31OnPopulateConfigurationSettingsEP24ChiFeature2RequestObjectPK21ChiFeature2IdentifierP11ChiMetadata+0x8f0>
   2c98c: ed 72 00 94  	bl	0x49540 <_ZNK15ChiFeature2Base19GetCurrentStageInfoEP24ChiFeature2RequestObjectP20ChiFeature2StageInfo@plt>
   2c99c: 60 01 00 54  	b.eq	0x2c9c8 <_ZNK19ChiFeature2RealTime31OnPopulateConfigurationSettingsEP24ChiFeature2RequestObjectPK21ChiFeature2IdentifierP11ChiMetadata+0x248>
   2c9a0: 59 01 00 35  	cbnz	w25, 0x2c9c8 <_ZNK19ChiFeature2RealTime31OnPopulateConfigurationSettingsEP24ChiFeature2RequestObjectPK21ChiFeature2IdentifierP11ChiMetadata+0x248>
   2c9b0: c1 3b 00 54  	b.ne	0x2d128 <_ZNK19ChiFeature2RealTime31OnPopulateConfigurationSettingsEP24ChiFeature2RequestObjectPK21ChiFeature2IdentifierP11ChiMetadata+0x9a8>
   2c9c4: bf 73 00 94  	bl	0x498c0 <_ZNK15ChiFeature2Base16MergeAppSettingsEP24ChiFeature2RequestObjectPP11ChiMetadatai@plt>
   2c9d4: a1 35 00 54  	b.ne	0x2d088 <_ZNK19ChiFeature2RealTime31OnPopulateConfigurationSettingsEP24ChiFeature2RequestObjectPK21ChiFeature2IdentifierP11ChiMetadata+0x908>
   2c9e0: a4 72 00 94  	bl	0x49470 <_ZNK15ChiFeature2Base21GetFeaturePrivContextEP24ChiFeature2RequestObject@plt>
   2c9e8: 79 01 00 35  	cbnz	w25, 0x2ca14 <_ZNK19ChiFeature2RealTime31OnPopulateConfigurationSettingsEP24ChiFeature2RequestObjectPK21ChiFeature2IdentifierP11ChiMetadata+0x294>
   2c9f8: e1 3d 00 54  	b.ne	0x2d1b4 <_ZNK19ChiFeature2RealTime31OnPopulateConfigurationSettingsEP24ChiFeature2RequestObjectPK21ChiFeature2IdentifierP11ChiMetadata+0xa34>
   2ca14: 77 01 00 b4  	cbz	x23, 0x2ca40 <_ZNK19ChiFeature2RealTime31OnPopulateConfigurationSettingsEP24ChiFeature2RequestObjectPK21ChiFeature2IdentifierP11ChiMetadata+0x2c0>
   2ca1c: 29 01 00 b4  	cbz	x9, 0x2ca40 <_ZNK19ChiFeature2RealTime31OnPopulateConfigurationSettingsEP24ChiFeature2RequestObjectPK21ChiFeature2IdentifierP11ChiMetadata+0x2c0>
   2ca2c: a1 38 00 54  	b.ne	0x2d140 <_ZNK19ChiFeature2RealTime31OnPopulateConfigurationSettingsEP24ChiFeature2RequestObjectPK21ChiFeature2IdentifierP11ChiMetadata+0x9c0>
   2ca3c: a5 73 00 94  	bl	0x498d0 <_ZNK15ChiFeature2Base16UpdateSensorModeEP11ChiMetadataP17ChiSensorModeInfo@plt>
   2ca4c: a1 32 00 54  	b.ne	0x2d0a0 <_ZNK19ChiFeature2RealTime31OnPopulateConfigurationSettingsEP24ChiFeature2RequestObjectPK21ChiFeature2IdentifierP11ChiMetadata+0x920>
   2ca5c: a1 73 00 94  	bl	0x498e0 <_ZNK19ChiFeature2RealTime41PopulateConfigurationsForSensorModeChangeEP24ChiFeature2RequestObjectP11ChiMetadata@plt>
   2ca68: 81 32 00 54  	b.ne	0x2d0b8 <_ZNK19ChiFeature2RealTime31OnPopulateConfigurationSettingsEP24ChiFeature2RequestObjectPK21ChiFeature2IdentifierP11ChiMetadata+0x938>
   2ca7c: 9d 73 00 94  	bl	0x498f0 <_ZNK15ChiFeature2Base31OnPopulateConfigurationSettingsEP24ChiFeature2RequestObjectPK21ChiFeature2IdentifierP11ChiMetadata@plt>
   2ca84: 17 0b 00 b4  	cbz	x23, 0x2cbe4 <_ZNK19ChiFeature2RealTime31OnPopulateConfigurationSettingsEP24ChiFeature2RequestObjectPK21ChiFeature2IdentifierP11ChiMetadata+0x464>
   2ca88: f9 0a 00 35  	cbnz	w25, 0x2cbe4 <_ZNK19ChiFeature2RealTime31OnPopulateConfigurationSettingsEP24ChiFeature2RequestObjectPK21ChiFeature2IdentifierP11ChiMetadata+0x464>
   2ca90: ab 0a 00 b4  	cbz	x11, 0x2cbe4 <_ZNK19ChiFeature2RealTime31OnPopulateConfigurationSettingsEP24ChiFeature2RequestObjectPK21ChiFeature2IdentifierP11ChiMetadata+0x464>
   2ca9c: 40 0a 00 54  	b.eq	0x2cbe4 <_ZNK19ChiFeature2RealTime31OnPopulateConfigurationSettingsEP24ChiFeature2RequestObjectPK21ChiFeature2IdentifierP11ChiMetadata+0x464>
   2caa4: 0c 0a 00 34  	cbz	w12, 0x2cbe4 <_ZNK19ChiFeature2RealTime31OnPopulateConfigurationSettingsEP24ChiFeature2RequestObjectPK21ChiFeature2IdentifierP11ChiMetadata+0x464>
   2cabc: 1d 73 00 94  	bl	0x49730 <_ZN15UsecaseSelector11IsRawStreamEPK14camera3_stream@plt>
   2cac4: e0 00 00 54  	b.eq	0x2cae0 <_ZNK19ChiFeature2RealTime31OnPopulateConfigurationSettingsEP24ChiFeature2RequestObjectPK21ChiFeature2IdentifierP11ChiMetadata+0x360>
   2cad8: e3 fe ff 54  	b.lo	0x2cab4 <_ZNK19ChiFeature2RealTime31OnPopulateConfigurationSettingsEP24ChiFeature2RequestObjectPK21ChiFeature2IdentifierP11ChiMetadata+0x334>
   2cadc: 42 00 00 14  	b	0x2cbe4 <_ZNK19ChiFeature2RealTime31OnPopulateConfigurationSettingsEP24ChiFeature2RequestObjectPK21ChiFeature2IdentifierP11ChiMetadata+0x464>
   2cb0c: 21 ff ff f0  	adrp	x1, 0x13000 <_ZNK19ChiFeature2RealTime31OnPopulateConfigurationSettingsEP24ChiFeature2RequestObjectPK21ChiFeature2IdentifierP11ChiMetadata+0x328>
   2cb10: 02 ff ff b0  	adrp	x2, 0xd000 <_ZNK19ChiFeature2RealTime31OnPopulateConfigurationSettingsEP24ChiFeature2RequestObjectPK21ChiFeature2IdentifierP11ChiMetadata+0x314>
   2cb2c: 1c 01 00 90  	adrp	x28, 0x4c000 <_ZNK19ChiFeature2RealTime31OnPopulateConfigurationSettingsEP24ChiFeature2RequestObjectPK21ChiFeature2IdentifierP11ChiMetadata+0x42c>
   2cb38: 6b 05 18 36  	tbz	w11, #3, 0x2cbe4 <_ZNK19ChiFeature2RealTime31OnPopulateConfigurationSettingsEP24ChiFeature2RequestObjectPK21ChiFeature2IdentifierP11ChiMetadata+0x464>
   2cb3c: 0a 01 00 90  	adrp	x10, 0x4c000 <_ZNK19ChiFeature2RealTime31OnPopulateConfigurationSettingsEP24ChiFeature2RequestObjectPK21ChiFeature2IdentifierP11ChiMetadata+0x43c>
   2cb4c: 61 02 00 54  	b.ne	0x2cb98 <_ZNK19ChiFeature2RealTime31OnPopulateConfigurationSettingsEP24ChiFeature2RequestObjectPK21ChiFeature2IdentifierP11ChiMetadata+0x418>
   2cb50: 1c ff ff f0  	adrp	x28, 0xf000 <_ZNK19ChiFeature2RealTime31OnPopulateConfigurationSettingsEP24ChiFeature2RequestObjectPK21ChiFeature2IdentifierP11ChiMetadata+0x35c>
   2cb70: 41 ff ff 90  	adrp	x1, 0x14000 <_ZNK19ChiFeature2RealTime31OnPopulateConfigurationSettingsEP24ChiFeature2RequestObjectPK21ChiFeature2IdentifierP11ChiMetadata+0x390>
   2cb74: 22 ff ff d0  	adrp	x2, 0x12000 <_ZNK19ChiFeature2RealTime31OnPopulateConfigurationSettingsEP24ChiFeature2RequestObjectPK21ChiFeature2IdentifierP11ChiMetadata+0x38c>
   2cb78: 25 ff ff d0  	adrp	x5, 0x12000 <_ZNK19ChiFeature2RealTime31OnPopulateConfigurationSettingsEP24ChiFeature2RequestObjectPK21ChiFeature2IdentifierP11ChiMetadata+0x390>
   2cb98: 1a ff ff f0  	adrp	x26, 0xf000 <_ZNK19ChiFeature2RealTime31OnPopulateConfigurationSettingsEP24ChiFeature2RequestObjectPK21ChiFeature2IdentifierP11ChiMetadata+0x3a4>
   2cbb4: 21 ff ff b0  	adrp	x1, 0x11000 <_ZNK19ChiFeature2RealTime31OnPopulateConfigurationSettingsEP24ChiFeature2RequestObjectPK21ChiFeature2IdentifierP11ChiMetadata+0x3c8>
   2cbc0: 40 ff ff 90  	adrp	x0, 0x14000 <_ZNK19ChiFeature2RealTime31OnPopulateConfigurationSettingsEP24ChiFeature2RequestObjectPK21ChiFeature2IdentifierP11ChiMetadata+0x3e0>
   2cbc4: 23 ff ff d0  	adrp	x3, 0x12000 <_ZNK19ChiFeature2RealTime31OnPopulateConfigurationSettingsEP24ChiFeature2RequestObjectPK21ChiFeature2IdentifierP11ChiMetadata+0x3dc>
   2cbc8: 05 ff ff b0  	adrp	x5, 0xd000 <_ZNK19ChiFeature2RealTime31OnPopulateConfigurationSettingsEP24ChiFeature2RequestObjectPK21ChiFeature2IdentifierP11ChiMetadata+0x3cc>
   2cbe0: e0 71 00 94  	bl	0x49360 <_ZN6ChiLog9LogSystemEPKcS1_S1_S1_iS1_z@plt>
   2cbe4: 7b 0c 00 b4  	cbz	x27, 0x2cd70 <_ZNK19ChiFeature2RealTime31OnPopulateConfigurationSettingsEP24ChiFeature2RequestObjectPK21ChiFeature2IdentifierP11ChiMetadata+0x5f0>
   2cbf0: 01 0c 00 54  	b.ne	0x2cd70 <_ZNK19ChiFeature2RealTime31OnPopulateConfigurationSettingsEP24ChiFeature2RequestObjectPK21ChiFeature2IdentifierP11ChiMetadata+0x5f0>
   2cc28: 21 ff ff b0  	adrp	x1, 0x11000 <_ZNK19ChiFeature2RealTime31OnPopulateConfigurationSettingsEP24ChiFeature2RequestObjectPK21ChiFeature2IdentifierP11ChiMetadata+0x43c>
   2cc2c: 22 ff ff 90  	adrp	x2, 0x10000 <_ZNK19ChiFeature2RealTime31OnPopulateConfigurationSettingsEP24ChiFeature2RequestObjectPK21ChiFeature2IdentifierP11ChiMetadata+0x43c>
   2cc68: 21 ff ff d0  	adrp	x1, 0x12000 <_ZNK19ChiFeature2RealTime31OnPopulateConfigurationSettingsEP24ChiFeature2RequestObjectPK21ChiFeature2IdentifierP11ChiMetadata+0x480>
   2cc6c: 22 ff ff 90  	adrp	x2, 0x10000 <_ZNK19ChiFeature2RealTime31OnPopulateConfigurationSettingsEP24ChiFeature2RequestObjectPK21ChiFeature2IdentifierP11ChiMetadata+0x47c>
   2cc94: a1 2c 00 54  	b.ne	0x2d228 <_ZNK19ChiFeature2RealTime31OnPopulateConfigurationSettingsEP24ChiFeature2RequestObjectPK21ChiFeature2IdentifierP11ChiMetadata+0xaa8>
   2cca4: 27 72 00 94  	bl	0x49540 <_ZNK15ChiFeature2Base19GetCurrentStageInfoEP24ChiFeature2RequestObjectP20ChiFeature2StageInfo@plt>
   2cca8: 0c 01 00 90  	adrp	x12, 0x4c000 <_ZNK19ChiFeature2RealTime31OnPopulateConfigurationSettingsEP24ChiFeature2RequestObjectPK21ChiFeature2IdentifierP11ChiMetadata+0x5a8>
   2ccb4: ef 05 18 36  	tbz	w15, #3, 0x2cd70 <_ZNK19ChiFeature2RealTime31OnPopulateConfigurationSettingsEP24ChiFeature2RequestObjectPK21ChiFeature2IdentifierP11ChiMetadata+0x5f0>
   2ccb8: 0d 01 00 90  	adrp	x13, 0x4c000 <_ZNK19ChiFeature2RealTime31OnPopulateConfigurationSettingsEP24ChiFeature2RequestObjectPK21ChiFeature2IdentifierP11ChiMetadata+0x5b8>
   2ccbc: 1a ff ff f0  	adrp	x26, 0xf000 <_ZNK19ChiFeature2RealTime31OnPopulateConfigurationSettingsEP24ChiFeature2RequestObjectPK21ChiFeature2IdentifierP11ChiMetadata+0x4c8>
   2ccd0: 81 02 00 54  	b.ne	0x2cd20 <_ZNK19ChiFeature2RealTime31OnPopulateConfigurationSettingsEP24ChiFeature2RequestObjectPK21ChiFeature2IdentifierP11ChiMetadata+0x5a0>
   2ccf0: 41 ff ff 90  	adrp	x1, 0x14000 <_ZNK19ChiFeature2RealTime31OnPopulateConfigurationSettingsEP24ChiFeature2RequestObjectPK21ChiFeature2IdentifierP11ChiMetadata+0x510>
   2ccf4: 22 ff ff f0  	adrp	x2, 0x13000 <_ZNK19ChiFeature2RealTime31OnPopulateConfigurationSettingsEP24ChiFeature2RequestObjectPK21ChiFeature2IdentifierP11ChiMetadata+0x510>
   2ccf8: 25 ff ff d0  	adrp	x5, 0x12000 <_ZNK19ChiFeature2RealTime31OnPopulateConfigurationSettingsEP24ChiFeature2RequestObjectPK21ChiFeature2IdentifierP11ChiMetadata+0x510>
   2cd40: 40 ff ff 90  	adrp	x0, 0x14000 <_ZNK19ChiFeature2RealTime31OnPopulateConfigurationSettingsEP24ChiFeature2RequestObjectPK21ChiFeature2IdentifierP11ChiMetadata+0x560>
   2cd44: 21 ff ff b0  	adrp	x1, 0x11000 <_ZNK19ChiFeature2RealTime31OnPopulateConfigurationSettingsEP24ChiFeature2RequestObjectPK21ChiFeature2IdentifierP11ChiMetadata+0x558>
   2cd48: 23 ff ff d0  	adrp	x3, 0x12000 <_ZNK19ChiFeature2RealTime31OnPopulateConfigurationSettingsEP24ChiFeature2RequestObjectPK21ChiFeature2IdentifierP11ChiMetadata+0x560>
   2cd4c: 05 ff ff b0  	adrp	x5, 0xd000 <_ZNK19ChiFeature2RealTime31OnPopulateConfigurationSettingsEP24ChiFeature2RequestObjectPK21ChiFeature2IdentifierP11ChiMetadata+0x550>
   2cd6c: 7d 71 00 94  	bl	0x49360 <_ZN6ChiLog9LogSystemEPKcS1_S1_S1_iS1_z@plt>
   2cd80: 81 1a 00 54  	b.ne	0x2d0d0 <_ZNK19ChiFeature2RealTime31OnPopulateConfigurationSettingsEP24ChiFeature2RequestObjectPK21ChiFeature2IdentifierP11ChiMetadata+0x950>
   2cd88: 9a 03 00 94  	bl	0x2dbf0 <_ZNK19ChiFeature2RealTime41PopulateConfigurationsForSensorModeChangeEP24ChiFeature2RequestObjectP11ChiMetadata+0x168>
   2cdb4: 41 ff ff 90  	adrp	x1, 0x14000 <_ZNK19ChiFeature2RealTime31OnPopulateConfigurationSettingsEP24ChiFeature2RequestObjectPK21ChiFeature2IdentifierP11ChiMetadata+0x5d4>
   2cdb8: 22 ff ff b0  	adrp	x2, 0x11000 <_ZNK19ChiFeature2RealTime31OnPopulateConfigurationSettingsEP24ChiFeature2RequestObjectPK21ChiFeature2IdentifierP11ChiMetadata+0x5cc>
   2cdd4: 77 12 00 b4  	cbz	x23, 0x2d020 <_ZNK19ChiFeature2RealTime31OnPopulateConfigurationSettingsEP24ChiFeature2RequestObjectPK21ChiFeature2IdentifierP11ChiMetadata+0x8a0>
   2cddc: 24 12 00 b4  	cbz	x4, 0x2d020 <_ZNK19ChiFeature2RealTime31OnPopulateConfigurationSettingsEP24ChiFeature2RequestObjectPK21ChiFeature2IdentifierP11ChiMetadata+0x8a0>
   2cdf0: 61 1b 00 54  	b.ne	0x2d15c <_ZNK19ChiFeature2RealTime31OnPopulateConfigurationSettingsEP24ChiFeature2RequestObjectPK21ChiFeature2IdentifierP11ChiMetadata+0x9dc>
   2cdfc: 85 09 00 36  	tbz	w5, #0, 0x2cf2c <_ZNK19ChiFeature2RealTime31OnPopulateConfigurationSettingsEP24ChiFeature2RequestObjectPK21ChiFeature2IdentifierP11ChiMetadata+0x7ac>
   2ce0c: a8 00 00 54  	b.hi	0x2ce20 <_ZNK19ChiFeature2RealTime31OnPopulateConfigurationSettingsEP24ChiFeature2RequestObjectPK21ChiFeature2IdentifierP11ChiMetadata+0x6a0>
   2ce1c: 81 08 00 54  	b.ne	0x2cf2c <_ZNK19ChiFeature2RealTime31OnPopulateConfigurationSettingsEP24ChiFeature2RequestObjectPK21ChiFeature2IdentifierP11ChiMetadata+0x7ac>
   2ce24: 40 08 00 54  	b.eq	0x2cf2c <_ZNK19ChiFeature2RealTime31OnPopulateConfigurationSettingsEP24ChiFeature2RequestObjectPK21ChiFeature2IdentifierP11ChiMetadata+0x7ac>
   2ce54: 21 ff ff b0  	adrp	x1, 0x11000 <_ZNK19ChiFeature2RealTime31OnPopulateConfigurationSettingsEP24ChiFeature2RequestObjectPK21ChiFeature2IdentifierP11ChiMetadata+0x668>
   2ce58: 02 ff ff f0  	adrp	x2, 0xf000 <_ZNK19ChiFeature2RealTime31OnPopulateConfigurationSettingsEP24ChiFeature2RequestObjectPK21ChiFeature2IdentifierP11ChiMetadata+0x664>
   2ce78: a0 05 00 34  	cbz	w0, 0x2cf2c <_ZNK19ChiFeature2RealTime31OnPopulateConfigurationSettingsEP24ChiFeature2RequestObjectPK21ChiFeature2IdentifierP11ChiMetadata+0x7ac>
   2ce7c: 10 01 00 90  	adrp	x16, 0x4c000 <_ZNK19ChiFeature2RealTime31OnPopulateConfigurationSettingsEP24ChiFeature2RequestObjectPK21ChiFeature2IdentifierP11ChiMetadata+0x77c>
   2ce88: 27 05 00 36  	tbz	w7, #0, 0x2cf2c <_ZNK19ChiFeature2RealTime31OnPopulateConfigurationSettingsEP24ChiFeature2RequestObjectPK21ChiFeature2IdentifierP11ChiMetadata+0x7ac>
   2ce8c: 11 01 00 90  	adrp	x17, 0x4c000 <_ZNK19ChiFeature2RealTime31OnPopulateConfigurationSettingsEP24ChiFeature2RequestObjectPK21ChiFeature2IdentifierP11ChiMetadata+0x78c>
   2ce9c: 41 02 00 54  	b.ne	0x2cee4 <_ZNK19ChiFeature2RealTime31OnPopulateConfigurationSettingsEP24ChiFeature2RequestObjectPK21ChiFeature2IdentifierP11ChiMetadata+0x764>
   2cea0: 1c ff ff f0  	adrp	x28, 0xf000 <_ZNK19ChiFeature2RealTime31OnPopulateConfigurationSettingsEP24ChiFeature2RequestObjectPK21ChiFeature2IdentifierP11ChiMetadata+0x6ac>
   2cebc: 41 ff ff 90  	adrp	x1, 0x14000 <_ZNK19ChiFeature2RealTime31OnPopulateConfigurationSettingsEP24ChiFeature2RequestObjectPK21ChiFeature2IdentifierP11ChiMetadata+0x6dc>
   2cec0: 42 ff ff 90  	adrp	x2, 0x14000 <_ZNK19ChiFeature2RealTime31OnPopulateConfigurationSettingsEP24ChiFeature2RequestObjectPK21ChiFeature2IdentifierP11ChiMetadata+0x6e0>
   2cec4: 25 ff ff d0  	adrp	x5, 0x12000 <_ZNK19ChiFeature2RealTime31OnPopulateConfigurationSettingsEP24ChiFeature2RequestObjectPK21ChiFeature2IdentifierP11ChiMetadata+0x6dc>
   2cee4: 1a ff ff f0  	adrp	x26, 0xf000 <_ZNK19ChiFeature2RealTime31OnPopulateConfigurationSettingsEP24ChiFeature2RequestObjectPK21ChiFeature2IdentifierP11ChiMetadata+0x6f0>
   2cf00: 21 ff ff f0  	adrp	x1, 0x13000 <_ZNK19ChiFeature2RealTime31OnPopulateConfigurationSettingsEP24ChiFeature2RequestObjectPK21ChiFeature2IdentifierP11ChiMetadata+0x71c>
   2cf08: 00 ff ff b0  	adrp	x0, 0xd000 <_ZNK19ChiFeature2RealTime31OnPopulateConfigurationSettingsEP24ChiFeature2RequestObjectPK21ChiFeature2IdentifierP11ChiMetadata+0x70c>
   2cf0c: 23 ff ff d0  	adrp	x3, 0x12000 <_ZNK19ChiFeature2RealTime31OnPopulateConfigurationSettingsEP24ChiFeature2RequestObjectPK21ChiFeature2IdentifierP11ChiMetadata+0x724>
   2cf10: 25 ff ff 90  	adrp	x5, 0x10000 <_ZNK19ChiFeature2RealTime31OnPopulateConfigurationSettingsEP24ChiFeature2RequestObjectPK21ChiFeature2IdentifierP11ChiMetadata+0x720>
   2cf28: 0e 71 00 94  	bl	0x49360 <_ZN6ChiLog9LogSystemEPKcS1_S1_S1_iS1_z@plt>
   2cf54: 01 11 00 54  	b.ne	0x2d174 <_ZNK19ChiFeature2RealTime31OnPopulateConfigurationSettingsEP24ChiFeature2RequestObjectPK21ChiFeature2IdentifierP11ChiMetadata+0x9f4>
   2cf5c: c1 11 00 54  	b.ne	0x2d194 <_ZNK19ChiFeature2RealTime31OnPopulateConfigurationSettingsEP24ChiFeature2RequestObjectPK21ChiFeature2IdentifierP11ChiMetadata+0xa14>
   2cf64: a8 04 00 b4  	cbz	x8, 0x2cff8 <_ZNK19ChiFeature2RealTime31OnPopulateConfigurationSettingsEP24ChiFeature2RequestObjectPK21ChiFeature2IdentifierP11ChiMetadata+0x878>
   2cf74: 61 16 00 54  	b.ne	0x2d240 <_ZNK19ChiFeature2RealTime31OnPopulateConfigurationSettingsEP24ChiFeature2RequestObjectPK21ChiFeature2IdentifierP11ChiMetadata+0xac0>
   2cf7c: c9 00 30 37  	tbnz	w9, #6, 0x2cf94 <_ZNK19ChiFeature2RealTime31OnPopulateConfigurationSettingsEP24ChiFeature2RequestObjectPK21ChiFeature2IdentifierP11ChiMetadata+0x814>
   2cf8c: 21 1a 00 54  	b.ne	0x2d2d0 <_ZNK19ChiFeature2RealTime31OnPopulateConfigurationSettingsEP24ChiFeature2RequestObjectPK21ChiFeature2IdentifierP11ChiMetadata+0xb50>
   2cf90: 49 03 28 36  	tbz	w9, #5, 0x2cff8 <_ZNK19ChiFeature2RealTime31OnPopulateConfigurationSettingsEP24ChiFeature2RequestObjectPK21ChiFeature2IdentifierP11ChiMetadata+0x878>
   2cfa0: 21 16 00 54  	b.ne	0x2d264 <_ZNK19ChiFeature2RealTime31OnPopulateConfigurationSettingsEP24ChiFeature2RequestObjectPK21ChiFeature2IdentifierP11ChiMetadata+0xae4>
   2cfa8: 96 02 00 37  	tbnz	w22, #0, 0x2cff8 <_ZNK19ChiFeature2RealTime31OnPopulateConfigurationSettingsEP24ChiFeature2RequestObjectPK21ChiFeature2IdentifierP11ChiMetadata+0x878>
   2cfd8: 21 ff ff d0  	adrp	x1, 0x12000 <_ZNK19ChiFeature2RealTime31OnPopulateConfigurationSettingsEP24ChiFeature2RequestObjectPK21ChiFeature2IdentifierP11ChiMetadata+0x7f0>
   2cfdc: 22 ff ff 90  	adrp	x2, 0x10000 <_ZNK19ChiFeature2RealTime31OnPopulateConfigurationSettingsEP24ChiFeature2RequestObjectPK21ChiFeature2IdentifierP11ChiMetadata+0x7ec>
   2d01c: 39 72 00 94  	bl	0x49900 <_ZN8ChxUtils18FillTuningModeDataEP11ChiMetadata25ChiModeUsecaseSubModeTypejPjS3_S3_S3_@plt>
   2d030: e1 16 00 54  	b.ne	0x2d30c <_ZNK19ChiFeature2RealTime31OnPopulateConfigurationSettingsEP24ChiFeature2RequestObjectPK21ChiFeature2IdentifierP11ChiMetadata+0xb8c>
   2d06c: 18 fe ff 17  	b	0x2c8cc <_ZNK19ChiFeature2RealTime31OnPopulateConfigurationSettingsEP24ChiFeature2RequestObjectPK21ChiFeature2IdentifierP11ChiMetadata+0x14c>
   2d084: 3f fe ff 17  	b	0x2c980 <_ZNK19ChiFeature2RealTime31OnPopulateConfigurationSettingsEP24ChiFeature2RequestObjectPK21ChiFeature2IdentifierP11ChiMetadata+0x200>
   2d09c: 4f fe ff 17  	b	0x2c9d8 <_ZNK19ChiFeature2RealTime31OnPopulateConfigurationSettingsEP24ChiFeature2RequestObjectPK21ChiFeature2IdentifierP11ChiMetadata+0x258>
   2d0b4: 67 fe ff 17  	b	0x2ca50 <_ZNK19ChiFeature2RealTime31OnPopulateConfigurationSettingsEP24ChiFeature2RequestObjectPK21ChiFeature2IdentifierP11ChiMetadata+0x2d0>
   2d0cc: 68 fe ff 17  	b	0x2ca6c <_ZNK19ChiFeature2RealTime31OnPopulateConfigurationSettingsEP24ChiFeature2RequestObjectPK21ChiFeature2IdentifierP11ChiMetadata+0x2ec>
   2d0e4: 28 ff ff 17  	b	0x2cd84 <_ZNK19ChiFeature2RealTime31OnPopulateConfigurationSettingsEP24ChiFeature2RequestObjectPK21ChiFeature2IdentifierP11ChiMetadata+0x604>
   2d104: a0 bf ff 54  	b.eq	0x2c8f8 <_ZNK19ChiFeature2RealTime31OnPopulateConfigurationSettingsEP24ChiFeature2RequestObjectPK21ChiFeature2IdentifierP11ChiMetadata+0x178>
   2d120: 0a bf ff b5  	cbnz	x10, 0x2c900 <_ZNK19ChiFeature2RealTime31OnPopulateConfigurationSettingsEP24ChiFeature2RequestObjectPK21ChiFeature2IdentifierP11ChiMetadata+0x180>
   2d124: fd fd ff 17  	b	0x2c918 <_ZNK19ChiFeature2RealTime31OnPopulateConfigurationSettingsEP24ChiFeature2RequestObjectPK21ChiFeature2IdentifierP11ChiMetadata+0x198>
   2d13c: 1e fe ff 17  	b	0x2c9b4 <_ZNK19ChiFeature2RealTime31OnPopulateConfigurationSettingsEP24ChiFeature2RequestObjectPK21ChiFeature2IdentifierP11ChiMetadata+0x234>
   2d158: 36 fe ff 17  	b	0x2ca30 <_ZNK19ChiFeature2RealTime31OnPopulateConfigurationSettingsEP24ChiFeature2RequestObjectPK21ChiFeature2IdentifierP11ChiMetadata+0x2b0>
   2d170: 21 ff ff 17  	b	0x2cdf4 <_ZNK19ChiFeature2RealTime31OnPopulateConfigurationSettingsEP24ChiFeature2RequestObjectPK21ChiFeature2IdentifierP11ChiMetadata+0x674>
   2d190: 80 ee ff 54  	b.eq	0x2cf60 <_ZNK19ChiFeature2RealTime31OnPopulateConfigurationSettingsEP24ChiFeature2RequestObjectPK21ChiFeature2IdentifierP11ChiMetadata+0x7e0>
   2d1ac: e8 ed ff b5  	cbnz	x8, 0x2cf68 <_ZNK19ChiFeature2RealTime31OnPopulateConfigurationSettingsEP24ChiFeature2RequestObjectPK21ChiFeature2IdentifierP11ChiMetadata+0x7e8>
   2d1b0: 92 ff ff 17  	b	0x2cff8 <_ZNK19ChiFeature2RealTime31OnPopulateConfigurationSettingsEP24ChiFeature2RequestObjectPK21ChiFeature2IdentifierP11ChiMetadata+0x878>
   2d1cc: 0c fe ff 17  	b	0x2c9fc <_ZNK19ChiFeature2RealTime31OnPopulateConfigurationSettingsEP24ChiFeature2RequestObjectPK21ChiFeature2IdentifierP11ChiMetadata+0x27c>
   2d1ec: 68 b9 07 36  	tbz	w8, #0, 0x2c918 <_ZNK19ChiFeature2RealTime31OnPopulateConfigurationSettingsEP24ChiFeature2RequestObjectPK21ChiFeature2IdentifierP11ChiMetadata+0x198>
   2d1fc: 61 04 00 54  	b.ne	0x2d288 <_ZNK19ChiFeature2RealTime31OnPopulateConfigurationSettingsEP24ChiFeature2RequestObjectPK21ChiFeature2IdentifierP11ChiMetadata+0xb08>
   2d200: 68 05 08 37  	tbnz	w8, #1, 0x2d2ac <_ZNK19ChiFeature2RealTime31OnPopulateConfigurationSettingsEP24ChiFeature2RequestObjectPK21ChiFeature2IdentifierP11ChiMetadata+0xb2c>
   2d20c: e0 b8 ff 54  	b.eq	0x2c928 <_ZNK19ChiFeature2RealTime31OnPopulateConfigurationSettingsEP24ChiFeature2RequestObjectPK21ChiFeature2IdentifierP11ChiMetadata+0x1a8>
   2d224: c1 fd ff 17  	b	0x2c928 <_ZNK19ChiFeature2RealTime31OnPopulateConfigurationSettingsEP24ChiFeature2RequestObjectPK21ChiFeature2IdentifierP11ChiMetadata+0x1a8>
   2d23c: 97 fe ff 17  	b	0x2cc98 <_ZNK19ChiFeature2RealTime31OnPopulateConfigurationSettingsEP24ChiFeature2RequestObjectPK21ChiFeature2IdentifierP11ChiMetadata+0x518>
   2d25c: 29 e9 37 36  	tbz	w9, #6, 0x2cf80 <_ZNK19ChiFeature2RealTime31OnPopulateConfigurationSettingsEP24ChiFeature2RequestObjectPK21ChiFeature2IdentifierP11ChiMetadata+0x800>
   2d260: 4d ff ff 17  	b	0x2cf94 <_ZNK19ChiFeature2RealTime31OnPopulateConfigurationSettingsEP24ChiFeature2RequestObjectPK21ChiFeature2IdentifierP11ChiMetadata+0x814>
   2d280: 76 e9 07 36  	tbz	w22, #0, 0x2cfac <_ZNK19ChiFeature2RealTime31OnPopulateConfigurationSettingsEP24ChiFeature2RequestObjectPK21ChiFeature2IdentifierP11ChiMetadata+0x82c>
   2d284: 5d ff ff 17  	b	0x2cff8 <_ZNK19ChiFeature2RealTime31OnPopulateConfigurationSettingsEP24ChiFeature2RequestObjectPK21ChiFeature2IdentifierP11ChiMetadata+0x878>
   2d2a8: e8 fa 0f 36  	tbz	w8, #1, 0x2d204 <_ZNK19ChiFeature2RealTime31OnPopulateConfigurationSettingsEP24ChiFeature2RequestObjectPK21ChiFeature2IdentifierP11ChiMetadata+0xa84>
   2d2b4: 01 02 00 54  	b.ne	0x2d2f4 <_ZNK19ChiFeature2RealTime31OnPopulateConfigurationSettingsEP24ChiFeature2RequestObjectPK21ChiFeature2IdentifierP11ChiMetadata+0xb74>
   2d2bc: 02 01 00 b0  	adrp	x2, 0x4e000 <_ZNK19ChiFeature2RealTime18OnSelectSensorModeEP24ChiFeature2RequestObjectPN15ChiFeature2Base22ChiFeaturePipelineDataEP17DesiredSensorMode+0x30>
   2d2cc: 9b fd ff 17  	b	0x2c938 <_ZNK19ChiFeature2RealTime31OnPopulateConfigurationSettingsEP24ChiFeature2RequestObjectPK21ChiFeature2IdentifierP11ChiMetadata+0x1b8>
   2d2ec: 49 e5 2f 37  	tbnz	w9, #5, 0x2cf94 <_ZNK19ChiFeature2RealTime31OnPopulateConfigurationSettingsEP24ChiFeature2RequestObjectPK21ChiFeature2IdentifierP11ChiMetadata+0x814>
   2d2f0: 42 ff ff 17  	b	0x2cff8 <_ZNK19ChiFeature2RealTime31OnPopulateConfigurationSettingsEP24ChiFeature2RequestObjectPK21ChiFeature2IdentifierP11ChiMetadata+0x878>
   2d308: ec ff ff 17  	b	0x2d2b8 <_ZNK19ChiFeature2RealTime31OnPopulateConfigurationSettingsEP24ChiFeature2RequestObjectPK21ChiFeature2IdentifierP11ChiMetadata+0xb38>
000000000002d310 <_ZNK19ChiFeature2RealTime18OnSelectSensorModeEP24ChiFeature2RequestObjectPN15ChiFeature2Base22ChiFeaturePipelineDataEP17DesiredSensorMode>:
   2d334: f8 00 00 f0  	adrp	x24, 0x4c000 <_ZNK19ChiFeature2RealTime18OnSelectSensorModeEP24ChiFeature2RequestObjectPN15ChiFeature2Base22ChiFeaturePipelineDataEP17DesiredSensorMode+0xa0>
   2d358: 63 01 00 b4  	cbz	x3, 0x2d384 <_ZNK19ChiFeature2RealTime18OnSelectSensorModeEP24ChiFeature2RequestObjectPN15ChiFeature2Base22ChiFeaturePipelineDataEP17DesiredSensorMode+0x74>
   2d368: 81 05 00 54  	b.ne	0x2d418 <_ZNK19ChiFeature2RealTime18OnSelectSensorModeEP24ChiFeature2RequestObjectPN15ChiFeature2Base22ChiFeaturePipelineDataEP17DesiredSensorMode+0x108>
   2d370: 68 00 00 b4  	cbz	x8, 0x2d37c <_ZNK19ChiFeature2RealTime18OnSelectSensorModeEP24ChiFeature2RequestObjectPN15ChiFeature2Base22ChiFeaturePipelineDataEP17DesiredSensorMode+0x6c>
   2d378: c9 01 28 37  	tbnz	w9, #5, 0x2d3b0 <_ZNK19ChiFeature2RealTime18OnSelectSensorModeEP24ChiFeature2RequestObjectPN15ChiFeature2Base22ChiFeaturePipelineDataEP17DesiredSensorMode+0xa0>
   2d380: 0d 00 00 14  	b	0x2d3b4 <_ZNK19ChiFeature2RealTime18OnSelectSensorModeEP24ChiFeature2RequestObjectPN15ChiFeature2Base22ChiFeaturePipelineDataEP17DesiredSensorMode+0xa4>
   2d390: 01 06 00 54  	b.ne	0x2d450 <_ZNK19ChiFeature2RealTime18OnSelectSensorModeEP24ChiFeature2RequestObjectPN15ChiFeature2Base22ChiFeaturePipelineDataEP17DesiredSensorMode+0x140>
   2d3a4: 5b 71 00 94  	bl	0x49910 <_ZNK15ChiFeature2Base28FillDefaultDesiredSensorModeEPNS_22ChiFeaturePipelineDataEP17DesiredSensorMode@plt>
   2d3a8: 40 02 00 35  	cbnz	w0, 0x2d3f0 <_ZNK19ChiFeature2RealTime18OnSelectSensorModeEP24ChiFeature2RequestObjectPN15ChiFeature2Base22ChiFeaturePipelineDataEP17DesiredSensorMode+0xe0>
   2d3ac: ec ff ff 17  	b	0x2d35c <_ZNK19ChiFeature2RealTime18OnSelectSensorModeEP24ChiFeature2RequestObjectPN15ChiFeature2Base22ChiFeaturePipelineDataEP17DesiredSensorMode+0x4c>
   2d3b8: 5a 71 00 94  	bl	0x49920 <_ZN16ChiFeature2Utils37CheckModeChangeRequireForInSensorZoomEP27ChiFeature2InSensorZoomInfoP17DesiredSensorMode@plt>
   2d3c0: 61 01 00 54  	b.ne	0x2d3ec <_ZNK19ChiFeature2RealTime18OnSelectSensorModeEP24ChiFeature2RequestObjectPN15ChiFeature2Base22ChiFeaturePipelineDataEP17DesiredSensorMode+0xdc>
   2d3d0: 41 03 00 54  	b.ne	0x2d438 <_ZNK19ChiFeature2RealTime18OnSelectSensorModeEP24ChiFeature2RequestObjectPN15ChiFeature2Base22ChiFeaturePipelineDataEP17DesiredSensorMode+0x128>
   2d3e4: 53 71 00 94  	bl	0x49930 <_ZNK15ChiFeature2Base18OnSelectSensorModeEP24ChiFeature2RequestObjectPNS_22ChiFeaturePipelineDataEP17DesiredSensorMode@plt>
   2d3e8: 02 00 00 14  	b	0x2d3f0 <_ZNK19ChiFeature2RealTime18OnSelectSensorModeEP24ChiFeature2RequestObjectPN15ChiFeature2Base22ChiFeaturePipelineDataEP17DesiredSensorMode+0xe0>
   2d3fc: 61 03 00 54  	b.ne	0x2d468 <_ZNK19ChiFeature2RealTime18OnSelectSensorModeEP24ChiFeature2RequestObjectPN15ChiFeature2Base22ChiFeaturePipelineDataEP17DesiredSensorMode+0x158>
   2d430: 28 fa ff b5  	cbnz	x8, 0x2d374 <_ZNK19ChiFeature2RealTime18OnSelectSensorModeEP24ChiFeature2RequestObjectPN15ChiFeature2Base22ChiFeaturePipelineDataEP17DesiredSensorMode+0x64>
   2d434: d2 ff ff 17  	b	0x2d37c <_ZNK19ChiFeature2RealTime18OnSelectSensorModeEP24ChiFeature2RequestObjectPN15ChiFeature2Base22ChiFeaturePipelineDataEP17DesiredSensorMode+0x6c>
   2d44c: e2 ff ff 17  	b	0x2d3d4 <_ZNK19ChiFeature2RealTime18OnSelectSensorModeEP24ChiFeature2RequestObjectPN15ChiFeature2Base22ChiFeaturePipelineDataEP17DesiredSensorMode+0xc4>
   2d464: cc ff ff 17  	b	0x2d394 <_ZNK19ChiFeature2RealTime18OnSelectSensorModeEP24ChiFeature2RequestObjectPN15ChiFeature2Base22ChiFeaturePipelineDataEP17DesiredSensorMode+0x84>
000000000002d480 <_ZNK19ChiFeature2RealTime25OnIsManualCaptureRequiredEP24ChiFeature2RequestObject>:
   2d490: e9 00 00 f0  	adrp	x9, 0x4c000 <_ZNK19ChiFeature2RealTime13OnGetZSLPortsEPK24ChiFeature2RequestObject+0x34>
   2d4a0: 81 00 00 54  	b.ne	0x2d4b0 <_ZNK19ChiFeature2RealTime25OnIsManualCaptureRequiredEP24ChiFeature2RequestObject+0x30>
   2d4ac: 55 70 00 14  	b	0x49600 <_ZNK19ChiFeature2RealTime23IsManualCaptureRequiredEP24ChiFeature2RequestObject@plt>
   2d4d4: f4 ff ff 17  	b	0x2d4a4 <_ZNK19ChiFeature2RealTime25OnIsManualCaptureRequiredEP24ChiFeature2RequestObject+0x24>
000000000002d4d8 <_ZNK19ChiFeature2RealTime13OnGetZSLPortsEPK24ChiFeature2RequestObject>:
   2d4e8: eb 00 00 f0  	adrp	x11, 0x4c000 <_ZNK19ChiFeature2RealTime13OnGetZSLPortsEPK24ChiFeature2RequestObject+0x8c>
   2d508: a1 03 00 54  	b.ne	0x2d57c <_ZNK19ChiFeature2RealTime13OnGetZSLPortsEPK24ChiFeature2RequestObject+0xa4>
   2d510: 01 05 00 54  	b.ne	0x2d5b0 <_ZNK19ChiFeature2RealTime13OnGetZSLPortsEPK24ChiFeature2RequestObject+0xd8>
   2d518: 29 0b 00 b4  	cbz	x9, 0x2d67c <_ZNK19ChiFeature2RealTime13OnGetZSLPortsEPK24ChiFeature2RequestObject+0x1a4>
   2d528: e1 05 00 54  	b.ne	0x2d5e4 <_ZNK19ChiFeature2RealTime13OnGetZSLPortsEPK24ChiFeature2RequestObject+0x10c>
   2d530: ca 00 30 37  	tbnz	w10, #6, 0x2d548 <_ZNK19ChiFeature2RealTime13OnGetZSLPortsEPK24ChiFeature2RequestObject+0x70>
   2d540: 41 08 00 54  	b.ne	0x2d648 <_ZNK19ChiFeature2RealTime13OnGetZSLPortsEPK24ChiFeature2RequestObject+0x170>
   2d544: ca 09 28 36  	tbz	w10, #5, 0x2d67c <_ZNK19ChiFeature2RealTime13OnGetZSLPortsEPK24ChiFeature2RequestObject+0x1a4>
   2d554: 41 06 00 54  	b.ne	0x2d61c <_ZNK19ChiFeature2RealTime13OnGetZSLPortsEPK24ChiFeature2RequestObject+0x144>
   2d55c: 08 09 00 37  	tbnz	w8, #0, 0x2d67c <_ZNK19ChiFeature2RealTime13OnGetZSLPortsEPK24ChiFeature2RequestObject+0x1a4>
   2d560: 01 01 00 b0  	adrp	x1, 0x4e000 <_ZNK19ChiFeature2RealTime13OnGetZSLPortsEPK24ChiFeature2RequestObject+0x10c>
   2d56c: 9f 00 00 94  	bl	0x2d7e8 <_ZNK19ChiFeature2RealTime13OnGetZSLPortsEPK24ChiFeature2RequestObject+0x310>
   2d570: 01 01 00 b0  	adrp	x1, 0x4e000 <_ZNK19ChiFeature2RealTime13OnGetZSLPortsEPK24ChiFeature2RequestObject+0x11c>
   2d578: 43 00 00 14  	b	0x2d684 <_ZNK19ChiFeature2RealTime13OnGetZSLPortsEPK24ChiFeature2RequestObject+0x1ac>
   2d59c: eb 00 00 f0  	adrp	x11, 0x4c000 <_ZNK19ChiFeature2RealTime13OnGetZSLPortsEPK24ChiFeature2RequestObject+0x140>
   2d5ac: 40 fb ff 54  	b.eq	0x2d514 <_ZNK19ChiFeature2RealTime13OnGetZSLPortsEPK24ChiFeature2RequestObject+0x3c>
   2d5cc: eb 00 00 f0  	adrp	x11, 0x4c000 <_ZNK19ChiFeature2RealTime13OnGetZSLPortsEPK24ChiFeature2RequestObject+0x170>
   2d5dc: 09 fa ff b5  	cbnz	x9, 0x2d51c <_ZNK19ChiFeature2RealTime13OnGetZSLPortsEPK24ChiFeature2RequestObject+0x44>
   2d5e0: 27 00 00 14  	b	0x2d67c <_ZNK19ChiFeature2RealTime13OnGetZSLPortsEPK24ChiFeature2RequestObject+0x1a4>
   2d604: eb 00 00 f0  	adrp	x11, 0x4c000 <_ZNK19ChiFeature2RealTime13OnGetZSLPortsEPK24ChiFeature2RequestObject+0x1a8>
   2d614: 0a f9 37 36  	tbz	w10, #6, 0x2d534 <_ZNK19ChiFeature2RealTime13OnGetZSLPortsEPK24ChiFeature2RequestObject+0x5c>
   2d618: cc ff ff 17  	b	0x2d548 <_ZNK19ChiFeature2RealTime13OnGetZSLPortsEPK24ChiFeature2RequestObject+0x70>
   2d640: 08 f9 07 36  	tbz	w8, #0, 0x2d560 <_ZNK19ChiFeature2RealTime13OnGetZSLPortsEPK24ChiFeature2RequestObject+0x88>
   2d644: 0e 00 00 14  	b	0x2d67c <_ZNK19ChiFeature2RealTime13OnGetZSLPortsEPK24ChiFeature2RequestObject+0x1a4>
   2d668: eb 00 00 f0  	adrp	x11, 0x4c000 <_ZNK19ChiFeature2RealTime13OnGetZSLPortsEPK24ChiFeature2RequestObject+0x20c>
   2d678: 8a f6 2f 37  	tbnz	w10, #5, 0x2d548 <_ZNK19ChiFeature2RealTime13OnGetZSLPortsEPK24ChiFeature2RequestObject+0x70>
   2d67c: 01 01 00 b0  	adrp	x1, 0x4e000 <_ZNK19ChiFeature2RealTime13OnGetZSLPortsEPK24ChiFeature2RequestObject+0x228>
   2d688: 58 00 00 94  	bl	0x2d7e8 <_ZNK19ChiFeature2RealTime13OnGetZSLPortsEPK24ChiFeature2RequestObject+0x310>
   2d68c: 01 01 00 b0  	adrp	x1, 0x4e000 <_ZNK19ChiFeature2RealTime13OnGetZSLPortsEPK24ChiFeature2RequestObject+0x238>
   2d698: 54 00 00 94  	bl	0x2d7e8 <_ZNK19ChiFeature2RealTime13OnGetZSLPortsEPK24ChiFeature2RequestObject+0x310>
   2d6a0: 01 01 00 b0  	adrp	x1, 0x4e000 <_ZNK19ChiFeature2RealTime13OnGetZSLPortsEPK24ChiFeature2RequestObject+0x24c>
   2d6b4: 4d 00 00 14  	b	0x2d7e8 <_ZNK19ChiFeature2RealTime13OnGetZSLPortsEPK24ChiFeature2RequestObject+0x310>
   2d6d0: 61 00 00 54  	b.ne	0x2d6dc <_ZNK19ChiFeature2RealTime13OnGetZSLPortsEPK24ChiFeature2RequestObject+0x204>
   2d6d8: 35 00 00 14  	b	0x2d7ac <_ZNK19ChiFeature2RealTime13OnGetZSLPortsEPK24ChiFeature2RequestObject+0x2d4>
   2d6e0: ec 00 00 f0  	adrp	x12, 0x4c000 <_ZNK19ChiFeature2RealTime13OnGetZSLPortsEPK24ChiFeature2RequestObject+0x284>
   2d6f0: 81 01 00 54  	b.ne	0x2d720 <_ZNK19ChiFeature2RealTime13OnGetZSLPortsEPK24ChiFeature2RequestObject+0x248>
   2d6f8: 41 03 00 54  	b.ne	0x2d760 <_ZNK19ChiFeature2RealTime13OnGetZSLPortsEPK24ChiFeature2RequestObject+0x288>
   2d700: ca 04 00 b4  	cbz	x10, 0x2d798 <_ZNK19ChiFeature2RealTime13OnGetZSLPortsEPK24ChiFeature2RequestObject+0x2c0>
   2d710: 61 05 00 54  	b.ne	0x2d7bc <_ZNK19ChiFeature2RealTime13OnGetZSLPortsEPK24ChiFeature2RequestObject+0x2e4>
   2d71c: 20 00 00 14  	b	0x2d79c <_ZNK19ChiFeature2RealTime13OnGetZSLPortsEPK24ChiFeature2RequestObject+0x2c4>
   2d748: ec 00 00 f0  	adrp	x12, 0x4c000 <_ZNK19ChiFeature2RealTime13OnGetZSLPortsEPK24ChiFeature2RequestObject+0x2ec>
   2d75c: 00 fd ff 54  	b.eq	0x2d6fc <_ZNK19ChiFeature2RealTime13OnGetZSLPortsEPK24ChiFeature2RequestObject+0x224>
   2d780: ec 00 00 f0  	adrp	x12, 0x4c000 <_ZNK19ChiFeature2RealTime13OnGetZSLPortsEPK24ChiFeature2RequestObject+0x324>
   2d794: 8a fb ff b5  	cbnz	x10, 0x2d704 <_ZNK19ChiFeature2RealTime13OnGetZSLPortsEPK24ChiFeature2RequestObject+0x22c>
   2d7e4: cc ff ff 17  	b	0x2d714 <_ZNK19ChiFeature2RealTime13OnGetZSLPortsEPK24ChiFeature2RequestObject+0x23c>
   2d814: e0 01 00 54  	b.eq	0x2d850 <_ZNK19ChiFeature2RealTime13OnGetZSLPortsEPK24ChiFeature2RequestObject+0x378>
   2d86c: 42 07 00 54  	b.hs	0x2d954 <_ZNK19ChiFeature2RealTime13OnGetZSLPortsEPK24ChiFeature2RequestObject+0x47c>
   2d87c: e8 06 00 54  	b.hi	0x2d958 <_ZNK19ChiFeature2RealTime13OnGetZSLPortsEPK24ChiFeature2RequestObject+0x480>
   2d89c: a8 00 00 54  	b.hi	0x2d8b0 <_ZNK19ChiFeature2RealTime13OnGetZSLPortsEPK24ChiFeature2RequestObject+0x3d8>
   2d8ac: f9 04 00 b4  	cbz	x25, 0x2d948 <_ZNK19ChiFeature2RealTime13OnGetZSLPortsEPK24ChiFeature2RequestObject+0x470>
   2d8e0: 4b 01 00 54  	b.lt	0x2d908 <_ZNK19ChiFeature2RealTime13OnGetZSLPortsEPK24ChiFeature2RequestObject+0x430>
   2d8f0: 01 03 00 54  	b.ne	0x2d950 <_ZNK19ChiFeature2RealTime13OnGetZSLPortsEPK24ChiFeature2RequestObject+0x478>
   2d918: f4 f8 ff b4  	cbz	x20, 0x2d834 <_ZNK19ChiFeature2RealTime13OnGetZSLPortsEPK24ChiFeature2RequestObject+0x35c>
   2d924: 76 01 00 b5  	cbnz	x22, 0x2d950 <_ZNK19ChiFeature2RealTime13OnGetZSLPortsEPK24ChiFeature2RequestObject+0x478>
   2d94c: de ff ff 17  	b	0x2d8c4 <_ZNK19ChiFeature2RealTime13OnGetZSLPortsEPK24ChiFeature2RequestObject+0x3ec>
   2d95c: fd 6f 00 94  	bl	0x49950 <_ZNKSt3__120__vector_base_commonILb1EE20__throw_length_errorEv@plt>
000000000002d960 <_ZNK19ChiFeature2RealTime23IsManualCaptureRequiredEP24ChiFeature2RequestObject>:
   2d96c: e1 01 00 b4  	cbz	x1, 0x2d9a8 <_ZNK19ChiFeature2RealTime23IsManualCaptureRequiredEP24ChiFeature2RequestObject+0x48>
   2d978: ea 00 00 f0  	adrp	x10, 0x4c000 <_ZNK19ChiFeature2RealTime23IsManualCaptureRequiredEP24ChiFeature2RequestObject+0x94>
   2d988: c1 06 00 54  	b.ne	0x2da60 <_ZNK19ChiFeature2RealTime23IsManualCaptureRequiredEP24ChiFeature2RequestObject+0x100>
   2d990: b8 6e 00 94  	bl	0x49470 <_ZNK15ChiFeature2Base21GetFeaturePrivContextEP24ChiFeature2RequestObject@plt>
   2d994: e0 05 00 b4  	cbz	x0, 0x2da50 <_ZNK19ChiFeature2RealTime23IsManualCaptureRequiredEP24ChiFeature2RequestObject+0xf0>
   2d9a4: 2c 00 00 14  	b	0x2da54 <_ZNK19ChiFeature2RealTime23IsManualCaptureRequiredEP24ChiFeature2RequestObject+0xf4>
   2d9a8: e8 00 00 f0  	adrp	x8, 0x4c000 <_ZNK19ChiFeature2RealTime23IsManualCaptureRequiredEP24ChiFeature2RequestObject+0xc4>
   2d9b4: e8 04 00 36  	tbz	w8, #0, 0x2da50 <_ZNK19ChiFeature2RealTime23IsManualCaptureRequiredEP24ChiFeature2RequestObject+0xf0>
   2d9b8: e9 00 00 f0  	adrp	x9, 0x4c000 <_ZNK19ChiFeature2RealTime23IsManualCaptureRequiredEP24ChiFeature2RequestObject+0xd4>
   2d9bc: 13 ff ff d0  	adrp	x19, 0xf000 <_ZNK19ChiFeature2RealTime13OnGetZSLPortsEPK24ChiFeature2RequestObject+0x46c>
   2d9d0: 01 02 00 54  	b.ne	0x2da10 <_ZNK19ChiFeature2RealTime23IsManualCaptureRequiredEP24ChiFeature2RequestObject+0xb0>
   2d9e8: 21 ff ff f0  	adrp	x1, 0x14000 <_ZNK19ChiFeature2RealTime23IsManualCaptureRequiredEP24ChiFeature2RequestObject+0x24>
   2d9ec: 22 ff ff d0  	adrp	x2, 0x13000 <_ZNK19ChiFeature2RealTime23IsManualCaptureRequiredEP24ChiFeature2RequestObject+0x24>
   2d9f0: 05 ff ff f0  	adrp	x5, 0x10000 <_ZNK19ChiFeature2RealTime23IsManualCaptureRequiredEP24ChiFeature2RequestObject+0x1c>
   2da24: 21 ff ff d0  	adrp	x1, 0x13000 <_ZNK19ChiFeature2RealTime23IsManualCaptureRequiredEP24ChiFeature2RequestObject+0x5c>
   2da2c: 00 ff ff 90  	adrp	x0, 0xd000 <_ZNK19ChiFeature2RealTime23IsManualCaptureRequiredEP24ChiFeature2RequestObject+0x4c>
   2da30: 03 ff ff f0  	adrp	x3, 0x10000 <_ZNK19ChiFeature2RealTime23IsManualCaptureRequiredEP24ChiFeature2RequestObject+0x5c>
   2da34: 25 ff ff d0  	adrp	x5, 0x13000 <_ZNK19ChiFeature2RealTime23IsManualCaptureRequiredEP24ChiFeature2RequestObject+0x6c>
   2da4c: 45 6e 00 94  	bl	0x49360 <_ZN6ChiLog9LogSystemEPKcS1_S1_S1_iS1_z@plt>
   2da80: c3 ff ff 17  	b	0x2d98c <_ZNK19ChiFeature2RealTime23IsManualCaptureRequiredEP24ChiFeature2RequestObject+0x2c>
000000000002da88 <_ZNK19ChiFeature2RealTime41PopulateConfigurationsForSensorModeChangeEP24ChiFeature2RequestObjectP11ChiMetadata>:
   2daac: a1 06 00 b4  	cbz	x1, 0x2db80 <_ZNK19ChiFeature2RealTime41PopulateConfigurationsForSensorModeChangeEP24ChiFeature2RequestObjectP11ChiMetadata+0xf8>
   2dab8: f8 00 00 f0  	adrp	x24, 0x4c000 <_ZNK19ChiFeature2RealTime41PopulateConfigurationsForSensorModeChangeEP24ChiFeature2RequestObjectP11ChiMetadata+0xac>
   2dad0: c1 05 00 54  	b.ne	0x2db88 <_ZNK19ChiFeature2RealTime41PopulateConfigurationsForSensorModeChangeEP24ChiFeature2RequestObjectP11ChiMetadata+0x100>
   2dad8: 69 06 00 b4  	cbz	x9, 0x2dba4 <_ZNK19ChiFeature2RealTime41PopulateConfigurationsForSensorModeChangeEP24ChiFeature2RequestObjectP11ChiMetadata+0x11c>
   2dae0: 28 06 28 36  	tbz	w8, #5, 0x2dba4 <_ZNK19ChiFeature2RealTime41PopulateConfigurationsForSensorModeChangeEP24ChiFeature2RequestObjectP11ChiMetadata+0x11c>
   2dae8: f6 05 00 b4  	cbz	x22, 0x2dba4 <_ZNK19ChiFeature2RealTime41PopulateConfigurationsForSensorModeChangeEP24ChiFeature2RequestObjectP11ChiMetadata+0x11c>
   2daf4: 9b 6f 00 94  	bl	0x49960 <_ZN16ChiFeature2Utils34UpdateConfigurationForInSensorZoomEP11ChiMetadataP27ChiFeature2InSensorZoomInfo@plt>
   2db08: 61 06 00 54  	b.ne	0x2dbd4 <_ZNK19ChiFeature2RealTime41PopulateConfigurationsForSensorModeChangeEP24ChiFeature2RequestObjectP11ChiMetadata+0x14c>
   2db14: 69 01 00 34  	cbz	w9, 0x2db40 <_ZNK19ChiFeature2RealTime41PopulateConfigurationsForSensorModeChangeEP24ChiFeature2RequestObjectP11ChiMetadata+0xb8>
   2db30: a0 00 00 54  	b.eq	0x2db44 <_ZNK19ChiFeature2RealTime41PopulateConfigurationsForSensorModeChangeEP24ChiFeature2RequestObjectP11ChiMetadata+0xbc>
   2db3c: 41 ff ff 54  	b.ne	0x2db24 <_ZNK19ChiFeature2RealTime41PopulateConfigurationsForSensorModeChangeEP24ChiFeature2RequestObjectP11ChiMetadata+0x9c>
   2db48: 00 03 00 b4  	cbz	x0, 0x2dba8 <_ZNK19ChiFeature2RealTime41PopulateConfigurationsForSensorModeChangeEP24ChiFeature2RequestObjectP11ChiMetadata+0x120>
   2db54: a1 02 00 54  	b.ne	0x2dba8 <_ZNK19ChiFeature2RealTime41PopulateConfigurationsForSensorModeChangeEP24ChiFeature2RequestObjectP11ChiMetadata+0x120>
   2db78: 7e 6f 00 94  	bl	0x49970 <_ZN19ChiMcxRoiTranslator27TranslateRequestChiMetadataER16ChiMcxSensorModeS1_R11ChiMetadataS3_i@plt>
   2db7c: 0b 00 00 14  	b	0x2dba8 <_ZNK19ChiFeature2RealTime41PopulateConfigurationsForSensorModeChangeEP24ChiFeature2RequestObjectP11ChiMetadata+0x120>
   2db84: 09 00 00 14  	b	0x2dba8 <_ZNK19ChiFeature2RealTime41PopulateConfigurationsForSensorModeChangeEP24ChiFeature2RequestObjectP11ChiMetadata+0x120>
   2dba0: e9 f9 ff b5  	cbnz	x9, 0x2dadc <_ZNK19ChiFeature2RealTime41PopulateConfigurationsForSensorModeChangeEP24ChiFeature2RequestObjectP11ChiMetadata+0x54>
   2dbb4: c1 01 00 54  	b.ne	0x2dbec <_ZNK19ChiFeature2RealTime41PopulateConfigurationsForSensorModeChangeEP24ChiFeature2RequestObjectP11ChiMetadata+0x164>
   2dbe8: c9 ff ff 17  	b	0x2db0c <_ZNK19ChiFeature2RealTime41PopulateConfigurationsForSensorModeChangeEP24ChiFeature2RequestObjectP11ChiMetadata+0x84>
   2dc04: 93 6e 00 94  	bl	0x49650 <_ZN15ExtensionModule11GetInstanceEv@plt>
   2dc0c: f4 00 00 f0  	adrp	x20, 0x4c000 <_ZNK19ChiFeature2RealTime41PopulateConfigurationsForSensorModeChangeEP24ChiFeature2RequestObjectP11ChiMetadata+0x200>
   2dc1c: 21 05 00 54  	b.ne	0x2dcc0 <_ZNK19ChiFeature2RealTime41PopulateConfigurationsForSensorModeChangeEP24ChiFeature2RequestObjectP11ChiMetadata+0x238>
   2dc30: 89 07 00 54  	b.ls	0x2dd20 <_ZNK19ChiFeature2RealTime41PopulateConfigurationsForSensorModeChangeEP24ChiFeature2RequestObjectP11ChiMetadata+0x298>
   2dc34: 87 6e 00 94  	bl	0x49650 <_ZN15ExtensionModule11GetInstanceEv@plt>
   2dc44: a1 04 00 54  	b.ne	0x2dcd8 <_ZNK19ChiFeature2RealTime41PopulateConfigurationsForSensorModeChangeEP24ChiFeature2RequestObjectP11ChiMetadata+0x250>
   2dc54: e8 00 00 54  	b.hi	0x2dc70 <_ZNK19ChiFeature2RealTime41PopulateConfigurationsForSensorModeChangeEP24ChiFeature2RequestObjectP11ChiMetadata+0x1e8>
   2dc64: 61 00 00 54  	b.ne	0x2dc70 <_ZNK19ChiFeature2RealTime41PopulateConfigurationsForSensorModeChangeEP24ChiFeature2RequestObjectP11ChiMetadata+0x1e8>
   2dc6c: 11 00 00 14  	b	0x2dcb0 <_ZNK19ChiFeature2RealTime41PopulateConfigurationsForSensorModeChangeEP24ChiFeature2RequestObjectP11ChiMetadata+0x228>
   2dc70: 78 6e 00 94  	bl	0x49650 <_ZN15ExtensionModule11GetInstanceEv@plt>
   2dc80: e1 03 00 54  	b.ne	0x2dcfc <_ZNK19ChiFeature2RealTime41PopulateConfigurationsForSensorModeChangeEP24ChiFeature2RequestObjectP11ChiMetadata+0x274>
   2dc90: 69 00 00 54  	b.ls	0x2dc9c <_ZNK19ChiFeature2RealTime41PopulateConfigurationsForSensorModeChangeEP24ChiFeature2RequestObjectP11ChiMetadata+0x214>
   2dc98: 06 00 00 14  	b	0x2dcb0 <_ZNK19ChiFeature2RealTime41PopulateConfigurationsForSensorModeChangeEP24ChiFeature2RequestObjectP11ChiMetadata+0x228>
   2dcd4: d3 ff ff 17  	b	0x2dc20 <_ZNK19ChiFeature2RealTime41PopulateConfigurationsForSensorModeChangeEP24ChiFeature2RequestObjectP11ChiMetadata+0x198>
   2dcf8: d4 ff ff 17  	b	0x2dc48 <_ZNK19ChiFeature2RealTime41PopulateConfigurationsForSensorModeChangeEP24ChiFeature2RequestObjectP11ChiMetadata+0x1c0>
   2dd1c: da ff ff 17  	b	0x2dc84 <_ZNK19ChiFeature2RealTime41PopulateConfigurationsForSensorModeChangeEP24ChiFeature2RequestObjectP11ChiMetadata+0x1fc>
000000000002dd30 <_ZN19ChiFeature2RealTime19GetRegOutDimensionsEjjPjS0_>:
   2dd58: f8 00 00 f0  	adrp	x24, 0x4c000 <_ZN19ChiFeature2RealTime19GetRegOutDimensionsEjjPjS0_+0xa4>
   2dd80: 89 06 28 36  	tbz	w9, #5, 0x2de50 <_ZN19ChiFeature2RealTime19GetRegOutDimensionsEjjPjS0_+0x120>
   2dd84: e8 00 00 f0  	adrp	x8, 0x4c000 <_ZN19ChiFeature2RealTime19GetRegOutDimensionsEjjPjS0_+0xd0>
   2dd88: 17 ff ff d0  	adrp	x23, 0xf000 <_ZNK19ChiFeature2RealTime41PopulateConfigurationsForSensorModeChangeEP24ChiFeature2RequestObjectP11ChiMetadata+0x288>
   2dd8c: 39 ff ff f0  	adrp	x25, 0x14000 <_ZNK19ChiFeature2RealTime41PopulateConfigurationsForSensorModeChangeEP24ChiFeature2RequestObjectP11ChiMetadata+0x2a0>
   2dda0: c1 02 00 54  	b.ne	0x2ddf8 <_ZN19ChiFeature2RealTime19GetRegOutDimensionsEjjPjS0_+0xc8>
   2ddbc: 21 ff ff f0  	adrp	x1, 0x14000 <_ZN19ChiFeature2RealTime19GetRegOutDimensionsEjjPjS0_+0x28>
   2ddc0: 02 ff ff b0  	adrp	x2, 0xe000 <_ZN19ChiFeature2RealTime19GetRegOutDimensionsEjjPjS0_+0x14>
   2ddc4: 25 ff ff d0  	adrp	x5, 0x13000 <_ZN19ChiFeature2RealTime19GetRegOutDimensionsEjjPjS0_+0x2c>
   2de14: 20 ff ff d0  	adrp	x0, 0x13000 <_ZN19ChiFeature2RealTime19GetRegOutDimensionsEjjPjS0_+0x7c>
   2de18: 21 ff ff 90  	adrp	x1, 0x11000 <_ZN19ChiFeature2RealTime19GetRegOutDimensionsEjjPjS0_+0x78>
   2de1c: 23 ff ff d0  	adrp	x3, 0x13000 <_ZN19ChiFeature2RealTime19GetRegOutDimensionsEjjPjS0_+0x84>
   2de20: 05 ff ff f0  	adrp	x5, 0x10000 <_ZN19ChiFeature2RealTime19GetRegOutDimensionsEjjPjS0_+0x7c>
   2de4c: 45 6d 00 94  	bl	0x49360 <_ZN6ChiLog9LogSystemEPKcS1_S1_S1_iS1_z@plt>
   2de54: 29 ff ff f0  	adrp	x9, 0x14000 <_ZN19ChiFeature2RealTime19GetRegOutDimensionsEjjPjS0_+0xc0>
   2de70: a4 0d 00 54  	b.mi	0x2e024 <_ZN19ChiFeature2RealTime19GetRegOutDimensionsEjjPjS0_+0x2f4>
   2de78: ca 06 28 36  	tbz	w10, #5, 0x2df50 <_ZN19ChiFeature2RealTime19GetRegOutDimensionsEjjPjS0_+0x220>
   2de7c: eb 00 00 f0  	adrp	x11, 0x4c000 <_ZN19ChiFeature2RealTime19GetRegOutDimensionsEjjPjS0_+0x1c8>
   2de80: 39 ff ff f0  	adrp	x25, 0x14000 <_ZN19ChiFeature2RealTime19GetRegOutDimensionsEjjPjS0_+0xec>
   2de90: 01 03 00 54  	b.ne	0x2def0 <_ZN19ChiFeature2RealTime19GetRegOutDimensionsEjjPjS0_+0x1c0>
   2de94: 17 ff ff d0  	adrp	x23, 0xf000 <_ZN19ChiFeature2RealTime19GetRegOutDimensionsEjjPjS0_+0xec>
   2deb4: 21 ff ff f0  	adrp	x1, 0x14000 <_ZN19ChiFeature2RealTime19GetRegOutDimensionsEjjPjS0_+0x120>
   2deb8: 02 ff ff b0  	adrp	x2, 0xe000 <_ZN19ChiFeature2RealTime19GetRegOutDimensionsEjjPjS0_+0x10c>
   2debc: 25 ff ff d0  	adrp	x5, 0x13000 <_ZN19ChiFeature2RealTime19GetRegOutDimensionsEjjPjS0_+0x124>
   2def0: 17 ff ff d0  	adrp	x23, 0xf000 <_ZN19ChiFeature2RealTime19GetRegOutDimensionsEjjPjS0_+0x148>
   2df14: 20 ff ff d0  	adrp	x0, 0x13000 <_ZN19ChiFeature2RealTime19GetRegOutDimensionsEjjPjS0_+0x17c>
   2df18: 21 ff ff 90  	adrp	x1, 0x11000 <_ZN19ChiFeature2RealTime19GetRegOutDimensionsEjjPjS0_+0x178>
   2df20: 23 ff ff d0  	adrp	x3, 0x13000 <_ZN19ChiFeature2RealTime19GetRegOutDimensionsEjjPjS0_+0x188>
   2df24: 05 ff ff f0  	adrp	x5, 0x10000 <_ZN19ChiFeature2RealTime19GetRegOutDimensionsEjjPjS0_+0x180>
   2df4c: 05 6d 00 94  	bl	0x49360 <_ZN6ChiLog9LogSystemEPKcS1_S1_S1_iS1_z@plt>
   2df68: 24 06 00 54  	b.mi	0x2e02c <_ZN19ChiFeature2RealTime19GetRegOutDimensionsEjjPjS0_+0x2fc>
   2df70: ae 05 00 36  	tbz	w14, #0, 0x2e024 <_ZN19ChiFeature2RealTime19GetRegOutDimensionsEjjPjS0_+0x2f4>
   2df74: ea 00 00 f0  	adrp	x10, 0x4c000 <_ZN19ChiFeature2RealTime19GetRegOutDimensionsEjjPjS0_+0x2c0>
   2df84: 81 02 00 54  	b.ne	0x2dfd4 <_ZN19ChiFeature2RealTime19GetRegOutDimensionsEjjPjS0_+0x2a4>
   2df88: 17 ff ff d0  	adrp	x23, 0xf000 <_ZN19ChiFeature2RealTime19GetRegOutDimensionsEjjPjS0_+0x1e0>
   2dfa4: 21 ff ff f0  	adrp	x1, 0x14000 <_ZN19ChiFeature2RealTime19GetRegOutDimensionsEjjPjS0_+0x210>
   2dfa8: 02 ff ff b0  	adrp	x2, 0xe000 <_ZN19ChiFeature2RealTime19GetRegOutDimensionsEjjPjS0_+0x1fc>
   2dfac: 25 ff ff d0  	adrp	x5, 0x13000 <_ZN19ChiFeature2RealTime19GetRegOutDimensionsEjjPjS0_+0x214>
   2dfd4: 17 ff ff d0  	adrp	x23, 0xf000 <_ZN19ChiFeature2RealTime19GetRegOutDimensionsEjjPjS0_+0x22c>
   2dff0: 21 ff ff d0  	adrp	x1, 0x13000 <_ZN19ChiFeature2RealTime19GetRegOutDimensionsEjjPjS0_+0x258>
   2dff8: 00 ff ff 90  	adrp	x0, 0xd000 <_ZN19ChiFeature2RealTime19GetRegOutDimensionsEjjPjS0_+0x248>
   2dffc: 23 ff ff d0  	adrp	x3, 0x13000 <_ZN19ChiFeature2RealTime19GetRegOutDimensionsEjjPjS0_+0x264>
   2e000: 25 ff ff d0  	adrp	x5, 0x14000 <_ZN19ChiFeature2RealTime19GetRegOutDimensionsEjjPjS0_+0x268>
   2e020: d0 6c 00 94  	bl	0x49360 <_ZN6ChiLog9LogSystemEPKcS1_S1_S1_iS1_z@plt>
   2e028: 02 00 00 14  	b	0x2e030 <_ZN19ChiFeature2RealTime19GetRegOutDimensionsEjjPjS0_+0x300>
   2e098: 81 0a 00 b4  	cbz	x1, 0x2e1e8 <_ZN19ChiFeature2RealTime19GetRegOutDimensionsEjjPjS0_+0x4b8>
   2e0a4: 6b 6d 00 94  	bl	0x49650 <_ZN15ExtensionModule11GetInstanceEv@plt>
   2e0ac: ad 6d 00 94  	bl	0x49760 <_ZN15ExtensionModule15GetVendorTagOpsEP16ChiVendorTagsOps@plt>
   2e0cc: e0 fe ff d0  	adrp	x0, 0xc000 <_ZN19ChiFeature2RealTime19GetRegOutDimensionsEjjPjS0_+0x314>
   2e0d0: 21 ff ff b0  	adrp	x1, 0x13000 <_ZN19ChiFeature2RealTime19GetRegOutDimensionsEjjPjS0_+0x334>
   2e0e8: 20 08 00 35  	cbnz	w0, 0x2e1ec <_ZN19ChiFeature2RealTime19GetRegOutDimensionsEjjPjS0_+0x4bc>
   2e0ec: 59 6d 00 94  	bl	0x49650 <_ZN15ExtensionModule11GetInstanceEv@plt>
   2e0f4: 22 09 00 54  	b.hs	0x2e218 <_ZN19ChiFeature2RealTime19GetRegOutDimensionsEjjPjS0_+0x4e8>
   2e138: a0 05 00 34  	cbz	w0, 0x2e1ec <_ZN19ChiFeature2RealTime19GetRegOutDimensionsEjjPjS0_+0x4bc>
   2e13c: e9 00 00 d0  	adrp	x9, 0x4c000 <_ZN19ChiFeature2RealTime19GetRegOutDimensionsEjjPjS0_+0x484>
   2e148: 29 05 28 36  	tbz	w9, #5, 0x2e1ec <_ZN19ChiFeature2RealTime19GetRegOutDimensionsEjjPjS0_+0x4bc>
   2e14c: ea 00 00 d0  	adrp	x10, 0x4c000 <_ZN19ChiFeature2RealTime19GetRegOutDimensionsEjjPjS0_+0x494>
   2e150: f4 fe ff f0  	adrp	x20, 0xd000 <_ZN19ChiFeature2RealTime19GetRegOutDimensionsEjjPjS0_+0x39c>
   2e164: 01 02 00 54  	b.ne	0x2e1a4 <_ZN19ChiFeature2RealTime19GetRegOutDimensionsEjjPjS0_+0x474>
   2e17c: 21 ff ff d0  	adrp	x1, 0x14000 <_ZN19ChiFeature2RealTime19GetRegOutDimensionsEjjPjS0_+0x3e4>
   2e180: 22 ff ff b0  	adrp	x2, 0x13000 <_ZN19ChiFeature2RealTime19GetRegOutDimensionsEjjPjS0_+0x3e4>
   2e184: 05 ff ff b0  	adrp	x5, 0xf000 <_ZN19ChiFeature2RealTime19GetRegOutDimensionsEjjPjS0_+0x3d8>
   2e1b8: 01 ff ff f0  	adrp	x1, 0x11000 <_ZN19ChiFeature2RealTime19GetRegOutDimensionsEjjPjS0_+0x414>
   2e1c0: 20 ff ff b0  	adrp	x0, 0x13000 <_ZN19ChiFeature2RealTime19GetRegOutDimensionsEjjPjS0_+0x424>
   2e1c4: 03 ff ff b0  	adrp	x3, 0xf000 <_ZN19ChiFeature2RealTime19GetRegOutDimensionsEjjPjS0_+0x418>
   2e1c8: 25 ff ff b0  	adrp	x5, 0x13000 <_ZN19ChiFeature2RealTime19GetRegOutDimensionsEjjPjS0_+0x42c>
   2e1e0: 60 6c 00 94  	bl	0x49360 <_ZN6ChiLog9LogSystemEPKcS1_S1_S1_iS1_z@plt>
   2e1e4: 02 00 00 14  	b	0x2e1ec <_ZN19ChiFeature2RealTime19GetRegOutDimensionsEjjPjS0_+0x4bc>
   2e1f8: e1 00 00 54  	b.ne	0x2e214 <_ZN19ChiFeature2RealTime19GetRegOutDimensionsEjjPjS0_+0x4e4>
000000000002e220 <_ZN19ChiFeature2RealTime19CreateROITranslatorEP21ChiFeature2Identifier>:
   2e244: f5 00 00 d0  	adrp	x21, 0x4c000 <_ZN19ChiFeature2RealTime19CreateROITranslatorEP21ChiFeature2Identifier+0x9c>
   2e270: 41 02 00 54  	b.ne	0x2e2b8 <_ZN19ChiFeature2RealTime19CreateROITranslatorEP21ChiFeature2Identifier+0x98>
   2e278: 41 03 00 54  	b.ne	0x2e2e0 <_ZN19ChiFeature2RealTime19CreateROITranslatorEP21ChiFeature2Identifier+0xc0>
   2e27c: f4 03 00 b4  	cbz	x20, 0x2e2f8 <_ZN19ChiFeature2RealTime19CreateROITranslatorEP21ChiFeature2Identifier+0xd8>
   2e290: 42 03 00 54  	b.hs	0x2e2f8 <_ZN19ChiFeature2RealTime19CreateROITranslatorEP21ChiFeature2Identifier+0xd8>
   2e298: 0a 03 00 b4  	cbz	x10, 0x2e2f8 <_ZN19ChiFeature2RealTime19CreateROITranslatorEP21ChiFeature2Identifier+0xd8>
   2e2ac: 62 02 00 54  	b.hs	0x2e2f8 <_ZN19ChiFeature2RealTime19CreateROITranslatorEP21ChiFeature2Identifier+0xd8>
   2e2b4: 12 00 00 14  	b	0x2e2fc <_ZN19ChiFeature2RealTime19CreateROITranslatorEP21ChiFeature2Identifier+0xdc>
   2e2dc: 00 fd ff 54  	b.eq	0x2e27c <_ZN19ChiFeature2RealTime19CreateROITranslatorEP21ChiFeature2Identifier+0x5c>
   2e2f4: 74 fc ff b5  	cbnz	x20, 0x2e280 <_ZN19ChiFeature2RealTime19CreateROITranslatorEP21ChiFeature2Identifier+0x60>
   2e308: 81 0c 00 54  	b.ne	0x2e498 <_ZN19ChiFeature2RealTime19CreateROITranslatorEP21ChiFeature2Identifier+0x278>
   2e310: 68 09 00 b4  	cbz	x8, 0x2e43c <_ZN19ChiFeature2RealTime19CreateROITranslatorEP21ChiFeature2Identifier+0x21c>
   2e318: 35 09 00 b4  	cbz	x21, 0x2e43c <_ZN19ChiFeature2RealTime19CreateROITranslatorEP21ChiFeature2Identifier+0x21c>
   2e320: 4d 03 00 b4  	cbz	x13, 0x2e388 <_ZN19ChiFeature2RealTime19CreateROITranslatorEP21ChiFeature2Identifier+0x168>
   2e334: 93 6d 00 94  	bl	0x49980 <_ZN16ChiFeature2Utils37FillMcxSensorModeArrayForInSensorZoomEP17LogicalCameraInfojRNSt3__113unordered_mapI16ChiMcxSensorModejNS4_15ChiHashFunctionENS2_8equal_toIS4_EENS2_9allocatorINS2_4pairIKS4_jEEEEEE@plt>
   2e33c: a0 02 00 54  	b.eq	0x2e390 <_ZN19ChiFeature2RealTime19CreateROITranslatorEP21ChiFeature2Identifier+0x170>
   2e344: c0 07 00 35  	cbnz	w0, 0x2e43c <_ZN19ChiFeature2RealTime19CreateROITranslatorEP21ChiFeature2Identifier+0x21c>
   2e34c: 91 6d 00 94  	bl	0x49990 <_ZN19ChiMcxRoiTranslator6CreateEPK17LogicalCameraInfo@plt>
   2e350: 30 ff ff d0  	adrp	x16, 0x14000 <_ZN19ChiFeature2RealTime19CreateROITranslatorEP21ChiFeature2Identifier+0xc8>
   2e36c: 60 06 00 b4  	cbz	x0, 0x2e438 <_ZN19ChiFeature2RealTime19CreateROITranslatorEP21ChiFeature2Identifier+0x218>
   2e37c: 89 6d 00 94  	bl	0x499a0 <_ZN19ChiMcxRoiTranslator9ConfigureERNSt3__113unordered_mapI16ChiMcxSensorModejNS2_15ChiHashFunctionENS0_8equal_toIS2_EENS0_9allocatorINS0_4pairIKS2_jEEEEEEP22ChiMcxLayoutDescriptorRK25ChiROIConfigurationParams@plt>
   2e384: 2e 00 00 14  	b	0x2e43c <_ZN19ChiFeature2RealTime19CreateROITranslatorEP21ChiFeature2Identifier+0x21c>
   2e38c: 2c 00 00 14  	b	0x2e43c <_ZN19ChiFeature2RealTime19CreateROITranslatorEP21ChiFeature2Identifier+0x21c>
   2e390: f1 00 00 d0  	adrp	x17, 0x4c000 <_ZN19ChiFeature2RealTime19CreateROITranslatorEP21ChiFeature2Identifier+0x1e8>
   2e39c: ea 04 30 36  	tbz	w10, #6, 0x2e438 <_ZN19ChiFeature2RealTime19CreateROITranslatorEP21ChiFeature2Identifier+0x218>
   2e3a0: e1 00 00 d0  	adrp	x1, 0x4c000 <_ZN19ChiFeature2RealTime19CreateROITranslatorEP21ChiFeature2Identifier+0x1f8>
   2e3a4: 13 ff ff b0  	adrp	x19, 0xf000 <_ZN19ChiFeature2RealTime19CreateROITranslatorEP21ChiFeature2Identifier+0x108>
   2e3b8: 01 02 00 54  	b.ne	0x2e3f8 <_ZN19ChiFeature2RealTime19CreateROITranslatorEP21ChiFeature2Identifier+0x1d8>
   2e3d0: 21 ff ff d0  	adrp	x1, 0x14000 <_ZN19ChiFeature2RealTime19CreateROITranslatorEP21ChiFeature2Identifier+0x148>
   2e3d4: 22 ff ff d0  	adrp	x2, 0x14000 <_ZN19ChiFeature2RealTime19CreateROITranslatorEP21ChiFeature2Identifier+0x14c>
   2e3d8: e5 fe ff f0  	adrp	x5, 0xd000 <_ZN19ChiFeature2RealTime19CreateROITranslatorEP21ChiFeature2Identifier+0x134>
   2e40c: 01 ff ff 90  	adrp	x1, 0xe000 <_ZN19ChiFeature2RealTime19CreateROITranslatorEP21ChiFeature2Identifier+0x16c>
   2e414: 20 ff ff 90  	adrp	x0, 0x12000 <_ZN19ChiFeature2RealTime19CreateROITranslatorEP21ChiFeature2Identifier+0x184>
   2e418: e3 fe ff f0  	adrp	x3, 0xd000 <_ZN19ChiFeature2RealTime19CreateROITranslatorEP21ChiFeature2Identifier+0x174>
   2e41c: 25 ff ff b0  	adrp	x5, 0x13000 <_ZN19ChiFeature2RealTime19CreateROITranslatorEP21ChiFeature2Identifier+0x190>
   2e434: cb 6b 00 94  	bl	0x49360 <_ZN6ChiLog9LogSystemEPKcS1_S1_S1_iS1_z@plt>
   2e440: a0 00 00 b4  	cbz	x0, 0x2e454 <_ZN19ChiFeature2RealTime19CreateROITranslatorEP21ChiFeature2Identifier+0x234>
   2e450: b3 ff ff b5  	cbnz	x19, 0x2e444 <_ZN19ChiFeature2RealTime19CreateROITranslatorEP21ChiFeature2Identifier+0x224>
   2e45c: a0 00 00 b4  	cbz	x0, 0x2e470 <_ZN19ChiFeature2RealTime19CreateROITranslatorEP21ChiFeature2Identifier+0x250>
   2e468: f1 02 00 b5  	cbnz	x17, 0x2e4c4 <_ZN19ChiFeature2RealTime19CreateROITranslatorEP21ChiFeature2Identifier+0x2a4>
   2e47c: 21 02 00 54  	b.ne	0x2e4c0 <_ZN19ChiFeature2RealTime19CreateROITranslatorEP21ChiFeature2Identifier+0x2a0>
   2e4b8: e8 f2 ff b5  	cbnz	x8, 0x2e314 <_ZN19ChiFeature2RealTime19CreateROITranslatorEP21ChiFeature2Identifier+0xf4>
   2e4bc: e0 ff ff 17  	b	0x2e43c <_ZN19ChiFeature2RealTime19CreateROITranslatorEP21ChiFeature2Identifier+0x21c>
000000000002e4c8 <_ZN19ChiFeature2RealTime19SetStreamDimensionsEP11ChiMetadata>:
   2e500: e8 00 00 d0  	adrp	x8, 0x4c000 <_ZN19ChiFeature2RealTime19SetStreamDimensionsEP11ChiMetadata+0xb0>
   2e514: 81 1b 00 54  	b.ne	0x2e884 <_ZN19ChiFeature2RealTime19SetStreamDimensionsEP11ChiMetadata+0x3bc>
   2e51c: 34 1c 00 b4  	cbz	x20, 0x2e8a0 <_ZN19ChiFeature2RealTime19SetStreamDimensionsEP11ChiMetadata+0x3d8>
   2e524: ea 1b 00 34  	cbz	w10, 0x2e8a0 <_ZN19ChiFeature2RealTime19SetStreamDimensionsEP11ChiMetadata+0x3d8>
   2e528: fc 00 00 d0  	adrp	x28, 0x4c000 <_ZN19ChiFeature2RealTime19SetStreamDimensionsEP11ChiMetadata+0xd8>
   2e52c: 1a ff ff b0  	adrp	x26, 0xf000 <_ZN19ChiFeature2RealTime19CreateROITranslatorEP21ChiFeature2Identifier+0x290>
   2e53c: 24 00 00 14  	b	0x2e5cc <_ZN19ChiFeature2RealTime19SetStreamDimensionsEP11ChiMetadata+0x104>
   2e56c: 89 6c 00 94  	bl	0x49790 <_ZN15UsecaseSelector15IsPreviewStreamEPK14camera3_stream@plt>
   2e574: 20 ff ff b0  	adrp	x0, 0x13000 <_ZN19ChiFeature2RealTime19SetStreamDimensionsEP11ChiMetadata+0x40>
   2e578: 01 ff ff f0  	adrp	x1, 0x11000 <_ZN19ChiFeature2RealTime19SetStreamDimensionsEP11ChiMetadata+0x3c>
   2e57c: 03 ff ff d0  	adrp	x3, 0x10000 <_ZN19ChiFeature2RealTime19SetStreamDimensionsEP11ChiMetadata+0x3c>
   2e580: 05 ff ff f0  	adrp	x5, 0x11000 <_ZN19ChiFeature2RealTime19SetStreamDimensionsEP11ChiMetadata+0x44>
   2e5b0: 6c 6b 00 94  	bl	0x49360 <_ZN6ChiLog9LogSystemEPKcS1_S1_S1_iS1_z@plt>
   2e5b8: 6e 05 00 34  	cbz	w14, 0x2e664 <_ZN19ChiFeature2RealTime19SetStreamDimensionsEP11ChiMetadata+0x19c>
   2e5c8: c2 16 00 54  	b.hs	0x2e8a0 <_ZN19ChiFeature2RealTime19SetStreamDimensionsEP11ChiMetadata+0x3d8>
   2e5d8: eb fe 2f 36  	tbz	w11, #5, 0x2e5b4 <_ZN19ChiFeature2RealTime19SetStreamDimensionsEP11ChiMetadata+0xec>
   2e5dc: f1 00 00 d0  	adrp	x17, 0x4c000 <_ZN19ChiFeature2RealTime19SetStreamDimensionsEP11ChiMetadata+0x18c>
   2e5ec: a1 fa ff 54  	b.ne	0x2e540 <_ZN19ChiFeature2RealTime19SetStreamDimensionsEP11ChiMetadata+0x78>
   2e61c: 5d 6c 00 94  	bl	0x49790 <_ZN15UsecaseSelector15IsPreviewStreamEPK14camera3_stream@plt>
   2e620: 21 ff ff d0  	adrp	x1, 0x14000 <_ZN19ChiFeature2RealTime19SetStreamDimensionsEP11ChiMetadata+0xf0>
   2e624: 02 ff ff f0  	adrp	x2, 0x11000 <_ZN19ChiFeature2RealTime19SetStreamDimensionsEP11ChiMetadata+0xe8>
   2e628: 05 ff ff d0  	adrp	x5, 0x10000 <_ZN19ChiFeature2RealTime19SetStreamDimensionsEP11ChiMetadata+0xe8>
   2e660: b8 ff ff 17  	b	0x2e540 <_ZN19ChiFeature2RealTime19SetStreamDimensionsEP11ChiMetadata+0x78>
   2e66c: e1 00 00 54  	b.ne	0x2e688 <_ZN19ChiFeature2RealTime19SetStreamDimensionsEP11ChiMetadata+0x1c0>
   2e674: af 00 00 36  	tbz	w15, #0, 0x2e688 <_ZN19ChiFeature2RealTime19SetStreamDimensionsEP11ChiMetadata+0x1c0>
   2e684: 41 08 00 54  	b.ne	0x2e78c <_ZN19ChiFeature2RealTime19SetStreamDimensionsEP11ChiMetadata+0x2c4>
   2e68c: 41 6c 00 94  	bl	0x49790 <_ZN15UsecaseSelector15IsPreviewStreamEPK14camera3_stream@plt>
   2e690: 60 f9 ff 34  	cbz	w0, 0x2e5bc <_ZN19ChiFeature2RealTime19SetStreamDimensionsEP11ChiMetadata+0xf4>
   2e698: e1 04 28 36  	tbz	w1, #5, 0x2e734 <_ZN19ChiFeature2RealTime19SetStreamDimensionsEP11ChiMetadata+0x26c>
   2e69c: f0 00 00 d0  	adrp	x16, 0x4c000 <_ZN19ChiFeature2RealTime19SetStreamDimensionsEP11ChiMetadata+0x24c>
   2e6ac: 21 02 00 54  	b.ne	0x2e6f0 <_ZN19ChiFeature2RealTime19SetStreamDimensionsEP11ChiMetadata+0x228>
   2e6c8: 21 ff ff d0  	adrp	x1, 0x14000 <_ZN19ChiFeature2RealTime19SetStreamDimensionsEP11ChiMetadata+0x198>
   2e6cc: 22 ff ff b0  	adrp	x2, 0x13000 <_ZN19ChiFeature2RealTime19SetStreamDimensionsEP11ChiMetadata+0x198>
   2e6d0: 05 ff ff d0  	adrp	x5, 0x10000 <_ZN19ChiFeature2RealTime19SetStreamDimensionsEP11ChiMetadata+0x190>
   2e704: 01 ff ff f0  	adrp	x1, 0x11000 <_ZN19ChiFeature2RealTime19SetStreamDimensionsEP11ChiMetadata+0x1c8>
   2e710: 20 ff ff b0  	adrp	x0, 0x13000 <_ZN19ChiFeature2RealTime19SetStreamDimensionsEP11ChiMetadata+0x1dc>
   2e714: 03 ff ff d0  	adrp	x3, 0x10000 <_ZN19ChiFeature2RealTime19SetStreamDimensionsEP11ChiMetadata+0x1d4>
   2e718: 25 ff ff b0  	adrp	x5, 0x13000 <_ZN19ChiFeature2RealTime19SetStreamDimensionsEP11ChiMetadata+0x1e4>
   2e730: 0c 6b 00 94  	bl	0x49360 <_ZN6ChiLog9LogSystemEPKcS1_S1_S1_iS1_z@plt>
   2e738: 2c f4 ff b4  	cbz	x12, 0x2e5bc <_ZN19ChiFeature2RealTime19SetStreamDimensionsEP11ChiMetadata+0xf4>
   2e768: e1 fe ff f0  	adrp	x1, 0xd000 <_ZN19ChiFeature2RealTime19SetStreamDimensionsEP11ChiMetadata+0x21c>
   2e76c: 02 ff ff 90  	adrp	x2, 0xe000 <_ZN19ChiFeature2RealTime19SetStreamDimensionsEP11ChiMetadata+0x224>
   2e788: 8d ff ff 17  	b	0x2e5bc <_ZN19ChiFeature2RealTime19SetStreamDimensionsEP11ChiMetadata+0xf4>
   2e790: f1 04 28 36  	tbz	w17, #5, 0x2e82c <_ZN19ChiFeature2RealTime19SetStreamDimensionsEP11ChiMetadata+0x364>
   2e794: ef 00 00 d0  	adrp	x15, 0x4c000 <_ZN19ChiFeature2RealTime19SetStreamDimensionsEP11ChiMetadata+0x344>
   2e7a4: 21 02 00 54  	b.ne	0x2e7e8 <_ZN19ChiFeature2RealTime19SetStreamDimensionsEP11ChiMetadata+0x320>
   2e7c0: 21 ff ff d0  	adrp	x1, 0x14000 <_ZN19ChiFeature2RealTime19SetStreamDimensionsEP11ChiMetadata+0x290>
   2e7c4: 02 ff ff f0  	adrp	x2, 0x11000 <_ZN19ChiFeature2RealTime19SetStreamDimensionsEP11ChiMetadata+0x288>
   2e7c8: 05 ff ff d0  	adrp	x5, 0x10000 <_ZN19ChiFeature2RealTime19SetStreamDimensionsEP11ChiMetadata+0x288>
   2e7fc: 01 ff ff f0  	adrp	x1, 0x11000 <_ZN19ChiFeature2RealTime19SetStreamDimensionsEP11ChiMetadata+0x2c0>
   2e808: 20 ff ff b0  	adrp	x0, 0x13000 <_ZN19ChiFeature2RealTime19SetStreamDimensionsEP11ChiMetadata+0x2d4>
   2e80c: 03 ff ff d0  	adrp	x3, 0x10000 <_ZN19ChiFeature2RealTime19SetStreamDimensionsEP11ChiMetadata+0x2cc>
   2e810: 05 ff ff f0  	adrp	x5, 0x11000 <_ZN19ChiFeature2RealTime19SetStreamDimensionsEP11ChiMetadata+0x2d4>
   2e828: ce 6a 00 94  	bl	0x49360 <_ZN6ChiLog9LogSystemEPKcS1_S1_S1_iS1_z@plt>
   2e830: 6b ec ff b4  	cbz	x11, 0x2e5bc <_ZN19ChiFeature2RealTime19SetStreamDimensionsEP11ChiMetadata+0xf4>
   2e860: e1 fe ff f0  	adrp	x1, 0xd000 <_ZN19ChiFeature2RealTime19SetStreamDimensionsEP11ChiMetadata+0x314>
   2e864: 02 ff ff d0  	adrp	x2, 0x10000 <_ZN19ChiFeature2RealTime19SetStreamDimensionsEP11ChiMetadata+0x324>
   2e880: 4f ff ff 17  	b	0x2e5bc <_ZN19ChiFeature2RealTime19SetStreamDimensionsEP11ChiMetadata+0xf4>
   2e89c: 34 e4 ff b5  	cbnz	x20, 0x2e520 <_ZN19ChiFeature2RealTime19SetStreamDimensionsEP11ChiMetadata+0x58>
   2e8b0: 41 01 00 54  	b.ne	0x2e8d8 <_ZN19ChiFeature2RealTime19SetStreamDimensionsEP11ChiMetadata+0x410>
000000000002e8e0 <_ZN19ChiFeature2RealTime22UpdateStreamCropEnableEP11ChiMetadata>:
   2e900: 01 03 00 b4  	cbz	x1, 0x2e960 <_ZN19ChiFeature2RealTime22UpdateStreamCropEnableEP11ChiMetadata+0x80>
   2e90c: 51 6b 00 94  	bl	0x49650 <_ZN15ExtensionModule11GetInstanceEv@plt>
   2e914: 48 00 00 b4  	cbz	x8, 0x2e91c <_ZN19ChiFeature2RealTime22UpdateStreamCropEnableEP11ChiMetadata+0x3c>
   2e940: 01 ff ff f0  	adrp	x1, 0x11000 <_ZN19ChiFeature2RealTime19SetStreamDimensionsEP11ChiMetadata+0x404>
   2e944: 02 ff ff 90  	adrp	x2, 0xe000 <_ZN19ChiFeature2RealTime19SetStreamDimensionsEP11ChiMetadata+0x3fc>
   2e96c: e1 00 00 54  	b.ne	0x2e988 <_ZN19ChiFeature2RealTime22UpdateStreamCropEnableEP11ChiMetadata+0xa8>
   2e9b8: 80 01 00 54  	b.eq	0x2e9e8 <_ZN19ChiFeature2RealTime22UpdateStreamCropEnableEP11ChiMetadata+0x108>
   2e9f8: 82 05 00 54  	b.hs	0x2eaa8 <_ZN19ChiFeature2RealTime22UpdateStreamCropEnableEP11ChiMetadata+0x1c8>
   2ea00: 6c 05 00 b5  	cbnz	x12, 0x2eaac <_ZN19ChiFeature2RealTime22UpdateStreamCropEnableEP11ChiMetadata+0x1cc>
   2ea14: e8 00 00 54  	b.hi	0x2ea30 <_ZN19ChiFeature2RealTime22UpdateStreamCropEnableEP11ChiMetadata+0x150>
   2ea24: 9a 00 00 b5  	cbnz	x26, 0x2ea34 <_ZN19ChiFeature2RealTime22UpdateStreamCropEnableEP11ChiMetadata+0x154>
   2ea2c: 06 00 00 14  	b	0x2ea44 <_ZN19ChiFeature2RealTime22UpdateStreamCropEnableEP11ChiMetadata+0x164>
   2ea54: eb 00 00 54  	b.lt	0x2ea70 <_ZN19ChiFeature2RealTime22UpdateStreamCropEnableEP11ChiMetadata+0x190>
   2ea5c: 41 02 00 54  	b.ne	0x2eaa4 <_ZN19ChiFeature2RealTime22UpdateStreamCropEnableEP11ChiMetadata+0x1c4>
   2ea7c: b4 fa ff b4  	cbz	x20, 0x2e9d0 <_ZN19ChiFeature2RealTime22UpdateStreamCropEnableEP11ChiMetadata+0xf0>
   2ea84: 11 01 00 b5  	cbnz	x17, 0x2eaa4 <_ZN19ChiFeature2RealTime22UpdateStreamCropEnableEP11ChiMetadata+0x1c4>
   2eab0: a8 6b 00 94  	bl	0x49950 <_ZNKSt3__120__vector_base_commonILb1EE20__throw_length_errorEv@plt>
   2eb00: 80 01 00 54  	b.eq	0x2eb30 <_ZN19ChiFeature2RealTime22UpdateStreamCropEnableEP11ChiMetadata+0x250>
   2eb40: 82 05 00 54  	b.hs	0x2ebf0 <_ZN19ChiFeature2RealTime22UpdateStreamCropEnableEP11ChiMetadata+0x310>
   2eb48: 6c 05 00 b5  	cbnz	x12, 0x2ebf4 <_ZN19ChiFeature2RealTime22UpdateStreamCropEnableEP11ChiMetadata+0x314>
   2eb5c: e8 00 00 54  	b.hi	0x2eb78 <_ZN19ChiFeature2RealTime22UpdateStreamCropEnableEP11ChiMetadata+0x298>
   2eb6c: 9a 00 00 b5  	cbnz	x26, 0x2eb7c <_ZN19ChiFeature2RealTime22UpdateStreamCropEnableEP11ChiMetadata+0x29c>
   2eb74: 06 00 00 14  	b	0x2eb8c <_ZN19ChiFeature2RealTime22UpdateStreamCropEnableEP11ChiMetadata+0x2ac>
   2eb9c: eb 00 00 54  	b.lt	0x2ebb8 <_ZN19ChiFeature2RealTime22UpdateStreamCropEnableEP11ChiMetadata+0x2d8>
   2eba4: 41 02 00 54  	b.ne	0x2ebec <_ZN19ChiFeature2RealTime22UpdateStreamCropEnableEP11ChiMetadata+0x30c>
   2ebc4: b4 fa ff b4  	cbz	x20, 0x2eb18 <_ZN19ChiFeature2RealTime22UpdateStreamCropEnableEP11ChiMetadata+0x238>
   2ebcc: 11 01 00 b5  	cbnz	x17, 0x2ebec <_ZN19ChiFeature2RealTime22UpdateStreamCropEnableEP11ChiMetadata+0x30c>
   2ebf8: 56 6b 00 94  	bl	0x49950 <_ZNKSt3__120__vector_base_commonILb1EE20__throw_length_errorEv@plt>
000000000002ec00 <_ZN19ChiFeature2RealTimeD2Ev>:
   2ec0c: e8 00 00 d0  	adrp	x8, 0x4c000 <_ZNK19ChiFeature2RealTime21ProcessResultMetadataEP11ChiMetadata+0x34>
   2ec24: e0 00 00 b4  	cbz	x0, 0x2ec40 <_ZN19ChiFeature2RealTimeD2Ev+0x40>
   2ec28: e1 00 00 d0  	adrp	x1, 0x4c000 <_ZNK19ChiFeature2RealTime21ProcessResultMetadataEP11ChiMetadata+0x50>
   2ec30: 22 ff ff 90  	adrp	x2, 0x12000 <_ZN19ChiFeature2RealTime22UpdateStreamCropEnableEP11ChiMetadata+0x2e0>
   2ec3c: ad 6a 00 94  	bl	0x496f0 <_ZN16CHIThreadManager19UnregisterJobFamilyEPFPvS0_EPKcm@plt>
   2ec4c: ad 6a 00 14  	b	0x49700 <_ZN15ChiFeature2BaseD2Ev@plt>
000000000002ec50 <_ZNK19ChiFeature2RealTime21ProcessResultMetadataEP11ChiMetadata>:
   2ec5c: 61 00 00 b4  	cbz	x1, 0x2ec68 <_ZNK19ChiFeature2RealTime21ProcessResultMetadataEP11ChiMetadata+0x18>
   2ec64: 2c 00 00 14  	b	0x2ed14 <_ZNK19ChiFeature2RealTime21ProcessResultMetadataEP11ChiMetadata+0xc4>
   2ec68: e8 00 00 d0  	adrp	x8, 0x4c000 <_ZNK19ChiFeature2RealTime21ProcessResultMetadataEP11ChiMetadata+0x90>
   2ec74: e8 04 00 36  	tbz	w8, #0, 0x2ed10 <_ZNK19ChiFeature2RealTime21ProcessResultMetadataEP11ChiMetadata+0xc0>
   2ec78: e9 00 00 d0  	adrp	x9, 0x4c000 <_ZNK19ChiFeature2RealTime21ProcessResultMetadataEP11ChiMetadata+0xa0>
   2ec7c: 13 ff ff b0  	adrp	x19, 0xf000 <_ZN19ChiFeature2RealTimeD2Ev>
   2ec90: 01 02 00 54  	b.ne	0x2ecd0 <_ZNK19ChiFeature2RealTime21ProcessResultMetadataEP11ChiMetadata+0x80>
   2eca8: 21 ff ff d0  	adrp	x1, 0x14000 <_ZN19ChiFeature2RealTimeD2Ev+0x40>
   2ecac: e2 fe ff f0  	adrp	x2, 0xd000 <_ZN19ChiFeature2RealTimeD2Ev+0x28>
   2ecb0: 25 ff ff b0  	adrp	x5, 0x13000 <_ZN19ChiFeature2RealTimeD2Ev+0x44>
   2ece4: 21 ff ff b0  	adrp	x1, 0x13000 <_ZNK19ChiFeature2RealTime21ProcessResultMetadataEP11ChiMetadata+0x28>
   2ecec: e0 fe ff f0  	adrp	x0, 0xd000 <_ZNK19ChiFeature2RealTime21ProcessResultMetadataEP11ChiMetadata+0x18>
   2ecf0: 23 ff ff b0  	adrp	x3, 0x13000 <_ZNK19ChiFeature2RealTime21ProcessResultMetadataEP11ChiMetadata+0x34>
   2ecf4: 05 ff ff b0  	adrp	x5, 0xf000 <_ZNK19ChiFeature2RealTime21ProcessResultMetadataEP11ChiMetadata+0x28>
   2ed0c: 95 69 00 94  	bl	0x49360 <_ZN6ChiLog9LogSystemEPKcS1_S1_S1_iS1_z@plt>
000000000002ed20 <_ZNK19ChiFeature2RealTime34PopulateSensorModeOnMetadataResultEP24ChiFeature2RequestObjectP11ChiMetadata>:
   2ed44: f8 00 00 d0  	adrp	x24, 0x4c000 <_ZNK19ChiFeature2RealTime34PopulateSensorModeOnMetadataResultEP24ChiFeature2RequestObjectP11ChiMetadata+0x9c>
   2ed64: 81 0b 00 54  	b.ne	0x2eed4 <_ZNK19ChiFeature2RealTime34PopulateSensorModeOnMetadataResultEP24ChiFeature2RequestObjectP11ChiMetadata+0x1b4>
   2ed6c: 68 00 00 b4  	cbz	x8, 0x2ed78 <_ZNK19ChiFeature2RealTime34PopulateSensorModeOnMetadataResultEP24ChiFeature2RequestObjectP11ChiMetadata+0x58>
   2ed74: 69 00 28 37  	tbnz	w9, #5, 0x2ed80 <_ZNK19ChiFeature2RealTime34PopulateSensorModeOnMetadataResultEP24ChiFeature2RequestObjectP11ChiMetadata+0x60>
   2ed7c: 02 00 00 14  	b	0x2ed84 <_ZNK19ChiFeature2RealTime34PopulateSensorModeOnMetadataResultEP24ChiFeature2RequestObjectP11ChiMetadata+0x64>
   2ed90: 21 0b 00 54  	b.ne	0x2eef4 <_ZNK19ChiFeature2RealTime34PopulateSensorModeOnMetadataResultEP24ChiFeature2RequestObjectP11ChiMetadata+0x1d4>
   2ed98: d3 0b 00 b4  	cbz	x19, 0x2ef10 <_ZNK19ChiFeature2RealTime34PopulateSensorModeOnMetadataResultEP24ChiFeature2RequestObjectP11ChiMetadata+0x1f0>
   2ed9c: b4 0b 00 b4  	cbz	x20, 0x2ef10 <_ZNK19ChiFeature2RealTime34PopulateSensorModeOnMetadataResultEP24ChiFeature2RequestObjectP11ChiMetadata+0x1f0>
   2eda0: 98 0b 00 b4  	cbz	x24, 0x2ef10 <_ZNK19ChiFeature2RealTime34PopulateSensorModeOnMetadataResultEP24ChiFeature2RequestObjectP11ChiMetadata+0x1f0>
   2eda8: 40 0b 00 b4  	cbz	x0, 0x2ef10 <_ZNK19ChiFeature2RealTime34PopulateSensorModeOnMetadataResultEP24ChiFeature2RequestObjectP11ChiMetadata+0x1f0>
   2edb0: 68 01 00 34  	cbz	w8, 0x2eddc <_ZNK19ChiFeature2RealTime34PopulateSensorModeOnMetadataResultEP24ChiFeature2RequestObjectP11ChiMetadata+0xbc>
   2edcc: 60 06 00 54  	b.eq	0x2ee98 <_ZNK19ChiFeature2RealTime34PopulateSensorModeOnMetadataResultEP24ChiFeature2RequestObjectP11ChiMetadata+0x178>
   2edd8: 41 ff ff 54  	b.ne	0x2edc0 <_ZNK19ChiFeature2RealTime34PopulateSensorModeOnMetadataResultEP24ChiFeature2RequestObjectP11ChiMetadata+0xa0>
   2eddc: ee 00 00 d0  	adrp	x14, 0x4c000 <_ZNK19ChiFeature2RealTime34PopulateSensorModeOnMetadataResultEP24ChiFeature2RequestObjectP11ChiMetadata+0x134>
   2ede8: 88 0f 08 36  	tbz	w8, #1, 0x2efd8 <_ZNK19ChiFeature2RealTime34PopulateSensorModeOnMetadataResultEP24ChiFeature2RequestObjectP11ChiMetadata+0x2b8>
   2edec: ef 00 00 d0  	adrp	x15, 0x4c000 <_ZNK19ChiFeature2RealTime34PopulateSensorModeOnMetadataResultEP24ChiFeature2RequestObjectP11ChiMetadata+0x144>
   2edfc: 61 02 00 54  	b.ne	0x2ee48 <_ZNK19ChiFeature2RealTime34PopulateSensorModeOnMetadataResultEP24ChiFeature2RequestObjectP11ChiMetadata+0x128>
   2ee00: 13 ff ff b0  	adrp	x19, 0xf000 <_ZNK19ChiFeature2RealTime34PopulateSensorModeOnMetadataResultEP24ChiFeature2RequestObjectP11ChiMetadata+0x64>
   2ee1c: 21 ff ff d0  	adrp	x1, 0x14000 <_ZNK19ChiFeature2RealTime34PopulateSensorModeOnMetadataResultEP24ChiFeature2RequestObjectP11ChiMetadata+0x94>
   2ee20: 02 ff ff 90  	adrp	x2, 0xe000 <_ZNK19ChiFeature2RealTime34PopulateSensorModeOnMetadataResultEP24ChiFeature2RequestObjectP11ChiMetadata+0x80>
   2ee24: 05 ff ff 90  	adrp	x5, 0xe000 <_ZNK19ChiFeature2RealTime34PopulateSensorModeOnMetadataResultEP24ChiFeature2RequestObjectP11ChiMetadata+0x84>
   2ee48: 16 ff ff b0  	adrp	x22, 0xf000 <_ZNK19ChiFeature2RealTime34PopulateSensorModeOnMetadataResultEP24ChiFeature2RequestObjectP11ChiMetadata+0xac>
   2ee64: 01 ff ff 90  	adrp	x1, 0xe000 <_ZNK19ChiFeature2RealTime34PopulateSensorModeOnMetadataResultEP24ChiFeature2RequestObjectP11ChiMetadata+0xc4>
   2ee6c: 00 ff ff f0  	adrp	x0, 0x11000 <_ZNK19ChiFeature2RealTime34PopulateSensorModeOnMetadataResultEP24ChiFeature2RequestObjectP11ChiMetadata+0xd8>
   2ee70: 03 ff ff 90  	adrp	x3, 0xe000 <_ZNK19ChiFeature2RealTime34PopulateSensorModeOnMetadataResultEP24ChiFeature2RequestObjectP11ChiMetadata+0xd0>
   2ee74: 05 ff ff f0  	adrp	x5, 0x11000 <_ZNK19ChiFeature2RealTime34PopulateSensorModeOnMetadataResultEP24ChiFeature2RequestObjectP11ChiMetadata+0xe0>
   2ee90: 34 69 00 94  	bl	0x49360 <_ZN6ChiLog9LogSystemEPKcS1_S1_S1_iS1_z@plt>
   2ee94: 51 00 00 14  	b	0x2efd8 <_ZNK19ChiFeature2RealTime34PopulateSensorModeOnMetadataResultEP24ChiFeature2RequestObjectP11ChiMetadata+0x2b8>
   2eea0: 61 01 00 54  	b.ne	0x2eecc <_ZNK19ChiFeature2RealTime34PopulateSensorModeOnMetadataResultEP24ChiFeature2RequestObjectP11ChiMetadata+0x1ac>
   2eec4: bb 6a 00 94  	bl	0x499b0 <_ZN19ChiMcxRoiTranslator26TranslateResultChiMetadataER16ChiMcxSensorModeS1_R11ChiMetadataS3_i@plt>
   2eec8: 45 00 00 14  	b	0x2efdc <_ZNK19ChiFeature2RealTime34PopulateSensorModeOnMetadataResultEP24ChiFeature2RequestObjectP11ChiMetadata+0x2bc>
   2eed0: 43 00 00 14  	b	0x2efdc <_ZNK19ChiFeature2RealTime34PopulateSensorModeOnMetadataResultEP24ChiFeature2RequestObjectP11ChiMetadata+0x2bc>
   2eeec: 28 f4 ff b5  	cbnz	x8, 0x2ed70 <_ZNK19ChiFeature2RealTime34PopulateSensorModeOnMetadataResultEP24ChiFeature2RequestObjectP11ChiMetadata+0x50>
   2eef0: a2 ff ff 17  	b	0x2ed78 <_ZNK19ChiFeature2RealTime34PopulateSensorModeOnMetadataResultEP24ChiFeature2RequestObjectP11ChiMetadata+0x58>
   2ef0c: 93 f4 ff b5  	cbnz	x19, 0x2ed9c <_ZNK19ChiFeature2RealTime34PopulateSensorModeOnMetadataResultEP24ChiFeature2RequestObjectP11ChiMetadata+0x7c>
   2ef10: f0 00 00 d0  	adrp	x16, 0x4c000 <_ZNK19ChiFeature2RealTime34PopulateSensorModeOnMetadataResultEP24ChiFeature2RequestObjectP11ChiMetadata+0x268>
   2ef1c: ed 05 08 36  	tbz	w13, #1, 0x2efd8 <_ZNK19ChiFeature2RealTime34PopulateSensorModeOnMetadataResultEP24ChiFeature2RequestObjectP11ChiMetadata+0x2b8>
   2ef20: f1 00 00 d0  	adrp	x17, 0x4c000 <_ZNK19ChiFeature2RealTime34PopulateSensorModeOnMetadataResultEP24ChiFeature2RequestObjectP11ChiMetadata+0x278>
   2ef24: 16 ff ff b0  	adrp	x22, 0xf000 <_ZNK19ChiFeature2RealTime34PopulateSensorModeOnMetadataResultEP24ChiFeature2RequestObjectP11ChiMetadata+0x188>
   2ef38: 81 02 00 54  	b.ne	0x2ef88 <_ZNK19ChiFeature2RealTime34PopulateSensorModeOnMetadataResultEP24ChiFeature2RequestObjectP11ChiMetadata+0x268>
   2ef54: 21 ff ff d0  	adrp	x1, 0x14000 <_ZNK19ChiFeature2RealTime34PopulateSensorModeOnMetadataResultEP24ChiFeature2RequestObjectP11ChiMetadata+0x1cc>
   2ef58: 02 ff ff f0  	adrp	x2, 0x11000 <_ZNK19ChiFeature2RealTime34PopulateSensorModeOnMetadataResultEP24ChiFeature2RequestObjectP11ChiMetadata+0x1c4>
   2ef5c: 05 ff ff 90  	adrp	x5, 0xe000 <_ZNK19ChiFeature2RealTime34PopulateSensorModeOnMetadataResultEP24ChiFeature2RequestObjectP11ChiMetadata+0x1bc>
   2efa4: 00 ff ff f0  	adrp	x0, 0x11000 <_ZNK19ChiFeature2RealTime34PopulateSensorModeOnMetadataResultEP24ChiFeature2RequestObjectP11ChiMetadata+0x210>
   2efa8: 01 ff ff 90  	adrp	x1, 0xe000 <_ZNK19ChiFeature2RealTime34PopulateSensorModeOnMetadataResultEP24ChiFeature2RequestObjectP11ChiMetadata+0x208>
   2efac: 03 ff ff 90  	adrp	x3, 0xe000 <_ZNK19ChiFeature2RealTime34PopulateSensorModeOnMetadataResultEP24ChiFeature2RequestObjectP11ChiMetadata+0x20c>
   2efb0: 25 ff ff d0  	adrp	x5, 0x14000 <_ZNK19ChiFeature2RealTime34PopulateSensorModeOnMetadataResultEP24ChiFeature2RequestObjectP11ChiMetadata+0x228>
   2efd4: e3 68 00 94  	bl	0x49360 <_ZN6ChiLog9LogSystemEPKcS1_S1_S1_iS1_z@plt>
   2efe8: e1 00 00 54  	b.ne	0x2f004 <_ZNK19ChiFeature2RealTime34PopulateSensorModeOnMetadataResultEP24ChiFeature2RequestObjectP11ChiMetadata+0x2e4>
000000000002f008 <_ZNK19ChiFeature2RealTime15ReleaseResourceEP24ChiFeature2RequestObjectP21ChiFeature2Identifierh>:
   2f034: fa 00 00 b0  	adrp	x26, 0x4c000 <_ZNK19ChiFeature2RealTime15ReleaseResourceEP24ChiFeature2RequestObjectP21ChiFeature2Identifierh+0xa0>
   2f058: e1 39 00 54  	b.ne	0x2f794 <_ZNK19ChiFeature2RealTime15ReleaseResourceEP24ChiFeature2RequestObjectP21ChiFeature2Identifierh+0x78c>
   2f060: a1 3a 00 54  	b.ne	0x2f7b4 <_ZNK19ChiFeature2RealTime15ReleaseResourceEP24ChiFeature2RequestObjectP21ChiFeature2Identifierh+0x7ac>
   2f06c: 21 3b 00 54  	b.ne	0x2f7d0 <_ZNK19ChiFeature2RealTime15ReleaseResourceEP24ChiFeature2RequestObjectP21ChiFeature2Identifierh+0x7c8>
   2f070: d4 3b 00 b4  	cbz	x20, 0x2f7e8 <_ZNK19ChiFeature2RealTime15ReleaseResourceEP24ChiFeature2RequestObjectP21ChiFeature2Identifierh+0x7e0>
   2f084: 02 05 00 54  	b.hs	0x2f124 <_ZNK19ChiFeature2RealTime15ReleaseResourceEP24ChiFeature2RequestObjectP21ChiFeature2Identifierh+0x11c>
   2f08c: ce 04 00 b4  	cbz	x14, 0x2f124 <_ZNK19ChiFeature2RealTime15ReleaseResourceEP24ChiFeature2RequestObjectP21ChiFeature2Identifierh+0x11c>
   2f0a0: 22 04 00 54  	b.hs	0x2f124 <_ZNK19ChiFeature2RealTime15ReleaseResourceEP24ChiFeature2RequestObjectP21ChiFeature2Identifierh+0x11c>
   2f0a8: ed 03 00 b4  	cbz	x13, 0x2f124 <_ZNK19ChiFeature2RealTime15ReleaseResourceEP24ChiFeature2RequestObjectP21ChiFeature2Identifierh+0x11c>
   2f0b8: c8 01 00 54  	b.hi	0x2f0f0 <_ZNK19ChiFeature2RealTime15ReleaseResourceEP24ChiFeature2RequestObjectP21ChiFeature2Identifierh+0xe8>
   2f0e0: 29 02 00 54  	b.ls	0x2f124 <_ZNK19ChiFeature2RealTime15ReleaseResourceEP24ChiFeature2RequestObjectP21ChiFeature2Identifierh+0x11c>
   2f0ec: 0f 00 00 14  	b	0x2f128 <_ZNK19ChiFeature2RealTime15ReleaseResourceEP24ChiFeature2RequestObjectP21ChiFeature2Identifierh+0x120>
   2f114: 89 00 00 54  	b.ls	0x2f124 <_ZNK19ChiFeature2RealTime15ReleaseResourceEP24ChiFeature2RequestObjectP21ChiFeature2Identifierh+0x11c>
   2f120: 02 00 00 14  	b	0x2f128 <_ZNK19ChiFeature2RealTime15ReleaseResourceEP24ChiFeature2RequestObjectP21ChiFeature2Identifierh+0x120>
   2f128: e1 00 00 f0  	adrp	x1, 0x4e000 <_ZNK19ChiFeature2RealTime15ReleaseResourceEP24ChiFeature2RequestObjectP21ChiFeature2Identifierh+0x19c>
   2f134: 21 04 00 54  	b.ne	0x2f1b8 <_ZNK19ChiFeature2RealTime15ReleaseResourceEP24ChiFeature2RequestObjectP21ChiFeature2Identifierh+0x1b0>
   2f138: eb 00 00 f0  	adrp	x11, 0x4e000 <_ZNK19ChiFeature2RealTime15ReleaseResourceEP24ChiFeature2RequestObjectP21ChiFeature2Identifierh+0x1ac>
   2f14c: 61 03 00 54  	b.ne	0x2f1b8 <_ZNK19ChiFeature2RealTime15ReleaseResourceEP24ChiFeature2RequestObjectP21ChiFeature2Identifierh+0x1b0>
   2f15c: e1 02 00 54  	b.ne	0x2f1b8 <_ZNK19ChiFeature2RealTime15ReleaseResourceEP24ChiFeature2RequestObjectP21ChiFeature2Identifierh+0x1b0>
   2f16c: 61 02 00 54  	b.ne	0x2f1b8 <_ZNK19ChiFeature2RealTime15ReleaseResourceEP24ChiFeature2RequestObjectP21ChiFeature2Identifierh+0x1b0>
   2f17c: e1 01 00 54  	b.ne	0x2f1b8 <_ZNK19ChiFeature2RealTime15ReleaseResourceEP24ChiFeature2RequestObjectP21ChiFeature2Identifierh+0x1b0>
   2f18c: 01 33 00 54  	b.ne	0x2f7ec <_ZNK19ChiFeature2RealTime15ReleaseResourceEP24ChiFeature2RequestObjectP21ChiFeature2Identifierh+0x7e4>
   2f1a4: db 68 00 94  	bl	0x49510 <_ZNK15ChiFeature2Base26IsPortEnabledInFinalOutputEPK24ChiFeature2RequestObject21ChiFeature2Identifierh@plt>
   2f1b4: 02 00 00 14  	b	0x2f1bc <_ZNK19ChiFeature2RealTime15ReleaseResourceEP24ChiFeature2RequestObjectP21ChiFeature2Identifierh+0x1b4>
   2f1bc: e4 00 00 f0  	adrp	x4, 0x4e000 <_ZNK19ChiFeature2RealTime15ReleaseResourceEP24ChiFeature2RequestObjectP21ChiFeature2Identifierh+0x230>
   2f1c8: 21 04 00 54  	b.ne	0x2f24c <_ZNK19ChiFeature2RealTime15ReleaseResourceEP24ChiFeature2RequestObjectP21ChiFeature2Identifierh+0x244>
   2f1cc: ec 00 00 f0  	adrp	x12, 0x4e000 <_ZNK19ChiFeature2RealTime15ReleaseResourceEP24ChiFeature2RequestObjectP21ChiFeature2Identifierh+0x240>
   2f1e0: 61 03 00 54  	b.ne	0x2f24c <_ZNK19ChiFeature2RealTime15ReleaseResourceEP24ChiFeature2RequestObjectP21ChiFeature2Identifierh+0x244>
   2f1f0: e1 02 00 54  	b.ne	0x2f24c <_ZNK19ChiFeature2RealTime15ReleaseResourceEP24ChiFeature2RequestObjectP21ChiFeature2Identifierh+0x244>
   2f200: 61 02 00 54  	b.ne	0x2f24c <_ZNK19ChiFeature2RealTime15ReleaseResourceEP24ChiFeature2RequestObjectP21ChiFeature2Identifierh+0x244>
   2f210: e1 01 00 54  	b.ne	0x2f24c <_ZNK19ChiFeature2RealTime15ReleaseResourceEP24ChiFeature2RequestObjectP21ChiFeature2Identifierh+0x244>
   2f220: 41 2f 00 54  	b.ne	0x2f808 <_ZNK19ChiFeature2RealTime15ReleaseResourceEP24ChiFeature2RequestObjectP21ChiFeature2Identifierh+0x800>
   2f238: b6 68 00 94  	bl	0x49510 <_ZNK15ChiFeature2Base26IsPortEnabledInFinalOutputEPK24ChiFeature2RequestObject21ChiFeature2Identifierh@plt>
   2f248: 02 00 00 14  	b	0x2f250 <_ZNK19ChiFeature2RealTime15ReleaseResourceEP24ChiFeature2RequestObjectP21ChiFeature2Identifierh+0x248>
   2f250: fc 00 00 f0  	adrp	x28, 0x4e000 <_ZNK19ChiFeature2RealTime15ReleaseResourceEP24ChiFeature2RequestObjectP21ChiFeature2Identifierh+0x2c4>
   2f254: fb 00 00 f0  	adrp	x27, 0x4e000 <_ZNK19ChiFeature2RealTime15ReleaseResourceEP24ChiFeature2RequestObjectP21ChiFeature2Identifierh+0x2c8>
   2f264: 41 0b 00 54  	b.ne	0x2f3cc <_ZNK19ChiFeature2RealTime15ReleaseResourceEP24ChiFeature2RequestObjectP21ChiFeature2Identifierh+0x3c4>
   2f274: c1 0a 00 54  	b.ne	0x2f3cc <_ZNK19ChiFeature2RealTime15ReleaseResourceEP24ChiFeature2RequestObjectP21ChiFeature2Identifierh+0x3c4>
   2f284: 41 0a 00 54  	b.ne	0x2f3cc <_ZNK19ChiFeature2RealTime15ReleaseResourceEP24ChiFeature2RequestObjectP21ChiFeature2Identifierh+0x3c4>
   2f294: c1 09 00 54  	b.ne	0x2f3cc <_ZNK19ChiFeature2RealTime15ReleaseResourceEP24ChiFeature2RequestObjectP21ChiFeature2Identifierh+0x3c4>
   2f2a4: 41 09 00 54  	b.ne	0x2f3cc <_ZNK19ChiFeature2RealTime15ReleaseResourceEP24ChiFeature2RequestObjectP21ChiFeature2Identifierh+0x3c4>
   2f2ac: 15 09 00 b4  	cbz	x21, 0x2f3cc <_ZNK19ChiFeature2RealTime15ReleaseResourceEP24ChiFeature2RequestObjectP21ChiFeature2Identifierh+0x3c4>
   2f2b0: ed 00 00 f0  	adrp	x13, 0x4e000 <_ZNK19ChiFeature2RealTime15ReleaseResourceEP24ChiFeature2RequestObjectP21ChiFeature2Identifierh+0x324>
   2f2cc: bd 69 00 94  	bl	0x499c0 <_ZNK24ChiFeature2RequestObject26GetFinalBufferMetadataInfoE21ChiFeature2IdentifierPP29ChiFeature2BufferMetadataInfoh@plt>
   2f2d4: e0 07 00 35  	cbnz	w0, 0x2f3d0 <_ZNK19ChiFeature2RealTime15ReleaseResourceEP24ChiFeature2RequestObjectP21ChiFeature2Identifierh+0x3c8>
   2f2dc: af 07 00 b4  	cbz	x15, 0x2f3d0 <_ZNK19ChiFeature2RealTime15ReleaseResourceEP24ChiFeature2RequestObjectP21ChiFeature2Identifierh+0x3c8>
   2f2e8: 21 07 00 54  	b.ne	0x2f3cc <_ZNK19ChiFeature2RealTime15ReleaseResourceEP24ChiFeature2RequestObjectP21ChiFeature2Identifierh+0x3c4>
   2f2ec: e6 00 00 b0  	adrp	x6, 0x4c000 <_ZNK19ChiFeature2RealTime15ReleaseResourceEP24ChiFeature2RequestObjectP21ChiFeature2Identifierh+0x358>
   2f2f8: 76 06 18 36  	tbz	w22, #3, 0x2f3c4 <_ZNK19ChiFeature2RealTime15ReleaseResourceEP24ChiFeature2RequestObjectP21ChiFeature2Identifierh+0x3bc>
   2f2fc: e7 00 00 b0  	adrp	x7, 0x4c000 <_ZNK19ChiFeature2RealTime15ReleaseResourceEP24ChiFeature2RequestObjectP21ChiFeature2Identifierh+0x368>
   2f300: f6 fe ff d0  	adrp	x22, 0xd000 <_ZNK19ChiFeature2RealTime15ReleaseResourceEP24ChiFeature2RequestObjectP21ChiFeature2Identifierh+0x270>
   2f314: c1 02 00 54  	b.ne	0x2f36c <_ZNK19ChiFeature2RealTime15ReleaseResourceEP24ChiFeature2RequestObjectP21ChiFeature2Identifierh+0x364>
   2f328: ee 00 00 f0  	adrp	x14, 0x4e000 <_ZNK19ChiFeature2RealTime15ReleaseResourceEP24ChiFeature2RequestObjectP21ChiFeature2Identifierh+0x39c>
   2f334: 21 ff ff b0  	adrp	x1, 0x14000 <_ZNK19ChiFeature2RealTime15ReleaseResourceEP24ChiFeature2RequestObjectP21ChiFeature2Identifierh+0x2c0>
   2f338: 02 ff ff d0  	adrp	x2, 0x11000 <_ZNK19ChiFeature2RealTime15ReleaseResourceEP24ChiFeature2RequestObjectP21ChiFeature2Identifierh+0x2b8>
   2f33c: e5 fe ff f0  	adrp	x5, 0xe000 <_ZNK19ChiFeature2RealTime15ReleaseResourceEP24ChiFeature2RequestObjectP21ChiFeature2Identifierh+0x2b0>
   2f37c: ef 00 00 f0  	adrp	x15, 0x4e000 <_ZNK19ChiFeature2RealTime15ReleaseResourceEP24ChiFeature2RequestObjectP21ChiFeature2Identifierh+0x3f0>
   2f38c: 20 ff ff b0  	adrp	x0, 0x14000 <_ZNK19ChiFeature2RealTime15ReleaseResourceEP24ChiFeature2RequestObjectP21ChiFeature2Identifierh+0x318>
   2f390: 01 ff ff d0  	adrp	x1, 0x11000 <_ZNK19ChiFeature2RealTime15ReleaseResourceEP24ChiFeature2RequestObjectP21ChiFeature2Identifierh+0x310>
   2f394: e3 fe ff f0  	adrp	x3, 0xe000 <_ZNK19ChiFeature2RealTime15ReleaseResourceEP24ChiFeature2RequestObjectP21ChiFeature2Identifierh+0x308>
   2f398: 05 ff ff 90  	adrp	x5, 0xf000 <_ZNK19ChiFeature2RealTime15ReleaseResourceEP24ChiFeature2RequestObjectP21ChiFeature2Identifierh+0x310>
   2f3c0: e8 67 00 94  	bl	0x49360 <_ZN6ChiLog9LogSystemEPKcS1_S1_S1_iS1_z@plt>
   2f3c8: 02 00 00 14  	b	0x2f3d0 <_ZNK19ChiFeature2RealTime15ReleaseResourceEP24ChiFeature2RequestObjectP21ChiFeature2Identifierh+0x3c8>
   2f3d4: bf 67 00 94  	bl	0x492d0 <_ZNK24ChiFeature2RequestObject23GetUsecaseRequestObjectEv@plt>
   2f3f4: 79 00 00 37  	tbnz	w25, #0, 0x2f400 <_ZNK19ChiFeature2RealTime15ReleaseResourceEP24ChiFeature2RequestObjectP21ChiFeature2Identifierh+0x3f8>
   2f3f8: 5a 00 00 37  	tbnz	w26, #0, 0x2f400 <_ZNK19ChiFeature2RealTime15ReleaseResourceEP24ChiFeature2RequestObjectP21ChiFeature2Identifierh+0x3f8>
   2f3fc: 96 00 00 34  	cbz	w22, 0x2f40c <_ZNK19ChiFeature2RealTime15ReleaseResourceEP24ChiFeature2RequestObjectP21ChiFeature2Identifierh+0x404>
   2f418: 21 02 00 54  	b.ne	0x2f45c <_ZNK19ChiFeature2RealTime15ReleaseResourceEP24ChiFeature2RequestObjectP21ChiFeature2Identifierh+0x454>
   2f428: a1 01 00 54  	b.ne	0x2f45c <_ZNK19ChiFeature2RealTime15ReleaseResourceEP24ChiFeature2RequestObjectP21ChiFeature2Identifierh+0x454>
   2f438: 21 01 00 54  	b.ne	0x2f45c <_ZNK19ChiFeature2RealTime15ReleaseResourceEP24ChiFeature2RequestObjectP21ChiFeature2Identifierh+0x454>
   2f448: a1 00 00 54  	b.ne	0x2f45c <_ZNK19ChiFeature2RealTime15ReleaseResourceEP24ChiFeature2RequestObjectP21ChiFeature2Identifierh+0x454>
   2f458: 60 08 00 54  	b.eq	0x2f564 <_ZNK19ChiFeature2RealTime15ReleaseResourceEP24ChiFeature2RequestObjectP21ChiFeature2Identifierh+0x55c>
   2f45c: e0 00 00 f0  	adrp	x0, 0x4e000 <_ZNK19ChiFeature2RealTime15ReleaseResourceEP24ChiFeature2RequestObjectP21ChiFeature2Identifierh+0x4d0>
   2f468: 61 02 00 54  	b.ne	0x2f4b4 <_ZNK19ChiFeature2RealTime15ReleaseResourceEP24ChiFeature2RequestObjectP21ChiFeature2Identifierh+0x4ac>
   2f46c: e9 00 00 f0  	adrp	x9, 0x4e000 <_ZNK19ChiFeature2RealTime15ReleaseResourceEP24ChiFeature2RequestObjectP21ChiFeature2Identifierh+0x4e0>
   2f480: a1 01 00 54  	b.ne	0x2f4b4 <_ZNK19ChiFeature2RealTime15ReleaseResourceEP24ChiFeature2RequestObjectP21ChiFeature2Identifierh+0x4ac>
   2f490: 21 01 00 54  	b.ne	0x2f4b4 <_ZNK19ChiFeature2RealTime15ReleaseResourceEP24ChiFeature2RequestObjectP21ChiFeature2Identifierh+0x4ac>
   2f4a0: a1 00 00 54  	b.ne	0x2f4b4 <_ZNK19ChiFeature2RealTime15ReleaseResourceEP24ChiFeature2RequestObjectP21ChiFeature2Identifierh+0x4ac>
   2f4b0: a0 05 00 54  	b.eq	0x2f564 <_ZNK19ChiFeature2RealTime15ReleaseResourceEP24ChiFeature2RequestObjectP21ChiFeature2Identifierh+0x55c>
   2f4b4: fc 00 00 f0  	adrp	x28, 0x4e000 <_ZNK19ChiFeature2RealTime15ReleaseResourceEP24ChiFeature2RequestObjectP21ChiFeature2Identifierh+0x528>
   2f4c0: 61 02 00 54  	b.ne	0x2f50c <_ZNK19ChiFeature2RealTime15ReleaseResourceEP24ChiFeature2RequestObjectP21ChiFeature2Identifierh+0x504>
   2f4c4: ea 00 00 f0  	adrp	x10, 0x4e000 <_ZNK19ChiFeature2RealTime15ReleaseResourceEP24ChiFeature2RequestObjectP21ChiFeature2Identifierh+0x538>
   2f4d8: a1 01 00 54  	b.ne	0x2f50c <_ZNK19ChiFeature2RealTime15ReleaseResourceEP24ChiFeature2RequestObjectP21ChiFeature2Identifierh+0x504>
   2f4e8: 21 01 00 54  	b.ne	0x2f50c <_ZNK19ChiFeature2RealTime15ReleaseResourceEP24ChiFeature2RequestObjectP21ChiFeature2Identifierh+0x504>
   2f4f8: a1 00 00 54  	b.ne	0x2f50c <_ZNK19ChiFeature2RealTime15ReleaseResourceEP24ChiFeature2RequestObjectP21ChiFeature2Identifierh+0x504>
   2f508: e0 02 00 54  	b.eq	0x2f564 <_ZNK19ChiFeature2RealTime15ReleaseResourceEP24ChiFeature2RequestObjectP21ChiFeature2Identifierh+0x55c>
   2f50c: fb 00 00 f0  	adrp	x27, 0x4e000 <_ZNK19ChiFeature2RealTime15ReleaseResourceEP24ChiFeature2RequestObjectP21ChiFeature2Identifierh+0x580>
   2f518: a1 02 00 54  	b.ne	0x2f56c <_ZNK19ChiFeature2RealTime15ReleaseResourceEP24ChiFeature2RequestObjectP21ChiFeature2Identifierh+0x564>
   2f51c: e8 00 00 f0  	adrp	x8, 0x4e000 <_ZNK19ChiFeature2RealTime15ReleaseResourceEP24ChiFeature2RequestObjectP21ChiFeature2Identifierh+0x590>
   2f530: e1 01 00 54  	b.ne	0x2f56c <_ZNK19ChiFeature2RealTime15ReleaseResourceEP24ChiFeature2RequestObjectP21ChiFeature2Identifierh+0x564>
   2f540: 61 01 00 54  	b.ne	0x2f56c <_ZNK19ChiFeature2RealTime15ReleaseResourceEP24ChiFeature2RequestObjectP21ChiFeature2Identifierh+0x564>
   2f550: e1 00 00 54  	b.ne	0x2f56c <_ZNK19ChiFeature2RealTime15ReleaseResourceEP24ChiFeature2RequestObjectP21ChiFeature2Identifierh+0x564>
   2f560: 61 00 00 54  	b.ne	0x2f56c <_ZNK19ChiFeature2RealTime15ReleaseResourceEP24ChiFeature2RequestObjectP21ChiFeature2Identifierh+0x564>
   2f568: 02 00 00 14  	b	0x2f570 <_ZNK19ChiFeature2RealTime15ReleaseResourceEP24ChiFeature2RequestObjectP21ChiFeature2Identifierh+0x568>
   2f578: 78 0f 00 b4  	cbz	x24, 0x2f764 <_ZNK19ChiFeature2RealTime15ReleaseResourceEP24ChiFeature2RequestObjectP21ChiFeature2Identifierh+0x75c>
   2f580: 34 0f 00 b4  	cbz	x20, 0x2f764 <_ZNK19ChiFeature2RealTime15ReleaseResourceEP24ChiFeature2RequestObjectP21ChiFeature2Identifierh+0x75c>
   2f584: fb 00 00 b0  	adrp	x27, 0x4c000 <_ZNK19ChiFeature2RealTime15ReleaseResourceEP24ChiFeature2RequestObjectP21ChiFeature2Identifierh+0x5f0>
   2f590: aa 07 28 36  	tbz	w10, #5, 0x2f684 <_ZNK19ChiFeature2RealTime15ReleaseResourceEP24ChiFeature2RequestObjectP21ChiFeature2Identifierh+0x67c>
   2f594: f4 00 00 b0  	adrp	x20, 0x4c000 <_ZNK19ChiFeature2RealTime15ReleaseResourceEP24ChiFeature2RequestObjectP21ChiFeature2Identifierh+0x600>
   2f5a0: 14 ff ff 90  	adrp	x20, 0xf000 <_ZNK19ChiFeature2RealTime15ReleaseResourceEP24ChiFeature2RequestObjectP21ChiFeature2Identifierh+0x518>
   2f5ac: 61 03 00 54  	b.ne	0x2f618 <_ZNK19ChiFeature2RealTime15ReleaseResourceEP24ChiFeature2RequestObjectP21ChiFeature2Identifierh+0x610>
   2f5cc: 21 ff ff b0  	adrp	x1, 0x14000 <_ZNK19ChiFeature2RealTime15ReleaseResourceEP24ChiFeature2RequestObjectP21ChiFeature2Identifierh+0x558>
   2f5d4: 02 ff ff d0  	adrp	x2, 0x11000 <_ZNK19ChiFeature2RealTime15ReleaseResourceEP24ChiFeature2RequestObjectP21ChiFeature2Identifierh+0x554>
   2f600: 05 ff ff b0  	adrp	x5, 0x10000 <_ZNK19ChiFeature2RealTime15ReleaseResourceEP24ChiFeature2RequestObjectP21ChiFeature2Identifierh+0x57c>
   2f63c: 20 ff ff 90  	adrp	x0, 0x13000 <_ZNK19ChiFeature2RealTime15ReleaseResourceEP24ChiFeature2RequestObjectP21ChiFeature2Identifierh+0x5c4>
   2f644: 01 ff ff d0  	adrp	x1, 0x11000 <_ZNK19ChiFeature2RealTime15ReleaseResourceEP24ChiFeature2RequestObjectP21ChiFeature2Identifierh+0x5c4>
   2f64c: 03 ff ff b0  	adrp	x3, 0x10000 <_ZNK19ChiFeature2RealTime15ReleaseResourceEP24ChiFeature2RequestObjectP21ChiFeature2Identifierh+0x5c8>
   2f650: 25 ff ff 90  	adrp	x5, 0x13000 <_ZNK19ChiFeature2RealTime15ReleaseResourceEP24ChiFeature2RequestObjectP21ChiFeature2Identifierh+0x5d8>
   2f680: 38 67 00 94  	bl	0x49360 <_ZN6ChiLog9LogSystemEPKcS1_S1_S1_iS1_z@plt>
   2f684: 1c 07 00 34  	cbz	w28, 0x2f764 <_ZNK19ChiFeature2RealTime15ReleaseResourceEP24ChiFeature2RequestObjectP21ChiFeature2Identifierh+0x75c>
   2f68c: cc 06 00 34  	cbz	w12, 0x2f764 <_ZNK19ChiFeature2RealTime15ReleaseResourceEP24ChiFeature2RequestObjectP21ChiFeature2Identifierh+0x75c>
   2f698: 61 06 00 54  	b.ne	0x2f764 <_ZNK19ChiFeature2RealTime15ReleaseResourceEP24ChiFeature2RequestObjectP21ChiFeature2Identifierh+0x75c>
   2f6a0: cc 68 00 94  	bl	0x499d0 <_ZN9Semaphore16NotifyAllThreadsEv@plt>
   2f6a8: fa 05 28 36  	tbz	w26, #5, 0x2f764 <_ZNK19ChiFeature2RealTime15ReleaseResourceEP24ChiFeature2RequestObjectP21ChiFeature2Identifierh+0x75c>
   2f6ac: fa 00 00 b0  	adrp	x26, 0x4c000 <_ZNK19ChiFeature2RealTime15ReleaseResourceEP24ChiFeature2RequestObjectP21ChiFeature2Identifierh+0x718>
   2f6bc: a1 02 00 54  	b.ne	0x2f710 <_ZNK19ChiFeature2RealTime15ReleaseResourceEP24ChiFeature2RequestObjectP21ChiFeature2Identifierh+0x708>
   2f6c0: 15 ff ff 90  	adrp	x21, 0xf000 <_ZNK19ChiFeature2RealTime15ReleaseResourceEP24ChiFeature2RequestObjectP21ChiFeature2Identifierh+0x638>
   2f6e4: 21 ff ff b0  	adrp	x1, 0x14000 <_ZNK19ChiFeature2RealTime15ReleaseResourceEP24ChiFeature2RequestObjectP21ChiFeature2Identifierh+0x670>
   2f6e8: e2 fe ff d0  	adrp	x2, 0xd000 <_ZNK19ChiFeature2RealTime15ReleaseResourceEP24ChiFeature2RequestObjectP21ChiFeature2Identifierh+0x658>
   2f6ec: 05 ff ff b0  	adrp	x5, 0x10000 <_ZNK19ChiFeature2RealTime15ReleaseResourceEP24ChiFeature2RequestObjectP21ChiFeature2Identifierh+0x668>
   2f710: 14 ff ff 90  	adrp	x20, 0xf000 <_ZNK19ChiFeature2RealTime15ReleaseResourceEP24ChiFeature2RequestObjectP21ChiFeature2Identifierh+0x688>
   2f738: 20 ff ff 90  	adrp	x0, 0x13000 <_ZNK19ChiFeature2RealTime15ReleaseResourceEP24ChiFeature2RequestObjectP21ChiFeature2Identifierh+0x6c0>
   2f73c: 01 ff ff d0  	adrp	x1, 0x11000 <_ZNK19ChiFeature2RealTime15ReleaseResourceEP24ChiFeature2RequestObjectP21ChiFeature2Identifierh+0x6bc>
   2f740: 03 ff ff b0  	adrp	x3, 0x10000 <_ZNK19ChiFeature2RealTime15ReleaseResourceEP24ChiFeature2RequestObjectP21ChiFeature2Identifierh+0x6bc>
   2f744: 05 ff ff b0  	adrp	x5, 0x10000 <_ZNK19ChiFeature2RealTime15ReleaseResourceEP24ChiFeature2RequestObjectP21ChiFeature2Identifierh+0x6c0>
   2f760: 00 67 00 94  	bl	0x49360 <_ZN6ChiLog9LogSystemEPKcS1_S1_S1_iS1_z@plt>
   2f770: a1 05 00 54  	b.ne	0x2f824 <_ZNK19ChiFeature2RealTime15ReleaseResourceEP24ChiFeature2RequestObjectP21ChiFeature2Identifierh+0x81c>
   2f7b0: a0 c5 ff 54  	b.eq	0x2f064 <_ZNK19ChiFeature2RealTime15ReleaseResourceEP24ChiFeature2RequestObjectP21ChiFeature2Identifierh+0x5c>
   2f7cc: 26 fe ff 17  	b	0x2f064 <_ZNK19ChiFeature2RealTime15ReleaseResourceEP24ChiFeature2RequestObjectP21ChiFeature2Identifierh+0x5c>
   2f7e4: 94 c4 ff b5  	cbnz	x20, 0x2f074 <_ZNK19ChiFeature2RealTime15ReleaseResourceEP24ChiFeature2RequestObjectP21ChiFeature2Identifierh+0x6c>
   2f804: 63 fe ff 17  	b	0x2f190 <_ZNK19ChiFeature2RealTime15ReleaseResourceEP24ChiFeature2RequestObjectP21ChiFeature2Identifierh+0x188>
   2f820: 81 fe ff 17  	b	0x2f224 <_ZNK19ChiFeature2RealTime15ReleaseResourceEP24ChiFeature2RequestObjectP21ChiFeature2Identifierh+0x21c>
000000000002f828 <_ZNK19ChiFeature2RealTime19HandleDebugDataCopyEP24ChiFeature2RequestObjecth>:
   2f854: 01 13 00 b4  	cbz	x1, 0x2fab4 <_ZNK19ChiFeature2RealTime19HandleDebugDataCopyEP24ChiFeature2RequestObjecth+0x28c>
   2f860: f9 00 00 b0  	adrp	x25, 0x4c000 <_ZNK19ChiFeature2RealTime19HandleDebugDataCopyEP24ChiFeature2RequestObjecth+0xac>
   2f878: 41 13 00 54  	b.ne	0x2fae0 <_ZNK19ChiFeature2RealTime19HandleDebugDataCopyEP24ChiFeature2RequestObjecth+0x2b8>
   2f87c: eb 00 00 f0  	adrp	x11, 0x4e000 <_ZNK19ChiFeature2RealTime19HandleDebugDataCopyEP24ChiFeature2RequestObjecth+0xd0>
   2f898: 1e 67 00 94  	bl	0x49510 <_ZNK15ChiFeature2Base26IsPortEnabledInFinalOutputEPK24ChiFeature2RequestObject21ChiFeature2Identifierh@plt>
   2f8a8: 81 12 00 54  	b.ne	0x2faf8 <_ZNK19ChiFeature2RealTime19HandleDebugDataCopyEP24ChiFeature2RequestObjecth+0x2d0>
   2f8b4: 01 13 00 54  	b.ne	0x2fb14 <_ZNK19ChiFeature2RealTime19HandleDebugDataCopyEP24ChiFeature2RequestObjecth+0x2ec>
   2f8bc: 68 05 00 b4  	cbz	x8, 0x2f968 <_ZNK19ChiFeature2RealTime19HandleDebugDataCopyEP24ChiFeature2RequestObjecth+0x140>
   2f8cc: 41 13 00 54  	b.ne	0x2fb34 <_ZNK19ChiFeature2RealTime19HandleDebugDataCopyEP24ChiFeature2RequestObjecth+0x30c>
   2f8d4: c9 00 30 37  	tbnz	w9, #6, 0x2f8ec <_ZNK19ChiFeature2RealTime19HandleDebugDataCopyEP24ChiFeature2RequestObjecth+0xc4>
   2f8e4: c1 14 00 54  	b.ne	0x2fb7c <_ZNK19ChiFeature2RealTime19HandleDebugDataCopyEP24ChiFeature2RequestObjecth+0x354>
   2f8e8: 09 04 28 36  	tbz	w9, #5, 0x2f968 <_ZNK19ChiFeature2RealTime19HandleDebugDataCopyEP24ChiFeature2RequestObjecth+0x140>
   2f8f8: 01 13 00 54  	b.ne	0x2fb58 <_ZNK19ChiFeature2RealTime19HandleDebugDataCopyEP24ChiFeature2RequestObjecth+0x330>
   2f900: 48 03 00 37  	tbnz	w8, #0, 0x2f968 <_ZNK19ChiFeature2RealTime19HandleDebugDataCopyEP24ChiFeature2RequestObjecth+0x140>
   2f910: 81 14 00 54  	b.ne	0x2fba0 <_ZNK19ChiFeature2RealTime19HandleDebugDataCopyEP24ChiFeature2RequestObjecth+0x378>
   2f914: f0 00 00 f0  	adrp	x16, 0x4e000 <_ZNK19ChiFeature2RealTime19HandleDebugDataCopyEP24ChiFeature2RequestObjecth+0x168>
   2f930: f8 66 00 94  	bl	0x49510 <_ZNK15ChiFeature2Base26IsPortEnabledInFinalOutputEPK24ChiFeature2RequestObject21ChiFeature2Identifierh@plt>
   2f940: c1 13 00 54  	b.ne	0x2fbb8 <_ZNK19ChiFeature2RealTime19HandleDebugDataCopyEP24ChiFeature2RequestObjecth+0x390>
   2f944: f1 00 00 f0  	adrp	x17, 0x4e000 <_ZNK19ChiFeature2RealTime19HandleDebugDataCopyEP24ChiFeature2RequestObjecth+0x198>
   2f960: ec 66 00 94  	bl	0x49510 <_ZNK15ChiFeature2Base26IsPortEnabledInFinalOutputEPK24ChiFeature2RequestObject21ChiFeature2Identifierh@plt>
   2f96c: 41 0a 00 54  	b.ne	0x2fab4 <_ZNK19ChiFeature2RealTime19HandleDebugDataCopyEP24ChiFeature2RequestObjecth+0x28c>
   2f970: e0 00 00 f0  	adrp	x0, 0x4e000 <_ZNK19ChiFeature2RealTime19HandleDebugDataCopyEP24ChiFeature2RequestObjecth+0x1c4>
   2f98c: 0d 68 00 94  	bl	0x499c0 <_ZNK24ChiFeature2RequestObject26GetFinalBufferMetadataInfoE21ChiFeature2IdentifierPP29ChiFeature2BufferMetadataInfoh@plt>
   2f994: 09 09 00 b4  	cbz	x9, 0x2fab4 <_ZNK19ChiFeature2RealTime19HandleDebugDataCopyEP24ChiFeature2RequestObjecth+0x28c>
   2f9a4: ef 00 00 94  	bl	0x2fd60 <_ZNK19ChiFeature2RealTime17SendResultForPortEP24ChiFeature2RequestObject21ChiFeature2IdentifierS2_h+0x138>
   2f9ac: 41 08 00 b4  	cbz	x1, 0x2fab4 <_ZNK19ChiFeature2RealTime19HandleDebugDataCopyEP24ChiFeature2RequestObjecth+0x28c>
   2f9bc: a1 10 00 54  	b.ne	0x2fbd0 <_ZNK19ChiFeature2RealTime19HandleDebugDataCopyEP24ChiFeature2RequestObjecth+0x3a8>
   2f9c4: 4b 66 00 94  	bl	0x492f0 <_ZN18ChiMetadataManager21GetMetadataFromHandleEPv@plt>
   2f9c8: 60 07 00 b4  	cbz	x0, 0x2fab4 <_ZNK19ChiFeature2RealTime19HandleDebugDataCopyEP24ChiFeature2RequestObjecth+0x28c>
   2f9dc: a1 10 00 54  	b.ne	0x2fbf0 <_ZNK19ChiFeature2RealTime19HandleDebugDataCopyEP24ChiFeature2RequestObjecth+0x3c8>
   2fa04: 83 04 00 54  	b.lo	0x2fa94 <_ZNK19ChiFeature2RealTime19HandleDebugDataCopyEP24ChiFeature2RequestObjecth+0x26c>
   2fa08: 12 67 00 94  	bl	0x49650 <_ZN15ExtensionModule11GetInstanceEv@plt>
   2fa10: 54 67 00 94  	bl	0x49760 <_ZN15ExtensionModule15GetVendorTagOpsEP16ChiVendorTagsOps@plt>
   2fa30: 00 ff ff b0  	adrp	x0, 0x10000 <_ZNK19ChiFeature2RealTime19HandleDebugDataCopyEP24ChiFeature2RequestObjecth+0x18c>
   2fa34: 01 ff ff f0  	adrp	x1, 0x12000 <_ZNK19ChiFeature2RealTime19HandleDebugDataCopyEP24ChiFeature2RequestObjecth+0x198>
   2fa84: 8a 00 00 b4  	cbz	x10, 0x2fa94 <_ZNK19ChiFeature2RealTime19HandleDebugDataCopyEP24ChiFeature2RequestObjecth+0x26c>
   2fa90: 21 01 00 54  	b.ne	0x2fab4 <_ZNK19ChiFeature2RealTime19HandleDebugDataCopyEP24ChiFeature2RequestObjecth+0x28c>
   2faa0: 41 0b 00 54  	b.ne	0x2fc08 <_ZNK19ChiFeature2RealTime19HandleDebugDataCopyEP24ChiFeature2RequestObjecth+0x3e0>
   2fab0: cc 67 00 94  	bl	0x499e0 <_ZNK15ChiFeature2Base13DebugDataCopyEP24ChiFeature2RequestObjectP11ChiMetadata@plt>
   2fac0: 01 0b 00 54  	b.ne	0x2fc20 <_ZNK19ChiFeature2RealTime19HandleDebugDataCopyEP24ChiFeature2RequestObjecth+0x3f8>
   2faf4: 62 ff ff 17  	b	0x2f87c <_ZNK19ChiFeature2RealTime19HandleDebugDataCopyEP24ChiFeature2RequestObjecth+0x54>
   2fb10: 67 ff ff 17  	b	0x2f8ac <_ZNK19ChiFeature2RealTime19HandleDebugDataCopyEP24ChiFeature2RequestObjecth+0x84>
   2fb2c: a8 ec ff b5  	cbnz	x8, 0x2f8c0 <_ZNK19ChiFeature2RealTime19HandleDebugDataCopyEP24ChiFeature2RequestObjecth+0x98>
   2fb30: 8e ff ff 17  	b	0x2f968 <_ZNK19ChiFeature2RealTime19HandleDebugDataCopyEP24ChiFeature2RequestObjecth+0x140>
   2fb50: 49 ec 37 36  	tbz	w9, #6, 0x2f8d8 <_ZNK19ChiFeature2RealTime19HandleDebugDataCopyEP24ChiFeature2RequestObjecth+0xb0>
   2fb54: 66 ff ff 17  	b	0x2f8ec <_ZNK19ChiFeature2RealTime19HandleDebugDataCopyEP24ChiFeature2RequestObjecth+0xc4>
   2fb74: 88 ec 07 36  	tbz	w8, #0, 0x2f904 <_ZNK19ChiFeature2RealTime19HandleDebugDataCopyEP24ChiFeature2RequestObjecth+0xdc>
   2fb78: 7c ff ff 17  	b	0x2f968 <_ZNK19ChiFeature2RealTime19HandleDebugDataCopyEP24ChiFeature2RequestObjecth+0x140>
   2fb98: a9 ea 2f 37  	tbnz	w9, #5, 0x2f8ec <_ZNK19ChiFeature2RealTime19HandleDebugDataCopyEP24ChiFeature2RequestObjecth+0xc4>
   2fb9c: 73 ff ff 17  	b	0x2f968 <_ZNK19ChiFeature2RealTime19HandleDebugDataCopyEP24ChiFeature2RequestObjecth+0x140>
   2fbb4: 58 ff ff 17  	b	0x2f914 <_ZNK19ChiFeature2RealTime19HandleDebugDataCopyEP24ChiFeature2RequestObjecth+0xec>
   2fbcc: 5e ff ff 17  	b	0x2f944 <_ZNK19ChiFeature2RealTime19HandleDebugDataCopyEP24ChiFeature2RequestObjecth+0x11c>
   2fbec: 75 ff ff 17  	b	0x2f9c0 <_ZNK19ChiFeature2RealTime19HandleDebugDataCopyEP24ChiFeature2RequestObjecth+0x198>
   2fc04: 77 ff ff 17  	b	0x2f9e0 <_ZNK19ChiFeature2RealTime19HandleDebugDataCopyEP24ChiFeature2RequestObjecth+0x1b8>
   2fc1c: a2 ff ff 17  	b	0x2faa4 <_ZNK19ChiFeature2RealTime19HandleDebugDataCopyEP24ChiFeature2RequestObjecth+0x27c>
000000000002fc28 <_ZNK19ChiFeature2RealTime17SendResultForPortEP24ChiFeature2RequestObject21ChiFeature2IdentifierS2_h>:
   2fc84: 4f 67 00 94  	bl	0x499c0 <_ZNK24ChiFeature2RequestObject26GetFinalBufferMetadataInfoE21ChiFeature2IdentifierPP29ChiFeature2BufferMetadataInfoh@plt>
   2fc9c: 49 67 00 94  	bl	0x499c0 <_ZNK24ChiFeature2RequestObject26GetFinalBufferMetadataInfoE21ChiFeature2IdentifierPP29ChiFeature2BufferMetadataInfoh@plt>
   2fca4: 88 03 00 b4  	cbz	x8, 0x2fd14 <_ZNK19ChiFeature2RealTime17SendResultForPortEP24ChiFeature2RequestObject21ChiFeature2IdentifierS2_h+0xec>
   2fcac: 49 03 00 b4  	cbz	x9, 0x2fd14 <_ZNK19ChiFeature2RealTime17SendResultForPortEP24ChiFeature2RequestObject21ChiFeature2IdentifierS2_h+0xec>
   2fcb8: ed 00 00 b0  	adrp	x13, 0x4c000 <_ZNK19ChiFeature2RealTime17SendResultForPortEP24ChiFeature2RequestObject21ChiFeature2IdentifierS2_h+0x104>
   2fd04: e1 01 00 54  	b.ne	0x2fd40 <_ZNK19ChiFeature2RealTime17SendResultForPortEP24ChiFeature2RequestObject21ChiFeature2IdentifierS2_h+0x118>
   2fd10: 48 66 00 94  	bl	0x49630 <_ZNK15ChiFeature2Base21ProcessFeatureMessageEP28ChiFeature2MessageDescriptor@plt>
   2fd20: c1 01 00 54  	b.ne	0x2fd58 <_ZNK19ChiFeature2RealTime17SendResultForPortEP24ChiFeature2RequestObject21ChiFeature2IdentifierS2_h+0x130>
   2fd54: ed ff ff 17  	b	0x2fd08 <_ZNK19ChiFeature2RealTime17SendResultForPortEP24ChiFeature2RequestObject21ChiFeature2IdentifierS2_h+0xe0>
   2fd70: e2 01 00 b4  	cbz	x2, 0x2fdac <_ZNK19ChiFeature2RealTime17SendResultForPortEP24ChiFeature2RequestObject21ChiFeature2IdentifierS2_h+0x184>
   2fd80: 1c 67 00 94  	bl	0x499f0 <_ZN22CHITargetBufferManager22GetTargetBufferManagerEPv@plt>
   2fd84: 00 02 00 b4  	cbz	x0, 0x2fdc4 <_ZNK19ChiFeature2RealTime17SendResultForPortEP24ChiFeature2RequestObject21ChiFeature2IdentifierS2_h+0x19c>
   2fd90: 1c 67 00 94  	bl	0x49a00 <_ZN22CHITargetBufferManager9GetTargetEPvm@plt>
   2fd94: 60 0c 00 b4  	cbz	x0, 0x2ff20 <_ZNK19ChiFeature2RealTime17SendResultForPortEP24ChiFeature2RequestObject21ChiFeature2IdentifierS2_h+0x2f8>
   2fda0: 68 12 00 b4  	cbz	x8, 0x2ffec <_ZNK19ChiFeature2RealTime17SendResultForPortEP24ChiFeature2RequestObject21ChiFeature2IdentifierS2_h+0x3c4>
   2fda8: 8d 00 00 14  	b	0x2ffdc <_ZNK19ChiFeature2RealTime17SendResultForPortEP24ChiFeature2RequestObject21ChiFeature2IdentifierS2_h+0x3b4>
   2fdac: e8 00 00 b0  	adrp	x8, 0x4c000 <_ZNK19ChiFeature2RealTime17SendResultForPortEP24ChiFeature2RequestObject21ChiFeature2IdentifierS2_h+0x1f8>
   2fdb8: 08 06 00 37  	tbnz	w8, #0, 0x2fe78 <_ZNK19ChiFeature2RealTime17SendResultForPortEP24ChiFeature2RequestObject21ChiFeature2IdentifierS2_h+0x250>
   2fdc0: 87 00 00 14  	b	0x2ffdc <_ZNK19ChiFeature2RealTime17SendResultForPortEP24ChiFeature2RequestObject21ChiFeature2IdentifierS2_h+0x3b4>
   2fdc4: ea 00 00 b0  	adrp	x10, 0x4c000 <_ZNK19ChiFeature2RealTime17SendResultForPortEP24ChiFeature2RequestObject21ChiFeature2IdentifierS2_h+0x210>
   2fdd0: 49 10 00 36  	tbz	w9, #0, 0x2ffd8 <_ZNK19ChiFeature2RealTime17SendResultForPortEP24ChiFeature2RequestObject21ChiFeature2IdentifierS2_h+0x3b0>
   2fdd4: eb 00 00 b0  	adrp	x11, 0x4c000 <_ZNK19ChiFeature2RealTime17SendResultForPortEP24ChiFeature2RequestObject21ChiFeature2IdentifierS2_h+0x220>
   2fde4: 61 02 00 54  	b.ne	0x2fe30 <_ZNK19ChiFeature2RealTime17SendResultForPortEP24ChiFeature2RequestObject21ChiFeature2IdentifierS2_h+0x208>
   2fde8: f5 fe ff d0  	adrp	x21, 0xd000 <_ZNK19ChiFeature2RealTime17SendResultForPortEP24ChiFeature2RequestObject21ChiFeature2IdentifierS2_h+0x138>
   2fe04: 21 ff ff b0  	adrp	x1, 0x14000 <_ZNK19ChiFeature2RealTime17SendResultForPortEP24ChiFeature2RequestObject21ChiFeature2IdentifierS2_h+0x170>
   2fe08: 22 ff ff b0  	adrp	x2, 0x14000 <_ZNK19ChiFeature2RealTime17SendResultForPortEP24ChiFeature2RequestObject21ChiFeature2IdentifierS2_h+0x174>
   2fe0c: 05 ff ff f0  	adrp	x5, 0x12000 <_ZNK19ChiFeature2RealTime17SendResultForPortEP24ChiFeature2RequestObject21ChiFeature2IdentifierS2_h+0x170>
   2fe30: f5 fe ff d0  	adrp	x21, 0xd000 <_ZNK19ChiFeature2RealTime17SendResultForPortEP24ChiFeature2RequestObject21ChiFeature2IdentifierS2_h+0x180>
   2fe4c: 21 ff ff 90  	adrp	x1, 0x13000 <_ZNK19ChiFeature2RealTime17SendResultForPortEP24ChiFeature2RequestObject21ChiFeature2IdentifierS2_h+0x1b4>
   2fe54: e0 fe ff d0  	adrp	x0, 0xd000 <_ZNK19ChiFeature2RealTime17SendResultForPortEP24ChiFeature2RequestObject21ChiFeature2IdentifierS2_h+0x1a4>
   2fe58: 03 ff ff f0  	adrp	x3, 0x12000 <_ZNK19ChiFeature2RealTime17SendResultForPortEP24ChiFeature2RequestObject21ChiFeature2IdentifierS2_h+0x1bc>
   2fe5c: 05 ff ff 90  	adrp	x5, 0xf000 <_ZNK19ChiFeature2RealTime17SendResultForPortEP24ChiFeature2RequestObject21ChiFeature2IdentifierS2_h+0x1b4>
   2fe74: 57 00 00 14  	b	0x2ffd0 <_ZNK19ChiFeature2RealTime17SendResultForPortEP24ChiFeature2RequestObject21ChiFeature2IdentifierS2_h+0x3a8>
   2fe78: e9 00 00 b0  	adrp	x9, 0x4c000 <_ZNK19ChiFeature2RealTime17SendResultForPortEP24ChiFeature2RequestObject21ChiFeature2IdentifierS2_h+0x2c4>
   2fe88: 41 02 00 54  	b.ne	0x2fed0 <_ZNK19ChiFeature2RealTime17SendResultForPortEP24ChiFeature2RequestObject21ChiFeature2IdentifierS2_h+0x2a8>
   2fe8c: f3 fe ff d0  	adrp	x19, 0xd000 <_ZNK19ChiFeature2RealTime17SendResultForPortEP24ChiFeature2RequestObject21ChiFeature2IdentifierS2_h+0x1dc>
   2fea8: 21 ff ff b0  	adrp	x1, 0x14000 <_ZNK19ChiFeature2RealTime17SendResultForPortEP24ChiFeature2RequestObject21ChiFeature2IdentifierS2_h+0x214>
   2feac: 02 ff ff f0  	adrp	x2, 0x12000 <_ZNK19ChiFeature2RealTime17SendResultForPortEP24ChiFeature2RequestObject21ChiFeature2IdentifierS2_h+0x210>
   2feb0: 05 ff ff f0  	adrp	x5, 0x12000 <_ZNK19ChiFeature2RealTime17SendResultForPortEP24ChiFeature2RequestObject21ChiFeature2IdentifierS2_h+0x214>
   2fed0: f5 fe ff d0  	adrp	x21, 0xd000 <_ZNK19ChiFeature2RealTime17SendResultForPortEP24ChiFeature2RequestObject21ChiFeature2IdentifierS2_h+0x220>
   2feec: 21 ff ff 90  	adrp	x1, 0x13000 <_ZNK19ChiFeature2RealTime17SendResultForPortEP24ChiFeature2RequestObject21ChiFeature2IdentifierS2_h+0x254>
   2fef4: e0 fe ff d0  	adrp	x0, 0xd000 <_ZNK19ChiFeature2RealTime17SendResultForPortEP24ChiFeature2RequestObject21ChiFeature2IdentifierS2_h+0x244>
   2fef8: 03 ff ff f0  	adrp	x3, 0x12000 <_ZNK19ChiFeature2RealTime17SendResultForPortEP24ChiFeature2RequestObject21ChiFeature2IdentifierS2_h+0x25c>
   2fefc: 05 ff ff 90  	adrp	x5, 0xf000 <_ZNK19ChiFeature2RealTime17SendResultForPortEP24ChiFeature2RequestObject21ChiFeature2IdentifierS2_h+0x254>
   2ff14: 13 65 00 94  	bl	0x49360 <_ZN6ChiLog9LogSystemEPKcS1_S1_S1_iS1_z@plt>
   2ff1c: 30 00 00 14  	b	0x2ffdc <_ZNK19ChiFeature2RealTime17SendResultForPortEP24ChiFeature2RequestObject21ChiFeature2IdentifierS2_h+0x3b4>
   2ff20: ec 00 00 b0  	adrp	x12, 0x4c000 <_ZNK19ChiFeature2RealTime17SendResultForPortEP24ChiFeature2RequestObject21ChiFeature2IdentifierS2_h+0x36c>
   2ff2c: 6a 05 00 36  	tbz	w10, #0, 0x2ffd8 <_ZNK19ChiFeature2RealTime17SendResultForPortEP24ChiFeature2RequestObject21ChiFeature2IdentifierS2_h+0x3b0>
   2ff30: ed 00 00 b0  	adrp	x13, 0x4c000 <_ZNK19ChiFeature2RealTime17SendResultForPortEP24ChiFeature2RequestObject21ChiFeature2IdentifierS2_h+0x37c>
   2ff40: 61 02 00 54  	b.ne	0x2ff8c <_ZNK19ChiFeature2RealTime17SendResultForPortEP24ChiFeature2RequestObject21ChiFeature2IdentifierS2_h+0x364>
   2ff44: f5 fe ff d0  	adrp	x21, 0xd000 <_ZNK19ChiFeature2RealTime17SendResultForPortEP24ChiFeature2RequestObject21ChiFeature2IdentifierS2_h+0x294>
   2ff60: 21 ff ff b0  	adrp	x1, 0x14000 <_ZNK19ChiFeature2RealTime17SendResultForPortEP24ChiFeature2RequestObject21ChiFeature2IdentifierS2_h+0x2cc>
   2ff64: 02 ff ff f0  	adrp	x2, 0x12000 <_ZNK19ChiFeature2RealTime17SendResultForPortEP24ChiFeature2RequestObject21ChiFeature2IdentifierS2_h+0x2c8>
   2ff68: 05 ff ff f0  	adrp	x5, 0x12000 <_ZNK19ChiFeature2RealTime17SendResultForPortEP24ChiFeature2RequestObject21ChiFeature2IdentifierS2_h+0x2cc>
   2ff8c: f5 fe ff d0  	adrp	x21, 0xd000 <_ZNK19ChiFeature2RealTime17SendResultForPortEP24ChiFeature2RequestObject21ChiFeature2IdentifierS2_h+0x2dc>
   2ffa8: 21 ff ff 90  	adrp	x1, 0x13000 <_ZNK19ChiFeature2RealTime17SendResultForPortEP24ChiFeature2RequestObject21ChiFeature2IdentifierS2_h+0x310>
   2ffb0: e0 fe ff d0  	adrp	x0, 0xd000 <_ZNK19ChiFeature2RealTime17SendResultForPortEP24ChiFeature2RequestObject21ChiFeature2IdentifierS2_h+0x300>
   2ffb4: 03 ff ff f0  	adrp	x3, 0x12000 <_ZNK19ChiFeature2RealTime17SendResultForPortEP24ChiFeature2RequestObject21ChiFeature2IdentifierS2_h+0x318>
   2ffb8: 05 ff ff b0  	adrp	x5, 0x10000 <_ZNK19ChiFeature2RealTime17SendResultForPortEP24ChiFeature2RequestObject21ChiFeature2IdentifierS2_h+0x314>
   2ffd4: e3 64 00 94  	bl	0x49360 <_ZN6ChiLog9LogSystemEPKcS1_S1_S1_iS1_z@plt>
   2ffec: ee 00 00 b0  	adrp	x14, 0x4c000 <_ZNK19ChiFeature2RealTime17SendResultForPortEP24ChiFeature2RequestObject21ChiFeature2IdentifierS2_h+0x438>
   2fff8: 0b ff 07 36  	tbz	w11, #0, 0x2ffd8 <_ZNK19ChiFeature2RealTime17SendResultForPortEP24ChiFeature2RequestObject21ChiFeature2IdentifierS2_h+0x3b0>
   2fffc: ef 00 00 b0  	adrp	x15, 0x4c000 <_ZNK19ChiFeature2RealTime17SendResultForPortEP24ChiFeature2RequestObject21ChiFeature2IdentifierS2_h+0x448>
   30000: f3 fe ff b0  	adrp	x19, 0xd000 <_ZNK19ChiFeature2RealTime17SendResultForPortEP24ChiFeature2RequestObject21ChiFeature2IdentifierS2_h+0x34c>
   30014: 01 02 00 54  	b.ne	0x30054 <_ZNK19ChiFeature2RealTime17SendResultForPortEP24ChiFeature2RequestObject21ChiFeature2IdentifierS2_h+0x42c>
   3002c: 21 ff ff 90  	adrp	x1, 0x14000 <_ZNK19ChiFeature2RealTime17SendResultForPortEP24ChiFeature2RequestObject21ChiFeature2IdentifierS2_h+0x394>
   30030: 02 ff ff 90  	adrp	x2, 0x10000 <_ZNK19ChiFeature2RealTime17SendResultForPortEP24ChiFeature2RequestObject21ChiFeature2IdentifierS2_h+0x388>
   30034: 05 ff ff d0  	adrp	x5, 0x12000 <_ZNK19ChiFeature2RealTime17SendResultForPortEP24ChiFeature2RequestObject21ChiFeature2IdentifierS2_h+0x394>
   30068: 01 ff ff f0  	adrp	x1, 0x13000 <_ZNK19ChiFeature2RealTime17SendResultForPortEP24ChiFeature2RequestObject21ChiFeature2IdentifierS2_h+0x3cc>
   30070: e0 fe ff b0  	adrp	x0, 0xd000 <_ZNK19ChiFeature2RealTime17SendResultForPortEP24ChiFeature2RequestObject21ChiFeature2IdentifierS2_h+0x3bc>
   30074: 03 ff ff d0  	adrp	x3, 0x12000 <_ZNK19ChiFeature2RealTime17SendResultForPortEP24ChiFeature2RequestObject21ChiFeature2IdentifierS2_h+0x3d4>
   30078: e5 fe ff b0  	adrp	x5, 0xd000 <_ZNK19ChiFeature2RealTime17SendResultForPortEP24ChiFeature2RequestObject21ChiFeature2IdentifierS2_h+0x3c4>
   30090: b4 64 00 94  	bl	0x49360 <_ZN6ChiLog9LogSystemEPKcS1_S1_S1_iS1_z@plt>
   30094: d1 ff ff 17  	b	0x2ffd8 <_ZNK19ChiFeature2RealTime17SendResultForPortEP24ChiFeature2RequestObject21ChiFeature2IdentifierS2_h+0x3b0>
0000000000030098 <_ZNK19ChiFeature2RealTime19GetNumDummyRequestsEP24ChiFeature2RequestObject>:
   300a4: a1 01 00 b4  	cbz	x1, 0x300d8 <_ZNK19ChiFeature2RealTime19GetNumDummyRequestsEP24ChiFeature2RequestObject+0x40>
   300b4: eb 00 00 90  	adrp	x11, 0x4c000 <_ZNK19ChiFeature2RealTime19GetNumDummyRequestsEP24ChiFeature2RequestObject+0x8c>
   300c8: e1 01 00 54  	b.ne	0x30104 <_ZNK19ChiFeature2RealTime19GetNumDummyRequestsEP24ChiFeature2RequestObject+0x6c>
   300cc: 69 00 00 b4  	cbz	x9, 0x300d8 <_ZNK19ChiFeature2RealTime19GetNumDummyRequestsEP24ChiFeature2RequestObject+0x40>
   300d4: aa 00 28 37  	tbnz	w10, #5, 0x300e8 <_ZNK19ChiFeature2RealTime19GetNumDummyRequestsEP24ChiFeature2RequestObject+0x50>
   300e8: 88 ff ff 35  	cbnz	w8, 0x300d8 <_ZNK19ChiFeature2RealTime19GetNumDummyRequestsEP24ChiFeature2RequestObject+0x40>
   300f0: 4a ff ff b4  	cbz	x10, 0x300d8 <_ZNK19ChiFeature2RealTime19GetNumDummyRequestsEP24ChiFeature2RequestObject+0x40>
   30100: f7 ff ff 17  	b	0x300dc <_ZNK19ChiFeature2RealTime19GetNumDummyRequestsEP24ChiFeature2RequestObject+0x44>
   30128: 49 fd ff b5  	cbnz	x9, 0x300d0 <_ZNK19ChiFeature2RealTime19GetNumDummyRequestsEP24ChiFeature2RequestObject+0x38>
   3012c: eb ff ff 17  	b	0x300d8 <_ZNK19ChiFeature2RealTime19GetNumDummyRequestsEP24ChiFeature2RequestObject+0x40>
   30148: e9 00 00 90  	adrp	x9, 0x4c000 <_ZNK19ChiFeature2RealTime19GetNumDummyRequestsEP24ChiFeature2RequestObject+0x120>
   3015c: 81 07 00 54  	b.ne	0x3024c <_ZNK19ChiFeature2RealTime19GetNumDummyRequestsEP24ChiFeature2RequestObject+0x1b4>
   30174: 69 00 00 54  	b.ls	0x30180 <_ZNK19ChiFeature2RealTime19GetNumDummyRequestsEP24ChiFeature2RequestObject+0xe8>
