	b	0x19820 <_ZN7android8hardware11hidl_stringD1Ev@plt>
	b	0x19830 <_ZdlPv@plt>
	bl	0x19830 <_ZdlPv@plt>
	bl	0x19830 <_ZdlPv@plt>
	bl	0x19830 <_ZdlPv@plt>
	bl	0x19830 <_ZdlPv@plt>
	bl	0x19830 <_ZdlPv@plt>
	bl	0x19830 <_ZdlPv@plt>
	bl	0x19830 <_ZdlPv@plt>
	bl	0x19830 <_ZdlPv@plt>
	bl	0x19830 <_ZdlPv@plt>
	bl	0x19830 <_ZdlPv@plt>
	bl	0x19830 <_ZdlPv@plt>
	bl	0x19830 <_ZdlPv@plt>
	bl	0x19830 <_ZdlPv@plt>
	bl	0x19830 <_ZdlPv@plt>
	bl	0x19830 <_ZdlPv@plt>
	bl	0x19830 <_ZdlPv@plt>
	bl	0x19840 <_ZN7android8hardware11hidl_stringC1EPKc@plt>
	bl	0x19840 <_ZN7android8hardware11hidl_stringC1EPKc@plt>
	bl	0x19840 <_ZN7android8hardware11hidl_stringC1EPKc@plt>
	bl	0x19840 <_ZN7android8hardware11hidl_stringC1EPKc@plt>
	bl	0x19840 <_ZN7android8hardware11hidl_stringC1EPKc@plt>
	bl	0x19840 <_ZN7android8hardware11hidl_stringC1EPKc@plt>
	bl	0x19840 <_ZN7android8hardware11hidl_stringC1EPKc@plt>
	bl	0x19840 <_ZN7android8hardware11hidl_stringC1EPKc@plt>
	bl	0x19840 <_ZN7android8hardware11hidl_stringC1EPKc@plt>
	bl	0x19840 <_ZN7android8hardware11hidl_stringC1EPKc@plt>
	bl	0x19840 <_ZN7android8hardware11hidl_stringC1EPKc@plt>
	bl	0x19840 <_ZN7android8hardware11hidl_stringC1EPKc@plt>
	bl	0x19840 <_ZN7android8hardware11hidl_stringC1EPKc@plt>
	bl	0x19840 <_ZN7android8hardware11hidl_stringC1EPKc@plt>
	bl	0x19840 <_ZN7android8hardware11hidl_stringC1EPKc@plt>
	bl	0x19840 <_ZN7android8hardware11hidl_stringC1EPKc@plt>
	bl	0x19840 <_ZN7android8hardware11hidl_stringC1EPKc@plt>
	bl	0x19840 <_ZN7android8hardware11hidl_stringC1EPKc@plt>
	bl	0x19840 <_ZN7android8hardware11hidl_stringC1EPKc@plt>
	bl	0x19840 <_ZN7android8hardware11hidl_stringC1EPKc@plt>
	bl	0x19840 <_ZN7android8hardware11hidl_stringC1EPKc@plt>
	bl	0x19860 <_Znwm@plt>
	bl	0x19860 <_Znwm@plt>
	bl	0x19860 <_Znwm@plt>
	bl	0x19860 <_Znwm@plt>
	bl	0x19860 <_Znwm@plt>
	bl	0x19860 <_Znwm@plt>
	bl	0x19860 <_Znwm@plt>
	bl	0x19860 <_Znwm@plt>
	bl	0x19860 <_Znwm@plt>
	bl	0x19860 <_Znwm@plt>
	bl	0x19860 <_Znwm@plt>
	bl	0x19860 <_Znwm@plt>
	bl	0x19860 <_Znwm@plt>
	bl	0x19860 <_Znwm@plt>
	bl	0x19860 <_Znwm@plt>
	bl	0x19860 <_Znwm@plt>
	bl	0x19860 <_Znwm@plt>
	bl	0x19870 <_ZN7android8hardware11hidl_stringC1ERKNSt3__112basic_stringIcNS2_11char_traitsIcEENS2_9allocatorIcEEEE@plt>
	bl	0x19870 <_ZN7android8hardware11hidl_stringC1ERKNSt3__112basic_stringIcNS2_11char_traitsIcEENS2_9allocatorIcEEEE@plt>
	bl	0x19870 <_ZN7android8hardware11hidl_stringC1ERKNSt3__112basic_stringIcNS2_11char_traitsIcEENS2_9allocatorIcEEEE@plt>
	bl	0x19870 <_ZN7android8hardware11hidl_stringC1ERKNSt3__112basic_stringIcNS2_11char_traitsIcEENS2_9allocatorIcEEEE@plt>
	bl	0x19870 <_ZN7android8hardware11hidl_stringC1ERKNSt3__112basic_stringIcNS2_11char_traitsIcEENS2_9allocatorIcEEEE@plt>
	bl	0x19870 <_ZN7android8hardware11hidl_stringC1ERKNSt3__112basic_stringIcNS2_11char_traitsIcEENS2_9allocatorIcEEEE@plt>
	bl	0x19870 <_ZN7android8hardware11hidl_stringC1ERKNSt3__112basic_stringIcNS2_11char_traitsIcEENS2_9allocatorIcEEEE@plt>
	bl	0x19870 <_ZN7android8hardware11hidl_stringC1ERKNSt3__112basic_stringIcNS2_11char_traitsIcEENS2_9allocatorIcEEEE@plt>
	bl	0x19870 <_ZN7android8hardware11hidl_stringC1ERKNSt3__112basic_stringIcNS2_11char_traitsIcEENS2_9allocatorIcEEEE@plt>
	bl	0x19870 <_ZN7android8hardware11hidl_stringC1ERKNSt3__112basic_stringIcNS2_11char_traitsIcEENS2_9allocatorIcEEEE@plt>
	bl	0x19870 <_ZN7android8hardware11hidl_stringC1ERKNSt3__112basic_stringIcNS2_11char_traitsIcEENS2_9allocatorIcEEEE@plt>
	bl	0x19870 <_ZN7android8hardware11hidl_stringC1ERKNSt3__112basic_stringIcNS2_11char_traitsIcEENS2_9allocatorIcEEEE@plt>
	bl	0x19870 <_ZN7android8hardware11hidl_stringC1ERKNSt3__112basic_stringIcNS2_11char_traitsIcEENS2_9allocatorIcEEEE@plt>
	bl	0x19870 <_ZN7android8hardware11hidl_stringC1ERKNSt3__112basic_stringIcNS2_11char_traitsIcEENS2_9allocatorIcEEEE@plt>
	bl	0x19870 <_ZN7android8hardware11hidl_stringC1ERKNSt3__112basic_stringIcNS2_11char_traitsIcEENS2_9allocatorIcEEEE@plt>
	bl	0x19870 <_ZN7android8hardware11hidl_stringC1ERKNSt3__112basic_stringIcNS2_11char_traitsIcEENS2_9allocatorIcEEEE@plt>
	bl	0x19870 <_ZN7android8hardware11hidl_stringC1ERKNSt3__112basic_stringIcNS2_11char_traitsIcEENS2_9allocatorIcEEEE@plt>
	bl	0x19870 <_ZN7android8hardware11hidl_stringC1ERKNSt3__112basic_stringIcNS2_11char_traitsIcEENS2_9allocatorIcEEEE@plt>
	bl	0x19870 <_ZN7android8hardware11hidl_stringC1ERKNSt3__112basic_stringIcNS2_11char_traitsIcEENS2_9allocatorIcEEEE@plt>
	bl	0x19870 <_ZN7android8hardware11hidl_stringC1ERKNSt3__112basic_stringIcNS2_11char_traitsIcEENS2_9allocatorIcEEEE@plt>
	bl	0x19870 <_ZN7android8hardware11hidl_stringC1ERKNSt3__112basic_stringIcNS2_11char_traitsIcEENS2_9allocatorIcEEEE@plt>
	bl	0x19870 <_ZN7android8hardware11hidl_stringC1ERKNSt3__112basic_stringIcNS2_11char_traitsIcEENS2_9allocatorIcEEEE@plt>
	bl	0x19870 <_ZN7android8hardware11hidl_stringC1ERKNSt3__112basic_stringIcNS2_11char_traitsIcEENS2_9allocatorIcEEEE@plt>
	bl	0x19870 <_ZN7android8hardware11hidl_stringC1ERKNSt3__112basic_stringIcNS2_11char_traitsIcEENS2_9allocatorIcEEEE@plt>
	bl	0x19870 <_ZN7android8hardware11hidl_stringC1ERKNSt3__112basic_stringIcNS2_11char_traitsIcEENS2_9allocatorIcEEEE@plt>
	bl	0x19870 <_ZN7android8hardware11hidl_stringC1ERKNSt3__112basic_stringIcNS2_11char_traitsIcEENS2_9allocatorIcEEEE@plt>
	bl	0x19880 <_ZNSt3__112basic_stringIcNS_11char_traitsIcEENS_9allocatorIcEEEC1ERKS5_@plt>
	bl	0x19880 <_ZNSt3__112basic_stringIcNS_11char_traitsIcEENS_9allocatorIcEEEC1ERKS5_@plt>
	bl	0x19880 <_ZNSt3__112basic_stringIcNS_11char_traitsIcEENS_9allocatorIcEEEC1ERKS5_@plt>
	bl	0x19880 <_ZNSt3__112basic_stringIcNS_11char_traitsIcEENS_9allocatorIcEEEC1ERKS5_@plt>
	bl	0x19860 <_Znwm@plt>
	bl	0x19860 <_Znwm@plt>
	bl	0x19860 <_Znwm@plt>
	bl	0x19860 <_Znwm@plt>
	bl	0x19860 <_Znwm@plt>
	bl	0x19860 <_Znwm@plt>
	bl	0x19860 <_Znwm@plt>
	bl	0x19860 <_Znwm@plt>
	bl	0x19860 <_Znwm@plt>
	bl	0x19860 <_Znwm@plt>
	bl	0x19860 <_Znwm@plt>
	bl	0x19860 <_Znwm@plt>
	bl	0x19860 <_Znwm@plt>
	bl	0x19860 <_Znwm@plt>
	bl	0x19860 <_Znwm@plt>
	bl	0x19860 <_Znwm@plt>
	bl	0x19860 <_Znwm@plt>
	bl	0x19860 <_Znwm@plt>
	bl	0x19860 <_Znwm@plt>
	bl	0x19860 <_Znwm@plt>
	bl	0x19860 <_Znwm@plt>
	bl	0x19860 <_Znwm@plt>
	bl	0x19860 <_Znwm@plt>
	bl	0x19860 <_Znwm@plt>
	bl	0x19860 <_Znwm@plt>
	bl	0x19860 <_Znwm@plt>
	bl	0x19860 <_Znwm@plt>
	bl	0x19860 <_Znwm@plt>
	bl	0x19860 <_Znwm@plt>
	bl	0x19860 <_Znwm@plt>
	bl	0x19860 <_Znwm@plt>
	bl	0x19860 <_Znwm@plt>
	bl	0x19860 <_Znwm@plt>
	bl	0x19860 <_Znwm@plt>
	bl	0x19860 <_Znwm@plt>
	bl	0x19860 <_Znwm@plt>
	bl	0x19860 <_Znwm@plt>
	bl	0x19860 <_Znwm@plt>
	bl	0x19860 <_Znwm@plt>
	bl	0x19860 <_Znwm@plt>
	bl	0x19860 <_Znwm@plt>
	bl	0x19860 <_Znwm@plt>
	bl	0x19860 <_Znwm@plt>
	bl	0x19860 <_Znwm@plt>
	bl	0x19860 <_Znwm@plt>
	bl	0x19860 <_Znwm@plt>
	bl	0x19860 <_Znwm@plt>
	bl	0x19860 <_Znwm@plt>
	bl	0x19860 <_Znwm@plt>
	bl	0x19860 <_Znwm@plt>
	bl	0x19860 <_Znwm@plt>
	bl	0x19860 <_Znwm@plt>
	bl	0x19860 <_Znwm@plt>
	bl	0x19860 <_Znwm@plt>
	bl	0x19860 <_Znwm@plt>
	bl	0x19860 <_Znwm@plt>
	bl	0x19860 <_Znwm@plt>
	bl	0x19860 <_Znwm@plt>
	bl	0x19860 <_Znwm@plt>
	bl	0x19860 <_Znwm@plt>
	bl	0x19860 <_Znwm@plt>
	bl	0x19860 <_Znwm@plt>
	bl	0x19860 <_Znwm@plt>
	bl	0x19860 <_Znwm@plt>
	bl	0x19860 <_Znwm@plt>
	bl	0x19860 <_Znwm@plt>
	bl	0x19860 <_Znwm@plt>
	bl	0x19860 <_Znwm@plt>
	bl	0x19860 <_Znwm@plt>
	bl	0x19860 <_Znwm@plt>
	bl	0x19860 <_Znwm@plt>
	bl	0x19860 <_Znwm@plt>
	bl	0x19860 <_Znwm@plt>
	bl	0x19860 <_Znwm@plt>
	bl	0x19860 <_Znwm@plt>
	bl	0x19860 <_Znwm@plt>
	bl	0x19860 <_Znwm@plt>
	bl	0x19860 <_Znwm@plt>
	bl	0x19860 <_Znwm@plt>
	bl	0x19860 <_Znwm@plt>
	bl	0x19860 <_Znwm@plt>
	bl	0x19860 <_Znwm@plt>
	bl	0x19860 <_Znwm@plt>
	bl	0x19860 <_Znwm@plt>
	bl	0x19860 <_Znwm@plt>
	bl	0x19860 <_Znwm@plt>
	bl	0x19860 <_Znwm@plt>
	bl	0x19860 <_Znwm@plt>
	bl	0x19860 <_Znwm@plt>
	bl	0x19860 <_Znwm@plt>
	bl	0x19860 <_Znwm@plt>
	bl	0x19860 <_Znwm@plt>
	bl	0x19860 <_Znwm@plt>
	bl	0x19860 <_Znwm@plt>
	bl	0x19860 <_Znwm@plt>
	bl	0x19860 <_Znwm@plt>
	bl	0x19860 <_Znwm@plt>
	bl	0x19860 <_Znwm@plt>
	bl	0x19860 <_Znwm@plt>
	bl	0x19860 <_Znwm@plt>
	bl	0x19860 <_Znwm@plt>
	bl	0x19860 <_Znwm@plt>
	bl	0x19860 <_Znwm@plt>
	bl	0x19860 <_Znwm@plt>
	bl	0x19860 <_Znwm@plt>
	bl	0x19860 <_Znwm@plt>
	bl	0x19860 <_Znwm@plt>
	bl	0x19860 <_Znwm@plt>
	bl	0x19860 <_Znwm@plt>
	bl	0x19860 <_Znwm@plt>
	bl	0x19860 <_Znwm@plt>
	bl	0x19860 <_Znwm@plt>
	bl	0x19860 <_Znwm@plt>
	bl	0x19860 <_Znwm@plt>
	bl	0x19860 <_Znwm@plt>
	bl	0x19860 <_Znwm@plt>
	bl	0x19860 <_Znwm@plt>
	bl	0x19860 <_Znwm@plt>
	bl	0x19860 <_Znwm@plt>
	bl	0x19860 <_Znwm@plt>
	bl	0x19860 <_Znwm@plt>
	bl	0x19860 <_Znwm@plt>
	bl	0x19860 <_Znwm@plt>
	bl	0x19860 <_Znwm@plt>
	bl	0x19860 <_Znwm@plt>
	bl	0x19860 <_Znwm@plt>
	bl	0x19860 <_Znwm@plt>
	bl	0x19860 <_Znwm@plt>
	bl	0x19860 <_Znwm@plt>
	bl	0x19860 <_Znwm@plt>
	bl	0x19860 <_Znwm@plt>
	bl	0x19860 <_Znwm@plt>
	bl	0x19860 <_Znwm@plt>
	bl	0x19860 <_Znwm@plt>
	bl	0x19860 <_Znwm@plt>
	bl	0x19860 <_Znwm@plt>
	bl	0x19860 <_Znwm@plt>
	bl	0x19860 <_Znwm@plt>
	bl	0x19860 <_Znwm@plt>
	bl	0x19860 <_Znwm@plt>
	bl	0x19860 <_Znwm@plt>
	bl	0x19860 <_Znwm@plt>
	bl	0x19860 <_Znwm@plt>
	bl	0x19860 <_Znwm@plt>
	bl	0x19860 <_Znwm@plt>
	bl	0x19860 <_Znwm@plt>
	bl	0x19860 <_Znwm@plt>
	bl	0x19860 <_Znwm@plt>
	bl	0x19860 <_Znwm@plt>
	bl	0x19860 <_Znwm@plt>
	bl	0x19860 <_Znwm@plt>
	bl	0x19860 <_Znwm@plt>
	bl	0x19860 <_Znwm@plt>
	bl	0x19860 <_Znwm@plt>
	bl	0x19860 <_Znwm@plt>
	bl	0x19860 <_Znwm@plt>
	b	0x19830 <_ZdlPv@plt>
	bl	0x198b0 <_ZNSt3__119__shared_weak_countD2Ev@plt>
	b	0x19830 <_ZdlPv@plt>
	b	0x19830 <_ZdlPv@plt>
	b	0x19830 <_ZdlPv@plt>
	bl	0x198b0 <_ZNSt3__119__shared_weak_countD2Ev@plt>
	b	0x19830 <_ZdlPv@plt>
	b	0x19830 <_ZdlPv@plt>
	b	0x19830 <_ZdlPv@plt>
	bl	0x19830 <_ZdlPv@plt>
	bl	0x19830 <_ZdlPv@plt>
	bl	0x19830 <_ZdlPv@plt>
	bl	0x19830 <_ZdlPv@plt>
	bl	0x19830 <_ZdlPv@plt>
	bl	0x19830 <_ZdlPv@plt>
	bl	0x19830 <_ZdlPv@plt>
	bl	0x19830 <_ZdlPv@plt>
	bl	0x19830 <_ZdlPv@plt>
	bl	0x19830 <_ZdlPv@plt>
	bl	0x19830 <_ZdlPv@plt>
	bl	0x19830 <_ZdlPv@plt>
	bl	0x19830 <_ZdlPv@plt>
	bl	0x19830 <_ZdlPv@plt>
	bl	0x19830 <_ZdlPv@plt>
	bl	0x19830 <_ZdlPv@plt>
	bl	0x19840 <_ZN7android8hardware11hidl_stringC1EPKc@plt>
	bl	0x19840 <_ZN7android8hardware11hidl_stringC1EPKc@plt>
	bl	0x19840 <_ZN7android8hardware11hidl_stringC1EPKc@plt>
	bl	0x19840 <_ZN7android8hardware11hidl_stringC1EPKc@plt>
	bl	0x19840 <_ZN7android8hardware11hidl_stringC1EPKc@plt>
	bl	0x19840 <_ZN7android8hardware11hidl_stringC1EPKc@plt>
	bl	0x19840 <_ZN7android8hardware11hidl_stringC1EPKc@plt>
	bl	0x19840 <_ZN7android8hardware11hidl_stringC1EPKc@plt>
	bl	0x19840 <_ZN7android8hardware11hidl_stringC1EPKc@plt>
	bl	0x19840 <_ZN7android8hardware11hidl_stringC1EPKc@plt>
	bl	0x19840 <_ZN7android8hardware11hidl_stringC1EPKc@plt>
	bl	0x19840 <_ZN7android8hardware11hidl_stringC1EPKc@plt>
	bl	0x19840 <_ZN7android8hardware11hidl_stringC1EPKc@plt>
	bl	0x19840 <_ZN7android8hardware11hidl_stringC1EPKc@plt>
	bl	0x19840 <_ZN7android8hardware11hidl_stringC1EPKc@plt>
	bl	0x19840 <_ZN7android8hardware11hidl_stringC1EPKc@plt>
	bl	0x19840 <_ZN7android8hardware11hidl_stringC1EPKc@plt>
	bl	0x19840 <_ZN7android8hardware11hidl_stringC1EPKc@plt>
	bl	0x19840 <_ZN7android8hardware11hidl_stringC1EPKc@plt>
	bl	0x19840 <_ZN7android8hardware11hidl_stringC1EPKc@plt>
	bl	0x19840 <_ZN7android8hardware11hidl_stringC1EPKc@plt>
	bl	0x19860 <_Znwm@plt>
	bl	0x19860 <_Znwm@plt>
	bl	0x19860 <_Znwm@plt>
	bl	0x19860 <_Znwm@plt>
	bl	0x19860 <_Znwm@plt>
	bl	0x19860 <_Znwm@plt>
	bl	0x19860 <_Znwm@plt>
	bl	0x19860 <_Znwm@plt>
	bl	0x19860 <_Znwm@plt>
	bl	0x19860 <_Znwm@plt>
	bl	0x19860 <_Znwm@plt>
	bl	0x19860 <_Znwm@plt>
	bl	0x19860 <_Znwm@plt>
	bl	0x19860 <_Znwm@plt>
	bl	0x19860 <_Znwm@plt>
	bl	0x19860 <_Znwm@plt>
	bl	0x19860 <_Znwm@plt>
	bl	0x19870 <_ZN7android8hardware11hidl_stringC1ERKNSt3__112basic_stringIcNS2_11char_traitsIcEENS2_9allocatorIcEEEE@plt>
	bl	0x19870 <_ZN7android8hardware11hidl_stringC1ERKNSt3__112basic_stringIcNS2_11char_traitsIcEENS2_9allocatorIcEEEE@plt>
	bl	0x19870 <_ZN7android8hardware11hidl_stringC1ERKNSt3__112basic_stringIcNS2_11char_traitsIcEENS2_9allocatorIcEEEE@plt>
	bl	0x19870 <_ZN7android8hardware11hidl_stringC1ERKNSt3__112basic_stringIcNS2_11char_traitsIcEENS2_9allocatorIcEEEE@plt>
	bl	0x19870 <_ZN7android8hardware11hidl_stringC1ERKNSt3__112basic_stringIcNS2_11char_traitsIcEENS2_9allocatorIcEEEE@plt>
	bl	0x19870 <_ZN7android8hardware11hidl_stringC1ERKNSt3__112basic_stringIcNS2_11char_traitsIcEENS2_9allocatorIcEEEE@plt>
	bl	0x19870 <_ZN7android8hardware11hidl_stringC1ERKNSt3__112basic_stringIcNS2_11char_traitsIcEENS2_9allocatorIcEEEE@plt>
	bl	0x19870 <_ZN7android8hardware11hidl_stringC1ERKNSt3__112basic_stringIcNS2_11char_traitsIcEENS2_9allocatorIcEEEE@plt>
	bl	0x19870 <_ZN7android8hardware11hidl_stringC1ERKNSt3__112basic_stringIcNS2_11char_traitsIcEENS2_9allocatorIcEEEE@plt>
	bl	0x19870 <_ZN7android8hardware11hidl_stringC1ERKNSt3__112basic_stringIcNS2_11char_traitsIcEENS2_9allocatorIcEEEE@plt>
	bl	0x19870 <_ZN7android8hardware11hidl_stringC1ERKNSt3__112basic_stringIcNS2_11char_traitsIcEENS2_9allocatorIcEEEE@plt>
	bl	0x19870 <_ZN7android8hardware11hidl_stringC1ERKNSt3__112basic_stringIcNS2_11char_traitsIcEENS2_9allocatorIcEEEE@plt>
	bl	0x19870 <_ZN7android8hardware11hidl_stringC1ERKNSt3__112basic_stringIcNS2_11char_traitsIcEENS2_9allocatorIcEEEE@plt>
	bl	0x19870 <_ZN7android8hardware11hidl_stringC1ERKNSt3__112basic_stringIcNS2_11char_traitsIcEENS2_9allocatorIcEEEE@plt>
	bl	0x19870 <_ZN7android8hardware11hidl_stringC1ERKNSt3__112basic_stringIcNS2_11char_traitsIcEENS2_9allocatorIcEEEE@plt>
	bl	0x19870 <_ZN7android8hardware11hidl_stringC1ERKNSt3__112basic_stringIcNS2_11char_traitsIcEENS2_9allocatorIcEEEE@plt>
	bl	0x19870 <_ZN7android8hardware11hidl_stringC1ERKNSt3__112basic_stringIcNS2_11char_traitsIcEENS2_9allocatorIcEEEE@plt>
	bl	0x19870 <_ZN7android8hardware11hidl_stringC1ERKNSt3__112basic_stringIcNS2_11char_traitsIcEENS2_9allocatorIcEEEE@plt>
	bl	0x19870 <_ZN7android8hardware11hidl_stringC1ERKNSt3__112basic_stringIcNS2_11char_traitsIcEENS2_9allocatorIcEEEE@plt>
	bl	0x19870 <_ZN7android8hardware11hidl_stringC1ERKNSt3__112basic_stringIcNS2_11char_traitsIcEENS2_9allocatorIcEEEE@plt>
	bl	0x19870 <_ZN7android8hardware11hidl_stringC1ERKNSt3__112basic_stringIcNS2_11char_traitsIcEENS2_9allocatorIcEEEE@plt>
	bl	0x19870 <_ZN7android8hardware11hidl_stringC1ERKNSt3__112basic_stringIcNS2_11char_traitsIcEENS2_9allocatorIcEEEE@plt>
	bl	0x19870 <_ZN7android8hardware11hidl_stringC1ERKNSt3__112basic_stringIcNS2_11char_traitsIcEENS2_9allocatorIcEEEE@plt>
	bl	0x19870 <_ZN7android8hardware11hidl_stringC1ERKNSt3__112basic_stringIcNS2_11char_traitsIcEENS2_9allocatorIcEEEE@plt>
	bl	0x19870 <_ZN7android8hardware11hidl_stringC1ERKNSt3__112basic_stringIcNS2_11char_traitsIcEENS2_9allocatorIcEEEE@plt>
	bl	0x19870 <_ZN7android8hardware11hidl_stringC1ERKNSt3__112basic_stringIcNS2_11char_traitsIcEENS2_9allocatorIcEEEE@plt>
	bl	0x19880 <_ZNSt3__112basic_stringIcNS_11char_traitsIcEENS_9allocatorIcEEEC1ERKS5_@plt>
	bl	0x19880 <_ZNSt3__112basic_stringIcNS_11char_traitsIcEENS_9allocatorIcEEEC1ERKS5_@plt>
	bl	0x19880 <_ZNSt3__112basic_stringIcNS_11char_traitsIcEENS_9allocatorIcEEEC1ERKS5_@plt>
	bl	0x19880 <_ZNSt3__112basic_stringIcNS_11char_traitsIcEENS_9allocatorIcEEEC1ERKS5_@plt>
	bl	0x19860 <_Znwm@plt>
	bl	0x19860 <_Znwm@plt>
	bl	0x19860 <_Znwm@plt>
	bl	0x19860 <_Znwm@plt>
	bl	0x19860 <_Znwm@plt>
	bl	0x19860 <_Znwm@plt>
	bl	0x19860 <_Znwm@plt>
	bl	0x19860 <_Znwm@plt>
	bl	0x19860 <_Znwm@plt>
	bl	0x19860 <_Znwm@plt>
	bl	0x19860 <_Znwm@plt>
	bl	0x19860 <_Znwm@plt>
	bl	0x19860 <_Znwm@plt>
	bl	0x19860 <_Znwm@plt>
	bl	0x19860 <_Znwm@plt>
	bl	0x19860 <_Znwm@plt>
	bl	0x19860 <_Znwm@plt>
	bl	0x19860 <_Znwm@plt>
	bl	0x19860 <_Znwm@plt>
	bl	0x19860 <_Znwm@plt>
	bl	0x19860 <_Znwm@plt>
	bl	0x19860 <_Znwm@plt>
	bl	0x19860 <_Znwm@plt>
	bl	0x19860 <_Znwm@plt>
	bl	0x19860 <_Znwm@plt>
	bl	0x19860 <_Znwm@plt>
	bl	0x19860 <_Znwm@plt>
	bl	0x19860 <_Znwm@plt>
	bl	0x19860 <_Znwm@plt>
	bl	0x19860 <_Znwm@plt>
	bl	0x19860 <_Znwm@plt>
	bl	0x19860 <_Znwm@plt>
	bl	0x19860 <_Znwm@plt>
	bl	0x19860 <_Znwm@plt>
	bl	0x19860 <_Znwm@plt>
	bl	0x19860 <_Znwm@plt>
	bl	0x19860 <_Znwm@plt>
	bl	0x19860 <_Znwm@plt>
	bl	0x19860 <_Znwm@plt>
	bl	0x19860 <_Znwm@plt>
	bl	0x19860 <_Znwm@plt>
	bl	0x19860 <_Znwm@plt>
	bl	0x19860 <_Znwm@plt>
	bl	0x19860 <_Znwm@plt>
	bl	0x19860 <_Znwm@plt>
	bl	0x19860 <_Znwm@plt>
	bl	0x19860 <_Znwm@plt>
	bl	0x19860 <_Znwm@plt>
	bl	0x19860 <_Znwm@plt>
	bl	0x19860 <_Znwm@plt>
	bl	0x19860 <_Znwm@plt>
	bl	0x19860 <_Znwm@plt>
	bl	0x19860 <_Znwm@plt>
	bl	0x19860 <_Znwm@plt>
	bl	0x19860 <_Znwm@plt>
	bl	0x19860 <_Znwm@plt>
	bl	0x19860 <_Znwm@plt>
	bl	0x19860 <_Znwm@plt>
	bl	0x19860 <_Znwm@plt>
	bl	0x19860 <_Znwm@plt>
	bl	0x19860 <_Znwm@plt>
	bl	0x19860 <_Znwm@plt>
	bl	0x19860 <_Znwm@plt>
	bl	0x19860 <_Znwm@plt>
	bl	0x19860 <_Znwm@plt>
	bl	0x19860 <_Znwm@plt>
	bl	0x19860 <_Znwm@plt>
	bl	0x19860 <_Znwm@plt>
	bl	0x19860 <_Znwm@plt>
	bl	0x19860 <_Znwm@plt>
	bl	0x19860 <_Znwm@plt>
	bl	0x19860 <_Znwm@plt>
	bl	0x19860 <_Znwm@plt>
	bl	0x19860 <_Znwm@plt>
	bl	0x19860 <_Znwm@plt>
	bl	0x19860 <_Znwm@plt>
	bl	0x19860 <_Znwm@plt>
	bl	0x19860 <_Znwm@plt>
	bl	0x19860 <_Znwm@plt>
	bl	0x19860 <_Znwm@plt>
	bl	0x19860 <_Znwm@plt>
	bl	0x19860 <_Znwm@plt>
	bl	0x19860 <_Znwm@plt>
	bl	0x19860 <_Znwm@plt>
	bl	0x19860 <_Znwm@plt>
	bl	0x19860 <_Znwm@plt>
	bl	0x19860 <_Znwm@plt>
	bl	0x19860 <_Znwm@plt>
	bl	0x19860 <_Znwm@plt>
	bl	0x19860 <_Znwm@plt>
	bl	0x19860 <_Znwm@plt>
	bl	0x19860 <_Znwm@plt>
	bl	0x19860 <_Znwm@plt>
	bl	0x19860 <_Znwm@plt>
	bl	0x19860 <_Znwm@plt>
	bl	0x19860 <_Znwm@plt>
	bl	0x19860 <_Znwm@plt>
	bl	0x19860 <_Znwm@plt>
	bl	0x19860 <_Znwm@plt>
	bl	0x19860 <_Znwm@plt>
	bl	0x19860 <_Znwm@plt>
	bl	0x19860 <_Znwm@plt>
	bl	0x19860 <_Znwm@plt>
	bl	0x19860 <_Znwm@plt>
	bl	0x19860 <_Znwm@plt>
	bl	0x19860 <_Znwm@plt>
	bl	0x19860 <_Znwm@plt>
	bl	0x19860 <_Znwm@plt>
	bl	0x19860 <_Znwm@plt>
	bl	0x19860 <_Znwm@plt>
	bl	0x19860 <_Znwm@plt>
	bl	0x19860 <_Znwm@plt>
	bl	0x19860 <_Znwm@plt>
	bl	0x19860 <_Znwm@plt>
	bl	0x19860 <_Znwm@plt>
	bl	0x19860 <_Znwm@plt>
	bl	0x19860 <_Znwm@plt>
	bl	0x19860 <_Znwm@plt>
	bl	0x19860 <_Znwm@plt>
	bl	0x19860 <_Znwm@plt>
	bl	0x19860 <_Znwm@plt>
	bl	0x19860 <_Znwm@plt>
	bl	0x19860 <_Znwm@plt>
	bl	0x19860 <_Znwm@plt>
	bl	0x19860 <_Znwm@plt>
	bl	0x19860 <_Znwm@plt>
	bl	0x19860 <_Znwm@plt>
	bl	0x19860 <_Znwm@plt>
	bl	0x19860 <_Znwm@plt>
	bl	0x19860 <_Znwm@plt>
	bl	0x19860 <_Znwm@plt>
	bl	0x19860 <_Znwm@plt>
	bl	0x19860 <_Znwm@plt>
	bl	0x19860 <_Znwm@plt>
	bl	0x19860 <_Znwm@plt>
	bl	0x19860 <_Znwm@plt>
	bl	0x19860 <_Znwm@plt>
	bl	0x19860 <_Znwm@plt>
	bl	0x19860 <_Znwm@plt>
	bl	0x19860 <_Znwm@plt>
	bl	0x19860 <_Znwm@plt>
	bl	0x19860 <_Znwm@plt>
	bl	0x19860 <_Znwm@plt>
	bl	0x19860 <_Znwm@plt>
	bl	0x19860 <_Znwm@plt>
	bl	0x19860 <_Znwm@plt>
	bl	0x19860 <_Znwm@plt>
	bl	0x19860 <_Znwm@plt>
	bl	0x19860 <_Znwm@plt>
	bl	0x19860 <_Znwm@plt>
	bl	0x19860 <_Znwm@plt>
	bl	0x19860 <_Znwm@plt>
	bl	0x19860 <_Znwm@plt>
	bl	0x19860 <_Znwm@plt>
	bl	0x19860 <_Znwm@plt>
	bl	0x19860 <_Znwm@plt>
	bl	0x198e0 <_ZN16CHIThreadManager6CreateEPPS_PKcj@plt>
	bl	0x198f0 <_ZN6ChiLog9LogSystemEPKcS1_S1_S1_iS1_z@plt>
	bl	0x19900 <_ZN5Mutex6CreateEv@plt>
	bl	0x19900 <_ZN5Mutex6CreateEv@plt>
	bl	0x19910 <_ZN9Condition6CreateEv@plt>
	bl	0x19920 <_ZN8ChxUtils6LibMapEPKc@plt>
	bl	0x19930 <_ZN8ChxUtils10LibGetAddrEPvPKc@plt>
	bl	0x198f0 <_ZN6ChiLog9LogSystemEPKcS1_S1_S1_iS1_z@plt>
	bl	0x19940 <_ZN18ChiMetadataManager6CreateEjj@plt>
	bl	0x19950 <_ZN18ChiMetadataManager14RegisterClientEiPjjjj16ChiMetadataUsage@plt>
	bl	0x198f0 <_ZN6ChiLog9LogSystemEPKcS1_S1_S1_iS1_z@plt>
	bl	0x19960 <_ZN24ChiFeature2RequestObject7DestroyEv@plt>
	bl	0x19970 <_ZN31ChiFeature2UsecaseRequestObject7DestroyEv@plt>
	bl	0x19980 <_ZN15ChiFeature2Base5FlushEi@plt>
	bl	0x19990 <_ZN15ChiFeature2Base25DestroySessionAndPipelineEv@plt>
	bl	0x199a0 <_ZN16CHIThreadManager7DestroyEv@plt>
	bl	0x199b0 <_ZN18ChiMetadataManager7DestroyEv@plt>
	bl	0x199c0 <_ZN5Mutex7DestroyEv@plt>
	bl	0x199c0 <_ZN5Mutex7DestroyEv@plt>
	bl	0x199d0 <_ZN9Condition7DestroyEv@plt>
	bl	0x198f0 <_ZN6ChiLog9LogSystemEPKcS1_S1_S1_iS1_z@plt>
	bl	0x19960 <_ZN24ChiFeature2RequestObject7DestroyEv@plt>
	bl	0x19970 <_ZN31ChiFeature2UsecaseRequestObject7DestroyEv@plt>
	bl	0x19980 <_ZN15ChiFeature2Base5FlushEi@plt>
	bl	0x19990 <_ZN15ChiFeature2Base25DestroySessionAndPipelineEv@plt>
	bl	0x199e0 <_ZNK24ChiFeature2RequestObject19GetGraphPrivateDataEPPv@plt>
	bl	0x199f0 <_ZN5Mutex4LockEv@plt>
	bl	0x19a00 <_ZNK24ChiFeature2RequestObject18GetCurRequestStateEh@plt>
	bl	0x198f0 <_ZN6ChiLog9LogSystemEPKcS1_S1_S1_iS1_z@plt>
	bl	0x198f0 <_ZN6ChiLog9LogSystemEPKcS1_S1_S1_iS1_z@plt>
	bl	0x198f0 <_ZN6ChiLog9LogSystemEPKcS1_S1_S1_iS1_z@plt>
	bl	0x198f0 <_ZN6ChiLog9LogSystemEPKcS1_S1_S1_iS1_z@plt>
	bl	0x19a10 <_ZN15ChiFeature2Base14ProcessRequestEP24ChiFeature2RequestObject26ChiFeature2RequestCommands@plt>
	bl	0x19a20 <_ZN15ExtensionModule11GetInstanceEv@plt>
	bl	0x19a30 <_ZN15ExtensionModule13SubmitRequestEP18ChiPipelineRequest@plt>
	bl	0x198f0 <_ZN6ChiLog9LogSystemEPKcS1_S1_S1_iS1_z@plt>
	bl	0x198f0 <_ZN6ChiLog9LogSystemEPKcS1_S1_S1_iS1_z@plt>
	bl	0x198f0 <_ZN6ChiLog9LogSystemEPKcS1_S1_S1_iS1_z@plt>
	bl	0x19a40 <_ZN9Condition6SignalEv@plt>
	bl	0x19a50 <_ZN5Mutex6UnlockEv@plt>
	bl	0x19a60 <_ZN8ChxUtils6MemsetEPvim@plt>
	bl	0x199f0 <_ZN5Mutex4LockEv@plt>
	bl	0x198f0 <_ZN6ChiLog9LogSystemEPKcS1_S1_S1_iS1_z@plt>
	bl	0x19960 <_ZN24ChiFeature2RequestObject7DestroyEv@plt>
	bl	0x19970 <_ZN31ChiFeature2UsecaseRequestObject7DestroyEv@plt>
	bl	0x19a50 <_ZN5Mutex6UnlockEv@plt>
	bl	0x19a70 <_ZN18ChiMetadataManager3GetEjj@plt>
	bl	0x19a80 <_ZNK24ChiFeature2RequestObject23GetUsecaseRequestObjectEv@plt>
	bl	0x19a10 <_ZN15ChiFeature2Base14ProcessRequestEP24ChiFeature2RequestObject26ChiFeature2RequestCommands@plt>
	bl	0x198f0 <_ZN6ChiLog9LogSystemEPKcS1_S1_S1_iS1_z@plt>
	bl	0x198f0 <_ZN6ChiLog9LogSystemEPKcS1_S1_S1_iS1_z@plt>
	bl	0x19830 <_ZdlPv@plt>
	bl	0x199f0 <_ZN5Mutex4LockEv@plt>
	bl	0x19a90 <_ZN5Mutex15GetNativeHandleEv@plt>
	bl	0x19aa0 <_ZN9Condition9TimedWaitEP15pthread_mutex_tj@plt>
	bl	0x19a50 <_ZN5Mutex6UnlockEv@plt>
	bl	0x19a00 <_ZNK24ChiFeature2RequestObject18GetCurRequestStateEh@plt>
	bl	0x198f0 <_ZN6ChiLog9LogSystemEPKcS1_S1_S1_iS1_z@plt>
	bl	0x198f0 <_ZN6ChiLog9LogSystemEPKcS1_S1_S1_iS1_z@plt>
	b	0x19830 <_ZdlPv@plt>
	bl	0x19830 <_ZdlPv@plt>
	bl	0x19830 <_ZdlPv@plt>
	bl	0x19830 <_ZdlPv@plt>
	bl	0x19830 <_ZdlPv@plt>
	bl	0x19830 <_ZdlPv@plt>
	bl	0x19830 <_ZdlPv@plt>
	bl	0x19830 <_ZdlPv@plt>
	bl	0x19830 <_ZdlPv@plt>
	bl	0x19830 <_ZdlPv@plt>
	bl	0x19830 <_ZdlPv@plt>
	bl	0x19830 <_ZdlPv@plt>
	bl	0x19830 <_ZdlPv@plt>
	bl	0x19830 <_ZdlPv@plt>
	bl	0x19830 <_ZdlPv@plt>
	bl	0x19830 <_ZdlPv@plt>
	bl	0x19830 <_ZdlPv@plt>
	bl	0x19840 <_ZN7android8hardware11hidl_stringC1EPKc@plt>
	bl	0x19840 <_ZN7android8hardware11hidl_stringC1EPKc@plt>
	bl	0x19840 <_ZN7android8hardware11hidl_stringC1EPKc@plt>
	bl	0x19840 <_ZN7android8hardware11hidl_stringC1EPKc@plt>
	bl	0x19840 <_ZN7android8hardware11hidl_stringC1EPKc@plt>
	bl	0x19840 <_ZN7android8hardware11hidl_stringC1EPKc@plt>
	bl	0x19840 <_ZN7android8hardware11hidl_stringC1EPKc@plt>
	bl	0x19840 <_ZN7android8hardware11hidl_stringC1EPKc@plt>
	bl	0x19840 <_ZN7android8hardware11hidl_stringC1EPKc@plt>
	bl	0x19840 <_ZN7android8hardware11hidl_stringC1EPKc@plt>
	bl	0x19840 <_ZN7android8hardware11hidl_stringC1EPKc@plt>
	bl	0x19840 <_ZN7android8hardware11hidl_stringC1EPKc@plt>
	bl	0x19840 <_ZN7android8hardware11hidl_stringC1EPKc@plt>
	bl	0x19840 <_ZN7android8hardware11hidl_stringC1EPKc@plt>
	bl	0x19840 <_ZN7android8hardware11hidl_stringC1EPKc@plt>
	bl	0x19840 <_ZN7android8hardware11hidl_stringC1EPKc@plt>
	bl	0x19840 <_ZN7android8hardware11hidl_stringC1EPKc@plt>
	bl	0x19840 <_ZN7android8hardware11hidl_stringC1EPKc@plt>
	bl	0x19840 <_ZN7android8hardware11hidl_stringC1EPKc@plt>
	bl	0x19840 <_ZN7android8hardware11hidl_stringC1EPKc@plt>
	bl	0x19840 <_ZN7android8hardware11hidl_stringC1EPKc@plt>
	bl	0x19860 <_Znwm@plt>
	bl	0x19860 <_Znwm@plt>
	bl	0x19860 <_Znwm@plt>
	bl	0x19860 <_Znwm@plt>
	bl	0x19860 <_Znwm@plt>
	bl	0x19860 <_Znwm@plt>
	bl	0x19860 <_Znwm@plt>
	bl	0x19860 <_Znwm@plt>
	bl	0x19860 <_Znwm@plt>
	bl	0x19860 <_Znwm@plt>
	bl	0x19860 <_Znwm@plt>
	bl	0x19860 <_Znwm@plt>
	bl	0x19860 <_Znwm@plt>
	bl	0x19860 <_Znwm@plt>
	bl	0x19860 <_Znwm@plt>
	bl	0x19860 <_Znwm@plt>
	bl	0x19860 <_Znwm@plt>
	bl	0x19870 <_ZN7android8hardware11hidl_stringC1ERKNSt3__112basic_stringIcNS2_11char_traitsIcEENS2_9allocatorIcEEEE@plt>
	bl	0x19870 <_ZN7android8hardware11hidl_stringC1ERKNSt3__112basic_stringIcNS2_11char_traitsIcEENS2_9allocatorIcEEEE@plt>
	bl	0x19870 <_ZN7android8hardware11hidl_stringC1ERKNSt3__112basic_stringIcNS2_11char_traitsIcEENS2_9allocatorIcEEEE@plt>
	bl	0x19870 <_ZN7android8hardware11hidl_stringC1ERKNSt3__112basic_stringIcNS2_11char_traitsIcEENS2_9allocatorIcEEEE@plt>
	bl	0x19870 <_ZN7android8hardware11hidl_stringC1ERKNSt3__112basic_stringIcNS2_11char_traitsIcEENS2_9allocatorIcEEEE@plt>
	bl	0x19870 <_ZN7android8hardware11hidl_stringC1ERKNSt3__112basic_stringIcNS2_11char_traitsIcEENS2_9allocatorIcEEEE@plt>
	bl	0x19870 <_ZN7android8hardware11hidl_stringC1ERKNSt3__112basic_stringIcNS2_11char_traitsIcEENS2_9allocatorIcEEEE@plt>
	bl	0x19870 <_ZN7android8hardware11hidl_stringC1ERKNSt3__112basic_stringIcNS2_11char_traitsIcEENS2_9allocatorIcEEEE@plt>
	bl	0x19870 <_ZN7android8hardware11hidl_stringC1ERKNSt3__112basic_stringIcNS2_11char_traitsIcEENS2_9allocatorIcEEEE@plt>
	bl	0x19870 <_ZN7android8hardware11hidl_stringC1ERKNSt3__112basic_stringIcNS2_11char_traitsIcEENS2_9allocatorIcEEEE@plt>
	bl	0x19870 <_ZN7android8hardware11hidl_stringC1ERKNSt3__112basic_stringIcNS2_11char_traitsIcEENS2_9allocatorIcEEEE@plt>
	bl	0x19870 <_ZN7android8hardware11hidl_stringC1ERKNSt3__112basic_stringIcNS2_11char_traitsIcEENS2_9allocatorIcEEEE@plt>
	bl	0x19870 <_ZN7android8hardware11hidl_stringC1ERKNSt3__112basic_stringIcNS2_11char_traitsIcEENS2_9allocatorIcEEEE@plt>
	bl	0x19870 <_ZN7android8hardware11hidl_stringC1ERKNSt3__112basic_stringIcNS2_11char_traitsIcEENS2_9allocatorIcEEEE@plt>
	bl	0x19870 <_ZN7android8hardware11hidl_stringC1ERKNSt3__112basic_stringIcNS2_11char_traitsIcEENS2_9allocatorIcEEEE@plt>
	bl	0x19870 <_ZN7android8hardware11hidl_stringC1ERKNSt3__112basic_stringIcNS2_11char_traitsIcEENS2_9allocatorIcEEEE@plt>
	bl	0x19870 <_ZN7android8hardware11hidl_stringC1ERKNSt3__112basic_stringIcNS2_11char_traitsIcEENS2_9allocatorIcEEEE@plt>
	bl	0x19870 <_ZN7android8hardware11hidl_stringC1ERKNSt3__112basic_stringIcNS2_11char_traitsIcEENS2_9allocatorIcEEEE@plt>
	bl	0x19870 <_ZN7android8hardware11hidl_stringC1ERKNSt3__112basic_stringIcNS2_11char_traitsIcEENS2_9allocatorIcEEEE@plt>
	bl	0x19870 <_ZN7android8hardware11hidl_stringC1ERKNSt3__112basic_stringIcNS2_11char_traitsIcEENS2_9allocatorIcEEEE@plt>
	bl	0x19870 <_ZN7android8hardware11hidl_stringC1ERKNSt3__112basic_stringIcNS2_11char_traitsIcEENS2_9allocatorIcEEEE@plt>
	bl	0x19870 <_ZN7android8hardware11hidl_stringC1ERKNSt3__112basic_stringIcNS2_11char_traitsIcEENS2_9allocatorIcEEEE@plt>
	bl	0x19870 <_ZN7android8hardware11hidl_stringC1ERKNSt3__112basic_stringIcNS2_11char_traitsIcEENS2_9allocatorIcEEEE@plt>
	bl	0x19870 <_ZN7android8hardware11hidl_stringC1ERKNSt3__112basic_stringIcNS2_11char_traitsIcEENS2_9allocatorIcEEEE@plt>
	bl	0x19870 <_ZN7android8hardware11hidl_stringC1ERKNSt3__112basic_stringIcNS2_11char_traitsIcEENS2_9allocatorIcEEEE@plt>
	bl	0x19870 <_ZN7android8hardware11hidl_stringC1ERKNSt3__112basic_stringIcNS2_11char_traitsIcEENS2_9allocatorIcEEEE@plt>
	bl	0x19880 <_ZNSt3__112basic_stringIcNS_11char_traitsIcEENS_9allocatorIcEEEC1ERKS5_@plt>
	bl	0x19880 <_ZNSt3__112basic_stringIcNS_11char_traitsIcEENS_9allocatorIcEEEC1ERKS5_@plt>
	bl	0x19880 <_ZNSt3__112basic_stringIcNS_11char_traitsIcEENS_9allocatorIcEEEC1ERKS5_@plt>
	bl	0x19880 <_ZNSt3__112basic_stringIcNS_11char_traitsIcEENS_9allocatorIcEEEC1ERKS5_@plt>
	bl	0x19860 <_Znwm@plt>
	bl	0x19860 <_Znwm@plt>
	bl	0x19860 <_Znwm@plt>
	bl	0x19860 <_Znwm@plt>
	bl	0x19860 <_Znwm@plt>
	bl	0x19860 <_Znwm@plt>
	bl	0x19860 <_Znwm@plt>
	bl	0x19860 <_Znwm@plt>
	bl	0x19860 <_Znwm@plt>
	bl	0x19860 <_Znwm@plt>
	bl	0x19860 <_Znwm@plt>
	bl	0x19860 <_Znwm@plt>
	bl	0x19860 <_Znwm@plt>
	bl	0x19860 <_Znwm@plt>
	bl	0x19860 <_Znwm@plt>
	bl	0x19860 <_Znwm@plt>
	bl	0x19860 <_Znwm@plt>
	bl	0x19860 <_Znwm@plt>
	bl	0x19860 <_Znwm@plt>
	bl	0x19860 <_Znwm@plt>
	bl	0x19860 <_Znwm@plt>
	bl	0x19860 <_Znwm@plt>
	bl	0x19860 <_Znwm@plt>
	bl	0x19860 <_Znwm@plt>
	bl	0x19860 <_Znwm@plt>
	bl	0x19860 <_Znwm@plt>
	bl	0x19860 <_Znwm@plt>
	bl	0x19860 <_Znwm@plt>
	bl	0x19860 <_Znwm@plt>
	bl	0x19860 <_Znwm@plt>
	bl	0x19860 <_Znwm@plt>
	bl	0x19860 <_Znwm@plt>
	bl	0x19860 <_Znwm@plt>
	bl	0x19860 <_Znwm@plt>
	bl	0x19860 <_Znwm@plt>
	bl	0x19860 <_Znwm@plt>
	bl	0x19860 <_Znwm@plt>
	bl	0x19860 <_Znwm@plt>
	bl	0x19860 <_Znwm@plt>
	bl	0x19860 <_Znwm@plt>
	bl	0x19860 <_Znwm@plt>
	bl	0x19860 <_Znwm@plt>
	bl	0x19860 <_Znwm@plt>
	bl	0x19860 <_Znwm@plt>
	bl	0x19860 <_Znwm@plt>
	bl	0x19860 <_Znwm@plt>
	bl	0x19860 <_Znwm@plt>
	bl	0x19860 <_Znwm@plt>
	bl	0x19860 <_Znwm@plt>
	bl	0x19860 <_Znwm@plt>
	bl	0x19860 <_Znwm@plt>
	bl	0x19860 <_Znwm@plt>
	bl	0x19860 <_Znwm@plt>
	bl	0x19860 <_Znwm@plt>
	bl	0x19860 <_Znwm@plt>
	bl	0x19860 <_Znwm@plt>
	bl	0x19860 <_Znwm@plt>
	bl	0x19860 <_Znwm@plt>
	bl	0x19860 <_Znwm@plt>
	bl	0x19860 <_Znwm@plt>
	bl	0x19860 <_Znwm@plt>
	bl	0x19860 <_Znwm@plt>
	bl	0x19860 <_Znwm@plt>
	bl	0x19860 <_Znwm@plt>
	bl	0x19860 <_Znwm@plt>
	bl	0x19860 <_Znwm@plt>
	bl	0x19860 <_Znwm@plt>
	bl	0x19860 <_Znwm@plt>
	bl	0x19860 <_Znwm@plt>
	bl	0x19860 <_Znwm@plt>
	bl	0x19860 <_Znwm@plt>
	bl	0x19860 <_Znwm@plt>
	bl	0x19860 <_Znwm@plt>
	bl	0x19860 <_Znwm@plt>
	bl	0x19860 <_Znwm@plt>
	bl	0x19860 <_Znwm@plt>
	bl	0x19860 <_Znwm@plt>
	bl	0x19860 <_Znwm@plt>
	bl	0x19860 <_Znwm@plt>
	bl	0x19860 <_Znwm@plt>
	bl	0x19860 <_Znwm@plt>
	bl	0x19860 <_Znwm@plt>
	bl	0x19860 <_Znwm@plt>
	bl	0x19860 <_Znwm@plt>
<_Znwm@plt>
<_Znwm@plt>
<_Znwm@plt>
<_Znwm@plt>
<_Znwm@plt>
<_Znwm@plt>
<_Znwm@plt>
<_Znwm@plt>
<_Znwm@plt>
<_Znwm@plt>
<_Znwm@plt>
<_Znwm@plt>
<_Znwm@plt>
<_Znwm@plt>
<_Znwm@plt>
<_Znwm@plt>
<_Znwm@plt>
<_Znwm@plt>
<_Znwm@plt>
<_Znwm@plt>
<_Znwm@plt>
<_Znwm@plt>
<_Znwm@plt>
<_Znwm@plt>
<_Znwm@plt>
<_Znwm@plt>
<_Znwm@plt>
<_Znwm@plt>
<_Znwm@plt>
<_Znwm@plt>
<_Znwm@plt>
<_Znwm@plt>
<_Znwm@plt>
<_Znwm@plt>
<_Znwm@plt>
<_Znwm@plt>
<_Znwm@plt>
<_Znwm@plt>
<_Znwm@plt>
<_Znwm@plt>
<_Znwm@plt>
<_Znwm@plt>
<_Znwm@plt>
<_Znwm@plt>
<_Znwm@plt>
<_Znwm@plt>
<_Znwm@plt>
<_Znwm@plt>
<_Znwm@plt>
<_Znwm@plt>
<_Znwm@plt>
<_Znwm@plt>
<_Znwm@plt>
<_Znwm@plt>
<_Znwm@plt>
<_Znwm@plt>
<_Znwm@plt>
<_Znwm@plt>
<_Znwm@plt>
<_Znwm@plt>
<_Znwm@plt>
<_Znwm@plt>
<_Znwm@plt>
<_Znwm@plt>
<_Znwm@plt>
<_Znwm@plt>
<_Znwm@plt>
<_Znwm@plt>
<_Znwm@plt>
<_Znwm@plt>
<_Znwm@plt>
<_Znwm@plt>
<_ZN6ChiLog9LogSystemEPKcS1_S1_S1_iS1_z@plt>
<_ZdlPv@plt>
<_ZdlPv@plt>
<_ZdlPv@plt>
<_ZdlPv@plt>
<_ZdlPv@plt>
<_ZdlPv@plt>
<_ZdlPv@plt>
<_ZdlPv@plt>
<_ZdlPv@plt>
<_ZdlPv@plt>
<_ZdlPv@plt>
<_ZdlPv@plt>
<_ZdlPv@plt>
<_ZdlPv@plt>
<_ZdlPv@plt>
<_ZdlPv@plt>
<_ZN7android8hardware11hidl_stringC1EPKc@plt>
<_ZN7android8hardware11hidl_stringC1EPKc@plt>
<_ZN7android8hardware11hidl_stringC1EPKc@plt>
<_ZN7android8hardware11hidl_stringC1EPKc@plt>
<_ZN7android8hardware11hidl_stringC1EPKc@plt>
<_ZN7android8hardware11hidl_stringC1EPKc@plt>
<_ZN7android8hardware11hidl_stringC1EPKc@plt>
<_ZN7android8hardware11hidl_stringC1EPKc@plt>
<_ZN7android8hardware11hidl_stringC1EPKc@plt>
<_ZN7android8hardware11hidl_stringC1EPKc@plt>
<_ZN7android8hardware11hidl_stringC1EPKc@plt>
<_ZN7android8hardware11hidl_stringC1EPKc@plt>
<_ZN7android8hardware11hidl_stringC1EPKc@plt>
<_ZN7android8hardware11hidl_stringC1EPKc@plt>
<_ZN7android8hardware11hidl_stringC1EPKc@plt>
<_ZN7android8hardware11hidl_stringC1EPKc@plt>
<_ZN7android8hardware11hidl_stringC1EPKc@plt>
<_ZN7android8hardware11hidl_stringC1EPKc@plt>
<_ZN7android8hardware11hidl_stringC1EPKc@plt>
<_ZN7android8hardware11hidl_stringC1EPKc@plt>
<_ZN7android8hardware11hidl_stringC1EPKc@plt>
<_Znwm@plt>
<_Znwm@plt>
<_Znwm@plt>
<_Znwm@plt>
<_Znwm@plt>
<_Znwm@plt>
<_Znwm@plt>
<_Znwm@plt>
<_Znwm@plt>
<_Znwm@plt>
<_Znwm@plt>
<_Znwm@plt>
<_Znwm@plt>
<_Znwm@plt>
<_Znwm@plt>
<_Znwm@plt>
<_Znwm@plt>
<_ZN7android8hardware11hidl_stringC1ERKNSt3__112basic_stringIcNS2_11char_traitsIcEENS2_9allocatorIcEEEE@plt>
<_ZN7android8hardware11hidl_stringC1ERKNSt3__112basic_stringIcNS2_11char_traitsIcEENS2_9allocatorIcEEEE@plt>
<_ZN7android8hardware11hidl_stringC1ERKNSt3__112basic_stringIcNS2_11char_traitsIcEENS2_9allocatorIcEEEE@plt>
<_ZN7android8hardware11hidl_stringC1ERKNSt3__112basic_stringIcNS2_11char_traitsIcEENS2_9allocatorIcEEEE@plt>
<_ZN7android8hardware11hidl_stringC1ERKNSt3__112basic_stringIcNS2_11char_traitsIcEENS2_9allocatorIcEEEE@plt>
<_ZN7android8hardware11hidl_stringC1ERKNSt3__112basic_stringIcNS2_11char_traitsIcEENS2_9allocatorIcEEEE@plt>
<_ZN7android8hardware11hidl_stringC1ERKNSt3__112basic_stringIcNS2_11char_traitsIcEENS2_9allocatorIcEEEE@plt>
<_ZN7android8hardware11hidl_stringC1ERKNSt3__112basic_stringIcNS2_11char_traitsIcEENS2_9allocatorIcEEEE@plt>
<_ZN7android8hardware11hidl_stringC1ERKNSt3__112basic_stringIcNS2_11char_traitsIcEENS2_9allocatorIcEEEE@plt>
<_ZN7android8hardware11hidl_stringC1ERKNSt3__112basic_stringIcNS2_11char_traitsIcEENS2_9allocatorIcEEEE@plt>
<_ZN7android8hardware11hidl_stringC1ERKNSt3__112basic_stringIcNS2_11char_traitsIcEENS2_9allocatorIcEEEE@plt>
<_ZN7android8hardware11hidl_stringC1ERKNSt3__112basic_stringIcNS2_11char_traitsIcEENS2_9allocatorIcEEEE@plt>
<_ZN7android8hardware11hidl_stringC1ERKNSt3__112basic_stringIcNS2_11char_traitsIcEENS2_9allocatorIcEEEE@plt>
<_ZN7android8hardware11hidl_stringC1ERKNSt3__112basic_stringIcNS2_11char_traitsIcEENS2_9allocatorIcEEEE@plt>
<_ZN7android8hardware11hidl_stringC1ERKNSt3__112basic_stringIcNS2_11char_traitsIcEENS2_9allocatorIcEEEE@plt>
<_ZN7android8hardware11hidl_stringC1ERKNSt3__112basic_stringIcNS2_11char_traitsIcEENS2_9allocatorIcEEEE@plt>
<_ZN7android8hardware11hidl_stringC1ERKNSt3__112basic_stringIcNS2_11char_traitsIcEENS2_9allocatorIcEEEE@plt>
<_ZN7android8hardware11hidl_stringC1ERKNSt3__112basic_stringIcNS2_11char_traitsIcEENS2_9allocatorIcEEEE@plt>
<_ZN7android8hardware11hidl_stringC1ERKNSt3__112basic_stringIcNS2_11char_traitsIcEENS2_9allocatorIcEEEE@plt>
<_ZN7android8hardware11hidl_stringC1ERKNSt3__112basic_stringIcNS2_11char_traitsIcEENS2_9allocatorIcEEEE@plt>
<_ZN7android8hardware11hidl_stringC1ERKNSt3__112basic_stringIcNS2_11char_traitsIcEENS2_9allocatorIcEEEE@plt>
<_ZN7android8hardware11hidl_stringC1ERKNSt3__112basic_stringIcNS2_11char_traitsIcEENS2_9allocatorIcEEEE@plt>
<_ZN7android8hardware11hidl_stringC1ERKNSt3__112basic_stringIcNS2_11char_traitsIcEENS2_9allocatorIcEEEE@plt>
<_ZN7android8hardware11hidl_stringC1ERKNSt3__112basic_stringIcNS2_11char_traitsIcEENS2_9allocatorIcEEEE@plt>
<_ZN7android8hardware11hidl_stringC1ERKNSt3__112basic_stringIcNS2_11char_traitsIcEENS2_9allocatorIcEEEE@plt>
<_ZN7android8hardware11hidl_stringC1ERKNSt3__112basic_stringIcNS2_11char_traitsIcEENS2_9allocatorIcEEEE@plt>
<_ZNSt3__112basic_stringIcNS_11char_traitsIcEENS_9allocatorIcEEEC1ERKS5_@plt>
<_ZNSt3__112basic_stringIcNS_11char_traitsIcEENS_9allocatorIcEEEC1ERKS5_@plt>
<_ZNSt3__112basic_stringIcNS_11char_traitsIcEENS_9allocatorIcEEEC1ERKS5_@plt>
<_ZNSt3__112basic_stringIcNS_11char_traitsIcEENS_9allocatorIcEEEC1ERKS5_@plt>
<_Znwm@plt>
<_Znwm@plt>
<_Znwm@plt>
<_Znwm@plt>
<_Znwm@plt>
<_Znwm@plt>
<_Znwm@plt>
<_Znwm@plt>
<_Znwm@plt>
<_Znwm@plt>
<_Znwm@plt>
<_Znwm@plt>
<_Znwm@plt>
<_Znwm@plt>
<_Znwm@plt>
<_Znwm@plt>
<_Znwm@plt>
<_Znwm@plt>
<_Znwm@plt>
<_Znwm@plt>
<_Znwm@plt>
<_Znwm@plt>
<_Znwm@plt>
<_Znwm@plt>
<_Znwm@plt>
<_Znwm@plt>
<_Znwm@plt>
<_Znwm@plt>
<_Znwm@plt>
<_Znwm@plt>
<_Znwm@plt>
<_Znwm@plt>
<_Znwm@plt>
<_Znwm@plt>
<_Znwm@plt>
<_Znwm@plt>
<_Znwm@plt>
<_Znwm@plt>
<_Znwm@plt>
<_Znwm@plt>
<_Znwm@plt>
<_Znwm@plt>
<_Znwm@plt>
<_Znwm@plt>
<_Znwm@plt>
<_Znwm@plt>
<_Znwm@plt>
<_Znwm@plt>
<_Znwm@plt>
<_Znwm@plt>
<_Znwm@plt>
<_Znwm@plt>
<_Znwm@plt>
<_Znwm@plt>
<_Znwm@plt>
<_Znwm@plt>
<_Znwm@plt>
<_Znwm@plt>
<_Znwm@plt>
<_Znwm@plt>
<_Znwm@plt>
<_Znwm@plt>
<_Znwm@plt>
<_Znwm@plt>
<_Znwm@plt>
<_Znwm@plt>
<_Znwm@plt>
<_Znwm@plt>
<_Znwm@plt>
<_Znwm@plt>
<_Znwm@plt>
<_Znwm@plt>
<_Znwm@plt>
<_Znwm@plt>
<_Znwm@plt>
<_Znwm@plt>
<_Znwm@plt>
<_Znwm@plt>
<_Znwm@plt>
<_Znwm@plt>
<_Znwm@plt>
<_Znwm@plt>
<_Znwm@plt>
<_Znwm@plt>
<_Znwm@plt>
<_Znwm@plt>
<_Znwm@plt>
<_Znwm@plt>
<_Znwm@plt>
<_Znwm@plt>
<_Znwm@plt>
<_Znwm@plt>
<_Znwm@plt>
<_Znwm@plt>
<_Znwm@plt>
<_Znwm@plt>
<_Znwm@plt>
<_Znwm@plt>
<_Znwm@plt>
<_Znwm@plt>
<_Znwm@plt>
<_Znwm@plt>
<_Znwm@plt>
<_Znwm@plt>
<_Znwm@plt>
<_Znwm@plt>
<_Znwm@plt>
<_Znwm@plt>
<_Znwm@plt>
<_Znwm@plt>
<_Znwm@plt>
<_Znwm@plt>
<_Znwm@plt>
<_Znwm@plt>
<_Znwm@plt>
<_Znwm@plt>
<_Znwm@plt>
<_Znwm@plt>
<_Znwm@plt>
<_Znwm@plt>
<_Znwm@plt>
<_Znwm@plt>
<_Znwm@plt>
<_Znwm@plt>
<_Znwm@plt>
<_Znwm@plt>
<_Znwm@plt>
<_Znwm@plt>
<_Znwm@plt>
<_Znwm@plt>
<_Znwm@plt>
<_Znwm@plt>
<_Znwm@plt>
<_Znwm@plt>
<_Znwm@plt>
<_Znwm@plt>
<_Znwm@plt>
<_Znwm@plt>
<_Znwm@plt>
<_Znwm@plt>
<_Znwm@plt>
<_Znwm@plt>
<_Znwm@plt>
<_Znwm@plt>
<_Znwm@plt>
<_Znwm@plt>
<_Znwm@plt>
<_Znwm@plt>
<_Znwm@plt>
<_Znwm@plt>
<_Znwm@plt>
<_Znwm@plt>
<_Znwm@plt>
<_Znwm@plt>
<_Znwm@plt>
<_Znwm@plt>
<_ZN8ChxUtils6MemsetEPvim@plt>
<_ZN8ChxUtils6MemsetEPvim@plt>
<_ZN6ChiLog9LogSystemEPKcS1_S1_S1_iS1_z@plt>
<_Znwm@plt>
<_ZNSt3__112basic_stringIcNS_11char_traitsIcEENS_9allocatorIcEEE6assignEPKc@plt>
<_ZNSt3__112basic_stringIcNS_11char_traitsIcEENS_9allocatorIcEEE6assignEPKc@plt>
<_Znwm@plt>
<_ZNSt3__112basic_stringIcNS_11char_traitsIcEENS_9allocatorIcEEE6assignEPKc@plt>
<_ZNSt3__112basic_stringIcNS_11char_traitsIcEENS_9allocatorIcEEE6assignEPKc@plt>
<_Znwm@plt>
<_ZNSt3__112basic_stringIcNS_11char_traitsIcEENS_9allocatorIcEEE6assignEPKc@plt>
<_ZNSt3__112basic_stringIcNS_11char_traitsIcEENS_9allocatorIcEEE6assignEPKc@plt>
<_Znwm@plt>
<_ZNSt3__112basic_stringIcNS_11char_traitsIcEENS_9allocatorIcEEE6assignEPKc@plt>
<_ZNSt3__112basic_stringIcNS_11char_traitsIcEENS_9allocatorIcEEE6assignEPKc@plt>
<_Znwm@plt>
<_ZNSt3__112basic_stringIcNS_11char_traitsIcEENS_9allocatorIcEEE6assignEPKc@plt>
<_ZNSt3__112basic_stringIcNS_11char_traitsIcEENS_9allocatorIcEEE6assignEPKc@plt>
<_Znwm@plt>
<_ZNSt3__112basic_stringIcNS_11char_traitsIcEENS_9allocatorIcEEE6assignEPKc@plt>
<_ZNSt3__112basic_stringIcNS_11char_traitsIcEENS_9allocatorIcEEE6assignEPKc@plt>
<_Znwm@plt>
<_ZNSt3__112basic_stringIcNS_11char_traitsIcEENS_9allocatorIcEEE6assignEPKc@plt>
<_ZNSt3__112basic_stringIcNS_11char_traitsIcEENS_9allocatorIcEEE6assignEPKc@plt>
<_Znwm@plt>
<_ZNSt3__112basic_stringIcNS_11char_traitsIcEENS_9allocatorIcEEE6assignEPKc@plt>
<_ZNSt3__112basic_stringIcNS_11char_traitsIcEENS_9allocatorIcEEE6assignEPKc@plt>
<_Znwm@plt>
<_ZNSt3__112basic_stringIcNS_11char_traitsIcEENS_9allocatorIcEEE6assignEPKc@plt>
<_ZNSt3__112basic_stringIcNS_11char_traitsIcEENS_9allocatorIcEEE6assignEPKc@plt>
<_Znwm@plt>
<_ZNSt3__112basic_stringIcNS_11char_traitsIcEENS_9allocatorIcEEE6assignEPKc@plt>
<_ZNSt3__112basic_stringIcNS_11char_traitsIcEENS_9allocatorIcEEE6assignEPKc@plt>
<_ZN6ChiLog9LogSystemEPKcS1_S1_S1_iS1_z@plt>
<_Znwm@plt>
<_ZNSt3__112basic_stringIcNS_11char_traitsIcEENS_9allocatorIcEEE6assignEPKc@plt>
<_ZNSt3__112basic_stringIcNS_11char_traitsIcEENS_9allocatorIcEEE6assignEPKc@plt>
<_Znwm@plt>
<_ZNSt3__112basic_stringIcNS_11char_traitsIcEENS_9allocatorIcEEE6assignEPKc@plt>
<_ZNSt3__112basic_stringIcNS_11char_traitsIcEENS_9allocatorIcEEE6assignEPKc@plt>
<_ZN6ChiLog9LogSystemEPKcS1_S1_S1_iS1_z@plt>
<_ZN22CHITargetBufferManager6CreateEP32ChiTargetBufferManagerCreateData@plt>
<_ZN6ChiLog9LogSystemEPKcS1_S1_S1_iS1_z@plt>
<_ZN22CHITargetBufferManager6CreateEP32ChiTargetBufferManagerCreateData@plt>
<_ZN6ChiLog9LogSystemEPKcS1_S1_S1_iS1_z@plt>
<_ZN6ChiLog9LogSystemEPKcS1_S1_S1_iS1_z@plt>
<_Znwm@plt>
<_ZN6ChiLog9LogSystemEPKcS1_S1_S1_iS1_z@plt>
<_ZN22CHITargetBufferManager7DestroyEv@plt>
<_ZN22CHITargetBufferManager7DestroyEv@plt>
<_ZN6ChiLog9LogSystemEPKcS1_S1_S1_iS1_z@plt>
<_ZN6ChiLog9LogSystemEPKcS1_S1_S1_iS1_z@plt>
<_ZN6ChiLog9LogSystemEPKcS1_S1_S1_iS1_z@plt>
<_ZN15ChiFeature2Base5FlushEi@plt>
<_ZN15ChiFeature2Base25DestroySessionAndPipelineEv@plt>
<_Znwm@plt>
<_ZdlPv@plt>
<_Znwm@plt>
<_ZdlPv@plt>
<_ZN6ChiLog9LogSystemEPKcS1_S1_S1_iS1_z@plt>
<_ZN6ChiLog9LogSystemEPKcS1_S1_S1_iS1_z@plt>
<_ZN15ExtensionModule11GetInstanceEv@plt>
<_ZN15ExtensionModule15GetVendorTagOpsEP16ChiVendorTagsOps@plt>
<_ZN6ChiLog9LogSystemEPKcS1_S1_S1_iS1_z@plt>
<_ZN6ChiLog9LogSystemEPKcS1_S1_S1_iS1_z@plt>
<_ZN6ChiLog9LogSystemEPKcS1_S1_S1_iS1_z@plt>
<_ZN6ChiLog9LogSystemEPKcS1_S1_S1_iS1_z@plt>
<_ZN6ChiLog9LogSystemEPKcS1_S1_S1_iS1_z@plt>
<_ZN6ChiLog9LogSystemEPKcS1_S1_S1_iS1_z@plt>
<_ZN15ExtensionModule11GetInstanceEv@plt>
<_ZNK15ExtensionModule21GetPhysicalCameraInfoEj@plt>
<_ZN8ChxUtils6MemcpyEPvPKvm@plt>
<_ZN15UsecaseSelector30GetValueFromUsecasepChiUsecaseEv@plt>
<_ZdlPv@plt>
<_ZN18ChiFeature2Generic6CreateEP26ChiFeature2CreateInputInfo@plt>
<_ZN15ChiFeature2Base16ConfigureFeatureERKNSt3__16vectorI27ChiFeatureBufferOptionsDataNS0_9allocatorIS2_EEEE@plt>
<_ZdlPv@plt>
<_ZdlPv@plt>
<_ZN23ChiFeature2HWmultiframe6CreateEP26ChiFeature2CreateInputInfo@plt>
<_ZdlPv@plt>
<_ZN15ChiFeature2Base22FinalizeInitializationERKNSt3__16vectorI31ChiFeatureFinalizedBufferOptionNS0_9allocatorIS2_EEEERS5_@plt>
<_ZdlPv@plt>
<_ZN6ChiLog9LogSystemEPKcS1_S1_S1_iS1_z@plt>
<_ZN31ChiFeature2UsecaseRequestObject6CreateEPK46ChiFeature2UsecaseRequestObjectCreateInputInfo@plt>
<_ZN15ChiFeature2Base27GetExternalGlobalPortIdListEv@plt>
<_Znam@plt>
<_Znwm@plt>
<_ZN6ChiLog9LogSystemEPKcS1_S1_S1_iS1_z@plt>
<_Znwm@plt>
<_Znwm@plt>
<_ZN24ChiFeature2RequestObject6CreateEPK39ChiFeature2RequestObjectCreateInputInfo@plt>
<_ZN6ChiLog9LogSystemEPKcS1_S1_S1_iS1_z@plt>
<_ZNK15ChiFeature2Base27GetPortDescriptorFromPortIdEPK21ChiFeature2Identifier@plt>
<_Znwm@plt>
<_ZdlPv@plt>
<_ZN22CHITargetBufferManager26ImportExternalTargetBufferEjmPv@plt>
<_ZN22CHITargetBufferManager17SetupTargetBufferEj@plt>
<_ZN6ChiLog9LogSystemEPKcS1_S1_S1_iS1_z@plt>
<_Znwm@plt>
<_ZN6ChiLog9LogSystemEPKcS1_S1_S1_iS1_z@plt>
<_ZNSt3__119__shared_weak_count14__release_weakEv@plt>
<_ZNSt3__119__shared_weak_count14__release_weakEv@plt>
<_ZdlPv@plt>
<_ZdlPv@plt>
<_ZdlPv@plt>
<_ZdlPv@plt>
<_ZNKSt3__121__basic_string_commonILb1EE20__throw_length_errorEv@plt>
<_ZN6ChiLog9LogSystemEPKcS1_S1_S1_iS1_z@plt>
<_ZN6ChiLog9LogSystemEPKcS1_S1_S1_iS1_z@plt>
<_ZN24ChiFeature2RequestObject24SetOutputNotifiedForPortE21ChiFeature2Identifierh@plt>
<_ZNK15ChiFeature2Base27GetPortDescriptorFromPortIdEPK21ChiFeature2Identifier@plt>
<_ZNK24ChiFeature2RequestObject26GetFinalBufferMetadataInfoE21ChiFeature2IdentifierPP29ChiFeature2BufferMetadataInfoh@plt>
<_ZN22CHITargetBufferManager22GetTargetBufferManagerEPv@plt>
<_ZN22CHITargetBufferManager9GetTargetEPvm@plt>
<_ZN6ChiLog9LogSystemEPKcS1_S1_S1_iS1_z@plt>
<_ZN6ChiLog9LogSystemEPKcS1_S1_S1_iS1_z@plt>
<_ZN6ChiLog9LogSystemEPKcS1_S1_S1_iS1_z@plt>
<_Znwm@plt>
<_ZdlPv@plt>
<_ZN22CHITargetBufferManager12UpdateTargetEjmPv15ChiTargetStatusPS0_@plt>
<_ZN6ChiLog9LogSystemEPKcS1_S1_S1_iS1_z@plt>
<_ZN22CHITargetBufferManager19ReleaseTargetBufferEPv@plt>
<_ZN6ChiLog9LogSystemEPKcS1_S1_S1_iS1_z@plt>
<_ZdlPv@plt>
<_ZN6ChiLog9LogSystemEPKcS1_S1_S1_iS1_z@plt>
<_ZN6ChiLog9LogSystemEPKcS1_S1_S1_iS1_z@plt>
<_ZN6ChiLog9LogSystemEPKcS1_S1_S1_iS1_z@plt>
<_ZN6ChiLog9LogSystemEPKcS1_S1_S1_iS1_z@plt>
<_ZN22CHITargetBufferManager19ReleaseTargetBufferEPv@plt>
<_ZN24ChiFeature2RequestObject24SetOutputNotifiedForPortE21ChiFeature2Identifierh@plt>
<_ZNK15ChiFeature2Base27GetPortDescriptorFromPortIdEPK21ChiFeature2Identifier@plt>
<_ZN6ChiLog9LogSystemEPKcS1_S1_S1_iS1_z@plt>
<_Znwm@plt>
<_ZdlPv@plt>
<_ZN6ChiLog9LogSystemEPKcS1_S1_S1_iS1_z@plt>
<_ZN22CHITargetBufferManager19ReleaseTargetBufferEPv@plt>
<_ZdlPv@plt>
<_ZN18ChiMetadataManager3GetEjj@plt>
<_ZN6ChiLog9LogSystemEPKcS1_S1_S1_iS1_z@plt>
<_ZN6ChiLog9LogSystemEPKcS1_S1_S1_iS1_z@plt>
<_ZNK15ChiFeature2Base27GetPortDescriptorFromPortIdEPK21ChiFeature2Identifier@plt>
<_ZN11ChiMetadata18SetAndroidMetadataEPK15camera_metadata@plt>
<_ZN6ChiLog9LogSystemEPKcS1_S1_S1_iS1_z@plt>
<_Znwm@plt>
<_ZN22CHITargetBufferManager26ImportExternalTargetBufferEjmPv@plt>
<_ZN6ChiLog9LogSystemEPKcS1_S1_S1_iS1_z@plt>
<_ZN22CHITargetBufferManager17SetupTargetBufferEj@plt>
<_ZN22CHITargetBufferManager12UpdateTargetEjmPv15ChiTargetStatusPS0_@plt>
<_ZdlPv@plt>
<_ZN22CHITargetBufferManager26ImportExternalTargetBufferEjmPv@plt>
<_ZN22CHITargetBufferManager17SetupTargetBufferEj@plt>
<_ZN6ChiLog9LogSystemEPKcS1_S1_S1_iS1_z@plt>
<_ZN6ChiLog9LogSystemEPKcS1_S1_S1_iS1_z@plt>
<_ZN24ChiFeature2RequestObject13SetBufferInfoE31ChiFeature2RequestObjectOpsTypePK21ChiFeature2IdentifierPvmihh@plt>
<_Znwm@plt>
<_ZN6ChiLog9LogSystemEPKcS1_S1_S1_iS1_z@plt>
<_ZN22CHITargetBufferManager12UpdateTargetEjmPv15ChiTargetStatusPS0_@plt>
<_ZN6ChiLog9LogSystemEPKcS1_S1_S1_iS1_z@plt>
<_ZN6ChiLog9LogSystemEPKcS1_S1_S1_iS1_z@plt>
<_ZNKSt3__121__basic_string_commonILb1EE20__throw_length_errorEv@plt>
<_ZN6ChiLog9LogSystemEPKcS1_S1_S1_iS1_z@plt>
<_ZN11ChiMetadata6GetTagEPKcS1_j@plt>
<_ZN6ChiLog9LogSystemEPKcS1_S1_S1_iS1_z@plt>
<_ZN6ChiLog9LogSystemEPKcS1_S1_S1_iS1_z@plt>
<_ZN11ChiMetadata6GetTagEjj@plt>
<_ZN6ChiLog9LogSystemEPKcS1_S1_S1_iS1_z@plt>
<_ZN6ChiLog9LogSystemEPKcS1_S1_S1_iS1_z@plt>
<_ZN11ChiMetadata6GetTagEPKcS1_j@plt>
<_ZN6ChiLog9LogSystemEPKcS1_S1_S1_iS1_z@plt>
<_ZN6ChiLog9LogSystemEPKcS1_S1_S1_iS1_z@plt>
<_ZdlPv@plt>
<_ZdlPv@plt>
<_ZdlPv@plt>
<_ZdlPv@plt>
<_ZdlPv@plt>
<_ZdlPv@plt>
<_ZdlPv@plt>
<_ZdlPv@plt>
<_ZdlPv@plt>
<_ZdlPv@plt>
<_Znwm@plt>
<_ZNSt3__112basic_stringIcNS_11char_traitsIcEENS_9allocatorIcEEEC1ERKS5_@plt>

0x1a000 <_ZN7android8hardware11hidl_stringD1Ev@plt+0x4>

0x1a000 <_ZdlPv@plt+0x4>

0x1a000 <_ZN7android8hardware11hidl_stringC1EPKc@plt+0x4>

0x1a000 <_Znwm@plt+0x4>

0x1a000 <_ZN7android8hardware11hidl_stringC1ERKNSt3__112basic_stringIcNS2_11char_traitsIcEENS2_9allocatorIcEEEE@plt+0x4>

0x1a000 <_ZNSt3__112basic_stringIcNS_11char_traitsIcEENS_9allocatorIcEEEC1ERKS5_@plt+0x4>

0x1a000 <_ZNSt3__119__shared_weak_countD2Ev@plt+0x4>

0x1a000 <_ZN16CHIThreadManager6CreateEPPS_PKcj@plt+0x4>

0x1a000 <_ZN6ChiLog9LogSystemEPKcS1_S1_S1_iS1_z@plt+0x4>

0x1a000 <_ZN5Mutex6CreateEv@plt+0x4>

0x1a000 <_ZN9Condition6CreateEv@plt+0x4>

0x1a000 <_ZN8ChxUtils6LibMapEPKc@plt+0x4>

0x1a000 <_ZN8ChxUtils10LibGetAddrEPvPKc@plt+0x4>

0x1a000 <_ZN18ChiMetadataManager6CreateEjj@plt+0x4>

0x1a000 <_ZN18ChiMetadataManager14RegisterClientEiPjjjj16ChiMetadataUsage@plt+0x4>

0x1a000 <_ZN24ChiFeature2RequestObject7DestroyEv@plt+0x4>

0x1a000 <_ZN31ChiFeature2UsecaseRequestObject7DestroyEv@plt+0x4>

0x1a000 <_ZN15ChiFeature2Base5FlushEi@plt+0x4>

0x1a000 <_ZN15ChiFeature2Base25DestroySessionAndPipelineEv@plt+0x4>

0x1a000 <_ZN16CHIThreadManager7DestroyEv@plt+0x4>

0x1a000 <_ZN18ChiMetadataManager7DestroyEv@plt+0x4>

0x1a000 <_ZN5Mutex7DestroyEv@plt+0x4>

0x1a000 <_ZN9Condition7DestroyEv@plt+0x4>

0x1a000 <_ZNK24ChiFeature2RequestObject19GetGraphPrivateDataEPPv@plt+0x4>

0x1a000 <_ZN5Mutex4LockEv@plt+0x4>

0x1a000 <_ZNK24ChiFeature2RequestObject18GetCurRequestStateEh@plt+0x4>

0x1a000 <_ZN15ChiFeature2Base14ProcessRequestEP24ChiFeature2RequestObject26ChiFeature2RequestCommands@plt+0x4>

0x1a000 <_ZN15ExtensionModule11GetInstanceEv@plt+0x4>

0x1a000 <_ZN15ExtensionModule13SubmitRequestEP18ChiPipelineRequest@plt+0x4>

0x1a000 <_ZN9Condition6SignalEv@plt+0x4>

0x1a000 <_ZN5Mutex6UnlockEv@plt+0x4>

0x1a000 <_ZN8ChxUtils6MemsetEPvim@plt+0x4>

0x1a000 <_ZN18ChiMetadataManager3GetEjj@plt+0x4>

0x1a000 <_ZNK24ChiFeature2RequestObject23GetUsecaseRequestObjectEv@plt+0x4>

0x1a000 <_ZN5Mutex15GetNativeHandleEv@plt+0x4>

0x1a000 <_ZN9Condition9TimedWaitEP15pthread_mutex_tj@plt+0x4>

0x1a000 <_ZNSt3__112basic_stringIcNS_11char_traitsIcEENS_9allocatorIcEEE6assignEPKc@plt+0x4>

0x1a000 <_ZN22CHITargetBufferManager6CreateEP32ChiTargetBufferManagerCreateData@plt+0x4>

0x1a000 <_ZN22CHITargetBufferManager7DestroyEv@plt+0x4>

0x1a000 <_ZN15ExtensionModule15GetVendorTagOpsEP16ChiVendorTagsOps@plt+0x4>

0x1a000 <_ZNK15ExtensionModule21GetPhysicalCameraInfoEj@plt+0x4>

0x1a000 <_ZN8ChxUtils6MemcpyEPvPKvm@plt+0x4>

0x1a000 <_ZN15UsecaseSelector30GetValueFromUsecasepChiUsecaseEv@plt+0x4>

0x1a000 <_ZN18ChiFeature2Generic6CreateEP26ChiFeature2CreateInputInfo@plt+0x4>

0x1a000 <_ZN15ChiFeature2Base16ConfigureFeatureERKNSt3__16vectorI27ChiFeatureBufferOptionsDataNS0_9allocatorIS2_EEEE@plt+0x4>

0x1a000 <_ZN23ChiFeature2HWmultiframe6CreateEP26ChiFeature2CreateInputInfo@plt+0x4>

0x1a000 <_ZN15ChiFeature2Base22FinalizeInitializationERKNSt3__16vectorI31ChiFeatureFinalizedBufferOptionNS0_9allocatorIS2_EEEERS5_@plt+0x4>

0x1a000 <_ZN31ChiFeature2UsecaseRequestObject6CreateEPK46ChiFeature2UsecaseRequestObjectCreateInputInfo@plt+0x4>

0x1a000 <_ZN15ChiFeature2Base27GetExternalGlobalPortIdListEv@plt+0x4>

0x1a000 <_Znam@plt+0x4>

0x1a000 <_ZN24ChiFeature2RequestObject6CreateEPK39ChiFeature2RequestObjectCreateInputInfo@plt+0x4>

0x1a000 <_ZNK15ChiFeature2Base27GetPortDescriptorFromPortIdEPK21ChiFeature2Identifier@plt+0x4>

0x1a000 <_ZN22CHITargetBufferManager26ImportExternalTargetBufferEjmPv@plt+0x4>

0x1a000 <_ZN22CHITargetBufferManager17SetupTargetBufferEj@plt+0x4>

0x1a000 <_ZNSt3__119__shared_weak_count14__release_weakEv@plt+0x4>

0x1a000 <_ZNKSt3__121__basic_string_commonILb1EE20__throw_length_errorEv@plt+0x4>

0x1a000 <_ZN24ChiFeature2RequestObject24SetOutputNotifiedForPortE21ChiFeature2Identifierh@plt+0x4>

0x1a000 <_ZNK24ChiFeature2RequestObject26GetFinalBufferMetadataInfoE21ChiFeature2IdentifierPP29ChiFeature2BufferMetadataInfoh@plt+0x4>

0x1a000 <_ZN22CHITargetBufferManager22GetTargetBufferManagerEPv@plt+0x4>

0x1a000 <_ZN22CHITargetBufferManager9GetTargetEPvm@plt+0x4>

0x1a000 <_ZN22CHITargetBufferManager12UpdateTargetEjmPv15ChiTargetStatusPS0_@plt+0x4>

0x1a000 <_ZN22CHITargetBufferManager19ReleaseTargetBufferEPv@plt+0x4>

0x1a000 <_ZN11ChiMetadata18SetAndroidMetadataEPK15camera_metadata@plt+0x4>

0x1a000 <_ZN24ChiFeature2RequestObject13SetBufferInfoE31ChiFeature2RequestObjectOpsTypePK21ChiFeature2IdentifierPvmihh@plt+0x4>

0x1a000 <_ZN11ChiMetadata6GetTagEPKcS1_j@plt+0x4>

0x1a000 <_ZN11ChiMetadata6GetTagEjj@plt+0x4>
