	bl	0x97f0 <_ZN6ChiLog9LogSystemEPKcS1_S1_S1_iS1_z@plt>
	bl	0x97f0 <_ZN6ChiLog9LogSystemEPKcS1_S1_S1_iS1_z@plt>
	bl	0x97f0 <_ZN6ChiLog9LogSystemEPKcS1_S1_S1_iS1_z@plt>
	bl	0x97f0 <_ZN6ChiLog9LogSystemEPKcS1_S1_S1_iS1_z@plt>
	bl	0x97f0 <_ZN6ChiLog9LogSystemEPKcS1_S1_S1_iS1_z@plt>
	bl	0x97f0 <_ZN6ChiLog9LogSystemEPKcS1_S1_S1_iS1_z@plt>
	bl	0x97f0 <_ZN6ChiLog9LogSystemEPKcS1_S1_S1_iS1_z@plt>
	b	0x97f0 <_ZN6ChiLog9LogSystemEPKcS1_S1_S1_iS1_z@plt>
	bl	0x97f0 <_ZN6ChiLog9LogSystemEPKcS1_S1_S1_iS1_z@plt>
	bl	0x97f0 <_ZN6ChiLog9LogSystemEPKcS1_S1_S1_iS1_z@plt>
	bl	0x97f0 <_ZN6ChiLog9LogSystemEPKcS1_S1_S1_iS1_z@plt>
	bl	0x9840 <_ZN12ChiNodeUtils8SNPrintFEPcmPKcz@plt>
	bl	0x97f0 <_ZN6ChiLog9LogSystemEPKcS1_S1_S1_iS1_z@plt>
	bl	0x97f0 <_ZN6ChiLog9LogSystemEPKcS1_S1_S1_iS1_z@plt>
	bl	0x97f0 <_ZN6ChiLog9LogSystemEPKcS1_S1_S1_iS1_z@plt>
	bl	0x97f0 <_ZN6ChiLog9LogSystemEPKcS1_S1_S1_iS1_z@plt>
	bl	0x97f0 <_ZN6ChiLog9LogSystemEPKcS1_S1_S1_iS1_z@plt>
	bl	0x97f0 <_ZN6ChiLog9LogSystemEPKcS1_S1_S1_iS1_z@plt>
	bl	0x97f0 <_ZN6ChiLog9LogSystemEPKcS1_S1_S1_iS1_z@plt>
	bl	0x97f0 <_ZN6ChiLog9LogSystemEPKcS1_S1_S1_iS1_z@plt>
	bl	0x97f0 <_ZN6ChiLog9LogSystemEPKcS1_S1_S1_iS1_z@plt>
	bl	0x97f0 <_ZN6ChiLog9LogSystemEPKcS1_S1_S1_iS1_z@plt>


































	adrp	x16, 0xa000 <_ZN6ChiLog9LogSystemEPKcS1_S1_S1_iS1_z@plt+0x4>

	adrp	x16, 0xa000 <_ZN12ChiNodeUtils8SNPrintFEPcmPKcz@plt+0x4>
