	tbz	w5, #7, 0x7bec <_ZN4CamX8SWMCTF1012CreateSWMCTFEPNS_23CHINodeModuleCreateDataE+0x9c>
	tbz	w5, #7, 0x8554 <_ZN4CamX8SWMCTF2012CreateSWMCTFEPNS_23CHINodeModuleCreateDataE+0x17c>




	ldr	xzr, 0x7d44 <_ZN4CamX8SWMCTF1012CreateSWMCTFEPNS_23CHINodeModuleCreateDataE+0x1f4>
	ldr	q0, 0x95e0 <_ZN4CamX8SWMFNR3012CreateSWMFNREPNS_23CHINodeModuleCreateDataE+0x158>
	ldrsw	x8, 0x19684 <_ZdaPv+0xe5ec>
	ldrsw	x8, 0x196f4 <_ZdaPv+0xe65c>
	ldrsw	x8, 0x19744 <_ZdaPv+0xe6ac>
	ldrsw	x8, 0x1982c <_ZdaPv+0xe794>
	ldrsw	x8, 0x1985c <_ZdaPv+0xe7c4>
	ldrsw	x8, 0x1988c <_ZdaPv+0xe7f4>
	ldrsw	x8, 0x198dc <_ZdaPv+0xe844>
	ldrsw	x8, 0x19944 <_ZdaPv+0xe8ac>
	ldrsw	x8, 0x1999c <_ZdaPv+0xe904>
	ldrsw	x8, 0x19a04 <_ZdaPv+0xe96c>
	ldrsw	x8, 0x19a54 <_ZdaPv+0xe9bc>
	ldrsw	x8, 0x19abc <_ZdaPv+0xea24>
	ldrsw	x8, 0x19b14 <_ZdaPv+0xea7c>
	ldrsw	x8, 0x19b7c <_ZdaPv+0xeae4>
	ldrsw	x8, 0x19bf4 <_ZdaPv+0xeb5c>
	ldr	q0, 0x9c10 <_ZN4CamX8SWMFNR3012CreateSWMFNREPNS_23CHINodeModuleCreateDataE+0x788>
	ldrsw	x8, 0x19cd4 <_ZdaPv+0xec3c>
	ldrsw	x8, 0x19f2c <_ZdaPv+0xee94>
	ldrsw	x8, 0x19fec <_ZdaPv+0xef54>
	ldrsw	x8, 0x1a014 <_ZdaPv+0xef7c>
	ldrsw	x8, 0x1a044 <_ZdaPv+0xefac>
	ldrsw	x8, 0x1a074 <_ZdaPv+0xefdc>
	ldrsw	x8, 0x1a104 <_ZdaPv+0xf06c>
	ldrsw	x8, 0x1a1dc <_ZdaPv+0xf144>
	ldrsw	x8, 0x1a2cc <_ZdaPv+0xf234>
	ldrsw	x8, 0x1a3bc <_ZdaPv+0xf324>
	ldrsw	x8, 0x1a4dc <_ZdaPv+0xf444>
	ldrsw	x8, 0x1a5bc <_ZdaPv+0xf524>
	ldrsw	x8, 0x1a69c <_ZdaPv+0xf604>
	ldrsw	x8, 0x1a77c <_ZdaPv+0xf6e4>
	ldrsw	x8, 0x1a83c <_ZdaPv+0xf7a4>
	ldrsw	x8, 0x1a94c <_ZdaPv+0xf8b4>
	ldrsw	x8, 0x1a9b4 <_ZdaPv+0xf91c>
	adrp	x0, 0x21000 <_ZN4CamX14SWAIDenoiser1018CreateSWAIDenoiserEPNS_23CHINodeModuleCreateDataE+0x54>

	cbz	x0, 0x6060 <_ZN4CamX14SWAIDenoiser1018CreateSWAIDenoiserEPNS_23CHINodeModuleCreateDataE+0x48>
	cbz	w0, 0x6068 <_ZN4CamX14SWAIDenoiser1018CreateSWAIDenoiserEPNS_23CHINodeModuleCreateDataE+0x50>
	b	0x607c <_ZN4CamX14SWAIDenoiser1018CreateSWAIDenoiserEPNS_23CHINodeModuleCreateDataE+0x64>
	b	0x6120 <_ZN4CamX14SWAIDenoiser1018CreateSWAIDenoiserEPNS_23CHINodeModuleCreateDataE+0x108>
	cbz	x22, 0x607c <_ZN4CamX14SWAIDenoiser1018CreateSWAIDenoiserEPNS_23CHINodeModuleCreateDataE+0x64>
	adrp	x8, 0x21000 <_ZN4CamX14SWAIDenoiser1018CreateSWAIDenoiserEPNS_23CHINodeModuleCreateDataE+0xd4>
	cbz	x22, 0x6118 <_ZN4CamX14SWAIDenoiser1018CreateSWAIDenoiserEPNS_23CHINodeModuleCreateDataE+0x100>
	adrp	x10, 0x22000 <_ZN4CamX14SWAIDenoiser1018CreateSWAIDenoiserEPNS_23CHINodeModuleCreateDataE+0x100>
	tbnz	w8, #3, 0x60c4 <_ZN4CamX14SWAIDenoiser1018CreateSWAIDenoiserEPNS_23CHINodeModuleCreateDataE+0xac>
	adrp	x11, 0x3e000 <_ZN4CamX14SWAIDenoiser1018CreateSWAIDenoiserEPNS_23CHINodeModuleCreateDataE+0x180>
	cbnz	w9, 0x6110 <_ZN4CamX14SWAIDenoiser1018CreateSWAIDenoiserEPNS_23CHINodeModuleCreateDataE+0xf8>
	adrp	x20, 0x3000 <_ZN4CamX14SWAIDenoiser1018CreateSWAIDenoiserEPNS_23CHINodeModuleCreateDataE+0xa0>
	adrp	x1, 0x3000 <_ZN4CamX14SWAIDenoiser1018CreateSWAIDenoiserEPNS_23CHINodeModuleCreateDataE+0xbc>
	adrp	x3, 0x3000 <_ZN4CamX14SWAIDenoiser1018CreateSWAIDenoiserEPNS_23CHINodeModuleCreateDataE+0xc0>
	adrp	x4, 0x3000 <_ZN4CamX14SWAIDenoiser1018CreateSWAIDenoiserEPNS_23CHINodeModuleCreateDataE+0xc4>
	adrp	x6, 0x3000 <_ZN4CamX14SWAIDenoiser1018CreateSWAIDenoiserEPNS_23CHINodeModuleCreateDataE+0xc8>
	bl	0xb2c0 <_ZdaPv+0x228>
	b	0x611c <_ZN4CamX14SWAIDenoiser1018CreateSWAIDenoiserEPNS_23CHINodeModuleCreateDataE+0x104>
	b.ne	0x6144 <_ZN4CamX14SWAIDenoiser1018CreateSWAIDenoiserEPNS_23CHINodeModuleCreateDataE+0x12c>
	adrp	x8, 0x22000 <_ZN4CamX14SWAIDenoiser1018CreateSWAIDenoiserEPNS_23CHINodeModuleCreateDataE+0x1ac>
	tbnz	w8, #3, 0x6180 <_ZN4CamX14SWAIDenoiser1018CreateSWAIDenoiserEPNS_23CHINodeModuleCreateDataE+0x168>
	adrp	x9, 0x3e000 <_ZN4CamX14SWAIDenoiser1018CreateSWAIDenoiserEPNS_23CHINodeModuleCreateDataE+0x22c>
	cbz	w9, 0x6180 <_ZN4CamX14SWAIDenoiser1018CreateSWAIDenoiserEPNS_23CHINodeModuleCreateDataE+0x168>
	adrp	x19, 0x3000 <_ZN4CamX14SWAIDenoiser1018CreateSWAIDenoiserEPNS_23CHINodeModuleCreateDataE+0x15c>
	adrp	x1, 0x3000 <_ZN4CamX14SWAIDenoiser1018CreateSWAIDenoiserEPNS_23CHINodeModuleCreateDataE+0x178>
	adrp	x3, 0x3000 <_ZN4CamX14SWAIDenoiser1018CreateSWAIDenoiserEPNS_23CHINodeModuleCreateDataE+0x17c>
	adrp	x4, 0x3000 <_ZN4CamX14SWAIDenoiser1018CreateSWAIDenoiserEPNS_23CHINodeModuleCreateDataE+0x180>
	adrp	x6, 0x3000 <_ZN4CamX14SWAIDenoiser1018CreateSWAIDenoiserEPNS_23CHINodeModuleCreateDataE+0x184>
	bl	0xb2c0 <_ZdaPv+0x228>
	b.ne	0x6278 <_ZN4CamX14SWAIDenoiser1018CreateSWAIDenoiserEPNS_23CHINodeModuleCreateDataE+0x260>
	cbz	x1, 0x6330 <_ZN4CamX14SWAIDenoiser1018CreateSWAIDenoiserEPNS_23CHINodeModuleCreateDataE+0x318>
	cbz	x2, 0x6330 <_ZN4CamX14SWAIDenoiser1018CreateSWAIDenoiserEPNS_23CHINodeModuleCreateDataE+0x318>
	cbz	x8, 0x6388 <_ZN4CamX14SWAIDenoiser1018CreateSWAIDenoiserEPNS_23CHINodeModuleCreateDataE+0x370>
	adrp	x9, 0x22000 <_ZN4CamX14SWAIDenoiser1018CreateSWAIDenoiserEPNS_23CHINodeModuleCreateDataE+0x314>
	tbnz	w10, #3, 0x62d8 <_ZN4CamX14SWAIDenoiser1018CreateSWAIDenoiserEPNS_23CHINodeModuleCreateDataE+0x2c0>
	adrp	x12, 0x3e000 <_ZN4CamX14SWAIDenoiser1018CreateSWAIDenoiserEPNS_23CHINodeModuleCreateDataE+0x394>
	cbnz	w11, 0x6328 <_ZN4CamX14SWAIDenoiser1018CreateSWAIDenoiserEPNS_23CHINodeModuleCreateDataE+0x310>
	adrp	x22, 0x3000 <_ZN4CamX14SWAIDenoiser1018CreateSWAIDenoiserEPNS_23CHINodeModuleCreateDataE+0x2b4>
	adrp	x1, 0x3000 <_ZN4CamX14SWAIDenoiser1018CreateSWAIDenoiserEPNS_23CHINodeModuleCreateDataE+0x2d4>
	adrp	x3, 0x3000 <_ZN4CamX14SWAIDenoiser1018CreateSWAIDenoiserEPNS_23CHINodeModuleCreateDataE+0x2d8>
	adrp	x4, 0x3000 <_ZN4CamX14SWAIDenoiser1018CreateSWAIDenoiserEPNS_23CHINodeModuleCreateDataE+0x2dc>
	adrp	x6, 0x2000 <_ZN4CamX14SWAIDenoiser1018CreateSWAIDenoiserEPNS_23CHINodeModuleCreateDataE+0x2dc>
	bl	0xb2c0 <_ZdaPv+0x228>
	b	0x63d8 <_ZN4CamX14SWAIDenoiser1018CreateSWAIDenoiserEPNS_23CHINodeModuleCreateDataE+0x3c0>
	adrp	x23, 0x3000 <_ZN4CamX14SWAIDenoiser1018CreateSWAIDenoiserEPNS_23CHINodeModuleCreateDataE+0x30c>
	adrp	x1, 0x3000 <_ZN4CamX14SWAIDenoiser1018CreateSWAIDenoiserEPNS_23CHINodeModuleCreateDataE+0x328>
	adrp	x3, 0x2000 <_ZN4CamX14SWAIDenoiser1018CreateSWAIDenoiserEPNS_23CHINodeModuleCreateDataE+0x328>
	adrp	x4, 0x3000 <_ZN4CamX14SWAIDenoiser1018CreateSWAIDenoiserEPNS_23CHINodeModuleCreateDataE+0x330>
	adrp	x6, 0x3000 <_ZN4CamX14SWAIDenoiser1018CreateSWAIDenoiserEPNS_23CHINodeModuleCreateDataE+0x334>
	bl	0xb2c0 <_ZdaPv+0x228>
	b	0x6654 <_ZN4CamX14SWAIDenoiser1018CreateSWAIDenoiserEPNS_23CHINodeModuleCreateDataE+0x63c>
	adrp	x22, 0x3000 <_ZN4CamX14SWAIDenoiser1018CreateSWAIDenoiserEPNS_23CHINodeModuleCreateDataE+0x364>
	adrp	x1, 0x3000 <_ZN4CamX14SWAIDenoiser1018CreateSWAIDenoiserEPNS_23CHINodeModuleCreateDataE+0x380>
	adrp	x3, 0x2000 <_ZN4CamX14SWAIDenoiser1018CreateSWAIDenoiserEPNS_23CHINodeModuleCreateDataE+0x380>
	adrp	x4, 0x3000 <_ZN4CamX14SWAIDenoiser1018CreateSWAIDenoiserEPNS_23CHINodeModuleCreateDataE+0x388>
	adrp	x6, 0x2000 <_ZN4CamX14SWAIDenoiser1018CreateSWAIDenoiserEPNS_23CHINodeModuleCreateDataE+0x388>
	bl	0xb2c0 <_ZdaPv+0x228>
	adrp	x24, 0x22000 <_ZN4CamX14SWAIDenoiser1018CreateSWAIDenoiserEPNS_23CHINodeModuleCreateDataE+0x434>
	b.ne	0x6578 <_ZN4CamX14SWAIDenoiser1018CreateSWAIDenoiserEPNS_23CHINodeModuleCreateDataE+0x560>
	b.ne	0x6474 <_ZN4CamX14SWAIDenoiser1018CreateSWAIDenoiserEPNS_23CHINodeModuleCreateDataE+0x45c>
	adrp	x13, 0x22000 <_ZN4CamX14SWAIDenoiser1018CreateSWAIDenoiserEPNS_23CHINodeModuleCreateDataE+0x460>
	tbnz	w12, #3, 0x6424 <_ZN4CamX14SWAIDenoiser1018CreateSWAIDenoiserEPNS_23CHINodeModuleCreateDataE+0x40c>
	adrp	x14, 0x3e000 <_ZN4CamX14SWAIDenoiser1018CreateSWAIDenoiserEPNS_23CHINodeModuleCreateDataE+0x4e0>
	cbnz	w13, 0x6470 <_ZN4CamX14SWAIDenoiser1018CreateSWAIDenoiserEPNS_23CHINodeModuleCreateDataE+0x458>
	adrp	x23, 0x3000 <_ZN4CamX14SWAIDenoiser1018CreateSWAIDenoiserEPNS_23CHINodeModuleCreateDataE+0x400>
	adrp	x1, 0x3000 <_ZN4CamX14SWAIDenoiser1018CreateSWAIDenoiserEPNS_23CHINodeModuleCreateDataE+0x41c>
	adrp	x3, 0x2000 <_ZN4CamX14SWAIDenoiser1018CreateSWAIDenoiserEPNS_23CHINodeModuleCreateDataE+0x41c>
	adrp	x4, 0x3000 <_ZN4CamX14SWAIDenoiser1018CreateSWAIDenoiserEPNS_23CHINodeModuleCreateDataE+0x424>
	adrp	x6, 0x2000 <_ZN4CamX14SWAIDenoiser1018CreateSWAIDenoiserEPNS_23CHINodeModuleCreateDataE+0x424>
	bl	0xb2c0 <_ZdaPv+0x228>
	b.ne	0x6578 <_ZN4CamX14SWAIDenoiser1018CreateSWAIDenoiserEPNS_23CHINodeModuleCreateDataE+0x560>
	b.ne	0x6558 <_ZN4CamX14SWAIDenoiser1018CreateSWAIDenoiserEPNS_23CHINodeModuleCreateDataE+0x540>
	b.hi	0x64e4 <_ZN4CamX14SWAIDenoiser1018CreateSWAIDenoiserEPNS_23CHINodeModuleCreateDataE+0x4cc>
	adrp	x12, 0x2000 <_ZN4CamX14SWAIDenoiser1018CreateSWAIDenoiserEPNS_23CHINodeModuleCreateDataE+0x478>
	b	0x6518 <_ZN4CamX14SWAIDenoiser1018CreateSWAIDenoiserEPNS_23CHINodeModuleCreateDataE+0x500>
	b	0x6520 <_ZN4CamX14SWAIDenoiser1018CreateSWAIDenoiserEPNS_23CHINodeModuleCreateDataE+0x508>
	b	0x6518 <_ZN4CamX14SWAIDenoiser1018CreateSWAIDenoiserEPNS_23CHINodeModuleCreateDataE+0x500>
	b	0x6518 <_ZN4CamX14SWAIDenoiser1018CreateSWAIDenoiserEPNS_23CHINodeModuleCreateDataE+0x500>
	b	0x651c <_ZN4CamX14SWAIDenoiser1018CreateSWAIDenoiserEPNS_23CHINodeModuleCreateDataE+0x504>
	b	0x6518 <_ZN4CamX14SWAIDenoiser1018CreateSWAIDenoiserEPNS_23CHINodeModuleCreateDataE+0x500>
	b	0x6518 <_ZN4CamX14SWAIDenoiser1018CreateSWAIDenoiserEPNS_23CHINodeModuleCreateDataE+0x500>
	b	0x6518 <_ZN4CamX14SWAIDenoiser1018CreateSWAIDenoiserEPNS_23CHINodeModuleCreateDataE+0x500>
	b	0x6518 <_ZN4CamX14SWAIDenoiser1018CreateSWAIDenoiserEPNS_23CHINodeModuleCreateDataE+0x500>
	b	0x6518 <_ZN4CamX14SWAIDenoiser1018CreateSWAIDenoiserEPNS_23CHINodeModuleCreateDataE+0x500>
	cbz	w8, 0x6540 <_ZN4CamX14SWAIDenoiser1018CreateSWAIDenoiserEPNS_23CHINodeModuleCreateDataE+0x528>
	b.gt	0x654c <_ZN4CamX14SWAIDenoiser1018CreateSWAIDenoiserEPNS_23CHINodeModuleCreateDataE+0x534>
	b.hi	0x6568 <_ZN4CamX14SWAIDenoiser1018CreateSWAIDenoiserEPNS_23CHINodeModuleCreateDataE+0x550>
	b	0x6558 <_ZN4CamX14SWAIDenoiser1018CreateSWAIDenoiserEPNS_23CHINodeModuleCreateDataE+0x540>
	b.ge	0x6558 <_ZN4CamX14SWAIDenoiser1018CreateSWAIDenoiserEPNS_23CHINodeModuleCreateDataE+0x540>
	b.pl	0x6568 <_ZN4CamX14SWAIDenoiser1018CreateSWAIDenoiserEPNS_23CHINodeModuleCreateDataE+0x550>
	b	0x6578 <_ZN4CamX14SWAIDenoiser1018CreateSWAIDenoiserEPNS_23CHINodeModuleCreateDataE+0x560>
	b	0x657c <_ZN4CamX14SWAIDenoiser1018CreateSWAIDenoiserEPNS_23CHINodeModuleCreateDataE+0x564>
	b.eq	0x657c <_ZN4CamX14SWAIDenoiser1018CreateSWAIDenoiserEPNS_23CHINodeModuleCreateDataE+0x564>
	cbz	w23, 0x65fc <_ZN4CamX14SWAIDenoiser1018CreateSWAIDenoiserEPNS_23CHINodeModuleCreateDataE+0x5e4>
	b.ne	0x6604 <_ZN4CamX14SWAIDenoiser1018CreateSWAIDenoiserEPNS_23CHINodeModuleCreateDataE+0x5ec>
	adrp	x15, 0x22000 <_ZN4CamX14SWAIDenoiser1018CreateSWAIDenoiserEPNS_23CHINodeModuleCreateDataE+0x5ec>
	tbnz	w15, #3, 0x65b0 <_ZN4CamX14SWAIDenoiser1018CreateSWAIDenoiserEPNS_23CHINodeModuleCreateDataE+0x598>
	adrp	x16, 0x3e000 <_ZN4CamX14SWAIDenoiser1018CreateSWAIDenoiserEPNS_23CHINodeModuleCreateDataE+0x66c>
	cbnz	w16, 0x65fc <_ZN4CamX14SWAIDenoiser1018CreateSWAIDenoiserEPNS_23CHINodeModuleCreateDataE+0x5e4>
	adrp	x19, 0x3000 <_ZN4CamX14SWAIDenoiser1018CreateSWAIDenoiserEPNS_23CHINodeModuleCreateDataE+0x58c>
	adrp	x1, 0x3000 <_ZN4CamX14SWAIDenoiser1018CreateSWAIDenoiserEPNS_23CHINodeModuleCreateDataE+0x5a8>
	adrp	x3, 0x3000 <_ZN4CamX14SWAIDenoiser1018CreateSWAIDenoiserEPNS_23CHINodeModuleCreateDataE+0x5ac>
	adrp	x4, 0x3000 <_ZN4CamX14SWAIDenoiser1018CreateSWAIDenoiserEPNS_23CHINodeModuleCreateDataE+0x5b0>
	adrp	x6, 0x2000 <_ZN4CamX14SWAIDenoiser1018CreateSWAIDenoiserEPNS_23CHINodeModuleCreateDataE+0x5b0>
	bl	0xb2c0 <_ZdaPv+0x228>
	b	0x6654 <_ZN4CamX14SWAIDenoiser1018CreateSWAIDenoiserEPNS_23CHINodeModuleCreateDataE+0x63c>
	adrp	x22, 0x3000 <_ZN4CamX14SWAIDenoiser1018CreateSWAIDenoiserEPNS_23CHINodeModuleCreateDataE+0x5e0>
	adrp	x1, 0x3000 <_ZN4CamX14SWAIDenoiser1018CreateSWAIDenoiserEPNS_23CHINodeModuleCreateDataE+0x5fc>
	adrp	x3, 0x2000 <_ZN4CamX14SWAIDenoiser1018CreateSWAIDenoiserEPNS_23CHINodeModuleCreateDataE+0x5fc>
	adrp	x4, 0x3000 <_ZN4CamX14SWAIDenoiser1018CreateSWAIDenoiserEPNS_23CHINodeModuleCreateDataE+0x604>
	adrp	x6, 0x2000 <_ZN4CamX14SWAIDenoiser1018CreateSWAIDenoiserEPNS_23CHINodeModuleCreateDataE+0x604>
	bl	0xb2c0 <_ZdaPv+0x228>
	adrp	x8, 0x21000 <_ZN4CamX12SWDemuxBLS1414CreateDemuxBLSEPNS_23CHINodeModuleCreateDataE+0x3c>
	cbz	x0, 0x6690 <_ZN4CamX14SWAIDenoiser1018CreateSWAIDenoiserEPNS_23CHINodeModuleCreateDataE+0x678>

	cbz	x0, 0x66f0 <_ZN4CamX12SWDemuxBLS1414CreateDemuxBLSEPNS_23CHINodeModuleCreateDataE+0x50>
	cbz	w0, 0x6744 <_ZN4CamX12SWDemuxBLS1414CreateDemuxBLSEPNS_23CHINodeModuleCreateDataE+0xa4>
	b	0x6778 <_ZN4CamX12SWDemuxBLS1414CreateDemuxBLSEPNS_23CHINodeModuleCreateDataE+0xd8>
	adrp	x22, 0x3000 <_ZN4CamX12SWDemuxBLS1414CreateDemuxBLSEPNS_23CHINodeModuleCreateDataE+0x44>
	adrp	x1, 0x3000 <_ZN4CamX12SWDemuxBLS1414CreateDemuxBLSEPNS_23CHINodeModuleCreateDataE+0x60>
	adrp	x3, 0x2000 <_ZN4CamX12SWDemuxBLS1414CreateDemuxBLSEPNS_23CHINodeModuleCreateDataE+0x60>
	adrp	x4, 0x3000 <_ZN4CamX12SWDemuxBLS1414CreateDemuxBLSEPNS_23CHINodeModuleCreateDataE+0x68>
	adrp	x6, 0x2000 <_ZN4CamX12SWDemuxBLS1414CreateDemuxBLSEPNS_23CHINodeModuleCreateDataE+0x68>
	bl	0xb2c0 <_ZdaPv+0x228>
	b	0x696c <_ZN4CamX12SWDemuxBLS1414CreateDemuxBLSEPNS_23CHINodeModuleCreateDataE+0x2cc>
	cbz	x20, 0x6778 <_ZN4CamX12SWDemuxBLS1414CreateDemuxBLSEPNS_23CHINodeModuleCreateDataE+0xd8>
	adrp	x8, 0x3000 <_ZN4CamX12SWDemuxBLS1414CreateDemuxBLSEPNS_23CHINodeModuleCreateDataE+0xcc>
	adrp	x25, 0x21000 <_ZN4CamX12SWDemuxBLS1414CreateDemuxBLSEPNS_23CHINodeModuleCreateDataE+0x148>
	cbz	x20, 0x67c8 <_ZN4CamX12SWDemuxBLS1414CreateDemuxBLSEPNS_23CHINodeModuleCreateDataE+0x128>
	adrp	x21, 0x3000 <_ZN4CamX12SWDemuxBLS1414CreateDemuxBLSEPNS_23CHINodeModuleCreateDataE+0xfc>
	cbz	x9, 0x681c <_ZN4CamX12SWDemuxBLS1414CreateDemuxBLSEPNS_23CHINodeModuleCreateDataE+0x17c>
	cbz	x10, 0x688c <_ZN4CamX12SWDemuxBLS1414CreateDemuxBLSEPNS_23CHINodeModuleCreateDataE+0x1ec>
	cbnz	w22, 0x68f4 <_ZN4CamX12SWDemuxBLS1414CreateDemuxBLSEPNS_23CHINodeModuleCreateDataE+0x254>
	b	0x6968 <_ZN4CamX12SWDemuxBLS1414CreateDemuxBLSEPNS_23CHINodeModuleCreateDataE+0x2c8>
	adrp	x21, 0x3000 <_ZN4CamX12SWDemuxBLS1414CreateDemuxBLSEPNS_23CHINodeModuleCreateDataE+0x11c>
	adrp	x1, 0x3000 <_ZN4CamX12SWDemuxBLS1414CreateDemuxBLSEPNS_23CHINodeModuleCreateDataE+0x138>
	adrp	x3, 0x3000 <_ZN4CamX12SWDemuxBLS1414CreateDemuxBLSEPNS_23CHINodeModuleCreateDataE+0x13c>
	adrp	x4, 0x3000 <_ZN4CamX12SWDemuxBLS1414CreateDemuxBLSEPNS_23CHINodeModuleCreateDataE+0x140>
	adrp	x6, 0x2000 <_ZN4CamX12SWDemuxBLS1414CreateDemuxBLSEPNS_23CHINodeModuleCreateDataE+0x140>
	bl	0xb2c0 <_ZdaPv+0x228>
	b	0x6968 <_ZN4CamX12SWDemuxBLS1414CreateDemuxBLSEPNS_23CHINodeModuleCreateDataE+0x2c8>
	cbz	w0, 0x699c <_ZN4CamX12SWDemuxBLS1414CreateDemuxBLSEPNS_23CHINodeModuleCreateDataE+0x2fc>
	adrp	x1, 0x3000 <_ZN4CamX12SWDemuxBLS1414CreateDemuxBLSEPNS_23CHINodeModuleCreateDataE+0x1a0>
	adrp	x3, 0x2000 <_ZN4CamX12SWDemuxBLS1414CreateDemuxBLSEPNS_23CHINodeModuleCreateDataE+0x1a0>
	adrp	x4, 0x3000 <_ZN4CamX12SWDemuxBLS1414CreateDemuxBLSEPNS_23CHINodeModuleCreateDataE+0x1a8>
	adrp	x6, 0x2000 <_ZN4CamX12SWDemuxBLS1414CreateDemuxBLSEPNS_23CHINodeModuleCreateDataE+0x1a8>
	bl	0xb2c0 <_ZdaPv+0x228>
	cbnz	x10, 0x67c0 <_ZN4CamX12SWDemuxBLS1414CreateDemuxBLSEPNS_23CHINodeModuleCreateDataE+0x120>
	cbz	w0, 0x69c8 <_ZN4CamX12SWDemuxBLS1414CreateDemuxBLSEPNS_23CHINodeModuleCreateDataE+0x328>
	adrp	x1, 0x3000 <_ZN4CamX12SWDemuxBLS1414CreateDemuxBLSEPNS_23CHINodeModuleCreateDataE+0x210>
	adrp	x3, 0x2000 <_ZN4CamX12SWDemuxBLS1414CreateDemuxBLSEPNS_23CHINodeModuleCreateDataE+0x210>
	adrp	x4, 0x3000 <_ZN4CamX12SWDemuxBLS1414CreateDemuxBLSEPNS_23CHINodeModuleCreateDataE+0x218>
	adrp	x6, 0x2000 <_ZN4CamX12SWDemuxBLS1414CreateDemuxBLSEPNS_23CHINodeModuleCreateDataE+0x218>
	bl	0xb2c0 <_ZdaPv+0x228>
	adrp	x1, 0x3000 <_ZN4CamX12SWDemuxBLS1414CreateDemuxBLSEPNS_23CHINodeModuleCreateDataE+0x25c>
	adrp	x3, 0x2000 <_ZN4CamX12SWDemuxBLS1414CreateDemuxBLSEPNS_23CHINodeModuleCreateDataE+0x25c>
	adrp	x4, 0x3000 <_ZN4CamX12SWDemuxBLS1414CreateDemuxBLSEPNS_23CHINodeModuleCreateDataE+0x264>
	adrp	x6, 0x2000 <_ZN4CamX12SWDemuxBLS1414CreateDemuxBLSEPNS_23CHINodeModuleCreateDataE+0x264>
	bl	0xb2c0 <_ZdaPv+0x228>
	cbz	x0, 0x6950 <_ZN4CamX12SWDemuxBLS1414CreateDemuxBLSEPNS_23CHINodeModuleCreateDataE+0x2b0>
	cbz	x0, 0x695c <_ZN4CamX12SWDemuxBLS1414CreateDemuxBLSEPNS_23CHINodeModuleCreateDataE+0x2bc>
	b.ne	0x69ec <_ZN4CamX12SWDemuxBLS1414CreateDemuxBLSEPNS_23CHINodeModuleCreateDataE+0x34c>
	cbz	x23, 0x6834 <_ZN4CamX12SWDemuxBLS1414CreateDemuxBLSEPNS_23CHINodeModuleCreateDataE+0x194>
	cbnz	x10, 0x67c0 <_ZN4CamX12SWDemuxBLS1414CreateDemuxBLSEPNS_23CHINodeModuleCreateDataE+0x120>
	b	0x688c <_ZN4CamX12SWDemuxBLS1414CreateDemuxBLSEPNS_23CHINodeModuleCreateDataE+0x1ec>
	cbz	x23, 0x68a4 <_ZN4CamX12SWDemuxBLS1414CreateDemuxBLSEPNS_23CHINodeModuleCreateDataE+0x204>
	cbnz	w22, 0x68f4 <_ZN4CamX12SWDemuxBLS1414CreateDemuxBLSEPNS_23CHINodeModuleCreateDataE+0x254>
	b	0x6968 <_ZN4CamX12SWDemuxBLS1414CreateDemuxBLSEPNS_23CHINodeModuleCreateDataE+0x2c8>
	cbz	x9, 0x6a2c <_ZN4CamX12SWDemuxBLS1414CreateDemuxBLSEPNS_23CHINodeModuleCreateDataE+0x38c>
	cbnz	x10, 0x6b40 <_ZN4CamX12SWDemuxBLS1414CreateDemuxBLSEPNS_23CHINodeModuleCreateDataE+0x4a0>
	b	0x6ad0 <_ZN4CamX12SWDemuxBLS1414CreateDemuxBLSEPNS_23CHINodeModuleCreateDataE+0x430>
	cbz	w0, 0x6aa8 <_ZN4CamX12SWDemuxBLS1414CreateDemuxBLSEPNS_23CHINodeModuleCreateDataE+0x408>
	adrp	x20, 0x3000 <_ZN4CamX12SWDemuxBLS1414CreateDemuxBLSEPNS_23CHINodeModuleCreateDataE+0x398>
	adrp	x1, 0x3000 <_ZN4CamX12SWDemuxBLS1414CreateDemuxBLSEPNS_23CHINodeModuleCreateDataE+0x3b8>
	adrp	x3, 0x2000 <_ZN4CamX12SWDemuxBLS1414CreateDemuxBLSEPNS_23CHINodeModuleCreateDataE+0x3b8>
	adrp	x4, 0x3000 <_ZN4CamX12SWDemuxBLS1414CreateDemuxBLSEPNS_23CHINodeModuleCreateDataE+0x3c0>
	adrp	x6, 0x2000 <_ZN4CamX12SWDemuxBLS1414CreateDemuxBLSEPNS_23CHINodeModuleCreateDataE+0x3c0>
	bl	0xb2c0 <_ZdaPv+0x228>
	cbnz	x10, 0x6b40 <_ZN4CamX12SWDemuxBLS1414CreateDemuxBLSEPNS_23CHINodeModuleCreateDataE+0x4a0>
	b	0x6ad0 <_ZN4CamX12SWDemuxBLS1414CreateDemuxBLSEPNS_23CHINodeModuleCreateDataE+0x430>
	cbz	x21, 0x6a44 <_ZN4CamX12SWDemuxBLS1414CreateDemuxBLSEPNS_23CHINodeModuleCreateDataE+0x3a4>
	cbnz	x10, 0x6b40 <_ZN4CamX12SWDemuxBLS1414CreateDemuxBLSEPNS_23CHINodeModuleCreateDataE+0x4a0>
	cbz	w0, 0x6b68 <_ZN4CamX12SWDemuxBLS1414CreateDemuxBLSEPNS_23CHINodeModuleCreateDataE+0x4c8>
	adrp	x21, 0x3000 <_ZN4CamX12SWDemuxBLS1414CreateDemuxBLSEPNS_23CHINodeModuleCreateDataE+0x43c>
	adrp	x1, 0x3000 <_ZN4CamX12SWDemuxBLS1414CreateDemuxBLSEPNS_23CHINodeModuleCreateDataE+0x45c>
	adrp	x3, 0x2000 <_ZN4CamX12SWDemuxBLS1414CreateDemuxBLSEPNS_23CHINodeModuleCreateDataE+0x45c>
	adrp	x4, 0x3000 <_ZN4CamX12SWDemuxBLS1414CreateDemuxBLSEPNS_23CHINodeModuleCreateDataE+0x464>
	adrp	x6, 0x2000 <_ZN4CamX12SWDemuxBLS1414CreateDemuxBLSEPNS_23CHINodeModuleCreateDataE+0x464>
	bl	0xb2c0 <_ZdaPv+0x228>
	b.ne	0x6b94 <_ZN4CamX12SWDemuxBLS1414CreateDemuxBLSEPNS_23CHINodeModuleCreateDataE+0x4f4>
	cbz	x21, 0x6ae8 <_ZN4CamX12SWDemuxBLS1414CreateDemuxBLSEPNS_23CHINodeModuleCreateDataE+0x448>
	b.eq	0x6b50 <_ZN4CamX12SWDemuxBLS1414CreateDemuxBLSEPNS_23CHINodeModuleCreateDataE+0x4b0>
	cbz	x1, 0x6bf4 <_ZN4CamX12SWDemuxBLS1414CreateDemuxBLSEPNS_23CHINodeModuleCreateDataE+0x554>
	cbnz	w11, 0x6f7c <_ZN4CamX12SWDemuxBLS1414CreateDemuxBLSEPNS_23CHINodeModuleCreateDataE+0x8dc>
	cbz	x11, 0x6c5c <_ZN4CamX12SWDemuxBLS1414CreateDemuxBLSEPNS_23CHINodeModuleCreateDataE+0x5bc>
	b	0x6eb4 <_ZN4CamX12SWDemuxBLS1414CreateDemuxBLSEPNS_23CHINodeModuleCreateDataE+0x814>
	adrp	x22, 0x3000 <_ZN4CamX12SWDemuxBLS1414CreateDemuxBLSEPNS_23CHINodeModuleCreateDataE+0x548>
	adrp	x1, 0x3000 <_ZN4CamX12SWDemuxBLS1414CreateDemuxBLSEPNS_23CHINodeModuleCreateDataE+0x564>
	adrp	x3, 0x2000 <_ZN4CamX12SWDemuxBLS1414CreateDemuxBLSEPNS_23CHINodeModuleCreateDataE+0x564>
	adrp	x4, 0x3000 <_ZN4CamX12SWDemuxBLS1414CreateDemuxBLSEPNS_23CHINodeModuleCreateDataE+0x56c>
	adrp	x6, 0x3000 <_ZN4CamX12SWDemuxBLS1414CreateDemuxBLSEPNS_23CHINodeModuleCreateDataE+0x570>
	bl	0xb2c0 <_ZdaPv+0x228>
	b.eq	0x6f90 <_ZN4CamX12SWDemuxBLS1414CreateDemuxBLSEPNS_23CHINodeModuleCreateDataE+0x8f0>
	cbz	x9, 0x6c7c <_ZN4CamX12SWDemuxBLS1414CreateDemuxBLSEPNS_23CHINodeModuleCreateDataE+0x5dc>
	cbnz	x8, 0x6cd4 <_ZN4CamX12SWDemuxBLS1414CreateDemuxBLSEPNS_23CHINodeModuleCreateDataE+0x634>
	b	0x6d3c <_ZN4CamX12SWDemuxBLS1414CreateDemuxBLSEPNS_23CHINodeModuleCreateDataE+0x69c>
	adrp	x22, 0x3000 <_ZN4CamX12SWDemuxBLS1414CreateDemuxBLSEPNS_23CHINodeModuleCreateDataE+0x5d0>
	adrp	x1, 0x3000 <_ZN4CamX12SWDemuxBLS1414CreateDemuxBLSEPNS_23CHINodeModuleCreateDataE+0x5ec>
	adrp	x3, 0x3000 <_ZN4CamX12SWDemuxBLS1414CreateDemuxBLSEPNS_23CHINodeModuleCreateDataE+0x5f0>
	adrp	x4, 0x3000 <_ZN4CamX12SWDemuxBLS1414CreateDemuxBLSEPNS_23CHINodeModuleCreateDataE+0x5f4>
	adrp	x6, 0x2000 <_ZN4CamX12SWDemuxBLS1414CreateDemuxBLSEPNS_23CHINodeModuleCreateDataE+0x5f4>
	bl	0xb2c0 <_ZdaPv+0x228>
	cbz	x8, 0x6d3c <_ZN4CamX12SWDemuxBLS1414CreateDemuxBLSEPNS_23CHINodeModuleCreateDataE+0x69c>
	cbz	x9, 0x6d3c <_ZN4CamX12SWDemuxBLS1414CreateDemuxBLSEPNS_23CHINodeModuleCreateDataE+0x69c>
	cbz	x10, 0x6d08 <_ZN4CamX12SWDemuxBLS1414CreateDemuxBLSEPNS_23CHINodeModuleCreateDataE+0x668>
	b.ne	0x6d08 <_ZN4CamX12SWDemuxBLS1414CreateDemuxBLSEPNS_23CHINodeModuleCreateDataE+0x668>
	b.eq	0x6d88 <_ZN4CamX12SWDemuxBLS1414CreateDemuxBLSEPNS_23CHINodeModuleCreateDataE+0x6e8>
	adrp	x25, 0x22000 <_ZN4CamX12SWDemuxBLS1414CreateDemuxBLSEPNS_23CHINodeModuleCreateDataE+0x6fc>
	cbnz	w17, 0x6d9c <_ZN4CamX12SWDemuxBLS1414CreateDemuxBLSEPNS_23CHINodeModuleCreateDataE+0x6fc>
	b	0x6da4 <_ZN4CamX12SWDemuxBLS1414CreateDemuxBLSEPNS_23CHINodeModuleCreateDataE+0x704>
	adrp	x22, 0x3000 <_ZN4CamX12SWDemuxBLS1414CreateDemuxBLSEPNS_23CHINodeModuleCreateDataE+0x690>
	adrp	x1, 0x3000 <_ZN4CamX12SWDemuxBLS1414CreateDemuxBLSEPNS_23CHINodeModuleCreateDataE+0x6ac>
	adrp	x3, 0x3000 <_ZN4CamX12SWDemuxBLS1414CreateDemuxBLSEPNS_23CHINodeModuleCreateDataE+0x6b0>
	adrp	x4, 0x3000 <_ZN4CamX12SWDemuxBLS1414CreateDemuxBLSEPNS_23CHINodeModuleCreateDataE+0x6b4>
	adrp	x6, 0x2000 <_ZN4CamX12SWDemuxBLS1414CreateDemuxBLSEPNS_23CHINodeModuleCreateDataE+0x6b4>
	bl	0xb2c0 <_ZdaPv+0x228>
	adrp	x25, 0x22000 <_ZN4CamX12SWDemuxBLS1414CreateDemuxBLSEPNS_23CHINodeModuleCreateDataE+0x760>
	cbz	w17, 0x6da4 <_ZN4CamX12SWDemuxBLS1414CreateDemuxBLSEPNS_23CHINodeModuleCreateDataE+0x704>
	cbnz	w0, 0x6df4 <_ZN4CamX12SWDemuxBLS1414CreateDemuxBLSEPNS_23CHINodeModuleCreateDataE+0x754>
	b.lt	0x6df4 <_ZN4CamX12SWDemuxBLS1414CreateDemuxBLSEPNS_23CHINodeModuleCreateDataE+0x754>
	b.ne	0x6df4 <_ZN4CamX12SWDemuxBLS1414CreateDemuxBLSEPNS_23CHINodeModuleCreateDataE+0x754>
	adrp	x13, 0x22000 <_ZN4CamX12SWDemuxBLS1414CreateDemuxBLSEPNS_23CHINodeModuleCreateDataE+0x794>
	tbnz	w5, #3, 0x6fd4 <_ZN4CamX12SWDemuxBLS1414CreateDemuxBLSEPNS_23CHINodeModuleCreateDataE+0x934>
	adrp	x14, 0x3e000 <_ZN4CamX12SWDemuxBLS1414CreateDemuxBLSEPNS_23CHINodeModuleCreateDataE+0x820>
	cbz	w6, 0x6fd4 <_ZN4CamX12SWDemuxBLS1414CreateDemuxBLSEPNS_23CHINodeModuleCreateDataE+0x934>
	b	0x6e48 <_ZN4CamX12SWDemuxBLS1414CreateDemuxBLSEPNS_23CHINodeModuleCreateDataE+0x7a8>
	b.ne	0x6e8c <_ZN4CamX12SWDemuxBLS1414CreateDemuxBLSEPNS_23CHINodeModuleCreateDataE+0x7ec>
	b.ne	0x6e38 <_ZN4CamX12SWDemuxBLS1414CreateDemuxBLSEPNS_23CHINodeModuleCreateDataE+0x798>
	adrp	x15, 0x3000 <_ZN4CamX12SWDemuxBLS1414CreateDemuxBLSEPNS_23CHINodeModuleCreateDataE+0x768>
	b.mi	0x6e48 <_ZN4CamX12SWDemuxBLS1414CreateDemuxBLSEPNS_23CHINodeModuleCreateDataE+0x7a8>
	b	0x6e3c <_ZN4CamX12SWDemuxBLS1414CreateDemuxBLSEPNS_23CHINodeModuleCreateDataE+0x79c>
	b.hi	0x6e78 <_ZN4CamX12SWDemuxBLS1414CreateDemuxBLSEPNS_23CHINodeModuleCreateDataE+0x7d8>
	b.ne	0x6eb4 <_ZN4CamX12SWDemuxBLS1414CreateDemuxBLSEPNS_23CHINodeModuleCreateDataE+0x814>
	adrp	x16, 0x3000 <_ZN4CamX12SWDemuxBLS1414CreateDemuxBLSEPNS_23CHINodeModuleCreateDataE+0x808>
	cbz	x2, 0x6f70 <_ZN4CamX12SWDemuxBLS1414CreateDemuxBLSEPNS_23CHINodeModuleCreateDataE+0x8d0>
	cbz	w10, 0x6f7c <_ZN4CamX12SWDemuxBLS1414CreateDemuxBLSEPNS_23CHINodeModuleCreateDataE+0x8dc>
	bl	0x7578 <_ZN4CamX13SWIQInterface20SWIQSetupTriggerDataEPNS_14SWISPInputDataE+0x268>
	cbz	w0, 0x6fb0 <_ZN4CamX12SWDemuxBLS1414CreateDemuxBLSEPNS_23CHINodeModuleCreateDataE+0x910>
	adrp	x22, 0x3000 <_ZN4CamX12SWDemuxBLS1414CreateDemuxBLSEPNS_23CHINodeModuleCreateDataE+0x864>
	adrp	x1, 0x3000 <_ZN4CamX12SWDemuxBLS1414CreateDemuxBLSEPNS_23CHINodeModuleCreateDataE+0x880>
	adrp	x3, 0x2000 <_ZN4CamX12SWDemuxBLS1414CreateDemuxBLSEPNS_23CHINodeModuleCreateDataE+0x880>
	adrp	x4, 0x3000 <_ZN4CamX12SWDemuxBLS1414CreateDemuxBLSEPNS_23CHINodeModuleCreateDataE+0x888>
	adrp	x6, 0x2000 <_ZN4CamX12SWDemuxBLS1414CreateDemuxBLSEPNS_23CHINodeModuleCreateDataE+0x888>
	bl	0xb2c0 <_ZdaPv+0x228>
	b.eq	0x6f90 <_ZN4CamX12SWDemuxBLS1414CreateDemuxBLSEPNS_23CHINodeModuleCreateDataE+0x8f0>
	b	0x6c58 <_ZN4CamX12SWDemuxBLS1414CreateDemuxBLSEPNS_23CHINodeModuleCreateDataE+0x5b8>
	cbnz	w10, 0x6ee0 <_ZN4CamX12SWDemuxBLS1414CreateDemuxBLSEPNS_23CHINodeModuleCreateDataE+0x840>
	b.ne	0x6c58 <_ZN4CamX12SWDemuxBLS1414CreateDemuxBLSEPNS_23CHINodeModuleCreateDataE+0x5b8>
	b.eq	0x6f90 <_ZN4CamX12SWDemuxBLS1414CreateDemuxBLSEPNS_23CHINodeModuleCreateDataE+0x8f0>
	b	0x6c58 <_ZN4CamX12SWDemuxBLS1414CreateDemuxBLSEPNS_23CHINodeModuleCreateDataE+0x5b8>
	adrp	x22, 0x3000 <_ZN4CamX12SWDemuxBLS1414CreateDemuxBLSEPNS_23CHINodeModuleCreateDataE+0x928>
	adrp	x1, 0x3000 <_ZN4CamX12SWDemuxBLS1414CreateDemuxBLSEPNS_23CHINodeModuleCreateDataE+0x948>
	adrp	x3, 0x2000 <_ZN4CamX12SWDemuxBLS1414CreateDemuxBLSEPNS_23CHINodeModuleCreateDataE+0x948>
	adrp	x4, 0x3000 <_ZN4CamX12SWDemuxBLS1414CreateDemuxBLSEPNS_23CHINodeModuleCreateDataE+0x950>
	adrp	x6, 0x2000 <_ZN4CamX12SWDemuxBLS1414CreateDemuxBLSEPNS_23CHINodeModuleCreateDataE+0x94c>
	bl	0xb2c0 <_ZdaPv+0x228>
	b.eq	0x6e48 <_ZN4CamX12SWDemuxBLS1414CreateDemuxBLSEPNS_23CHINodeModuleCreateDataE+0x7a8>
	b	0x6e8c <_ZN4CamX12SWDemuxBLS1414CreateDemuxBLSEPNS_23CHINodeModuleCreateDataE+0x7ec>
	adrp	x8, 0x21000 <_ZN4CamX12SWDemuxBLS1414CreateDemuxBLSEPNS_23CHINodeModuleCreateDataE+0xa0c>
	cbz	x0, 0x7068 <_ZN4CamX12SWDemuxBLS1414CreateDemuxBLSEPNS_23CHINodeModuleCreateDataE+0x9c8>
	cbz	x0, 0x7078 <_ZN4CamX12SWDemuxBLS1414CreateDemuxBLSEPNS_23CHINodeModuleCreateDataE+0x9d8>
	bl	0x1fd60 <_ZSt9terminatev@plt>
	adrp	x8, 0x21000 <_ZN4CamX13SWIQInterface27SWIQSettingModuleInitializeEPNS_18SWIQLibInitialDataE+0x24>
	cbz	x0, 0x70c8 <_ZN4CamX12SWDemuxBLS1414CreateDemuxBLSEPNS_23CHINodeModuleCreateDataE+0xa28>
	cbz	x0, 0x70d4 <_ZN4CamX12SWDemuxBLS1414CreateDemuxBLSEPNS_23CHINodeModuleCreateDataE+0xa34>

	cbz	x0, 0x711c <_ZN4CamX13SWIQInterface27SWIQSettingModuleInitializeEPNS_18SWIQLibInitialDataE+0x34>
	cbz	x9, 0x7148 <_ZN4CamX13SWIQInterface27SWIQSettingModuleInitializeEPNS_18SWIQLibInitialDataE+0x60>
	b.ne	0x71d4 <_ZN4CamX13SWIQInterface27SWIQSettingModuleInitializeEPNS_18SWIQLibInitialDataE+0xec>
	adrp	x8, 0x22000 <_ZN4CamX13SWIQInterface27SWIQSettingModuleInitializeEPNS_18SWIQLibInitialDataE+0xcc>
	cbz	w0, 0x7170 <_ZN4CamX13SWIQInterface27SWIQSettingModuleInitializeEPNS_18SWIQLibInitialDataE+0x88>
	b	0x71c0 <_ZN4CamX13SWIQInterface27SWIQSettingModuleInitializeEPNS_18SWIQLibInitialDataE+0xd8>
	adrp	x21, 0x2000 <_ZN4CamX13SWIQInterface27SWIQSettingModuleInitializeEPNS_18SWIQLibInitialDataE+0x74>
	adrp	x1, 0x3000 <_ZN4CamX13SWIQInterface27SWIQSettingModuleInitializeEPNS_18SWIQLibInitialDataE+0x94>
	adrp	x3, 0x2000 <_ZN4CamX13SWIQInterface27SWIQSettingModuleInitializeEPNS_18SWIQLibInitialDataE+0x94>
	adrp	x4, 0x3000 <_ZN4CamX13SWIQInterface27SWIQSettingModuleInitializeEPNS_18SWIQLibInitialDataE+0x9c>
	adrp	x6, 0x3000 <_ZN4CamX13SWIQInterface27SWIQSettingModuleInitializeEPNS_18SWIQLibInitialDataE+0xa0>
	bl	0xb2c0 <_ZdaPv+0x228>
	b.eq	0x7130 <_ZN4CamX13SWIQInterface27SWIQSettingModuleInitializeEPNS_18SWIQLibInitialDataE+0x48>

	cbz	x0, 0x7238 <_ZN4CamX13SWIQInterface29SWIQSettingModuleUninitializeEPNS_18SWIQLibInitialDataE+0x60>
	cbz	x8, 0x7238 <_ZN4CamX13SWIQInterface29SWIQSettingModuleUninitializeEPNS_18SWIQLibInitialDataE+0x60>
	adrp	x9, 0x22000 <_ZN4CamX13SWIQInterface29SWIQSettingModuleUninitializeEPNS_18SWIQLibInitialDataE+0x98>
	cbz	w0, 0x72ac <_ZN4CamX13SWIQInterface29SWIQSettingModuleUninitializeEPNS_18SWIQLibInitialDataE+0xd4>
	b.eq	0x7298 <_ZN4CamX13SWIQInterface29SWIQSettingModuleUninitializeEPNS_18SWIQLibInitialDataE+0xc0>
	b	0x730c <_ZN4CamX13SWIQInterface29SWIQSettingModuleUninitializeEPNS_18SWIQLibInitialDataE+0x134>
	adrp	x19, 0x2000 <_ZN4CamX13SWIQInterface29SWIQSettingModuleUninitializeEPNS_18SWIQLibInitialDataE+0x4c>
	adrp	x1, 0x3000 <_ZN4CamX13SWIQInterface29SWIQSettingModuleUninitializeEPNS_18SWIQLibInitialDataE+0x6c>
	adrp	x3, 0x2000 <_ZN4CamX13SWIQInterface29SWIQSettingModuleUninitializeEPNS_18SWIQLibInitialDataE+0x6c>
	adrp	x4, 0x3000 <_ZN4CamX13SWIQInterface29SWIQSettingModuleUninitializeEPNS_18SWIQLibInitialDataE+0x74>
	adrp	x6, 0x3000 <_ZN4CamX13SWIQInterface29SWIQSettingModuleUninitializeEPNS_18SWIQLibInitialDataE+0x78>
	bl	0xb2c0 <_ZdaPv+0x228>
	b.ne	0x730c <_ZN4CamX13SWIQInterface29SWIQSettingModuleUninitializeEPNS_18SWIQLibInitialDataE+0x134>
	adrp	x19, 0x2000 <_ZN4CamX13SWIQInterface29SWIQSettingModuleUninitializeEPNS_18SWIQLibInitialDataE+0xc0>
	adrp	x1, 0x3000 <_ZN4CamX13SWIQInterface29SWIQSettingModuleUninitializeEPNS_18SWIQLibInitialDataE+0xe0>
	adrp	x3, 0x3000 <_ZN4CamX13SWIQInterface29SWIQSettingModuleUninitializeEPNS_18SWIQLibInitialDataE+0xe4>
	adrp	x4, 0x3000 <_ZN4CamX13SWIQInterface29SWIQSettingModuleUninitializeEPNS_18SWIQLibInitialDataE+0xe8>
	adrp	x6, 0x3000 <_ZN4CamX13SWIQInterface29SWIQSettingModuleUninitializeEPNS_18SWIQLibInitialDataE+0xec>
	bl	0xb2c0 <_ZdaPv+0x228>
	b.eq	0x7298 <_ZN4CamX13SWIQInterface29SWIQSettingModuleUninitializeEPNS_18SWIQLibInitialDataE+0xc0>

	cbz	x0, 0x73bc <_ZN4CamX13SWIQInterface20SWIQSetupTriggerDataEPNS_14SWISPInputDataE+0xac>
	cbz	x8, 0x73bc <_ZN4CamX13SWIQInterface20SWIQSetupTriggerDataEPNS_14SWISPInputDataE+0xac>
	cbz	x10, 0x73bc <_ZN4CamX13SWIQInterface20SWIQSetupTriggerDataEPNS_14SWISPInputDataE+0xac>
	cbz	x9, 0x7354 <_ZN4CamX13SWIQInterface20SWIQSetupTriggerDataEPNS_14SWISPInputDataE+0x44>
	adrp	x9, 0x3000 <_ZN4CamX13SWIQInterface20SWIQSetupTriggerDataEPNS_14SWISPInputDataE+0x38>
	b.mi	0x7380 <_ZN4CamX13SWIQInterface20SWIQSetupTriggerDataEPNS_14SWISPInputDataE+0x70>
	b.mi	0x739c <_ZN4CamX13SWIQInterface20SWIQSetupTriggerDataEPNS_14SWISPInputDataE+0x8c>
	b.ne	0x7410 <_ZN4CamX13SWIQInterface20SWIQSetupTriggerDataEPNS_14SWISPInputDataE+0x100>
	b	0x7418 <_ZN4CamX13SWIQInterface20SWIQSetupTriggerDataEPNS_14SWISPInputDataE+0x108>
	adrp	x19, 0x2000 <_ZN4CamX13SWIQInterface20SWIQSetupTriggerDataEPNS_14SWISPInputDataE+0x98>
	adrp	x1, 0x3000 <_ZN4CamX13SWIQInterface20SWIQSetupTriggerDataEPNS_14SWISPInputDataE+0xb8>
	adrp	x3, 0x2000 <_ZN4CamX13SWIQInterface20SWIQSetupTriggerDataEPNS_14SWISPInputDataE+0xc0>
	adrp	x4, 0x3000 <_ZN4CamX13SWIQInterface20SWIQSetupTriggerDataEPNS_14SWISPInputDataE+0xc8>
	adrp	x6, 0x3000 <_ZN4CamX13SWIQInterface20SWIQSetupTriggerDataEPNS_14SWISPInputDataE+0xcc>
	b	0xb2c0 <_ZdaPv+0x228>
	cbz	x12, 0x74a4 <_ZN4CamX13SWIQInterface20SWIQSetupTriggerDataEPNS_14SWISPInputDataE+0x194>
	b.mi	0x74c0 <_ZN4CamX13SWIQInterface20SWIQSetupTriggerDataEPNS_14SWISPInputDataE+0x1b0>
	b.ne	0x74c8 <_ZN4CamX13SWIQInterface20SWIQSetupTriggerDataEPNS_14SWISPInputDataE+0x1b8>
	b	0x74d4 <_ZN4CamX13SWIQInterface20SWIQSetupTriggerDataEPNS_14SWISPInputDataE+0x1c4>
	b	0x74d4 <_ZN4CamX13SWIQInterface20SWIQSetupTriggerDataEPNS_14SWISPInputDataE+0x1c4>
	b.mi	0x74fc <_ZN4CamX13SWIQInterface20SWIQSetupTriggerDataEPNS_14SWISPInputDataE+0x1ec>
	b.ne	0x7504 <_ZN4CamX13SWIQInterface20SWIQSetupTriggerDataEPNS_14SWISPInputDataE+0x1f4>
	b	0x7510 <_ZN4CamX13SWIQInterface20SWIQSetupTriggerDataEPNS_14SWISPInputDataE+0x200>
	b	0x7510 <_ZN4CamX13SWIQInterface20SWIQSetupTriggerDataEPNS_14SWISPInputDataE+0x200>
	b.hi	0x7560 <_ZN4CamX13SWIQInterface20SWIQSetupTriggerDataEPNS_14SWISPInputDataE+0x250>
	cbz	x0, 0x75ec <_ZN4CamX13SWIQInterface20SWIQSetupTriggerDataEPNS_14SWISPInputDataE+0x2dc>
	cbz	x3, 0x75ec <_ZN4CamX13SWIQInterface20SWIQSetupTriggerDataEPNS_14SWISPInputDataE+0x2dc>
	b.hi	0x7640 <_ZN4CamX13SWIQInterface20SWIQSetupTriggerDataEPNS_14SWISPInputDataE+0x330>
	cbnz	x2, 0x7698 <_ZN4CamX13SWIQInterface20SWIQSetupTriggerDataEPNS_14SWISPInputDataE+0x388>
	b	0x7648 <_ZN4CamX13SWIQInterface20SWIQSetupTriggerDataEPNS_14SWISPInputDataE+0x338>
	adrp	x23, 0x2000 <_ZN4CamX13SWIQInterface20SWIQSetupTriggerDataEPNS_14SWISPInputDataE+0x2c8>
	adrp	x1, 0x3000 <_ZN4CamX13SWIQInterface20SWIQSetupTriggerDataEPNS_14SWISPInputDataE+0x2e8>
	adrp	x3, 0x2000 <_ZN4CamX13SWIQInterface20SWIQSetupTriggerDataEPNS_14SWISPInputDataE+0x2e8>
	adrp	x4, 0x3000 <_ZN4CamX13SWIQInterface20SWIQSetupTriggerDataEPNS_14SWISPInputDataE+0x2f0>
	adrp	x6, 0x3000 <_ZN4CamX13SWIQInterface20SWIQSetupTriggerDataEPNS_14SWISPInputDataE+0x2f4>
	bl	0xb2c0 <_ZdaPv+0x228>
	b	0x7734 <_ZN4CamX13SWIQInterface20SWIQSetupTriggerDataEPNS_14SWISPInputDataE+0x424>
	cbnz	x2, 0x7698 <_ZN4CamX13SWIQInterface20SWIQSetupTriggerDataEPNS_14SWISPInputDataE+0x388>
	cbz	x13, 0x7698 <_ZN4CamX13SWIQInterface20SWIQSetupTriggerDataEPNS_14SWISPInputDataE+0x388>
	adrp	x27, 0x22000 <_ZN4CamX13SWIQInterface20SWIQSetupTriggerDataEPNS_14SWISPInputDataE+0x3ac>
	b.ne	0x7768 <_ZN4CamX13SWIQInterface20SWIQSetupTriggerDataEPNS_14SWISPInputDataE+0x458>
	b	0x7770 <_ZN4CamX13SWIQInterface20SWIQSetupTriggerDataEPNS_14SWISPInputDataE+0x460>
	adrp	x24, 0x2000 <_ZN4CamX13SWIQInterface20SWIQSetupTriggerDataEPNS_14SWISPInputDataE+0x374>
	adrp	x21, 0x3000 <_ZN4CamX13SWIQInterface20SWIQSetupTriggerDataEPNS_14SWISPInputDataE+0x398>
	adrp	x22, 0x3000 <_ZN4CamX13SWIQInterface20SWIQSetupTriggerDataEPNS_14SWISPInputDataE+0x39c>
	adrp	x25, 0x3000 <_ZN4CamX13SWIQInterface20SWIQSetupTriggerDataEPNS_14SWISPInputDataE+0x3a0>
	adrp	x3, 0x2000 <_ZN4CamX13SWIQInterface20SWIQSetupTriggerDataEPNS_14SWISPInputDataE+0x3a8>
	bl	0xb2c0 <_ZdaPv+0x228>
	adrp	x3, 0x2000 <_ZN4CamX13SWIQInterface20SWIQSetupTriggerDataEPNS_14SWISPInputDataE+0x3ec>
	bl	0xb2c0 <_ZdaPv+0x228>
	b.ne	0x77f0 <_ZN4CamX13SWIQInterface20SWIQSetupTriggerDataEPNS_14SWISPInputDataE+0x4e0>
	cbnz	w19, 0x7734 <_ZN4CamX13SWIQInterface20SWIQSetupTriggerDataEPNS_14SWISPInputDataE+0x424>
	b.ne	0x7734 <_ZN4CamX13SWIQInterface20SWIQSetupTriggerDataEPNS_14SWISPInputDataE+0x424>
	b	0x7734 <_ZN4CamX13SWIQInterface20SWIQSetupTriggerDataEPNS_14SWISPInputDataE+0x424>
	cbz	x2, 0x7888 <_ZN4CamX13SWIQInterface20SWIQSetupTriggerDataEPNS_14SWISPInputDataE+0x578>
	cbz	x0, 0x7888 <_ZN4CamX13SWIQInterface20SWIQSetupTriggerDataEPNS_14SWISPInputDataE+0x578>
	cbz	x3, 0x7888 <_ZN4CamX13SWIQInterface20SWIQSetupTriggerDataEPNS_14SWISPInputDataE+0x578>
	cbnz	x1, 0x7a84 <_ZN4CamX13SWIQInterface20SWIQSetupTriggerDataEPNS_14SWISPInputDataE+0x774>
	adrp	x26, 0x22000 <_ZN4CamX13SWIQInterface20SWIQSetupTriggerDataEPNS_14SWISPInputDataE+0x5ac>
	cbz	x21, 0x78ec <_ZN4CamX13SWIQInterface20SWIQSetupTriggerDataEPNS_14SWISPInputDataE+0x5dc>
	cbnz	x10, 0x794c <_ZN4CamX13SWIQInterface20SWIQSetupTriggerDataEPNS_14SWISPInputDataE+0x63c>
	b	0x7990 <_ZN4CamX13SWIQInterface20SWIQSetupTriggerDataEPNS_14SWISPInputDataE+0x680>
	adrp	x22, 0x2000 <_ZN4CamX13SWIQInterface20SWIQSetupTriggerDataEPNS_14SWISPInputDataE+0x564>
	adrp	x1, 0x3000 <_ZN4CamX13SWIQInterface20SWIQSetupTriggerDataEPNS_14SWISPInputDataE+0x584>
	adrp	x3, 0x3000 <_ZN4CamX13SWIQInterface20SWIQSetupTriggerDataEPNS_14SWISPInputDataE+0x588>
	adrp	x4, 0x3000 <_ZN4CamX13SWIQInterface20SWIQSetupTriggerDataEPNS_14SWISPInputDataE+0x58c>
	adrp	x6, 0x3000 <_ZN4CamX13SWIQInterface20SWIQSetupTriggerDataEPNS_14SWISPInputDataE+0x590>
	bl	0xb2c0 <_ZdaPv+0x228>
	b.eq	0x7ae4 <_ZN4CamX13SWIQInterface20SWIQSetupTriggerDataEPNS_14SWISPInputDataE+0x7d4>
	b	0x7b4c <_ZN4CamX13SWIQInterface20SWIQSetupTriggerDataEPNS_14SWISPInputDataE+0x83c>
	adrp	x22, 0x2000 <_ZN4CamX13SWIQInterface20SWIQSetupTriggerDataEPNS_14SWISPInputDataE+0x5c8>
	adrp	x1, 0x3000 <_ZN4CamX13SWIQInterface20SWIQSetupTriggerDataEPNS_14SWISPInputDataE+0x5e8>
	adrp	x3, 0x3000 <_ZN4CamX13SWIQInterface20SWIQSetupTriggerDataEPNS_14SWISPInputDataE+0x5ec>
	adrp	x4, 0x3000 <_ZN4CamX13SWIQInterface20SWIQSetupTriggerDataEPNS_14SWISPInputDataE+0x5f0>
	adrp	x6, 0x3000 <_ZN4CamX13SWIQInterface20SWIQSetupTriggerDataEPNS_14SWISPInputDataE+0x5f4>
	bl	0xb2c0 <_ZdaPv+0x228>
	cbz	x10, 0x7990 <_ZN4CamX13SWIQInterface20SWIQSetupTriggerDataEPNS_14SWISPInputDataE+0x680>
	b.ne	0x7990 <_ZN4CamX13SWIQInterface20SWIQSetupTriggerDataEPNS_14SWISPInputDataE+0x680>
	cbz	x11, 0x7990 <_ZN4CamX13SWIQInterface20SWIQSetupTriggerDataEPNS_14SWISPInputDataE+0x680>
	b.ne	0x7a84 <_ZN4CamX13SWIQInterface20SWIQSetupTriggerDataEPNS_14SWISPInputDataE+0x774>
	b.ne	0x7b04 <_ZN4CamX13SWIQInterface20SWIQSetupTriggerDataEPNS_14SWISPInputDataE+0x7f4>
	cbz	x16, 0x7a2c <_ZN4CamX13SWIQInterface20SWIQSetupTriggerDataEPNS_14SWISPInputDataE+0x71c>
	adrp	x2, 0x22000 <_ZN4CamX13SWIQInterface20SWIQSetupTriggerDataEPNS_14SWISPInputDataE+0x73c>
	adrp	x4, 0x30000 <_ZN4CamX13SWIQInterface20SWIQSetupTriggerDataEPNS_14SWISPInputDataE+0x79c>
	b.ne	0x7b38 <_ZN4CamX13SWIQInterface20SWIQSetupTriggerDataEPNS_14SWISPInputDataE+0x828>
	b.eq	0x7ae4 <_ZN4CamX13SWIQInterface20SWIQSetupTriggerDataEPNS_14SWISPInputDataE+0x7d4>
	b	0x7b4c <_ZN4CamX13SWIQInterface20SWIQSetupTriggerDataEPNS_14SWISPInputDataE+0x83c>
	adrp	x21, 0x2000 <_ZN4CamX13SWIQInterface20SWIQSetupTriggerDataEPNS_14SWISPInputDataE+0x760>
	adrp	x1, 0x3000 <_ZN4CamX13SWIQInterface20SWIQSetupTriggerDataEPNS_14SWISPInputDataE+0x780>
	adrp	x3, 0x3000 <_ZN4CamX13SWIQInterface20SWIQSetupTriggerDataEPNS_14SWISPInputDataE+0x784>
	adrp	x4, 0x3000 <_ZN4CamX13SWIQInterface20SWIQSetupTriggerDataEPNS_14SWISPInputDataE+0x794>
	adrp	x6, 0x3000 <_ZN4CamX13SWIQInterface20SWIQSetupTriggerDataEPNS_14SWISPInputDataE+0x798>
	bl	0xb2c0 <_ZdaPv+0x228>
	b.ne	0x7b4c <_ZN4CamX13SWIQInterface20SWIQSetupTriggerDataEPNS_14SWISPInputDataE+0x83c>
	adrp	x22, 0x2000 <_ZN4CamX13SWIQInterface20SWIQSetupTriggerDataEPNS_14SWISPInputDataE+0x7e0>
	adrp	x1, 0x3000 <_ZN4CamX13SWIQInterface20SWIQSetupTriggerDataEPNS_14SWISPInputDataE+0x800>
	adrp	x3, 0x3000 <_ZN4CamX13SWIQInterface20SWIQSetupTriggerDataEPNS_14SWISPInputDataE+0x804>
	b	0x7ab4 <_ZN4CamX13SWIQInterface20SWIQSetupTriggerDataEPNS_14SWISPInputDataE+0x7a4>
	b.eq	0x7ae4 <_ZN4CamX13SWIQInterface20SWIQSetupTriggerDataEPNS_14SWISPInputDataE+0x7d4>

	cbz	x0, 0x7d1c <_ZN4CamX8SWMCTF1012CreateSWMCTFEPNS_23CHINodeModuleCreateDataE+0x1cc>
	cbnz	w0, 0x7dac <_ZN4CamX8SWMCTF1012CreateSWMCTFEPNS_23CHINodeModuleCreateDataE+0x25c>
	cbz	x20, 0x7dac <_ZN4CamX8SWMCTF1012CreateSWMCTFEPNS_23CHINodeModuleCreateDataE+0x25c>
	adrp	x27, 0x21000 <_ZN4CamX8SWMCTF1012CreateSWMCTFEPNS_23CHINodeModuleCreateDataE+0xc0>
	adrp	x10, 0x22000 <_ZN4CamX8SWMCTF1012CreateSWMCTFEPNS_23CHINodeModuleCreateDataE+0xcc>
	adrp	x21, 0x3000 <_ZN4CamX8SWMCTF1012CreateSWMCTFEPNS_23CHINodeModuleCreateDataE+0x60>
	tbnz	w9, #3, 0x7bf4 <_ZN4CamX8SWMCTF1012CreateSWMCTFEPNS_23CHINodeModuleCreateDataE+0xa4>
	adrp	x11, 0x3e000 <_ZN4CamX8SWMCTF1012CreateSWMCTFEPNS_23CHINodeModuleCreateDataE+0x174>
	cbnz	w10, 0x7c48 <_ZN4CamX8SWMCTF1012CreateSWMCTFEPNS_23CHINodeModuleCreateDataE+0xf8>
	adrp	x1, 0x3000 <_ZN4CamX8SWMCTF1012CreateSWMCTFEPNS_23CHINodeModuleCreateDataE+0xa8>
	adrp	x3, 0x3000 <_ZN4CamX8SWMCTF1012CreateSWMCTFEPNS_23CHINodeModuleCreateDataE+0xac>
	adrp	x4, 0x3000 <_ZN4CamX8SWMCTF1012CreateSWMCTFEPNS_23CHINodeModuleCreateDataE+0xb0>
	adrp	x6, 0x3000 <_ZN4CamX8SWMCTF1012CreateSWMCTFEPNS_23CHINodeModuleCreateDataE+0xb4>
	bl	0xb2c0 <_ZdaPv+0x228>
	cbz	x9, 0x7c48 <_ZN4CamX8SWMCTF1012CreateSWMCTFEPNS_23CHINodeModuleCreateDataE+0xf8>
	b	0x7d78 <_ZN4CamX8SWMCTF1012CreateSWMCTFEPNS_23CHINodeModuleCreateDataE+0x228>
	cbz	w0, 0x7d24 <_ZN4CamX8SWMCTF1012CreateSWMCTFEPNS_23CHINodeModuleCreateDataE+0x1d4>
	adrp	x24, 0x3000 <_ZN4CamX8SWMCTF1012CreateSWMCTFEPNS_23CHINodeModuleCreateDataE+0x11c>
	adrp	x25, 0x3000 <_ZN4CamX8SWMCTF1012CreateSWMCTFEPNS_23CHINodeModuleCreateDataE+0x120>
	adrp	x3, 0x2000 <_ZN4CamX8SWMCTF1012CreateSWMCTFEPNS_23CHINodeModuleCreateDataE+0x128>
	adrp	x6, 0x2000 <_ZN4CamX8SWMCTF1012CreateSWMCTFEPNS_23CHINodeModuleCreateDataE+0x130>
	bl	0xb2c0 <_ZdaPv+0x228>
	adrp	x3, 0x2000 <_ZN4CamX8SWMCTF1012CreateSWMCTFEPNS_23CHINodeModuleCreateDataE+0x168>
	adrp	x6, 0x3000 <_ZN4CamX8SWMCTF1012CreateSWMCTFEPNS_23CHINodeModuleCreateDataE+0x170>
	bl	0xb2c0 <_ZdaPv+0x228>
	cbz	x0, 0x7d08 <_ZN4CamX8SWMCTF1012CreateSWMCTFEPNS_23CHINodeModuleCreateDataE+0x1b8>
	b	0x7d78 <_ZN4CamX8SWMCTF1012CreateSWMCTFEPNS_23CHINodeModuleCreateDataE+0x228>
	b	0x7d7c <_ZN4CamX8SWMCTF1012CreateSWMCTFEPNS_23CHINodeModuleCreateDataE+0x22c>
	cbz	x8, 0x7c60 <_ZN4CamX8SWMCTF1012CreateSWMCTFEPNS_23CHINodeModuleCreateDataE+0x110>
	b.ne	0x7db0 <_ZN4CamX8SWMCTF1012CreateSWMCTFEPNS_23CHINodeModuleCreateDataE+0x260>
	adrp	x9, 0x22000 <_ZN4CamX8SWMCTF1012CreateSWMCTFEPNS_23CHINodeModuleCreateDataE+0x2ec>
	tbnz	w8, #3, 0x7e18 <_ZN4CamX8SWMCTF1012CreateSWMCTFEPNS_23CHINodeModuleCreateDataE+0x2c8>
	adrp	x10, 0x3e000 <_ZN4CamX8SWMCTF1012CreateSWMCTFEPNS_23CHINodeModuleCreateDataE+0x378>
	cbz	w9, 0x7e18 <_ZN4CamX8SWMCTF1012CreateSWMCTFEPNS_23CHINodeModuleCreateDataE+0x2c8>
	cbz	x9, 0x7e6c <_ZN4CamX8SWMCTF1012CreateSWMCTFEPNS_23CHINodeModuleCreateDataE+0x31c>
	b.eq	0x7ee8 <_ZN4CamX8SWMCTF1012CreateSWMCTFEPNS_23CHINodeModuleCreateDataE+0x398>
	b	0x7f64 <_ZN4CamX8SWMCTF1012CreateSWMCTFEPNS_23CHINodeModuleCreateDataE+0x414>
	adrp	x20, 0x3000 <_ZN4CamX8SWMCTF1012CreateSWMCTFEPNS_23CHINodeModuleCreateDataE+0x2b8>
	adrp	x1, 0x3000 <_ZN4CamX8SWMCTF1012CreateSWMCTFEPNS_23CHINodeModuleCreateDataE+0x2d4>
	adrp	x3, 0x3000 <_ZN4CamX8SWMCTF1012CreateSWMCTFEPNS_23CHINodeModuleCreateDataE+0x2d8>
	adrp	x4, 0x3000 <_ZN4CamX8SWMCTF1012CreateSWMCTFEPNS_23CHINodeModuleCreateDataE+0x2dc>
	adrp	x6, 0x3000 <_ZN4CamX8SWMCTF1012CreateSWMCTFEPNS_23CHINodeModuleCreateDataE+0x2e0>
	bl	0xb2c0 <_ZdaPv+0x228>
	cbnz	x9, 0x7e00 <_ZN4CamX8SWMCTF1012CreateSWMCTFEPNS_23CHINodeModuleCreateDataE+0x2b0>
	cbz	w0, 0x7f00 <_ZN4CamX8SWMCTF1012CreateSWMCTFEPNS_23CHINodeModuleCreateDataE+0x3b0>
	adrp	x20, 0x3000 <_ZN4CamX8SWMCTF1012CreateSWMCTFEPNS_23CHINodeModuleCreateDataE+0x324>
	adrp	x1, 0x3000 <_ZN4CamX8SWMCTF1012CreateSWMCTFEPNS_23CHINodeModuleCreateDataE+0x344>
	adrp	x3, 0x2000 <_ZN4CamX8SWMCTF1012CreateSWMCTFEPNS_23CHINodeModuleCreateDataE+0x344>
	adrp	x4, 0x3000 <_ZN4CamX8SWMCTF1012CreateSWMCTFEPNS_23CHINodeModuleCreateDataE+0x34c>
	adrp	x6, 0x2000 <_ZN4CamX8SWMCTF1012CreateSWMCTFEPNS_23CHINodeModuleCreateDataE+0x34c>
	bl	0xb2c0 <_ZdaPv+0x228>
	b.ne	0x7f64 <_ZN4CamX8SWMCTF1012CreateSWMCTFEPNS_23CHINodeModuleCreateDataE+0x414>
	cbz	x8, 0x7e84 <_ZN4CamX8SWMCTF1012CreateSWMCTFEPNS_23CHINodeModuleCreateDataE+0x334>
	b.eq	0x7ee8 <_ZN4CamX8SWMCTF1012CreateSWMCTFEPNS_23CHINodeModuleCreateDataE+0x398>
	cbz	x1, 0x8018 <_ZN4CamX8SWMCTF1012CreateSWMCTFEPNS_23CHINodeModuleCreateDataE+0x4c8>
	cbz	x2, 0x8018 <_ZN4CamX8SWMCTF1012CreateSWMCTFEPNS_23CHINodeModuleCreateDataE+0x4c8>
	cbz	x8, 0x8070 <_ZN4CamX8SWMCTF1012CreateSWMCTFEPNS_23CHINodeModuleCreateDataE+0x520>
	adrp	x9, 0x22000 <_ZN4CamX8SWMCTF1012CreateSWMCTFEPNS_23CHINodeModuleCreateDataE+0x4c0>
	tbnz	w10, #3, 0x7fc0 <_ZN4CamX8SWMCTF1012CreateSWMCTFEPNS_23CHINodeModuleCreateDataE+0x470>
	adrp	x12, 0x3e000 <_ZN4CamX8SWMCTF1012CreateSWMCTFEPNS_23CHINodeModuleCreateDataE+0x540>
	cbnz	w11, 0x8010 <_ZN4CamX8SWMCTF1012CreateSWMCTFEPNS_23CHINodeModuleCreateDataE+0x4c0>
	adrp	x22, 0x3000 <_ZN4CamX8SWMCTF1012CreateSWMCTFEPNS_23CHINodeModuleCreateDataE+0x460>
	adrp	x1, 0x3000 <_ZN4CamX8SWMCTF1012CreateSWMCTFEPNS_23CHINodeModuleCreateDataE+0x480>
	adrp	x3, 0x2000 <_ZN4CamX8SWMCTF1012CreateSWMCTFEPNS_23CHINodeModuleCreateDataE+0x480>
	adrp	x4, 0x3000 <_ZN4CamX8SWMCTF1012CreateSWMCTFEPNS_23CHINodeModuleCreateDataE+0x488>
	adrp	x6, 0x2000 <_ZN4CamX8SWMCTF1012CreateSWMCTFEPNS_23CHINodeModuleCreateDataE+0x488>
	bl	0xb2c0 <_ZdaPv+0x228>
	b	0x80c0 <_ZN4CamX8SWMCTF1012CreateSWMCTFEPNS_23CHINodeModuleCreateDataE+0x570>
	adrp	x23, 0x3000 <_ZN4CamX8SWMCTF1012CreateSWMCTFEPNS_23CHINodeModuleCreateDataE+0x4b4>
	adrp	x1, 0x3000 <_ZN4CamX8SWMCTF1012CreateSWMCTFEPNS_23CHINodeModuleCreateDataE+0x4d0>
	adrp	x3, 0x3000 <_ZN4CamX8SWMCTF1012CreateSWMCTFEPNS_23CHINodeModuleCreateDataE+0x4d4>
	adrp	x4, 0x3000 <_ZN4CamX8SWMCTF1012CreateSWMCTFEPNS_23CHINodeModuleCreateDataE+0x4d8>
	adrp	x6, 0x3000 <_ZN4CamX8SWMCTF1012CreateSWMCTFEPNS_23CHINodeModuleCreateDataE+0x4dc>
	bl	0xb2c0 <_ZdaPv+0x228>
	b	0x833c <_ZN4CamX8SWMCTF1012CreateSWMCTFEPNS_23CHINodeModuleCreateDataE+0x7ec>
	adrp	x22, 0x3000 <_ZN4CamX8SWMCTF1012CreateSWMCTFEPNS_23CHINodeModuleCreateDataE+0x50c>
	adrp	x1, 0x3000 <_ZN4CamX8SWMCTF1012CreateSWMCTFEPNS_23CHINodeModuleCreateDataE+0x528>
	adrp	x3, 0x3000 <_ZN4CamX8SWMCTF1012CreateSWMCTFEPNS_23CHINodeModuleCreateDataE+0x52c>
	adrp	x4, 0x3000 <_ZN4CamX8SWMCTF1012CreateSWMCTFEPNS_23CHINodeModuleCreateDataE+0x530>
	adrp	x6, 0x2000 <_ZN4CamX8SWMCTF1012CreateSWMCTFEPNS_23CHINodeModuleCreateDataE+0x530>
	bl	0xb2c0 <_ZdaPv+0x228>
	adrp	x24, 0x22000 <_ZN4CamX8SWMCTF1012CreateSWMCTFEPNS_23CHINodeModuleCreateDataE+0x5dc>
	b.ne	0x8260 <_ZN4CamX8SWMCTF1012CreateSWMCTFEPNS_23CHINodeModuleCreateDataE+0x710>
	b.ne	0x815c <_ZN4CamX8SWMCTF1012CreateSWMCTFEPNS_23CHINodeModuleCreateDataE+0x60c>
	adrp	x13, 0x22000 <_ZN4CamX8SWMCTF1012CreateSWMCTFEPNS_23CHINodeModuleCreateDataE+0x608>
	tbnz	w12, #3, 0x810c <_ZN4CamX8SWMCTF1012CreateSWMCTFEPNS_23CHINodeModuleCreateDataE+0x5bc>
	adrp	x14, 0x3e000 <_ZN4CamX8SWMCTF1012CreateSWMCTFEPNS_23CHINodeModuleCreateDataE+0x688>
	cbnz	w13, 0x8158 <_ZN4CamX8SWMCTF1012CreateSWMCTFEPNS_23CHINodeModuleCreateDataE+0x608>
	adrp	x23, 0x3000 <_ZN4CamX8SWMCTF1012CreateSWMCTFEPNS_23CHINodeModuleCreateDataE+0x5a8>
	adrp	x1, 0x3000 <_ZN4CamX8SWMCTF1012CreateSWMCTFEPNS_23CHINodeModuleCreateDataE+0x5c4>
	adrp	x3, 0x3000 <_ZN4CamX8SWMCTF1012CreateSWMCTFEPNS_23CHINodeModuleCreateDataE+0x5c8>
	adrp	x4, 0x3000 <_ZN4CamX8SWMCTF1012CreateSWMCTFEPNS_23CHINodeModuleCreateDataE+0x5cc>
	adrp	x6, 0x2000 <_ZN4CamX8SWMCTF1012CreateSWMCTFEPNS_23CHINodeModuleCreateDataE+0x5cc>
	bl	0xb2c0 <_ZdaPv+0x228>
	b.ne	0x8260 <_ZN4CamX8SWMCTF1012CreateSWMCTFEPNS_23CHINodeModuleCreateDataE+0x710>
	b.ne	0x8240 <_ZN4CamX8SWMCTF1012CreateSWMCTFEPNS_23CHINodeModuleCreateDataE+0x6f0>
	b.hi	0x81cc <_ZN4CamX8SWMCTF1012CreateSWMCTFEPNS_23CHINodeModuleCreateDataE+0x67c>
	adrp	x12, 0x3000 <_ZN4CamX8SWMCTF1012CreateSWMCTFEPNS_23CHINodeModuleCreateDataE+0x624>
	b	0x8200 <_ZN4CamX8SWMCTF1012CreateSWMCTFEPNS_23CHINodeModuleCreateDataE+0x6b0>
	b	0x8208 <_ZN4CamX8SWMCTF1012CreateSWMCTFEPNS_23CHINodeModuleCreateDataE+0x6b8>
	b	0x8200 <_ZN4CamX8SWMCTF1012CreateSWMCTFEPNS_23CHINodeModuleCreateDataE+0x6b0>
	b	0x8200 <_ZN4CamX8SWMCTF1012CreateSWMCTFEPNS_23CHINodeModuleCreateDataE+0x6b0>
	b	0x8204 <_ZN4CamX8SWMCTF1012CreateSWMCTFEPNS_23CHINodeModuleCreateDataE+0x6b4>
	b	0x8200 <_ZN4CamX8SWMCTF1012CreateSWMCTFEPNS_23CHINodeModuleCreateDataE+0x6b0>
	b	0x8200 <_ZN4CamX8SWMCTF1012CreateSWMCTFEPNS_23CHINodeModuleCreateDataE+0x6b0>
	b	0x8200 <_ZN4CamX8SWMCTF1012CreateSWMCTFEPNS_23CHINodeModuleCreateDataE+0x6b0>
	b	0x8200 <_ZN4CamX8SWMCTF1012CreateSWMCTFEPNS_23CHINodeModuleCreateDataE+0x6b0>
	b	0x8200 <_ZN4CamX8SWMCTF1012CreateSWMCTFEPNS_23CHINodeModuleCreateDataE+0x6b0>
	cbz	w8, 0x8228 <_ZN4CamX8SWMCTF1012CreateSWMCTFEPNS_23CHINodeModuleCreateDataE+0x6d8>
	b.gt	0x8234 <_ZN4CamX8SWMCTF1012CreateSWMCTFEPNS_23CHINodeModuleCreateDataE+0x6e4>
	b.hi	0x8250 <_ZN4CamX8SWMCTF1012CreateSWMCTFEPNS_23CHINodeModuleCreateDataE+0x700>
	b	0x8240 <_ZN4CamX8SWMCTF1012CreateSWMCTFEPNS_23CHINodeModuleCreateDataE+0x6f0>
	b.ge	0x8240 <_ZN4CamX8SWMCTF1012CreateSWMCTFEPNS_23CHINodeModuleCreateDataE+0x6f0>
	b.pl	0x8250 <_ZN4CamX8SWMCTF1012CreateSWMCTFEPNS_23CHINodeModuleCreateDataE+0x700>
	b	0x8260 <_ZN4CamX8SWMCTF1012CreateSWMCTFEPNS_23CHINodeModuleCreateDataE+0x710>
	b	0x8264 <_ZN4CamX8SWMCTF1012CreateSWMCTFEPNS_23CHINodeModuleCreateDataE+0x714>
	b.eq	0x8264 <_ZN4CamX8SWMCTF1012CreateSWMCTFEPNS_23CHINodeModuleCreateDataE+0x714>
	cbz	w23, 0x82e4 <_ZN4CamX8SWMCTF1012CreateSWMCTFEPNS_23CHINodeModuleCreateDataE+0x794>
	b.ne	0x82ec <_ZN4CamX8SWMCTF1012CreateSWMCTFEPNS_23CHINodeModuleCreateDataE+0x79c>
	adrp	x15, 0x22000 <_ZN4CamX8SWMCTF1012CreateSWMCTFEPNS_23CHINodeModuleCreateDataE+0x794>
	tbnz	w15, #3, 0x8298 <_ZN4CamX8SWMCTF1012CreateSWMCTFEPNS_23CHINodeModuleCreateDataE+0x748>
	adrp	x16, 0x3e000 <_ZN4CamX8SWMCTF1012CreateSWMCTFEPNS_23CHINodeModuleCreateDataE+0x814>
	cbnz	w16, 0x82e4 <_ZN4CamX8SWMCTF1012CreateSWMCTFEPNS_23CHINodeModuleCreateDataE+0x794>
	adrp	x19, 0x3000 <_ZN4CamX8SWMCTF1012CreateSWMCTFEPNS_23CHINodeModuleCreateDataE+0x734>
	adrp	x1, 0x3000 <_ZN4CamX8SWMCTF1012CreateSWMCTFEPNS_23CHINodeModuleCreateDataE+0x750>
	adrp	x3, 0x2000 <_ZN4CamX8SWMCTF1012CreateSWMCTFEPNS_23CHINodeModuleCreateDataE+0x750>
	adrp	x4, 0x3000 <_ZN4CamX8SWMCTF1012CreateSWMCTFEPNS_23CHINodeModuleCreateDataE+0x758>
	adrp	x6, 0x2000 <_ZN4CamX8SWMCTF1012CreateSWMCTFEPNS_23CHINodeModuleCreateDataE+0x758>
	bl	0xb2c0 <_ZdaPv+0x228>
	b	0x833c <_ZN4CamX8SWMCTF1012CreateSWMCTFEPNS_23CHINodeModuleCreateDataE+0x7ec>
	adrp	x22, 0x3000 <_ZN4CamX8SWMCTF1012CreateSWMCTFEPNS_23CHINodeModuleCreateDataE+0x788>
	adrp	x1, 0x3000 <_ZN4CamX8SWMCTF1012CreateSWMCTFEPNS_23CHINodeModuleCreateDataE+0x7a4>
	adrp	x3, 0x2000 <_ZN4CamX8SWMCTF1012CreateSWMCTFEPNS_23CHINodeModuleCreateDataE+0x7a4>
	adrp	x4, 0x3000 <_ZN4CamX8SWMCTF1012CreateSWMCTFEPNS_23CHINodeModuleCreateDataE+0x7ac>
	adrp	x6, 0x2000 <_ZN4CamX8SWMCTF1012CreateSWMCTFEPNS_23CHINodeModuleCreateDataE+0x7ac>
	bl	0xb2c0 <_ZdaPv+0x228>
	adrp	x8, 0x21000 <_ZN4CamX8SWMCTF1012CreateSWMCTFEPNS_23CHINodeModuleCreateDataE+0x878>
	cbz	x0, 0x8388 <_ZN4CamX8SWMCTF1012CreateSWMCTFEPNS_23CHINodeModuleCreateDataE+0x838>
	adrp	x8, 0x21000 <_ZN4CamX8SWMCTF2012CreateSWMCTFEPNS_23CHINodeModuleCreateDataE+0x30>
	cbz	x0, 0x83c4 <_ZN4CamX8SWMCTF1012CreateSWMCTFEPNS_23CHINodeModuleCreateDataE+0x874>

	cbz	x0, 0x85a4 <_ZN4CamX8SWMCTF2012CreateSWMCTFEPNS_23CHINodeModuleCreateDataE+0x1cc>
	cbnz	w0, 0x8600 <_ZN4CamX8SWMCTF2012CreateSWMCTFEPNS_23CHINodeModuleCreateDataE+0x228>
	cbz	x20, 0x8600 <_ZN4CamX8SWMCTF2012CreateSWMCTFEPNS_23CHINodeModuleCreateDataE+0x228>
	adrp	x27, 0x21000 <_ZN4CamX8SWMCTF2012CreateSWMCTFEPNS_23CHINodeModuleCreateDataE+0xbc>
	adrp	x9, 0x22000 <_ZN4CamX8SWMCTF2012CreateSWMCTFEPNS_23CHINodeModuleCreateDataE+0xc8>
	adrp	x21, 0x3000 <_ZN4CamX8SWMCTF2012CreateSWMCTFEPNS_23CHINodeModuleCreateDataE+0x58>
	tbnz	w9, #3, 0x847c <_ZN4CamX8SWMCTF2012CreateSWMCTFEPNS_23CHINodeModuleCreateDataE+0xa4>
	adrp	x10, 0x3e000 <_ZN4CamX8SWMCTF2012CreateSWMCTFEPNS_23CHINodeModuleCreateDataE+0x170>
	cbnz	w10, 0x84d0 <_ZN4CamX8SWMCTF2012CreateSWMCTFEPNS_23CHINodeModuleCreateDataE+0xf8>
	adrp	x1, 0x3000 <_ZN4CamX8SWMCTF2012CreateSWMCTFEPNS_23CHINodeModuleCreateDataE+0xa4>
	adrp	x3, 0x2000 <_ZN4CamX8SWMCTF2012CreateSWMCTFEPNS_23CHINodeModuleCreateDataE+0xa4>
	adrp	x4, 0x3000 <_ZN4CamX8SWMCTF2012CreateSWMCTFEPNS_23CHINodeModuleCreateDataE+0xac>
	adrp	x6, 0x3000 <_ZN4CamX8SWMCTF2012CreateSWMCTFEPNS_23CHINodeModuleCreateDataE+0xb0>
	bl	0xb2c0 <_ZdaPv+0x228>
	cbz	x9, 0x84d0 <_ZN4CamX8SWMCTF2012CreateSWMCTFEPNS_23CHINodeModuleCreateDataE+0xf8>
	b	0x85cc <_ZN4CamX8SWMCTF2012CreateSWMCTFEPNS_23CHINodeModuleCreateDataE+0x1f4>
	cbz	w0, 0x85ac <_ZN4CamX8SWMCTF2012CreateSWMCTFEPNS_23CHINodeModuleCreateDataE+0x1d4>
	adrp	x24, 0x3000 <_ZN4CamX8SWMCTF2012CreateSWMCTFEPNS_23CHINodeModuleCreateDataE+0x118>
	adrp	x25, 0x3000 <_ZN4CamX8SWMCTF2012CreateSWMCTFEPNS_23CHINodeModuleCreateDataE+0x11c>
	adrp	x3, 0x2000 <_ZN4CamX8SWMCTF2012CreateSWMCTFEPNS_23CHINodeModuleCreateDataE+0x124>
	adrp	x6, 0x2000 <_ZN4CamX8SWMCTF2012CreateSWMCTFEPNS_23CHINodeModuleCreateDataE+0x12c>
	bl	0xb2c0 <_ZdaPv+0x228>
	adrp	x3, 0x2000 <_ZN4CamX8SWMCTF2012CreateSWMCTFEPNS_23CHINodeModuleCreateDataE+0x164>
	adrp	x6, 0x3000 <_ZN4CamX8SWMCTF2012CreateSWMCTFEPNS_23CHINodeModuleCreateDataE+0x16c>
	bl	0xb2c0 <_ZdaPv+0x228>
	cbz	x0, 0x8590 <_ZN4CamX8SWMCTF2012CreateSWMCTFEPNS_23CHINodeModuleCreateDataE+0x1b8>
	b	0x85cc <_ZN4CamX8SWMCTF2012CreateSWMCTFEPNS_23CHINodeModuleCreateDataE+0x1f4>
	b	0x85d0 <_ZN4CamX8SWMCTF2012CreateSWMCTFEPNS_23CHINodeModuleCreateDataE+0x1f8>
	cbz	x22, 0x84e8 <_ZN4CamX8SWMCTF2012CreateSWMCTFEPNS_23CHINodeModuleCreateDataE+0x110>
	b.ne	0x8604 <_ZN4CamX8SWMCTF2012CreateSWMCTFEPNS_23CHINodeModuleCreateDataE+0x22c>
	adrp	x8, 0x22000 <_ZN4CamX8SWMCTF2012CreateSWMCTFEPNS_23CHINodeModuleCreateDataE+0x2bc>
	tbnz	w8, #3, 0x8668 <_ZN4CamX8SWMCTF2012CreateSWMCTFEPNS_23CHINodeModuleCreateDataE+0x290>
	adrp	x9, 0x3e000 <_ZN4CamX8SWMCTF2012CreateSWMCTFEPNS_23CHINodeModuleCreateDataE+0x33c>
	cbz	w9, 0x8668 <_ZN4CamX8SWMCTF2012CreateSWMCTFEPNS_23CHINodeModuleCreateDataE+0x290>
	cbz	x9, 0x86bc <_ZN4CamX8SWMCTF2012CreateSWMCTFEPNS_23CHINodeModuleCreateDataE+0x2e4>
	b.eq	0x8738 <_ZN4CamX8SWMCTF2012CreateSWMCTFEPNS_23CHINodeModuleCreateDataE+0x360>
	b	0x8780 <_ZN4CamX8SWMCTF2012CreateSWMCTFEPNS_23CHINodeModuleCreateDataE+0x3a8>
	adrp	x20, 0x3000 <_ZN4CamX8SWMCTF2012CreateSWMCTFEPNS_23CHINodeModuleCreateDataE+0x27c>
	adrp	x1, 0x3000 <_ZN4CamX8SWMCTF2012CreateSWMCTFEPNS_23CHINodeModuleCreateDataE+0x298>
	adrp	x3, 0x2000 <_ZN4CamX8SWMCTF2012CreateSWMCTFEPNS_23CHINodeModuleCreateDataE+0x298>
	adrp	x4, 0x3000 <_ZN4CamX8SWMCTF2012CreateSWMCTFEPNS_23CHINodeModuleCreateDataE+0x2a0>
	adrp	x6, 0x3000 <_ZN4CamX8SWMCTF2012CreateSWMCTFEPNS_23CHINodeModuleCreateDataE+0x2a4>
	bl	0xb2c0 <_ZdaPv+0x228>
	cbnz	x9, 0x8650 <_ZN4CamX8SWMCTF2012CreateSWMCTFEPNS_23CHINodeModuleCreateDataE+0x278>
	cbz	w0, 0x8750 <_ZN4CamX8SWMCTF2012CreateSWMCTFEPNS_23CHINodeModuleCreateDataE+0x378>
	adrp	x21, 0x3000 <_ZN4CamX8SWMCTF2012CreateSWMCTFEPNS_23CHINodeModuleCreateDataE+0x2e8>
	adrp	x1, 0x3000 <_ZN4CamX8SWMCTF2012CreateSWMCTFEPNS_23CHINodeModuleCreateDataE+0x308>
	adrp	x3, 0x2000 <_ZN4CamX8SWMCTF2012CreateSWMCTFEPNS_23CHINodeModuleCreateDataE+0x308>
	adrp	x4, 0x3000 <_ZN4CamX8SWMCTF2012CreateSWMCTFEPNS_23CHINodeModuleCreateDataE+0x310>
	adrp	x6, 0x2000 <_ZN4CamX8SWMCTF2012CreateSWMCTFEPNS_23CHINodeModuleCreateDataE+0x310>
	bl	0xb2c0 <_ZdaPv+0x228>
	b.ne	0x8780 <_ZN4CamX8SWMCTF2012CreateSWMCTFEPNS_23CHINodeModuleCreateDataE+0x3a8>
	cbz	x20, 0x86d4 <_ZN4CamX8SWMCTF2012CreateSWMCTFEPNS_23CHINodeModuleCreateDataE+0x2fc>
	b.eq	0x8738 <_ZN4CamX8SWMCTF2012CreateSWMCTFEPNS_23CHINodeModuleCreateDataE+0x360>
	cbz	x1, 0x8838 <_ZN4CamX8SWMCTF2012CreateSWMCTFEPNS_23CHINodeModuleCreateDataE+0x460>
	cbz	x2, 0x8838 <_ZN4CamX8SWMCTF2012CreateSWMCTFEPNS_23CHINodeModuleCreateDataE+0x460>
	cbz	x8, 0x8890 <_ZN4CamX8SWMCTF2012CreateSWMCTFEPNS_23CHINodeModuleCreateDataE+0x4b8>
	adrp	x9, 0x22000 <_ZN4CamX8SWMCTF2012CreateSWMCTFEPNS_23CHINodeModuleCreateDataE+0x454>
	tbnz	w10, #3, 0x87e0 <_ZN4CamX8SWMCTF2012CreateSWMCTFEPNS_23CHINodeModuleCreateDataE+0x408>
	adrp	x12, 0x3e000 <_ZN4CamX8SWMCTF2012CreateSWMCTFEPNS_23CHINodeModuleCreateDataE+0x4d4>
	cbnz	w11, 0x8830 <_ZN4CamX8SWMCTF2012CreateSWMCTFEPNS_23CHINodeModuleCreateDataE+0x458>
	adrp	x22, 0x3000 <_ZN4CamX8SWMCTF2012CreateSWMCTFEPNS_23CHINodeModuleCreateDataE+0x3f4>
	adrp	x1, 0x3000 <_ZN4CamX8SWMCTF2012CreateSWMCTFEPNS_23CHINodeModuleCreateDataE+0x414>
	adrp	x3, 0x3000 <_ZN4CamX8SWMCTF2012CreateSWMCTFEPNS_23CHINodeModuleCreateDataE+0x418>
	adrp	x4, 0x3000 <_ZN4CamX8SWMCTF2012CreateSWMCTFEPNS_23CHINodeModuleCreateDataE+0x41c>
	adrp	x6, 0x2000 <_ZN4CamX8SWMCTF2012CreateSWMCTFEPNS_23CHINodeModuleCreateDataE+0x41c>
	bl	0xb2c0 <_ZdaPv+0x228>
	b	0x88e0 <_ZN4CamX8SWMCTF2012CreateSWMCTFEPNS_23CHINodeModuleCreateDataE+0x508>
	adrp	x23, 0x3000 <_ZN4CamX8SWMCTF2012CreateSWMCTFEPNS_23CHINodeModuleCreateDataE+0x44c>
	adrp	x1, 0x3000 <_ZN4CamX8SWMCTF2012CreateSWMCTFEPNS_23CHINodeModuleCreateDataE+0x468>
	adrp	x3, 0x3000 <_ZN4CamX8SWMCTF2012CreateSWMCTFEPNS_23CHINodeModuleCreateDataE+0x46c>
	adrp	x4, 0x3000 <_ZN4CamX8SWMCTF2012CreateSWMCTFEPNS_23CHINodeModuleCreateDataE+0x470>
	adrp	x6, 0x3000 <_ZN4CamX8SWMCTF2012CreateSWMCTFEPNS_23CHINodeModuleCreateDataE+0x474>
	bl	0xb2c0 <_ZdaPv+0x228>
	b	0x8b5c <_ZN4CamX8SWMCTF2012CreateSWMCTFEPNS_23CHINodeModuleCreateDataE+0x784>
	adrp	x22, 0x3000 <_ZN4CamX8SWMCTF2012CreateSWMCTFEPNS_23CHINodeModuleCreateDataE+0x4a4>
	adrp	x1, 0x3000 <_ZN4CamX8SWMCTF2012CreateSWMCTFEPNS_23CHINodeModuleCreateDataE+0x4c0>
	adrp	x3, 0x2000 <_ZN4CamX8SWMCTF2012CreateSWMCTFEPNS_23CHINodeModuleCreateDataE+0x4c0>
	adrp	x4, 0x3000 <_ZN4CamX8SWMCTF2012CreateSWMCTFEPNS_23CHINodeModuleCreateDataE+0x4c8>
	adrp	x6, 0x2000 <_ZN4CamX8SWMCTF2012CreateSWMCTFEPNS_23CHINodeModuleCreateDataE+0x4c8>
	bl	0xb2c0 <_ZdaPv+0x228>
	adrp	x24, 0x22000 <_ZN4CamX8SWMCTF2012CreateSWMCTFEPNS_23CHINodeModuleCreateDataE+0x574>
	b.ne	0x8a80 <_ZN4CamX8SWMCTF2012CreateSWMCTFEPNS_23CHINodeModuleCreateDataE+0x6a8>
	b.ne	0x897c <_ZN4CamX8SWMCTF2012CreateSWMCTFEPNS_23CHINodeModuleCreateDataE+0x5a4>
	adrp	x13, 0x22000 <_ZN4CamX8SWMCTF2012CreateSWMCTFEPNS_23CHINodeModuleCreateDataE+0x5a0>
	tbnz	w12, #3, 0x892c <_ZN4CamX8SWMCTF2012CreateSWMCTFEPNS_23CHINodeModuleCreateDataE+0x554>
	adrp	x14, 0x3e000 <_ZN4CamX8SWMCTF2012CreateSWMCTFEPNS_23CHINodeModuleCreateDataE+0x620>
	cbnz	w13, 0x8978 <_ZN4CamX8SWMCTF2012CreateSWMCTFEPNS_23CHINodeModuleCreateDataE+0x5a0>
	adrp	x23, 0x3000 <_ZN4CamX8SWMCTF2012CreateSWMCTFEPNS_23CHINodeModuleCreateDataE+0x540>
	adrp	x1, 0x3000 <_ZN4CamX8SWMCTF2012CreateSWMCTFEPNS_23CHINodeModuleCreateDataE+0x55c>
	adrp	x3, 0x3000 <_ZN4CamX8SWMCTF2012CreateSWMCTFEPNS_23CHINodeModuleCreateDataE+0x560>
	adrp	x4, 0x3000 <_ZN4CamX8SWMCTF2012CreateSWMCTFEPNS_23CHINodeModuleCreateDataE+0x564>
	adrp	x6, 0x2000 <_ZN4CamX8SWMCTF2012CreateSWMCTFEPNS_23CHINodeModuleCreateDataE+0x564>
	bl	0xb2c0 <_ZdaPv+0x228>
	b.ne	0x8a80 <_ZN4CamX8SWMCTF2012CreateSWMCTFEPNS_23CHINodeModuleCreateDataE+0x6a8>
	b.ne	0x8a60 <_ZN4CamX8SWMCTF2012CreateSWMCTFEPNS_23CHINodeModuleCreateDataE+0x688>
	b.hi	0x89ec <_ZN4CamX8SWMCTF2012CreateSWMCTFEPNS_23CHINodeModuleCreateDataE+0x614>
	adrp	x12, 0x3000 <_ZN4CamX8SWMCTF2012CreateSWMCTFEPNS_23CHINodeModuleCreateDataE+0x5bc>
	b	0x8a20 <_ZN4CamX8SWMCTF2012CreateSWMCTFEPNS_23CHINodeModuleCreateDataE+0x648>
	b	0x8a28 <_ZN4CamX8SWMCTF2012CreateSWMCTFEPNS_23CHINodeModuleCreateDataE+0x650>
	b	0x8a20 <_ZN4CamX8SWMCTF2012CreateSWMCTFEPNS_23CHINodeModuleCreateDataE+0x648>
	b	0x8a20 <_ZN4CamX8SWMCTF2012CreateSWMCTFEPNS_23CHINodeModuleCreateDataE+0x648>
	b	0x8a24 <_ZN4CamX8SWMCTF2012CreateSWMCTFEPNS_23CHINodeModuleCreateDataE+0x64c>
	b	0x8a20 <_ZN4CamX8SWMCTF2012CreateSWMCTFEPNS_23CHINodeModuleCreateDataE+0x648>
	b	0x8a20 <_ZN4CamX8SWMCTF2012CreateSWMCTFEPNS_23CHINodeModuleCreateDataE+0x648>
	b	0x8a20 <_ZN4CamX8SWMCTF2012CreateSWMCTFEPNS_23CHINodeModuleCreateDataE+0x648>
	b	0x8a20 <_ZN4CamX8SWMCTF2012CreateSWMCTFEPNS_23CHINodeModuleCreateDataE+0x648>
	b	0x8a20 <_ZN4CamX8SWMCTF2012CreateSWMCTFEPNS_23CHINodeModuleCreateDataE+0x648>
	cbz	w8, 0x8a48 <_ZN4CamX8SWMCTF2012CreateSWMCTFEPNS_23CHINodeModuleCreateDataE+0x670>
	b.gt	0x8a54 <_ZN4CamX8SWMCTF2012CreateSWMCTFEPNS_23CHINodeModuleCreateDataE+0x67c>
	b.hi	0x8a70 <_ZN4CamX8SWMCTF2012CreateSWMCTFEPNS_23CHINodeModuleCreateDataE+0x698>
	b	0x8a60 <_ZN4CamX8SWMCTF2012CreateSWMCTFEPNS_23CHINodeModuleCreateDataE+0x688>
	b.ge	0x8a60 <_ZN4CamX8SWMCTF2012CreateSWMCTFEPNS_23CHINodeModuleCreateDataE+0x688>
	b.pl	0x8a70 <_ZN4CamX8SWMCTF2012CreateSWMCTFEPNS_23CHINodeModuleCreateDataE+0x698>
	b	0x8a80 <_ZN4CamX8SWMCTF2012CreateSWMCTFEPNS_23CHINodeModuleCreateDataE+0x6a8>
	b	0x8a84 <_ZN4CamX8SWMCTF2012CreateSWMCTFEPNS_23CHINodeModuleCreateDataE+0x6ac>
	b.eq	0x8a84 <_ZN4CamX8SWMCTF2012CreateSWMCTFEPNS_23CHINodeModuleCreateDataE+0x6ac>
	cbz	w23, 0x8b04 <_ZN4CamX8SWMCTF2012CreateSWMCTFEPNS_23CHINodeModuleCreateDataE+0x72c>
	b.ne	0x8b0c <_ZN4CamX8SWMCTF2012CreateSWMCTFEPNS_23CHINodeModuleCreateDataE+0x734>
	adrp	x15, 0x22000 <_ZN4CamX8SWMCTF2012CreateSWMCTFEPNS_23CHINodeModuleCreateDataE+0x72c>
	tbnz	w15, #3, 0x8ab8 <_ZN4CamX8SWMCTF2012CreateSWMCTFEPNS_23CHINodeModuleCreateDataE+0x6e0>
	adrp	x16, 0x3e000 <_ZN4CamX8SWMCTF2012CreateSWMCTFEPNS_23CHINodeModuleCreateDataE+0x7ac>
	cbnz	w16, 0x8b04 <_ZN4CamX8SWMCTF2012CreateSWMCTFEPNS_23CHINodeModuleCreateDataE+0x72c>
	adrp	x19, 0x3000 <_ZN4CamX8SWMCTF2012CreateSWMCTFEPNS_23CHINodeModuleCreateDataE+0x6cc>
	adrp	x1, 0x3000 <_ZN4CamX8SWMCTF2012CreateSWMCTFEPNS_23CHINodeModuleCreateDataE+0x6e8>
	adrp	x3, 0x2000 <_ZN4CamX8SWMCTF2012CreateSWMCTFEPNS_23CHINodeModuleCreateDataE+0x6e8>
	adrp	x4, 0x3000 <_ZN4CamX8SWMCTF2012CreateSWMCTFEPNS_23CHINodeModuleCreateDataE+0x6f0>
	adrp	x6, 0x2000 <_ZN4CamX8SWMCTF2012CreateSWMCTFEPNS_23CHINodeModuleCreateDataE+0x6f0>
	bl	0xb2c0 <_ZdaPv+0x228>
	b	0x8b5c <_ZN4CamX8SWMCTF2012CreateSWMCTFEPNS_23CHINodeModuleCreateDataE+0x784>
	adrp	x22, 0x3000 <_ZN4CamX8SWMCTF2012CreateSWMCTFEPNS_23CHINodeModuleCreateDataE+0x720>
	adrp	x1, 0x3000 <_ZN4CamX8SWMCTF2012CreateSWMCTFEPNS_23CHINodeModuleCreateDataE+0x73c>
	adrp	x3, 0x3000 <_ZN4CamX8SWMCTF2012CreateSWMCTFEPNS_23CHINodeModuleCreateDataE+0x740>
	adrp	x4, 0x3000 <_ZN4CamX8SWMCTF2012CreateSWMCTFEPNS_23CHINodeModuleCreateDataE+0x744>
	adrp	x6, 0x2000 <_ZN4CamX8SWMCTF2012CreateSWMCTFEPNS_23CHINodeModuleCreateDataE+0x744>
	bl	0xb2c0 <_ZdaPv+0x228>
	adrp	x8, 0x21000 <_ZN4CamX8SWMCTF2012CreateSWMCTFEPNS_23CHINodeModuleCreateDataE+0x810>
	cbz	x0, 0x8ba8 <_ZN4CamX8SWMCTF2012CreateSWMCTFEPNS_23CHINodeModuleCreateDataE+0x7d0>
	adrp	x8, 0x21000 <_ZN4CamX8SWMFNR2012CreateSWMFNREPNS_23CHINodeModuleCreateDataE+0x30>
	cbz	x0, 0x8be4 <_ZN4CamX8SWMCTF2012CreateSWMCTFEPNS_23CHINodeModuleCreateDataE+0x80c>

	cbz	x0, 0x8dcc <_ZN4CamX8SWMFNR2012CreateSWMFNREPNS_23CHINodeModuleCreateDataE+0x1d4>
	cbnz	w0, 0x8e5c <_ZN4CamX8SWMFNR2012CreateSWMFNREPNS_23CHINodeModuleCreateDataE+0x264>
	cbz	x20, 0x8e5c <_ZN4CamX8SWMFNR2012CreateSWMFNREPNS_23CHINodeModuleCreateDataE+0x264>
	adrp	x27, 0x21000 <_ZN4CamX8SWMFNR2012CreateSWMFNREPNS_23CHINodeModuleCreateDataE+0xbc>
	adrp	x10, 0x22000 <_ZN4CamX8SWMFNR2012CreateSWMFNREPNS_23CHINodeModuleCreateDataE+0xd0>
	adrp	x21, 0x3000 <_ZN4CamX8SWMFNR2012CreateSWMFNREPNS_23CHINodeModuleCreateDataE+0x60>
	tbnz	w9, #3, 0x8ca4 <_ZN4CamX8SWMFNR2012CreateSWMFNREPNS_23CHINodeModuleCreateDataE+0xac>
	adrp	x11, 0x3e000 <_ZN4CamX8SWMFNR2012CreateSWMFNREPNS_23CHINodeModuleCreateDataE+0x178>
	cbnz	w10, 0x8cf8 <_ZN4CamX8SWMFNR2012CreateSWMFNREPNS_23CHINodeModuleCreateDataE+0x100>
	adrp	x1, 0x3000 <_ZN4CamX8SWMFNR2012CreateSWMFNREPNS_23CHINodeModuleCreateDataE+0xac>
	adrp	x3, 0x3000 <_ZN4CamX8SWMFNR2012CreateSWMFNREPNS_23CHINodeModuleCreateDataE+0xb0>
	adrp	x4, 0x3000 <_ZN4CamX8SWMFNR2012CreateSWMFNREPNS_23CHINodeModuleCreateDataE+0xb4>
	adrp	x6, 0x3000 <_ZN4CamX8SWMFNR2012CreateSWMFNREPNS_23CHINodeModuleCreateDataE+0xb8>
	bl	0xb2c0 <_ZdaPv+0x228>
	cbz	x9, 0x8cf8 <_ZN4CamX8SWMFNR2012CreateSWMFNREPNS_23CHINodeModuleCreateDataE+0x100>
	b	0x8e28 <_ZN4CamX8SWMFNR2012CreateSWMFNREPNS_23CHINodeModuleCreateDataE+0x230>
	cbz	w0, 0x8dd4 <_ZN4CamX8SWMFNR2012CreateSWMFNREPNS_23CHINodeModuleCreateDataE+0x1dc>
	adrp	x24, 0x3000 <_ZN4CamX8SWMFNR2012CreateSWMFNREPNS_23CHINodeModuleCreateDataE+0x120>
	adrp	x25, 0x3000 <_ZN4CamX8SWMFNR2012CreateSWMFNREPNS_23CHINodeModuleCreateDataE+0x124>
	adrp	x3, 0x2000 <_ZN4CamX8SWMFNR2012CreateSWMFNREPNS_23CHINodeModuleCreateDataE+0x12c>
	adrp	x6, 0x3000 <_ZN4CamX8SWMFNR2012CreateSWMFNREPNS_23CHINodeModuleCreateDataE+0x138>
	bl	0xb2c0 <_ZdaPv+0x228>
	adrp	x3, 0x2000 <_ZN4CamX8SWMFNR2012CreateSWMFNREPNS_23CHINodeModuleCreateDataE+0x16c>
	adrp	x6, 0x3000 <_ZN4CamX8SWMFNR2012CreateSWMFNREPNS_23CHINodeModuleCreateDataE+0x174>
	bl	0xb2c0 <_ZdaPv+0x228>
	cbz	x0, 0x8db8 <_ZN4CamX8SWMFNR2012CreateSWMFNREPNS_23CHINodeModuleCreateDataE+0x1c0>
	b	0x8e28 <_ZN4CamX8SWMFNR2012CreateSWMFNREPNS_23CHINodeModuleCreateDataE+0x230>
	b	0x8e2c <_ZN4CamX8SWMFNR2012CreateSWMFNREPNS_23CHINodeModuleCreateDataE+0x234>
	cbz	x8, 0x8d10 <_ZN4CamX8SWMFNR2012CreateSWMFNREPNS_23CHINodeModuleCreateDataE+0x118>
	b.ne	0x8e60 <_ZN4CamX8SWMFNR2012CreateSWMFNREPNS_23CHINodeModuleCreateDataE+0x268>
	adrp	x9, 0x22000 <_ZN4CamX8SWMFNR2012CreateSWMFNREPNS_23CHINodeModuleCreateDataE+0x2f0>
	tbnz	w8, #3, 0x8ec8 <_ZN4CamX8SWMFNR2012CreateSWMFNREPNS_23CHINodeModuleCreateDataE+0x2d0>
	adrp	x10, 0x3e000 <_ZN4CamX8SWMFNR2012CreateSWMFNREPNS_23CHINodeModuleCreateDataE+0x37c>
	cbz	w9, 0x8ec8 <_ZN4CamX8SWMFNR2012CreateSWMFNREPNS_23CHINodeModuleCreateDataE+0x2d0>
	cbz	x9, 0x8f1c <_ZN4CamX8SWMFNR2012CreateSWMFNREPNS_23CHINodeModuleCreateDataE+0x324>
	b.eq	0x8f98 <_ZN4CamX8SWMFNR2012CreateSWMFNREPNS_23CHINodeModuleCreateDataE+0x3a0>
	b	0x9014 <_ZN4CamX8SWMFNR2012CreateSWMFNREPNS_23CHINodeModuleCreateDataE+0x41c>
	adrp	x20, 0x3000 <_ZN4CamX8SWMFNR2012CreateSWMFNREPNS_23CHINodeModuleCreateDataE+0x2bc>
	adrp	x1, 0x3000 <_ZN4CamX8SWMFNR2012CreateSWMFNREPNS_23CHINodeModuleCreateDataE+0x2d8>
	adrp	x3, 0x3000 <_ZN4CamX8SWMFNR2012CreateSWMFNREPNS_23CHINodeModuleCreateDataE+0x2dc>
	adrp	x4, 0x3000 <_ZN4CamX8SWMFNR2012CreateSWMFNREPNS_23CHINodeModuleCreateDataE+0x2e0>
	adrp	x6, 0x3000 <_ZN4CamX8SWMFNR2012CreateSWMFNREPNS_23CHINodeModuleCreateDataE+0x2e4>
	bl	0xb2c0 <_ZdaPv+0x228>
	cbnz	x9, 0x8eb0 <_ZN4CamX8SWMFNR2012CreateSWMFNREPNS_23CHINodeModuleCreateDataE+0x2b8>
	cbz	w0, 0x8fb0 <_ZN4CamX8SWMFNR2012CreateSWMFNREPNS_23CHINodeModuleCreateDataE+0x3b8>
	adrp	x20, 0x3000 <_ZN4CamX8SWMFNR2012CreateSWMFNREPNS_23CHINodeModuleCreateDataE+0x328>
	adrp	x1, 0x3000 <_ZN4CamX8SWMFNR2012CreateSWMFNREPNS_23CHINodeModuleCreateDataE+0x348>
	adrp	x3, 0x2000 <_ZN4CamX8SWMFNR2012CreateSWMFNREPNS_23CHINodeModuleCreateDataE+0x348>
	adrp	x4, 0x3000 <_ZN4CamX8SWMFNR2012CreateSWMFNREPNS_23CHINodeModuleCreateDataE+0x350>
	adrp	x6, 0x3000 <_ZN4CamX8SWMFNR2012CreateSWMFNREPNS_23CHINodeModuleCreateDataE+0x354>
	bl	0xb2c0 <_ZdaPv+0x228>
	b.ne	0x9014 <_ZN4CamX8SWMFNR2012CreateSWMFNREPNS_23CHINodeModuleCreateDataE+0x41c>
	cbz	x8, 0x8f34 <_ZN4CamX8SWMFNR2012CreateSWMFNREPNS_23CHINodeModuleCreateDataE+0x33c>
	b.eq	0x8f98 <_ZN4CamX8SWMFNR2012CreateSWMFNREPNS_23CHINodeModuleCreateDataE+0x3a0>
	cbz	x1, 0x90c8 <_ZN4CamX8SWMFNR2012CreateSWMFNREPNS_23CHINodeModuleCreateDataE+0x4d0>
	cbz	x2, 0x90c8 <_ZN4CamX8SWMFNR2012CreateSWMFNREPNS_23CHINodeModuleCreateDataE+0x4d0>
	cbz	x8, 0x9120 <_ZN4CamX8SWMFNR2012CreateSWMFNREPNS_23CHINodeModuleCreateDataE+0x528>
	adrp	x9, 0x22000 <_ZN4CamX8SWMFNR2012CreateSWMFNREPNS_23CHINodeModuleCreateDataE+0x4c0>
	tbnz	w10, #3, 0x9070 <_ZN4CamX8SWMFNR2012CreateSWMFNREPNS_23CHINodeModuleCreateDataE+0x478>
	adrp	x12, 0x3e000 <_ZN4CamX8SWMFNR2012CreateSWMFNREPNS_23CHINodeModuleCreateDataE+0x540>
	cbnz	w11, 0x90c0 <_ZN4CamX8SWMFNR2012CreateSWMFNREPNS_23CHINodeModuleCreateDataE+0x4c8>
	adrp	x22, 0x3000 <_ZN4CamX8SWMFNR2012CreateSWMFNREPNS_23CHINodeModuleCreateDataE+0x460>
	adrp	x1, 0x3000 <_ZN4CamX8SWMFNR2012CreateSWMFNREPNS_23CHINodeModuleCreateDataE+0x480>
	adrp	x3, 0x2000 <_ZN4CamX8SWMFNR2012CreateSWMFNREPNS_23CHINodeModuleCreateDataE+0x480>
	adrp	x4, 0x3000 <_ZN4CamX8SWMFNR2012CreateSWMFNREPNS_23CHINodeModuleCreateDataE+0x488>
	adrp	x6, 0x2000 <_ZN4CamX8SWMFNR2012CreateSWMFNREPNS_23CHINodeModuleCreateDataE+0x488>
	bl	0xb2c0 <_ZdaPv+0x228>
	b	0x9170 <_ZN4CamX8SWMFNR2012CreateSWMFNREPNS_23CHINodeModuleCreateDataE+0x578>
	adrp	x23, 0x3000 <_ZN4CamX8SWMFNR2012CreateSWMFNREPNS_23CHINodeModuleCreateDataE+0x4b8>
	adrp	x1, 0x3000 <_ZN4CamX8SWMFNR2012CreateSWMFNREPNS_23CHINodeModuleCreateDataE+0x4d4>
	adrp	x3, 0x3000 <_ZN4CamX8SWMFNR2012CreateSWMFNREPNS_23CHINodeModuleCreateDataE+0x4d8>
	adrp	x4, 0x3000 <_ZN4CamX8SWMFNR2012CreateSWMFNREPNS_23CHINodeModuleCreateDataE+0x4dc>
	adrp	x6, 0x3000 <_ZN4CamX8SWMFNR2012CreateSWMFNREPNS_23CHINodeModuleCreateDataE+0x4e0>
	bl	0xb2c0 <_ZdaPv+0x228>
	b	0x93ec <_ZN4CamX8SWMFNR2012CreateSWMFNREPNS_23CHINodeModuleCreateDataE+0x7f4>
	adrp	x22, 0x3000 <_ZN4CamX8SWMFNR2012CreateSWMFNREPNS_23CHINodeModuleCreateDataE+0x510>
	adrp	x1, 0x3000 <_ZN4CamX8SWMFNR2012CreateSWMFNREPNS_23CHINodeModuleCreateDataE+0x52c>
	adrp	x3, 0x3000 <_ZN4CamX8SWMFNR2012CreateSWMFNREPNS_23CHINodeModuleCreateDataE+0x530>
	adrp	x4, 0x3000 <_ZN4CamX8SWMFNR2012CreateSWMFNREPNS_23CHINodeModuleCreateDataE+0x534>
	adrp	x6, 0x2000 <_ZN4CamX8SWMFNR2012CreateSWMFNREPNS_23CHINodeModuleCreateDataE+0x534>
	bl	0xb2c0 <_ZdaPv+0x228>
	adrp	x24, 0x22000 <_ZN4CamX8SWMFNR2012CreateSWMFNREPNS_23CHINodeModuleCreateDataE+0x5e0>
	b.ne	0x9310 <_ZN4CamX8SWMFNR2012CreateSWMFNREPNS_23CHINodeModuleCreateDataE+0x718>
	b.ne	0x920c <_ZN4CamX8SWMFNR2012CreateSWMFNREPNS_23CHINodeModuleCreateDataE+0x614>
	adrp	x13, 0x22000 <_ZN4CamX8SWMFNR2012CreateSWMFNREPNS_23CHINodeModuleCreateDataE+0x60c>
	tbnz	w12, #3, 0x91bc <_ZN4CamX8SWMFNR2012CreateSWMFNREPNS_23CHINodeModuleCreateDataE+0x5c4>
	adrp	x14, 0x3e000 <_ZN4CamX8SWMFNR2012CreateSWMFNREPNS_23CHINodeModuleCreateDataE+0x68c>
	cbnz	w13, 0x9208 <_ZN4CamX8SWMFNR2012CreateSWMFNREPNS_23CHINodeModuleCreateDataE+0x610>
	adrp	x23, 0x3000 <_ZN4CamX8SWMFNR2012CreateSWMFNREPNS_23CHINodeModuleCreateDataE+0x5ac>
	adrp	x1, 0x3000 <_ZN4CamX8SWMFNR2012CreateSWMFNREPNS_23CHINodeModuleCreateDataE+0x5c8>
	adrp	x3, 0x2000 <_ZN4CamX8SWMFNR2012CreateSWMFNREPNS_23CHINodeModuleCreateDataE+0x5c8>
	adrp	x4, 0x3000 <_ZN4CamX8SWMFNR2012CreateSWMFNREPNS_23CHINodeModuleCreateDataE+0x5d0>
	adrp	x6, 0x2000 <_ZN4CamX8SWMFNR2012CreateSWMFNREPNS_23CHINodeModuleCreateDataE+0x5d0>
	bl	0xb2c0 <_ZdaPv+0x228>
	b.ne	0x9310 <_ZN4CamX8SWMFNR2012CreateSWMFNREPNS_23CHINodeModuleCreateDataE+0x718>
	b.ne	0x92f0 <_ZN4CamX8SWMFNR2012CreateSWMFNREPNS_23CHINodeModuleCreateDataE+0x6f8>
	b.hi	0x927c <_ZN4CamX8SWMFNR2012CreateSWMFNREPNS_23CHINodeModuleCreateDataE+0x684>
	adrp	x12, 0x3000 <_ZN4CamX8SWMFNR2012CreateSWMFNREPNS_23CHINodeModuleCreateDataE+0x628>
	b	0x92b0 <_ZN4CamX8SWMFNR2012CreateSWMFNREPNS_23CHINodeModuleCreateDataE+0x6b8>
	b	0x92b8 <_ZN4CamX8SWMFNR2012CreateSWMFNREPNS_23CHINodeModuleCreateDataE+0x6c0>
	b	0x92b0 <_ZN4CamX8SWMFNR2012CreateSWMFNREPNS_23CHINodeModuleCreateDataE+0x6b8>
	b	0x92b0 <_ZN4CamX8SWMFNR2012CreateSWMFNREPNS_23CHINodeModuleCreateDataE+0x6b8>
	b	0x92b4 <_ZN4CamX8SWMFNR2012CreateSWMFNREPNS_23CHINodeModuleCreateDataE+0x6bc>
	b	0x92b0 <_ZN4CamX8SWMFNR2012CreateSWMFNREPNS_23CHINodeModuleCreateDataE+0x6b8>
	b	0x92b0 <_ZN4CamX8SWMFNR2012CreateSWMFNREPNS_23CHINodeModuleCreateDataE+0x6b8>
	b	0x92b0 <_ZN4CamX8SWMFNR2012CreateSWMFNREPNS_23CHINodeModuleCreateDataE+0x6b8>
	b	0x92b0 <_ZN4CamX8SWMFNR2012CreateSWMFNREPNS_23CHINodeModuleCreateDataE+0x6b8>
	b	0x92b0 <_ZN4CamX8SWMFNR2012CreateSWMFNREPNS_23CHINodeModuleCreateDataE+0x6b8>
	cbz	w8, 0x92d8 <_ZN4CamX8SWMFNR2012CreateSWMFNREPNS_23CHINodeModuleCreateDataE+0x6e0>
	b.gt	0x92e4 <_ZN4CamX8SWMFNR2012CreateSWMFNREPNS_23CHINodeModuleCreateDataE+0x6ec>
	b.hi	0x9300 <_ZN4CamX8SWMFNR2012CreateSWMFNREPNS_23CHINodeModuleCreateDataE+0x708>
	b	0x92f0 <_ZN4CamX8SWMFNR2012CreateSWMFNREPNS_23CHINodeModuleCreateDataE+0x6f8>
	b.ge	0x92f0 <_ZN4CamX8SWMFNR2012CreateSWMFNREPNS_23CHINodeModuleCreateDataE+0x6f8>
	b.pl	0x9300 <_ZN4CamX8SWMFNR2012CreateSWMFNREPNS_23CHINodeModuleCreateDataE+0x708>
	b	0x9310 <_ZN4CamX8SWMFNR2012CreateSWMFNREPNS_23CHINodeModuleCreateDataE+0x718>
	b	0x9314 <_ZN4CamX8SWMFNR2012CreateSWMFNREPNS_23CHINodeModuleCreateDataE+0x71c>
	b.eq	0x9314 <_ZN4CamX8SWMFNR2012CreateSWMFNREPNS_23CHINodeModuleCreateDataE+0x71c>
	cbz	w23, 0x9394 <_ZN4CamX8SWMFNR2012CreateSWMFNREPNS_23CHINodeModuleCreateDataE+0x79c>
	b.ne	0x939c <_ZN4CamX8SWMFNR2012CreateSWMFNREPNS_23CHINodeModuleCreateDataE+0x7a4>
	adrp	x15, 0x22000 <_ZN4CamX8SWMFNR2012CreateSWMFNREPNS_23CHINodeModuleCreateDataE+0x798>
	tbnz	w15, #3, 0x9348 <_ZN4CamX8SWMFNR2012CreateSWMFNREPNS_23CHINodeModuleCreateDataE+0x750>
	adrp	x16, 0x3e000 <_ZN4CamX8SWMFNR2012CreateSWMFNREPNS_23CHINodeModuleCreateDataE+0x818>
	cbnz	w16, 0x9394 <_ZN4CamX8SWMFNR2012CreateSWMFNREPNS_23CHINodeModuleCreateDataE+0x79c>
	adrp	x19, 0x3000 <_ZN4CamX8SWMFNR2012CreateSWMFNREPNS_23CHINodeModuleCreateDataE+0x738>
	adrp	x1, 0x3000 <_ZN4CamX8SWMFNR2012CreateSWMFNREPNS_23CHINodeModuleCreateDataE+0x754>
	adrp	x3, 0x3000 <_ZN4CamX8SWMFNR2012CreateSWMFNREPNS_23CHINodeModuleCreateDataE+0x758>
	adrp	x4, 0x3000 <_ZN4CamX8SWMFNR2012CreateSWMFNREPNS_23CHINodeModuleCreateDataE+0x75c>
	adrp	x6, 0x2000 <_ZN4CamX8SWMFNR2012CreateSWMFNREPNS_23CHINodeModuleCreateDataE+0x75c>
	bl	0xb2c0 <_ZdaPv+0x228>
	b	0x93ec <_ZN4CamX8SWMFNR2012CreateSWMFNREPNS_23CHINodeModuleCreateDataE+0x7f4>
	adrp	x22, 0x3000 <_ZN4CamX8SWMFNR2012CreateSWMFNREPNS_23CHINodeModuleCreateDataE+0x78c>
	adrp	x1, 0x3000 <_ZN4CamX8SWMFNR2012CreateSWMFNREPNS_23CHINodeModuleCreateDataE+0x7a8>
	adrp	x3, 0x2000 <_ZN4CamX8SWMFNR2012CreateSWMFNREPNS_23CHINodeModuleCreateDataE+0x7a8>
	adrp	x4, 0x3000 <_ZN4CamX8SWMFNR2012CreateSWMFNREPNS_23CHINodeModuleCreateDataE+0x7b0>
	adrp	x6, 0x2000 <_ZN4CamX8SWMFNR2012CreateSWMFNREPNS_23CHINodeModuleCreateDataE+0x7b0>
	bl	0xb2c0 <_ZdaPv+0x228>
	adrp	x8, 0x21000 <_ZN4CamX8SWMFNR2012CreateSWMFNREPNS_23CHINodeModuleCreateDataE+0x87c>
	cbz	x0, 0x9438 <_ZN4CamX8SWMFNR2012CreateSWMFNREPNS_23CHINodeModuleCreateDataE+0x840>
	adrp	x8, 0x21000 <_ZN4CamX8SWMFNR3012CreateSWMFNREPNS_23CHINodeModuleCreateDataE+0x2c>
	cbz	x0, 0x9474 <_ZN4CamX8SWMFNR2012CreateSWMFNREPNS_23CHINodeModuleCreateDataE+0x87c>

	cbz	x0, 0x9658 <_ZN4CamX8SWMFNR3012CreateSWMFNREPNS_23CHINodeModuleCreateDataE+0x1d0>
	cbnz	w0, 0x96b4 <_ZN4CamX8SWMFNR3012CreateSWMFNREPNS_23CHINodeModuleCreateDataE+0x22c>
	cbz	x20, 0x96b4 <_ZN4CamX8SWMFNR3012CreateSWMFNREPNS_23CHINodeModuleCreateDataE+0x22c>
	adrp	x27, 0x21000 <_ZN4CamX8SWMFNR3012CreateSWMFNREPNS_23CHINodeModuleCreateDataE+0xb8>
	adrp	x10, 0x22000 <_ZN4CamX8SWMFNR3012CreateSWMFNREPNS_23CHINodeModuleCreateDataE+0xcc>
	adrp	x21, 0x2000 <_ZN4CamX8SWMFNR3012CreateSWMFNREPNS_23CHINodeModuleCreateDataE+0x58>
	tbnz	w8, #3, 0x9530 <_ZN4CamX8SWMFNR3012CreateSWMFNREPNS_23CHINodeModuleCreateDataE+0xa8>
	adrp	x9, 0x3e000 <_ZN4CamX8SWMFNR3012CreateSWMFNREPNS_23CHINodeModuleCreateDataE+0x170>
	cbnz	w10, 0x9584 <_ZN4CamX8SWMFNR3012CreateSWMFNREPNS_23CHINodeModuleCreateDataE+0xfc>
	adrp	x1, 0x3000 <_ZN4CamX8SWMFNR3012CreateSWMFNREPNS_23CHINodeModuleCreateDataE+0xa4>
	adrp	x3, 0x3000 <_ZN4CamX8SWMFNR3012CreateSWMFNREPNS_23CHINodeModuleCreateDataE+0xa8>
	adrp	x4, 0x3000 <_ZN4CamX8SWMFNR3012CreateSWMFNREPNS_23CHINodeModuleCreateDataE+0xac>
	adrp	x6, 0x3000 <_ZN4CamX8SWMFNR3012CreateSWMFNREPNS_23CHINodeModuleCreateDataE+0xb0>
	bl	0xb2c0 <_ZdaPv+0x228>
	cbz	x9, 0x9584 <_ZN4CamX8SWMFNR3012CreateSWMFNREPNS_23CHINodeModuleCreateDataE+0xfc>
	b	0x9680 <_ZN4CamX8SWMFNR3012CreateSWMFNREPNS_23CHINodeModuleCreateDataE+0x1f8>
	cbz	w0, 0x9660 <_ZN4CamX8SWMFNR3012CreateSWMFNREPNS_23CHINodeModuleCreateDataE+0x1d8>
	adrp	x24, 0x3000 <_ZN4CamX8SWMFNR3012CreateSWMFNREPNS_23CHINodeModuleCreateDataE+0x118>
	adrp	x25, 0x3000 <_ZN4CamX8SWMFNR3012CreateSWMFNREPNS_23CHINodeModuleCreateDataE+0x11c>
	adrp	x3, 0x2000 <_ZN4CamX8SWMFNR3012CreateSWMFNREPNS_23CHINodeModuleCreateDataE+0x124>
	adrp	x6, 0x2000 <_ZN4CamX8SWMFNR3012CreateSWMFNREPNS_23CHINodeModuleCreateDataE+0x12c>
	bl	0xb2c0 <_ZdaPv+0x228>
	adrp	x3, 0x2000 <_ZN4CamX8SWMFNR3012CreateSWMFNREPNS_23CHINodeModuleCreateDataE+0x164>
	adrp	x6, 0x3000 <_ZN4CamX8SWMFNR3012CreateSWMFNREPNS_23CHINodeModuleCreateDataE+0x16c>
	bl	0xb2c0 <_ZdaPv+0x228>
	cbz	x0, 0x9644 <_ZN4CamX8SWMFNR3012CreateSWMFNREPNS_23CHINodeModuleCreateDataE+0x1bc>
	b	0x9680 <_ZN4CamX8SWMFNR3012CreateSWMFNREPNS_23CHINodeModuleCreateDataE+0x1f8>
	b	0x9684 <_ZN4CamX8SWMFNR3012CreateSWMFNREPNS_23CHINodeModuleCreateDataE+0x1fc>
	cbz	x22, 0x959c <_ZN4CamX8SWMFNR3012CreateSWMFNREPNS_23CHINodeModuleCreateDataE+0x114>
	b.ne	0x96b8 <_ZN4CamX8SWMFNR3012CreateSWMFNREPNS_23CHINodeModuleCreateDataE+0x230>
	adrp	x8, 0x22000 <_ZN4CamX8SWMFNR3012CreateSWMFNREPNS_23CHINodeModuleCreateDataE+0x2c0>
	tbnz	w8, #3, 0x9720 <_ZN4CamX8SWMFNR3012CreateSWMFNREPNS_23CHINodeModuleCreateDataE+0x298>
	adrp	x9, 0x3e000 <_ZN4CamX8SWMFNR3012CreateSWMFNREPNS_23CHINodeModuleCreateDataE+0x340>
	cbz	w9, 0x9720 <_ZN4CamX8SWMFNR3012CreateSWMFNREPNS_23CHINodeModuleCreateDataE+0x298>
	cbz	x9, 0x9774 <_ZN4CamX8SWMFNR3012CreateSWMFNREPNS_23CHINodeModuleCreateDataE+0x2ec>
	b.eq	0x97f0 <_ZN4CamX8SWMFNR3012CreateSWMFNREPNS_23CHINodeModuleCreateDataE+0x368>
	b	0x9838 <_ZN4CamX8SWMFNR3012CreateSWMFNREPNS_23CHINodeModuleCreateDataE+0x3b0>
	adrp	x20, 0x2000 <_ZN4CamX8SWMFNR3012CreateSWMFNREPNS_23CHINodeModuleCreateDataE+0x27c>
	adrp	x1, 0x3000 <_ZN4CamX8SWMFNR3012CreateSWMFNREPNS_23CHINodeModuleCreateDataE+0x29c>
	adrp	x3, 0x3000 <_ZN4CamX8SWMFNR3012CreateSWMFNREPNS_23CHINodeModuleCreateDataE+0x2a0>
	adrp	x4, 0x3000 <_ZN4CamX8SWMFNR3012CreateSWMFNREPNS_23CHINodeModuleCreateDataE+0x2a4>
	adrp	x6, 0x3000 <_ZN4CamX8SWMFNR3012CreateSWMFNREPNS_23CHINodeModuleCreateDataE+0x2a8>
	bl	0xb2c0 <_ZdaPv+0x228>
	cbnz	x9, 0x9708 <_ZN4CamX8SWMFNR3012CreateSWMFNREPNS_23CHINodeModuleCreateDataE+0x280>
	cbz	w0, 0x9808 <_ZN4CamX8SWMFNR3012CreateSWMFNREPNS_23CHINodeModuleCreateDataE+0x380>
	adrp	x21, 0x2000 <_ZN4CamX8SWMFNR3012CreateSWMFNREPNS_23CHINodeModuleCreateDataE+0x2e8>
	adrp	x1, 0x3000 <_ZN4CamX8SWMFNR3012CreateSWMFNREPNS_23CHINodeModuleCreateDataE+0x30c>
	adrp	x3, 0x2000 <_ZN4CamX8SWMFNR3012CreateSWMFNREPNS_23CHINodeModuleCreateDataE+0x30c>
	adrp	x4, 0x3000 <_ZN4CamX8SWMFNR3012CreateSWMFNREPNS_23CHINodeModuleCreateDataE+0x314>
	adrp	x6, 0x2000 <_ZN4CamX8SWMFNR3012CreateSWMFNREPNS_23CHINodeModuleCreateDataE+0x314>
	bl	0xb2c0 <_ZdaPv+0x228>
	b.ne	0x9838 <_ZN4CamX8SWMFNR3012CreateSWMFNREPNS_23CHINodeModuleCreateDataE+0x3b0>
	cbz	x20, 0x978c <_ZN4CamX8SWMFNR3012CreateSWMFNREPNS_23CHINodeModuleCreateDataE+0x304>
	b.eq	0x97f0 <_ZN4CamX8SWMFNR3012CreateSWMFNREPNS_23CHINodeModuleCreateDataE+0x368>
	cbz	x1, 0x98f0 <_ZN4CamX8SWMFNR3012CreateSWMFNREPNS_23CHINodeModuleCreateDataE+0x468>
	cbz	x2, 0x98f0 <_ZN4CamX8SWMFNR3012CreateSWMFNREPNS_23CHINodeModuleCreateDataE+0x468>
	cbz	x8, 0x9948 <_ZN4CamX8SWMFNR3012CreateSWMFNREPNS_23CHINodeModuleCreateDataE+0x4c0>
	adrp	x9, 0x22000 <_ZN4CamX8SWMFNR3012CreateSWMFNREPNS_23CHINodeModuleCreateDataE+0x458>
	tbnz	w10, #3, 0x9898 <_ZN4CamX8SWMFNR3012CreateSWMFNREPNS_23CHINodeModuleCreateDataE+0x410>
	adrp	x12, 0x3e000 <_ZN4CamX8SWMFNR3012CreateSWMFNREPNS_23CHINodeModuleCreateDataE+0x4d8>
	cbnz	w11, 0x98e8 <_ZN4CamX8SWMFNR3012CreateSWMFNREPNS_23CHINodeModuleCreateDataE+0x460>
	adrp	x22, 0x2000 <_ZN4CamX8SWMFNR3012CreateSWMFNREPNS_23CHINodeModuleCreateDataE+0x3f4>
	adrp	x1, 0x3000 <_ZN4CamX8SWMFNR3012CreateSWMFNREPNS_23CHINodeModuleCreateDataE+0x418>
	adrp	x3, 0x3000 <_ZN4CamX8SWMFNR3012CreateSWMFNREPNS_23CHINodeModuleCreateDataE+0x41c>
	adrp	x4, 0x3000 <_ZN4CamX8SWMFNR3012CreateSWMFNREPNS_23CHINodeModuleCreateDataE+0x420>
	adrp	x6, 0x2000 <_ZN4CamX8SWMFNR3012CreateSWMFNREPNS_23CHINodeModuleCreateDataE+0x420>
	bl	0xb2c0 <_ZdaPv+0x228>
	b	0x9998 <_ZN4CamX8SWMFNR3012CreateSWMFNREPNS_23CHINodeModuleCreateDataE+0x510>
	adrp	x23, 0x2000 <_ZN4CamX8SWMFNR3012CreateSWMFNREPNS_23CHINodeModuleCreateDataE+0x44c>
	adrp	x1, 0x3000 <_ZN4CamX8SWMFNR3012CreateSWMFNREPNS_23CHINodeModuleCreateDataE+0x46c>
	adrp	x3, 0x3000 <_ZN4CamX8SWMFNR3012CreateSWMFNREPNS_23CHINodeModuleCreateDataE+0x470>
	adrp	x4, 0x3000 <_ZN4CamX8SWMFNR3012CreateSWMFNREPNS_23CHINodeModuleCreateDataE+0x474>
	adrp	x6, 0x3000 <_ZN4CamX8SWMFNR3012CreateSWMFNREPNS_23CHINodeModuleCreateDataE+0x478>
	bl	0xb2c0 <_ZdaPv+0x228>
	b	0x9c14 <_ZN4CamX8SWMFNR3012CreateSWMFNREPNS_23CHINodeModuleCreateDataE+0x78c>
	adrp	x22, 0x2000 <_ZN4CamX8SWMFNR3012CreateSWMFNREPNS_23CHINodeModuleCreateDataE+0x4a4>
	adrp	x1, 0x3000 <_ZN4CamX8SWMFNR3012CreateSWMFNREPNS_23CHINodeModuleCreateDataE+0x4c4>
	adrp	x3, 0x3000 <_ZN4CamX8SWMFNR3012CreateSWMFNREPNS_23CHINodeModuleCreateDataE+0x4c8>
	adrp	x4, 0x3000 <_ZN4CamX8SWMFNR3012CreateSWMFNREPNS_23CHINodeModuleCreateDataE+0x4cc>
	adrp	x6, 0x2000 <_ZN4CamX8SWMFNR3012CreateSWMFNREPNS_23CHINodeModuleCreateDataE+0x4cc>
	bl	0xb2c0 <_ZdaPv+0x228>
	adrp	x24, 0x22000 <_ZN4CamX8SWMFNR3012CreateSWMFNREPNS_23CHINodeModuleCreateDataE+0x578>
	b.ne	0x9b38 <_ZN4CamX8SWMFNR3012CreateSWMFNREPNS_23CHINodeModuleCreateDataE+0x6b0>
	b.ne	0x9a34 <_ZN4CamX8SWMFNR3012CreateSWMFNREPNS_23CHINodeModuleCreateDataE+0x5ac>
	adrp	x13, 0x22000 <_ZN4CamX8SWMFNR3012CreateSWMFNREPNS_23CHINodeModuleCreateDataE+0x5a4>
	tbnz	w12, #3, 0x99e4 <_ZN4CamX8SWMFNR3012CreateSWMFNREPNS_23CHINodeModuleCreateDataE+0x55c>
	adrp	x14, 0x3e000 <_ZN4CamX8SWMFNR3012CreateSWMFNREPNS_23CHINodeModuleCreateDataE+0x624>
	cbnz	w13, 0x9a30 <_ZN4CamX8SWMFNR3012CreateSWMFNREPNS_23CHINodeModuleCreateDataE+0x5a8>
	adrp	x23, 0x2000 <_ZN4CamX8SWMFNR3012CreateSWMFNREPNS_23CHINodeModuleCreateDataE+0x540>
	adrp	x1, 0x3000 <_ZN4CamX8SWMFNR3012CreateSWMFNREPNS_23CHINodeModuleCreateDataE+0x560>
	adrp	x3, 0x3000 <_ZN4CamX8SWMFNR3012CreateSWMFNREPNS_23CHINodeModuleCreateDataE+0x564>
	adrp	x4, 0x3000 <_ZN4CamX8SWMFNR3012CreateSWMFNREPNS_23CHINodeModuleCreateDataE+0x568>
	adrp	x6, 0x2000 <_ZN4CamX8SWMFNR3012CreateSWMFNREPNS_23CHINodeModuleCreateDataE+0x568>
	bl	0xb2c0 <_ZdaPv+0x228>
	b.ne	0x9b38 <_ZN4CamX8SWMFNR3012CreateSWMFNREPNS_23CHINodeModuleCreateDataE+0x6b0>
	b.ne	0x9b18 <_ZN4CamX8SWMFNR3012CreateSWMFNREPNS_23CHINodeModuleCreateDataE+0x690>
	b.hi	0x9aa4 <_ZN4CamX8SWMFNR3012CreateSWMFNREPNS_23CHINodeModuleCreateDataE+0x61c>
	adrp	x12, 0x3000 <_ZN4CamX8SWMFNR3012CreateSWMFNREPNS_23CHINodeModuleCreateDataE+0x5c0>
	b	0x9ad8 <_ZN4CamX8SWMFNR3012CreateSWMFNREPNS_23CHINodeModuleCreateDataE+0x650>
	b	0x9ae0 <_ZN4CamX8SWMFNR3012CreateSWMFNREPNS_23CHINodeModuleCreateDataE+0x658>
	b	0x9ad8 <_ZN4CamX8SWMFNR3012CreateSWMFNREPNS_23CHINodeModuleCreateDataE+0x650>
	b	0x9ad8 <_ZN4CamX8SWMFNR3012CreateSWMFNREPNS_23CHINodeModuleCreateDataE+0x650>
	b	0x9adc <_ZN4CamX8SWMFNR3012CreateSWMFNREPNS_23CHINodeModuleCreateDataE+0x654>
	b	0x9ad8 <_ZN4CamX8SWMFNR3012CreateSWMFNREPNS_23CHINodeModuleCreateDataE+0x650>
	b	0x9ad8 <_ZN4CamX8SWMFNR3012CreateSWMFNREPNS_23CHINodeModuleCreateDataE+0x650>
	b	0x9ad8 <_ZN4CamX8SWMFNR3012CreateSWMFNREPNS_23CHINodeModuleCreateDataE+0x650>
	b	0x9ad8 <_ZN4CamX8SWMFNR3012CreateSWMFNREPNS_23CHINodeModuleCreateDataE+0x650>
	b	0x9ad8 <_ZN4CamX8SWMFNR3012CreateSWMFNREPNS_23CHINodeModuleCreateDataE+0x650>
	cbz	w8, 0x9b00 <_ZN4CamX8SWMFNR3012CreateSWMFNREPNS_23CHINodeModuleCreateDataE+0x678>
	b.gt	0x9b0c <_ZN4CamX8SWMFNR3012CreateSWMFNREPNS_23CHINodeModuleCreateDataE+0x684>
	b.hi	0x9b28 <_ZN4CamX8SWMFNR3012CreateSWMFNREPNS_23CHINodeModuleCreateDataE+0x6a0>
	b	0x9b18 <_ZN4CamX8SWMFNR3012CreateSWMFNREPNS_23CHINodeModuleCreateDataE+0x690>
	b.ge	0x9b18 <_ZN4CamX8SWMFNR3012CreateSWMFNREPNS_23CHINodeModuleCreateDataE+0x690>
	b.pl	0x9b28 <_ZN4CamX8SWMFNR3012CreateSWMFNREPNS_23CHINodeModuleCreateDataE+0x6a0>
	b	0x9b38 <_ZN4CamX8SWMFNR3012CreateSWMFNREPNS_23CHINodeModuleCreateDataE+0x6b0>
	b	0x9b3c <_ZN4CamX8SWMFNR3012CreateSWMFNREPNS_23CHINodeModuleCreateDataE+0x6b4>
	b.eq	0x9b3c <_ZN4CamX8SWMFNR3012CreateSWMFNREPNS_23CHINodeModuleCreateDataE+0x6b4>
	cbz	w23, 0x9bbc <_ZN4CamX8SWMFNR3012CreateSWMFNREPNS_23CHINodeModuleCreateDataE+0x734>
	b.ne	0x9bc4 <_ZN4CamX8SWMFNR3012CreateSWMFNREPNS_23CHINodeModuleCreateDataE+0x73c>
	adrp	x15, 0x22000 <_ZN4CamX8SWMFNR3012CreateSWMFNREPNS_23CHINodeModuleCreateDataE+0x730>
	tbnz	w15, #3, 0x9b70 <_ZN4CamX8SWMFNR3012CreateSWMFNREPNS_23CHINodeModuleCreateDataE+0x6e8>
	adrp	x16, 0x3e000 <_ZN4CamX8SWMFNR3012CreateSWMFNREPNS_23CHINodeModuleCreateDataE+0x7b0>
	cbnz	w16, 0x9bbc <_ZN4CamX8SWMFNR3012CreateSWMFNREPNS_23CHINodeModuleCreateDataE+0x734>
	adrp	x19, 0x2000 <_ZN4CamX8SWMFNR3012CreateSWMFNREPNS_23CHINodeModuleCreateDataE+0x6cc>
	adrp	x1, 0x3000 <_ZN4CamX8SWMFNR3012CreateSWMFNREPNS_23CHINodeModuleCreateDataE+0x6ec>
	adrp	x3, 0x3000 <_ZN4CamX8SWMFNR3012CreateSWMFNREPNS_23CHINodeModuleCreateDataE+0x6f0>
	adrp	x4, 0x3000 <_ZN4CamX8SWMFNR3012CreateSWMFNREPNS_23CHINodeModuleCreateDataE+0x6f4>
	adrp	x6, 0x2000 <_ZN4CamX8SWMFNR3012CreateSWMFNREPNS_23CHINodeModuleCreateDataE+0x6f4>
	bl	0xb2c0 <_ZdaPv+0x228>
	b	0x9c14 <_ZN4CamX8SWMFNR3012CreateSWMFNREPNS_23CHINodeModuleCreateDataE+0x78c>
	adrp	x22, 0x2000 <_ZN4CamX8SWMFNR3012CreateSWMFNREPNS_23CHINodeModuleCreateDataE+0x720>
	adrp	x1, 0x3000 <_ZN4CamX8SWMFNR3012CreateSWMFNREPNS_23CHINodeModuleCreateDataE+0x740>
	adrp	x3, 0x2000 <_ZN4CamX8SWMFNR3012CreateSWMFNREPNS_23CHINodeModuleCreateDataE+0x740>
	adrp	x4, 0x3000 <_ZN4CamX8SWMFNR3012CreateSWMFNREPNS_23CHINodeModuleCreateDataE+0x748>
	adrp	x6, 0x2000 <_ZN4CamX8SWMFNR3012CreateSWMFNREPNS_23CHINodeModuleCreateDataE+0x748>
	bl	0xb2c0 <_ZdaPv+0x228>
	adrp	x8, 0x21000 <_ZN4CamX8SWMFNR3012CreateSWMFNREPNS_23CHINodeModuleCreateDataE+0x814>
	cbz	x0, 0x9c60 <_ZN4CamX8SWMFNR3012CreateSWMFNREPNS_23CHINodeModuleCreateDataE+0x7d8>
	adrp	x8, 0x21000 <_ZN4CamX7SWLSC3511CreateSWLSCEPNS_23CHINodeModuleCreateDataE+0x2c>
	cbz	x0, 0x9c9c <_ZN4CamX8SWMFNR3012CreateSWMFNREPNS_23CHINodeModuleCreateDataE+0x814>

	cbz	x0, 0x9d04 <_ZN4CamX7SWLSC3511CreateSWLSCEPNS_23CHINodeModuleCreateDataE+0x54>
	cbz	w0, 0x9d58 <_ZN4CamX7SWLSC3511CreateSWLSCEPNS_23CHINodeModuleCreateDataE+0xa8>
	b	0x9d70 <_ZN4CamX7SWLSC3511CreateSWLSCEPNS_23CHINodeModuleCreateDataE+0xc0>
	adrp	x23, 0x2000 <_ZN4CamX7SWLSC3511CreateSWLSCEPNS_23CHINodeModuleCreateDataE+0x38>
	adrp	x1, 0x3000 <_ZN4CamX7SWLSC3511CreateSWLSCEPNS_23CHINodeModuleCreateDataE+0x58>
	adrp	x3, 0x3000 <_ZN4CamX7SWLSC3511CreateSWLSCEPNS_23CHINodeModuleCreateDataE+0x5c>
	adrp	x4, 0x3000 <_ZN4CamX7SWLSC3511CreateSWLSCEPNS_23CHINodeModuleCreateDataE+0x60>
	adrp	x6, 0x2000 <_ZN4CamX7SWLSC3511CreateSWLSCEPNS_23CHINodeModuleCreateDataE+0x60>
	bl	0xb2c0 <_ZdaPv+0x228>
	b	0x9f90 <_ZN4CamX7SWLSC3511CreateSWLSCEPNS_23CHINodeModuleCreateDataE+0x2e0>
	cbz	x20, 0x9d70 <_ZN4CamX7SWLSC3511CreateSWLSCEPNS_23CHINodeModuleCreateDataE+0xc0>
	adrp	x8, 0x21000 <_ZN4CamX7SWLSC3511CreateSWLSCEPNS_23CHINodeModuleCreateDataE+0x120>
	cbz	x20, 0x9e30 <_ZN4CamX7SWLSC3511CreateSWLSCEPNS_23CHINodeModuleCreateDataE+0x180>
	adrp	x2, 0x3000 <_ZN4CamX7SWLSC3511CreateSWLSCEPNS_23CHINodeModuleCreateDataE+0xe8>
	adrp	x3, 0x3000 <_ZN4CamX7SWLSC3511CreateSWLSCEPNS_23CHINodeModuleCreateDataE+0xec>
	adrp	x4, 0x3000 <_ZN4CamX7SWLSC3511CreateSWLSCEPNS_23CHINodeModuleCreateDataE+0xf0>
	adrp	x5, 0x3000 <_ZN4CamX7SWLSC3511CreateSWLSCEPNS_23CHINodeModuleCreateDataE+0xf4>
	adrp	x6, 0x3000 <_ZN4CamX7SWLSC3511CreateSWLSCEPNS_23CHINodeModuleCreateDataE+0xf8>
	bl	0x61e0 <_ZN4CamX14SWAIDenoiser1018CreateSWAIDenoiserEPNS_23CHINodeModuleCreateDataE+0x1c8>
	adrp	x21, 0x2000 <_ZN4CamX7SWLSC3511CreateSWLSCEPNS_23CHINodeModuleCreateDataE+0x124>
	cbz	x0, 0x9e84 <_ZN4CamX7SWLSC3511CreateSWLSCEPNS_23CHINodeModuleCreateDataE+0x1d4>
	adrp	x1, 0x3000 <_ZN4CamX7SWLSC3511CreateSWLSCEPNS_23CHINodeModuleCreateDataE+0x134>
	cbz	x0, 0x9ef0 <_ZN4CamX7SWLSC3511CreateSWLSCEPNS_23CHINodeModuleCreateDataE+0x240>
	bl	0xa058 <_ZN4CamX7SWLSC3511CreateSWLSCEPNS_23CHINodeModuleCreateDataE+0x3a8>
	cbnz	w0, 0x9f40 <_ZN4CamX7SWLSC3511CreateSWLSCEPNS_23CHINodeModuleCreateDataE+0x290>
	b	0x9f8c <_ZN4CamX7SWLSC3511CreateSWLSCEPNS_23CHINodeModuleCreateDataE+0x2dc>
	adrp	x21, 0x2000 <_ZN4CamX7SWLSC3511CreateSWLSCEPNS_23CHINodeModuleCreateDataE+0x164>
	adrp	x1, 0x3000 <_ZN4CamX7SWLSC3511CreateSWLSCEPNS_23CHINodeModuleCreateDataE+0x184>
	adrp	x3, 0x2000 <_ZN4CamX7SWLSC3511CreateSWLSCEPNS_23CHINodeModuleCreateDataE+0x184>
	adrp	x4, 0x3000 <_ZN4CamX7SWLSC3511CreateSWLSCEPNS_23CHINodeModuleCreateDataE+0x18c>
	adrp	x6, 0x2000 <_ZN4CamX7SWLSC3511CreateSWLSCEPNS_23CHINodeModuleCreateDataE+0x18c>
	bl	0xb2c0 <_ZdaPv+0x228>
	b	0x9f8c <_ZN4CamX7SWLSC3511CreateSWLSCEPNS_23CHINodeModuleCreateDataE+0x2dc>
	adrp	x23, 0x3000 <_ZN4CamX7SWLSC3511CreateSWLSCEPNS_23CHINodeModuleCreateDataE+0x1c0>
	adrp	x10, 0x2000 <_ZN4CamX7SWLSC3511CreateSWLSCEPNS_23CHINodeModuleCreateDataE+0x1dc>
	adrp	x1, 0x3000 <_ZN4CamX7SWLSC3511CreateSWLSCEPNS_23CHINodeModuleCreateDataE+0x1f0>
	adrp	x3, 0x2000 <_ZN4CamX7SWLSC3511CreateSWLSCEPNS_23CHINodeModuleCreateDataE+0x1f0>
	adrp	x4, 0x3000 <_ZN4CamX7SWLSC3511CreateSWLSCEPNS_23CHINodeModuleCreateDataE+0x1f8>
	adrp	x6, 0x3000 <_ZN4CamX7SWLSC3511CreateSWLSCEPNS_23CHINodeModuleCreateDataE+0x1fc>
	bl	0xb2c0 <_ZdaPv+0x228>
	adrp	x1, 0x3000 <_ZN4CamX7SWLSC3511CreateSWLSCEPNS_23CHINodeModuleCreateDataE+0x23c>
	adrp	x3, 0x2000 <_ZN4CamX7SWLSC3511CreateSWLSCEPNS_23CHINodeModuleCreateDataE+0x23c>
	adrp	x4, 0x3000 <_ZN4CamX7SWLSC3511CreateSWLSCEPNS_23CHINodeModuleCreateDataE+0x244>
	adrp	x6, 0x2000 <_ZN4CamX7SWLSC3511CreateSWLSCEPNS_23CHINodeModuleCreateDataE+0x244>
	bl	0xb2c0 <_ZdaPv+0x228>
	bl	0xa058 <_ZN4CamX7SWLSC3511CreateSWLSCEPNS_23CHINodeModuleCreateDataE+0x3a8>
	cbz	w0, 0x9e28 <_ZN4CamX7SWLSC3511CreateSWLSCEPNS_23CHINodeModuleCreateDataE+0x178>
	adrp	x1, 0x3000 <_ZN4CamX7SWLSC3511CreateSWLSCEPNS_23CHINodeModuleCreateDataE+0x28c>
	adrp	x3, 0x2000 <_ZN4CamX7SWLSC3511CreateSWLSCEPNS_23CHINodeModuleCreateDataE+0x28c>
	adrp	x4, 0x3000 <_ZN4CamX7SWLSC3511CreateSWLSCEPNS_23CHINodeModuleCreateDataE+0x294>
	adrp	x6, 0x3000 <_ZN4CamX7SWLSC3511CreateSWLSCEPNS_23CHINodeModuleCreateDataE+0x298>
	bl	0xb2c0 <_ZdaPv+0x228>
	b.ne	0x9fc4 <_ZN4CamX7SWLSC3511CreateSWLSCEPNS_23CHINodeModuleCreateDataE+0x314>
	bl	0xa058 <_ZN4CamX7SWLSC3511CreateSWLSCEPNS_23CHINodeModuleCreateDataE+0x3a8>
	cbz	w0, 0xa040 <_ZN4CamX7SWLSC3511CreateSWLSCEPNS_23CHINodeModuleCreateDataE+0x390>
	adrp	x19, 0x2000 <_ZN4CamX7SWLSC3511CreateSWLSCEPNS_23CHINodeModuleCreateDataE+0x310>
	adrp	x1, 0x3000 <_ZN4CamX7SWLSC3511CreateSWLSCEPNS_23CHINodeModuleCreateDataE+0x330>
	adrp	x3, 0x2000 <_ZN4CamX7SWLSC3511CreateSWLSCEPNS_23CHINodeModuleCreateDataE+0x330>
	adrp	x4, 0x3000 <_ZN4CamX7SWLSC3511CreateSWLSCEPNS_23CHINodeModuleCreateDataE+0x334>
	adrp	x6, 0x3000 <_ZN4CamX7SWLSC3511CreateSWLSCEPNS_23CHINodeModuleCreateDataE+0x338>
	bl	0xb2c0 <_ZdaPv+0x228>
	cbz	x9, 0xa0a8 <_ZN4CamX7SWLSC3511CreateSWLSCEPNS_23CHINodeModuleCreateDataE+0x3f8>
	cbz	w0, 0xa0d0 <_ZN4CamX7SWLSC3511CreateSWLSCEPNS_23CHINodeModuleCreateDataE+0x420>
	b	0xa110 <_ZN4CamX7SWLSC3511CreateSWLSCEPNS_23CHINodeModuleCreateDataE+0x460>
	cbz	w0, 0xa134 <_ZN4CamX7SWLSC3511CreateSWLSCEPNS_23CHINodeModuleCreateDataE+0x484>
	b	0xa110 <_ZN4CamX7SWLSC3511CreateSWLSCEPNS_23CHINodeModuleCreateDataE+0x460>
	cbz	x20, 0xa09c <_ZN4CamX7SWLSC3511CreateSWLSCEPNS_23CHINodeModuleCreateDataE+0x3ec>
	cbz	w0, 0xa158 <_ZN4CamX7SWLSC3511CreateSWLSCEPNS_23CHINodeModuleCreateDataE+0x4a8>
	b.ne	0xa2fc <_ZN4CamX7SWLSC3511CreateSWLSCEPNS_23CHINodeModuleCreateDataE+0x64c>
	cbz	x20, 0xa0c4 <_ZN4CamX7SWLSC3511CreateSWLSCEPNS_23CHINodeModuleCreateDataE+0x414>
	b	0xa084 <_ZN4CamX7SWLSC3511CreateSWLSCEPNS_23CHINodeModuleCreateDataE+0x3d4>
	cbz	x20, 0xa108 <_ZN4CamX7SWLSC3511CreateSWLSCEPNS_23CHINodeModuleCreateDataE+0x458>
	cbz	w0, 0xa19c <_ZN4CamX7SWLSC3511CreateSWLSCEPNS_23CHINodeModuleCreateDataE+0x4ec>
	b	0xa110 <_ZN4CamX7SWLSC3511CreateSWLSCEPNS_23CHINodeModuleCreateDataE+0x460>
	cbz	x20, 0xa190 <_ZN4CamX7SWLSC3511CreateSWLSCEPNS_23CHINodeModuleCreateDataE+0x4e0>
	cbz	w0, 0xa1e0 <_ZN4CamX7SWLSC3511CreateSWLSCEPNS_23CHINodeModuleCreateDataE+0x530>
	b	0xa110 <_ZN4CamX7SWLSC3511CreateSWLSCEPNS_23CHINodeModuleCreateDataE+0x460>
	cbz	x20, 0xa1d4 <_ZN4CamX7SWLSC3511CreateSWLSCEPNS_23CHINodeModuleCreateDataE+0x524>
	cbz	x10, 0xa214 <_ZN4CamX7SWLSC3511CreateSWLSCEPNS_23CHINodeModuleCreateDataE+0x564>
	cbz	x11, 0xa25c <_ZN4CamX7SWLSC3511CreateSWLSCEPNS_23CHINodeModuleCreateDataE+0x5ac>
	b	0xa110 <_ZN4CamX7SWLSC3511CreateSWLSCEPNS_23CHINodeModuleCreateDataE+0x460>
	cbz	w0, 0xa238 <_ZN4CamX7SWLSC3511CreateSWLSCEPNS_23CHINodeModuleCreateDataE+0x588>
	b	0xa110 <_ZN4CamX7SWLSC3511CreateSWLSCEPNS_23CHINodeModuleCreateDataE+0x460>
	cbz	x20, 0xa22c <_ZN4CamX7SWLSC3511CreateSWLSCEPNS_23CHINodeModuleCreateDataE+0x57c>
	cbnz	x11, 0xa20c <_ZN4CamX7SWLSC3511CreateSWLSCEPNS_23CHINodeModuleCreateDataE+0x55c>
	cbz	w0, 0xa2d0 <_ZN4CamX7SWLSC3511CreateSWLSCEPNS_23CHINodeModuleCreateDataE+0x620>
	adrp	x20, 0x2000 <_ZN4CamX7SWLSC3511CreateSWLSCEPNS_23CHINodeModuleCreateDataE+0x5a4>
	adrp	x1, 0x3000 <_ZN4CamX7SWLSC3511CreateSWLSCEPNS_23CHINodeModuleCreateDataE+0x5cc>
	adrp	x3, 0x2000 <_ZN4CamX7SWLSC3511CreateSWLSCEPNS_23CHINodeModuleCreateDataE+0x5cc>
	adrp	x4, 0x3000 <_ZN4CamX7SWLSC3511CreateSWLSCEPNS_23CHINodeModuleCreateDataE+0x5d4>
	adrp	x6, 0x2000 <_ZN4CamX7SWLSC3511CreateSWLSCEPNS_23CHINodeModuleCreateDataE+0x5d4>
	bl	0xb2c0 <_ZdaPv+0x228>
	b	0xa110 <_ZN4CamX7SWLSC3511CreateSWLSCEPNS_23CHINodeModuleCreateDataE+0x460>
	cbz	x8, 0xa274 <_ZN4CamX7SWLSC3511CreateSWLSCEPNS_23CHINodeModuleCreateDataE+0x5c4>
	b	0xa110 <_ZN4CamX7SWLSC3511CreateSWLSCEPNS_23CHINodeModuleCreateDataE+0x460>
	cbz	x1, 0xa4a8 <_ZN4CamX7SWLSC3511CreateSWLSCEPNS_23CHINodeModuleCreateDataE+0x7f8>
	cbz	x13, 0xa3ac <_ZN4CamX7SWLSC3511CreateSWLSCEPNS_23CHINodeModuleCreateDataE+0x6fc>
	cbz	x15, 0xa3ac <_ZN4CamX7SWLSC3511CreateSWLSCEPNS_23CHINodeModuleCreateDataE+0x6fc>
	cbz	x26, 0xa3ac <_ZN4CamX7SWLSC3511CreateSWLSCEPNS_23CHINodeModuleCreateDataE+0x6fc>
	cbz	x16, 0xa708 <_ZN4CamX7SWLSC3511CreateSWLSCEPNS_23CHINodeModuleCreateDataE+0xa58>
	b.ne	0xabf0 <_ZN4CamX7SWLSC3511CreateSWLSCEPNS_23CHINodeModuleCreateDataE+0xf40>
	adrp	x26, 0x22000 <_ZN4CamX7SWLSC3511CreateSWLSCEPNS_23CHINodeModuleCreateDataE+0x734>
	b	0xabf0 <_ZN4CamX7SWLSC3511CreateSWLSCEPNS_23CHINodeModuleCreateDataE+0xf40>
	adrp	x22, 0x2000 <_ZN4CamX7SWLSC3511CreateSWLSCEPNS_23CHINodeModuleCreateDataE+0x6dc>
	adrp	x1, 0x3000 <_ZN4CamX7SWLSC3511CreateSWLSCEPNS_23CHINodeModuleCreateDataE+0x704>
	adrp	x3, 0x3000 <_ZN4CamX7SWLSC3511CreateSWLSCEPNS_23CHINodeModuleCreateDataE+0x708>
	adrp	x4, 0x3000 <_ZN4CamX7SWLSC3511CreateSWLSCEPNS_23CHINodeModuleCreateDataE+0x70c>
	adrp	x6, 0x2000 <_ZN4CamX7SWLSC3511CreateSWLSCEPNS_23CHINodeModuleCreateDataE+0x70c>
	bl	0xb2c0 <_ZdaPv+0x228>
	b.ne	0xa514 <_ZN4CamX7SWLSC3511CreateSWLSCEPNS_23CHINodeModuleCreateDataE+0x864>
	b.ne	0xa478 <_ZN4CamX7SWLSC3511CreateSWLSCEPNS_23CHINodeModuleCreateDataE+0x7c8>
	cbz	x1, 0xa488 <_ZN4CamX7SWLSC3511CreateSWLSCEPNS_23CHINodeModuleCreateDataE+0x7d8>
	cbz	w4, 0xa50c <_ZN4CamX7SWLSC3511CreateSWLSCEPNS_23CHINodeModuleCreateDataE+0x85c>
	b.ne	0xa4a0 <_ZN4CamX7SWLSC3511CreateSWLSCEPNS_23CHINodeModuleCreateDataE+0x7f0>
	b.eq	0xa6d0 <_ZN4CamX7SWLSC3511CreateSWLSCEPNS_23CHINodeModuleCreateDataE+0xa20>
	cbz	w24, 0xa6d0 <_ZN4CamX7SWLSC3511CreateSWLSCEPNS_23CHINodeModuleCreateDataE+0xa20>
	b	0xa51c <_ZN4CamX7SWLSC3511CreateSWLSCEPNS_23CHINodeModuleCreateDataE+0x86c>
	adrp	x22, 0x2000 <_ZN4CamX7SWLSC3511CreateSWLSCEPNS_23CHINodeModuleCreateDataE+0x7d8>
	adrp	x1, 0x3000 <_ZN4CamX7SWLSC3511CreateSWLSCEPNS_23CHINodeModuleCreateDataE+0x7f8>
	adrp	x3, 0x3000 <_ZN4CamX7SWLSC3511CreateSWLSCEPNS_23CHINodeModuleCreateDataE+0x7fc>
	adrp	x4, 0x3000 <_ZN4CamX7SWLSC3511CreateSWLSCEPNS_23CHINodeModuleCreateDataE+0x800>
	adrp	x6, 0x3000 <_ZN4CamX7SWLSC3511CreateSWLSCEPNS_23CHINodeModuleCreateDataE+0x804>
	bl	0xb2c0 <_ZdaPv+0x228>
	b.eq	0xa6e4 <_ZN4CamX7SWLSC3511CreateSWLSCEPNS_23CHINodeModuleCreateDataE+0xa34>
	cbz	w24, 0xa6d0 <_ZN4CamX7SWLSC3511CreateSWLSCEPNS_23CHINodeModuleCreateDataE+0xa20>
	b.ne	0xa570 <_ZN4CamX7SWLSC3511CreateSWLSCEPNS_23CHINodeModuleCreateDataE+0x8c0>
	b.ne	0xa570 <_ZN4CamX7SWLSC3511CreateSWLSCEPNS_23CHINodeModuleCreateDataE+0x8c0>
	b.eq	0xa584 <_ZN4CamX7SWLSC3511CreateSWLSCEPNS_23CHINodeModuleCreateDataE+0x8d4>
	b	0xa5a8 <_ZN4CamX7SWLSC3511CreateSWLSCEPNS_23CHINodeModuleCreateDataE+0x8f8>
	b.ne	0xa558 <_ZN4CamX7SWLSC3511CreateSWLSCEPNS_23CHINodeModuleCreateDataE+0x8a8>
	bl	0x77f8 <_ZN4CamX13SWIQInterface20SWIQSetupTriggerDataEPNS_14SWISPInputDataE+0x4e8>
	cbz	w0, 0xa6ac <_ZN4CamX7SWLSC3511CreateSWLSCEPNS_23CHINodeModuleCreateDataE+0x9fc>
	adrp	x20, 0x2000 <_ZN4CamX7SWLSC3511CreateSWLSCEPNS_23CHINodeModuleCreateDataE+0x92c>
	adrp	x23, 0x3000 <_ZN4CamX7SWLSC3511CreateSWLSCEPNS_23CHINodeModuleCreateDataE+0x954>
	adrp	x24, 0x3000 <_ZN4CamX7SWLSC3511CreateSWLSCEPNS_23CHINodeModuleCreateDataE+0x958>
	adrp	x3, 0x3000 <_ZN4CamX7SWLSC3511CreateSWLSCEPNS_23CHINodeModuleCreateDataE+0x964>
	adrp	x6, 0x2000 <_ZN4CamX7SWLSC3511CreateSWLSCEPNS_23CHINodeModuleCreateDataE+0x968>
	bl	0xb2c0 <_ZdaPv+0x228>
	adrp	x3, 0x3000 <_ZN4CamX7SWLSC3511CreateSWLSCEPNS_23CHINodeModuleCreateDataE+0x9a4>
	adrp	x6, 0x3000 <_ZN4CamX7SWLSC3511CreateSWLSCEPNS_23CHINodeModuleCreateDataE+0x9a8>
	bl	0xb2c0 <_ZdaPv+0x228>
	b.eq	0xa6e4 <_ZN4CamX7SWLSC3511CreateSWLSCEPNS_23CHINodeModuleCreateDataE+0xa34>
	b	0xa508 <_ZN4CamX7SWLSC3511CreateSWLSCEPNS_23CHINodeModuleCreateDataE+0x858>
	b.ne	0xa6c0 <_ZN4CamX7SWLSC3511CreateSWLSCEPNS_23CHINodeModuleCreateDataE+0xa10>
	b.ne	0xa508 <_ZN4CamX7SWLSC3511CreateSWLSCEPNS_23CHINodeModuleCreateDataE+0x858>
	cbz	x8, 0xa7b4 <_ZN4CamX7SWLSC3511CreateSWLSCEPNS_23CHINodeModuleCreateDataE+0xb04>
	adrp	x3, 0x22000 <_ZN4CamX7SWLSC3511CreateSWLSCEPNS_23CHINodeModuleCreateDataE+0xae0>
	tbnz	w12, #5, 0xa75c <_ZN4CamX7SWLSC3511CreateSWLSCEPNS_23CHINodeModuleCreateDataE+0xaac>
	adrp	x5, 0x3e000 <_ZN4CamX7SWLSC3511CreateSWLSCEPNS_23CHINodeModuleCreateDataE+0xb70>
	cbnz	w13, 0xa7b4 <_ZN4CamX7SWLSC3511CreateSWLSCEPNS_23CHINodeModuleCreateDataE+0xb04>
	adrp	x22, 0x2000 <_ZN4CamX7SWLSC3511CreateSWLSCEPNS_23CHINodeModuleCreateDataE+0xa8c>
	adrp	x1, 0x3000 <_ZN4CamX7SWLSC3511CreateSWLSCEPNS_23CHINodeModuleCreateDataE+0xab0>
	adrp	x3, 0x3000 <_ZN4CamX7SWLSC3511CreateSWLSCEPNS_23CHINodeModuleCreateDataE+0xab4>
	adrp	x4, 0x3000 <_ZN4CamX7SWLSC3511CreateSWLSCEPNS_23CHINodeModuleCreateDataE+0xab8>
	adrp	x6, 0x2000 <_ZN4CamX7SWLSC3511CreateSWLSCEPNS_23CHINodeModuleCreateDataE+0xab8>
	bl	0xb2c0 <_ZdaPv+0x228>
	cbz	x12, 0xa7e8 <_ZN4CamX7SWLSC3511CreateSWLSCEPNS_23CHINodeModuleCreateDataE+0xb38>
	cbz	x17, 0xa7f0 <_ZN4CamX7SWLSC3511CreateSWLSCEPNS_23CHINodeModuleCreateDataE+0xb40>
	b.ne	0xa7f0 <_ZN4CamX7SWLSC3511CreateSWLSCEPNS_23CHINodeModuleCreateDataE+0xb40>
	b.ne	0xa7f0 <_ZN4CamX7SWLSC3511CreateSWLSCEPNS_23CHINodeModuleCreateDataE+0xb40>
	b	0xabc4 <_ZN4CamX7SWLSC3511CreateSWLSCEPNS_23CHINodeModuleCreateDataE+0xf14>
	cbnz	x7, 0xa834 <_ZN4CamX7SWLSC3511CreateSWLSCEPNS_23CHINodeModuleCreateDataE+0xb84>
	cbz	x8, 0xa8b0 <_ZN4CamX7SWLSC3511CreateSWLSCEPNS_23CHINodeModuleCreateDataE+0xc00>
	cbz	x2, 0xabc4 <_ZN4CamX7SWLSC3511CreateSWLSCEPNS_23CHINodeModuleCreateDataE+0xf14>
	b.ne	0xa900 <_ZN4CamX7SWLSC3511CreateSWLSCEPNS_23CHINodeModuleCreateDataE+0xc50>
	b	0xa904 <_ZN4CamX7SWLSC3511CreateSWLSCEPNS_23CHINodeModuleCreateDataE+0xc54>
	adrp	x22, 0x2000 <_ZN4CamX7SWLSC3511CreateSWLSCEPNS_23CHINodeModuleCreateDataE+0xbe0>
	adrp	x1, 0x3000 <_ZN4CamX7SWLSC3511CreateSWLSCEPNS_23CHINodeModuleCreateDataE+0xc00>
	adrp	x3, 0x2000 <_ZN4CamX7SWLSC3511CreateSWLSCEPNS_23CHINodeModuleCreateDataE+0xc00>
	adrp	x4, 0x3000 <_ZN4CamX7SWLSC3511CreateSWLSCEPNS_23CHINodeModuleCreateDataE+0xc08>
	adrp	x6, 0x2000 <_ZN4CamX7SWLSC3511CreateSWLSCEPNS_23CHINodeModuleCreateDataE+0xc08>
	bl	0xb2c0 <_ZdaPv+0x228>
	b	0xabc4 <_ZN4CamX7SWLSC3511CreateSWLSCEPNS_23CHINodeModuleCreateDataE+0xf14>
	b.ne	0xaa9c <_ZN4CamX7SWLSC3511CreateSWLSCEPNS_23CHINodeModuleCreateDataE+0xdec>
	b.eq	0xaaa8 <_ZN4CamX7SWLSC3511CreateSWLSCEPNS_23CHINodeModuleCreateDataE+0xdf8>
	b.ne	0xab34 <_ZN4CamX7SWLSC3511CreateSWLSCEPNS_23CHINodeModuleCreateDataE+0xe84>
	b.eq	0xab40 <_ZN4CamX7SWLSC3511CreateSWLSCEPNS_23CHINodeModuleCreateDataE+0xe90>
	cbnz	w27, 0xabc4 <_ZN4CamX7SWLSC3511CreateSWLSCEPNS_23CHINodeModuleCreateDataE+0xf14>
	adrp	x22, 0x2000 <_ZN4CamX7SWLSC3511CreateSWLSCEPNS_23CHINodeModuleCreateDataE+0xd6c>
	adrp	x1, 0x3000 <_ZN4CamX7SWLSC3511CreateSWLSCEPNS_23CHINodeModuleCreateDataE+0xd8c>
	adrp	x3, 0x3000 <_ZN4CamX7SWLSC3511CreateSWLSCEPNS_23CHINodeModuleCreateDataE+0xd90>
	adrp	x4, 0x3000 <_ZN4CamX7SWLSC3511CreateSWLSCEPNS_23CHINodeModuleCreateDataE+0xd94>
	adrp	x6, 0x2000 <_ZN4CamX7SWLSC3511CreateSWLSCEPNS_23CHINodeModuleCreateDataE+0xd94>
	bl	0xb2c0 <_ZdaPv+0x228>
	b	0xabc4 <_ZN4CamX7SWLSC3511CreateSWLSCEPNS_23CHINodeModuleCreateDataE+0xf14>
	b.ne	0xa998 <_ZN4CamX7SWLSC3511CreateSWLSCEPNS_23CHINodeModuleCreateDataE+0xce8>
	b.eq	0xa9a4 <_ZN4CamX7SWLSC3511CreateSWLSCEPNS_23CHINodeModuleCreateDataE+0xcf4>
	b.ne	0xaa30 <_ZN4CamX7SWLSC3511CreateSWLSCEPNS_23CHINodeModuleCreateDataE+0xd80>
	cbz	w10, 0xabec <_ZN4CamX7SWLSC3511CreateSWLSCEPNS_23CHINodeModuleCreateDataE+0xf3c>
	b.ne	0xabf0 <_ZN4CamX7SWLSC3511CreateSWLSCEPNS_23CHINodeModuleCreateDataE+0xf40>
	cbnz	w7, 0xa384 <_ZN4CamX7SWLSC3511CreateSWLSCEPNS_23CHINodeModuleCreateDataE+0x6d4>
	b	0xabf0 <_ZN4CamX7SWLSC3511CreateSWLSCEPNS_23CHINodeModuleCreateDataE+0xf40>
	b.ne	0xa408 <_ZN4CamX7SWLSC3511CreateSWLSCEPNS_23CHINodeModuleCreateDataE+0x758>
	b.ne	0xac44 <_ZN4CamX7SWLSC3511CreateSWLSCEPNS_23CHINodeModuleCreateDataE+0xf94>
	b.ne	0xac44 <_ZN4CamX7SWLSC3511CreateSWLSCEPNS_23CHINodeModuleCreateDataE+0xf94>
	b.ne	0xac44 <_ZN4CamX7SWLSC3511CreateSWLSCEPNS_23CHINodeModuleCreateDataE+0xf94>
	b.ne	0xa408 <_ZN4CamX7SWLSC3511CreateSWLSCEPNS_23CHINodeModuleCreateDataE+0x758>
	adrp	x27, 0x3000 <_ZN4CamX7SWLSC3511CreateSWLSCEPNS_23CHINodeModuleCreateDataE+0xf7c>
	b.mi	0xac94 <_ZN4CamX7SWLSC3511CreateSWLSCEPNS_23CHINodeModuleCreateDataE+0xfe4>
	b	0xaca4 <_ZN4CamX7SWLSC3511CreateSWLSCEPNS_23CHINodeModuleCreateDataE+0xff4>
	b	0xa408 <_ZN4CamX7SWLSC3511CreateSWLSCEPNS_23CHINodeModuleCreateDataE+0x758>
	adrp	x8, 0x21000 <_ZN4CamX7SWLSC3511CreateSWLSCEPNS_23CHINodeModuleCreateDataE+0x10a4>
	cbz	x0, 0xad24 <_ZN4CamX7SWLSC3511CreateSWLSCEPNS_23CHINodeModuleCreateDataE+0x1074>
	cbz	x0, 0xad9c <_ZN4CamX7SWLSC3511CreateSWLSCEPNS_23CHINodeModuleCreateDataE+0x10ec>
	cbz	w0, 0xad98 <_ZN4CamX7SWLSC3511CreateSWLSCEPNS_23CHINodeModuleCreateDataE+0x10e8>
	adrp	x21, 0x3000 <_ZN4CamX7SWLSC3511CreateSWLSCEPNS_23CHINodeModuleCreateDataE+0x1070>
	adrp	x9, 0x2000 <_ZN4CamX7SWLSC3511CreateSWLSCEPNS_23CHINodeModuleCreateDataE+0x1088>
	adrp	x1, 0x3000 <_ZN4CamX7SWLSC3511CreateSWLSCEPNS_23CHINodeModuleCreateDataE+0x10a0>
	adrp	x3, 0x3000 <_ZN4CamX7SWLSC3511CreateSWLSCEPNS_23CHINodeModuleCreateDataE+0x10a4>
	adrp	x4, 0x3000 <_ZN4CamX7SWLSC3511CreateSWLSCEPNS_23CHINodeModuleCreateDataE+0x10a8>
	adrp	x6, 0x3000 <_ZN4CamX7SWLSC3511CreateSWLSCEPNS_23CHINodeModuleCreateDataE+0x10ac>
	bl	0xb2c0 <_ZdaPv+0x228>
	cbz	x0, 0xadb0 <_ZN4CamX7SWLSC3511CreateSWLSCEPNS_23CHINodeModuleCreateDataE+0x1100>
	cbz	x0, 0xadc0 <_ZN4CamX7SWLSC3511CreateSWLSCEPNS_23CHINodeModuleCreateDataE+0x1110>
	cbz	x0, 0xadd0 <_ZN4CamX7SWLSC3511CreateSWLSCEPNS_23CHINodeModuleCreateDataE+0x1120>
	cbz	x0, 0xade0 <_ZN4CamX7SWLSC3511CreateSWLSCEPNS_23CHINodeModuleCreateDataE+0x1130>
	cbz	x0, 0xadf0 <_ZN4CamX7SWLSC3511CreateSWLSCEPNS_23CHINodeModuleCreateDataE+0x1140>
	cbz	x0, 0xae00 <_ZN4CamX7SWLSC3511CreateSWLSCEPNS_23CHINodeModuleCreateDataE+0x1150>
	cbz	x0, 0xae10 <_ZN4CamX7SWLSC3511CreateSWLSCEPNS_23CHINodeModuleCreateDataE+0x1160>
	bl	0x7088 <_ZN4CamX12SWDemuxBLS1414CreateDemuxBLSEPNS_23CHINodeModuleCreateDataE+0x9e8>
	adrp	x8, 0x21000 <_ZN4CamX7SWLSC3511CreateSWLSCEPNS_23CHINodeModuleCreateDataE+0x11e4>
	cbz	x0, 0xae64 <_ZN4CamX7SWLSC3511CreateSWLSCEPNS_23CHINodeModuleCreateDataE+0x11b4>
	cbz	x0, 0xaedc <_ZN4CamX7SWLSC3511CreateSWLSCEPNS_23CHINodeModuleCreateDataE+0x122c>
	cbz	w0, 0xaed8 <_ZN4CamX7SWLSC3511CreateSWLSCEPNS_23CHINodeModuleCreateDataE+0x1228>
	adrp	x21, 0x3000 <_ZN4CamX7SWLSC3511CreateSWLSCEPNS_23CHINodeModuleCreateDataE+0x11b0>
	adrp	x9, 0x2000 <_ZN4CamX7SWLSC3511CreateSWLSCEPNS_23CHINodeModuleCreateDataE+0x11c8>
	adrp	x1, 0x3000 <_ZN4CamX7SWLSC3511CreateSWLSCEPNS_23CHINodeModuleCreateDataE+0x11e0>
	adrp	x3, 0x3000 <_ZN4CamX7SWLSC3511CreateSWLSCEPNS_23CHINodeModuleCreateDataE+0x11e4>
	adrp	x4, 0x3000 <_ZN4CamX7SWLSC3511CreateSWLSCEPNS_23CHINodeModuleCreateDataE+0x11e8>
	adrp	x6, 0x3000 <_ZN4CamX7SWLSC3511CreateSWLSCEPNS_23CHINodeModuleCreateDataE+0x11ec>
	bl	0xb2c0 <_ZdaPv+0x228>
	cbz	x0, 0xaef0 <_ZN4CamX7SWLSC3511CreateSWLSCEPNS_23CHINodeModuleCreateDataE+0x1240>
	cbz	x0, 0xaf00 <_ZN4CamX7SWLSC3511CreateSWLSCEPNS_23CHINodeModuleCreateDataE+0x1250>
	cbz	x0, 0xaf10 <_ZN4CamX7SWLSC3511CreateSWLSCEPNS_23CHINodeModuleCreateDataE+0x1260>
	cbz	x0, 0xaf20 <_ZN4CamX7SWLSC3511CreateSWLSCEPNS_23CHINodeModuleCreateDataE+0x1270>
	cbz	x0, 0xaf30 <_ZN4CamX7SWLSC3511CreateSWLSCEPNS_23CHINodeModuleCreateDataE+0x1280>
	cbz	x0, 0xaf40 <_ZN4CamX7SWLSC3511CreateSWLSCEPNS_23CHINodeModuleCreateDataE+0x1290>
	cbz	x0, 0xaf4c <_ZN4CamX7SWLSC3511CreateSWLSCEPNS_23CHINodeModuleCreateDataE+0x129c>
	bl	0x7088 <_ZN4CamX12SWDemuxBLS1414CreateDemuxBLSEPNS_23CHINodeModuleCreateDataE+0x9e8>

	cbz	x0, 0xafa8 <_Znwm+0x40>
	cbz	w0, 0xafd4 <_Znwm+0x6c>
	b.ne	0xaff0 <_Znwm+0x88>
	cbz	x20, 0xafac <_Znwm+0x44>
	b	0xafac <_Znwm+0x44>

	cbz	x0, 0xb038 <_Znam+0x40>
	cbz	w0, 0xb064 <_Znam+0x6c>
	b.ne	0xb080 <_Znam+0x88>
	cbz	x20, 0xb03c <_Znam+0x44>
	b	0xb03c <_Znam+0x44>

	cbz	x0, 0xb090 <_ZdlPv+0x8>

	cbz	x0, 0xb0a0 <_ZdaPv+0x8>
	b.ne	0xb144 <_ZdaPv+0xac>
	cbz	w0, 0xb1f4 <_ZdaPv+0x15c>
	b.eq	0xb284 <_ZdaPv+0x1ec>
	b	0xb2bc <_ZdaPv+0x224>
	cbz	x19, 0xb184 <_ZdaPv+0xec>
	cbnz	w0, 0xb268 <_ZdaPv+0x1d0>
	cbnz	w0, 0xb260 <_ZdaPv+0x1c8>
	cbz	w0, 0xb29c <_ZdaPv+0x204>
	b.ne	0xb2bc <_ZdaPv+0x224>
	b.eq	0xb284 <_ZdaPv+0x1ec>
	adrp	x28, 0x22000 <_ZdaPv+0x2a8>
	adrp	x23, 0x3e000 <_ZdaPv+0x320>
	cbnz	w12, 0xb3f0 <_ZdaPv+0x358>
	adrp	x24, 0x3e000 <_ZdaPv+0x364>
	cbnz	x0, 0xb34c <_ZdaPv+0x2b4>
	bl	0xb648 <_ZdaPv+0x5b0>
	cbz	x0, 0xb3f0 <_ZdaPv+0x358>
	bl	0x1fe20 <_ZN4CamX13OfflineLogger14GetLogInfoMaskEv@plt>
	b.ne	0xb3f0 <_ZdaPv+0x358>
	cbz	x0, 0xb3a4 <_ZdaPv+0x30c>
	b	0xb3a8 <_ZdaPv+0x310>
	b.eq	0xb610 <_ZdaPv+0x578>
	b.eq	0xb410 <_ZdaPv+0x378>
	b.eq	0xb410 <_ZdaPv+0x378>
	cbz	x9, 0xb610 <_ZdaPv+0x578>
	b.ne	0xb4a0 <_ZdaPv+0x408>
	b.hi	0xb48c <_ZdaPv+0x3f4>
	adrp	x11, 0x3000 <_ZdaPv+0x3c4>
	b	0xb490 <_ZdaPv+0x3f8>
	adrp	x1, 0x2000 <_ZdaPv+0x3d4>
	b.ne	0xb594 <_ZdaPv+0x4fc>
	adrp	x23, 0x3e000 <_ZdaPv+0x4f0>
	cbnz	x21, 0xb4d8 <_ZdaPv+0x440>
	bl	0xb648 <_ZdaPv+0x5b0>
	cbz	x0, 0xb594 <_ZdaPv+0x4fc>
	bl	0x1fe50 <_ZN4CamX13OfflineLogger21IsEnableOfflineloggerEv@plt>
	cbz	w0, 0xb594 <_ZdaPv+0x4fc>
	cbz	x0, 0xb56c <_ZdaPv+0x4d4>
	adrp	x2, 0x3000 <_ZdaPv+0x46c>
	bl	0x61e0 <_ZN4CamX14SWAIDenoiser1018CreateSWAIDenoiserEPNS_23CHINodeModuleCreateDataE+0x1c8>
	b	0xb584 <_ZdaPv+0x4ec>
	adrp	x2, 0x3000 <_ZdaPv+0x4b4>
	bl	0x61e0 <_ZN4CamX14SWAIDenoiser1018CreateSWAIDenoiserEPNS_23CHINodeModuleCreateDataE+0x1c8>
	bl	0x1fea0 <_ZN4CamX13OfflineLogger6AddLogEPKcj@plt>
	cbz	x15, 0xb610 <_ZdaPv+0x578>
	cbz	w0, 0xb5cc <_ZdaPv+0x534>
	b	0xb5f8 <_ZdaPv+0x560>
	cbz	x0, 0xb5b0 <_ZdaPv+0x518>
	adrp	x1, 0x3000 <_ZdaPv+0x544>
	bl	0xb0a8 <_ZdaPv+0x10>
	b.ne	0xb640 <_ZdaPv+0x5a8>
	adrp	x26, 0x21000 <_ZdaPv+0x628>
	adrp	x25, 0x21000 <_ZdaPv+0x634>
	cbnz	w8, 0xb8c4 <_ZdaPv+0x82c>
	adrp	x0, 0x21000 <_ZdaPv+0x64c>
	bl	0x1fec0 <_ZNSt3__15mutex4lockEv@plt>
	cbnz	w9, 0xb8b8 <_ZdaPv+0x820>
	adrp	x12, 0x21000 <_ZdaPv+0x660>
	cbz	w0, 0xb6d0 <_ZdaPv+0x638>
	b	0xb6e8 <_ZdaPv+0x650>
	cbz	x19, 0xb6e8 <_ZdaPv+0x650>
	bl	0x1fed0 <_ZN4CamX13OfflineLoggerC1E17OfflineLoggerType@plt>
	b.hs	0xb714 <_ZdaPv+0x67c>
	b	0xb7b0 <_ZdaPv+0x718>
	cbnz	x11, 0xb938 <_ZdaPv+0x8a0>
	cbz	x28, 0xb774 <_ZdaPv+0x6dc>
	cbnz	x17, 0xb950 <_ZdaPv+0x8b8>
	cbz	w0, 0xb8fc <_ZdaPv+0x864>
	b.lt	0xb79c <_ZdaPv+0x704>
	cbz	x0, 0xb7b0 <_ZdaPv+0x718>
	cbz	w0, 0xb7d0 <_ZdaPv+0x738>
	b	0xb7e8 <_ZdaPv+0x750>
	cbz	x19, 0xb7e8 <_ZdaPv+0x750>
	bl	0x1fed0 <_ZN4CamX13OfflineLoggerC1E17OfflineLoggerType@plt>
	b.hs	0xb814 <_ZdaPv+0x77c>
	b	0xb8b0 <_ZdaPv+0x818>
	cbnz	x1, 0xb944 <_ZdaPv+0x8ac>
	cbz	x28, 0xb874 <_ZdaPv+0x7dc>
	cbnz	x22, 0xb95c <_ZdaPv+0x8c4>
	cbz	w0, 0xb918 <_ZdaPv+0x880>
	b.lt	0xb89c <_ZdaPv+0x804>
	cbz	x0, 0xb8b0 <_ZdaPv+0x818>
	adrp	x0, 0x21000 <_ZdaPv+0x878>
	bl	0x1fee0 <_ZNSt3__15mutex6unlockEv@plt>
	b.ne	0xb934 <_ZdaPv+0x89c>
	cbz	x22, 0xb778 <_ZdaPv+0x6e0>
	b	0xb778 <_ZdaPv+0x6e0>
	cbz	x22, 0xb878 <_ZdaPv+0x7e0>
	b	0xb878 <_ZdaPv+0x7e0>
	adrp	x0, 0x21000 <_ZdaPv+0x8f8>
	bl	0x1fef0 <_ZNKSt3__120__vector_base_commonILb1EE20__throw_length_errorEv@plt>
	adrp	x0, 0x21000 <_ZdaPv+0x904>
	bl	0x1fef0 <_ZNKSt3__120__vector_base_commonILb1EE20__throw_length_errorEv@plt>
	adrp	x0, 0x2000 <_ZdaPv+0x894>
	bl	0xb9a0 <_ZdaPv+0x908>
	adrp	x0, 0x2000 <_ZdaPv+0x8a0>
	bl	0xb9a0 <_ZdaPv+0x908>
	b	0xb96c <_ZdaPv+0x8d4>
	cbz	x19, 0xb988 <_ZdaPv+0x8f0>
	b	0xb988 <_ZdaPv+0x8f0>
	b	0xb984 <_ZdaPv+0x8ec>
	adrp	x0, 0x21000 <_ZdaPv+0x948>
	bl	0x1fee0 <_ZNSt3__15mutex6unlockEv@plt>
	bl	0xb9f0 <_ZdaPv+0x958>
	adrp	x1, 0x21000 <_ZdaPv+0x984>
	adrp	x2, 0x21000 <_ZdaPv+0x988>
	bl	0x1ff40 <_ZNSt11logic_errorC2EPKc@plt>
	adrp	x8, 0x21000 <_ZdaPv+0x9c4>
	adrp	x0, 0x3000 <_ZdaPv+0x970>
	bl	0xb148 <_ZdaPv+0xb0>
	adrp	x8, 0x3e000 <_ZdaPv+0xa68>
	cbz	x0, 0xba70 <_ZdaPv+0x9d8>
	cbnz	x20, 0xba60 <_ZdaPv+0x9c8>
	cbz	x0, 0xba88 <_ZdaPv+0x9f0>
	adrp	x22, 0x3e000 <_ZdaPv+0xaec>
	cbz	x24, 0xbb10 <_ZdaPv+0xa78>
	b.ls	0xbb18 <_ZdaPv+0xa80>
	cbnz	x8, 0xbb2c <_ZdaPv+0xa94>
	b	0xbba0 <_ZdaPv+0xb08>
	b	0xbba0 <_ZdaPv+0xb08>
	cbz	x8, 0xbba0 <_ZdaPv+0xb08>
	b.hi	0xbb78 <_ZdaPv+0xae0>
	cbz	x8, 0xbba0 <_ZdaPv+0xb08>
	b.ne	0xbba0 <_ZdaPv+0xb08>
	b.ne	0xbb38 <_ZdaPv+0xaa0>
	b	0xbd94 <_ZdaPv+0xcfc>
	b.ne	0xbba0 <_ZdaPv+0xb08>
	b.eq	0xbd94 <_ZdaPv+0xcfc>
	cbz	x8, 0xbba0 <_ZdaPv+0xb08>
	b.eq	0xbb6c <_ZdaPv+0xad4>
	b.lo	0xbb64 <_ZdaPv+0xacc>
	b	0xbb64 <_ZdaPv+0xacc>
	cbz	w0, 0xbbc0 <_ZdaPv+0xb28>
	b	0xbbd0 <_ZdaPv+0xb38>
	cbz	x19, 0xbbd0 <_ZdaPv+0xb38>
	cbz	x24, 0xbc00 <_ZdaPv+0xb68>
	b.pl	0xbd0c <_ZdaPv+0xc74>
	b.ne	0xbc3c <_ZdaPv+0xba4>
	b	0xbc50 <_ZdaPv+0xbb8>
	b.eq	0xbc50 <_ZdaPv+0xbb8>
	bl	0x1ff50 <_ZNSt3__112__next_primeEm@plt>
	b.ls	0xbc68 <_ZdaPv+0xbd0>
	bl	0xbde0 <_ZdaPv+0xd48>
	b	0xbcd8 <_ZdaPv+0xc40>
	b.hs	0xbcd8 <_ZdaPv+0xc40>
	b.lo	0xbcc0 <_ZdaPv+0xc28>
	b.hi	0xbcc0 <_ZdaPv+0xc28>
	b	0xbcc4 <_ZdaPv+0xc2c>
	bl	0x1ff50 <_ZNSt3__112__next_primeEm@plt>
	b.hs	0xbcd8 <_ZdaPv+0xc40>
	bl	0xbde0 <_ZdaPv+0xd48>
	b.eq	0xbd04 <_ZdaPv+0xc6c>
	b.ls	0xbd28 <_ZdaPv+0xc90>
	cbnz	x11, 0xbd18 <_ZdaPv+0xc80>
	b	0xbd3c <_ZdaPv+0xca4>
	cbz	x11, 0xbd3c <_ZdaPv+0xca4>
	b	0xbd88 <_ZdaPv+0xcf0>
	cbnz	x11, 0xbd18 <_ZdaPv+0xc80>
	cbz	x12, 0xbd88 <_ZdaPv+0xcf0>
	b.eq	0xbd7c <_ZdaPv+0xce4>
	b.lo	0xbd80 <_ZdaPv+0xce8>
	b	0xbd80 <_ZdaPv+0xce8>
	b.ne	0xbdc0 <_ZdaPv+0xd28>
	cbz	x19, 0xbdd4 <_ZdaPv+0xd3c>
	cbz	x0, 0xbe34 <_ZdaPv+0xd9c>
	cbnz	x10, 0xc100 <_ZdaPv+0x1068>
	cbz	w0, 0xbe54 <_ZdaPv+0xdbc>
	b	0xbe6c <_ZdaPv+0xdd4>
	adrp	x19, 0x3e000 <_ZdaPv+0xe68>
	cbz	x0, 0xbe4c <_ZdaPv+0xdb4>
	b	0xc048 <_ZdaPv+0xfb0>
	cbz	x20, 0xbe6c <_ZdaPv+0xdd4>
	adrp	x21, 0x3e000 <_ZdaPv+0xea0>
	cbz	x0, 0xbe88 <_ZdaPv+0xdf0>
	b.le	0xbeb0 <_ZdaPv+0xe18>
	b.hs	0xc06c <_ZdaPv+0xfd4>
	b.ls	0xc06c <_ZdaPv+0xfd4>
	b.hs	0xbed8 <_ZdaPv+0xe40>
	b.lo	0xbec4 <_ZdaPv+0xe2c>
	cbz	x8, 0xc048 <_ZdaPv+0xfb0>
	b.ls	0xbf10 <_ZdaPv+0xe78>
	b.lo	0xbf18 <_ZdaPv+0xe80>
	b	0xbf18 <_ZdaPv+0xe80>
	cbz	x10, 0xc048 <_ZdaPv+0xfb0>
	b.hi	0xbf48 <_ZdaPv+0xeb0>
	b	0xbfd4 <_ZdaPv+0xf3c>
	cbz	x10, 0xc048 <_ZdaPv+0xfb0>
	b.lo	0xbf5c <_ZdaPv+0xec4>
	b.eq	0xbf3c <_ZdaPv+0xea4>
	cbz	x17, 0xbfb8 <_ZdaPv+0xf20>
	cbz	x16, 0xbf90 <_ZdaPv+0xef8>
	b.eq	0xbf74 <_ZdaPv+0xedc>
	b	0xbf40 <_ZdaPv+0xea8>
	b	0xbf40 <_ZdaPv+0xea8>
	cbz	x10, 0xc048 <_ZdaPv+0xfb0>
	b.eq	0xbfc8 <_ZdaPv+0xf30>
	cbz	x3, 0xc038 <_ZdaPv+0xfa0>
	cbz	x15, 0xc010 <_ZdaPv+0xf78>
	b.eq	0xbff4 <_ZdaPv+0xf5c>
	b	0xbfcc <_ZdaPv+0xf34>
	b	0xbfcc <_ZdaPv+0xf34>
	b.ne	0xc0fc <_ZdaPv+0x1064>
	b.ne	0xc080 <_ZdaPv+0xfe8>
	cbz	x13, 0xbed8 <_ZdaPv+0xe40>
	b.ls	0xc0c4 <_ZdaPv+0x102c>
	b.ge	0xbed8 <_ZdaPv+0xe40>
	tbz	w19, #2, 0xc0dc <_ZdaPv+0x1044>
	b.ge	0xbed8 <_ZdaPv+0xe40>
	tbz	w19, #1, 0xc0f4 <_ZdaPv+0x105c>
	b.ge	0xbed8 <_ZdaPv+0xe40>
	b	0xbed8 <_ZdaPv+0xe40>
	adrp	x0, 0x2000 <_ZdaPv+0x1040>
	bl	0xb9a0 <_ZdaPv+0x908>
	adrp	x10, 0x3000 <_ZdaPv+0x106c>
	adrp	x20, 0x3e000 <_ZdaPv+0x1168>
	bl	0xba98 <_ZdaPv+0xa00>
	bl	0xba98 <_ZdaPv+0xa00>
	bl	0xba98 <_ZdaPv+0xa00>
	adrp	x0, 0xb000 <_ZdaPv+0x10f4>
	adrp	x2, 0x21000 <_ZdaPv+0x1150>
	b.ne	0xc1d8 <_ZdaPv+0x1140>
	cbz	x8, 0xc1fc <_ZdaPv+0x1164>
	cbnz	x20, 0xc1e8 <_ZdaPv+0x1150>
	adrp	x11, 0x3e000 <_ZdaPv+0x122c>
	cbz	x0, 0xc214 <_ZdaPv+0x117c>
	adrp	x8, 0x21000 <_ZdaPv+0x11e8>
	bl	0xc3d0 <_ZdaPv+0x1338>
	adrp	x11, 0x21000 <_ZdaPv+0x120c>
	bl	0x1ff70 <_ZNSt3__113basic_istreamIcNS_11char_traitsIcEEED2Ev@plt>
	b	0x1ff80 <_ZNSt3__19basic_iosIcNS_11char_traitsIcEEED2Ev@plt>
	adrp	x8, 0x21000 <_ZdaPv+0x1240>
	bl	0xc3d0 <_ZdaPv+0x1338>
	adrp	x12, 0x21000 <_ZdaPv+0x1270>
	bl	0x1ff70 <_ZNSt3__113basic_istreamIcNS_11char_traitsIcEEED2Ev@plt>
	b	0x1ff80 <_ZNSt3__19basic_iosIcNS_11char_traitsIcEEED2Ev@plt>
	adrp	x8, 0x21000 <_ZdaPv+0x12a0>
	bl	0xc3d0 <_ZdaPv+0x1338>
	adrp	x11, 0x21000 <_ZdaPv+0x12c4>
	bl	0x1ff70 <_ZNSt3__113basic_istreamIcNS_11char_traitsIcEEED2Ev@plt>
	bl	0x1ff80 <_ZNSt3__19basic_iosIcNS_11char_traitsIcEEED2Ev@plt>
	cbz	x19, 0xc338 <_ZdaPv+0x12a0>
	adrp	x8, 0x21000 <_ZdaPv+0x1314>
	bl	0xc3d0 <_ZdaPv+0x1338>
	adrp	x12, 0x21000 <_ZdaPv+0x1348>
	bl	0x1ff70 <_ZNSt3__113basic_istreamIcNS_11char_traitsIcEEED2Ev@plt>
	bl	0x1ff80 <_ZNSt3__19basic_iosIcNS_11char_traitsIcEEED2Ev@plt>
	cbz	x20, 0xc3c0 <_ZdaPv+0x1328>
	adrp	x8, 0x21000 <_ZdaPv+0x139c>
	cbz	x20, 0xc42c <_ZdaPv+0x1394>
	bl	0xc978 <_ZdaPv+0x18e0>
	cbnz	w0, 0xc414 <_ZdaPv+0x137c>
	cbz	w8, 0xc440 <_ZdaPv+0x13a8>
	cbz	x0, 0xc440 <_ZdaPv+0x13a8>
	cbz	w9, 0xc454 <_ZdaPv+0x13bc>
	cbz	x0, 0xc454 <_ZdaPv+0x13bc>
	b	0x1ff90 <_ZNSt3__115basic_streambufIcNS_11char_traitsIcEEED2Ev@plt>
	b	0xc47c <_ZdaPv+0x13e4>
	b	0xc42c <_ZdaPv+0x1394>
	bl	0x1ff90 <_ZNSt3__115basic_streambufIcNS_11char_traitsIcEEED2Ev@plt>
	bl	0x7088 <_ZN4CamX12SWDemuxBLS1414CreateDemuxBLSEPNS_23CHINodeModuleCreateDataE+0x9e8>
	bl	0xc3d0 <_ZdaPv+0x1338>
	cbz	x19, 0xc4c8 <_ZdaPv+0x1430>
	adrp	x1, 0x21000 <_ZdaPv+0x14c8>
	bl	0x1ffb0 <_ZNKSt3__16locale9use_facetERNS0_2idE@plt>
	b.eq	0xc5cc <_ZdaPv+0x1534>
	tbz	w0, #0, 0xc594 <_ZdaPv+0x14fc>
	cbz	w8, 0xc564 <_ZdaPv+0x14cc>
	cbz	x0, 0xc564 <_ZdaPv+0x14cc>
	b.eq	0xc5dc <_ZdaPv+0x1544>
	cbz	w8, 0xc5f0 <_ZdaPv+0x1558>
	cbz	x20, 0xc5bc <_ZdaPv+0x1524>
	cbz	w0, 0xc64c <_ZdaPv+0x15b4>
	b.ne	0xc590 <_ZdaPv+0x14f8>
	b.eq	0xc598 <_ZdaPv+0x1500>
	cbz	x20, 0xc628 <_ZdaPv+0x1590>
	cbz	w0, 0xc668 <_ZdaPv+0x15d0>
	b.eq	0xc5dc <_ZdaPv+0x1544>
	b	0xc590 <_ZdaPv+0x14f8>
	cbz	x21, 0xc5c0 <_ZdaPv+0x1528>
	b	0xc5c0 <_ZdaPv+0x1528>
	cbz	x21, 0xc62c <_ZdaPv+0x1594>
	b	0xc62c <_ZdaPv+0x1594>
	cbz	w9, 0xc6d8 <_ZdaPv+0x1640>
	cbz	x0, 0xc6d8 <_ZdaPv+0x1640>
	cbz	w10, 0xc6ec <_ZdaPv+0x1654>
	cbz	x0, 0xc6ec <_ZdaPv+0x1654>
	b.lo	0xc71c <_ZdaPv+0x1684>
	cbz	x20, 0xc758 <_ZdaPv+0x16c0>
	cbz	w11, 0xc758 <_ZdaPv+0x16c0>
	cbnz	w12, 0xc73c <_ZdaPv+0x16a4>
	b	0xc7a4 <_ZdaPv+0x170c>
	cbz	w12, 0xc7a4 <_ZdaPv+0x170c>
	b.eq	0xc7d0 <_ZdaPv+0x1738>
	b	0xc840 <_ZdaPv+0x17a8>
	cbz	w0, 0xc778 <_ZdaPv+0x16e0>
	b	0xc790 <_ZdaPv+0x16f8>
	cbz	x22, 0xc790 <_ZdaPv+0x16f8>
	cbnz	w12, 0xc73c <_ZdaPv+0x16a4>
	cbz	x20, 0xc7ec <_ZdaPv+0x1754>
	b.ne	0xc840 <_ZdaPv+0x17a8>
	cbz	w0, 0xc80c <_ZdaPv+0x1774>
	b	0xc824 <_ZdaPv+0x178c>
	cbz	x20, 0xc824 <_ZdaPv+0x178c>
	b.eq	0xc7d0 <_ZdaPv+0x1738>
	cbz	x0, 0xc904 <_ZdaPv+0x186c>
	cbz	x10, 0xc8d4 <_ZdaPv+0x183c>
	cbz	x21, 0xc890 <_ZdaPv+0x17f8>
	b.lt	0xc8d4 <_ZdaPv+0x183c>
	cbnz	w0, 0xc8dc <_ZdaPv+0x1844>
	b.hi	0xc8dc <_ZdaPv+0x1844>
	cbz	w0, 0xc8f0 <_ZdaPv+0x1858>
	b	0xc8dc <_ZdaPv+0x1844>
	bl	0xd0c0 <_ZdaPv+0x2028>
	cbz	x8, 0xc950 <_ZdaPv+0x18b8>
	cbnz	w0, 0xc950 <_ZdaPv+0x18b8>
	cbz	w0, 0xc970 <_ZdaPv+0x18d8>
	b	0xc958 <_ZdaPv+0x18c0>
	cbz	x10, 0xc9bc <_ZdaPv+0x1924>
	cbz	x0, 0xcb8c <_ZdaPv+0x1af4>
	tbnz	w8, #4, 0xc9d4 <_ZdaPv+0x193c>
	tbnz	w8, #3, 0xca74 <_ZdaPv+0x19dc>
	b.eq	0xcb38 <_ZdaPv+0x1aa0>
	b.eq	0xca00 <_ZdaPv+0x1968>
	b.eq	0xcb28 <_ZdaPv+0x1a90>
	b.ne	0xcb24 <_ZdaPv+0x1a8c>
	b.eq	0xca04 <_ZdaPv+0x196c>
	b.eq	0xcb24 <_ZdaPv+0x1a8c>
	cbnz	w0, 0xcb24 <_ZdaPv+0x1a8c>
	b	0xc9bc <_ZdaPv+0x1924>
	cbz	w9, 0xca94 <_ZdaPv+0x19fc>
	b	0xcb10 <_ZdaPv+0x1a78>
	b.lt	0xcac8 <_ZdaPv+0x1a30>
	b	0xcb10 <_ZdaPv+0x1a78>
	b.eq	0xcb0c <_ZdaPv+0x1a74>
	b	0xcb10 <_ZdaPv+0x1a78>
	cbz	w0, 0xcb54 <_ZdaPv+0x1abc>
	b.ne	0xc9d0 <_ZdaPv+0x1938>
	cbz	w20, 0xcb60 <_ZdaPv+0x1ac8>
	b.eq	0xcb38 <_ZdaPv+0x1aa0>
	b	0xc9d0 <_ZdaPv+0x1938>
	bl	0xd0c0 <_ZdaPv+0x2028>
	cbz	x16, 0xcbe8 <_ZdaPv+0x1b50>
	tbnz	w8, #3, 0xcbf0 <_ZdaPv+0x1b58>
	cbz	w10, 0xcc1c <_ZdaPv+0x1b84>
	b	0xcc24 <_ZdaPv+0x1b8c>
	b	0xcdf0 <_ZdaPv+0x1d58>
	cbz	x8, 0xcc40 <_ZdaPv+0x1ba8>
	cbz	w9, 0xcc54 <_ZdaPv+0x1bbc>
	b.eq	0xcc80 <_ZdaPv+0x1be8>
	b	0xcdd8 <_ZdaPv+0x1d40>
	cbnz	x8, 0xcc00 <_ZdaPv+0x1b68>
	cbnz	w9, 0xcc04 <_ZdaPv+0x1b6c>
	b.ne	0xcc14 <_ZdaPv+0x1b7c>
	cbz	w11, 0xccd4 <_ZdaPv+0x1c3c>
	cbz	x0, 0xcdd4 <_ZdaPv+0x1d3c>
	b	0xcdd8 <_ZdaPv+0x1d40>
	b.eq	0xccf4 <_ZdaPv+0x1c5c>
	b.eq	0xcd18 <_ZdaPv+0x1c80>
	b	0xcd1c <_ZdaPv+0x1c84>
	cbz	x0, 0xcdd4 <_ZdaPv+0x1d3c>
	cbz	x0, 0xce1c <_ZdaPv+0x1d84>
	b.ne	0xcdb4 <_ZdaPv+0x1d1c>
	b	0xcdd8 <_ZdaPv+0x1d40>
	b.eq	0xcdd4 <_ZdaPv+0x1d3c>
	b	0xcdd8 <_ZdaPv+0x1d40>
	b.ne	0xcdf0 <_ZdaPv+0x1d58>
	b.ne	0xce18 <_ZdaPv+0x1d80>
	bl	0xd0c0 <_ZdaPv+0x2028>
	cbz	x9, 0xce68 <_ZdaPv+0x1dd0>
	b.hs	0xce68 <_ZdaPv+0x1dd0>
	b.eq	0xce70 <_ZdaPv+0x1dd8>
	tbnz	w10, #4, 0xce58 <_ZdaPv+0x1dc0>
	b.ne	0xce68 <_ZdaPv+0x1dd0>
	cbz	x10, 0xd084 <_ZdaPv+0x1fec>
	tbnz	w8, #4, 0xceec <_ZdaPv+0x1e54>
	b.lo	0xcf34 <_ZdaPv+0x1e9c>
	cbz	w9, 0xcf48 <_ZdaPv+0x1eb0>
	b	0xcf54 <_ZdaPv+0x1ebc>
	b.eq	0xcf78 <_ZdaPv+0x1ee0>
	cbnz	x3, 0xcf18 <_ZdaPv+0x1e80>
	b.ne	0xcf80 <_ZdaPv+0x1ee8>
	b	0xcfac <_ZdaPv+0x1f14>
	b	0xcf5c <_ZdaPv+0x1ec4>
	b.ne	0xcf04 <_ZdaPv+0x1e6c>
	b.eq	0xcfac <_ZdaPv+0x1f14>
	cbz	w11, 0xcfb8 <_ZdaPv+0x1f20>
	b.ne	0xd084 <_ZdaPv+0x1fec>
	b	0xd088 <_ZdaPv+0x1ff0>
	cbz	x0, 0xd0b4 <_ZdaPv+0x201c>
	b.eq	0xd084 <_ZdaPv+0x1fec>
	b.hs	0xd058 <_ZdaPv+0x1fc0>
	b.ne	0xd084 <_ZdaPv+0x1fec>
	b.ne	0xcfa4 <_ZdaPv+0x1f0c>
	cbz	x0, 0xd0b4 <_ZdaPv+0x201c>
	b	0xcfcc <_ZdaPv+0x1f34>
	b.ne	0xd084 <_ZdaPv+0x1fec>
	b.eq	0xcfa4 <_ZdaPv+0x1f0c>
	b.ne	0xd0b8 <_ZdaPv+0x2020>
	bl	0xd0c0 <_ZdaPv+0x2028>
	bl	0x20020 <_ZNSt8bad_castC1Ev@plt>
	adrp	x1, 0x21000 <_ZdaPv+0x2094>
	adrp	x2, 0x21000 <_ZdaPv+0x2098>
	cbz	x0, 0xd280 <_ZdaPv+0x21e8>
	cbz	x1, 0xd280 <_ZdaPv+0x21e8>
	cbz	x2, 0xd280 <_ZdaPv+0x21e8>
	cbz	x3, 0xd280 <_ZdaPv+0x21e8>
	adrp	x8, 0x3e000 <_ZdaPv+0x2140>
	b.eq	0xd140 <_ZdaPv+0x20a8>
	b.eq	0xd1a4 <_ZdaPv+0x210c>
	b.gt	0xd1ac <_ZdaPv+0x2114>
	b.ge	0xd1b0 <_ZdaPv+0x2118>
	b	0xd1b0 <_ZdaPv+0x2118>
	b	0xd1b0 <_ZdaPv+0x2118>
	cbz	x20, 0xd7b0 <_ZdaPv+0x2718>
	cbz	x2, 0xd7b0 <_ZdaPv+0x2718>
	cbz	x3, 0xd7b0 <_ZdaPv+0x2718>
	cbz	x4, 0xd7b0 <_ZdaPv+0x2718>
	b.hi	0xd368 <_ZdaPv+0x22d0>
	adrp	x9, 0x3000 <_ZdaPv+0x2230>
	adrp	x9, 0x3000 <_ZdaPv+0x2290>
	b	0xd478 <_ZdaPv+0x23e0>
	b	0xd48c <_ZdaPv+0x23f4>
	adrp	x10, 0x3000 <_ZdaPv+0x22cc>
	b	0xd478 <_ZdaPv+0x23e0>
	adrp	x11, 0x3000 <_ZdaPv+0x22e4>
	b	0xd3d0 <_ZdaPv+0x2338>
	adrp	x12, 0x3000 <_ZdaPv+0x22fc>
	b	0xd48c <_ZdaPv+0x23f4>
	b	0xd448 <_ZdaPv+0x23b0>
	b	0xd448 <_ZdaPv+0x23b0>
	b	0xd448 <_ZdaPv+0x23b0>
	b	0xd48c <_ZdaPv+0x23f4>
	b.le	0xd4d8 <_ZdaPv+0x2440>
	b.hi	0xd6f4 <_ZdaPv+0x265c>
	b.eq	0xd5f0 <_ZdaPv+0x2558>
	b	0xd754 <_ZdaPv+0x26bc>
	b.eq	0xd6f4 <_ZdaPv+0x265c>
	b	0xd754 <_ZdaPv+0x26bc>
	adrp	x22, 0x2000 <_ZdaPv+0x2634>
	adrp	x1, 0x3000 <_ZdaPv+0x2658>
	adrp	x3, 0x3000 <_ZdaPv+0x265c>
	adrp	x4, 0x3000 <_ZdaPv+0x2660>
	adrp	x6, 0x3000 <_ZdaPv+0x2664>
	bl	0xb2c0 <_ZdaPv+0x228>
	cbz	x21, 0xd8ec <_ZdaPv+0x2854>
	cbz	x20, 0xd8ec <_ZdaPv+0x2854>
	cbz	x22, 0xd8ec <_ZdaPv+0x2854>
	cbz	x19, 0xd8ec <_ZdaPv+0x2854>
	cbz	x23, 0xd974 <_ZdaPv+0x28dc>
	b.ne	0xd974 <_ZdaPv+0x28dc>
	cbz	x10, 0xd974 <_ZdaPv+0x28dc>
	cbz	w9, 0xdd74 <_ZdaPv+0x2cdc>
	bl	0xddd8 <_ZdaPv+0x2d40>
	bl	0xe208 <_ZdaPv+0x3170>
	bl	0xff38 <_ZdaPv+0x4ea0>
	bl	0xddd8 <_ZdaPv+0x2d40>
	b	0xd9f4 <_ZdaPv+0x295c>
	adrp	x23, 0x3000 <_ZdaPv+0x282c>
	adrp	x1, 0x3000 <_ZdaPv+0x2848>
	adrp	x3, 0x2000 <_ZdaPv+0x2848>
	adrp	x4, 0x3000 <_ZdaPv+0x2850>
	adrp	x6, 0x3000 <_ZdaPv+0x2854>
	bl	0xb2c0 <_ZdaPv+0x228>
	b.ne	0xdb50 <_ZdaPv+0x2ab8>
	bl	0xff38 <_ZdaPv+0x4ea0>
	bl	0xddd8 <_ZdaPv+0x2d40>
	tbnz	w16, #31, 0xdb3c <_ZdaPv+0x2aa4>
	b.hs	0xdb54 <_ZdaPv+0x2abc>
	b.ne	0xda70 <_ZdaPv+0x29d8>
	b.ne	0xda64 <_ZdaPv+0x29cc>
	b.eq	0xd958 <_ZdaPv+0x28c0>
	b	0xdbc4 <_ZdaPv+0x2b2c>
	b.eq	0xdb3c <_ZdaPv+0x2aa4>
	b.ne	0xdbd8 <_ZdaPv+0x2b40>
	b.eq	0xdba8 <_ZdaPv+0x2b10>
	b.ne	0xdcb8 <_ZdaPv+0x2c20>
	b	0xdba8 <_ZdaPv+0x2b10>
	bl	0xff38 <_ZdaPv+0x4ea0>
	bl	0xddd8 <_ZdaPv+0x2d40>
	bl	0xe208 <_ZdaPv+0x3170>
	b	0xd9f4 <_ZdaPv+0x295c>
	cbz	w7, 0xde20 <_ZdaPv+0x2d88>
	b	0xde28 <_ZdaPv+0x2d90>
	cbz	w26, 0xdea0 <_ZdaPv+0x2e08>
	b	0xdebc <_ZdaPv+0x2e24>
	b.lo	0xdf60 <_ZdaPv+0x2ec8>
	b.lo	0xdf60 <_ZdaPv+0x2ec8>
	b.ge	0xde94 <_ZdaPv+0x2dfc>
	b.ge	0xde94 <_ZdaPv+0x2dfc>
	b.lt	0xde94 <_ZdaPv+0x2dfc>
	b.lt	0xde94 <_ZdaPv+0x2dfc>
	b.lt	0xde94 <_ZdaPv+0x2dfc>
	b.lt	0xde94 <_ZdaPv+0x2dfc>
	b.lt	0xde94 <_ZdaPv+0x2dfc>
	b.lt	0xde94 <_ZdaPv+0x2dfc>
	b	0xdf64 <_ZdaPv+0x2ecc>
	adrp	x10, 0x3000 <_ZdaPv+0x2ef0>
	cbz	x2, 0xe6c0 <_ZdaPv+0x3628>
	b.ne	0xe6c0 <_ZdaPv+0x3628>
	cbz	x10, 0xe6c0 <_ZdaPv+0x3628>
	cbz	x20, 0xe638 <_ZdaPv+0x35a0>
	cbz	x19, 0xe638 <_ZdaPv+0x35a0>
	cbz	x25, 0xe638 <_ZdaPv+0x35a0>
	cbz	x11, 0xe638 <_ZdaPv+0x35a0>
	cbz	x12, 0xe638 <_ZdaPv+0x35a0>
	adrp	x26, 0x3000 <_ZdaPv+0x31b4>
	cbz	w8, 0xe458 <_ZdaPv+0x33c0>
	cbz	w6, 0xe458 <_ZdaPv+0x33c0>
	cbz	w4, 0xe458 <_ZdaPv+0x33c0>
	cbnz	w17, 0xe4e0 <_ZdaPv+0x3448>
	adrp	x15, 0x22000 <_ZdaPv+0x3410>
	tbnz	w12, #3, 0xe474 <_ZdaPv+0x33dc>
	adrp	x5, 0x3e000 <_ZdaPv+0x3490>
	cbnz	w13, 0xe4e0 <_ZdaPv+0x3448>
	adrp	x22, 0x3000 <_ZdaPv+0x33b0>
	adrp	x1, 0x2000 <_ZdaPv+0x33cc>
	adrp	x3, 0x2000 <_ZdaPv+0x33d0>
	adrp	x4, 0x3000 <_ZdaPv+0x33d8>
	adrp	x6, 0x3000 <_ZdaPv+0x33f0>
	bl	0xb2c0 <_ZdaPv+0x228>
	adrp	x27, 0x22000 <_ZdaPv+0x34a8>
	adrp	x21, 0x3e000 <_ZdaPv+0x351c>
	tbnz	w11, #3, 0xe54c <_ZdaPv+0x34b4>
	cbnz	w0, 0xe5b4 <_ZdaPv+0x351c>
	adrp	x22, 0x3000 <_ZdaPv+0x3488>
	adrp	x1, 0x3000 <_ZdaPv+0x34a8>
	adrp	x3, 0x2000 <_ZdaPv+0x34a8>
	adrp	x6, 0x3000 <_ZdaPv+0x34b0>
	adrp	x4, 0x3000 <_ZdaPv+0x34c8>
	bl	0xb2c0 <_ZdaPv+0x228>
	tbnz	w2, #3, 0xe5dc <_ZdaPv+0x3544>
	cbnz	w1, 0xe62c <_ZdaPv+0x3594>
	adrp	x23, 0x3000 <_ZdaPv+0x3518>
	adrp	x1, 0x3000 <_ZdaPv+0x3534>
	adrp	x3, 0x2000 <_ZdaPv+0x3534>
	adrp	x4, 0x3000 <_ZdaPv+0x353c>
	adrp	x6, 0x3000 <_ZdaPv+0x3540>
	bl	0xb2c0 <_ZdaPv+0x228>
	cbz	w22, 0xf590 <_ZdaPv+0x44f8>
	b	0xf610 <_ZdaPv+0x4578>
	adrp	x28, 0x22000 <_ZdaPv+0x35f0>
	tbnz	w26, #3, 0xe654 <_ZdaPv+0x35bc>
	adrp	x10, 0x3e000 <_ZdaPv+0x3670>
	cbnz	w25, 0xe6c0 <_ZdaPv+0x3628>
	adrp	x23, 0x3000 <_ZdaPv+0x3590>
	adrp	x1, 0x3000 <_ZdaPv+0x35b4>
	adrp	x3, 0x2000 <_ZdaPv+0x35b8>
	adrp	x4, 0x3000 <_ZdaPv+0x35c0>
	adrp	x6, 0x3000 <_ZdaPv+0x35c4>
	bl	0xb2c0 <_ZdaPv+0x228>
	cbnz	w11, 0xedfc <_ZdaPv+0x3d64>
	b.ne	0xedfc <_ZdaPv+0x3d64>
	cbnz	wzr, 0xf45c <_ZdaPv+0x43c4>
	cbz	w24, 0xf45c <_ZdaPv+0x43c4>
	cbz	w6, 0xf45c <_ZdaPv+0x43c4>
	cbz	w9, 0xf45c <_ZdaPv+0x43c4>
	cbz	w8, 0xf45c <_ZdaPv+0x43c4>
	cbz	w10, 0xf45c <_ZdaPv+0x43c4>
	cbz	w2, 0xf45c <_ZdaPv+0x43c4>
	cbz	w3, 0xf45c <_ZdaPv+0x43c4>
	cbz	w16, 0xf45c <_ZdaPv+0x43c4>
	cbz	w7, 0xf45c <_ZdaPv+0x43c4>
	cbz	w0, 0xf45c <_ZdaPv+0x43c4>
	cbz	w4, 0xf45c <_ZdaPv+0x43c4>
	cbz	w25, 0xf45c <_ZdaPv+0x43c4>
	cbz	w17, 0xf45c <_ZdaPv+0x43c4>
	cbz	w27, 0xf45c <_ZdaPv+0x43c4>
	cbz	w28, 0xf45c <_ZdaPv+0x43c4>
	cbz	w21, 0xf45c <_ZdaPv+0x43c4>
	cbz	w23, 0xf45c <_ZdaPv+0x43c4>
	cbz	w1, 0xf45c <_ZdaPv+0x43c4>
	cbz	w11, 0xf45c <_ZdaPv+0x43c4>
	cbz	w5, 0xf45c <_ZdaPv+0x43c4>
	cbz	w6, 0xf45c <_ZdaPv+0x43c4>
	cbz	w6, 0xf45c <_ZdaPv+0x43c4>
	cbz	w22, 0xf45c <_ZdaPv+0x43c4>
	cbz	w26, 0xf45c <_ZdaPv+0x43c4>
	cbz	w30, 0xf45c <_ZdaPv+0x43c4>
	cbz	w24, 0xf45c <_ZdaPv+0x43c4>
	cbz	w9, 0xf45c <_ZdaPv+0x43c4>
	cbz	w8, 0xf45c <_ZdaPv+0x43c4>
	cbz	w10, 0xf45c <_ZdaPv+0x43c4>
	cbz	w2, 0xf45c <_ZdaPv+0x43c4>
	cbz	w3, 0xf45c <_ZdaPv+0x43c4>
	cbz	w16, 0xf45c <_ZdaPv+0x43c4>
	cbz	w7, 0xf45c <_ZdaPv+0x43c4>
	cbz	w0, 0xf45c <_ZdaPv+0x43c4>
	cbz	w4, 0xf45c <_ZdaPv+0x43c4>
	cbz	w25, 0xf45c <_ZdaPv+0x43c4>
	tbz	w17, #0, 0xf45c <_ZdaPv+0x43c4>
	b.lo	0xebd4 <_ZdaPv+0x3b3c>
	b	0xf304 <_ZdaPv+0x426c>
	cbnz	w6, 0xf304 <_ZdaPv+0x426c>
	tbnz	w28, #0, 0xf334 <_ZdaPv+0x429c>
	cbz	w23, 0xf334 <_ZdaPv+0x429c>
	cbz	w13, 0xf334 <_ZdaPv+0x429c>
	cbz	w21, 0xf334 <_ZdaPv+0x429c>
	cbz	w14, 0xf334 <_ZdaPv+0x429c>
	cbz	w12, 0xf334 <_ZdaPv+0x429c>
	cbz	w2, 0xf334 <_ZdaPv+0x429c>
	cbz	w2, 0xf334 <_ZdaPv+0x429c>
	cbz	w11, 0xf334 <_ZdaPv+0x429c>
	cbz	w22, 0xf334 <_ZdaPv+0x429c>
	cbz	w26, 0xf334 <_ZdaPv+0x429c>
	cbz	w2, 0xf334 <_ZdaPv+0x429c>
	cbz	w3, 0xf334 <_ZdaPv+0x429c>
	cbz	w7, 0xf334 <_ZdaPv+0x429c>
	cbz	w0, 0xf334 <_ZdaPv+0x429c>
	cbz	w8, 0xf334 <_ZdaPv+0x429c>
	cbz	w17, 0xf334 <_ZdaPv+0x429c>
	cbz	w15, 0xf334 <_ZdaPv+0x429c>
	cbz	w27, 0xf334 <_ZdaPv+0x429c>
	cbz	w5, 0xf334 <_ZdaPv+0x429c>
	tbz	w6, #0, 0xf334 <_ZdaPv+0x429c>
	b.lo	0xf060 <_ZdaPv+0x3fc8>
	b.ne	0xff30 <_ZdaPv+0x4e98>
	b.eq	0xf304 <_ZdaPv+0x426c>
	b	0xf340 <_ZdaPv+0x42a8>
	b.eq	0xf304 <_ZdaPv+0x426c>
	b	0xf464 <_ZdaPv+0x43cc>
	tbnz	w27, #3, 0xf5a0 <_ZdaPv+0x4508>
	cbnz	w10, 0xf60c <_ZdaPv+0x4574>
	adrp	x22, 0x3000 <_ZdaPv+0x44d8>
	adrp	x1, 0x3000 <_ZdaPv+0x44fc>
	adrp	x3, 0x2000 <_ZdaPv+0x4500>
	adrp	x4, 0x3000 <_ZdaPv+0x450c>
	adrp	x6, 0x3000 <_ZdaPv+0x4514>
	bl	0xb2c0 <_ZdaPv+0x228>
	cbz	w6, 0xfdec <_ZdaPv+0x4d54>
	b.ne	0xe6c4 <_ZdaPv+0x362c>
	cbz	x10, 0xfde4 <_ZdaPv+0x4d4c>
	cbz	x9, 0xfde4 <_ZdaPv+0x4d4c>
	cbz	x8, 0xfde4 <_ZdaPv+0x4d4c>
	cbz	x11, 0xfde4 <_ZdaPv+0x4d4c>
	tbnz	w16, #0, 0xfdf4 <_ZdaPv+0x4d5c>
	cbz	w5, 0xfdf4 <_ZdaPv+0x4d5c>
	cbz	w6, 0xfdf4 <_ZdaPv+0x4d5c>
	cbz	w4, 0xfdf4 <_ZdaPv+0x4d5c>
	cbz	w17, 0xfdf4 <_ZdaPv+0x4d5c>
	cbz	w12, 0xfdf4 <_ZdaPv+0x4d5c>
	cbz	w13, 0xfdf4 <_ZdaPv+0x4d5c>
	cbz	w14, 0xfdf4 <_ZdaPv+0x4d5c>
	cbz	w15, 0xfdf4 <_ZdaPv+0x4d5c>
	cbz	w22, 0xfdf4 <_ZdaPv+0x4d5c>
	cbz	w3, 0xfdf4 <_ZdaPv+0x4d5c>
	cbz	w7, 0xfdf4 <_ZdaPv+0x4d5c>
	cbz	w0, 0xfdf4 <_ZdaPv+0x4d5c>
	cbz	w23, 0xfdf4 <_ZdaPv+0x4d5c>
	cbz	w30, 0xfdf4 <_ZdaPv+0x4d5c>
	cbz	w21, 0xfdf4 <_ZdaPv+0x4d5c>
	cbz	w2, 0xfdf4 <_ZdaPv+0x4d5c>
	cbz	w16, 0xfdf4 <_ZdaPv+0x4d5c>
	cbz	w5, 0xfdf4 <_ZdaPv+0x4d5c>
	cbz	w6, 0xfdf4 <_ZdaPv+0x4d5c>
	cbz	w4, 0xfdf4 <_ZdaPv+0x4d5c>
	cbz	w17, 0xfdf4 <_ZdaPv+0x4d5c>
	cbz	w12, 0xfdf4 <_ZdaPv+0x4d5c>
	cbz	w13, 0xfdf4 <_ZdaPv+0x4d5c>
	cbz	w14, 0xfdf4 <_ZdaPv+0x4d5c>
	cbz	w15, 0xfdf4 <_ZdaPv+0x4d5c>
	cbz	w22, 0xfdf4 <_ZdaPv+0x4d5c>
	cbz	w3, 0xfdf4 <_ZdaPv+0x4d5c>
	cbz	w7, 0xfdf4 <_ZdaPv+0x4d5c>
	cbz	w0, 0xfdf4 <_ZdaPv+0x4d5c>
	cbz	w26, 0xfdf4 <_ZdaPv+0x4d5c>
	cbz	w25, 0xfdf4 <_ZdaPv+0x4d5c>
	cbz	w28, 0xfdf4 <_ZdaPv+0x4d5c>
	cbz	w27, 0xfdf4 <_ZdaPv+0x4d5c>
	cbz	w23, 0xfdf4 <_ZdaPv+0x4d5c>
	cbz	w30, 0xfdf4 <_ZdaPv+0x4d5c>
	cbz	w21, 0xfdf4 <_ZdaPv+0x4d5c>
	tbz	w1, #0, 0xfdf4 <_ZdaPv+0x4d5c>
	b.lo	0xfbb4 <_ZdaPv+0x4b1c>
	b	0xe6c4 <_ZdaPv+0x362c>
	b	0xe6c4 <_ZdaPv+0x362c>
	b	0xe6c4 <_ZdaPv+0x362c>
	b.eq	0xfdd8 <_ZdaPv+0x4d40>
	b	0xfe04 <_ZdaPv+0x4d6c>
	bl	0x10110 <_ZdaPv+0x5078>
<_ZdaPv+0x5078>
<_ZdaPv+0x5078>
<_ZdaPv+0x5078>
<_ZdaPv+0x5070>
0x101dc <_ZdaPv+0x5144>
<_ZdaPv+0x5160>
<_ZdaPv+0x5204>
<_ZdaPv+0x5204>
<_ZdaPv+0x5138>
<_ZdaPv+0x5138>
<_ZdaPv+0x5138>
<_ZdaPv+0x5138>
<_ZdaPv+0x5138>
<_ZdaPv+0x5138>
<_ZdaPv+0x5138>
<_ZdaPv+0x5138>
<_ZdaPv+0x5208>
0x22000 <_ZdaPv+0x5254>
#4, 0x102c8 <_ZdaPv+0x5230>
0x3e000 <_ZdaPv+0x52dc>
0x10324 <_ZdaPv+0x528c>
0x3000 <_ZdaPv+0x51fc>
0x3000 <_ZdaPv+0x5220>
0x2000 <_ZdaPv+0x5220>
0x3000 <_ZdaPv+0x5228>
0x3000 <_ZdaPv+0x522c>
<_ZdaPv+0x228>
#31, 0x10ce0 <_ZdaPv+0x5c48>
<_ZdaPv+0x58b8>
<_ZdaPv+0x5c48>
#31, 0x10940 <_ZdaPv+0x58a8>
<_ZdaPv+0x5988>
<_ZdaPv+0x5914>
<_ZdaPv+0x58a8>
0x10c60 <_ZdaPv+0x5bc8>
<_ZdaPv+0x5a44>
<_ZdaPv+0x58a8>
<_ZdaPv+0x59ec>
0x10a84 <_ZdaPv+0x59ec>
<_ZdaPv+0x5a30>
<_ZdaPv+0x5bd4>
<_ZdaPv+0x58a8>
<_ZdaPv+0x5c88>
0x3000 <_ZdaPv+0x5c60>
<_ZdaPv+0x5cb8>
<_ZdaPv+0x5d4c>
<_ZdaPv+0x5d4c>
<_ZdaPv+0x5d4c>
<_ZdaPv+0x5d4c>
<_ZdaPv+0x5d4c>
<_ZdaPv+0x5d4c>
<_ZdaPv+0x5d78>
0x1140c <_ZdaPv+0x6374>
0x1140c <_ZdaPv+0x6374>
0x11170 <_ZdaPv+0x60d8>
0x113cc <_ZdaPv+0x6334>
<_ZdaPv+0x60f0>
<_ZdaPv+0x60f4>
<_ZdaPv+0x6104>
<_ZdaPv+0x610c>
<_ZdaPv+0x6384>
<_ZdaPv+0x60d0>
0x111a4 <_ZdaPv+0x610c>
<_ZdaPv+0x6488>
<_ZdaPv+0x6150>
<_ZdaPv+0x6170>
<_ZdaPv+0x613c>
<_ZdaPv+0x67d0>
0x111d4 <_ZdaPv+0x613c>
<_ZdaPv+0x6198>
<_ZdaPv+0x61b8>
<_ZdaPv+0x6184>
<_ZdaPv+0x6b18>
0x1121c <_ZdaPv+0x6184>
<_ZdaPv+0x61dc>
<_ZdaPv+0x61fc>
<_ZdaPv+0x61c8>
<_ZdaPv+0x6f88>
0x11260 <_ZdaPv+0x61c8>
<_ZdaPv+0x6220>
<_ZdaPv+0x62b0>
<_ZdaPv+0x62b0>
<_ZdaPv+0x6280>
<_ZdaPv+0x6268>
<_ZdaPv+0x62b0>
0x113e4 <_ZdaPv+0x634c>
<_ZdaPv+0x62b0>
<_ZdaPv+0x62ac>
<_ZdaPv+0x63b8>
<_ZdaPv+0x63b8>
0x113f8 <_ZdaPv+0x6360>
<_ZdaPv+0x6218>
<_ZdaPv+0x6218>
<_ZdaPv+0x620c>
<_ZdaPv+0x6318>
<_ZdaPv+0x6218>
<_ZdaPv+0x63b8>
<_ZdaPv+0x632c>
<_ZdaPv+0x63b8>
<_ZdaPv+0x6218>
<_ZdaPv+0x6104>
<_ZdaPv+0x60d0>
0x113f8 <_ZdaPv+0x6360>
0x113f8 <_ZdaPv+0x6360>
0x11438 <_ZdaPv+0x63a0>
<_ZdaPv+0x60ec>
<_ZdaPv+0x6384>
<_ZdaPv+0x60ec>
0x114ec <_ZdaPv+0x6454>
0x114ec <_ZdaPv+0x6454>
0x114ec <_ZdaPv+0x6454>
<_ZdaPv+0x6448>
<_ZdaPv+0x6430>
<_ZdaPv+0x6430>
0x3000 <_ZdaPv+0x63fc>
<_ZdaPv+0x645c>
<_ZdaPv+0x647c>
<_ZdaPv+0x644c>
0x11844 <_ZdaPv+0x67ac>
0x11844 <_ZdaPv+0x67ac>
0x11844 <_ZdaPv+0x67ac>
0x1174c <_ZdaPv+0x66b4>
<_ZdaPv+0x64e8>
<_ZdaPv+0x6644>
<_ZdaPv+0x65a4>
<_ZdaPv+0x6504>
0x116f0 <_ZdaPv+0x6658>
<_ZdaPv+0x65b0>
<_ZdaPv+0x6608>
<_ZdaPv+0x6608>
<_ZdaPv+0x6658>
#1, 0x116dc <_ZdaPv+0x6644>
<_ZdaPv+0x6658>
<_ZdaPv+0x6684>
<_ZdaPv+0x66d4>
<_ZdaPv+0x669c>
<_ZdaPv+0x66e0>
<_ZdaPv+0x66c4>
<_ZdaPv+0x6670>
<_ZdaPv+0x672c>
<_ZdaPv+0x672c>
<_ZdaPv+0x672c>
<_ZdaPv+0x66f4>
<_ZdaPv+0x6728>
<_ZdaPv+0x6724>
<_ZdaPv+0x672c>
<_ZdaPv+0x67a8>
<_ZdaPv+0x67cc>
0x11b8c <_ZdaPv+0x6af4>
0x11b8c <_ZdaPv+0x6af4>
0x11b8c <_ZdaPv+0x6af4>
0x11a94 <_ZdaPv+0x69fc>
<_ZdaPv+0x6830>
<_ZdaPv+0x698c>
<_ZdaPv+0x68ec>
<_ZdaPv+0x684c>
0x11a38 <_ZdaPv+0x69a0>
<_ZdaPv+0x68f8>
<_ZdaPv+0x6950>
<_ZdaPv+0x6950>
<_ZdaPv+0x69a0>
#1, 0x11a24 <_ZdaPv+0x698c>
<_ZdaPv+0x69a0>
<_ZdaPv+0x69cc>
<_ZdaPv+0x6a1c>
<_ZdaPv+0x69e4>
<_ZdaPv+0x6a28>
<_ZdaPv+0x6a0c>
<_ZdaPv+0x69b8>
<_ZdaPv+0x6a74>
<_ZdaPv+0x6a74>
<_ZdaPv+0x6a74>
<_ZdaPv+0x6a3c>
<_ZdaPv+0x6a70>
<_ZdaPv+0x6a6c>
<_ZdaPv+0x6a74>
<_ZdaPv+0x6af0>
<_ZdaPv+0x6b14>
0x11ffc <_ZdaPv+0x6f64>
0x11ffc <_ZdaPv+0x6f64>
0x11ffc <_ZdaPv+0x6f64>
0x11f04 <_ZdaPv+0x6e6c>
0x11d18 <_ZdaPv+0x6c80>
<_ZdaPv+0x6c00>
<_ZdaPv+0x6e10>
<_ZdaPv+0x6d08>
<_ZdaPv+0x6d6c>
<_ZdaPv+0x6ba4>
0x11ea8 <_ZdaPv+0x6e10>
<_ZdaPv+0x6da8>
<_ZdaPv+0x6d70>
<_ZdaPv+0x6d00>
<_ZdaPv+0x6d18>
<_ZdaPv+0x6c24>
0x11ea8 <_ZdaPv+0x6e10>
<_ZdaPv+0x6d54>
<_ZdaPv+0x6d1c>
<_ZdaPv+0x6d10>
<_ZdaPv+0x6dc0>
<_ZdaPv+0x6ca4>
0x11ea8 <_ZdaPv+0x6e10>
<_ZdaPv+0x6dfc>
<_ZdaPv+0x6dc4>
<_ZdaPv+0x6d54>
<_ZdaPv+0x6da8>
<_ZdaPv+0x6dfc>
<_ZdaPv+0x6e10>
<_ZdaPv+0x6e10>
<_ZdaPv+0x6e10>
<_ZdaPv+0x6e10>
<_ZdaPv+0x6e10>
<_ZdaPv+0x6e3c>
<_ZdaPv+0x6e8c>
<_ZdaPv+0x6e54>
<_ZdaPv+0x6e98>
<_ZdaPv+0x6e7c>
<_ZdaPv+0x6e28>
<_ZdaPv+0x6ee4>
<_ZdaPv+0x6ee4>
<_ZdaPv+0x6ee4>
<_ZdaPv+0x6eac>
<_ZdaPv+0x6ee0>
<_ZdaPv+0x6edc>
<_ZdaPv+0x6ee4>
<_ZdaPv+0x6f60>
<_ZdaPv+0x6f84>
0x124bc <_ZdaPv+0x7424>
0x124bc <_ZdaPv+0x7424>
0x124bc <_ZdaPv+0x7424>
0x123bc <_ZdaPv+0x7324>
0x12140 <_ZdaPv+0x70a8>
<_ZdaPv+0x72c8>
<_ZdaPv+0x7164>
<_ZdaPv+0x7174>
<_ZdaPv+0x700c>
0x12210 <_ZdaPv+0x7178>
<_ZdaPv+0x72c8>
<_ZdaPv+0x716c>
<_ZdaPv+0x7220>
<_ZdaPv+0x70cc>
0x122bc <_ZdaPv+0x7224>
<_ZdaPv+0x72c8>
<_ZdaPv+0x720c>
<_ZdaPv+0x72b8>
<_ZdaPv+0x71d4>
<_ZdaPv+0x72c8>
#1, 0x122a4 <_ZdaPv+0x720c>
<_ZdaPv+0x72c8>
<_ZdaPv+0x72c8>
<_ZdaPv+0x7280>
<_ZdaPv+0x72c8>
#1, 0x12350 <_ZdaPv+0x72b8>
<_ZdaPv+0x72c8>
<_ZdaPv+0x72f4>
<_ZdaPv+0x7344>
<_ZdaPv+0x730c>
<_ZdaPv+0x7350>
<_ZdaPv+0x7334>
<_ZdaPv+0x72e0>
<_ZdaPv+0x739c>
<_ZdaPv+0x739c>
<_ZdaPv+0x739c>
<_ZdaPv+0x7364>
<_ZdaPv+0x7398>
<_ZdaPv+0x7394>
<_ZdaPv+0x739c>
<_ZdaPv+0x7420>
<_ZdaPv+0x7444>
0x3000 <_ZdaPv+0x7410>
<_ZdaPv+0x7470>
<_ZdaPv+0x7514>
<_ZdaPv+0x7514>
<_ZdaPv+0x7514>
<_ZdaPv+0x7514>
<_ZdaPv+0x7514>
<_ZdaPv+0x7514>
<_ZdaPv+0x7514>
<_ZdaPv+0x7550>
0x12cc0 <_ZdaPv+0x7c28>
0x12cc0 <_ZdaPv+0x7c28>
0x129d4 <_ZdaPv+0x793c>
<_ZdaPv+0x77e8>
0x12c70 <_ZdaPv+0x7bd8>
<_ZdaPv+0x7954>
<_ZdaPv+0x7958>
<_ZdaPv+0x7968>
<_ZdaPv+0x7970>
<_ZdaPv+0x7c38>
<_ZdaPv+0x7934>
0x12a08 <_ZdaPv+0x7970>
<_ZdaPv+0x7d88>
<_ZdaPv+0x79ac>
<_ZdaPv+0x79cc>
<_ZdaPv+0x7998>
<_ZdaPv+0x80d0>
0x12a30 <_ZdaPv+0x7998>
<_ZdaPv+0x79f4>
<_ZdaPv+0x7a14>
<_ZdaPv+0x79e0>
<_ZdaPv+0x8540>
0x12a78 <_ZdaPv+0x79e0>
<_ZdaPv+0x7a3c>
<_ZdaPv+0x7a5c>
<_ZdaPv+0x7a28>
<_ZdaPv+0x8728>
0x12ac0 <_ZdaPv+0x7a28>
<_ZdaPv+0x7a80>
<_ZdaPv+0x7aa0>
<_ZdaPv+0x7a6c>
<_ZdaPv+0x8be0>
0x12b04 <_ZdaPv+0x7a6c>
<_ZdaPv+0x7ac4>
<_ZdaPv+0x7b54>
<_ZdaPv+0x7b54>
<_ZdaPv+0x7b24>
<_ZdaPv+0x7b0c>
<_ZdaPv+0x7b54>
0x12c88 <_ZdaPv+0x7bf0>
<_ZdaPv+0x7b54>
<_ZdaPv+0x7b50>
<_ZdaPv+0x7c70>
<_ZdaPv+0x7c70>
0x12ca4 <_ZdaPv+0x7c0c>
<_ZdaPv+0x7abc>
<_ZdaPv+0x7abc>
<_ZdaPv+0x7ab0>
<_ZdaPv+0x7bbc>
<_ZdaPv+0x7abc>
<_ZdaPv+0x7c70>
<_ZdaPv+0x7bd0>
<_ZdaPv+0x7c70>
<_ZdaPv+0x7abc>
<_ZdaPv+0x7968>
<_ZdaPv+0x7934>
0x12ca4 <_ZdaPv+0x7c0c>
0x12ca4 <_ZdaPv+0x7c0c>
0x12cf0 <_ZdaPv+0x7c58>
<_ZdaPv+0x7950>
<_ZdaPv+0x7c38>
<_ZdaPv+0x7950>
0x12e10 <_ZdaPv+0x7d78>
0x12e10 <_ZdaPv+0x7d78>
0x12e10 <_ZdaPv+0x7d78>
<_ZdaPv+0x7d0c>
<_ZdaPv+0x7d20>
<_ZdaPv+0x7d20>
<_ZdaPv+0x7d74>
0x3000 <_ZdaPv+0x7ce8>
<_ZdaPv+0x7d4c>
<_ZdaPv+0x7d74>
<_ZdaPv+0x7d80>
0x13144 <_ZdaPv+0x80ac>
0x13144 <_ZdaPv+0x80ac>
0x13144 <_ZdaPv+0x80ac>
0x1304c <_ZdaPv+0x7fb4>
<_ZdaPv+0x7de8>
<_ZdaPv+0x7f44>
<_ZdaPv+0x7ea4>
<_ZdaPv+0x7e04>
0x12ff0 <_ZdaPv+0x7f58>
<_ZdaPv+0x7eb0>
<_ZdaPv+0x7f08>
<_ZdaPv+0x7f08>
<_ZdaPv+0x7f58>
#1, 0x12fdc <_ZdaPv+0x7f44>
<_ZdaPv+0x7f58>
<_ZdaPv+0x7f84>
<_ZdaPv+0x7fd4>
<_ZdaPv+0x7f9c>
<_ZdaPv+0x7fe0>
<_ZdaPv+0x7fc4>
<_ZdaPv+0x7f70>
<_ZdaPv+0x802c>
<_ZdaPv+0x802c>
<_ZdaPv+0x802c>
<_ZdaPv+0x7ff4>
<_ZdaPv+0x8028>
<_ZdaPv+0x8024>
<_ZdaPv+0x802c>
<_ZdaPv+0x80a8>
<_ZdaPv+0x80cc>
0x135b4 <_ZdaPv+0x851c>
0x135b4 <_ZdaPv+0x851c>
0x135b4 <_ZdaPv+0x851c>
0x134bc <_ZdaPv+0x8424>
0x132d0 <_ZdaPv+0x8238>
<_ZdaPv+0x81b8>
<_ZdaPv+0x83c8>
<_ZdaPv+0x82c0>
<_ZdaPv+0x8324>
<_ZdaPv+0x815c>
0x13460 <_ZdaPv+0x83c8>
<_ZdaPv+0x8360>
<_ZdaPv+0x8328>
<_ZdaPv+0x82b8>
<_ZdaPv+0x82d0>
<_ZdaPv+0x81dc>
0x13460 <_ZdaPv+0x83c8>
<_ZdaPv+0x830c>
<_ZdaPv+0x82d4>
<_ZdaPv+0x82c8>
<_ZdaPv+0x8378>
<_ZdaPv+0x825c>
0x13460 <_ZdaPv+0x83c8>
<_ZdaPv+0x83b4>
<_ZdaPv+0x837c>
<_ZdaPv+0x830c>
<_ZdaPv+0x8360>
<_ZdaPv+0x83b4>
<_ZdaPv+0x83c8>
<_ZdaPv+0x83c8>
<_ZdaPv+0x83c8>
<_ZdaPv+0x83c8>
<_ZdaPv+0x83c8>
<_ZdaPv+0x83f4>
<_ZdaPv+0x8444>
<_ZdaPv+0x840c>
<_ZdaPv+0x8450>
<_ZdaPv+0x8434>
<_ZdaPv+0x83e0>
<_ZdaPv+0x849c>
<_ZdaPv+0x849c>
<_ZdaPv+0x849c>
<_ZdaPv+0x8464>
<_ZdaPv+0x8498>
<_ZdaPv+0x8494>
<_ZdaPv+0x849c>
<_ZdaPv+0x8518>
<_ZdaPv+0x853c>
0x137a0 <_ZdaPv+0x8708>
0x137a0 <_ZdaPv+0x8708>
0x137a0 <_ZdaPv+0x8708>
<_ZdaPv+0x85e8>
0x13680 <_ZdaPv+0x85e8>
<_ZdaPv+0x860c>
<_ZdaPv+0x85f4>
<_ZdaPv+0x8710>
<_ZdaPv+0x85f8>
<_ZdaPv+0x8608>
<_ZdaPv+0x860c>
<_ZdaPv+0x860c>
<_ZdaPv+0x860c>
<_ZdaPv+0x86a0>
<_ZdaPv+0x8704>
<_ZdaPv+0x8704>
<_ZdaPv+0x8608>
<_ZdaPv+0x860c>
0x13c54 <_ZdaPv+0x8bbc>
0x13c54 <_ZdaPv+0x8bbc>
0x13c54 <_ZdaPv+0x8bbc>
0x13b5c <_ZdaPv+0x8ac4>
0x138e0 <_ZdaPv+0x8848>
<_ZdaPv+0x8a68>
<_ZdaPv+0x8904>
<_ZdaPv+0x8914>
<_ZdaPv+0x87ac>
0x139b0 <_ZdaPv+0x8918>
<_ZdaPv+0x8a68>
<_ZdaPv+0x890c>
<_ZdaPv+0x89c0>
<_ZdaPv+0x886c>
0x13a5c <_ZdaPv+0x89c4>
<_ZdaPv+0x8a68>
<_ZdaPv+0x89ac>
<_ZdaPv+0x8a58>
<_ZdaPv+0x8974>
<_ZdaPv+0x8a68>
#1, 0x13a44 <_ZdaPv+0x89ac>
<_ZdaPv+0x8a68>
<_ZdaPv+0x8a68>
<_ZdaPv+0x8a20>
<_ZdaPv+0x8a68>
#1, 0x13af0 <_ZdaPv+0x8a58>
<_ZdaPv+0x8a68>
<_ZdaPv+0x8a94>
<_ZdaPv+0x8ae4>
<_ZdaPv+0x8aac>
<_ZdaPv+0x8af0>
<_ZdaPv+0x8ad4>
<_ZdaPv+0x8a80>
<_ZdaPv+0x8b3c>
<_ZdaPv+0x8b3c>
<_ZdaPv+0x8b3c>
<_ZdaPv+0x8b04>
<_ZdaPv+0x8b38>
<_ZdaPv+0x8b34>
<_ZdaPv+0x8b3c>
<_ZdaPv+0x8bb8>
<_ZdaPv+0x8bdc>
0x13efc <_ZdaPv+0x8e64>
0x13efc <_ZdaPv+0x8e64>
0x13efc <_ZdaPv+0x8e64>
0x13dfc <_ZdaPv+0x8d64>
<_ZdaPv+0x8c40>
<_ZdaPv+0x8cf4>
<_ZdaPv+0x8cb8>
<_ZdaPv+0x8c5c>
0x13da0 <_ZdaPv+0x8d08>
<_ZdaPv+0x8cf4>
<_ZdaPv+0x8cbc>
<_ZdaPv+0x8d08>
<_ZdaPv+0x8d34>
<_ZdaPv+0x8d84>
<_ZdaPv+0x8d4c>
<_ZdaPv+0x8d90>
<_ZdaPv+0x8d74>
<_ZdaPv+0x8d20>
<_ZdaPv+0x8ddc>
<_ZdaPv+0x8ddc>
<_ZdaPv+0x8ddc>
<_ZdaPv+0x8da4>
<_ZdaPv+0x8dd8>
<_ZdaPv+0x8dd4>
<_ZdaPv+0x8ddc>
<_ZdaPv+0x8e60>
<_ZdaPv+0x8e84>
0x3000 <_ZdaPv+0x8e4c>
<_ZdaPv+0x8eb0>
<_ZdaPv+0x8f54>
<_ZdaPv+0x8f54>
<_ZdaPv+0x8f54>
<_ZdaPv+0x8f54>
<_ZdaPv+0x8f54>
<_ZdaPv+0x8f54>
<_ZdaPv+0x8f54>
<_ZdaPv+0x8f94>
0x146f4 <_ZdaPv+0x965c>
0x146f4 <_ZdaPv+0x965c>
0x14418 <_ZdaPv+0x9380>
<_ZdaPv+0x9230>
0x146b4 <_ZdaPv+0x961c>
<_ZdaPv+0x9398>
<_ZdaPv+0x939c>
<_ZdaPv+0x93ac>
<_ZdaPv+0x93b4>
<_ZdaPv+0x966c>
<_ZdaPv+0x9378>
0x1444c <_ZdaPv+0x93b4>
<_ZdaPv+0x9778>
<_ZdaPv+0x93f0>
<_ZdaPv+0x9410>
<_ZdaPv+0x93dc>
<_ZdaPv+0x9ac0>
0x14474 <_ZdaPv+0x93dc>
<_ZdaPv+0x9438>
<_ZdaPv+0x9458>
<_ZdaPv+0x9424>
<_ZdaPv+0x9f30>
0x144bc <_ZdaPv+0x9424>
<_ZdaPv+0x9480>
<_ZdaPv+0x94a0>
<_ZdaPv+0x946c>
<_ZdaPv+0xa118>
0x14504 <_ZdaPv+0x946c>
<_ZdaPv+0x94c4>
<_ZdaPv+0x94e4>
<_ZdaPv+0x94b0>
<_ZdaPv+0xa5d0>
0x14548 <_ZdaPv+0x94b0>
<_ZdaPv+0x9508>
<_ZdaPv+0x9598>
<_ZdaPv+0x9598>
<_ZdaPv+0x9568>
<_ZdaPv+0x9550>
<_ZdaPv+0x9598>
0x146cc <_ZdaPv+0x9634>
<_ZdaPv+0x9598>
<_ZdaPv+0x9594>
<_ZdaPv+0x96a8>
<_ZdaPv+0x96a8>
0x146e0 <_ZdaPv+0x9648>
<_ZdaPv+0x9500>
<_ZdaPv+0x9500>
<_ZdaPv+0x94f4>
<_ZdaPv+0x9600>
<_ZdaPv+0x9500>
<_ZdaPv+0x96a8>
<_ZdaPv+0x9614>
<_ZdaPv+0x96a8>
<_ZdaPv+0x9500>
<_ZdaPv+0x93ac>
<_ZdaPv+0x9378>
0x146e0 <_ZdaPv+0x9648>
0x146e0 <_ZdaPv+0x9648>
0x14724 <_ZdaPv+0x968c>
<_ZdaPv+0x9394>
<_ZdaPv+0x966c>
<_ZdaPv+0x9394>
0x147dc <_ZdaPv+0x9744>
0x147dc <_ZdaPv+0x9744>
0x147dc <_ZdaPv+0x9744>
<_ZdaPv+0x9738>
<_ZdaPv+0x9720>
<_ZdaPv+0x9720>
0x3000 <_ZdaPv+0x96e0>
<_ZdaPv+0x974c>
<_ZdaPv+0x976c>
<_ZdaPv+0x973c>
0x14b34 <_ZdaPv+0x9a9c>
0x14b34 <_ZdaPv+0x9a9c>
0x14b34 <_ZdaPv+0x9a9c>
0x14a3c <_ZdaPv+0x99a4>
<_ZdaPv+0x97d8>
<_ZdaPv+0x9934>
<_ZdaPv+0x9894>
<_ZdaPv+0x97f4>
0x149e0 <_ZdaPv+0x9948>
<_ZdaPv+0x98a0>
<_ZdaPv+0x98f8>
<_ZdaPv+0x98f8>
<_ZdaPv+0x9948>
#1, 0x149cc <_ZdaPv+0x9934>
<_ZdaPv+0x9948>
<_ZdaPv+0x9974>
<_ZdaPv+0x99c4>
<_ZdaPv+0x998c>
<_ZdaPv+0x99d0>
<_ZdaPv+0x99b4>
<_ZdaPv+0x9960>
<_ZdaPv+0x9a1c>
<_ZdaPv+0x9a1c>
<_ZdaPv+0x9a1c>
<_ZdaPv+0x99e4>
<_ZdaPv+0x9a18>
<_ZdaPv+0x9a14>
<_ZdaPv+0x9a1c>
<_ZdaPv+0x9a98>
<_ZdaPv+0x9abc>
0x14fa4 <_ZdaPv+0x9f0c>
0x14fa4 <_ZdaPv+0x9f0c>
0x14fa4 <_ZdaPv+0x9f0c>
0x14eac <_ZdaPv+0x9e14>
0x14cc0 <_ZdaPv+0x9c28>
<_ZdaPv+0x9ba8>
<_ZdaPv+0x9db8>
<_ZdaPv+0x9cb0>
<_ZdaPv+0x9d14>
<_ZdaPv+0x9b4c>
0x14e50 <_ZdaPv+0x9db8>
<_ZdaPv+0x9d50>
<_ZdaPv+0x9d18>
<_ZdaPv+0x9ca8>
<_ZdaPv+0x9cc0>
<_ZdaPv+0x9bcc>
0x14e50 <_ZdaPv+0x9db8>
<_ZdaPv+0x9cfc>
<_ZdaPv+0x9cc4>
<_ZdaPv+0x9cb8>
<_ZdaPv+0x9d68>
<_ZdaPv+0x9c4c>
0x14e50 <_ZdaPv+0x9db8>
<_ZdaPv+0x9da4>
<_ZdaPv+0x9d6c>
<_ZdaPv+0x9cfc>
<_ZdaPv+0x9d50>
<_ZdaPv+0x9da4>
<_ZdaPv+0x9db8>
<_ZdaPv+0x9db8>
<_ZdaPv+0x9db8>
<_ZdaPv+0x9db8>
<_ZdaPv+0x9db8>
<_ZdaPv+0x9de4>
<_ZdaPv+0x9e34>
<_ZdaPv+0x9dfc>
<_ZdaPv+0x9e40>
<_ZdaPv+0x9e24>
<_ZdaPv+0x9dd0>
<_ZdaPv+0x9e8c>
<_ZdaPv+0x9e8c>
<_ZdaPv+0x9e8c>
<_ZdaPv+0x9e54>
<_ZdaPv+0x9e88>
<_ZdaPv+0x9e84>
<_ZdaPv+0x9e8c>
<_ZdaPv+0x9f08>
<_ZdaPv+0x9f2c>
0x15190 <_ZdaPv+0xa0f8>
0x15190 <_ZdaPv+0xa0f8>
0x15190 <_ZdaPv+0xa0f8>
<_ZdaPv+0x9fd8>
0x15070 <_ZdaPv+0x9fd8>
<_ZdaPv+0x9ffc>
<_ZdaPv+0x9fe4>
<_ZdaPv+0xa100>
<_ZdaPv+0x9fe8>
<_ZdaPv+0x9ff8>
<_ZdaPv+0x9ffc>
<_ZdaPv+0x9ffc>
<_ZdaPv+0x9ffc>
<_ZdaPv+0xa090>
<_ZdaPv+0xa0f4>
<_ZdaPv+0xa0f4>
<_ZdaPv+0x9ff8>
<_ZdaPv+0x9ffc>
0x15644 <_ZdaPv+0xa5ac>
0x15644 <_ZdaPv+0xa5ac>
0x15644 <_ZdaPv+0xa5ac>
0x1554c <_ZdaPv+0xa4b4>
0x152d0 <_ZdaPv+0xa238>
<_ZdaPv+0xa458>
<_ZdaPv+0xa2f4>
<_ZdaPv+0xa304>
<_ZdaPv+0xa19c>
0x153a0 <_ZdaPv+0xa308>
<_ZdaPv+0xa458>
<_ZdaPv+0xa2fc>
<_ZdaPv+0xa3b0>
<_ZdaPv+0xa25c>
0x1544c <_ZdaPv+0xa3b4>
<_ZdaPv+0xa458>
<_ZdaPv+0xa39c>
<_ZdaPv+0xa448>
<_ZdaPv+0xa364>
<_ZdaPv+0xa458>
#1, 0x15434 <_ZdaPv+0xa39c>
<_ZdaPv+0xa458>
<_ZdaPv+0xa458>
<_ZdaPv+0xa410>
<_ZdaPv+0xa458>
#1, 0x154e0 <_ZdaPv+0xa448>
<_ZdaPv+0xa458>
<_ZdaPv+0xa484>
<_ZdaPv+0xa4d4>
<_ZdaPv+0xa49c>
<_ZdaPv+0xa4e0>
<_ZdaPv+0xa4c4>
<_ZdaPv+0xa470>
<_ZdaPv+0xa52c>
<_ZdaPv+0xa52c>
<_ZdaPv+0xa52c>
<_ZdaPv+0xa4f4>
<_ZdaPv+0xa528>
<_ZdaPv+0xa524>
<_ZdaPv+0xa52c>
<_ZdaPv+0xa5a8>
<_ZdaPv+0xa5cc>
0x15994 <_ZdaPv+0xa8fc>
0x15994 <_ZdaPv+0xa8fc>
0x15994 <_ZdaPv+0xa8fc>
0x15894 <_ZdaPv+0xa7fc>
<_ZdaPv+0xa630>
<_ZdaPv+0xa78c>
<_ZdaPv+0xa6ec>
<_ZdaPv+0xa64c>
0x15838 <_ZdaPv+0xa7a0>
<_ZdaPv+0xa6f8>
<_ZdaPv+0xa750>
<_ZdaPv+0xa750>
<_ZdaPv+0xa7a0>
#1, 0x15824 <_ZdaPv+0xa78c>
<_ZdaPv+0xa7a0>
<_ZdaPv+0xa7cc>
<_ZdaPv+0xa81c>
<_ZdaPv+0xa7e4>
<_ZdaPv+0xa828>
<_ZdaPv+0xa80c>
<_ZdaPv+0xa7b8>
<_ZdaPv+0xa874>
<_ZdaPv+0xa874>
<_ZdaPv+0xa874>
<_ZdaPv+0xa83c>
<_ZdaPv+0xa870>
<_ZdaPv+0xa86c>
<_ZdaPv+0xa874>
<_ZdaPv+0xa8f8>
<_ZdaPv+0xa91c>
0x3000 <_ZdaPv+0xa8dc>
<_ZdaPv+0xa948>
<_ZdaPv+0xaa64>
<_ZdaPv+0xaa64>
<_ZdaPv+0xaa64>
<_ZdaPv+0xaa64>
<_ZdaPv+0xaa64>
<_ZdaPv+0xaa64>
<_ZdaPv+0xaa64>
<_ZdaPv+0xaa64>
<_ZdaPv+0xaa64>
<_ZdaPv+0xaa64>
<_ZdaPv+0xaa64>
<_ZdaPv+0xaa64>
<_ZdaPv+0xaab0>
0x1736c <_ZdaPv+0xc2d4>
0x1736c <_ZdaPv+0xc2d4>
0x1736c <_ZdaPv+0xc2d4>
<_ZdaPv+0xabe8>
<_ZdaPv+0xab54>
<_ZdaPv+0xad84>
0x1628c <_ZdaPv+0xb1f4>
<_ZdaPv+0xaf20>
<_ZdaPv+0xaf24>
<_ZdaPv+0xaf34>
<_ZdaPv+0xaf3c>
<_ZdaPv+0xaf18>
0x15fd4 <_ZdaPv+0xaf3c>
<_ZdaPv+0xc728>
<_ZdaPv+0xaf78>
<_ZdaPv+0xaf98>
<_ZdaPv+0xaf64>
<_ZdaPv+0xca70>
0x15ffc <_ZdaPv+0xaf64>
<_ZdaPv+0xafc0>
<_ZdaPv+0xafe0>
<_ZdaPv+0xafac>
<_ZdaPv+0xcdb8>
0x16044 <_ZdaPv+0xafac>
<_ZdaPv+0xb008>
<_ZdaPv+0xb028>
<_ZdaPv+0xaff4>
<_ZdaPv+0xd228>
0x1608c <_ZdaPv+0xaff4>
<_ZdaPv+0xb050>
<_ZdaPv+0xb070>
<_ZdaPv+0xb03c>
<_ZdaPv+0xd410>
0x160d4 <_ZdaPv+0xb03c>
<_ZdaPv+0xb098>
<_ZdaPv+0xb0b8>
<_ZdaPv+0xb084>
<_ZdaPv+0xd8c8>
0x1611c <_ZdaPv+0xb084>
<_ZdaPv+0xb0e0>
<_ZdaPv+0xb170>
<_ZdaPv+0xb170>
<_ZdaPv+0xb140>
<_ZdaPv+0xb128>
<_ZdaPv+0xb170>
0x162a4 <_ZdaPv+0xb20c>
<_ZdaPv+0xb170>
<_ZdaPv+0xb16c>
<_ZdaPv+0xc310>
<_ZdaPv+0xc310>
0x162b8 <_ZdaPv+0xb220>
<_ZdaPv+0xb0d8>
<_ZdaPv+0xb0d8>
<_ZdaPv+0xb0cc>
<_ZdaPv+0xb1d8>
<_ZdaPv+0xb0d8>
<_ZdaPv+0xc310>
<_ZdaPv+0xb1ec>
<_ZdaPv+0xc310>
<_ZdaPv+0xb0d8>
<_ZdaPv+0xaf34>
<_ZdaPv+0xaf18>
0x162b8 <_ZdaPv+0xb220>
0x162b8 <_ZdaPv+0xb220>
<_ZdaPv+0xb50c>
<_ZdaPv+0xb568>
0x1660c <_ZdaPv+0xb574>
0x3000 <_ZdaPv+0xb204>
<_ZdaPv+0xb27c>
<_ZdaPv+0xb574>
<_ZdaPv+0xb2ac>
<_ZdaPv+0xb2d4>
<_ZdaPv+0xb2fc>
<_ZdaPv+0xb324>
<_ZdaPv+0xb34c>
<_ZdaPv+0xb26c>
<_ZdaPv+0xb37c>
<_ZdaPv+0xb3a0>
<_ZdaPv+0xb3c4>
<_ZdaPv+0xb3e8>
<_ZdaPv+0xb40c>
<_ZdaPv+0xb430>
<_ZdaPv+0xb454>
<_ZdaPv+0xb478>
<_ZdaPv+0xb49c>
<_ZdaPv+0xb4c0>
<_ZdaPv+0xb4e4>
<_ZdaPv+0xb2a4>
<_ZdaPv+0xb2a4>
<_ZdaPv+0xb578>
0x165c4 <_ZdaPv+0xb52c>
<_ZdaPv+0xc2d0>
0x165b4 <_ZdaPv+0xb51c>
<_ZdaPv+0xb52c>
<_ZdaPv+0xb60c>
<_ZdaPv+0xb5e8>
<_ZdaPv+0xb618>
<_ZdaPv+0xb5c0>
<_ZdaPv+0xb5d8>
<_ZdaPv+0xb5d4>
#0, 0x17168 <_ZdaPv+0xc0d0>
0x17168 <_ZdaPv+0xc0d0>
0x17168 <_ZdaPv+0xc0d0>
0x17168 <_ZdaPv+0xc0d0>
0x17168 <_ZdaPv+0xc0d0>
0x17168 <_ZdaPv+0xc0d0>
0x17168 <_ZdaPv+0xc0d0>
0x17168 <_ZdaPv+0xc0d0>
0x17168 <_ZdaPv+0xc0d0>
0x17168 <_ZdaPv+0xc0d0>
0x17168 <_ZdaPv+0xc0d0>
0x17168 <_ZdaPv+0xc0d0>
0x17168 <_ZdaPv+0xc0d0>
0x17168 <_ZdaPv+0xc0d0>
0x17168 <_ZdaPv+0xc0d0>
0x17168 <_ZdaPv+0xc0d0>
0x17168 <_ZdaPv+0xc0d0>
0x17168 <_ZdaPv+0xc0d0>
0x17168 <_ZdaPv+0xc0d0>
0x17168 <_ZdaPv+0xc0d0>
0x17168 <_ZdaPv+0xc0d0>
0x17168 <_ZdaPv+0xc0d0>
0x17168 <_ZdaPv+0xc0d0>
0x17168 <_ZdaPv+0xc0d0>
0x17168 <_ZdaPv+0xc0d0>
0x17168 <_ZdaPv+0xc0d0>
0x17168 <_ZdaPv+0xc0d0>
0x17168 <_ZdaPv+0xc0d0>
0x17168 <_ZdaPv+0xc0d0>
0x17168 <_ZdaPv+0xc0d0>
0x17168 <_ZdaPv+0xc0d0>
0x17168 <_ZdaPv+0xc0d0>
0x17168 <_ZdaPv+0xc0d0>
0x17168 <_ZdaPv+0xc0d0>
0x17168 <_ZdaPv+0xc0d0>
0x17168 <_ZdaPv+0xc0d0>
0x17168 <_ZdaPv+0xc0d0>
0x17168 <_ZdaPv+0xc0d0>
0x17168 <_ZdaPv+0xc0d0>
0x17168 <_ZdaPv+0xc0d0>
0x17168 <_ZdaPv+0xc0d0>
0x17168 <_ZdaPv+0xc0d0>
0x17168 <_ZdaPv+0xc0d0>
0x17168 <_ZdaPv+0xc0d0>
0x17168 <_ZdaPv+0xc0d0>
0x17168 <_ZdaPv+0xc0d0>
0x17168 <_ZdaPv+0xc0d0>
0x17168 <_ZdaPv+0xc0d0>
0x17168 <_ZdaPv+0xc0d0>
0x17168 <_ZdaPv+0xc0d0>
0x17168 <_ZdaPv+0xc0d0>
0x17168 <_ZdaPv+0xc0d0>
0x17168 <_ZdaPv+0xc0d0>
#0, 0x17168 <_ZdaPv+0xc0d0>
<_ZdaPv+0xc23c>
<_ZdaPv+0xbe08>
<_ZdaPv+0xb560>
<_ZdaPv+0xc0e4>
<_ZdaPv+0xc308>
0x177b4 <_ZdaPv+0xc71c>
0x177b4 <_ZdaPv+0xc71c>
0x177b4 <_ZdaPv+0xc71c>
<_ZdaPv+0xc560>
<_ZdaPv+0xc574>
<_ZdaPv+0xc574>
#0, 0x17648 <_ZdaPv+0xc5b0>
#0, 0x17648 <_ZdaPv+0xc5b0>
<_ZdaPv+0xc394>
<_ZdaPv+0xc714>
0x3000 <_ZdaPv+0xc528>
<_ZdaPv+0xc6f4>
<_ZdaPv+0xc708>
<_ZdaPv+0xc718>
<_ZdaPv+0xc5b4>
<_ZdaPv+0xc714>
0x17ae4 <_ZdaPv+0xca4c>
0x17ae4 <_ZdaPv+0xca4c>
0x17ae4 <_ZdaPv+0xca4c>
0x179ec <_ZdaPv+0xc954>
<_ZdaPv+0xc788>
<_ZdaPv+0xc8e4>
<_ZdaPv+0xc844>
<_ZdaPv+0xc7a4>
0x17990 <_ZdaPv+0xc8f8>
<_ZdaPv+0xc850>
<_ZdaPv+0xc8a8>
<_ZdaPv+0xc8a8>
<_ZdaPv+0xc8f8>
#1, 0x1797c <_ZdaPv+0xc8e4>
<_ZdaPv+0xc8f8>
<_ZdaPv+0xc924>
<_ZdaPv+0xc974>
<_ZdaPv+0xc93c>
<_ZdaPv+0xc980>
<_ZdaPv+0xc964>
<_ZdaPv+0xc910>
<_ZdaPv+0xc9cc>
<_ZdaPv+0xc9cc>
<_ZdaPv+0xc9cc>
<_ZdaPv+0xc994>
<_ZdaPv+0xc9c8>
<_ZdaPv+0xc9c4>
<_ZdaPv+0xc9cc>
<_ZdaPv+0xca48>
<_ZdaPv+0xca6c>
0x17e2c <_ZdaPv+0xcd94>
0x17e2c <_ZdaPv+0xcd94>
0x17e2c <_ZdaPv+0xcd94>
0x17d34 <_ZdaPv+0xcc9c>
<_ZdaPv+0xcad0>
<_ZdaPv+0xcc2c>
<_ZdaPv+0xcb8c>
<_ZdaPv+0xcaec>
0x17cd8 <_ZdaPv+0xcc40>
<_ZdaPv+0xcb98>
<_ZdaPv+0xcbf0>
<_ZdaPv+0xcbf0>
<_ZdaPv+0xcc40>
#1, 0x17cc4 <_ZdaPv+0xcc2c>
<_ZdaPv+0xcc40>
<_ZdaPv+0xcc6c>
<_ZdaPv+0xccbc>
<_ZdaPv+0xcc84>
<_ZdaPv+0xccc8>
<_ZdaPv+0xccac>
<_ZdaPv+0xcc58>
<_ZdaPv+0xcd14>
<_ZdaPv+0xcd14>
<_ZdaPv+0xcd14>
<_ZdaPv+0xccdc>
<_ZdaPv+0xcd10>
<_ZdaPv+0xcd0c>
<_ZdaPv+0xcd14>
<_ZdaPv+0xcd90>
<_ZdaPv+0xcdb4>
0x1829c <_ZdaPv+0xd204>
0x1829c <_ZdaPv+0xd204>
0x1829c <_ZdaPv+0xd204>
0x181a4 <_ZdaPv+0xd10c>
0x17fb8 <_ZdaPv+0xcf20>
<_ZdaPv+0xcea0>
<_ZdaPv+0xd0b0>
<_ZdaPv+0xcfa8>
<_ZdaPv+0xd00c>
<_ZdaPv+0xce44>
0x18148 <_ZdaPv+0xd0b0>
<_ZdaPv+0xd048>
<_ZdaPv+0xd010>
<_ZdaPv+0xcfa0>
<_ZdaPv+0xcfb8>
<_ZdaPv+0xcec4>
0x18148 <_ZdaPv+0xd0b0>
<_ZdaPv+0xcff4>
<_ZdaPv+0xcfbc>
<_ZdaPv+0xcfb0>
<_ZdaPv+0xd060>
<_ZdaPv+0xcf44>
0x18148 <_ZdaPv+0xd0b0>
<_ZdaPv+0xd09c>
<_ZdaPv+0xd064>
<_ZdaPv+0xcff4>
<_ZdaPv+0xd048>
<_ZdaPv+0xd09c>
<_ZdaPv+0xd0b0>
<_ZdaPv+0xd0b0>
<_ZdaPv+0xd0b0>
<_ZdaPv+0xd0b0>
<_ZdaPv+0xd0b0>
<_ZdaPv+0xd0dc>
<_ZdaPv+0xd12c>
<_ZdaPv+0xd0f4>
<_ZdaPv+0xd138>
<_ZdaPv+0xd11c>
<_ZdaPv+0xd0c8>
<_ZdaPv+0xd184>
<_ZdaPv+0xd184>
<_ZdaPv+0xd184>
<_ZdaPv+0xd14c>
<_ZdaPv+0xd180>
<_ZdaPv+0xd17c>
<_ZdaPv+0xd184>
<_ZdaPv+0xd200>
<_ZdaPv+0xd224>
0x18488 <_ZdaPv+0xd3f0>
0x18488 <_ZdaPv+0xd3f0>
0x18488 <_ZdaPv+0xd3f0>
<_ZdaPv+0xd2d0>
0x18368 <_ZdaPv+0xd2d0>
<_ZdaPv+0xd2f4>
<_ZdaPv+0xd2dc>
<_ZdaPv+0xd3f8>
<_ZdaPv+0xd2e0>
<_ZdaPv+0xd2f0>
<_ZdaPv+0xd2f4>
<_ZdaPv+0xd2f4>
<_ZdaPv+0xd2f4>
<_ZdaPv+0xd388>
<_ZdaPv+0xd3ec>
<_ZdaPv+0xd3ec>
<_ZdaPv+0xd2f0>
<_ZdaPv+0xd2f4>
0x1893c <_ZdaPv+0xd8a4>
0x1893c <_ZdaPv+0xd8a4>
0x1893c <_ZdaPv+0xd8a4>
0x18844 <_ZdaPv+0xd7ac>
0x185c8 <_ZdaPv+0xd530>
<_ZdaPv+0xd750>
<_ZdaPv+0xd5ec>
<_ZdaPv+0xd5fc>
<_ZdaPv+0xd494>
0x18698 <_ZdaPv+0xd600>
<_ZdaPv+0xd750>
<_ZdaPv+0xd5f4>
<_ZdaPv+0xd6a8>
<_ZdaPv+0xd554>
0x18744 <_ZdaPv+0xd6ac>
<_ZdaPv+0xd750>
<_ZdaPv+0xd694>
<_ZdaPv+0xd740>
<_ZdaPv+0xd65c>
<_ZdaPv+0xd750>
#1, 0x1872c <_ZdaPv+0xd694>
<_ZdaPv+0xd750>
<_ZdaPv+0xd750>
<_ZdaPv+0xd708>
<_ZdaPv+0xd750>
#1, 0x187d8 <_ZdaPv+0xd740>
<_ZdaPv+0xd750>
<_ZdaPv+0xd77c>
<_ZdaPv+0xd7cc>
<_ZdaPv+0xd794>
<_ZdaPv+0xd7d8>
<_ZdaPv+0xd7bc>
<_ZdaPv+0xd768>
<_ZdaPv+0xd824>
<_ZdaPv+0xd824>
<_ZdaPv+0xd824>
<_ZdaPv+0xd7ec>
<_ZdaPv+0xd820>
<_ZdaPv+0xd81c>
<_ZdaPv+0xd824>
<_ZdaPv+0xd8a0>
<_ZdaPv+0xd8c4>
0x18bf8 <_ZdaPv+0xdb60>
0x18bf8 <_ZdaPv+0xdb60>
0x18bf8 <_ZdaPv+0xdb60>
0x18af8 <_ZdaPv+0xda60>
<_ZdaPv+0xd928>
<_ZdaPv+0xd9f0>
<_ZdaPv+0xd9b4>
<_ZdaPv+0xd958>
0x18a9c <_ZdaPv+0xda04>
<_ZdaPv+0xd9f0>
<_ZdaPv+0xd9b8>
<_ZdaPv+0xda04>
<_ZdaPv+0xda30>
<_ZdaPv+0xda80>
<_ZdaPv+0xda48>
<_ZdaPv+0xda8c>
<_ZdaPv+0xda70>
<_ZdaPv+0xda1c>
<_ZdaPv+0xdad8>
<_ZdaPv+0xdad8>
<_ZdaPv+0xdad8>
<_ZdaPv+0xdaa0>
<_ZdaPv+0xdad4>
<_ZdaPv+0xdad0>
<_ZdaPv+0xdad8>
<_ZdaPv+0xdb5c>
<_ZdaPv+0xdb80>
0x3000 <_ZdaPv+0xdb38>
<_ZdaPv+0xdbb0>
<_ZdaPv+0xdc8c>
<_ZdaPv+0xdc8c>
<_ZdaPv+0xdc8c>
<_ZdaPv+0xdc8c>
<_ZdaPv+0xdc8c>
<_ZdaPv+0xdc8c>
<_ZdaPv+0xdc8c>
<_ZdaPv+0xdc8c>
<_ZdaPv+0xdc8c>
<_ZdaPv+0xdc8c>
<_ZdaPv+0xdc8c>
0x191c8 <_ZdaPv+0xe130>
0x191c8 <_ZdaPv+0xe130>
0x191c8 <_ZdaPv+0xe130>
0x192fc <_ZdaPv+0xe264>
<_ZdaPv+0xe02c>
<_ZdaPv+0xe030>
<_ZdaPv+0xe040>
<_ZdaPv+0xe048>
<_ZdaPv+0xe024>
0x190e0 <_ZdaPv+0xe048>
<_ZdaPv+0xe418>
<_ZdaPv+0xe084>
<_ZdaPv+0xe0a4>
<_ZdaPv+0xe070>
<_ZdaPv+0xe760>
0x19108 <_ZdaPv+0xe070>
<_ZdaPv+0xe0cc>
<_ZdaPv+0xe0ec>
<_ZdaPv+0xe0b8>
<_ZdaPv+0xeaa8>
0x19150 <_ZdaPv+0xe0b8>
<_ZdaPv+0xe110>
<_ZdaPv+0xe130>
<_ZdaPv+0xe0fc>
<_ZdaPv+0xef18>
0x19194 <_ZdaPv+0xe0fc>
<_ZdaPv+0xe150>
<_ZdaPv+0xe1e0>
<_ZdaPv+0xe1e0>
<_ZdaPv+0xe1b0>
<_ZdaPv+0xe198>
<_ZdaPv+0xe1e0>
0x19314 <_ZdaPv+0xe27c>
<_ZdaPv+0xe1e0>
<_ZdaPv+0xe1dc>
<_ZdaPv+0xe2d8>
<_ZdaPv+0xe2d8>
0x19328 <_ZdaPv+0xe290>
<_ZdaPv+0xe148>
<_ZdaPv+0xe148>
<_ZdaPv+0xe13c>
<_ZdaPv+0xe248>
<_ZdaPv+0xe148>
<_ZdaPv+0xe2d8>
<_ZdaPv+0xe25c>
<_ZdaPv+0xe2d8>
<_ZdaPv+0xe148>
<_ZdaPv+0xe040>
<_ZdaPv+0xe024>
0x19328 <_ZdaPv+0xe290>
0x19328 <_ZdaPv+0xe290>
0x1933c <_ZdaPv+0xe2a4>
0x1933c <_ZdaPv+0xe2a4>
<_ZdaPv+0xe2d4>
0x19480 <_ZdaPv+0xe3e8>
0x19480 <_ZdaPv+0xe3e8>
0x19480 <_ZdaPv+0xe3e8>
<_ZdaPv+0xe3dc>
<_ZdaPv+0xe3c4>
<_ZdaPv+0xe3c4>
0x3000 <_ZdaPv+0xe370>
<_ZdaPv+0xe3f0>
<_ZdaPv+0xe410>
<_ZdaPv+0xe3e0>
0x197d4 <_ZdaPv+0xe73c>
0x197d4 <_ZdaPv+0xe73c>
0x197d4 <_ZdaPv+0xe73c>
0x196dc <_ZdaPv+0xe644>
<_ZdaPv+0xe478>
<_ZdaPv+0xe5d4>
<_ZdaPv+0xe534>
<_ZdaPv+0xe494>
0x19680 <_ZdaPv+0xe5e8>
<_ZdaPv+0xe540>
<_ZdaPv+0xe598>
<_ZdaPv+0xe598>
<_ZdaPv+0xe5e8>
#1, 0x1966c <_ZdaPv+0xe5d4>
<_ZdaPv+0xe5e8>
<_ZdaPv+0xe614>
<_ZdaPv+0xe664>
<_ZdaPv+0xe62c>
<_ZdaPv+0xe670>
<_ZdaPv+0xe654>
<_ZdaPv+0xe600>
<_ZdaPv+0xe6bc>
<_ZdaPv+0xe6bc>
<_ZdaPv+0xe6bc>
<_ZdaPv+0xe684>
<_ZdaPv+0xe6b8>
<_ZdaPv+0xe6b4>
<_ZdaPv+0xe6bc>
<_ZdaPv+0xe738>
<_ZdaPv+0xe75c>
0x19b1c <_ZdaPv+0xea84>
0x19b1c <_ZdaPv+0xea84>
0x19b1c <_ZdaPv+0xea84>
0x19a24 <_ZdaPv+0xe98c>
<_ZdaPv+0xe7c0>
<_ZdaPv+0xe91c>
<_ZdaPv+0xe87c>
<_ZdaPv+0xe7dc>
0x199c8 <_ZdaPv+0xe930>
<_ZdaPv+0xe888>
<_ZdaPv+0xe8e0>
<_ZdaPv+0xe8e0>
<_ZdaPv+0xe930>
#1, 0x199b4 <_ZdaPv+0xe91c>
<_ZdaPv+0xe930>
<_ZdaPv+0xe95c>
<_ZdaPv+0xe9ac>
<_ZdaPv+0xe974>
<_ZdaPv+0xe9b8>
<_ZdaPv+0xe99c>
<_ZdaPv+0xe948>
<_ZdaPv+0xea04>
<_ZdaPv+0xea04>
<_ZdaPv+0xea04>
<_ZdaPv+0xe9cc>
<_ZdaPv+0xea00>
<_ZdaPv+0xe9fc>
<_ZdaPv+0xea04>
<_ZdaPv+0xea80>
<_ZdaPv+0xeaa4>
0x19f8c <_ZdaPv+0xeef4>
0x19f8c <_ZdaPv+0xeef4>
0x19f8c <_ZdaPv+0xeef4>
0x19e94 <_ZdaPv+0xedfc>
0x19ca8 <_ZdaPv+0xec10>
<_ZdaPv+0xeb90>
<_ZdaPv+0xeda0>
<_ZdaPv+0xec98>
<_ZdaPv+0xecfc>
<_ZdaPv+0xeb34>
0x19e38 <_ZdaPv+0xeda0>
<_ZdaPv+0xed38>
<_ZdaPv+0xed00>
<_ZdaPv+0xec90>
<_ZdaPv+0xeca8>
<_ZdaPv+0xebb4>
0x19e38 <_ZdaPv+0xeda0>
<_ZdaPv+0xece4>
<_ZdaPv+0xecac>
<_ZdaPv+0xeca0>
<_ZdaPv+0xed50>
<_ZdaPv+0xec34>
0x19e38 <_ZdaPv+0xeda0>
<_ZdaPv+0xed8c>
<_ZdaPv+0xed54>
<_ZdaPv+0xece4>
<_ZdaPv+0xed38>
<_ZdaPv+0xed8c>
<_ZdaPv+0xeda0>
<_ZdaPv+0xeda0>
<_ZdaPv+0xeda0>
<_ZdaPv+0xeda0>
<_ZdaPv+0xeda0>
<_ZdaPv+0xedcc>
<_ZdaPv+0xee1c>
<_ZdaPv+0xede4>
<_ZdaPv+0xee28>
<_ZdaPv+0xee0c>
<_ZdaPv+0xedb8>
<_ZdaPv+0xee74>
<_ZdaPv+0xee74>
<_ZdaPv+0xee74>
<_ZdaPv+0xee3c>
<_ZdaPv+0xee70>
<_ZdaPv+0xee6c>
<_ZdaPv+0xee74>
<_ZdaPv+0xeef0>
<_ZdaPv+0xef14>
0x1a480 <_ZdaPv+0xf3e8>
0x1a480 <_ZdaPv+0xf3e8>
0x1a480 <_ZdaPv+0xf3e8>
0x1a380 <_ZdaPv+0xf2e8>
0x1a0ec <_ZdaPv+0xf054>
<_ZdaPv+0xf28c>
<_ZdaPv+0xf110>
<_ZdaPv+0xf120>
<_ZdaPv+0xefac>
0x1a1bc <_ZdaPv+0xf124>
<_ZdaPv+0xf28c>
<_ZdaPv+0xf118>
<_ZdaPv+0xf1d8>
<_ZdaPv+0xf078>
0x1a274 <_ZdaPv+0xf1dc>
<_ZdaPv+0xf28c>
<_ZdaPv+0xf1c0>
<_ZdaPv+0xf278>
<_ZdaPv+0xf184>
<_ZdaPv+0xf28c>
#1, 0x1a258 <_ZdaPv+0xf1c0>
<_ZdaPv+0xf28c>
<_ZdaPv+0xf28c>
<_ZdaPv+0xf23c>
<_ZdaPv+0xf28c>
#1, 0x1a310 <_ZdaPv+0xf278>
<_ZdaPv+0xf28c>
<_ZdaPv+0xf2b8>
<_ZdaPv+0xf308>
<_ZdaPv+0xf2d0>
<_ZdaPv+0xf314>
<_ZdaPv+0xf2f8>
<_ZdaPv+0xf2a4>
<_ZdaPv+0xf360>
<_ZdaPv+0xf360>
<_ZdaPv+0xf360>
<_ZdaPv+0xf328>
<_ZdaPv+0xf35c>
<_ZdaPv+0xf358>
<_ZdaPv+0xf360>
<_ZdaPv+0xf3e4>
<_ZdaPv+0xf40c>
0x3000 <_ZdaPv+0xf3b8>
<_ZdaPv+0xf438>
<_ZdaPv+0xf4cc>
<_ZdaPv+0xf4cc>
<_ZdaPv+0xf4cc>
<_ZdaPv+0xf4cc>
<_ZdaPv+0xf4cc>
<_ZdaPv+0xf4cc>
<_ZdaPv+0xf4f8>
0x1acb4 <_ZdaPv+0xfc1c>
0x1acb4 <_ZdaPv+0xfc1c>
0x1a8fc <_ZdaPv+0xf864>
0x1ac54 <_ZdaPv+0xfbbc>
<_ZdaPv+0xf87c>
<_ZdaPv+0xf880>
<_ZdaPv+0xf890>
<_ZdaPv+0xf898>
<_ZdaPv+0xfc2c>
<_ZdaPv+0xf85c>
0x1a930 <_ZdaPv+0xf898>
<_ZdaPv+0xfdd0>
<_ZdaPv+0xf8d4>
<_ZdaPv+0xf8f4>
<_ZdaPv+0xf8c0>
<_ZdaPv+0x10118>
0x1a958 <_ZdaPv+0xf8c0>
<_ZdaPv+0xf91c>
<_ZdaPv+0xf93c>
<_ZdaPv+0xf908>
<_ZdaPv+0x10460>
0x1a9a0 <_ZdaPv+0xf908>
<_ZdaPv+0xf960>
<_ZdaPv+0xf980>
<_ZdaPv+0xf94c>
<_ZdaPv+0x108d0>
0x1a9e4 <_ZdaPv+0xf94c>
0x3000 <_ZdaPv+0xf924>
<_ZdaPv+0xf9b4>
<_ZdaPv+0xfc68>
0x1ac90 <_ZdaPv+0xfbf8>
<_ZdaPv+0xf9a8>
<_ZdaPv+0xf9a8>
<_ZdaPv+0xfa44>
<_ZdaPv+0xfa00>
<_ZdaPv+0xf9a8>
0x1ac6c <_ZdaPv+0xfbd4>
<_ZdaPv+0xf9a8>
0x1aa40 <_ZdaPv+0xf9a8>
0x1aa40 <_ZdaPv+0xf9a8>
0x1aa40 <_ZdaPv+0xf9a8>
<_ZdaPv+0xfa88>
<_ZdaPv+0xfab4>
<_ZdaPv+0xfab4>
<_ZdaPv+0xfc68>
<_ZdaPv+0xf9a8>
0x1abf8 <_ZdaPv+0xfb60>
0x1abf8 <_ZdaPv+0xfb60>
0x1abf8 <_ZdaPv+0xfb60>
<_ZdaPv+0xfaa0>
<_ZdaPv+0xfae0>
<_ZdaPv+0xfae0>
<_ZdaPv+0xfc68>
<_ZdaPv+0xfb60>
<_ZdaPv+0xfad8>
<_ZdaPv+0xfb58>
<_ZdaPv+0xfb04>
<_ZdaPv+0xf9a8>
<_ZdaPv+0xfb34>
<_ZdaPv+0xfb58>
<_ZdaPv+0xf9a8>
<_ZdaPv+0xf9a8>
<_ZdaPv+0xfb60>
0x1aa40 <_ZdaPv+0xf9a8>
0x1aa40 <_ZdaPv+0xf9a8>
<_ZdaPv+0xf9a8>
<_ZdaPv+0xfb90>
<_ZdaPv+0xf9a0>
<_ZdaPv+0xf9a8>
<_ZdaPv+0xf9a8>
<_ZdaPv+0xf890>
<_ZdaPv+0xf85c>
0x1ac90 <_ZdaPv+0xfbf8>
0x1ac90 <_ZdaPv+0xfbf8>
0x1ace8 <_ZdaPv+0xfc50>
<_ZdaPv+0xf878>
<_ZdaPv+0xfc2c>
<_ZdaPv+0xf878>
0x1ae5c <_ZdaPv+0xfdc4>
0x1ae5c <_ZdaPv+0xfdc4>
0x1ae5c <_ZdaPv+0xfdc4>
0x1b18c <_ZdaPv+0x100f4>
0x1b18c <_ZdaPv+0x100f4>
0x1b18c <_ZdaPv+0x100f4>
0x1b094 <_ZdaPv+0xfffc>
<_ZdaPv+0xfe30>
<_ZdaPv+0xff8c>
<_ZdaPv+0xfeec>
<_ZdaPv+0xfe4c>
0x1b038 <_ZdaPv+0xffa0>
<_ZdaPv+0xfef8>
<_ZdaPv+0xff50>
<_ZdaPv+0xff50>
<_ZdaPv+0xffa0>
#1, 0x1b024 <_ZdaPv+0xff8c>
<_ZdaPv+0xffa0>
<_ZdaPv+0xffcc>
<_ZdaPv+0x1001c>
<_ZdaPv+0xffe4>
<_ZdaPv+0x10028>
<_ZdaPv+0x1000c>
<_ZdaPv+0xffb8>
<_ZdaPv+0x10074>
<_ZdaPv+0x10074>
<_ZdaPv+0x10074>
<_ZdaPv+0x1003c>
<_ZdaPv+0x10070>
<_ZdaPv+0x1006c>
<_ZdaPv+0x10074>
<_ZdaPv+0x100f0>
<_ZdaPv+0x10114>
0x1b4d4 <_ZdaPv+0x1043c>
0x1b4d4 <_ZdaPv+0x1043c>
0x1b4d4 <_ZdaPv+0x1043c>
0x1b3dc <_ZdaPv+0x10344>
<_ZdaPv+0x10178>
<_ZdaPv+0x102d4>
<_ZdaPv+0x10234>
<_ZdaPv+0x10194>
0x1b380 <_ZdaPv+0x102e8>
<_ZdaPv+0x10240>
<_ZdaPv+0x10298>
<_ZdaPv+0x10298>
<_ZdaPv+0x102e8>
#1, 0x1b36c <_ZdaPv+0x102d4>
<_ZdaPv+0x102e8>
<_ZdaPv+0x10314>
<_ZdaPv+0x10364>
<_ZdaPv+0x1032c>
<_ZdaPv+0x10370>
<_ZdaPv+0x10354>
<_ZdaPv+0x10300>
<_ZdaPv+0x103bc>
<_ZdaPv+0x103bc>
<_ZdaPv+0x103bc>
<_ZdaPv+0x10384>
<_ZdaPv+0x103b8>
<_ZdaPv+0x103b4>
<_ZdaPv+0x103bc>
<_ZdaPv+0x10438>
<_ZdaPv+0x1045c>
0x1b944 <_ZdaPv+0x108ac>
0x1b944 <_ZdaPv+0x108ac>
0x1b944 <_ZdaPv+0x108ac>
0x1b84c <_ZdaPv+0x107b4>
0x1b660 <_ZdaPv+0x105c8>
<_ZdaPv+0x10548>
<_ZdaPv+0x10758>
<_ZdaPv+0x10650>
<_ZdaPv+0x106b4>
<_ZdaPv+0x104ec>
0x1b7f0 <_ZdaPv+0x10758>
<_ZdaPv+0x106f0>
<_ZdaPv+0x106b8>
<_ZdaPv+0x10648>
<_ZdaPv+0x10660>
<_ZdaPv+0x1056c>
0x1b7f0 <_ZdaPv+0x10758>
<_ZdaPv+0x1069c>
<_ZdaPv+0x10664>
<_ZdaPv+0x10658>
<_ZdaPv+0x10708>
<_ZdaPv+0x105ec>
0x1b7f0 <_ZdaPv+0x10758>
<_ZdaPv+0x10744>
<_ZdaPv+0x1070c>
<_ZdaPv+0x1069c>
<_ZdaPv+0x106f0>
<_ZdaPv+0x10744>
<_ZdaPv+0x10758>
<_ZdaPv+0x10758>
<_ZdaPv+0x10758>
<_ZdaPv+0x10758>
<_ZdaPv+0x10758>
<_ZdaPv+0x10784>
<_ZdaPv+0x107d4>
<_ZdaPv+0x1079c>
<_ZdaPv+0x107e0>
<_ZdaPv+0x107c4>
<_ZdaPv+0x10770>
<_ZdaPv+0x1082c>
<_ZdaPv+0x1082c>
<_ZdaPv+0x1082c>
<_ZdaPv+0x107f4>
<_ZdaPv+0x10828>
<_ZdaPv+0x10824>
<_ZdaPv+0x1082c>
<_ZdaPv+0x108a8>
<_ZdaPv+0x108cc>
0x1bcd8 <_ZdaPv+0x10c40>
0x1bcd8 <_ZdaPv+0x10c40>
0x1bcd8 <_ZdaPv+0x10c40>
0x1bbd8 <_ZdaPv+0x10b40>
0x1ba48 <_ZdaPv+0x109b0>
<_ZdaPv+0x10ae4>
<_ZdaPv+0x10a30>
<_ZdaPv+0x10a40>
<_ZdaPv+0x10954>
0x1bb7c <_ZdaPv+0x10ae4>
<_ZdaPv+0x10a7c>
<_ZdaPv+0x10a44>
<_ZdaPv+0x10a38>
<_ZdaPv+0x10a94>
<_ZdaPv+0x109d4>
0x1bb7c <_ZdaPv+0x10ae4>
<_ZdaPv+0x10ad0>
<_ZdaPv+0x10a98>
<_ZdaPv+0x10a7c>
<_ZdaPv+0x10ad0>
<_ZdaPv+0x10ae4>
<_ZdaPv+0x10ae4>
<_ZdaPv+0x10ae4>
<_ZdaPv+0x10b10>
<_ZdaPv+0x10b60>
<_ZdaPv+0x10b28>
<_ZdaPv+0x10b6c>
<_ZdaPv+0x10b50>
<_ZdaPv+0x10afc>
<_ZdaPv+0x10bb8>
<_ZdaPv+0x10bb8>
<_ZdaPv+0x10bb8>
<_ZdaPv+0x10b80>
<_ZdaPv+0x10bb4>
<_ZdaPv+0x10bb0>
<_ZdaPv+0x10bb8>
<_ZdaPv+0x10c3c>
<_ZdaPv+0x10c60>
0x3000 <_ZdaPv+0x10c0c>
<_ZdaPv+0x10c90>
<_ZdaPv+0x10d6c>
<_ZdaPv+0x10d6c>
<_ZdaPv+0x10d6c>
<_ZdaPv+0x10d6c>
<_ZdaPv+0x10d6c>
<_ZdaPv+0x10d6c>
<_ZdaPv+0x10d6c>
<_ZdaPv+0x10d6c>
<_ZdaPv+0x10d6c>
<_ZdaPv+0x10d6c>
<_ZdaPv+0x10d6c>
0x1c2a0 <_ZdaPv+0x11208>
0x1c2a0 <_ZdaPv+0x11208>
0x1c2a0 <_ZdaPv+0x11208>
0x1c3d4 <_ZdaPv+0x1133c>
<_ZdaPv+0x11104>
<_ZdaPv+0x11108>
<_ZdaPv+0x11118>
<_ZdaPv+0x11120>
<_ZdaPv+0x110fc>
0x1c1b8 <_ZdaPv+0x11120>
<_ZdaPv+0x114a8>
<_ZdaPv+0x1115c>
<_ZdaPv+0x1117c>
<_ZdaPv+0x11148>
<_ZdaPv+0x117f0>
0x1c1e0 <_ZdaPv+0x11148>
<_ZdaPv+0x111a4>
<_ZdaPv+0x111c4>
<_ZdaPv+0x11190>
<_ZdaPv+0x11b38>
0x1c228 <_ZdaPv+0x11190>
<_ZdaPv+0x111e8>
<_ZdaPv+0x11208>
<_ZdaPv+0x111d4>
<_ZdaPv+0x11fa8>
0x1c26c <_ZdaPv+0x111d4>
<_ZdaPv+0x11228>
<_ZdaPv+0x112b8>
<_ZdaPv+0x112b8>
<_ZdaPv+0x11288>
<_ZdaPv+0x11270>
<_ZdaPv+0x112b8>
0x1c3ec <_ZdaPv+0x11354>
<_ZdaPv+0x112b8>
<_ZdaPv+0x112b4>
<_ZdaPv+0x113b0>
<_ZdaPv+0x113b0>
0x1c400 <_ZdaPv+0x11368>
<_ZdaPv+0x11220>
<_ZdaPv+0x11220>
<_ZdaPv+0x11214>
<_ZdaPv+0x11320>
<_ZdaPv+0x11220>
<_ZdaPv+0x113b0>
<_ZdaPv+0x11334>
<_ZdaPv+0x113b0>
<_ZdaPv+0x11220>
<_ZdaPv+0x11118>
<_ZdaPv+0x110fc>
0x1c400 <_ZdaPv+0x11368>
0x1c400 <_ZdaPv+0x11368>
0x1c414 <_ZdaPv+0x1137c>
0x1c414 <_ZdaPv+0x1137c>
<_ZdaPv+0x113ac>
0x1c510 <_ZdaPv+0x11478>
0x1c510 <_ZdaPv+0x11478>
0x1c510 <_ZdaPv+0x11478>
<_ZdaPv+0x1146c>
<_ZdaPv+0x11454>
<_ZdaPv+0x11454>
0x3000 <_ZdaPv+0x113f4>
<_ZdaPv+0x11480>
<_ZdaPv+0x114a0>
<_ZdaPv+0x11470>
0x1c864 <_ZdaPv+0x117cc>
0x1c864 <_ZdaPv+0x117cc>
0x1c864 <_ZdaPv+0x117cc>
0x1c76c <_ZdaPv+0x116d4>
<_ZdaPv+0x11508>
<_ZdaPv+0x11664>
<_ZdaPv+0x115c4>
<_ZdaPv+0x11524>
0x1c710 <_ZdaPv+0x11678>
<_ZdaPv+0x115d0>
<_ZdaPv+0x11628>
<_ZdaPv+0x11628>
<_ZdaPv+0x11678>
#1, 0x1c6fc <_ZdaPv+0x11664>
<_ZdaPv+0x11678>
<_ZdaPv+0x116a4>
<_ZdaPv+0x116f4>
<_ZdaPv+0x116bc>
<_ZdaPv+0x11700>
<_ZdaPv+0x116e4>
<_ZdaPv+0x11690>
<_ZdaPv+0x1174c>
<_ZdaPv+0x1174c>
<_ZdaPv+0x1174c>
<_ZdaPv+0x11714>
<_ZdaPv+0x11748>
<_ZdaPv+0x11744>
<_ZdaPv+0x1174c>
<_ZdaPv+0x117c8>
<_ZdaPv+0x117ec>
0x1cbac <_ZdaPv+0x11b14>
0x1cbac <_ZdaPv+0x11b14>
0x1cbac <_ZdaPv+0x11b14>
0x1cab4 <_ZdaPv+0x11a1c>
<_ZdaPv+0x11850>
<_ZdaPv+0x119ac>
<_ZdaPv+0x1190c>
<_ZdaPv+0x1186c>
0x1ca58 <_ZdaPv+0x119c0>
<_ZdaPv+0x11918>
<_ZdaPv+0x11970>
<_ZdaPv+0x11970>
<_ZdaPv+0x119c0>
#1, 0x1ca44 <_ZdaPv+0x119ac>
<_ZdaPv+0x119c0>
<_ZdaPv+0x119ec>
<_ZdaPv+0x11a3c>
<_ZdaPv+0x11a04>
<_ZdaPv+0x11a48>
<_ZdaPv+0x11a2c>
<_ZdaPv+0x119d8>
<_ZdaPv+0x11a94>
<_ZdaPv+0x11a94>
<_ZdaPv+0x11a94>
<_ZdaPv+0x11a5c>
<_ZdaPv+0x11a90>
<_ZdaPv+0x11a8c>
<_ZdaPv+0x11a94>
<_ZdaPv+0x11b10>
<_ZdaPv+0x11b34>
0x1d01c <_ZdaPv+0x11f84>
0x1d01c <_ZdaPv+0x11f84>
0x1d01c <_ZdaPv+0x11f84>
0x1cf24 <_ZdaPv+0x11e8c>
0x1cd38 <_ZdaPv+0x11ca0>
<_ZdaPv+0x11c20>
<_ZdaPv+0x11e30>
<_ZdaPv+0x11d28>
<_ZdaPv+0x11d8c>
<_ZdaPv+0x11bc4>
0x1cec8 <_ZdaPv+0x11e30>
<_ZdaPv+0x11dc8>
<_ZdaPv+0x11d90>
<_ZdaPv+0x11d20>
<_ZdaPv+0x11d38>
<_ZdaPv+0x11c44>
0x1cec8 <_ZdaPv+0x11e30>
<_ZdaPv+0x11d74>
<_ZdaPv+0x11d3c>
<_ZdaPv+0x11d30>
<_ZdaPv+0x11de0>
<_ZdaPv+0x11cc4>
0x1cec8 <_ZdaPv+0x11e30>
<_ZdaPv+0x11e1c>
<_ZdaPv+0x11de4>
<_ZdaPv+0x11d74>
<_ZdaPv+0x11dc8>
<_ZdaPv+0x11e1c>
<_ZdaPv+0x11e30>
<_ZdaPv+0x11e30>
<_ZdaPv+0x11e30>
<_ZdaPv+0x11e30>
<_ZdaPv+0x11e30>
<_ZdaPv+0x11e5c>
<_ZdaPv+0x11eac>
<_ZdaPv+0x11e74>
<_ZdaPv+0x11eb8>
<_ZdaPv+0x11e9c>
<_ZdaPv+0x11e48>
<_ZdaPv+0x11f04>
<_ZdaPv+0x11f04>
<_ZdaPv+0x11f04>
<_ZdaPv+0x11ecc>
<_ZdaPv+0x11f00>
<_ZdaPv+0x11efc>
<_ZdaPv+0x11f04>
<_ZdaPv+0x11f80>
<_ZdaPv+0x11fa4>
0x1d510 <_ZdaPv+0x12478>
0x1d510 <_ZdaPv+0x12478>
0x1d510 <_ZdaPv+0x12478>
0x1d410 <_ZdaPv+0x12378>
0x1d17c <_ZdaPv+0x120e4>
<_ZdaPv+0x1231c>
<_ZdaPv+0x121a0>
<_ZdaPv+0x121b0>
<_ZdaPv+0x1203c>
0x1d24c <_ZdaPv+0x121b4>
<_ZdaPv+0x1231c>
<_ZdaPv+0x121a8>
<_ZdaPv+0x12268>
<_ZdaPv+0x12108>
0x1d304 <_ZdaPv+0x1226c>
<_ZdaPv+0x1231c>
<_ZdaPv+0x12250>
<_ZdaPv+0x12308>
<_ZdaPv+0x12214>
<_ZdaPv+0x1231c>
#1, 0x1d2e8 <_ZdaPv+0x12250>
<_ZdaPv+0x1231c>
<_ZdaPv+0x1231c>
<_ZdaPv+0x122cc>
<_ZdaPv+0x1231c>
#1, 0x1d3a0 <_ZdaPv+0x12308>
<_ZdaPv+0x1231c>
<_ZdaPv+0x12348>
<_ZdaPv+0x12398>
<_ZdaPv+0x12360>
<_ZdaPv+0x123a4>
<_ZdaPv+0x12388>
<_ZdaPv+0x12334>
<_ZdaPv+0x123f0>
<_ZdaPv+0x123f0>
<_ZdaPv+0x123f0>
<_ZdaPv+0x123b8>
<_ZdaPv+0x123ec>
<_ZdaPv+0x123e8>
<_ZdaPv+0x123f0>
<_ZdaPv+0x12474>
<_ZdaPv+0x1249c>
0x3000 <_ZdaPv+0x1243c>
<_ZdaPv+0x124c8>
<_ZdaPv+0x1255c>
<_ZdaPv+0x1255c>
<_ZdaPv+0x1255c>
<_ZdaPv+0x1255c>
<_ZdaPv+0x1255c>
<_ZdaPv+0x1255c>
<_ZdaPv+0x12588>
0x1dc28 <_ZdaPv+0x12b90>
0x1dc28 <_ZdaPv+0x12b90>
0x1d984 <_ZdaPv+0x128ec>
0x1dbd8 <_ZdaPv+0x12b40>
<_ZdaPv+0x12904>
<_ZdaPv+0x12908>
<_ZdaPv+0x12918>
<_ZdaPv+0x12920>
<_ZdaPv+0x12ba0>
<_ZdaPv+0x128e4>
0x1d9b8 <_ZdaPv+0x12920>
<_ZdaPv+0x12d90>
<_ZdaPv+0x1295c>
<_ZdaPv+0x1297c>
<_ZdaPv+0x12948>
<_ZdaPv+0x130d8>
0x1d9e0 <_ZdaPv+0x12948>
<_ZdaPv+0x129a4>
<_ZdaPv+0x129c4>
<_ZdaPv+0x12990>
<_ZdaPv+0x13420>
0x1da28 <_ZdaPv+0x12990>
<_ZdaPv+0x129e8>
<_ZdaPv+0x12a08>
<_ZdaPv+0x129d4>
<_ZdaPv+0x13890>
0x1da6c <_ZdaPv+0x129d4>
<_ZdaPv+0x12a2c>
<_ZdaPv+0x12abc>
<_ZdaPv+0x12abc>
<_ZdaPv+0x12a8c>
<_ZdaPv+0x12a74>
<_ZdaPv+0x12abc>
0x1dbf0 <_ZdaPv+0x12b58>
<_ZdaPv+0x12abc>
<_ZdaPv+0x12ab8>
<_ZdaPv+0x12bd8>
<_ZdaPv+0x12bd8>
0x1dc0c <_ZdaPv+0x12b74>
<_ZdaPv+0x12a24>
<_ZdaPv+0x12a24>
<_ZdaPv+0x12a18>
<_ZdaPv+0x12b24>
<_ZdaPv+0x12a24>
<_ZdaPv+0x12bd8>
<_ZdaPv+0x12b38>
<_ZdaPv+0x12bd8>
<_ZdaPv+0x12a24>
<_ZdaPv+0x12918>
<_ZdaPv+0x128e4>
0x1dc0c <_ZdaPv+0x12b74>
0x1dc0c <_ZdaPv+0x12b74>
0x1dc54 <_ZdaPv+0x12bbc>
<_ZdaPv+0x12900>
<_ZdaPv+0x12ba0>
<_ZdaPv+0x12900>
0x1de18 <_ZdaPv+0x12d80>
0x1de18 <_ZdaPv+0x12d80>
0x1de18 <_ZdaPv+0x12d80>
<_ZdaPv+0x12d0c>
<_ZdaPv+0x12d28>
<_ZdaPv+0x12d28>
0x3000 <_ZdaPv+0x12cc4>
<_ZdaPv+0x12d54>
<_ZdaPv+0x12d7c>
<_ZdaPv+0x12d88>
0x1e14c <_ZdaPv+0x130b4>
0x1e14c <_ZdaPv+0x130b4>
0x1e14c <_ZdaPv+0x130b4>
0x1e054 <_ZdaPv+0x12fbc>
<_ZdaPv+0x12df0>
<_ZdaPv+0x12f4c>
<_ZdaPv+0x12eac>
<_ZdaPv+0x12e0c>
0x1dff8 <_ZdaPv+0x12f60>
<_ZdaPv+0x12eb8>
<_ZdaPv+0x12f10>
<_ZdaPv+0x12f10>
<_ZdaPv+0x12f60>
#1, 0x1dfe4 <_ZdaPv+0x12f4c>
<_ZdaPv+0x12f60>
<_ZdaPv+0x12f8c>
<_ZdaPv+0x12fdc>
<_ZdaPv+0x12fa4>
<_ZdaPv+0x12fe8>
<_ZdaPv+0x12fcc>
<_ZdaPv+0x12f78>
<_ZdaPv+0x13034>
<_ZdaPv+0x13034>
<_ZdaPv+0x13034>
<_ZdaPv+0x12ffc>
<_ZdaPv+0x13030>
<_ZdaPv+0x1302c>
<_ZdaPv+0x13034>
<_ZdaPv+0x130b0>
<_ZdaPv+0x130d4>
0x1e494 <_ZdaPv+0x133fc>
0x1e494 <_ZdaPv+0x133fc>
0x1e494 <_ZdaPv+0x133fc>
0x1e39c <_ZdaPv+0x13304>
<_ZdaPv+0x13138>
<_ZdaPv+0x13294>
<_ZdaPv+0x131f4>
<_ZdaPv+0x13154>
0x1e340 <_ZdaPv+0x132a8>
<_ZdaPv+0x13200>
<_ZdaPv+0x13258>
<_ZdaPv+0x13258>
<_ZdaPv+0x132a8>
#1, 0x1e32c <_ZdaPv+0x13294>
<_ZdaPv+0x132a8>
<_ZdaPv+0x132d4>
<_ZdaPv+0x13324>
<_ZdaPv+0x132ec>
<_ZdaPv+0x13330>
<_ZdaPv+0x13314>
<_ZdaPv+0x132c0>
<_ZdaPv+0x1337c>
<_ZdaPv+0x1337c>
<_ZdaPv+0x1337c>
<_ZdaPv+0x13344>
<_ZdaPv+0x13378>
<_ZdaPv+0x13374>
<_ZdaPv+0x1337c>
<_ZdaPv+0x133f8>
<_ZdaPv+0x1341c>
0x1e904 <_ZdaPv+0x1386c>
0x1e904 <_ZdaPv+0x1386c>
0x1e904 <_ZdaPv+0x1386c>
0x1e80c <_ZdaPv+0x13774>
0x1e620 <_ZdaPv+0x13588>
<_ZdaPv+0x13508>
<_ZdaPv+0x13718>
<_ZdaPv+0x13610>
<_ZdaPv+0x13674>
<_ZdaPv+0x134ac>
0x1e7b0 <_ZdaPv+0x13718>
<_ZdaPv+0x136b0>
<_ZdaPv+0x13678>
<_ZdaPv+0x13608>
<_ZdaPv+0x13620>
<_ZdaPv+0x1352c>
0x1e7b0 <_ZdaPv+0x13718>
<_ZdaPv+0x1365c>
<_ZdaPv+0x13624>
<_ZdaPv+0x13618>
<_ZdaPv+0x136c8>
<_ZdaPv+0x135ac>
0x1e7b0 <_ZdaPv+0x13718>
<_ZdaPv+0x13704>
<_ZdaPv+0x136cc>
<_ZdaPv+0x1365c>
<_ZdaPv+0x136b0>
<_ZdaPv+0x13704>
<_ZdaPv+0x13718>
<_ZdaPv+0x13718>
<_ZdaPv+0x13718>
<_ZdaPv+0x13718>
<_ZdaPv+0x13718>
<_ZdaPv+0x13744>
<_ZdaPv+0x13794>
<_ZdaPv+0x1375c>
<_ZdaPv+0x137a0>
<_ZdaPv+0x13784>
<_ZdaPv+0x13730>
<_ZdaPv+0x137ec>
<_ZdaPv+0x137ec>
<_ZdaPv+0x137ec>
<_ZdaPv+0x137b4>
<_ZdaPv+0x137e8>
<_ZdaPv+0x137e4>
<_ZdaPv+0x137ec>
<_ZdaPv+0x13868>
<_ZdaPv+0x1388c>
0x1ec98 <_ZdaPv+0x13c00>
0x1ec98 <_ZdaPv+0x13c00>
0x1ec98 <_ZdaPv+0x13c00>
0x1eb98 <_ZdaPv+0x13b00>
0x1ea08 <_ZdaPv+0x13970>
<_ZdaPv+0x13aa4>
<_ZdaPv+0x139f0>
<_ZdaPv+0x13a00>
<_ZdaPv+0x13914>
0x1eb3c <_ZdaPv+0x13aa4>
<_ZdaPv+0x13a3c>
<_ZdaPv+0x13a04>
<_ZdaPv+0x139f8>
<_ZdaPv+0x13a54>
<_ZdaPv+0x13994>
0x1eb3c <_ZdaPv+0x13aa4>
<_ZdaPv+0x13a90>
<_ZdaPv+0x13a58>
<_ZdaPv+0x13a3c>
<_ZdaPv+0x13a90>
<_ZdaPv+0x13aa4>
<_ZdaPv+0x13aa4>
<_ZdaPv+0x13aa4>
<_ZdaPv+0x13ad0>
<_ZdaPv+0x13b20>
<_ZdaPv+0x13ae8>
<_ZdaPv+0x13b2c>
<_ZdaPv+0x13b10>
<_ZdaPv+0x13abc>
<_ZdaPv+0x13b78>
<_ZdaPv+0x13b78>
<_ZdaPv+0x13b78>
<_ZdaPv+0x13b40>
<_ZdaPv+0x13b74>
<_ZdaPv+0x13b70>
<_ZdaPv+0x13b78>
<_ZdaPv+0x13bfc>
<_ZdaPv+0x13c20>
0x1ed9c <_ZdaPv+0x13d04>
<_ZdaPv+0x14168>
0x1ed60 <_ZdaPv+0x13cc8>
0x1f1e8 <_ZdaPv+0x14150>
0x1f1e8 <_ZdaPv+0x14150>
0x1eea4 <_ZdaPv+0x13e0c>
<_ZdaPv+0x13e04>
<_ZdaPv+0x13e10>
<_ZdaPv+0x13e10>
<_ZdaPv+0x13e10>
<_ZdaPv+0x13e30>
0x1eecc <_ZdaPv+0x13e34>
<_ZdaPv+0x13e34>
<_ZdaPv+0x14418>
<_ZdaPv+0x13e70>
<_ZdaPv+0x13e90>
<_ZdaPv+0x13e5c>
<_ZdaPv+0x14888>
0x1eef4 <_ZdaPv+0x13e5c>
0x3000 <_ZdaPv+0x13e24>
<_ZdaPv+0x13ed4>
0x1f1b4 <_ZdaPv+0x1411c>
<_ZdaPv+0x13ec8>
<_ZdaPv+0x13ec8>
<_ZdaPv+0x13f64>
<_ZdaPv+0x13f20>
<_ZdaPv+0x13ec8>
0x1f188 <_ZdaPv+0x140f0>
<_ZdaPv+0x13ec8>
0x1ef60 <_ZdaPv+0x13ec8>
0x1ef60 <_ZdaPv+0x13ec8>
0x1ef60 <_ZdaPv+0x13ec8>
<_ZdaPv+0x13ea8>
<_ZdaPv+0x13fc4>
<_ZdaPv+0x13fc4>
<_ZdaPv+0x14170>
<_ZdaPv+0x13ec8>
0x1f118 <_ZdaPv+0x14080>
0x1f118 <_ZdaPv+0x14080>
0x1f118 <_ZdaPv+0x14080>
<_ZdaPv+0x13fa8>
<_ZdaPv+0x14004>
<_ZdaPv+0x14004>
<_ZdaPv+0x14170>
<_ZdaPv+0x14080>
<_ZdaPv+0x14078>
<_ZdaPv+0x14044>
<_ZdaPv+0x13ec8>
<_ZdaPv+0x13ec0>
<_ZdaPv+0x14060>
<_ZdaPv+0x14080>
<_ZdaPv+0x14078>
<_ZdaPv+0x13ec0>
0x1ef60 <_ZdaPv+0x13ec8>
0x1ef60 <_ZdaPv+0x13ec8>
<_ZdaPv+0x13ec8>
<_ZdaPv+0x140bc>
<_ZdaPv+0x140bc>
<_ZdaPv+0x14170>
<_ZdaPv+0x13ec8>
<_ZdaPv+0x13ec8>
<_ZdaPv+0x13ec8>
0x1f1b4 <_ZdaPv+0x1411c>
0x1f1b4 <_ZdaPv+0x1411c>
0x1f1e4 <_ZdaPv+0x1414c>
<_ZdaPv+0x14150>
<_ZdaPv+0x13cdc>
0x1f8fc <_ZdaPv+0x14864>
0x1f8fc <_ZdaPv+0x14864>
0x1f8fc <_ZdaPv+0x14864>
0x1f804 <_ZdaPv+0x1476c>
0x1f618 <_ZdaPv+0x14580>
<_ZdaPv+0x14500>
<_ZdaPv+0x14710>
<_ZdaPv+0x14608>
<_ZdaPv+0x1466c>
<_ZdaPv+0x144a4>
0x1f7a8 <_ZdaPv+0x14710>
<_ZdaPv+0x146a8>
<_ZdaPv+0x14670>
<_ZdaPv+0x14600>
<_ZdaPv+0x14618>
<_ZdaPv+0x14524>
0x1f7a8 <_ZdaPv+0x14710>
<_ZdaPv+0x14654>
<_ZdaPv+0x1461c>
<_ZdaPv+0x14610>
<_ZdaPv+0x146c0>
<_ZdaPv+0x145a4>
0x1f7a8 <_ZdaPv+0x14710>
<_ZdaPv+0x146fc>
<_ZdaPv+0x146c4>
<_ZdaPv+0x14654>
<_ZdaPv+0x146a8>
<_ZdaPv+0x146fc>
<_ZdaPv+0x14710>
<_ZdaPv+0x14710>
<_ZdaPv+0x14710>
<_ZdaPv+0x14710>
<_ZdaPv+0x14710>
<_ZdaPv+0x1473c>
<_ZdaPv+0x1478c>
<_ZdaPv+0x14754>
<_ZdaPv+0x14798>
<_ZdaPv+0x1477c>
<_ZdaPv+0x14728>
<_ZdaPv+0x147e4>
<_ZdaPv+0x147e4>
<_ZdaPv+0x147e4>
<_ZdaPv+0x147ac>
<_ZdaPv+0x147e0>
<_ZdaPv+0x147dc>
<_ZdaPv+0x147e4>
<_ZdaPv+0x14860>
<_ZdaPv+0x14884>
0x1fc90 <_ZdaPv+0x14bf8>
0x1fc90 <_ZdaPv+0x14bf8>
0x1fc90 <_ZdaPv+0x14bf8>
0x1fb90 <_ZdaPv+0x14af8>
0x1fa00 <_ZdaPv+0x14968>
<_ZdaPv+0x14a9c>
<_ZdaPv+0x149e8>
<_ZdaPv+0x149f8>
<_ZdaPv+0x1490c>
0x1fb34 <_ZdaPv+0x14a9c>
<_ZdaPv+0x14a34>
<_ZdaPv+0x149fc>
<_ZdaPv+0x149f0>
<_ZdaPv+0x14a4c>
<_ZdaPv+0x1498c>
0x1fb34 <_ZdaPv+0x14a9c>
<_ZdaPv+0x14a88>
<_ZdaPv+0x14a50>
<_ZdaPv+0x14a34>
<_ZdaPv+0x14a88>
<_ZdaPv+0x14a9c>
<_ZdaPv+0x14a9c>
<_ZdaPv+0x14a9c>
<_ZdaPv+0x14ac8>
<_ZdaPv+0x14b18>
<_ZdaPv+0x14ae0>
<_ZdaPv+0x14b24>
<_ZdaPv+0x14b08>
<_ZdaPv+0x14ab4>
<_ZdaPv+0x14b70>
<_ZdaPv+0x14b70>
<_ZdaPv+0x14b70>
<_ZdaPv+0x14b38>
<_ZdaPv+0x14b6c>
<_ZdaPv+0x14b68>
<_ZdaPv+0x14b70>
<_ZdaPv+0x14bf4>
<_ZdaPv+0x14c18>

0x21000 <_ZSt9terminatev@plt+0x8>

0x21000 <_ZN4CamX13OfflineLogger14GetLogInfoMaskEv@plt+0x8>

0x21000 <_ZN4CamX13OfflineLogger21IsEnableOfflineloggerEv@plt+0x8>

0x21000 <_ZN4CamX13OfflineLogger6AddLogEPKcj@plt+0x8>

0x21000 <_ZNSt3__15mutex4lockEv@plt+0x8>

0x21000 <_ZN4CamX13OfflineLoggerC1E17OfflineLoggerType@plt+0x8>

0x21000 <_ZNSt3__15mutex6unlockEv@plt+0x8>

0x21000 <_ZNKSt3__120__vector_base_commonILb1EE20__throw_length_errorEv@plt+0x8>

0x21000 <_ZNSt11logic_errorC2EPKc@plt+0x8>

0x21000 <_ZNSt3__112__next_primeEm@plt+0x8>

0x21000 <_ZNSt3__113basic_istreamIcNS_11char_traitsIcEEED2Ev@plt+0x8>

0x21000 <_ZNSt3__19basic_iosIcNS_11char_traitsIcEEED2Ev@plt+0x8>

0x21000 <_ZNSt3__115basic_streambufIcNS_11char_traitsIcEEED2Ev@plt+0x8>

0x21000 <_ZNKSt3__16locale9use_facetERNS0_2idE@plt+0x8>

0x21000 <_ZNSt8bad_castC1Ev@plt+0x4>








 	cbnz	x6, 0x19c14 <_ZdaPv+0xeb7c>
 	tbz	x27, #37, 0x62dc <_ZN4CamX14SWAIDenoiser1018CreateSWAIDenoiserEPNS_23CHINodeModuleCreateDataE+0x2c4>
 	ldr	s6, 0x11ac8 <_ZdaPv+0x6a30>
 	tbz	x3, #59, 0x68cc <_ZN4CamX12SWDemuxBLS1414CreateDemuxBLSEPNS_23CHINodeModuleCreateDataE+0x22c>
 	ldr	s20, 0x145f4 <_ZdaPv+0x955c>
