	b	0x44161c <_ZN4CamX16ImageFormatUtils7s_socIdE+0x42792c>
	adrp	x0, 0x2346f000 <_ZN4CamX16ImageFormatUtils7s_socIdE+0x74a5c>
	ldr	w2, 0x81aa4 <_ZN4CamX16ImageFormatUtils7s_socIdE+0x67db4>
	adrp	x2, 0xfeadc000 <_ZN4CamX16ImageFormatUtils7s_socIdE+0x3e2434>
	bl	0xffffffffff127708 <_ZN4CamX16ImageFormatUtils7s_socIdE+0xffffffffff10da18>
	b.vs	0xfffffffffff582a8 <_ZN4CamX16ImageFormatUtils7s_socIdE+0xfffffffffff3e5b8>
	adrp	x24, 0x54753000 <_ZN4CamX16ImageFormatUtils7s_socIdE+0x139680>
	cbnz	w9, 0x64468 <_ZN4CamX16ImageFormatUtils7s_socIdE+0x4a778>
	tbnz	w1, #12, 0xffffffffffffc3f8 <_ZN4CamX16ImageFormatUtils7s_socIdE+0xfffffffffffe2708>
	tbnz	w1, #12, 0xffffffffffffc654 <_ZN4CamX16ImageFormatUtils7s_socIdE+0xfffffffffffe2964>
	cbnz	w18, 0xa82b4 <_ZN4CamX16ImageFormatUtils7s_socIdE+0x8e5c4>
	cbz	w16, 0xe667c <_ZN4CamX16ImageFormatUtils7s_socIdE+0xcc98c>
	tbnz	w18, #9, 0xffffffffffffe434 <_ZN4CamX16ImageFormatUtils7s_socIdE+0xfffffffffffe4744>
	cbnz	w3, 0xa852c <_ZN4CamX16ImageFormatUtils7s_socIdE+0x8e83c>
	tbz	wzr, #9, 0xffffffffffffe6d4 <_ZN4CamX16ImageFormatUtils7s_socIdE+0xfffffffffffe49e4>
	tbnz	w1, #12, 0xffffffffffffc9ec <_ZN4CamX16ImageFormatUtils7s_socIdE+0xfffffffffffe2cfc>
	cbz	w18, 0xae240 <_ZN4CamX16ImageFormatUtils7s_socIdE+0x94550>
	cbz	w16, 0xe6930 <_ZN4CamX16ImageFormatUtils7s_socIdE+0xccc40>
	cbz	w18, 0xae348 <_ZN4CamX16ImageFormatUtils7s_socIdE+0x94658>
	cbnz	w5, 0xa86cc <_ZN4CamX16ImageFormatUtils7s_socIdE+0x8e9dc>
	cbz	wzr, 0x9e904 <_ZN4CamX16ImageFormatUtils7s_socIdE+0x84c14>
	ldr	x3, 0xdc9e8 <_ZN4CamX16ImageFormatUtils7s_socIdE+0xc2cf8>
	cbz	wzr, 0x9e954 <_ZN4CamX16ImageFormatUtils7s_socIdE+0x84c64>
	ldr	x3, 0xdca38 <_ZN4CamX16ImageFormatUtils7s_socIdE+0xc2d48>
	tbnz	wzr, #9, 0xffffffffffffe9a4 <_ZN4CamX16ImageFormatUtils7s_socIdE+0xfffffffffffe4cb4>
	tbnz	wzr, #9, 0xffffffffffffe9f0 <_ZN4CamX16ImageFormatUtils7s_socIdE+0xfffffffffffe4d00>
	cbz	wzr, 0x9ea44 <_ZN4CamX16ImageFormatUtils7s_socIdE+0x84d54>
	ldr	x3, 0xdcb28 <_ZN4CamX16ImageFormatUtils7s_socIdE+0xc2e38>
	cbz	wzr, 0x9eae8 <_ZN4CamX16ImageFormatUtils7s_socIdE+0x84df8>
	ldr	x3, 0xdcbcc <_ZN4CamX16ImageFormatUtils7s_socIdE+0xc2edc>
	tbnz	w1, #9, 0xffffffffffffea70 <_ZN4CamX16ImageFormatUtils7s_socIdE+0xfffffffffffe4d80>
	tbnz	w9, #13, 0xffffffffffffad94 <_ZN4CamX16ImageFormatUtils7s_socIdE+0xfffffffffffe10a4>
	b.ne	0xc5044 <_ZN4CamX16ImageFormatUtils7s_socIdE+0xab354>
	tbnz	wzr, #9, 0xffffffffffffed1c <_ZN4CamX16ImageFormatUtils7s_socIdE+0xfffffffffffe502c>
	cbz	w12, 0xc8fd0 <_ZN4CamX16ImageFormatUtils7s_socIdE+0xaf2e0>
	cbz	w18, 0xae8a0 <_ZN4CamX16ImageFormatUtils7s_socIdE+0x94bb0>
	tbnz	w15, #12, 0xffffffffffffaffc <_ZN4CamX16ImageFormatUtils7s_socIdE+0xfffffffffffe130c>
	cbnz	wzr, 0x64f30 <_ZN4CamX16ImageFormatUtils7s_socIdE+0x4b240>
	cbz	wzr, 0x9eeb0 <_ZN4CamX16ImageFormatUtils7s_socIdE+0x851c0>
	ldr	x3, 0xdcf94 <_ZN4CamX16ImageFormatUtils7s_socIdE+0xc32a4>
	cbnz	w9, 0xe9150 <_ZN4CamX16ImageFormatUtils7s_socIdE+0xcf460>
	tbz	w9, #14, 0x91f8 <_ZN4CamX22DisplayConfigInterface15SetCameraStatusEj+0x1e0>
	cbz	wzr, 0x9f094 <_ZN4CamX16ImageFormatUtils7s_socIdE+0x853a4>
	ldr	x3, 0xdd178 <_ZN4CamX16ImageFormatUtils7s_socIdE+0xc3488>
	cbz	wzr, 0x9f178 <_ZN4CamX16ImageFormatUtils7s_socIdE+0x85488>
	ldr	x3, 0xdd25c <_ZN4CamX16ImageFormatUtils7s_socIdE+0xc356c>
	cbz	wzr, 0x9f1dc <_ZN4CamX16ImageFormatUtils7s_socIdE+0x854ec>
	ldr	x3, 0xdd2c0 <_ZN4CamX16ImageFormatUtils7s_socIdE+0xc35d0>
	cbnz	w12, 0x65518 <_ZN4CamX16ImageFormatUtils7s_socIdE+0x4b828>
	b.hs	0x8919c <_ZN4CamX16ImageFormatUtils7s_socIdE+0x6f4ac>
	cbz	wzr, 0x9f21c <_ZN4CamX16ImageFormatUtils7s_socIdE+0x8552c>
	ldr	x3, 0xdd300 <_ZN4CamX16ImageFormatUtils7s_socIdE+0xc3610>
	cbnz	w19, 0x65464 <_ZN4CamX16ImageFormatUtils7s_socIdE+0x4b774>
	cbz	wzr, 0x9f408 <_ZN4CamX16ImageFormatUtils7s_socIdE+0x85718>
	ldr	x3, 0xdd4ec <_ZN4CamX16ImageFormatUtils7s_socIdE+0xc37fc>
	cbz	w12, 0x67744 <_ZN4CamX16ImageFormatUtils7s_socIdE+0x4da54>
	cbz	wzr, 0x9f530 <_ZN4CamX16ImageFormatUtils7s_socIdE+0x85840>
	ldr	x3, 0xdd614 <_ZN4CamX16ImageFormatUtils7s_socIdE+0xc3924>
	cbz	wzr, 0x9f600 <_ZN4CamX16ImageFormatUtils7s_socIdE+0x85910>
	ldr	x3, 0xdd6e4 <_ZN4CamX16ImageFormatUtils7s_socIdE+0xc39f4>
	tbnz	w9, #14, 0x98c4 <_ZN4CamX7Gralloc17InitializeMapper4Ev+0x4>
	cbz	wzr, 0x9f800 <_ZN4CamX16ImageFormatUtils7s_socIdE+0x85b10>
	ldr	x3, 0xdd8e4 <_ZN4CamX16ImageFormatUtils7s_socIdE+0xc3bf4>
	cbz	wzr, 0x9f824 <_ZN4CamX16ImageFormatUtils7s_socIdE+0x85b34>
	ldr	x3, 0xdd908 <_ZN4CamX16ImageFormatUtils7s_socIdE+0xc3c18>
	cbz	wzr, 0x9f8fc <_ZN4CamX16ImageFormatUtils7s_socIdE+0x85c0c>
	ldr	x3, 0xdd9e0 <_ZN4CamX16ImageFormatUtils7s_socIdE+0xc3cf0>
	cbz	wzr, 0x9f944 <_ZN4CamX16ImageFormatUtils7s_socIdE+0x85c54>
	ldr	x3, 0xdda28 <_ZN4CamX16ImageFormatUtils7s_socIdE+0xc3d38>
	cbz	wzr, 0x9f96c <_ZN4CamX16ImageFormatUtils7s_socIdE+0x85c7c>
	ldr	x3, 0xdda50 <_ZN4CamX16ImageFormatUtils7s_socIdE+0xc3d60>
	b.eq	0xb7a78 <_ZN4CamX16ImageFormatUtils7s_socIdE+0x9dd88>
	b.eq	0xb7a8c <_ZN4CamX16ImageFormatUtils7s_socIdE+0x9dd9c>
	b.eq	0xb7ad4 <_ZN4CamX16ImageFormatUtils7s_socIdE+0x9dde4>
	b.eq	0xb7ae8 <_ZN4CamX16ImageFormatUtils7s_socIdE+0x9ddf8>
	cbnz	wzr, 0x65780 <_ZN4CamX16ImageFormatUtils7s_socIdE+0x4ba90>
	b.eq	0xb7df4 <_ZN4CamX16ImageFormatUtils7s_socIdE+0x9e104>
	b.eq	0xb7e28 <_ZN4CamX16ImageFormatUtils7s_socIdE+0x9e138>
	b.eq	0xb7e5c <_ZN4CamX16ImageFormatUtils7s_socIdE+0x9e16c>
	cbz	w15, 0x844d0 <_ZN4CamX16ImageFormatUtils7s_socIdE+0x6a7e0>
	adrp	x2, 0xffffffff01013000 <_ZN4CamX16ImageFormatUtils7s_socIdE+0xffffffffffbedb0c>
	adrp	x2, 0xffffffff01014000 <_ZN4CamX16ImageFormatUtils7s_socIdE+0xffffffffffbedb20>
	ldr	w4, 0x143c4 <_ZdaPv+0x1ac>
	prfm	plil3keep, 0x34380 <_ZN4CamX16ImageFormatUtils7s_socIdE+0x1a690>
	ldr	w0, 0xdcc4 <_ZN4CamX7Gralloc18SetGrallocMetaDataEPKNS_12NativeHandleEjjPv+0x282c>
	bl	0x283378 <_ZN4CamX16ImageFormatUtils7s_socIdE+0x269688>
	adrp	x4, 0xa0056000 <_ZN4CamX16ImageFormatUtils7s_socIdE+0x26a8cc>
	cbz	x16, 0xa44f8 <_ZN4CamX16ImageFormatUtils7s_socIdE+0x8a808>
	bl	0x1404f9c <_ZN4CamX16ImageFormatUtils7s_socIdE+0x13eb2ac>
	b	0x1a556c <_ZN4CamX16ImageFormatUtils7s_socIdE+0x18b87c>
	prfm	pstl1keep, 0x1c5c8 <_ZN4CamX16ImageFormatUtils7s_socIdE+0x28d8>
	prfm	pstl1keep, 0x1c5d8 <_ZN4CamX16ImageFormatUtils7s_socIdE+0x28e8>
	b	0xfffffffffc0845b0 <_ZN4CamX16ImageFormatUtils7s_socIdE+0xfffffffffc06a8c0>
	ldrsw	x5, 0x94da8 <_ZN4CamX16ImageFormatUtils7s_socIdE+0x7b0b8>
	b	0x270640 <_ZN4CamX16ImageFormatUtils7s_socIdE+0x256950>
	ldr	q12, 0x246c4 <_ZN4CamX16ImageFormatUtils7s_socIdE+0xa9d4>
	bl	0xef764 <_ZN4CamX16ImageFormatUtils7s_socIdE+0xd5a74>
	cbz	w19, 0x6d024 <_ZN4CamX16ImageFormatUtils7s_socIdE+0x53334>
	tbnz	w5, #7, 0x9770 <_ZN4CamX7Gralloc22ResetGrallocInterfacesEi+0x298>
	cbnz	w19, 0x7317c <_ZN4CamX16ImageFormatUtils7s_socIdE+0x5948c>
	tbz	w17, #6, 0xb2a8 <_ZN4CamX7Gralloc6RetainEPKNS_12NativeHandleE+0x198>
	cbz	w17, 0x6f400 <_ZN4CamX16ImageFormatUtils7s_socIdE+0x55710>
	b.nv	0x7dcec <_ZN4CamX16ImageFormatUtils7s_socIdE+0x63ffc>
	cbz	w19, 0x67634 <_ZN4CamX16ImageFormatUtils7s_socIdE+0x4d944>
	cbnz	w26, 0x715e8 <_ZN4CamX16ImageFormatUtils7s_socIdE+0x578f8>
	cbnz	w19, 0x67b24 <_ZN4CamX16ImageFormatUtils7s_socIdE+0x4de34>
	tbz	w26, #6, 0x9a88 <_ZN4CamX7Gralloc17InitializeMapper4Ev+0x1c8>
	ldr	x3, 0xe00c8 <_ZN4CamX16ImageFormatUtils7s_socIdE+0xc63d8>
	b.le	0xee124 <_ZN4CamX16ImageFormatUtils7s_socIdE+0xd4434>
	b.ne	0xc84ec <_ZN4CamX16ImageFormatUtils7s_socIdE+0xae7fc>
	cbnz	w26, 0x75d64 <_ZN4CamX16ImageFormatUtils7s_socIdE+0x5c074>
	tbnz	w5, #7, 0xa624 <_ZN4CamX7Gralloc11GetInstanceEv+0x1ec>
	tbnz	w19, #6, 0xffffffffffffdfe4 <_ZN4CamX16ImageFormatUtils7s_socIdE+0xfffffffffffe42f4>
	cbnz	w19, 0x740a0 <_ZN4CamX16ImageFormatUtils7s_socIdE+0x5a3b0>
	ldr	x9, 0xd07b0 <_ZN4CamX16ImageFormatUtils7s_socIdE+0xb6ac0>
	cbz	w5, 0x7a9f8 <_ZN4CamX16ImageFormatUtils7s_socIdE+0x60d08>
	tbz	w12, #12, 0xa908 <_ZN4CamX7Gralloc32AllocateGrallocBufferWithMapper4EjjjPPKNS_12NativeHandleEPjmm+0x200>
	tbz	w26, #6, 0xa230 <_ZN4CamX7Gralloc17InitializeMapper3Ev+0x390>
	cbz	w19, 0x6c3f0 <_ZN4CamX16ImageFormatUtils7s_socIdE+0x52700>
	cbz	w19, 0x70650 <_ZN4CamX16ImageFormatUtils7s_socIdE+0x56960>
	cbz	w0, 0x504a0 <_ZN4CamX16ImageFormatUtils7s_socIdE+0x367b0>
	cbnz	w26, 0x6a6e4 <_ZN4CamX16ImageFormatUtils7s_socIdE+0x509f4>
	ldr	x9, 0xd0eb4 <_ZN4CamX16ImageFormatUtils7s_socIdE+0xb71c4>
	tbz	w5, #7, 0xb2c4 <_ZN4CamX7Gralloc6RetainEPKNS_12NativeHandleE+0x1b4>
	cbz	w17, 0x74b60 <_ZN4CamX16ImageFormatUtils7s_socIdE+0x5ae70>
	ldr	s2, 0xa650 <_ZN4CamX7Gralloc11GetInstanceEv+0x218>
	b	0xfffffffffca90fcc <_ZN4CamX16ImageFormatUtils7s_socIdE+0xfffffffffca772dc>



	b	0xfffffffffc006ad5 <_ZN4CamX16ImageFormatUtils7s_socIdE+0xfffffffffbfecde5>

	ldr	q0, 0xc388 <_ZN4CamX7Gralloc18SetGrallocMetaDataEPKNS_12NativeHandleEjjPv+0xef0>
	bl	0xabe0c <_ZN4CamX16ImageFormatUtils7s_socIdE+0x9211c>
	bl	0xabeec <_ZN4CamX16ImageFormatUtils7s_socIdE+0x921fc>
	bl	0xfffffffff81ac5c0 <_ZN4CamX16ImageFormatUtils7s_socIdE+0xfffffffff81928d0>
	ldrsw	x8, 0x1c494 <_ZN4CamX16ImageFormatUtils7s_socIdE+0x27a4>
	bl	0xabe9c <_ZN4CamX16ImageFormatUtils7s_socIdE+0x921ac>
	bl	0xfffffffff81ac5f0 <_ZN4CamX16ImageFormatUtils7s_socIdE+0xfffffffff8192900>
	bl	0xabec4 <_ZN4CamX16ImageFormatUtils7s_socIdE+0x921d4>
	bl	0xfffffffff81ac618 <_ZN4CamX16ImageFormatUtils7s_socIdE+0xfffffffff8192928>
	bl	0xabedc <_ZN4CamX16ImageFormatUtils7s_socIdE+0x921ec>
	bl	0xabf84 <_ZN4CamX16ImageFormatUtils7s_socIdE+0x92294>
	bl	0xabf94 <_ZN4CamX16ImageFormatUtils7s_socIdE+0x922a4>
	bl	0xac03c <_ZN4CamX16ImageFormatUtils7s_socIdE+0x9234c>
	bl	0xac034 <_ZN4CamX16ImageFormatUtils7s_socIdE+0x92344>
	bl	0xac11c <_ZN4CamX16ImageFormatUtils7s_socIdE+0x9242c>
	bl	0xfffffffff81ac830 <_ZN4CamX16ImageFormatUtils7s_socIdE+0xfffffffff8192b40>
	ldrsw	x8, 0x1c704 <_ZN4CamX16ImageFormatUtils7s_socIdE+0x2a14>
	bl	0xac10c <_ZN4CamX16ImageFormatUtils7s_socIdE+0x9241c>
	bl	0xac18c <_ZN4CamX16ImageFormatUtils7s_socIdE+0x9249c>
	bl	0xac23c <_ZN4CamX16ImageFormatUtils7s_socIdE+0x9254c>
	bl	0xac324 <_ZN4CamX16ImageFormatUtils7s_socIdE+0x92634>
	bl	0xfffffffff81aca38 <_ZN4CamX16ImageFormatUtils7s_socIdE+0xfffffffff8192d48>
	bl	0xac2fc <_ZN4CamX16ImageFormatUtils7s_socIdE+0x9260c>
	bl	0xac37c <_ZN4CamX16ImageFormatUtils7s_socIdE+0x9268c>
	bl	0xac42c <_ZN4CamX16ImageFormatUtils7s_socIdE+0x9273c>
	bl	0xac4dc <_ZN4CamX16ImageFormatUtils7s_socIdE+0x927ec>
	bl	0xac61c <_ZN4CamX16ImageFormatUtils7s_socIdE+0x9292c>
	bl	0xfffffffff81accf0 <_ZN4CamX16ImageFormatUtils7s_socIdE+0xfffffffff8193000>
	ldrsw	x8, 0x1cbc4 <_ZN4CamX16ImageFormatUtils7s_socIdE+0x2ed4>
	bl	0xac684 <_ZN4CamX16ImageFormatUtils7s_socIdE+0x92994>
	bl	0xfffffffff81acd18 <_ZN4CamX16ImageFormatUtils7s_socIdE+0xfffffffff8193028>
	ldrsw	x8, 0x1cbec <_ZN4CamX16ImageFormatUtils7s_socIdE+0x2efc>
	ldr	q16, 0x2cc74 <_ZN4CamX16ImageFormatUtils7s_socIdE+0x12f84>
	bl	0xac5e4 <_ZN4CamX16ImageFormatUtils7s_socIdE+0x928f4>
	bl	0xac6cc <_ZN4CamX16ImageFormatUtils7s_socIdE+0x929dc>
	bl	0xfffffffff81acde0 <_ZN4CamX16ImageFormatUtils7s_socIdE+0xfffffffff81930f0>
	ldrsw	x8, 0x1ccb4 <_ZN4CamX16ImageFormatUtils7s_socIdE+0x2fc4>
	bl	0xac68c <_ZN4CamX16ImageFormatUtils7s_socIdE+0x9299c>
	bl	0xac73c <_ZN4CamX16ImageFormatUtils7s_socIdE+0x92a4c>
	bl	0xac894 <_ZN4CamX16ImageFormatUtils7s_socIdE+0x92ba4>
	bl	0xfffffffff81acf68 <_ZN4CamX16ImageFormatUtils7s_socIdE+0xfffffffff8193278>
	ldrsw	x8, 0x1ce3c <_ZN4CamX16ImageFormatUtils7s_socIdE+0x314c>
	bl	0xac83c <_ZN4CamX16ImageFormatUtils7s_socIdE+0x92b4c>
	bl	0xac85c <_ZN4CamX16ImageFormatUtils7s_socIdE+0x92b6c>
	bl	0xfffffffff81acfb0 <_ZN4CamX16ImageFormatUtils7s_socIdE+0xfffffffff81932c0>
	bl	0xac8dc <_ZN4CamX16ImageFormatUtils7s_socIdE+0x92bec>
	bl	0xfffffffff81acff0 <_ZN4CamX16ImageFormatUtils7s_socIdE+0xfffffffff8193300>
	bl	0xac9dc <_ZN4CamX16ImageFormatUtils7s_socIdE+0x92cec>
	bl	0xac9f4 <_ZN4CamX16ImageFormatUtils7s_socIdE+0x92d04>
	bl	0xac9d4 <_ZN4CamX16ImageFormatUtils7s_socIdE+0x92ce4>
	bl	0xaca34 <_ZN4CamX16ImageFormatUtils7s_socIdE+0x92d44>
	bl	0xfffffffff81ad188 <_ZN4CamX16ImageFormatUtils7s_socIdE+0xfffffffff8193498>
	bl	0xacadc <_ZN4CamX16ImageFormatUtils7s_socIdE+0x92dec>
	bl	0xfffffffff81ad1b0 <_ZN4CamX16ImageFormatUtils7s_socIdE+0xfffffffff81934c0>
	ldrsw	x8, 0x1d084 <_ZN4CamX16ImageFormatUtils7s_socIdE+0x3394>
	bl	0xacb0c <_ZN4CamX16ImageFormatUtils7s_socIdE+0x92e1c>
	bl	0xfffffffff81ad1e0 <_ZN4CamX16ImageFormatUtils7s_socIdE+0xfffffffff81934f0>
	ldrsw	x8, 0x1d0b4 <_ZN4CamX16ImageFormatUtils7s_socIdE+0x33c4>
	bl	0xacb74 <_ZN4CamX16ImageFormatUtils7s_socIdE+0x92e84>
	bl	0xfffffffff81ad288 <_ZN4CamX16ImageFormatUtils7s_socIdE+0xfffffffff8193598>
	bl	0xacb7c <_ZN4CamX16ImageFormatUtils7s_socIdE+0x92e8c>
	bl	0xacb9c <_ZN4CamX16ImageFormatUtils7s_socIdE+0x92eac>
	ldr	q0, 0xd190 <_ZN4CamX7Gralloc18SetGrallocMetaDataEPKNS_12NativeHandleEjjPv+0x1cf8>
	bl	0xacc0c <_ZN4CamX16ImageFormatUtils7s_socIdE+0x92f1c>
	bl	0xaccec <_ZN4CamX16ImageFormatUtils7s_socIdE+0x92ffc>
	bl	0xfffffffff81ad380 <_ZN4CamX16ImageFormatUtils7s_socIdE+0xfffffffff8193690>
	ldrsw	x8, 0x1d254 <_ZN4CamX16ImageFormatUtils7s_socIdE+0x3564>
	ldr	q16, 0x2d2dc <_ZN4CamX16ImageFormatUtils7s_socIdE+0x135ec>
	bl	0xacc5c <_ZN4CamX16ImageFormatUtils7s_socIdE+0x92f6c>
	bl	0xaccbc <_ZN4CamX16ImageFormatUtils7s_socIdE+0x92fcc>
	bl	0xfffffffff81ad410 <_ZN4CamX16ImageFormatUtils7s_socIdE+0xfffffffff8193720>
	bl	0xacca4 <_ZN4CamX16ImageFormatUtils7s_socIdE+0x92fb4>
	bl	0xaccc4 <_ZN4CamX16ImageFormatUtils7s_socIdE+0x92fd4>
	bl	0xacce4 <_ZN4CamX16ImageFormatUtils7s_socIdE+0x92ff4>
	bl	0xacd44 <_ZN4CamX16ImageFormatUtils7s_socIdE+0x93054>
	bl	0xacd84 <_ZN4CamX16ImageFormatUtils7s_socIdE+0x93094>
	bl	0xfffffffff81ad4d8 <_ZN4CamX16ImageFormatUtils7s_socIdE+0xfffffffff81937e8>
	bl	0xacdec <_ZN4CamX16ImageFormatUtils7s_socIdE+0x930fc>
	bl	0xfffffffff81ad500 <_ZN4CamX16ImageFormatUtils7s_socIdE+0xfffffffff8193810>
	bl	0xacdd4 <_ZN4CamX16ImageFormatUtils7s_socIdE+0x930e4>
	bl	0xfffffffff81ad528 <_ZN4CamX16ImageFormatUtils7s_socIdE+0xfffffffff8193838>
	bl	0xacdfc <_ZN4CamX16ImageFormatUtils7s_socIdE+0x9310c>
	bl	0xace5c <_ZN4CamX16ImageFormatUtils7s_socIdE+0x9316c>
	bl	0xfffffffff81ad570 <_ZN4CamX16ImageFormatUtils7s_socIdE+0xfffffffff8193880>
	bl	0xace84 <_ZN4CamX16ImageFormatUtils7s_socIdE+0x93194>
	bl	0xfffffffff81ad598 <_ZN4CamX16ImageFormatUtils7s_socIdE+0xfffffffff81938a8>
	bl	0xacf04 <_ZN4CamX16ImageFormatUtils7s_socIdE+0x93214>
	bl	0xfffffffff81ad5d8 <_ZN4CamX16ImageFormatUtils7s_socIdE+0xfffffffff81938e8>
	ldrsw	x8, 0x1d4ac <_ZN4CamX16ImageFormatUtils7s_socIdE+0x37bc>
	bl	0xacf3c <_ZN4CamX16ImageFormatUtils7s_socIdE+0x9324c>
	bl	0xfffffffff81ad650 <_ZN4CamX16ImageFormatUtils7s_socIdE+0xfffffffff8193960>
	ldrsw	x8, 0x1d524 <_ZN4CamX16ImageFormatUtils7s_socIdE+0x3834>
	bl	0xad024 <_ZN4CamX16ImageFormatUtils7s_socIdE+0x93334>
	bl	0xfffffffff81ad6f8 <_ZN4CamX16ImageFormatUtils7s_socIdE+0xfffffffff8193a08>
	ldrsw	x8, 0x1d5cc <_ZN4CamX16ImageFormatUtils7s_socIdE+0x38dc>
	bl	0xad054 <_ZN4CamX16ImageFormatUtils7s_socIdE+0x93364>
	bl	0xfffffffff81ad728 <_ZN4CamX16ImageFormatUtils7s_socIdE+0xfffffffff8193a38>
	ldrsw	x8, 0x1d5fc <_ZN4CamX16ImageFormatUtils7s_socIdE+0x390c>
	bl	0xad044 <_ZN4CamX16ImageFormatUtils7s_socIdE+0x93354>
	bl	0xfffffffff81ad758 <_ZN4CamX16ImageFormatUtils7s_socIdE+0xfffffffff8193a68>
	ldrsw	x8, 0x1d62c <_ZN4CamX16ImageFormatUtils7s_socIdE+0x393c>
	bl	0xad034 <_ZN4CamX16ImageFormatUtils7s_socIdE+0x93344>
	bl	0xad11c <_ZN4CamX16ImageFormatUtils7s_socIdE+0x9342c>
	bl	0xfffffffff81ad7b0 <_ZN4CamX16ImageFormatUtils7s_socIdE+0xfffffffff8193ac0>
	ldrsw	x8, 0x1d684 <_ZN4CamX16ImageFormatUtils7s_socIdE+0x3994>
	ldr	q16, 0x2d70c <_ZN4CamX16ImageFormatUtils7s_socIdE+0x13a1c>
	bl	0xad154 <_ZN4CamX16ImageFormatUtils7s_socIdE+0x93464>
	bl	0xfffffffff81ad7e8 <_ZN4CamX16ImageFormatUtils7s_socIdE+0xfffffffff8193af8>
	ldrsw	x8, 0x1d6bc <_ZN4CamX16ImageFormatUtils7s_socIdE+0x39cc>
	bl	0xad0cc <_ZN4CamX16ImageFormatUtils7s_socIdE+0x933dc>
	ldr	q4, 0x156b0 <_ZdaPv+0x1498>
	bl	0xad17c <_ZN4CamX16ImageFormatUtils7s_socIdE+0x9348c>
	bl	0xfffffffff81ad850 <_ZN4CamX16ImageFormatUtils7s_socIdE+0xfffffffff8193b60>
	ldrsw	x8, 0x1d724 <_ZN4CamX16ImageFormatUtils7s_socIdE+0x3a34>
	bl	0xad0f4 <_ZN4CamX16ImageFormatUtils7s_socIdE+0x93404>
	bl	0xad11c <_ZN4CamX16ImageFormatUtils7s_socIdE+0x9342c>
	bl	0xad18c <_ZN4CamX16ImageFormatUtils7s_socIdE+0x9349c>
	bl	0xad274 <_ZN4CamX16ImageFormatUtils7s_socIdE+0x93584>
	bl	0xfffffffff81ad908 <_ZN4CamX16ImageFormatUtils7s_socIdE+0xfffffffff8193c18>
	ldrsw	x8, 0x1d7dc <_ZN4CamX16ImageFormatUtils7s_socIdE+0x3aec>
	ldr	q16, 0x2d864 <_ZN4CamX16ImageFormatUtils7s_socIdE+0x13b74>
	bl	0xad1ac <_ZN4CamX16ImageFormatUtils7s_socIdE+0x934bc>
	bl	0xad23c <_ZN4CamX16ImageFormatUtils7s_socIdE+0x9354c>
	bl	0xad324 <_ZN4CamX16ImageFormatUtils7s_socIdE+0x93634>
	bl	0xfffffffff81ad9b8 <_ZN4CamX16ImageFormatUtils7s_socIdE+0xfffffffff8193cc8>
	ldrsw	x8, 0x1d88c <_ZN4CamX16ImageFormatUtils7s_socIdE+0x3b9c>
	ldr	q16, 0x2d914 <_ZN4CamX16ImageFormatUtils7s_socIdE+0x13c24>
	bl	0xad2dc <_ZN4CamX16ImageFormatUtils7s_socIdE+0x935ec>
	bl	0xfffffffff81ad9f0 <_ZN4CamX16ImageFormatUtils7s_socIdE+0xfffffffff8193d00>
	ldrsw	x8, 0x1d8c4 <_ZN4CamX16ImageFormatUtils7s_socIdE+0x3bd4>
	bl	0xad30c <_ZN4CamX16ImageFormatUtils7s_socIdE+0x9361c>
	bl	0xfffffffff81ada20 <_ZN4CamX16ImageFormatUtils7s_socIdE+0xfffffffff8193d30>
	ldrsw	x8, 0x1d8f4 <_ZN4CamX16ImageFormatUtils7s_socIdE+0x3c04>
	bl	0xad3c4 <_ZN4CamX16ImageFormatUtils7s_socIdE+0x936d4>
	bl	0xfffffffff81ada58 <_ZN4CamX16ImageFormatUtils7s_socIdE+0xfffffffff8193d68>
	ldrsw	x8, 0x1d92c <_ZN4CamX16ImageFormatUtils7s_socIdE+0x3c3c>
	ldr	q16, 0x2d9b4 <_ZN4CamX16ImageFormatUtils7s_socIdE+0x13cc4>
	bl	0xad2fc <_ZN4CamX16ImageFormatUtils7s_socIdE+0x9360c>
	bl	0xad3ec <_ZN4CamX16ImageFormatUtils7s_socIdE+0x936fc>
	bl	0xfffffffff81adac0 <_ZN4CamX16ImageFormatUtils7s_socIdE+0xfffffffff8193dd0>
	ldrsw	x8, 0x1d994 <_ZN4CamX16ImageFormatUtils7s_socIdE+0x3ca4>
	bl	0xad39c <_ZN4CamX16ImageFormatUtils7s_socIdE+0x936ac>
	bl	0xad3c4 <_ZN4CamX16ImageFormatUtils7s_socIdE+0x936d4>
	adrp	x0, 0x17000 <_ZN4CamX22DisplayConfigInterface15SetCameraStatusEj+0x20>

	adrp	x24, 0x18000 <_ZN4CamX22DisplayConfigInterface15SetCameraStatusEj+0x58>
	adrp	x21, 0x17000 <_ZN4CamX22DisplayConfigInterface15SetCameraStatusEj+0x60>
	adrp	x23, 0x19000 <_ZN4CamX22DisplayConfigInterface15SetCameraStatusEj+0x74>
	tbnz	w8, #31, 0x906c <_ZN4CamX22DisplayConfigInterface15SetCameraStatusEj+0x54>
	cbnz	w9, 0x90b8 <_ZN4CamX22DisplayConfigInterface15SetCameraStatusEj+0xa0>
	adrp	x20, 0x6000 <_ZN4CamX22DisplayConfigInterface15SetCameraStatusEj+0x48>
	adrp	x1, 0x5000 <_ZN4CamX22DisplayConfigInterface15SetCameraStatusEj+0x64>
	adrp	x3, 0x5000 <_ZN4CamX22DisplayConfigInterface15SetCameraStatusEj+0x68>
	adrp	x4, 0x4000 <_ZN4CamX22DisplayConfigInterface15SetCameraStatusEj+0x68>
	adrp	x6, 0x5000 <_ZN4CamX22DisplayConfigInterface15SetCameraStatusEj+0x70>
	bl	0x14440 <_ZdaPv+0x228>
	adrp	x8, 0x5000 <_ZN4CamX22DisplayConfigInterface15SetCameraStatusEj+0x90>
	bl	0x162c0 <_ZN13DisplayConfig15ClientInterface6CreateENSt3__112basic_stringIcNS1_11char_traitsIcEENS1_9allocatorIcEEEEPNS_14ConfigCallbackEPPS0_@plt>
	tbz	w12, #0, 0x9114 <_ZN4CamX22DisplayConfigInterface15SetCameraStatusEj+0xfc>
	cbz	x0, 0x9114 <_ZN4CamX22DisplayConfigInterface15SetCameraStatusEj+0xfc>
	cbnz	w20, 0x9214 <_ZN4CamX22DisplayConfigInterface15SetCameraStatusEj+0x1fc>
	cbz	x0, 0x9214 <_ZN4CamX22DisplayConfigInterface15SetCameraStatusEj+0x1fc>
	tbnz	w14, #31, 0x9130 <_ZN4CamX22DisplayConfigInterface15SetCameraStatusEj+0x118>
	cbnz	w15, 0x9180 <_ZN4CamX22DisplayConfigInterface15SetCameraStatusEj+0x168>
	adrp	x20, 0x6000 <_ZN4CamX22DisplayConfigInterface15SetCameraStatusEj+0x10c>
	adrp	x1, 0x5000 <_ZN4CamX22DisplayConfigInterface15SetCameraStatusEj+0x128>
	adrp	x3, 0x5000 <_ZN4CamX22DisplayConfigInterface15SetCameraStatusEj+0x12c>
	adrp	x4, 0x4000 <_ZN4CamX22DisplayConfigInterface15SetCameraStatusEj+0x12c>
	adrp	x6, 0x5000 <_ZN4CamX22DisplayConfigInterface15SetCameraStatusEj+0x134>
	bl	0x14440 <_ZdaPv+0x228>
	bl	0x162e0 <_ZNK7android8hardware7details13return_status16onValueRetrievalEv@plt>
	cbz	w17, 0x9268 <_ZN4CamX22DisplayConfigInterface15SetCameraStatusEj+0x250>
	adrp	x20, 0x6000 <_ZN4CamX22DisplayConfigInterface15SetCameraStatusEj+0x19c>
	adrp	x1, 0x6000 <_ZN4CamX22DisplayConfigInterface15SetCameraStatusEj+0x1bc>
	adrp	x3, 0x5000 <_ZN4CamX22DisplayConfigInterface15SetCameraStatusEj+0x1bc>
	adrp	x4, 0x4000 <_ZN4CamX22DisplayConfigInterface15SetCameraStatusEj+0x1bc>
	adrp	x6, 0x5000 <_ZN4CamX22DisplayConfigInterface15SetCameraStatusEj+0x1c4>
	bl	0x14440 <_ZdaPv+0x228>
	b	0x92c8 <_ZN4CamX22DisplayConfigInterface15SetCameraStatusEj+0x2b0>
	adrp	x20, 0x6000 <_ZN4CamX22DisplayConfigInterface15SetCameraStatusEj+0x1f0>
	adrp	x1, 0x6000 <_ZN4CamX22DisplayConfigInterface15SetCameraStatusEj+0x210>
	adrp	x3, 0x4000 <_ZN4CamX22DisplayConfigInterface15SetCameraStatusEj+0x20c>
	adrp	x4, 0x4000 <_ZN4CamX22DisplayConfigInterface15SetCameraStatusEj+0x210>
	adrp	x6, 0x5000 <_ZN4CamX22DisplayConfigInterface15SetCameraStatusEj+0x218>
	bl	0x14440 <_ZdaPv+0x228>
	b	0x92d4 <_ZN4CamX22DisplayConfigInterface15SetCameraStatusEj+0x2bc>
	tbnz	w3, #31, 0x9278 <_ZN4CamX22DisplayConfigInterface15SetCameraStatusEj+0x260>
	cbnz	w4, 0x92c8 <_ZN4CamX22DisplayConfigInterface15SetCameraStatusEj+0x2b0>
	adrp	x20, 0x6000 <_ZN4CamX22DisplayConfigInterface15SetCameraStatusEj+0x254>
	adrp	x1, 0x5000 <_ZN4CamX22DisplayConfigInterface15SetCameraStatusEj+0x270>
	adrp	x3, 0x6000 <_ZN4CamX22DisplayConfigInterface15SetCameraStatusEj+0x278>
	adrp	x4, 0x4000 <_ZN4CamX22DisplayConfigInterface15SetCameraStatusEj+0x274>
	adrp	x6, 0x5000 <_ZN4CamX22DisplayConfigInterface15SetCameraStatusEj+0x27c>
	bl	0x14440 <_ZdaPv+0x228>
	bl	0x162f0 <_ZN7android8hardware7details13return_statusD2Ev@plt>
	bl	0x16300 <_ZN13DisplayConfig15ClientInterface7DestroyEPS0_@plt>
	b.ne	0x9310 <_ZN4CamX22DisplayConfigInterface15SetCameraStatusEj+0x2f8>
	bl	0x9448 <_ZN4CamX22DisplayConfigInterface15SetCameraStatusEj+0x430>
	tbz	w13, #0, 0x9348 <_ZN4CamX22DisplayConfigInterface15SetCameraStatusEj+0x330>
	cbz	x0, 0x9348 <_ZN4CamX22DisplayConfigInterface15SetCameraStatusEj+0x330>
	b	0x9348 <_ZN4CamX22DisplayConfigInterface15SetCameraStatusEj+0x330>
	bl	0x162f0 <_ZN7android8hardware7details13return_statusD2Ev@plt>
	b	0x9348 <_ZN4CamX22DisplayConfigInterface15SetCameraStatusEj+0x330>
	bl	0x16300 <_ZN13DisplayConfig15ClientInterface7DestroyEPS0_@plt>
	bl	0x9448 <_ZN4CamX22DisplayConfigInterface15SetCameraStatusEj+0x430>
	b.ne	0x9400 <_ZN4CamX22DisplayConfigInterface15SetCameraStatusEj+0x3e8>
	adrp	x8, 0x17000 <_ZN4CamX22DisplayConfigInterface15SetCameraStatusEj+0x434>
	bl	0x16300 <_ZN13DisplayConfig15ClientInterface7DestroyEPS0_@plt>
	bl	0x9448 <_ZN4CamX22DisplayConfigInterface15SetCameraStatusEj+0x430>
	bl	0x16350 <_ZSt9terminatev@plt>
	adrp	x8, 0x17000 <_ZN4CamX22DisplayConfigInterface15SetCameraStatusEj+0x484>
	bl	0x16300 <_ZN13DisplayConfig15ClientInterface7DestroyEPS0_@plt>
	bl	0x9448 <_ZN4CamX22DisplayConfigInterface15SetCameraStatusEj+0x430>
	b	0x16360 <_ZN7android8hardware11hidl_stringD1Ev@plt>
	tbz	w8, #0, 0x94b4 <_ZN4CamX22DisplayConfigInterface15SetCameraStatusEj+0x49c>
	cbz	x0, 0x94b4 <_ZN4CamX22DisplayConfigInterface15SetCameraStatusEj+0x49c>

	bl	0x16370 <_ZN4CamX7Gralloc22ResetGrallocInterfacesEi@plt>
	bl	0x9448 <_ZN4CamX22DisplayConfigInterface15SetCameraStatusEj+0x430>

	cbz	x19, 0x9780 <_ZN4CamX7Gralloc22ResetGrallocInterfacesEi+0x2a8>
	cbz	x24, 0x952c <_ZN4CamX7Gralloc22ResetGrallocInterfacesEi+0x54>
	bl	0x16380 <_ZNK7android7RefBase9decStrongEPKv@plt>
	b.eq	0x9528 <_ZN4CamX7Gralloc22ResetGrallocInterfacesEi+0x50>
	bl	0x16390 <_ZN7android14sp_report_raceEv@plt>
	cbz	x25, 0x9560 <_ZN4CamX7Gralloc22ResetGrallocInterfacesEi+0x88>
	bl	0x16380 <_ZNK7android7RefBase9decStrongEPKv@plt>
	b.eq	0x955c <_ZN4CamX7Gralloc22ResetGrallocInterfacesEi+0x84>
	bl	0x16390 <_ZN7android14sp_report_raceEv@plt>
	cbz	x24, 0x9594 <_ZN4CamX7Gralloc22ResetGrallocInterfacesEi+0xbc>
	bl	0x16380 <_ZNK7android7RefBase9decStrongEPKv@plt>
	b.eq	0x9590 <_ZN4CamX7Gralloc22ResetGrallocInterfacesEi+0xb8>
	bl	0x16390 <_ZN7android14sp_report_raceEv@plt>
	cbz	x24, 0x95b0 <_ZN4CamX7Gralloc22ResetGrallocInterfacesEi+0xd8>
	bl	0x16380 <_ZNK7android7RefBase9decStrongEPKv@plt>
	b.eq	0x95c0 <_ZN4CamX7Gralloc22ResetGrallocInterfacesEi+0xe8>
	bl	0x16390 <_ZN7android14sp_report_raceEv@plt>
	cbz	x24, 0x95e0 <_ZN4CamX7Gralloc22ResetGrallocInterfacesEi+0x108>
	bl	0x16380 <_ZNK7android7RefBase9decStrongEPKv@plt>
	b.eq	0x95f0 <_ZN4CamX7Gralloc22ResetGrallocInterfacesEi+0x118>
	bl	0x16390 <_ZN7android14sp_report_raceEv@plt>
	cbz	x24, 0x9610 <_ZN4CamX7Gralloc22ResetGrallocInterfacesEi+0x138>
	bl	0x16380 <_ZNK7android7RefBase9decStrongEPKv@plt>
	b.eq	0x9620 <_ZN4CamX7Gralloc22ResetGrallocInterfacesEi+0x148>
	bl	0x16390 <_ZN7android14sp_report_raceEv@plt>
	cbz	x24, 0x9658 <_ZN4CamX7Gralloc22ResetGrallocInterfacesEi+0x180>
	bl	0x16380 <_ZNK7android7RefBase9decStrongEPKv@plt>
	b.eq	0x9654 <_ZN4CamX7Gralloc22ResetGrallocInterfacesEi+0x17c>
	bl	0x16390 <_ZN7android14sp_report_raceEv@plt>
	cbz	x25, 0x968c <_ZN4CamX7Gralloc22ResetGrallocInterfacesEi+0x1b4>
	bl	0x16380 <_ZNK7android7RefBase9decStrongEPKv@plt>
	b.eq	0x9688 <_ZN4CamX7Gralloc22ResetGrallocInterfacesEi+0x1b0>
	bl	0x16390 <_ZN7android14sp_report_raceEv@plt>
	cbz	x25, 0x96a8 <_ZN4CamX7Gralloc22ResetGrallocInterfacesEi+0x1d0>
	bl	0x16380 <_ZNK7android7RefBase9decStrongEPKv@plt>
	b.eq	0x96b8 <_ZN4CamX7Gralloc22ResetGrallocInterfacesEi+0x1e0>
	bl	0x16390 <_ZN7android14sp_report_raceEv@plt>
	cbz	x25, 0x96d8 <_ZN4CamX7Gralloc22ResetGrallocInterfacesEi+0x200>
	bl	0x16380 <_ZNK7android7RefBase9decStrongEPKv@plt>
	b.eq	0x96e8 <_ZN4CamX7Gralloc22ResetGrallocInterfacesEi+0x210>
	bl	0x16390 <_ZN7android14sp_report_raceEv@plt>
	b.ne	0x9780 <_ZN4CamX7Gralloc22ResetGrallocInterfacesEi+0x2a8>
	cbz	x8, 0x9710 <_ZN4CamX7Gralloc22ResetGrallocInterfacesEi+0x238>
	bl	0x16380 <_ZNK7android7RefBase9decStrongEPKv@plt>
	cbz	x9, 0x972c <_ZN4CamX7Gralloc22ResetGrallocInterfacesEi+0x254>
	bl	0x16380 <_ZNK7android7RefBase9decStrongEPKv@plt>
	cbz	x10, 0x9748 <_ZN4CamX7Gralloc22ResetGrallocInterfacesEi+0x270>
	bl	0x16380 <_ZNK7android7RefBase9decStrongEPKv@plt>
	cbz	x11, 0x9764 <_ZN4CamX7Gralloc22ResetGrallocInterfacesEi+0x28c>
	bl	0x16380 <_ZNK7android7RefBase9decStrongEPKv@plt>
	bl	0x9448 <_ZN4CamX22DisplayConfigInterface15SetCameraStatusEj+0x430>
	bl	0x9448 <_ZN4CamX22DisplayConfigInterface15SetCameraStatusEj+0x430>
	bl	0x9448 <_ZN4CamX22DisplayConfigInterface15SetCameraStatusEj+0x430>
	bl	0x9448 <_ZN4CamX22DisplayConfigInterface15SetCameraStatusEj+0x430>

	cbz	w0, 0x9870 <_ZN4CamX7Gralloc10InitializeEv+0xc8>
	adrp	x19, 0x4000 <_ZN4CamX7Gralloc10InitializeEv+0x2c>
	adrp	x1, 0x6000 <_ZN4CamX7Gralloc10InitializeEv+0x68>
	adrp	x3, 0x4000 <_ZN4CamX7Gralloc10InitializeEv+0x64>
	adrp	x4, 0x5000 <_ZN4CamX7Gralloc10InitializeEv+0x6c>
	adrp	x6, 0x5000 <_ZN4CamX7Gralloc10InitializeEv+0x70>
	bl	0x14440 <_ZdaPv+0x228>
	b.ne	0x98b8 <_ZN4CamX7Gralloc10InitializeEv+0x110>
	cbz	x8, 0x97e0 <_ZN4CamX7Gralloc10InitializeEv+0x38>
	bl	0x16370 <_ZN4CamX7Gralloc22ResetGrallocInterfacesEi@plt>
	bl	0x163b0 <_ZN4CamX7Gralloc17InitializeMapper4Ev@plt>
	cbz	w0, 0x9850 <_ZN4CamX7Gralloc10InitializeEv+0xa8>
	bl	0x163c0 <_ZN4CamX7Gralloc17InitializeMapper3Ev@plt>
	b.eq	0x9860 <_ZN4CamX7Gralloc10InitializeEv+0xb8>

	bl	0x16370 <_ZN4CamX7Gralloc22ResetGrallocInterfacesEi@plt>
	bl	0x163d0 <_ZN6vendor3qti8hardware7display9allocator4V4_013IQtiAllocator10getServiceERKNSt3__112basic_stringIcNS6_11char_traitsIcEENS6_9allocatorIcEEEEb@plt>
	cbz	x25, 0x9954 <_ZN4CamX7Gralloc17InitializeMapper4Ev+0x94>
	bl	0x16380 <_ZNK7android7RefBase9decStrongEPKv@plt>
	b.eq	0x9964 <_ZN4CamX7Gralloc17InitializeMapper4Ev+0xa4>
	bl	0x16390 <_ZN7android14sp_report_raceEv@plt>
	tbz	w9, #0, 0x9988 <_ZN4CamX7Gralloc17InitializeMapper4Ev+0xc8>
	cbz	x0, 0x9988 <_ZN4CamX7Gralloc17InitializeMapper4Ev+0xc8>
	cbz	x8, 0x9bb4 <_ZN4CamX7Gralloc17InitializeMapper4Ev+0x2f4>
	bl	0x163e0 <_ZN7android8hardware8graphics6mapper4V4_07IMapper10getServiceERKNSt3__112basic_stringIcNS5_11char_traitsIcEENS5_9allocatorIcEEEEb@plt>
	bl	0x163f0 <_ZN6vendor3qti8hardware7display6mapper4V4_010IQtiMapper8castFromERKN7android2spINS6_8hardware8graphics6mapper4V4_07IMapperEEEb@plt>
	bl	0x162e0 <_ZNK7android8hardware7details13return_status16onValueRetrievalEv@plt>
	cbz	x11, 0x99f4 <_ZN4CamX7Gralloc17InitializeMapper4Ev+0x134>
	bl	0x16400 <_ZNK7android7RefBase9incStrongEPKv@plt>
	cbz	x24, 0x9a14 <_ZN4CamX7Gralloc17InitializeMapper4Ev+0x154>
	bl	0x16380 <_ZNK7android7RefBase9decStrongEPKv@plt>
	b.eq	0x9a24 <_ZN4CamX7Gralloc17InitializeMapper4Ev+0x164>
	bl	0x16390 <_ZN7android14sp_report_raceEv@plt>
	cbz	x9, 0x9a50 <_ZN4CamX7Gralloc17InitializeMapper4Ev+0x190>
	bl	0x16380 <_ZNK7android7RefBase9decStrongEPKv@plt>
	bl	0x162f0 <_ZN7android8hardware7details13return_statusD2Ev@plt>
	cbz	x12, 0x9a74 <_ZN4CamX7Gralloc17InitializeMapper4Ev+0x1b4>
	bl	0x16380 <_ZNK7android7RefBase9decStrongEPKv@plt>
	tbz	w12, #0, 0x9a88 <_ZN4CamX7Gralloc17InitializeMapper4Ev+0x1c8>
	cbz	x0, 0x9a88 <_ZN4CamX7Gralloc17InitializeMapper4Ev+0x1c8>
	cbz	x22, 0x9bd8 <_ZN4CamX7Gralloc17InitializeMapper4Ev+0x318>
	adrp	x6, 0x17000 <_ZN4CamX7Gralloc17InitializeMapper4Ev+0x20c>
	b.eq	0x9bfc <_ZN4CamX7Gralloc17InitializeMapper4Ev+0x33c>
	cbz	x0, 0x9afc <_ZN4CamX7Gralloc17InitializeMapper4Ev+0x23c>
	cbz	w14, 0x9c18 <_ZN4CamX7Gralloc17InitializeMapper4Ev+0x358>
	adrp	x22, 0x4000 <_ZN4CamX7Gralloc17InitializeMapper4Ev+0x238>
	bl	0x16410 <_ZNK7android8hardware6Status11descriptionEv@plt>
	adrp	x1, 0x6000 <_ZN4CamX7Gralloc17InitializeMapper4Ev+0x288>
	adrp	x3, 0x5000 <_ZN4CamX7Gralloc17InitializeMapper4Ev+0x288>
	adrp	x4, 0x5000 <_ZN4CamX7Gralloc17InitializeMapper4Ev+0x28c>
	adrp	x6, 0x4000 <_ZN4CamX7Gralloc17InitializeMapper4Ev+0x28c>
	bl	0x14440 <_ZdaPv+0x228>
	tbz	w17, #0, 0x9b94 <_ZN4CamX7Gralloc17InitializeMapper4Ev+0x2d4>
	cbz	x0, 0x9b94 <_ZN4CamX7Gralloc17InitializeMapper4Ev+0x2d4>
	adrp	x22, 0x5000 <_ZN4CamX7Gralloc17InitializeMapper4Ev+0x2c4>
	bl	0x162f0 <_ZN7android8hardware7details13return_statusD2Ev@plt>
	cbnz	x14, 0x9ca4 <_ZN4CamX7Gralloc17InitializeMapper4Ev+0x3e4>
	b	0x9cb8 <_ZN4CamX7Gralloc17InitializeMapper4Ev+0x3f8>
	adrp	x22, 0x5000 <_ZN4CamX7Gralloc17InitializeMapper4Ev+0x2e4>
	adrp	x14, 0x18000 <_ZN4CamX7Gralloc17InitializeMapper4Ev+0x340>
	tbz	w3, #4, 0x9cd0 <_ZN4CamX7Gralloc17InitializeMapper4Ev+0x410>
	b	0x9cdc <_ZN4CamX7Gralloc17InitializeMapper4Ev+0x41c>
	adrp	x22, 0x4000 <_ZN4CamX7Gralloc17InitializeMapper4Ev+0x304>
	adrp	x14, 0x18000 <_ZN4CamX7Gralloc17InitializeMapper4Ev+0x364>
	tbz	w3, #4, 0x9cd0 <_ZN4CamX7Gralloc17InitializeMapper4Ev+0x410>
	b	0x9cdc <_ZN4CamX7Gralloc17InitializeMapper4Ev+0x41c>
	cbnz	w14, 0x9b0c <_ZN4CamX7Gralloc17InitializeMapper4Ev+0x24c>
	cbz	w0, 0x9c40 <_ZN4CamX7Gralloc17InitializeMapper4Ev+0x380>
	adrp	x22, 0x5000 <_ZN4CamX7Gralloc17InitializeMapper4Ev+0x350>
	bl	0x162f0 <_ZN7android8hardware7details13return_statusD2Ev@plt>
	cbnz	x14, 0x9ca4 <_ZN4CamX7Gralloc17InitializeMapper4Ev+0x3e4>
	b	0x9cb8 <_ZN4CamX7Gralloc17InitializeMapper4Ev+0x3f8>
	cbz	x24, 0x9c60 <_ZN4CamX7Gralloc17InitializeMapper4Ev+0x3a0>
	bl	0x16400 <_ZNK7android7RefBase9incStrongEPKv@plt>
	cbz	x21, 0x9c78 <_ZN4CamX7Gralloc17InitializeMapper4Ev+0x3b8>
	bl	0x16380 <_ZNK7android7RefBase9decStrongEPKv@plt>
	b.eq	0x9c88 <_ZN4CamX7Gralloc17InitializeMapper4Ev+0x3c8>
	bl	0x16390 <_ZN7android14sp_report_raceEv@plt>
	bl	0x162f0 <_ZN7android8hardware7details13return_statusD2Ev@plt>
	cbz	x14, 0x9cb8 <_ZN4CamX7Gralloc17InitializeMapper4Ev+0x3f8>
	bl	0x16380 <_ZNK7android7RefBase9decStrongEPKv@plt>
	cbz	x22, 0x9d3c <_ZN4CamX7Gralloc17InitializeMapper4Ev+0x47c>
	adrp	x14, 0x18000 <_ZN4CamX7Gralloc17InitializeMapper4Ev+0x43c>
	tbnz	w3, #4, 0x9cdc <_ZN4CamX7Gralloc17InitializeMapper4Ev+0x41c>
	adrp	x15, 0x19000 <_ZN4CamX7Gralloc17InitializeMapper4Ev+0x450>
	cbnz	w4, 0x9d30 <_ZN4CamX7Gralloc17InitializeMapper4Ev+0x470>
	adrp	x20, 0x4000 <_ZN4CamX7Gralloc17InitializeMapper4Ev+0x408>
	adrp	x1, 0x4000 <_ZN4CamX7Gralloc17InitializeMapper4Ev+0x424>
	adrp	x3, 0x4000 <_ZN4CamX7Gralloc17InitializeMapper4Ev+0x428>
	adrp	x4, 0x5000 <_ZN4CamX7Gralloc17InitializeMapper4Ev+0x430>
	adrp	x6, 0x4000 <_ZN4CamX7Gralloc17InitializeMapper4Ev+0x430>
	bl	0x14440 <_ZdaPv+0x228>
	bl	0x16370 <_ZN4CamX7Gralloc22ResetGrallocInterfacesEi@plt>
	b.ne	0x9d6c <_ZN4CamX7Gralloc17InitializeMapper4Ev+0x4ac>
	bl	0x9448 <_ZN4CamX22DisplayConfigInterface15SetCameraStatusEj+0x430>
	tbz	w2, #0, 0x9d98 <_ZN4CamX7Gralloc17InitializeMapper4Ev+0x4d8>
	cbz	x0, 0x9d98 <_ZN4CamX7Gralloc17InitializeMapper4Ev+0x4d8>
	b	0x9d98 <_ZN4CamX7Gralloc17InitializeMapper4Ev+0x4d8>
	b	0x9d94 <_ZN4CamX7Gralloc17InitializeMapper4Ev+0x4d4>
	bl	0x162f0 <_ZN7android8hardware7details13return_statusD2Ev@plt>
	cbz	x13, 0x9e8c <_ZN4CamX7Gralloc17InitializeMapper4Ev+0x5cc>
	bl	0x16380 <_ZNK7android7RefBase9decStrongEPKv@plt>
	b	0x9e8c <_ZN4CamX7Gralloc17InitializeMapper4Ev+0x5cc>
	bl	0x9448 <_ZN4CamX22DisplayConfigInterface15SetCameraStatusEj+0x430>
	b.ne	0x9de8 <_ZN4CamX7Gralloc17InitializeMapper4Ev+0x528>
	b	0x9da0 <_ZN4CamX7Gralloc17InitializeMapper4Ev+0x4e0>
	cbz	x8, 0x9da0 <_ZN4CamX7Gralloc17InitializeMapper4Ev+0x4e0>
	b	0x9da0 <_ZN4CamX7Gralloc17InitializeMapper4Ev+0x4e0>
	bl	0x9448 <_ZN4CamX22DisplayConfigInterface15SetCameraStatusEj+0x430>
	bl	0x9448 <_ZN4CamX22DisplayConfigInterface15SetCameraStatusEj+0x430>
	b	0x9e5c <_ZN4CamX7Gralloc17InitializeMapper4Ev+0x59c>
	b	0x9e78 <_ZN4CamX7Gralloc17InitializeMapper4Ev+0x5b8>
	bl	0x9448 <_ZN4CamX22DisplayConfigInterface15SetCameraStatusEj+0x430>
	tbz	w10, #0, 0x9e8c <_ZN4CamX7Gralloc17InitializeMapper4Ev+0x5cc>
	cbnz	x0, 0x9e88 <_ZN4CamX7Gralloc17InitializeMapper4Ev+0x5c8>
	b	0x9e8c <_ZN4CamX7Gralloc17InitializeMapper4Ev+0x5cc>
	cbz	x10, 0x9e54 <_ZN4CamX7Gralloc17InitializeMapper4Ev+0x594>
	bl	0x16380 <_ZNK7android7RefBase9decStrongEPKv@plt>
	bl	0x162f0 <_ZN7android8hardware7details13return_statusD2Ev@plt>
	cbz	x15, 0x9e78 <_ZN4CamX7Gralloc17InitializeMapper4Ev+0x5b8>
	bl	0x16380 <_ZNK7android7RefBase9decStrongEPKv@plt>
	tbz	w13, #0, 0x9e8c <_ZN4CamX7Gralloc17InitializeMapper4Ev+0x5cc>
	cbz	x0, 0x9e8c <_ZN4CamX7Gralloc17InitializeMapper4Ev+0x5cc>
	bl	0x9448 <_ZN4CamX22DisplayConfigInterface15SetCameraStatusEj+0x430>
	bl	0x9448 <_ZN4CamX22DisplayConfigInterface15SetCameraStatusEj+0x430>
	bl	0x9448 <_ZN4CamX22DisplayConfigInterface15SetCameraStatusEj+0x430>

	bl	0x16420 <_ZN6vendor3qti8hardware7display9allocator4V3_013IQtiAllocator10getServiceERKNSt3__112basic_stringIcNS6_11char_traitsIcEENS6_9allocatorIcEEEEb@plt>
	cbz	x24, 0x9f24 <_ZN4CamX7Gralloc17InitializeMapper3Ev+0x84>
	bl	0x16380 <_ZNK7android7RefBase9decStrongEPKv@plt>
	b.eq	0x9f34 <_ZN4CamX7Gralloc17InitializeMapper3Ev+0x94>
	bl	0x16390 <_ZN7android14sp_report_raceEv@plt>
	tbz	w8, #0, 0x9f54 <_ZN4CamX7Gralloc17InitializeMapper3Ev+0xb4>
	cbz	x0, 0x9f54 <_ZN4CamX7Gralloc17InitializeMapper3Ev+0xb4>
	cbz	x12, 0xa184 <_ZN4CamX7Gralloc17InitializeMapper3Ev+0x2e4>
	bl	0x16430 <_ZN7android8hardware8graphics6mapper4V3_07IMapper10getServiceERKNSt3__112basic_stringIcNS5_11char_traitsIcEENS5_9allocatorIcEEEEb@plt>
	bl	0x16440 <_ZN6vendor3qti8hardware7display6mapper4V3_010IQtiMapper8castFromERKN7android2spINS6_8hardware8graphics6mapper4V3_07IMapperEEEb@plt>
	bl	0x162e0 <_ZNK7android8hardware7details13return_status16onValueRetrievalEv@plt>
	cbz	x11, 0x9fc4 <_ZN4CamX7Gralloc17InitializeMapper3Ev+0x124>
	bl	0x16400 <_ZNK7android7RefBase9incStrongEPKv@plt>
	cbz	x24, 0x9fe4 <_ZN4CamX7Gralloc17InitializeMapper3Ev+0x144>
	bl	0x16380 <_ZNK7android7RefBase9decStrongEPKv@plt>
	b.eq	0x9ff4 <_ZN4CamX7Gralloc17InitializeMapper3Ev+0x154>
	bl	0x16390 <_ZN7android14sp_report_raceEv@plt>
	cbz	x9, 0xa020 <_ZN4CamX7Gralloc17InitializeMapper3Ev+0x180>
	bl	0x16380 <_ZNK7android7RefBase9decStrongEPKv@plt>
	bl	0x162f0 <_ZN7android8hardware7details13return_statusD2Ev@plt>
	cbz	x12, 0xa044 <_ZN4CamX7Gralloc17InitializeMapper3Ev+0x1a4>
	bl	0x16380 <_ZNK7android7RefBase9decStrongEPKv@plt>
	tbz	w12, #0, 0xa058 <_ZN4CamX7Gralloc17InitializeMapper3Ev+0x1b8>
	cbz	x0, 0xa058 <_ZN4CamX7Gralloc17InitializeMapper3Ev+0x1b8>
	cbz	x7, 0xa198 <_ZN4CamX7Gralloc17InitializeMapper3Ev+0x2f8>
	adrp	x6, 0x17000 <_ZN4CamX7Gralloc17InitializeMapper3Ev+0x1f8>
	b.eq	0xa1ac <_ZN4CamX7Gralloc17InitializeMapper3Ev+0x30c>
	cbz	x0, 0xa0cc <_ZN4CamX7Gralloc17InitializeMapper3Ev+0x22c>
	cbz	w14, 0xa1c8 <_ZN4CamX7Gralloc17InitializeMapper3Ev+0x328>
	adrp	x22, 0x4000 <_ZN4CamX7Gralloc17InitializeMapper3Ev+0x224>
	bl	0x16410 <_ZNK7android8hardware6Status11descriptionEv@plt>
	adrp	x1, 0x6000 <_ZN4CamX7Gralloc17InitializeMapper3Ev+0x274>
	adrp	x3, 0x4000 <_ZN4CamX7Gralloc17InitializeMapper3Ev+0x270>
	adrp	x4, 0x5000 <_ZN4CamX7Gralloc17InitializeMapper3Ev+0x278>
	adrp	x6, 0x4000 <_ZN4CamX7Gralloc17InitializeMapper3Ev+0x278>
	bl	0x14440 <_ZdaPv+0x228>
	tbz	w17, #0, 0xa164 <_ZN4CamX7Gralloc17InitializeMapper3Ev+0x2c4>
	cbz	x0, 0xa164 <_ZN4CamX7Gralloc17InitializeMapper3Ev+0x2c4>
	adrp	x22, 0x6000 <_ZN4CamX7Gralloc17InitializeMapper3Ev+0x2b4>
	bl	0x162f0 <_ZN7android8hardware7details13return_statusD2Ev@plt>
	cbnz	x14, 0xa254 <_ZN4CamX7Gralloc17InitializeMapper3Ev+0x3b4>
	b	0xa268 <_ZN4CamX7Gralloc17InitializeMapper3Ev+0x3c8>
	adrp	x22, 0x5000 <_ZN4CamX7Gralloc17InitializeMapper3Ev+0x2d0>
	b	0xa270 <_ZN4CamX7Gralloc17InitializeMapper3Ev+0x3d0>
	adrp	x22, 0x4000 <_ZN4CamX7Gralloc17InitializeMapper3Ev+0x2e0>
	b	0xa270 <_ZN4CamX7Gralloc17InitializeMapper3Ev+0x3d0>
	cbnz	w14, 0xa0dc <_ZN4CamX7Gralloc17InitializeMapper3Ev+0x23c>
	cbz	w0, 0xa1f0 <_ZN4CamX7Gralloc17InitializeMapper3Ev+0x350>
	adrp	x22, 0x5000 <_ZN4CamX7Gralloc17InitializeMapper3Ev+0x31c>
	bl	0x162f0 <_ZN7android8hardware7details13return_statusD2Ev@plt>
	cbnz	x14, 0xa254 <_ZN4CamX7Gralloc17InitializeMapper3Ev+0x3b4>
	b	0xa268 <_ZN4CamX7Gralloc17InitializeMapper3Ev+0x3c8>
	cbz	x24, 0xa210 <_ZN4CamX7Gralloc17InitializeMapper3Ev+0x370>
	bl	0x16400 <_ZNK7android7RefBase9incStrongEPKv@plt>
	cbz	x21, 0xa228 <_ZN4CamX7Gralloc17InitializeMapper3Ev+0x388>
	bl	0x16380 <_ZNK7android7RefBase9decStrongEPKv@plt>
	b.eq	0xa238 <_ZN4CamX7Gralloc17InitializeMapper3Ev+0x398>
	bl	0x16390 <_ZN7android14sp_report_raceEv@plt>
	bl	0x162f0 <_ZN7android8hardware7details13return_statusD2Ev@plt>
	cbz	x14, 0xa268 <_ZN4CamX7Gralloc17InitializeMapper3Ev+0x3c8>
	bl	0x16380 <_ZNK7android7RefBase9decStrongEPKv@plt>
	cbz	x22, 0xa2d4 <_ZN4CamX7Gralloc17InitializeMapper3Ev+0x434>
	adrp	x20, 0x4000 <_ZN4CamX7Gralloc17InitializeMapper3Ev+0x3b8>
	adrp	x1, 0x6000 <_ZN4CamX7Gralloc17InitializeMapper3Ev+0x3dc>
	adrp	x3, 0x6000 <_ZN4CamX7Gralloc17InitializeMapper3Ev+0x3e0>
	adrp	x4, 0x5000 <_ZN4CamX7Gralloc17InitializeMapper3Ev+0x3e0>
	adrp	x6, 0x4000 <_ZN4CamX7Gralloc17InitializeMapper3Ev+0x3e0>
	bl	0x14440 <_ZdaPv+0x228>
	bl	0x16370 <_ZN4CamX7Gralloc22ResetGrallocInterfacesEi@plt>
	b.ne	0xa300 <_ZN4CamX7Gralloc17InitializeMapper3Ev+0x460>
	bl	0x9448 <_ZN4CamX22DisplayConfigInterface15SetCameraStatusEj+0x430>
	tbz	w2, #0, 0xa32c <_ZN4CamX7Gralloc17InitializeMapper3Ev+0x48c>
	cbz	x0, 0xa32c <_ZN4CamX7Gralloc17InitializeMapper3Ev+0x48c>
	b	0xa32c <_ZN4CamX7Gralloc17InitializeMapper3Ev+0x48c>
	b	0xa328 <_ZN4CamX7Gralloc17InitializeMapper3Ev+0x488>
	bl	0x162f0 <_ZN7android8hardware7details13return_statusD2Ev@plt>
	cbz	x13, 0xa420 <_ZN4CamX7Gralloc17InitializeMapper3Ev+0x580>
	bl	0x16380 <_ZNK7android7RefBase9decStrongEPKv@plt>
	b	0xa420 <_ZN4CamX7Gralloc17InitializeMapper3Ev+0x580>
	bl	0x9448 <_ZN4CamX22DisplayConfigInterface15SetCameraStatusEj+0x430>
	b.ne	0xa37c <_ZN4CamX7Gralloc17InitializeMapper3Ev+0x4dc>
	b	0xa334 <_ZN4CamX7Gralloc17InitializeMapper3Ev+0x494>
	cbz	x8, 0xa334 <_ZN4CamX7Gralloc17InitializeMapper3Ev+0x494>
	b	0xa334 <_ZN4CamX7Gralloc17InitializeMapper3Ev+0x494>
	bl	0x9448 <_ZN4CamX22DisplayConfigInterface15SetCameraStatusEj+0x430>
	bl	0x9448 <_ZN4CamX22DisplayConfigInterface15SetCameraStatusEj+0x430>
	b	0xa3f0 <_ZN4CamX7Gralloc17InitializeMapper3Ev+0x550>
	b	0xa40c <_ZN4CamX7Gralloc17InitializeMapper3Ev+0x56c>
	bl	0x9448 <_ZN4CamX22DisplayConfigInterface15SetCameraStatusEj+0x430>
	tbz	w10, #0, 0xa420 <_ZN4CamX7Gralloc17InitializeMapper3Ev+0x580>
	cbnz	x0, 0xa41c <_ZN4CamX7Gralloc17InitializeMapper3Ev+0x57c>
	b	0xa420 <_ZN4CamX7Gralloc17InitializeMapper3Ev+0x580>
	cbz	x10, 0xa3e8 <_ZN4CamX7Gralloc17InitializeMapper3Ev+0x548>
	bl	0x16380 <_ZNK7android7RefBase9decStrongEPKv@plt>
	bl	0x162f0 <_ZN7android8hardware7details13return_statusD2Ev@plt>
	cbz	x15, 0xa40c <_ZN4CamX7Gralloc17InitializeMapper3Ev+0x56c>
	bl	0x16380 <_ZNK7android7RefBase9decStrongEPKv@plt>
	tbz	w13, #0, 0xa420 <_ZN4CamX7Gralloc17InitializeMapper3Ev+0x580>
	cbz	x0, 0xa420 <_ZN4CamX7Gralloc17InitializeMapper3Ev+0x580>
	bl	0x9448 <_ZN4CamX22DisplayConfigInterface15SetCameraStatusEj+0x430>
	bl	0x9448 <_ZN4CamX22DisplayConfigInterface15SetCameraStatusEj+0x430>
	bl	0x9448 <_ZN4CamX22DisplayConfigInterface15SetCameraStatusEj+0x430>

	adrp	x9, 0x18000 <_ZN4CamX7Gralloc11GetInstanceEv+0x50>
	tbz	w8, #0, 0xa618 <_ZN4CamX7Gralloc11GetInstanceEv+0x1e0>
	adrp	x0, 0x18000 <_ZN4CamX7Gralloc11GetInstanceEv+0x68>
	bl	0x16450 <_ZNSt3__15mutex4lockEv@plt>
	adrp	x21, 0x18000 <_ZN4CamX7Gralloc11GetInstanceEv+0x74>
	cbnz	x9, 0xa5a0 <_ZN4CamX7Gralloc11GetInstanceEv+0x168>
	cbz	w0, 0xa4ec <_ZN4CamX7Gralloc11GetInstanceEv+0xb4>
	adrp	x19, 0x4000 <_ZN4CamX7Gralloc11GetInstanceEv+0x4c>
	adrp	x1, 0x6000 <_ZN4CamX7Gralloc11GetInstanceEv+0x74>
	adrp	x3, 0x5000 <_ZN4CamX7Gralloc11GetInstanceEv+0x74>
	adrp	x4, 0x5000 <_ZN4CamX7Gralloc11GetInstanceEv+0x78>
	adrp	x6, 0x5000 <_ZN4CamX7Gralloc11GetInstanceEv+0x7c>
	bl	0x14440 <_ZdaPv+0x228>
	b	0xa5a0 <_ZN4CamX7Gralloc11GetInstanceEv+0x168>
	cbz	x19, 0xa498 <_ZN4CamX7Gralloc11GetInstanceEv+0x60>
	cbz	w0, 0xa5d8 <_ZN4CamX7Gralloc11GetInstanceEv+0x1a0>
	adrp	x19, 0x4000 <_ZN4CamX7Gralloc11GetInstanceEv+0xe4>
	adrp	x1, 0x6000 <_ZN4CamX7Gralloc11GetInstanceEv+0x10c>
	adrp	x3, 0x4000 <_ZN4CamX7Gralloc11GetInstanceEv+0x108>
	adrp	x4, 0x5000 <_ZN4CamX7Gralloc11GetInstanceEv+0x110>
	adrp	x6, 0x5000 <_ZN4CamX7Gralloc11GetInstanceEv+0x114>
	bl	0x14440 <_ZdaPv+0x228>
	cbz	x19, 0xa59c <_ZN4CamX7Gralloc11GetInstanceEv+0x164>
	bl	0x16370 <_ZN4CamX7Gralloc22ResetGrallocInterfacesEi@plt>
	adrp	x0, 0x18000 <_ZN4CamX7Gralloc11GetInstanceEv+0x1a0>
	bl	0x16460 <_ZNSt3__15mutex6unlockEv@plt>
	b.ne	0xa654 <_ZN4CamX7Gralloc11GetInstanceEv+0x21c>
	cbz	x8, 0xa514 <_ZN4CamX7Gralloc11GetInstanceEv+0xdc>
	bl	0x16370 <_ZN4CamX7Gralloc22ResetGrallocInterfacesEi@plt>
	bl	0x163b0 <_ZN4CamX7Gralloc17InitializeMapper4Ev@plt>
	cbz	w0, 0xa5a0 <_ZN4CamX7Gralloc11GetInstanceEv+0x168>
	bl	0x163c0 <_ZN4CamX7Gralloc17InitializeMapper3Ev@plt>
	cbnz	w0, 0xa580 <_ZN4CamX7Gralloc11GetInstanceEv+0x148>
	b	0xa5a0 <_ZN4CamX7Gralloc11GetInstanceEv+0x168>
	adrp	x0, 0x18000 <_ZN4CamX7Gralloc11GetInstanceEv+0x218>
	cbz	w0, 0xa468 <_ZN4CamX7Gralloc11GetInstanceEv+0x30>
	adrp	x0, 0x17000 <_ZN4CamX7Gralloc11GetInstanceEv+0x224>
	adrp	x1, 0x18000 <_ZN4CamX7Gralloc11GetInstanceEv+0x22c>
	adrp	x2, 0x17000 <_ZN4CamX7Gralloc11GetInstanceEv+0x22c>
	adrp	x0, 0x18000 <_ZN4CamX7Gralloc21AllocateGrallocBufferEjjjPPKNS_12NativeHandleEPjmm+0x4>
	b	0xa468 <_ZN4CamX7Gralloc11GetInstanceEv+0x30>
	bl	0x9448 <_ZN4CamX22DisplayConfigInterface15SetCameraStatusEj+0x430>
	b	0xa660 <_ZN4CamX7Gralloc11GetInstanceEv+0x228>
	adrp	x0, 0x18000 <_ZN4CamX7Gralloc21AllocateGrallocBufferEjjjPPKNS_12NativeHandleEPjmm+0x24>
	bl	0x16460 <_ZNSt3__15mutex6unlockEv@plt>

	bl	0x164a0 <_ZN4CamX7Gralloc32AllocateGrallocBufferWithMapper4EjjjPPKNS_12NativeHandleEPjmm@plt>
	cbz	w0, 0xa6f0 <_ZN4CamX7Gralloc21AllocateGrallocBufferEjjjPPKNS_12NativeHandleEPjmm+0x78>
	b	0x164b0 <_ZN4CamX7Gralloc32AllocateGrallocBufferWithMapper3EjjjPPKNS_12NativeHandleEPjmm@plt>

	bl	0x164c0 <_ZN7android8hardware11hidl_handleC1Ev@plt>
	bl	0x164d0 <_ZN7android8hardware11hidl_stringC1Ev@plt>
	cbz	x27, 0xa860 <_ZN4CamX7Gralloc32AllocateGrallocBufferWithMapper4EjjjPPKNS_12NativeHandleEPjmm+0x158>
	adrp	x10, 0x17000 <_ZN4CamX7Gralloc32AllocateGrallocBufferWithMapper4EjjjPPKNS_12NativeHandleEPjmm+0xcc>
	bl	0x162f0 <_ZN7android8hardware7details13return_statusD2Ev@plt>
	b.eq	0xa8b8 <_ZN4CamX7Gralloc32AllocateGrallocBufferWithMapper4EjjjPPKNS_12NativeHandleEPjmm+0x1b0>
	cbz	x0, 0xa804 <_ZN4CamX7Gralloc32AllocateGrallocBufferWithMapper4EjjjPPKNS_12NativeHandleEPjmm+0xfc>
	cbz	w9, 0xa8cc <_ZN4CamX7Gralloc32AllocateGrallocBufferWithMapper4EjjjPPKNS_12NativeHandleEPjmm+0x1c4>
	adrp	x23, 0x4000 <_ZN4CamX7Gralloc32AllocateGrallocBufferWithMapper4EjjjPPKNS_12NativeHandleEPjmm+0xec>
	adrp	x1, 0x6000 <_ZN4CamX7Gralloc32AllocateGrallocBufferWithMapper4EjjjPPKNS_12NativeHandleEPjmm+0x118>
	adrp	x3, 0x4000 <_ZN4CamX7Gralloc32AllocateGrallocBufferWithMapper4EjjjPPKNS_12NativeHandleEPjmm+0x114>
	adrp	x4, 0x5000 <_ZN4CamX7Gralloc32AllocateGrallocBufferWithMapper4EjjjPPKNS_12NativeHandleEPjmm+0x11c>
	adrp	x6, 0x4000 <_ZN4CamX7Gralloc32AllocateGrallocBufferWithMapper4EjjjPPKNS_12NativeHandleEPjmm+0x11c>
	bl	0x14440 <_ZdaPv+0x228>
	b	0xa9d4 <_ZN4CamX7Gralloc32AllocateGrallocBufferWithMapper4EjjjPPKNS_12NativeHandleEPjmm+0x2cc>
	adrp	x23, 0x4000 <_ZN4CamX7Gralloc32AllocateGrallocBufferWithMapper4EjjjPPKNS_12NativeHandleEPjmm+0x140>
	adrp	x1, 0x6000 <_ZN4CamX7Gralloc32AllocateGrallocBufferWithMapper4EjjjPPKNS_12NativeHandleEPjmm+0x168>
	adrp	x3, 0x4000 <_ZN4CamX7Gralloc32AllocateGrallocBufferWithMapper4EjjjPPKNS_12NativeHandleEPjmm+0x164>
	adrp	x4, 0x5000 <_ZN4CamX7Gralloc32AllocateGrallocBufferWithMapper4EjjjPPKNS_12NativeHandleEPjmm+0x16c>
	adrp	x6, 0x4000 <_ZN4CamX7Gralloc32AllocateGrallocBufferWithMapper4EjjjPPKNS_12NativeHandleEPjmm+0x16c>
	bl	0x14440 <_ZdaPv+0x228>
	cbnz	x22, 0xa9d8 <_ZN4CamX7Gralloc32AllocateGrallocBufferWithMapper4EjjjPPKNS_12NativeHandleEPjmm+0x2d0>
	b	0xa9e0 <_ZN4CamX7Gralloc32AllocateGrallocBufferWithMapper4EjjjPPKNS_12NativeHandleEPjmm+0x2d8>
	cbnz	w9, 0xa80c <_ZN4CamX7Gralloc32AllocateGrallocBufferWithMapper4EjjjPPKNS_12NativeHandleEPjmm+0x104>
	cbnz	w0, 0xaadc <_ZN4CamX7Gralloc32AllocateGrallocBufferWithMapper4EjjjPPKNS_12NativeHandleEPjmm+0x3d4>
	adrp	x6, 0x17000 <_ZN4CamX7Gralloc32AllocateGrallocBufferWithMapper4EjjjPPKNS_12NativeHandleEPjmm+0x22c>
	bl	0x162f0 <_ZN7android8hardware7details13return_statusD2Ev@plt>
	b.eq	0xaab8 <_ZN4CamX7Gralloc32AllocateGrallocBufferWithMapper4EjjjPPKNS_12NativeHandleEPjmm+0x3b0>
	cbz	x0, 0xa97c <_ZN4CamX7Gralloc32AllocateGrallocBufferWithMapper4EjjjPPKNS_12NativeHandleEPjmm+0x274>
	cbz	w10, 0xaacc <_ZN4CamX7Gralloc32AllocateGrallocBufferWithMapper4EjjjPPKNS_12NativeHandleEPjmm+0x3c4>
	adrp	x24, 0x4000 <_ZN4CamX7Gralloc32AllocateGrallocBufferWithMapper4EjjjPPKNS_12NativeHandleEPjmm+0x264>
	adrp	x1, 0x6000 <_ZN4CamX7Gralloc32AllocateGrallocBufferWithMapper4EjjjPPKNS_12NativeHandleEPjmm+0x28c>
	adrp	x3, 0x5000 <_ZN4CamX7Gralloc32AllocateGrallocBufferWithMapper4EjjjPPKNS_12NativeHandleEPjmm+0x28c>
	adrp	x4, 0x5000 <_ZN4CamX7Gralloc32AllocateGrallocBufferWithMapper4EjjjPPKNS_12NativeHandleEPjmm+0x290>
	adrp	x6, 0x4000 <_ZN4CamX7Gralloc32AllocateGrallocBufferWithMapper4EjjjPPKNS_12NativeHandleEPjmm+0x290>
	bl	0x14440 <_ZdaPv+0x228>
	cbz	x22, 0xa9e0 <_ZN4CamX7Gralloc32AllocateGrallocBufferWithMapper4EjjjPPKNS_12NativeHandleEPjmm+0x2d8>
	adrp	x12, 0x18000 <_ZN4CamX7Gralloc32AllocateGrallocBufferWithMapper4EjjjPPKNS_12NativeHandleEPjmm+0x310>
	tbnz	w12, #4, 0xa9fc <_ZN4CamX7Gralloc32AllocateGrallocBufferWithMapper4EjjjPPKNS_12NativeHandleEPjmm+0x2f4>
	adrp	x13, 0x19000 <_ZN4CamX7Gralloc32AllocateGrallocBufferWithMapper4EjjjPPKNS_12NativeHandleEPjmm+0x324>
	cbnz	w13, 0xaa60 <_ZN4CamX7Gralloc32AllocateGrallocBufferWithMapper4EjjjPPKNS_12NativeHandleEPjmm+0x358>
	adrp	x24, 0x4000 <_ZN4CamX7Gralloc32AllocateGrallocBufferWithMapper4EjjjPPKNS_12NativeHandleEPjmm+0x2dc>
	adrp	x1, 0x5000 <_ZN4CamX7Gralloc32AllocateGrallocBufferWithMapper4EjjjPPKNS_12NativeHandleEPjmm+0x308>
	adrp	x3, 0x5000 <_ZN4CamX7Gralloc32AllocateGrallocBufferWithMapper4EjjjPPKNS_12NativeHandleEPjmm+0x30c>
	adrp	x4, 0x5000 <_ZN4CamX7Gralloc32AllocateGrallocBufferWithMapper4EjjjPPKNS_12NativeHandleEPjmm+0x310>
	adrp	x6, 0x4000 <_ZN4CamX7Gralloc32AllocateGrallocBufferWithMapper4EjjjPPKNS_12NativeHandleEPjmm+0x310>
	bl	0x14440 <_ZdaPv+0x228>
	cbz	w14, 0xaa74 <_ZN4CamX7Gralloc32AllocateGrallocBufferWithMapper4EjjjPPKNS_12NativeHandleEPjmm+0x36c>
	cbz	x0, 0xaa74 <_ZN4CamX7Gralloc32AllocateGrallocBufferWithMapper4EjjjPPKNS_12NativeHandleEPjmm+0x36c>
	bl	0x16360 <_ZN7android8hardware11hidl_stringD1Ev@plt>
	bl	0x164e0 <_ZN7android8hardware11hidl_handleD1Ev@plt>
	b.ne	0xaad8 <_ZN4CamX7Gralloc32AllocateGrallocBufferWithMapper4EjjjPPKNS_12NativeHandleEPjmm+0x3d0>
	cbnz	w10, 0xa984 <_ZN4CamX7Gralloc32AllocateGrallocBufferWithMapper4EjjjPPKNS_12NativeHandleEPjmm+0x27c>
	cbnz	x22, 0xa9d8 <_ZN4CamX7Gralloc32AllocateGrallocBufferWithMapper4EjjjPPKNS_12NativeHandleEPjmm+0x2d0>
	b	0xa9e0 <_ZN4CamX7Gralloc32AllocateGrallocBufferWithMapper4EjjjPPKNS_12NativeHandleEPjmm+0x2d8>
	b.ne	0xab00 <_ZN4CamX7Gralloc32AllocateGrallocBufferWithMapper4EjjjPPKNS_12NativeHandleEPjmm+0x3f8>
	b	0xab68 <_ZN4CamX7Gralloc32AllocateGrallocBufferWithMapper4EjjjPPKNS_12NativeHandleEPjmm+0x460>
	cbz	x9, 0xab68 <_ZN4CamX7Gralloc32AllocateGrallocBufferWithMapper4EjjjPPKNS_12NativeHandleEPjmm+0x460>
	b	0xab68 <_ZN4CamX7Gralloc32AllocateGrallocBufferWithMapper4EjjjPPKNS_12NativeHandleEPjmm+0x460>
	b	0xab64 <_ZN4CamX7Gralloc32AllocateGrallocBufferWithMapper4EjjjPPKNS_12NativeHandleEPjmm+0x45c>
	b.ne	0xab40 <_ZN4CamX7Gralloc32AllocateGrallocBufferWithMapper4EjjjPPKNS_12NativeHandleEPjmm+0x438>
	b	0xab68 <_ZN4CamX7Gralloc32AllocateGrallocBufferWithMapper4EjjjPPKNS_12NativeHandleEPjmm+0x460>
	cbz	x8, 0xab68 <_ZN4CamX7Gralloc32AllocateGrallocBufferWithMapper4EjjjPPKNS_12NativeHandleEPjmm+0x460>
	b	0xab68 <_ZN4CamX7Gralloc32AllocateGrallocBufferWithMapper4EjjjPPKNS_12NativeHandleEPjmm+0x460>
	b	0xab64 <_ZN4CamX7Gralloc32AllocateGrallocBufferWithMapper4EjjjPPKNS_12NativeHandleEPjmm+0x45c>
	b	0xab84 <_ZN4CamX7Gralloc32AllocateGrallocBufferWithMapper4EjjjPPKNS_12NativeHandleEPjmm+0x47c>
	cbz	w15, 0xab7c <_ZN4CamX7Gralloc32AllocateGrallocBufferWithMapper4EjjjPPKNS_12NativeHandleEPjmm+0x474>
	cbz	x0, 0xab7c <_ZN4CamX7Gralloc32AllocateGrallocBufferWithMapper4EjjjPPKNS_12NativeHandleEPjmm+0x474>
	bl	0x16360 <_ZN7android8hardware11hidl_stringD1Ev@plt>
	bl	0x164e0 <_ZN7android8hardware11hidl_handleD1Ev@plt>

	bl	0x164c0 <_ZN7android8hardware11hidl_handleC1Ev@plt>
	cbz	x10, 0xacdc <_ZN4CamX7Gralloc32AllocateGrallocBufferWithMapper3EjjjPPKNS_12NativeHandleEPjmm+0x144>
	adrp	x11, 0x17000 <_ZN4CamX7Gralloc32AllocateGrallocBufferWithMapper3EjjjPPKNS_12NativeHandleEPjmm+0xb8>
	bl	0x162f0 <_ZN7android8hardware7details13return_statusD2Ev@plt>
	b.eq	0xad34 <_ZN4CamX7Gralloc32AllocateGrallocBufferWithMapper3EjjjPPKNS_12NativeHandleEPjmm+0x19c>
	cbz	x0, 0xac80 <_ZN4CamX7Gralloc32AllocateGrallocBufferWithMapper3EjjjPPKNS_12NativeHandleEPjmm+0xe8>
	cbz	w9, 0xad48 <_ZN4CamX7Gralloc32AllocateGrallocBufferWithMapper3EjjjPPKNS_12NativeHandleEPjmm+0x1b0>
	adrp	x23, 0x4000 <_ZN4CamX7Gralloc32AllocateGrallocBufferWithMapper3EjjjPPKNS_12NativeHandleEPjmm+0xd8>
	adrp	x1, 0x6000 <_ZN4CamX7Gralloc32AllocateGrallocBufferWithMapper3EjjjPPKNS_12NativeHandleEPjmm+0x104>
	adrp	x3, 0x5000 <_ZN4CamX7Gralloc32AllocateGrallocBufferWithMapper3EjjjPPKNS_12NativeHandleEPjmm+0x104>
	adrp	x4, 0x5000 <_ZN4CamX7Gralloc32AllocateGrallocBufferWithMapper3EjjjPPKNS_12NativeHandleEPjmm+0x108>
	adrp	x6, 0x4000 <_ZN4CamX7Gralloc32AllocateGrallocBufferWithMapper3EjjjPPKNS_12NativeHandleEPjmm+0x108>
	bl	0x14440 <_ZdaPv+0x228>
	b	0xae50 <_ZN4CamX7Gralloc32AllocateGrallocBufferWithMapper3EjjjPPKNS_12NativeHandleEPjmm+0x2b8>
	adrp	x23, 0x4000 <_ZN4CamX7Gralloc32AllocateGrallocBufferWithMapper3EjjjPPKNS_12NativeHandleEPjmm+0x12c>
	adrp	x1, 0x6000 <_ZN4CamX7Gralloc32AllocateGrallocBufferWithMapper3EjjjPPKNS_12NativeHandleEPjmm+0x154>
	adrp	x3, 0x4000 <_ZN4CamX7Gralloc32AllocateGrallocBufferWithMapper3EjjjPPKNS_12NativeHandleEPjmm+0x150>
	adrp	x4, 0x5000 <_ZN4CamX7Gralloc32AllocateGrallocBufferWithMapper3EjjjPPKNS_12NativeHandleEPjmm+0x158>
	adrp	x6, 0x4000 <_ZN4CamX7Gralloc32AllocateGrallocBufferWithMapper3EjjjPPKNS_12NativeHandleEPjmm+0x158>
	bl	0x14440 <_ZdaPv+0x228>
	cbnz	x22, 0xae54 <_ZN4CamX7Gralloc32AllocateGrallocBufferWithMapper3EjjjPPKNS_12NativeHandleEPjmm+0x2bc>
	b	0xae5c <_ZN4CamX7Gralloc32AllocateGrallocBufferWithMapper3EjjjPPKNS_12NativeHandleEPjmm+0x2c4>
	cbnz	w9, 0xac88 <_ZN4CamX7Gralloc32AllocateGrallocBufferWithMapper3EjjjPPKNS_12NativeHandleEPjmm+0xf0>
	cbnz	w0, 0xaf50 <_ZN4CamX7Gralloc32AllocateGrallocBufferWithMapper3EjjjPPKNS_12NativeHandleEPjmm+0x3b8>
	adrp	x7, 0x17000 <_ZN4CamX7Gralloc32AllocateGrallocBufferWithMapper3EjjjPPKNS_12NativeHandleEPjmm+0x218>
	bl	0x162f0 <_ZN7android8hardware7details13return_statusD2Ev@plt>
	b.eq	0xaf2c <_ZN4CamX7Gralloc32AllocateGrallocBufferWithMapper3EjjjPPKNS_12NativeHandleEPjmm+0x394>
	cbz	x0, 0xadf8 <_ZN4CamX7Gralloc32AllocateGrallocBufferWithMapper3EjjjPPKNS_12NativeHandleEPjmm+0x260>
	cbz	w10, 0xaf40 <_ZN4CamX7Gralloc32AllocateGrallocBufferWithMapper3EjjjPPKNS_12NativeHandleEPjmm+0x3a8>
	adrp	x23, 0x4000 <_ZN4CamX7Gralloc32AllocateGrallocBufferWithMapper3EjjjPPKNS_12NativeHandleEPjmm+0x250>
	adrp	x1, 0x6000 <_ZN4CamX7Gralloc32AllocateGrallocBufferWithMapper3EjjjPPKNS_12NativeHandleEPjmm+0x278>
	adrp	x3, 0x4000 <_ZN4CamX7Gralloc32AllocateGrallocBufferWithMapper3EjjjPPKNS_12NativeHandleEPjmm+0x274>
	adrp	x4, 0x5000 <_ZN4CamX7Gralloc32AllocateGrallocBufferWithMapper3EjjjPPKNS_12NativeHandleEPjmm+0x27c>
	adrp	x6, 0x4000 <_ZN4CamX7Gralloc32AllocateGrallocBufferWithMapper3EjjjPPKNS_12NativeHandleEPjmm+0x27c>
	bl	0x14440 <_ZdaPv+0x228>
	cbz	x22, 0xae5c <_ZN4CamX7Gralloc32AllocateGrallocBufferWithMapper3EjjjPPKNS_12NativeHandleEPjmm+0x2c4>
	adrp	x13, 0x18000 <_ZN4CamX7Gralloc32AllocateGrallocBufferWithMapper3EjjjPPKNS_12NativeHandleEPjmm+0x2fc>
	tbnz	w12, #4, 0xae78 <_ZN4CamX7Gralloc32AllocateGrallocBufferWithMapper3EjjjPPKNS_12NativeHandleEPjmm+0x2e0>
	adrp	x14, 0x19000 <_ZN4CamX7Gralloc32AllocateGrallocBufferWithMapper3EjjjPPKNS_12NativeHandleEPjmm+0x310>
	cbnz	w13, 0xaedc <_ZN4CamX7Gralloc32AllocateGrallocBufferWithMapper3EjjjPPKNS_12NativeHandleEPjmm+0x344>
	adrp	x22, 0x4000 <_ZN4CamX7Gralloc32AllocateGrallocBufferWithMapper3EjjjPPKNS_12NativeHandleEPjmm+0x2c8>
	adrp	x1, 0x5000 <_ZN4CamX7Gralloc32AllocateGrallocBufferWithMapper3EjjjPPKNS_12NativeHandleEPjmm+0x2f4>
	adrp	x3, 0x5000 <_ZN4CamX7Gralloc32AllocateGrallocBufferWithMapper3EjjjPPKNS_12NativeHandleEPjmm+0x2f8>
	adrp	x4, 0x5000 <_ZN4CamX7Gralloc32AllocateGrallocBufferWithMapper3EjjjPPKNS_12NativeHandleEPjmm+0x2fc>
	adrp	x6, 0x4000 <_ZN4CamX7Gralloc32AllocateGrallocBufferWithMapper3EjjjPPKNS_12NativeHandleEPjmm+0x2fc>
	bl	0x14440 <_ZdaPv+0x228>
	cbz	w14, 0xaef0 <_ZN4CamX7Gralloc32AllocateGrallocBufferWithMapper3EjjjPPKNS_12NativeHandleEPjmm+0x358>
	cbz	x0, 0xaef0 <_ZN4CamX7Gralloc32AllocateGrallocBufferWithMapper3EjjjPPKNS_12NativeHandleEPjmm+0x358>
	bl	0x164e0 <_ZN7android8hardware11hidl_handleD1Ev@plt>
	b.ne	0xaf4c <_ZN4CamX7Gralloc32AllocateGrallocBufferWithMapper3EjjjPPKNS_12NativeHandleEPjmm+0x3b4>
	cbnz	w10, 0xae00 <_ZN4CamX7Gralloc32AllocateGrallocBufferWithMapper3EjjjPPKNS_12NativeHandleEPjmm+0x268>
	cbnz	x22, 0xae54 <_ZN4CamX7Gralloc32AllocateGrallocBufferWithMapper3EjjjPPKNS_12NativeHandleEPjmm+0x2bc>
	b	0xae5c <_ZN4CamX7Gralloc32AllocateGrallocBufferWithMapper3EjjjPPKNS_12NativeHandleEPjmm+0x2c4>
	b.ne	0xaf74 <_ZN4CamX7Gralloc32AllocateGrallocBufferWithMapper3EjjjPPKNS_12NativeHandleEPjmm+0x3dc>
	b	0xafd4 <_ZN4CamX7Gralloc32AllocateGrallocBufferWithMapper3EjjjPPKNS_12NativeHandleEPjmm+0x43c>
	cbz	x9, 0xafd4 <_ZN4CamX7Gralloc32AllocateGrallocBufferWithMapper3EjjjPPKNS_12NativeHandleEPjmm+0x43c>
	b	0xafd4 <_ZN4CamX7Gralloc32AllocateGrallocBufferWithMapper3EjjjPPKNS_12NativeHandleEPjmm+0x43c>
	b	0xafd0 <_ZN4CamX7Gralloc32AllocateGrallocBufferWithMapper3EjjjPPKNS_12NativeHandleEPjmm+0x438>
	b.ne	0xafb4 <_ZN4CamX7Gralloc32AllocateGrallocBufferWithMapper3EjjjPPKNS_12NativeHandleEPjmm+0x41c>
	b	0xafd4 <_ZN4CamX7Gralloc32AllocateGrallocBufferWithMapper3EjjjPPKNS_12NativeHandleEPjmm+0x43c>
	cbz	x8, 0xafd4 <_ZN4CamX7Gralloc32AllocateGrallocBufferWithMapper3EjjjPPKNS_12NativeHandleEPjmm+0x43c>
	b	0xafd4 <_ZN4CamX7Gralloc32AllocateGrallocBufferWithMapper3EjjjPPKNS_12NativeHandleEPjmm+0x43c>
	b	0xafd0 <_ZN4CamX7Gralloc32AllocateGrallocBufferWithMapper3EjjjPPKNS_12NativeHandleEPjmm+0x438>
	cbz	w15, 0xafe8 <_ZN4CamX7Gralloc32AllocateGrallocBufferWithMapper3EjjjPPKNS_12NativeHandleEPjmm+0x450>
	cbz	x0, 0xafe8 <_ZN4CamX7Gralloc32AllocateGrallocBufferWithMapper3EjjjPPKNS_12NativeHandleEPjmm+0x450>
	bl	0x164e0 <_ZN7android8hardware11hidl_handleD1Ev@plt>

	cbz	x1, 0xb0e0 <_ZN4CamX7Gralloc7DestroyEPKNS_12NativeHandleE+0xe8>
	adrp	x8, 0x18000 <_ZN4CamX7Gralloc7DestroyEPKNS_12NativeHandleE+0x58>
	tbnz	w8, #4, 0xb064 <_ZN4CamX7Gralloc7DestroyEPKNS_12NativeHandleE+0x6c>
	adrp	x9, 0x19000 <_ZN4CamX7Gralloc7DestroyEPKNS_12NativeHandleE+0x74>
	cbz	w9, 0xb064 <_ZN4CamX7Gralloc7DestroyEPKNS_12NativeHandleE+0x6c>
	cbz	x0, 0xb0bc <_ZN4CamX7Gralloc7DestroyEPKNS_12NativeHandleE+0xc4>
	b	0xb0d8 <_ZN4CamX7Gralloc7DestroyEPKNS_12NativeHandleE+0xe0>
	adrp	x20, 0x4000 <_ZN4CamX7Gralloc7DestroyEPKNS_12NativeHandleE+0x50>
	adrp	x1, 0x5000 <_ZN4CamX7Gralloc7DestroyEPKNS_12NativeHandleE+0x70>
	adrp	x3, 0x4000 <_ZN4CamX7Gralloc7DestroyEPKNS_12NativeHandleE+0x70>
	adrp	x4, 0x5000 <_ZN4CamX7Gralloc7DestroyEPKNS_12NativeHandleE+0x78>
	adrp	x6, 0x5000 <_ZN4CamX7Gralloc7DestroyEPKNS_12NativeHandleE+0x7c>
	bl	0x14440 <_ZdaPv+0x228>
	cbnz	x0, 0xb048 <_ZN4CamX7Gralloc7DestroyEPKNS_12NativeHandleE+0x50>
	bl	0x162f0 <_ZN7android8hardware7details13return_statusD2Ev@plt>
	b.ne	0xb108 <_ZN4CamX7Gralloc7DestroyEPKNS_12NativeHandleE+0x110>

	bl	0x164f0 <_ZN7android8hardware11hidl_handleC1EPK13native_handle@plt>
	cbz	x0, 0xb1b4 <_ZN4CamX7Gralloc6RetainEPKNS_12NativeHandleE+0xa4>
	adrp	x9, 0x17000 <_ZN4CamX7Gralloc6RetainEPKNS_12NativeHandleE+0x6c>
	bl	0x162f0 <_ZN7android8hardware7details13return_statusD2Ev@plt>
	b.eq	0xb220 <_ZN4CamX7Gralloc6RetainEPKNS_12NativeHandleE+0x110>
	cbz	x0, 0xb1a8 <_ZN4CamX7Gralloc6RetainEPKNS_12NativeHandleE+0x98>
	cbnz	w8, 0xb234 <_ZN4CamX7Gralloc6RetainEPKNS_12NativeHandleE+0x124>
	b	0xb2f0 <_ZN4CamX7Gralloc6RetainEPKNS_12NativeHandleE+0x1e0>
	adrp	x17, 0x17000 <_ZN4CamX7Gralloc6RetainEPKNS_12NativeHandleE+0xd4>
	bl	0x162f0 <_ZN7android8hardware7details13return_statusD2Ev@plt>
	b.eq	0xb288 <_ZN4CamX7Gralloc6RetainEPKNS_12NativeHandleE+0x178>
	cbz	x0, 0xb214 <_ZN4CamX7Gralloc6RetainEPKNS_12NativeHandleE+0x104>
	cbnz	w9, 0xb29c <_ZN4CamX7Gralloc6RetainEPKNS_12NativeHandleE+0x18c>
	b	0xb2f0 <_ZN4CamX7Gralloc6RetainEPKNS_12NativeHandleE+0x1e0>
	cbz	w8, 0xb2f0 <_ZN4CamX7Gralloc6RetainEPKNS_12NativeHandleE+0x1e0>
	adrp	x19, 0x4000 <_ZN4CamX7Gralloc6RetainEPKNS_12NativeHandleE+0x108>
	adrp	x1, 0x6000 <_ZN4CamX7Gralloc6RetainEPKNS_12NativeHandleE+0x134>
	adrp	x3, 0x5000 <_ZN4CamX7Gralloc6RetainEPKNS_12NativeHandleE+0x134>
	adrp	x4, 0x5000 <_ZN4CamX7Gralloc6RetainEPKNS_12NativeHandleE+0x138>
	adrp	x6, 0x5000 <_ZN4CamX7Gralloc6RetainEPKNS_12NativeHandleE+0x13c>
	bl	0x14440 <_ZdaPv+0x228>
	b	0xb2f4 <_ZN4CamX7Gralloc6RetainEPKNS_12NativeHandleE+0x1e4>
	cbz	w9, 0xb2f0 <_ZN4CamX7Gralloc6RetainEPKNS_12NativeHandleE+0x1e0>
	adrp	x19, 0x4000 <_ZN4CamX7Gralloc6RetainEPKNS_12NativeHandleE+0x170>
	adrp	x1, 0x6000 <_ZN4CamX7Gralloc6RetainEPKNS_12NativeHandleE+0x19c>
	adrp	x3, 0x6000 <_ZN4CamX7Gralloc6RetainEPKNS_12NativeHandleE+0x1a0>
	adrp	x4, 0x5000 <_ZN4CamX7Gralloc6RetainEPKNS_12NativeHandleE+0x1a0>
	adrp	x6, 0x5000 <_ZN4CamX7Gralloc6RetainEPKNS_12NativeHandleE+0x1a4>
	bl	0x14440 <_ZdaPv+0x228>
	b	0xb2f4 <_ZN4CamX7Gralloc6RetainEPKNS_12NativeHandleE+0x1e4>
	bl	0x164e0 <_ZN7android8hardware11hidl_handleD1Ev@plt>
	b.ne	0xb324 <_ZN4CamX7Gralloc6RetainEPKNS_12NativeHandleE+0x214>
	b.ne	0xb350 <_ZN4CamX7Gralloc6RetainEPKNS_12NativeHandleE+0x240>
	b	0xb3a8 <_ZN4CamX7Gralloc6RetainEPKNS_12NativeHandleE+0x298>
	cbz	x0, 0xb3a8 <_ZN4CamX7Gralloc6RetainEPKNS_12NativeHandleE+0x298>
	b	0xb3a8 <_ZN4CamX7Gralloc6RetainEPKNS_12NativeHandleE+0x298>
	b	0xb3a4 <_ZN4CamX7Gralloc6RetainEPKNS_12NativeHandleE+0x294>
	b.ne	0xb38c <_ZN4CamX7Gralloc6RetainEPKNS_12NativeHandleE+0x27c>
	b	0xb3a8 <_ZN4CamX7Gralloc6RetainEPKNS_12NativeHandleE+0x298>
	cbz	x8, 0xb3a8 <_ZN4CamX7Gralloc6RetainEPKNS_12NativeHandleE+0x298>
	b	0xb3a8 <_ZN4CamX7Gralloc6RetainEPKNS_12NativeHandleE+0x298>
	bl	0x164e0 <_ZN7android8hardware11hidl_handleD1Ev@plt>

	b.hi	0xb408 <_ZN4CamX7Gralloc32ConvertCamxFormatToGrallocFormatENS_6FormatEPj+0x50>
	adrp	x9, 0x6000 <_ZN4CamX7Gralloc32ConvertCamxFormatToGrallocFormatENS_6FormatEPj+0x14>
	b	0xb474 <_ZN4CamX7Gralloc32ConvertCamxFormatToGrallocFormatENS_6FormatEPj+0xbc>
	adrp	x21, 0x4000 <_ZN4CamX7Gralloc32ConvertCamxFormatToGrallocFormatENS_6FormatEPj+0x34>
	adrp	x1, 0x6000 <_ZN4CamX7Gralloc32ConvertCamxFormatToGrallocFormatENS_6FormatEPj+0x58>
	adrp	x3, 0x4000 <_ZN4CamX7Gralloc32ConvertCamxFormatToGrallocFormatENS_6FormatEPj+0x54>
	adrp	x4, 0x5000 <_ZN4CamX7Gralloc32ConvertCamxFormatToGrallocFormatENS_6FormatEPj+0x5c>
	adrp	x6, 0x5000 <_ZN4CamX7Gralloc32ConvertCamxFormatToGrallocFormatENS_6FormatEPj+0x60>
	bl	0x14440 <_ZdaPv+0x228>
	b	0xb47c <_ZN4CamX7Gralloc32ConvertCamxFormatToGrallocFormatENS_6FormatEPj+0xc4>
	b	0xb474 <_ZN4CamX7Gralloc32ConvertCamxFormatToGrallocFormatENS_6FormatEPj+0xbc>

	adrp	x24, 0x18000 <_ZN4CamX7Gralloc18SetGrallocMetaDataEPKNS_12NativeHandleEjjPv+0x54>
	bl	0x16500 <_ZN7android8hardware11hidl_stringC1ERKNSt3__112basic_stringIcNS2_11char_traitsIcEENS2_9allocatorIcEEEE@plt>
	bl	0x16510 <_ZN4CamX7Gralloc11GetInstanceEv@plt>
	cbz	x0, 0xb540 <_ZN4CamX7Gralloc18SetGrallocMetaDataEPKNS_12NativeHandleEjjPv+0xa8>
	b.hi	0xb5d8 <_ZN4CamX7Gralloc18SetGrallocMetaDataEPKNS_12NativeHandleEjjPv+0x140>
	adrp	x10, 0x6000 <_ZN4CamX7Gralloc18SetGrallocMetaDataEPKNS_12NativeHandleEjjPv+0x68>
	bl	0x16520 <_ZN7android8gralloc412encodeUint64ERKNS_8hardware8graphics6mapper4V4_07IMapper12MetadataTypeEmPNS1_8hidl_vecIhEE@plt>
	b	0xb784 <_ZN4CamX7Gralloc18SetGrallocMetaDataEPKNS_12NativeHandleEjjPv+0x2ec>
	adrp	x23, 0x4000 <_ZN4CamX7Gralloc18SetGrallocMetaDataEPKNS_12NativeHandleEjjPv+0x8c>
	adrp	x1, 0x6000 <_ZN4CamX7Gralloc18SetGrallocMetaDataEPKNS_12NativeHandleEjjPv+0xb4>
	adrp	x3, 0x4000 <_ZN4CamX7Gralloc18SetGrallocMetaDataEPKNS_12NativeHandleEjjPv+0xb0>
	adrp	x4, 0x5000 <_ZN4CamX7Gralloc18SetGrallocMetaDataEPKNS_12NativeHandleEjjPv+0xb8>
	adrp	x6, 0x5000 <_ZN4CamX7Gralloc18SetGrallocMetaDataEPKNS_12NativeHandleEjjPv+0xbc>
	bl	0x14440 <_ZdaPv+0x228>
	cbnz	w5, 0xb8dc <_ZN4CamX7Gralloc18SetGrallocMetaDataEPKNS_12NativeHandleEjjPv+0x444>
	b	0xb8e8 <_ZN4CamX7Gralloc18SetGrallocMetaDataEPKNS_12NativeHandleEjjPv+0x450>
	bl	0x16530 <_ZN7android8gralloc412encodeUint32ERKNS_8hardware8graphics6mapper4V4_07IMapper12MetadataTypeEjPNS1_8hidl_vecIhEE@plt>
	b	0xb784 <_ZN4CamX7Gralloc18SetGrallocMetaDataEPKNS_12NativeHandleEjjPv+0x2ec>
	bl	0x16540 <_ZN10qtigralloc17encodeCVPMetadataER11CVPMetadataPN7android8hardware8hidl_vecIhEE@plt>
	b	0xb784 <_ZN4CamX7Gralloc18SetGrallocMetaDataEPKNS_12NativeHandleEjjPv+0x2ec>
	bl	0x16550 <_ZN10qtigralloc19encodeColorMetadataER13ColorMetaDataPN7android8hardware8hidl_vecIhEE@plt>
	b	0xb784 <_ZN4CamX7Gralloc18SetGrallocMetaDataEPKNS_12NativeHandleEjjPv+0x2ec>
	adrp	x6, 0x18000 <_ZN4CamX7Gralloc18SetGrallocMetaDataEPKNS_12NativeHandleEjjPv+0x174>
	tbnz	w9, #4, 0xb5f8 <_ZN4CamX7Gralloc18SetGrallocMetaDataEPKNS_12NativeHandleEjjPv+0x160>
	adrp	x7, 0x19000 <_ZN4CamX7Gralloc18SetGrallocMetaDataEPKNS_12NativeHandleEjjPv+0x18c>
	cbnz	w10, 0xb64c <_ZN4CamX7Gralloc18SetGrallocMetaDataEPKNS_12NativeHandleEjjPv+0x1b4>
	adrp	x23, 0x4000 <_ZN4CamX7Gralloc18SetGrallocMetaDataEPKNS_12NativeHandleEjjPv+0x144>
	adrp	x1, 0x4000 <_ZN4CamX7Gralloc18SetGrallocMetaDataEPKNS_12NativeHandleEjjPv+0x164>
	adrp	x3, 0x5000 <_ZN4CamX7Gralloc18SetGrallocMetaDataEPKNS_12NativeHandleEjjPv+0x16c>
	adrp	x4, 0x5000 <_ZN4CamX7Gralloc18SetGrallocMetaDataEPKNS_12NativeHandleEjjPv+0x170>
	adrp	x6, 0x5000 <_ZN4CamX7Gralloc18SetGrallocMetaDataEPKNS_12NativeHandleEjjPv+0x174>
	bl	0x14440 <_ZdaPv+0x228>
	cbz	w19, 0xb66c <_ZN4CamX7Gralloc18SetGrallocMetaDataEPKNS_12NativeHandleEjjPv+0x1d4>
	cbz	w0, 0xb920 <_ZN4CamX7Gralloc18SetGrallocMetaDataEPKNS_12NativeHandleEjjPv+0x488>
	cbz	w9, 0xb6d0 <_ZN4CamX7Gralloc18SetGrallocMetaDataEPKNS_12NativeHandleEjjPv+0x238>
	b.ls	0xb6b8 <_ZN4CamX7Gralloc18SetGrallocMetaDataEPKNS_12NativeHandleEjjPv+0x220>
	b.ls	0xb93c <_ZN4CamX7Gralloc18SetGrallocMetaDataEPKNS_12NativeHandleEjjPv+0x4a4>
	b.ls	0xb93c <_ZN4CamX7Gralloc18SetGrallocMetaDataEPKNS_12NativeHandleEjjPv+0x4a4>
	b.lo	0xb6bc <_ZN4CamX7Gralloc18SetGrallocMetaDataEPKNS_12NativeHandleEjjPv+0x224>
	cbz	w12, 0xb6e4 <_ZN4CamX7Gralloc18SetGrallocMetaDataEPKNS_12NativeHandleEjjPv+0x24c>
	cbz	x0, 0xb6e4 <_ZN4CamX7Gralloc18SetGrallocMetaDataEPKNS_12NativeHandleEjjPv+0x24c>
	b	0xb784 <_ZN4CamX7Gralloc18SetGrallocMetaDataEPKNS_12NativeHandleEjjPv+0x2ec>
	bl	0x16580 <_ZN10qtigralloc15encodeUBWCStatsEP9UBWCStatsPN7android8hardware8hidl_vecIhEE@plt>
	b	0xb784 <_ZN4CamX7Gralloc18SetGrallocMetaDataEPKNS_12NativeHandleEjjPv+0x2ec>
	bl	0x16590 <_ZN7android8hardware11hidl_stringaSERKS1_@plt>
	cbnz	w0, 0xba18 <_ZN4CamX7Gralloc18SetGrallocMetaDataEPKNS_12NativeHandleEjjPv+0x580>
	bl	0x165a0 <_ZN7android8gralloc410encodeCropERKNSt3__16vectorIN4aidl7android8hardware8graphics6common4RectENS1_9allocatorIS8_EEEEPNS_8hardware8hidl_vecIhEE@plt>
	cbz	x0, 0xb784 <_ZN4CamX7Gralloc18SetGrallocMetaDataEPKNS_12NativeHandleEjjPv+0x2ec>
	cbz	w15, 0xb84c <_ZN4CamX7Gralloc18SetGrallocMetaDataEPKNS_12NativeHandleEjjPv+0x3b4>
	adrp	x21, 0x4000 <_ZN4CamX7Gralloc18SetGrallocMetaDataEPKNS_12NativeHandleEjjPv+0x30c>
	bl	0x16410 <_ZNK7android8hardware6Status11descriptionEv@plt>
	adrp	x1, 0x6000 <_ZN4CamX7Gralloc18SetGrallocMetaDataEPKNS_12NativeHandleEjjPv+0x35c>
	adrp	x3, 0x4000 <_ZN4CamX7Gralloc18SetGrallocMetaDataEPKNS_12NativeHandleEjjPv+0x358>
	adrp	x4, 0x4000 <_ZN4CamX7Gralloc18SetGrallocMetaDataEPKNS_12NativeHandleEjjPv+0x35c>
	adrp	x6, 0x5000 <_ZN4CamX7Gralloc18SetGrallocMetaDataEPKNS_12NativeHandleEjjPv+0x364>
	bl	0x14440 <_ZdaPv+0x228>
	tbz	w2, #0, 0xb8c8 <_ZN4CamX7Gralloc18SetGrallocMetaDataEPKNS_12NativeHandleEjjPv+0x430>
	cbz	x0, 0xb8c8 <_ZN4CamX7Gralloc18SetGrallocMetaDataEPKNS_12NativeHandleEjjPv+0x430>
	b	0xb8c8 <_ZN4CamX7Gralloc18SetGrallocMetaDataEPKNS_12NativeHandleEjjPv+0x430>
	bl	0x162e0 <_ZNK7android8hardware7details13return_status16onValueRetrievalEv@plt>
	cbz	w4, 0xb8c8 <_ZN4CamX7Gralloc18SetGrallocMetaDataEPKNS_12NativeHandleEjjPv+0x430>
	adrp	x21, 0x4000 <_ZN4CamX7Gralloc18SetGrallocMetaDataEPKNS_12NativeHandleEjjPv+0x3a8>
	adrp	x1, 0x6000 <_ZN4CamX7Gralloc18SetGrallocMetaDataEPKNS_12NativeHandleEjjPv+0x3d4>
	adrp	x3, 0x5000 <_ZN4CamX7Gralloc18SetGrallocMetaDataEPKNS_12NativeHandleEjjPv+0x3d4>
	adrp	x4, 0x5000 <_ZN4CamX7Gralloc18SetGrallocMetaDataEPKNS_12NativeHandleEjjPv+0x3d8>
	adrp	x6, 0x5000 <_ZN4CamX7Gralloc18SetGrallocMetaDataEPKNS_12NativeHandleEjjPv+0x3dc>
	bl	0x14440 <_ZdaPv+0x228>
	bl	0x162f0 <_ZN7android8hardware7details13return_statusD2Ev@plt>
	cbnz	w5, 0xb8dc <_ZN4CamX7Gralloc18SetGrallocMetaDataEPKNS_12NativeHandleEjjPv+0x444>
	b	0xb8e8 <_ZN4CamX7Gralloc18SetGrallocMetaDataEPKNS_12NativeHandleEjjPv+0x450>
	bl	0x162f0 <_ZN7android8hardware7details13return_statusD2Ev@plt>
	cbz	w5, 0xb8e8 <_ZN4CamX7Gralloc18SetGrallocMetaDataEPKNS_12NativeHandleEjjPv+0x450>
	cbz	x0, 0xb8e8 <_ZN4CamX7Gralloc18SetGrallocMetaDataEPKNS_12NativeHandleEjjPv+0x450>
	bl	0x16360 <_ZN7android8hardware11hidl_stringD1Ev@plt>
	b.ne	0xba14 <_ZN4CamX7Gralloc18SetGrallocMetaDataEPKNS_12NativeHandleEjjPv+0x57c>
	cbz	x24, 0xb670 <_ZN4CamX7Gralloc18SetGrallocMetaDataEPKNS_12NativeHandleEjjPv+0x1d8>
	b	0xb670 <_ZN4CamX7Gralloc18SetGrallocMetaDataEPKNS_12NativeHandleEjjPv+0x1d8>
	b.ne	0xb958 <_ZN4CamX7Gralloc18SetGrallocMetaDataEPKNS_12NativeHandleEjjPv+0x4c0>
	cbz	x14, 0xb6d0 <_ZN4CamX7Gralloc18SetGrallocMetaDataEPKNS_12NativeHandleEjjPv+0x238>
	b.ls	0xb99c <_ZN4CamX7Gralloc18SetGrallocMetaDataEPKNS_12NativeHandleEjjPv+0x504>
	b.ge	0xb6d0 <_ZN4CamX7Gralloc18SetGrallocMetaDataEPKNS_12NativeHandleEjjPv+0x238>
	b.hi	0xb9b8 <_ZN4CamX7Gralloc18SetGrallocMetaDataEPKNS_12NativeHandleEjjPv+0x520>
	b	0xb9f8 <_ZN4CamX7Gralloc18SetGrallocMetaDataEPKNS_12NativeHandleEjjPv+0x560>
	b.ne	0xb9d4 <_ZN4CamX7Gralloc18SetGrallocMetaDataEPKNS_12NativeHandleEjjPv+0x53c>
	b.eq	0xb6d0 <_ZN4CamX7Gralloc18SetGrallocMetaDataEPKNS_12NativeHandleEjjPv+0x238>
	b.lt	0xb9f8 <_ZN4CamX7Gralloc18SetGrallocMetaDataEPKNS_12NativeHandleEjjPv+0x560>
	b	0xb6d0 <_ZN4CamX7Gralloc18SetGrallocMetaDataEPKNS_12NativeHandleEjjPv+0x238>
	b	0xba70 <_ZN4CamX7Gralloc18SetGrallocMetaDataEPKNS_12NativeHandleEjjPv+0x5d8>
	b	0xba70 <_ZN4CamX7Gralloc18SetGrallocMetaDataEPKNS_12NativeHandleEjjPv+0x5d8>
	b	0xba70 <_ZN4CamX7Gralloc18SetGrallocMetaDataEPKNS_12NativeHandleEjjPv+0x5d8>
	b	0xba70 <_ZN4CamX7Gralloc18SetGrallocMetaDataEPKNS_12NativeHandleEjjPv+0x5d8>
	b	0xba70 <_ZN4CamX7Gralloc18SetGrallocMetaDataEPKNS_12NativeHandleEjjPv+0x5d8>
	b	0xba70 <_ZN4CamX7Gralloc18SetGrallocMetaDataEPKNS_12NativeHandleEjjPv+0x5d8>
	cbz	x8, 0xba84 <_ZN4CamX7Gralloc18SetGrallocMetaDataEPKNS_12NativeHandleEjjPv+0x5ec>
	b	0xba84 <_ZN4CamX7Gralloc18SetGrallocMetaDataEPKNS_12NativeHandleEjjPv+0x5ec>
	tbz	w3, #0, 0xba7c <_ZN4CamX7Gralloc18SetGrallocMetaDataEPKNS_12NativeHandleEjjPv+0x5e4>
	cbz	x0, 0xba7c <_ZN4CamX7Gralloc18SetGrallocMetaDataEPKNS_12NativeHandleEjjPv+0x5e4>
	b	0xba7c <_ZN4CamX7Gralloc18SetGrallocMetaDataEPKNS_12NativeHandleEjjPv+0x5e4>
	b	0xba78 <_ZN4CamX7Gralloc18SetGrallocMetaDataEPKNS_12NativeHandleEjjPv+0x5e0>
	b	0xba70 <_ZN4CamX7Gralloc18SetGrallocMetaDataEPKNS_12NativeHandleEjjPv+0x5d8>
	b	0xba84 <_ZN4CamX7Gralloc18SetGrallocMetaDataEPKNS_12NativeHandleEjjPv+0x5ec>
	bl	0x162f0 <_ZN7android8hardware7details13return_statusD2Ev@plt>
	cbz	w6, 0xbaa0 <_ZN4CamX7Gralloc18SetGrallocMetaDataEPKNS_12NativeHandleEjjPv+0x608>
	cbz	x0, 0xbaa0 <_ZN4CamX7Gralloc18SetGrallocMetaDataEPKNS_12NativeHandleEjjPv+0x608>
	b	0xbaa0 <_ZN4CamX7Gralloc18SetGrallocMetaDataEPKNS_12NativeHandleEjjPv+0x608>
	bl	0x16360 <_ZN7android8hardware11hidl_stringD1Ev@plt>
	cbz	x0, 0xbac0 <_ZN4CamX7Gralloc18SetGrallocMetaDataEPKNS_12NativeHandleEjjPv+0x628>
	cbnz	w0, 0xbb40 <_ZN4CamX7Gralloc18SetGrallocMetaDataEPKNS_12NativeHandleEjjPv+0x6a8>
	adrp	x8, 0x17000 <_ZN4CamX7Gralloc18SetGrallocMetaDataEPKNS_12NativeHandleEjjPv+0x698>
	b.ne	0xbb40 <_ZN4CamX7Gralloc18SetGrallocMetaDataEPKNS_12NativeHandleEjjPv+0x6a8>
	adrp	x8, 0x17000 <_ZN4CamX7Gralloc18SetGrallocMetaDataEPKNS_12NativeHandleEjjPv+0x6e0>
	cbz	x0, 0xbb78 <_ZN4CamX7Gralloc18SetGrallocMetaDataEPKNS_12NativeHandleEjjPv+0x6e0>
	cbz	x20, 0xbbbc <_ZN4CamX7Gralloc18SetGrallocMetaDataEPKNS_12NativeHandleEjjPv+0x724>
	bl	0x16400 <_ZNK7android7RefBase9incStrongEPKv@plt>
	cbz	x21, 0xbbd4 <_ZN4CamX7Gralloc18SetGrallocMetaDataEPKNS_12NativeHandleEjjPv+0x73c>
	bl	0x16380 <_ZNK7android7RefBase9decStrongEPKv@plt>
	b.eq	0xbbe4 <_ZN4CamX7Gralloc18SetGrallocMetaDataEPKNS_12NativeHandleEjjPv+0x74c>
	bl	0x16390 <_ZN7android14sp_report_raceEv@plt>
	cbz	x0, 0xbc08 <_ZN4CamX7Gralloc18SetGrallocMetaDataEPKNS_12NativeHandleEjjPv+0x770>
	cbnz	w0, 0xbc88 <_ZN4CamX7Gralloc18SetGrallocMetaDataEPKNS_12NativeHandleEjjPv+0x7f0>
	adrp	x8, 0x17000 <_ZN4CamX7Gralloc18SetGrallocMetaDataEPKNS_12NativeHandleEjjPv+0x7e0>
	b.ne	0xbc88 <_ZN4CamX7Gralloc18SetGrallocMetaDataEPKNS_12NativeHandleEjjPv+0x7f0>
	adrp	x8, 0x17000 <_ZN4CamX7Gralloc18SetGrallocMetaDataEPKNS_12NativeHandleEjjPv+0x828>
	cbz	x0, 0xbcc0 <_ZN4CamX7Gralloc18SetGrallocMetaDataEPKNS_12NativeHandleEjjPv+0x828>
	cbz	x20, 0xbd04 <_ZN4CamX7Gralloc18SetGrallocMetaDataEPKNS_12NativeHandleEjjPv+0x86c>
	bl	0x16400 <_ZNK7android7RefBase9incStrongEPKv@plt>
	cbz	x21, 0xbd1c <_ZN4CamX7Gralloc18SetGrallocMetaDataEPKNS_12NativeHandleEjjPv+0x884>
	bl	0x16380 <_ZNK7android7RefBase9decStrongEPKv@plt>
	b.eq	0xbd2c <_ZN4CamX7Gralloc18SetGrallocMetaDataEPKNS_12NativeHandleEjjPv+0x894>
	bl	0x16390 <_ZN7android14sp_report_raceEv@plt>
	cbz	x0, 0xbd48 <_ZN4CamX7Gralloc18SetGrallocMetaDataEPKNS_12NativeHandleEjjPv+0x8b0>
	cbnz	w0, 0xbdc8 <_ZN4CamX7Gralloc18SetGrallocMetaDataEPKNS_12NativeHandleEjjPv+0x930>
	adrp	x8, 0x17000 <_ZN4CamX7Gralloc18SetGrallocMetaDataEPKNS_12NativeHandleEjjPv+0x920>
	b.ne	0xbdc8 <_ZN4CamX7Gralloc18SetGrallocMetaDataEPKNS_12NativeHandleEjjPv+0x930>
	adrp	x8, 0x17000 <_ZN4CamX7Gralloc18SetGrallocMetaDataEPKNS_12NativeHandleEjjPv+0x968>
	cbz	x0, 0xbe00 <_ZN4CamX7Gralloc18SetGrallocMetaDataEPKNS_12NativeHandleEjjPv+0x968>
	b.eq	0xbe94 <_ZN4CamX7Gralloc18SetGrallocMetaDataEPKNS_12NativeHandleEjjPv+0x9fc>
	cbz	w13, 0xbe58 <_ZN4CamX7Gralloc18SetGrallocMetaDataEPKNS_12NativeHandleEjjPv+0x9c0>
	cbz	x0, 0xbe58 <_ZN4CamX7Gralloc18SetGrallocMetaDataEPKNS_12NativeHandleEjjPv+0x9c0>
	cbz	w23, 0xbe90 <_ZN4CamX7Gralloc18SetGrallocMetaDataEPKNS_12NativeHandleEjjPv+0x9f8>
	cbz	w0, 0xbebc <_ZN4CamX7Gralloc18SetGrallocMetaDataEPKNS_12NativeHandleEjjPv+0xa24>
	b	0xbed4 <_ZN4CamX7Gralloc18SetGrallocMetaDataEPKNS_12NativeHandleEjjPv+0xa3c>
	b.ne	0xc024 <_ZN4CamX7Gralloc18SetGrallocMetaDataEPKNS_12NativeHandleEjjPv+0xb8c>
	cbz	x19, 0xbed4 <_ZN4CamX7Gralloc18SetGrallocMetaDataEPKNS_12NativeHandleEjjPv+0xa3c>
	b.lo	0xbff8 <_ZN4CamX7Gralloc18SetGrallocMetaDataEPKNS_12NativeHandleEjjPv+0xb60>
	tbnz	w15, #0, 0xbff8 <_ZN4CamX7Gralloc18SetGrallocMetaDataEPKNS_12NativeHandleEjjPv+0xb60>
	cbz	w1, 0xbff8 <_ZN4CamX7Gralloc18SetGrallocMetaDataEPKNS_12NativeHandleEjjPv+0xb60>
	tbz	w2, #0, 0xbff8 <_ZN4CamX7Gralloc18SetGrallocMetaDataEPKNS_12NativeHandleEjjPv+0xb60>
	b.ne	0xbf60 <_ZN4CamX7Gralloc18SetGrallocMetaDataEPKNS_12NativeHandleEjjPv+0xac8>
	cbz	x10, 0xbe94 <_ZN4CamX7Gralloc18SetGrallocMetaDataEPKNS_12NativeHandleEjjPv+0x9fc>
	b.ls	0xbfb0 <_ZN4CamX7Gralloc18SetGrallocMetaDataEPKNS_12NativeHandleEjjPv+0xb18>
	b.ge	0xbe94 <_ZN4CamX7Gralloc18SetGrallocMetaDataEPKNS_12NativeHandleEjjPv+0x9fc>
	tbz	w23, #2, 0xbfcc <_ZN4CamX7Gralloc18SetGrallocMetaDataEPKNS_12NativeHandleEjjPv+0xb34>
	b.ge	0xbe94 <_ZN4CamX7Gralloc18SetGrallocMetaDataEPKNS_12NativeHandleEjjPv+0x9fc>
	tbz	w23, #1, 0xbfe8 <_ZN4CamX7Gralloc18SetGrallocMetaDataEPKNS_12NativeHandleEjjPv+0xb50>
	b.ge	0xbe94 <_ZN4CamX7Gralloc18SetGrallocMetaDataEPKNS_12NativeHandleEjjPv+0x9fc>
	b	0xbe94 <_ZN4CamX7Gralloc18SetGrallocMetaDataEPKNS_12NativeHandleEjjPv+0x9fc>
	b.eq	0xbe94 <_ZN4CamX7Gralloc18SetGrallocMetaDataEPKNS_12NativeHandleEjjPv+0x9fc>
	b	0xc000 <_ZN4CamX7Gralloc18SetGrallocMetaDataEPKNS_12NativeHandleEjjPv+0xb68>
	cbz	x0, 0xc040 <_ZN4CamX7Gralloc18SetGrallocMetaDataEPKNS_12NativeHandleEjjPv+0xba8>
	cbnz	w0, 0xc0d0 <_ZN4CamX7Gralloc18SetGrallocMetaDataEPKNS_12NativeHandleEjjPv+0xc38>
	adrp	x8, 0x17000 <_ZN4CamX7Gralloc18SetGrallocMetaDataEPKNS_12NativeHandleEjjPv+0xc18>
	b.ne	0xc0d0 <_ZN4CamX7Gralloc18SetGrallocMetaDataEPKNS_12NativeHandleEjjPv+0xc38>
	adrp	x8, 0x17000 <_ZN4CamX7Gralloc18SetGrallocMetaDataEPKNS_12NativeHandleEjjPv+0xc6c>
	cbz	x0, 0xc110 <_ZN4CamX7Gralloc18SetGrallocMetaDataEPKNS_12NativeHandleEjjPv+0xc78>
	cbz	w8, 0xc170 <_ZN4CamX7Gralloc18SetGrallocMetaDataEPKNS_12NativeHandleEjjPv+0xcd8>
	b.ne	0xc1ec <_ZN4CamX7Gralloc18SetGrallocMetaDataEPKNS_12NativeHandleEjjPv+0xd54>
	adrp	x14, 0x17000 <_ZN4CamX7Gralloc18SetGrallocMetaDataEPKNS_12NativeHandleEjjPv+0xd08>
	bl	0x162f0 <_ZN7android8hardware7details13return_statusD2Ev@plt>
	b.eq	0xc1dc <_ZN4CamX7Gralloc18SetGrallocMetaDataEPKNS_12NativeHandleEjjPv+0xd44>
	cbz	x0, 0xc150 <_ZN4CamX7Gralloc18SetGrallocMetaDataEPKNS_12NativeHandleEjjPv+0xcb8>
	b	0xc150 <_ZN4CamX7Gralloc18SetGrallocMetaDataEPKNS_12NativeHandleEjjPv+0xcb8>
	b	0xc150 <_ZN4CamX7Gralloc18SetGrallocMetaDataEPKNS_12NativeHandleEjjPv+0xcb8>
	b.ne	0xc218 <_ZN4CamX7Gralloc18SetGrallocMetaDataEPKNS_12NativeHandleEjjPv+0xd80>
	cbz	x8, 0xc22c <_ZN4CamX7Gralloc18SetGrallocMetaDataEPKNS_12NativeHandleEjjPv+0xd94>
	cbz	x0, 0xc240 <_ZN4CamX7Gralloc18SetGrallocMetaDataEPKNS_12NativeHandleEjjPv+0xda8>
	cbnz	w0, 0xc2c0 <_ZN4CamX7Gralloc18SetGrallocMetaDataEPKNS_12NativeHandleEjjPv+0xe28>
	adrp	x8, 0x17000 <_ZN4CamX7Gralloc18SetGrallocMetaDataEPKNS_12NativeHandleEjjPv+0xe14>
	b.ne	0xc2c0 <_ZN4CamX7Gralloc18SetGrallocMetaDataEPKNS_12NativeHandleEjjPv+0xe28>
	adrp	x8, 0x17000 <_ZN4CamX7Gralloc18SetGrallocMetaDataEPKNS_12NativeHandleEjjPv+0xe5c>
	cbz	x0, 0xc2f8 <_ZN4CamX7Gralloc18SetGrallocMetaDataEPKNS_12NativeHandleEjjPv+0xe60>
	cbz	x0, 0xc330 <_ZN4CamX7Gralloc18SetGrallocMetaDataEPKNS_12NativeHandleEjjPv+0xe98>
	cbnz	w0, 0xc3b0 <_ZN4CamX7Gralloc18SetGrallocMetaDataEPKNS_12NativeHandleEjjPv+0xf18>
	adrp	x8, 0x17000 <_ZN4CamX7Gralloc18SetGrallocMetaDataEPKNS_12NativeHandleEjjPv+0xf04>
	b.ne	0xc3b0 <_ZN4CamX7Gralloc18SetGrallocMetaDataEPKNS_12NativeHandleEjjPv+0xf18>
	adrp	x8, 0x17000 <_ZN4CamX7Gralloc18SetGrallocMetaDataEPKNS_12NativeHandleEjjPv+0xf4c>
	cbz	x0, 0xc3e8 <_ZN4CamX7Gralloc18SetGrallocMetaDataEPKNS_12NativeHandleEjjPv+0xf50>
	b.eq	0xc478 <_ZN4CamX7Gralloc18SetGrallocMetaDataEPKNS_12NativeHandleEjjPv+0xfe0>
	cbz	w13, 0xc440 <_ZN4CamX7Gralloc18SetGrallocMetaDataEPKNS_12NativeHandleEjjPv+0xfa8>
	cbz	x0, 0xc440 <_ZN4CamX7Gralloc18SetGrallocMetaDataEPKNS_12NativeHandleEjjPv+0xfa8>
	cbz	w20, 0xc474 <_ZN4CamX7Gralloc18SetGrallocMetaDataEPKNS_12NativeHandleEjjPv+0xfdc>
	cbz	w0, 0xc4a0 <_ZN4CamX7Gralloc18SetGrallocMetaDataEPKNS_12NativeHandleEjjPv+0x1008>
	b	0xc4b8 <_ZN4CamX7Gralloc18SetGrallocMetaDataEPKNS_12NativeHandleEjjPv+0x1020>
	b.ne	0xc62c <_ZN4CamX7Gralloc18SetGrallocMetaDataEPKNS_12NativeHandleEjjPv+0x1194>
	cbz	x19, 0xc4b8 <_ZN4CamX7Gralloc18SetGrallocMetaDataEPKNS_12NativeHandleEjjPv+0x1020>
	b.lo	0xc5ac <_ZN4CamX7Gralloc18SetGrallocMetaDataEPKNS_12NativeHandleEjjPv+0x1114>
	tbnz	w17, #0, 0xc5ac <_ZN4CamX7Gralloc18SetGrallocMetaDataEPKNS_12NativeHandleEjjPv+0x1114>
	cbz	w1, 0xc5ac <_ZN4CamX7Gralloc18SetGrallocMetaDataEPKNS_12NativeHandleEjjPv+0x1114>
	tbz	w2, #0, 0xc5ac <_ZN4CamX7Gralloc18SetGrallocMetaDataEPKNS_12NativeHandleEjjPv+0x1114>
	b.ne	0xc54c <_ZN4CamX7Gralloc18SetGrallocMetaDataEPKNS_12NativeHandleEjjPv+0x10b4>
	cbz	x13, 0xc478 <_ZN4CamX7Gralloc18SetGrallocMetaDataEPKNS_12NativeHandleEjjPv+0xfe0>
	b.ls	0xc590 <_ZN4CamX7Gralloc18SetGrallocMetaDataEPKNS_12NativeHandleEjjPv+0x10f8>
	b.ge	0xc478 <_ZN4CamX7Gralloc18SetGrallocMetaDataEPKNS_12NativeHandleEjjPv+0xfe0>
	b.hi	0xc5d0 <_ZN4CamX7Gralloc18SetGrallocMetaDataEPKNS_12NativeHandleEjjPv+0x1138>
	b	0xc610 <_ZN4CamX7Gralloc18SetGrallocMetaDataEPKNS_12NativeHandleEjjPv+0x1178>
	b.eq	0xc478 <_ZN4CamX7Gralloc18SetGrallocMetaDataEPKNS_12NativeHandleEjjPv+0xfe0>
	b	0xc5b0 <_ZN4CamX7Gralloc18SetGrallocMetaDataEPKNS_12NativeHandleEjjPv+0x1118>
	b.ne	0xc5ec <_ZN4CamX7Gralloc18SetGrallocMetaDataEPKNS_12NativeHandleEjjPv+0x1154>
	b.eq	0xc478 <_ZN4CamX7Gralloc18SetGrallocMetaDataEPKNS_12NativeHandleEjjPv+0xfe0>
	b.lt	0xc610 <_ZN4CamX7Gralloc18SetGrallocMetaDataEPKNS_12NativeHandleEjjPv+0x1178>
	b	0xc478 <_ZN4CamX7Gralloc18SetGrallocMetaDataEPKNS_12NativeHandleEjjPv+0xfe0>
	cbz	x0, 0xc640 <_ZN4CamX7Gralloc18SetGrallocMetaDataEPKNS_12NativeHandleEjjPv+0x11a8>
	cbnz	w0, 0xc6d0 <_ZN4CamX7Gralloc18SetGrallocMetaDataEPKNS_12NativeHandleEjjPv+0x1238>
	adrp	x8, 0x17000 <_ZN4CamX7Gralloc18SetGrallocMetaDataEPKNS_12NativeHandleEjjPv+0x1218>
	b.ne	0xc6d0 <_ZN4CamX7Gralloc18SetGrallocMetaDataEPKNS_12NativeHandleEjjPv+0x1238>
	adrp	x8, 0x17000 <_ZN4CamX7Gralloc18SetGrallocMetaDataEPKNS_12NativeHandleEjjPv+0x126c>
	cbz	x0, 0xc710 <_ZN4CamX7Gralloc18SetGrallocMetaDataEPKNS_12NativeHandleEjjPv+0x1278>
	cbz	w8, 0xc770 <_ZN4CamX7Gralloc18SetGrallocMetaDataEPKNS_12NativeHandleEjjPv+0x12d8>
	b.ne	0xc7ec <_ZN4CamX7Gralloc18SetGrallocMetaDataEPKNS_12NativeHandleEjjPv+0x1354>
	adrp	x14, 0x17000 <_ZN4CamX7Gralloc18SetGrallocMetaDataEPKNS_12NativeHandleEjjPv+0x1308>
	bl	0x162f0 <_ZN7android8hardware7details13return_statusD2Ev@plt>
	b.eq	0xc7dc <_ZN4CamX7Gralloc18SetGrallocMetaDataEPKNS_12NativeHandleEjjPv+0x1344>
	cbz	x0, 0xc750 <_ZN4CamX7Gralloc18SetGrallocMetaDataEPKNS_12NativeHandleEjjPv+0x12b8>
	b	0xc750 <_ZN4CamX7Gralloc18SetGrallocMetaDataEPKNS_12NativeHandleEjjPv+0x12b8>
	b	0xc750 <_ZN4CamX7Gralloc18SetGrallocMetaDataEPKNS_12NativeHandleEjjPv+0x12b8>
	b.ne	0xc818 <_ZN4CamX7Gralloc18SetGrallocMetaDataEPKNS_12NativeHandleEjjPv+0x1380>
	cbz	x8, 0xc82c <_ZN4CamX7Gralloc18SetGrallocMetaDataEPKNS_12NativeHandleEjjPv+0x1394>
	cbz	x0, 0xc840 <_ZN4CamX7Gralloc18SetGrallocMetaDataEPKNS_12NativeHandleEjjPv+0x13a8>
	cbnz	w0, 0xc8c0 <_ZN4CamX7Gralloc18SetGrallocMetaDataEPKNS_12NativeHandleEjjPv+0x1428>
	adrp	x8, 0x17000 <_ZN4CamX7Gralloc18SetGrallocMetaDataEPKNS_12NativeHandleEjjPv+0x1414>
	b.ne	0xc8c0 <_ZN4CamX7Gralloc18SetGrallocMetaDataEPKNS_12NativeHandleEjjPv+0x1428>
	adrp	x8, 0x17000 <_ZN4CamX7Gralloc18SetGrallocMetaDataEPKNS_12NativeHandleEjjPv+0x145c>
	cbz	x0, 0xc8f8 <_ZN4CamX7Gralloc18SetGrallocMetaDataEPKNS_12NativeHandleEjjPv+0x1460>
	cbz	x0, 0xc930 <_ZN4CamX7Gralloc18SetGrallocMetaDataEPKNS_12NativeHandleEjjPv+0x1498>
	cbnz	w0, 0xc9b0 <_ZN4CamX7Gralloc18SetGrallocMetaDataEPKNS_12NativeHandleEjjPv+0x1518>
	adrp	x8, 0x17000 <_ZN4CamX7Gralloc18SetGrallocMetaDataEPKNS_12NativeHandleEjjPv+0x1504>
	b.ne	0xc9b0 <_ZN4CamX7Gralloc18SetGrallocMetaDataEPKNS_12NativeHandleEjjPv+0x1518>
	adrp	x8, 0x17000 <_ZN4CamX7Gralloc18SetGrallocMetaDataEPKNS_12NativeHandleEjjPv+0x154c>
	cbz	x0, 0xc9e0 <_ZN4CamX7Gralloc18SetGrallocMetaDataEPKNS_12NativeHandleEjjPv+0x1548>
	cbz	x0, 0xca08 <_ZN4CamX7Gralloc18SetGrallocMetaDataEPKNS_12NativeHandleEjjPv+0x1570>
	cbnz	w0, 0xca88 <_ZN4CamX7Gralloc18SetGrallocMetaDataEPKNS_12NativeHandleEjjPv+0x15f0>
	adrp	x8, 0x17000 <_ZN4CamX7Gralloc18SetGrallocMetaDataEPKNS_12NativeHandleEjjPv+0x15dc>
	b.ne	0xca88 <_ZN4CamX7Gralloc18SetGrallocMetaDataEPKNS_12NativeHandleEjjPv+0x15f0>
	adrp	x8, 0x17000 <_ZN4CamX7Gralloc18SetGrallocMetaDataEPKNS_12NativeHandleEjjPv+0x1624>
	cbz	x0, 0xcab8 <_ZN4CamX7Gralloc18SetGrallocMetaDataEPKNS_12NativeHandleEjjPv+0x1620>
	adrp	x19, 0x18000 <_ZN4CamX7Gralloc18SetGrallocMetaDataEPKNS_12NativeHandleEjjPv+0x1688>
	adrp	x20, 0x5000 <_ZN4CamX7Gralloc18SetGrallocMetaDataEPKNS_12NativeHandleEjjPv+0x1640>
	bl	0x165b0 <_ZN7android8hardware11hidl_stringC1EPKc@plt>
	adrp	x23, 0x9000 <_ZN4CamX7Gralloc18SetGrallocMetaDataEPKNS_12NativeHandleEjjPv+0x1670>
	adrp	x21, 0x17000 <_ZN4CamX7Gralloc18SetGrallocMetaDataEPKNS_12NativeHandleEjjPv+0x16ac>
	bl	0x165b0 <_ZN7android8hardware11hidl_stringC1EPKc@plt>
	bl	0x165b0 <_ZN7android8hardware11hidl_stringC1EPKc@plt>
	bl	0x165b0 <_ZN7android8hardware11hidl_stringC1EPKc@plt>
	bl	0x165b0 <_ZN7android8hardware11hidl_stringC1EPKc@plt>
	bl	0x165b0 <_ZN7android8hardware11hidl_stringC1EPKc@plt>
	bl	0x165b0 <_ZN7android8hardware11hidl_stringC1EPKc@plt>
	bl	0x165b0 <_ZN7android8hardware11hidl_stringC1EPKc@plt>
	bl	0x165b0 <_ZN7android8hardware11hidl_stringC1EPKc@plt>
	bl	0x165b0 <_ZN7android8hardware11hidl_stringC1EPKc@plt>
	bl	0x165b0 <_ZN7android8hardware11hidl_stringC1EPKc@plt>
	bl	0x165b0 <_ZN7android8hardware11hidl_stringC1EPKc@plt>
	bl	0x165b0 <_ZN7android8hardware11hidl_stringC1EPKc@plt>
	bl	0x165b0 <_ZN7android8hardware11hidl_stringC1EPKc@plt>
	bl	0x165b0 <_ZN7android8hardware11hidl_stringC1EPKc@plt>
	bl	0x165b0 <_ZN7android8hardware11hidl_stringC1EPKc@plt>
	bl	0x165b0 <_ZN7android8hardware11hidl_stringC1EPKc@plt>
	bl	0x165b0 <_ZN7android8hardware11hidl_stringC1EPKc@plt>
	bl	0x165b0 <_ZN7android8hardware11hidl_stringC1EPKc@plt>
	bl	0x165b0 <_ZN7android8hardware11hidl_stringC1EPKc@plt>
	bl	0x165b0 <_ZN7android8hardware11hidl_stringC1EPKc@plt>
	cbz	w0, 0xce88 <_ZN4CamX7Gralloc18SetGrallocMetaDataEPKNS_12NativeHandleEjjPv+0x19f0>
	b	0xce9c <_ZN4CamX7Gralloc18SetGrallocMetaDataEPKNS_12NativeHandleEjjPv+0x1a04>
	cbz	x9, 0xce9c <_ZN4CamX7Gralloc18SetGrallocMetaDataEPKNS_12NativeHandleEjjPv+0x1a04>
	adrp	x8, 0x6000 <_ZN4CamX7Gralloc18SetGrallocMetaDataEPKNS_12NativeHandleEjjPv+0x19ec>
	adrp	x1, 0x6000 <_ZN4CamX7Gralloc18SetGrallocMetaDataEPKNS_12NativeHandleEjjPv+0x19f0>
	adrp	x0, 0x9000 <_ZN4CamX7Gralloc18SetGrallocMetaDataEPKNS_12NativeHandleEjjPv+0x1a04>
	adrp	x2, 0x17000 <_ZN4CamX7Gralloc18SetGrallocMetaDataEPKNS_12NativeHandleEjjPv+0x1a40>
	cbz	w0, 0xcf1c <_ZN4CamX7Gralloc18SetGrallocMetaDataEPKNS_12NativeHandleEjjPv+0x1a84>
	b	0xcf30 <_ZN4CamX7Gralloc18SetGrallocMetaDataEPKNS_12NativeHandleEjjPv+0x1a98>
	cbz	x2, 0xcf30 <_ZN4CamX7Gralloc18SetGrallocMetaDataEPKNS_12NativeHandleEjjPv+0x1a98>
	adrp	x0, 0x9000 <_ZN4CamX7Gralloc18SetGrallocMetaDataEPKNS_12NativeHandleEjjPv+0x1a90>
	adrp	x2, 0x17000 <_ZN4CamX7Gralloc18SetGrallocMetaDataEPKNS_12NativeHandleEjjPv+0x1afc>
	cbz	w0, 0xcfa4 <_ZN4CamX7Gralloc18SetGrallocMetaDataEPKNS_12NativeHandleEjjPv+0x1b0c>
	b	0xcfb8 <_ZN4CamX7Gralloc18SetGrallocMetaDataEPKNS_12NativeHandleEjjPv+0x1b20>
	cbz	x10, 0xcfb8 <_ZN4CamX7Gralloc18SetGrallocMetaDataEPKNS_12NativeHandleEjjPv+0x1b20>
	adrp	x11, 0x6000 <_ZN4CamX7Gralloc18SetGrallocMetaDataEPKNS_12NativeHandleEjjPv+0x1b08>
	adrp	x9, 0x6000 <_ZN4CamX7Gralloc18SetGrallocMetaDataEPKNS_12NativeHandleEjjPv+0x1b0c>
	adrp	x0, 0x9000 <_ZN4CamX7Gralloc18SetGrallocMetaDataEPKNS_12NativeHandleEjjPv+0x1b20>
	adrp	x2, 0x17000 <_ZN4CamX7Gralloc18SetGrallocMetaDataEPKNS_12NativeHandleEjjPv+0x1b5c>
	cbz	w0, 0xd038 <_ZN4CamX7Gralloc18SetGrallocMetaDataEPKNS_12NativeHandleEjjPv+0x1ba0>
	b	0xd04c <_ZN4CamX7Gralloc18SetGrallocMetaDataEPKNS_12NativeHandleEjjPv+0x1bb4>
	cbz	x3, 0xd04c <_ZN4CamX7Gralloc18SetGrallocMetaDataEPKNS_12NativeHandleEjjPv+0x1bb4>
	adrp	x0, 0x9000 <_ZN4CamX7Gralloc18SetGrallocMetaDataEPKNS_12NativeHandleEjjPv+0x1ba8>
	adrp	x2, 0x17000 <_ZN4CamX7Gralloc18SetGrallocMetaDataEPKNS_12NativeHandleEjjPv+0x1be8>
	cbz	w0, 0xd0c0 <_ZN4CamX7Gralloc18SetGrallocMetaDataEPKNS_12NativeHandleEjjPv+0x1c28>
	b	0xd0d4 <_ZN4CamX7Gralloc18SetGrallocMetaDataEPKNS_12NativeHandleEjjPv+0x1c3c>
	cbz	x4, 0xd0d4 <_ZN4CamX7Gralloc18SetGrallocMetaDataEPKNS_12NativeHandleEjjPv+0x1c3c>
	adrp	x0, 0x9000 <_ZN4CamX7Gralloc18SetGrallocMetaDataEPKNS_12NativeHandleEjjPv+0x1c30>
	adrp	x2, 0x17000 <_ZN4CamX7Gralloc18SetGrallocMetaDataEPKNS_12NativeHandleEjjPv+0x1c70>
	cbz	w0, 0xd148 <_ZN4CamX7Gralloc18SetGrallocMetaDataEPKNS_12NativeHandleEjjPv+0x1cb0>
	b	0xd15c <_ZN4CamX7Gralloc18SetGrallocMetaDataEPKNS_12NativeHandleEjjPv+0x1cc4>
	cbz	x11, 0xd15c <_ZN4CamX7Gralloc18SetGrallocMetaDataEPKNS_12NativeHandleEjjPv+0x1cc4>
	adrp	x12, 0x5000 <_ZN4CamX7Gralloc18SetGrallocMetaDataEPKNS_12NativeHandleEjjPv+0x1ca4>
	adrp	x10, 0x6000 <_ZN4CamX7Gralloc18SetGrallocMetaDataEPKNS_12NativeHandleEjjPv+0x1cac>
	adrp	x0, 0x9000 <_ZN4CamX7Gralloc18SetGrallocMetaDataEPKNS_12NativeHandleEjjPv+0x1cc0>
	adrp	x2, 0x17000 <_ZN4CamX7Gralloc18SetGrallocMetaDataEPKNS_12NativeHandleEjjPv+0x1cfc>
	cbz	w0, 0xd1dc <_ZN4CamX7Gralloc18SetGrallocMetaDataEPKNS_12NativeHandleEjjPv+0x1d44>
	b	0xd1f0 <_ZN4CamX7Gralloc18SetGrallocMetaDataEPKNS_12NativeHandleEjjPv+0x1d58>
	cbz	x5, 0xd1f0 <_ZN4CamX7Gralloc18SetGrallocMetaDataEPKNS_12NativeHandleEjjPv+0x1d58>
	adrp	x0, 0x9000 <_ZN4CamX7Gralloc18SetGrallocMetaDataEPKNS_12NativeHandleEjjPv+0x1d4c>
	adrp	x2, 0x17000 <_ZN4CamX7Gralloc18SetGrallocMetaDataEPKNS_12NativeHandleEjjPv+0x1d8c>
	cbz	w0, 0xd264 <_ZN4CamX7Gralloc18SetGrallocMetaDataEPKNS_12NativeHandleEjjPv+0x1dcc>
	b	0xd278 <_ZN4CamX7Gralloc18SetGrallocMetaDataEPKNS_12NativeHandleEjjPv+0x1de0>
	cbz	x6, 0xd278 <_ZN4CamX7Gralloc18SetGrallocMetaDataEPKNS_12NativeHandleEjjPv+0x1de0>
	adrp	x0, 0x9000 <_ZN4CamX7Gralloc18SetGrallocMetaDataEPKNS_12NativeHandleEjjPv+0x1dd4>
	adrp	x2, 0x17000 <_ZN4CamX7Gralloc18SetGrallocMetaDataEPKNS_12NativeHandleEjjPv+0x1e14>
	cbz	w0, 0xd2ec <_ZN4CamX7Gralloc18SetGrallocMetaDataEPKNS_12NativeHandleEjjPv+0x1e54>
	b	0xd300 <_ZN4CamX7Gralloc18SetGrallocMetaDataEPKNS_12NativeHandleEjjPv+0x1e68>
	cbz	x7, 0xd300 <_ZN4CamX7Gralloc18SetGrallocMetaDataEPKNS_12NativeHandleEjjPv+0x1e68>
	adrp	x0, 0x9000 <_ZN4CamX7Gralloc18SetGrallocMetaDataEPKNS_12NativeHandleEjjPv+0x1e5c>
	adrp	x2, 0x17000 <_ZN4CamX7Gralloc18SetGrallocMetaDataEPKNS_12NativeHandleEjjPv+0x1e9c>
	cbz	w0, 0xd374 <_ZN4CamX7Gralloc18SetGrallocMetaDataEPKNS_12NativeHandleEjjPv+0x1edc>
	b	0xd388 <_ZN4CamX7Gralloc18SetGrallocMetaDataEPKNS_12NativeHandleEjjPv+0x1ef0>
	cbz	x8, 0xd388 <_ZN4CamX7Gralloc18SetGrallocMetaDataEPKNS_12NativeHandleEjjPv+0x1ef0>
	adrp	x14, 0x4000 <_ZN4CamX7Gralloc18SetGrallocMetaDataEPKNS_12NativeHandleEjjPv+0x1ecc>
	adrp	x13, 0x6000 <_ZN4CamX7Gralloc18SetGrallocMetaDataEPKNS_12NativeHandleEjjPv+0x1ed8>
	adrp	x0, 0x9000 <_ZN4CamX7Gralloc18SetGrallocMetaDataEPKNS_12NativeHandleEjjPv+0x1eec>
	adrp	x2, 0x17000 <_ZN4CamX7Gralloc18SetGrallocMetaDataEPKNS_12NativeHandleEjjPv+0x1f28>
	cbz	w0, 0xd414 <_ZN4CamX7Gralloc18SetGrallocMetaDataEPKNS_12NativeHandleEjjPv+0x1f7c>
	b	0xd428 <_ZN4CamX7Gralloc18SetGrallocMetaDataEPKNS_12NativeHandleEjjPv+0x1f90>
	cbz	x12, 0xd428 <_ZN4CamX7Gralloc18SetGrallocMetaDataEPKNS_12NativeHandleEjjPv+0x1f90>
	adrp	x0, 0x9000 <_ZN4CamX7Gralloc18SetGrallocMetaDataEPKNS_12NativeHandleEjjPv+0x1f84>
	adrp	x2, 0x17000 <_ZN4CamX7Gralloc18SetGrallocMetaDataEPKNS_12NativeHandleEjjPv+0x1fc4>
	cbz	w0, 0xd4a4 <_ZN4CamX7Gralloc18SetGrallocMetaDataEPKNS_12NativeHandleEjjPv+0x200c>
	b	0xd4b8 <_ZN4CamX7Gralloc18SetGrallocMetaDataEPKNS_12NativeHandleEjjPv+0x2020>
	cbz	x13, 0xd4b8 <_ZN4CamX7Gralloc18SetGrallocMetaDataEPKNS_12NativeHandleEjjPv+0x2020>
	adrp	x0, 0x9000 <_ZN4CamX7Gralloc18SetGrallocMetaDataEPKNS_12NativeHandleEjjPv+0x2014>
	adrp	x2, 0x17000 <_ZN4CamX7Gralloc18SetGrallocMetaDataEPKNS_12NativeHandleEjjPv+0x2054>
	cbz	w0, 0xd534 <_ZN4CamX7Gralloc18SetGrallocMetaDataEPKNS_12NativeHandleEjjPv+0x209c>
	b	0xd548 <_ZN4CamX7Gralloc18SetGrallocMetaDataEPKNS_12NativeHandleEjjPv+0x20b0>
	cbz	x14, 0xd548 <_ZN4CamX7Gralloc18SetGrallocMetaDataEPKNS_12NativeHandleEjjPv+0x20b0>
	adrp	x0, 0x9000 <_ZN4CamX7Gralloc18SetGrallocMetaDataEPKNS_12NativeHandleEjjPv+0x20a4>
	adrp	x2, 0x17000 <_ZN4CamX7Gralloc18SetGrallocMetaDataEPKNS_12NativeHandleEjjPv+0x20e4>
	cbz	w0, 0xd5c4 <_ZN4CamX7Gralloc18SetGrallocMetaDataEPKNS_12NativeHandleEjjPv+0x212c>
	b	0xd5d8 <_ZN4CamX7Gralloc18SetGrallocMetaDataEPKNS_12NativeHandleEjjPv+0x2140>
	cbz	x15, 0xd5d8 <_ZN4CamX7Gralloc18SetGrallocMetaDataEPKNS_12NativeHandleEjjPv+0x2140>
	adrp	x0, 0x9000 <_ZN4CamX7Gralloc18SetGrallocMetaDataEPKNS_12NativeHandleEjjPv+0x2134>
	adrp	x2, 0x17000 <_ZN4CamX7Gralloc18SetGrallocMetaDataEPKNS_12NativeHandleEjjPv+0x2174>
	cbz	w0, 0xd654 <_ZN4CamX7Gralloc18SetGrallocMetaDataEPKNS_12NativeHandleEjjPv+0x21bc>
	b	0xd668 <_ZN4CamX7Gralloc18SetGrallocMetaDataEPKNS_12NativeHandleEjjPv+0x21d0>
	cbz	x16, 0xd668 <_ZN4CamX7Gralloc18SetGrallocMetaDataEPKNS_12NativeHandleEjjPv+0x21d0>
	adrp	x0, 0x9000 <_ZN4CamX7Gralloc18SetGrallocMetaDataEPKNS_12NativeHandleEjjPv+0x21c4>
	adrp	x2, 0x17000 <_ZN4CamX7Gralloc18SetGrallocMetaDataEPKNS_12NativeHandleEjjPv+0x2204>
	cbz	w0, 0xd6e4 <_ZN4CamX7Gralloc18SetGrallocMetaDataEPKNS_12NativeHandleEjjPv+0x224c>
	b	0xd6f8 <_ZN4CamX7Gralloc18SetGrallocMetaDataEPKNS_12NativeHandleEjjPv+0x2260>
	cbz	x17, 0xd6f8 <_ZN4CamX7Gralloc18SetGrallocMetaDataEPKNS_12NativeHandleEjjPv+0x2260>
	adrp	x0, 0x9000 <_ZN4CamX7Gralloc18SetGrallocMetaDataEPKNS_12NativeHandleEjjPv+0x2254>
	adrp	x2, 0x17000 <_ZN4CamX7Gralloc18SetGrallocMetaDataEPKNS_12NativeHandleEjjPv+0x2294>
	cbz	w0, 0xd774 <_ZN4CamX7Gralloc18SetGrallocMetaDataEPKNS_12NativeHandleEjjPv+0x22dc>
	b	0xd788 <_ZN4CamX7Gralloc18SetGrallocMetaDataEPKNS_12NativeHandleEjjPv+0x22f0>
	cbz	x0, 0xd788 <_ZN4CamX7Gralloc18SetGrallocMetaDataEPKNS_12NativeHandleEjjPv+0x22f0>
	adrp	x21, 0x9000 <_ZN4CamX7Gralloc18SetGrallocMetaDataEPKNS_12NativeHandleEjjPv+0x22e4>
	adrp	x20, 0x17000 <_ZN4CamX7Gralloc18SetGrallocMetaDataEPKNS_12NativeHandleEjjPv+0x2324>
	adrp	x0, 0x17000 <_ZN4CamX7Gralloc18SetGrallocMetaDataEPKNS_12NativeHandleEjjPv+0x2380>
	bl	0x16500 <_ZN7android8hardware11hidl_stringC1ERKNSt3__112basic_stringIcNS2_11char_traitsIcEENS2_9allocatorIcEEEE@plt>
	adrp	x23, 0x9000 <_ZN4CamX7Gralloc18SetGrallocMetaDataEPKNS_12NativeHandleEjjPv+0x2380>
	bl	0x16500 <_ZN7android8hardware11hidl_stringC1ERKNSt3__112basic_stringIcNS2_11char_traitsIcEENS2_9allocatorIcEEEE@plt>
	bl	0x16500 <_ZN7android8hardware11hidl_stringC1ERKNSt3__112basic_stringIcNS2_11char_traitsIcEENS2_9allocatorIcEEEE@plt>
	bl	0x16500 <_ZN7android8hardware11hidl_stringC1ERKNSt3__112basic_stringIcNS2_11char_traitsIcEENS2_9allocatorIcEEEE@plt>
	bl	0x16500 <_ZN7android8hardware11hidl_stringC1ERKNSt3__112basic_stringIcNS2_11char_traitsIcEENS2_9allocatorIcEEEE@plt>
	bl	0x16500 <_ZN7android8hardware11hidl_stringC1ERKNSt3__112basic_stringIcNS2_11char_traitsIcEENS2_9allocatorIcEEEE@plt>
	bl	0x16500 <_ZN7android8hardware11hidl_stringC1ERKNSt3__112basic_stringIcNS2_11char_traitsIcEENS2_9allocatorIcEEEE@plt>
	bl	0x16500 <_ZN7android8hardware11hidl_stringC1ERKNSt3__112basic_stringIcNS2_11char_traitsIcEENS2_9allocatorIcEEEE@plt>
	bl	0x16500 <_ZN7android8hardware11hidl_stringC1ERKNSt3__112basic_stringIcNS2_11char_traitsIcEENS2_9allocatorIcEEEE@plt>
	bl	0x16500 <_ZN7android8hardware11hidl_stringC1ERKNSt3__112basic_stringIcNS2_11char_traitsIcEENS2_9allocatorIcEEEE@plt>
	bl	0x16500 <_ZN7android8hardware11hidl_stringC1ERKNSt3__112basic_stringIcNS2_11char_traitsIcEENS2_9allocatorIcEEEE@plt>
	bl	0x16500 <_ZN7android8hardware11hidl_stringC1ERKNSt3__112basic_stringIcNS2_11char_traitsIcEENS2_9allocatorIcEEEE@plt>
	bl	0x16500 <_ZN7android8hardware11hidl_stringC1ERKNSt3__112basic_stringIcNS2_11char_traitsIcEENS2_9allocatorIcEEEE@plt>
	bl	0x16500 <_ZN7android8hardware11hidl_stringC1ERKNSt3__112basic_stringIcNS2_11char_traitsIcEENS2_9allocatorIcEEEE@plt>
	bl	0x16500 <_ZN7android8hardware11hidl_stringC1ERKNSt3__112basic_stringIcNS2_11char_traitsIcEENS2_9allocatorIcEEEE@plt>
	bl	0x16500 <_ZN7android8hardware11hidl_stringC1ERKNSt3__112basic_stringIcNS2_11char_traitsIcEENS2_9allocatorIcEEEE@plt>
	bl	0x16500 <_ZN7android8hardware11hidl_stringC1ERKNSt3__112basic_stringIcNS2_11char_traitsIcEENS2_9allocatorIcEEEE@plt>
	bl	0x16500 <_ZN7android8hardware11hidl_stringC1ERKNSt3__112basic_stringIcNS2_11char_traitsIcEENS2_9allocatorIcEEEE@plt>
	bl	0x16500 <_ZN7android8hardware11hidl_stringC1ERKNSt3__112basic_stringIcNS2_11char_traitsIcEENS2_9allocatorIcEEEE@plt>
	bl	0x16500 <_ZN7android8hardware11hidl_stringC1ERKNSt3__112basic_stringIcNS2_11char_traitsIcEENS2_9allocatorIcEEEE@plt>
	bl	0x16500 <_ZN7android8hardware11hidl_stringC1ERKNSt3__112basic_stringIcNS2_11char_traitsIcEENS2_9allocatorIcEEEE@plt>
	bl	0x16500 <_ZN7android8hardware11hidl_stringC1ERKNSt3__112basic_stringIcNS2_11char_traitsIcEENS2_9allocatorIcEEEE@plt>
	bl	0x16500 <_ZN7android8hardware11hidl_stringC1ERKNSt3__112basic_stringIcNS2_11char_traitsIcEENS2_9allocatorIcEEEE@plt>
	bl	0x16500 <_ZN7android8hardware11hidl_stringC1ERKNSt3__112basic_stringIcNS2_11char_traitsIcEENS2_9allocatorIcEEEE@plt>
	bl	0x16500 <_ZN7android8hardware11hidl_stringC1ERKNSt3__112basic_stringIcNS2_11char_traitsIcEENS2_9allocatorIcEEEE@plt>
	bl	0x16500 <_ZN7android8hardware11hidl_stringC1ERKNSt3__112basic_stringIcNS2_11char_traitsIcEENS2_9allocatorIcEEEE@plt>
	bl	0x165c0 <_ZNSt3__112basic_stringIcNS_11char_traitsIcEENS_9allocatorIcEEEC1ERKS5_@plt>
	bl	0x165c0 <_ZNSt3__112basic_stringIcNS_11char_traitsIcEENS_9allocatorIcEEEC1ERKS5_@plt>
	bl	0x165c0 <_ZNSt3__112basic_stringIcNS_11char_traitsIcEENS_9allocatorIcEEEC1ERKS5_@plt>
	bl	0x165c0 <_ZNSt3__112basic_stringIcNS_11char_traitsIcEENS_9allocatorIcEEEC1ERKS5_@plt>
	b.ne	0xdcf4 <_ZN4CamX7Gralloc18SetGrallocMetaDataEPKNS_12NativeHandleEjjPv+0x285c>
	adrp	x8, 0x19000 <_ZN4CamX7Gralloc18SetGrallocMetaDataEPKNS_12NativeHandleEjjPv+0x28b0>
	tbz	w8, #0, 0xddf8 <_ZN4CamX7Gralloc18SetGrallocMetaDataEPKNS_12NativeHandleEjjPv+0x2960>
	adrp	x0, 0x19000 <_ZN4CamX7Gralloc18SetGrallocMetaDataEPKNS_12NativeHandleEjjPv+0x28c0>
	bl	0x16450 <_ZNSt3__15mutex4lockEv@plt>
	adrp	x21, 0x19000 <_ZN4CamX7Gralloc18SetGrallocMetaDataEPKNS_12NativeHandleEjjPv+0x28cc>
	cbz	x19, 0xdd74 <_ZN4CamX7Gralloc18SetGrallocMetaDataEPKNS_12NativeHandleEjjPv+0x28dc>
	adrp	x0, 0x19000 <_ZN4CamX7Gralloc18SetGrallocMetaDataEPKNS_12NativeHandleEjjPv+0x28d8>
	bl	0x16460 <_ZNSt3__15mutex6unlockEv@plt>
	b.ne	0xde34 <_ZN4CamX7Gralloc18SetGrallocMetaDataEPKNS_12NativeHandleEjjPv+0x299c>
	cbnz	w0, 0xde38 <_ZN4CamX7Gralloc18SetGrallocMetaDataEPKNS_12NativeHandleEjjPv+0x29a0>
	adrp	x9, 0x17000 <_ZN4CamX7Gralloc18SetGrallocMetaDataEPKNS_12NativeHandleEjjPv+0x2920>
	cbz	x19, 0xdd40 <_ZN4CamX7Gralloc18SetGrallocMetaDataEPKNS_12NativeHandleEjjPv+0x28a8>
	bl	0xde58 <_ZN4CamX7Gralloc18SetGrallocMetaDataEPKNS_12NativeHandleEjjPv+0x29c0>
	cbz	w0, 0xdd40 <_ZN4CamX7Gralloc18SetGrallocMetaDataEPKNS_12NativeHandleEjjPv+0x28a8>
	cbz	x19, 0xddec <_ZN4CamX7Gralloc18SetGrallocMetaDataEPKNS_12NativeHandleEjjPv+0x2954>
	b	0xdd40 <_ZN4CamX7Gralloc18SetGrallocMetaDataEPKNS_12NativeHandleEjjPv+0x28a8>
	adrp	x0, 0x19000 <_ZN4CamX7Gralloc18SetGrallocMetaDataEPKNS_12NativeHandleEjjPv+0x2990>
	cbz	w0, 0xdd28 <_ZN4CamX7Gralloc18SetGrallocMetaDataEPKNS_12NativeHandleEjjPv+0x2890>
	adrp	x0, 0x17000 <_ZN4CamX7Gralloc18SetGrallocMetaDataEPKNS_12NativeHandleEjjPv+0x2998>
	adrp	x1, 0x19000 <_ZN4CamX7Gralloc18SetGrallocMetaDataEPKNS_12NativeHandleEjjPv+0x29a4>
	adrp	x2, 0x17000 <_ZN4CamX7Gralloc18SetGrallocMetaDataEPKNS_12NativeHandleEjjPv+0x29a0>
	adrp	x0, 0x19000 <_ZN4CamX7Gralloc18SetGrallocMetaDataEPKNS_12NativeHandleEjjPv+0x29bc>
	b	0xdd28 <_ZN4CamX7Gralloc18SetGrallocMetaDataEPKNS_12NativeHandleEjjPv+0x2890>
	b	0xde3c <_ZN4CamX7Gralloc18SetGrallocMetaDataEPKNS_12NativeHandleEjjPv+0x29a4>
	adrp	x0, 0x19000 <_ZN4CamX7Gralloc18SetGrallocMetaDataEPKNS_12NativeHandleEjjPv+0x29d8>
	bl	0x16460 <_ZNSt3__15mutex6unlockEv@plt>
	adrp	x8, 0x5000 <_ZN4CamX7Gralloc18SetGrallocMetaDataEPKNS_12NativeHandleEjjPv+0x29d8>
	cbnz	x0, 0xdf30 <_ZN4CamX7Gralloc18SetGrallocMetaDataEPKNS_12NativeHandleEjjPv+0x2a98>
	adrp	x22, 0x5000 <_ZN4CamX7Gralloc18SetGrallocMetaDataEPKNS_12NativeHandleEjjPv+0x2a14>
	adrp	x9, 0x4000 <_ZN4CamX7Gralloc18SetGrallocMetaDataEPKNS_12NativeHandleEjjPv+0x2a2c>
	adrp	x1, 0x6000 <_ZN4CamX7Gralloc18SetGrallocMetaDataEPKNS_12NativeHandleEjjPv+0x2a48>
	adrp	x3, 0x4000 <_ZN4CamX7Gralloc18SetGrallocMetaDataEPKNS_12NativeHandleEjjPv+0x2a44>
	adrp	x4, 0x5000 <_ZN4CamX7Gralloc18SetGrallocMetaDataEPKNS_12NativeHandleEjjPv+0x2a4c>
	adrp	x6, 0x5000 <_ZN4CamX7Gralloc18SetGrallocMetaDataEPKNS_12NativeHandleEjjPv+0x2a50>
	bl	0x14440 <_ZdaPv+0x228>
	bl	0x16510 <_ZN4CamX7Gralloc11GetInstanceEv@plt>
	cbz	x0, 0xe018 <_ZN4CamX7Gralloc18SetGrallocMetaDataEPKNS_12NativeHandleEjjPv+0x2b80>
	cbz	x22, 0xdf68 <_ZN4CamX7Gralloc18SetGrallocMetaDataEPKNS_12NativeHandleEjjPv+0x2ad0>
	bl	0x16400 <_ZNK7android7RefBase9incStrongEPKv@plt>
	cbz	x23, 0xdf80 <_ZN4CamX7Gralloc18SetGrallocMetaDataEPKNS_12NativeHandleEjjPv+0x2ae8>
	bl	0x16380 <_ZNK7android7RefBase9decStrongEPKv@plt>
	b.eq	0xdf90 <_ZN4CamX7Gralloc18SetGrallocMetaDataEPKNS_12NativeHandleEjjPv+0x2af8>
	bl	0x16390 <_ZN7android14sp_report_raceEv@plt>
	adrp	x13, 0x18000 <_ZN4CamX7Gralloc18SetGrallocMetaDataEPKNS_12NativeHandleEjjPv+0x2b28>
	tbnz	w11, #31, 0xdfc4 <_ZN4CamX7Gralloc18SetGrallocMetaDataEPKNS_12NativeHandleEjjPv+0x2b2c>
	adrp	x14, 0x19000 <_ZN4CamX7Gralloc18SetGrallocMetaDataEPKNS_12NativeHandleEjjPv+0x2b50>
	cbnz	w13, 0xe064 <_ZN4CamX7Gralloc18SetGrallocMetaDataEPKNS_12NativeHandleEjjPv+0x2bcc>
	adrp	x23, 0x5000 <_ZN4CamX7Gralloc18SetGrallocMetaDataEPKNS_12NativeHandleEjjPv+0x2b0c>
	adrp	x1, 0x5000 <_ZN4CamX7Gralloc18SetGrallocMetaDataEPKNS_12NativeHandleEjjPv+0x2b30>
	adrp	x3, 0x5000 <_ZN4CamX7Gralloc18SetGrallocMetaDataEPKNS_12NativeHandleEjjPv+0x2b34>
	adrp	x4, 0x4000 <_ZN4CamX7Gralloc18SetGrallocMetaDataEPKNS_12NativeHandleEjjPv+0x2b34>
	adrp	x6, 0x5000 <_ZN4CamX7Gralloc18SetGrallocMetaDataEPKNS_12NativeHandleEjjPv+0x2b3c>
	bl	0x14440 <_ZdaPv+0x228>
	b	0xe064 <_ZN4CamX7Gralloc18SetGrallocMetaDataEPKNS_12NativeHandleEjjPv+0x2bcc>
	adrp	x26, 0x5000 <_ZN4CamX7Gralloc18SetGrallocMetaDataEPKNS_12NativeHandleEjjPv+0x2b5c>
	adrp	x1, 0x6000 <_ZN4CamX7Gralloc18SetGrallocMetaDataEPKNS_12NativeHandleEjjPv+0x2b80>
	adrp	x3, 0x6000 <_ZN4CamX7Gralloc18SetGrallocMetaDataEPKNS_12NativeHandleEjjPv+0x2b84>
	adrp	x4, 0x4000 <_ZN4CamX7Gralloc18SetGrallocMetaDataEPKNS_12NativeHandleEjjPv+0x2b80>
	adrp	x6, 0x5000 <_ZN4CamX7Gralloc18SetGrallocMetaDataEPKNS_12NativeHandleEjjPv+0x2b88>
	bl	0x14440 <_ZdaPv+0x228>
	cbz	x20, 0xe118 <_ZN4CamX7Gralloc18SetGrallocMetaDataEPKNS_12NativeHandleEjjPv+0x2c80>
	adrp	x1, 0x6000 <_ZN4CamX7Gralloc18SetGrallocMetaDataEPKNS_12NativeHandleEjjPv+0x2bb0>
	adrp	x1, 0x5000 <_ZN4CamX7Gralloc18SetGrallocMetaDataEPKNS_12NativeHandleEjjPv+0x2bc0>
	cbz	x21, 0xe118 <_ZN4CamX7Gralloc18SetGrallocMetaDataEPKNS_12NativeHandleEjjPv+0x2c80>
	cbz	w0, 0xe1b8 <_ZN4CamX7Gralloc18SetGrallocMetaDataEPKNS_12NativeHandleEjjPv+0x2d20>
	adrp	x15, 0x18000 <_ZN4CamX7Gralloc18SetGrallocMetaDataEPKNS_12NativeHandleEjjPv+0x2c3c>
	tbnz	w15, #31, 0xe0c8 <_ZN4CamX7Gralloc18SetGrallocMetaDataEPKNS_12NativeHandleEjjPv+0x2c30>
	adrp	x16, 0x19000 <_ZN4CamX7Gralloc18SetGrallocMetaDataEPKNS_12NativeHandleEjjPv+0x2c50>
	cbnz	w16, 0xe118 <_ZN4CamX7Gralloc18SetGrallocMetaDataEPKNS_12NativeHandleEjjPv+0x2c80>
	adrp	x20, 0x5000 <_ZN4CamX7Gralloc18SetGrallocMetaDataEPKNS_12NativeHandleEjjPv+0x2c0c>
	adrp	x1, 0x4000 <_ZN4CamX7Gralloc18SetGrallocMetaDataEPKNS_12NativeHandleEjjPv+0x2c28>
	adrp	x3, 0x4000 <_ZN4CamX7Gralloc18SetGrallocMetaDataEPKNS_12NativeHandleEjjPv+0x2c2c>
	adrp	x4, 0x4000 <_ZN4CamX7Gralloc18SetGrallocMetaDataEPKNS_12NativeHandleEjjPv+0x2c30>
	adrp	x6, 0x5000 <_ZN4CamX7Gralloc18SetGrallocMetaDataEPKNS_12NativeHandleEjjPv+0x2c38>
	bl	0x14440 <_ZdaPv+0x228>
	cbz	w2, 0xe128 <_ZN4CamX7Gralloc18SetGrallocMetaDataEPKNS_12NativeHandleEjjPv+0x2c90>
	b	0xe178 <_ZN4CamX7Gralloc18SetGrallocMetaDataEPKNS_12NativeHandleEjjPv+0x2ce0>
	adrp	x27, 0x5000 <_ZN4CamX7Gralloc18SetGrallocMetaDataEPKNS_12NativeHandleEjjPv+0x2c6c>
	adrp	x1, 0x6000 <_ZN4CamX7Gralloc18SetGrallocMetaDataEPKNS_12NativeHandleEjjPv+0x2c94>
	adrp	x3, 0x5000 <_ZN4CamX7Gralloc18SetGrallocMetaDataEPKNS_12NativeHandleEjjPv+0x2c94>
	adrp	x4, 0x4000 <_ZN4CamX7Gralloc18SetGrallocMetaDataEPKNS_12NativeHandleEjjPv+0x2c94>
	adrp	x6, 0x5000 <_ZN4CamX7Gralloc18SetGrallocMetaDataEPKNS_12NativeHandleEjjPv+0x2c9c>
	bl	0x14440 <_ZdaPv+0x228>
	bl	0x162f0 <_ZN7android8hardware7details13return_statusD2Ev@plt>
	b.ne	0xe270 <_ZN4CamX7Gralloc18SetGrallocMetaDataEPKNS_12NativeHandleEjjPv+0x2dd8>
	cbz	w8, 0xe120 <_ZN4CamX7Gralloc18SetGrallocMetaDataEPKNS_12NativeHandleEjjPv+0x2c88>
	adrp	x21, 0x18000 <_ZN4CamX7Gralloc18SetGrallocMetaDataEPKNS_12NativeHandleEjjPv+0x2d50>
	adrp	x20, 0x5000 <_ZN4CamX7Gralloc18SetGrallocMetaDataEPKNS_12NativeHandleEjjPv+0x2d08>
	adrp	x23, 0x4000 <_ZN4CamX7Gralloc18SetGrallocMetaDataEPKNS_12NativeHandleEjjPv+0x2d08>
	adrp	x26, 0x4000 <_ZN4CamX7Gralloc18SetGrallocMetaDataEPKNS_12NativeHandleEjjPv+0x2d0c>
	adrp	x27, 0x5000 <_ZN4CamX7Gralloc18SetGrallocMetaDataEPKNS_12NativeHandleEjjPv+0x2d14>
	adrp	x22, 0x19000 <_ZN4CamX7Gralloc18SetGrallocMetaDataEPKNS_12NativeHandleEjjPv+0x2d74>
	b	0xe20c <_ZN4CamX7Gralloc18SetGrallocMetaDataEPKNS_12NativeHandleEjjPv+0x2d74>
	b.hs	0xe120 <_ZN4CamX7Gralloc18SetGrallocMetaDataEPKNS_12NativeHandleEjjPv+0x2c88>
	tbnz	w17, #31, 0xe21c <_ZN4CamX7Gralloc18SetGrallocMetaDataEPKNS_12NativeHandleEjjPv+0x2d84>
	cbnz	w0, 0xe200 <_ZN4CamX7Gralloc18SetGrallocMetaDataEPKNS_12NativeHandleEjjPv+0x2d68>
	adrp	x1, 0x5000 <_ZN4CamX7Gralloc18SetGrallocMetaDataEPKNS_12NativeHandleEjjPv+0x2d88>
	bl	0x14440 <_ZdaPv+0x228>
	b	0xe1fc <_ZN4CamX7Gralloc18SetGrallocMetaDataEPKNS_12NativeHandleEjjPv+0x2d64>
	b	0xe280 <_ZN4CamX7Gralloc18SetGrallocMetaDataEPKNS_12NativeHandleEjjPv+0x2de8>
	b	0xe280 <_ZN4CamX7Gralloc18SetGrallocMetaDataEPKNS_12NativeHandleEjjPv+0x2de8>
	b	0xe280 <_ZN4CamX7Gralloc18SetGrallocMetaDataEPKNS_12NativeHandleEjjPv+0x2de8>
	bl	0x162f0 <_ZN7android8hardware7details13return_statusD2Ev@plt>
	adrp	x8, 0x17000 <_ZN4CamX7Gralloc18SetGrallocMetaDataEPKNS_12NativeHandleEjjPv+0x2e30>
	cbz	x20, 0xe2e8 <_ZN4CamX7Gralloc18SetGrallocMetaDataEPKNS_12NativeHandleEjjPv+0x2e50>
	bl	0x16380 <_ZNK7android7RefBase9decStrongEPKv@plt>
	b.eq	0xe2e4 <_ZN4CamX7Gralloc18SetGrallocMetaDataEPKNS_12NativeHandleEjjPv+0x2e4c>
	bl	0x16390 <_ZN7android14sp_report_raceEv@plt>
	cbz	x20, 0xe304 <_ZN4CamX7Gralloc18SetGrallocMetaDataEPKNS_12NativeHandleEjjPv+0x2e6c>
	bl	0x16380 <_ZNK7android7RefBase9decStrongEPKv@plt>
	b.eq	0xe314 <_ZN4CamX7Gralloc18SetGrallocMetaDataEPKNS_12NativeHandleEjjPv+0x2e7c>
	bl	0x16390 <_ZN7android14sp_report_raceEv@plt>
	bl	0xe338 <_ZN4CamX7Gralloc18SetGrallocMetaDataEPKNS_12NativeHandleEjjPv+0x2ea0>
	bl	0x9448 <_ZN4CamX22DisplayConfigInterface15SetCameraStatusEj+0x430>
	cbz	x8, 0xe35c <_ZN4CamX7Gralloc18SetGrallocMetaDataEPKNS_12NativeHandleEjjPv+0x2ec4>
	bl	0x16380 <_ZNK7android7RefBase9decStrongEPKv@plt>
	bl	0x9448 <_ZN4CamX22DisplayConfigInterface15SetCameraStatusEj+0x430>
	adrp	x8, 0x17000 <_ZN4CamX7Gralloc18SetGrallocMetaDataEPKNS_12NativeHandleEjjPv+0x2f04>
	cbz	x21, 0xe3c0 <_ZN4CamX7Gralloc18SetGrallocMetaDataEPKNS_12NativeHandleEjjPv+0x2f28>
	bl	0x16380 <_ZNK7android7RefBase9decStrongEPKv@plt>
	b.eq	0xe3bc <_ZN4CamX7Gralloc18SetGrallocMetaDataEPKNS_12NativeHandleEjjPv+0x2f24>
	bl	0x16390 <_ZN7android14sp_report_raceEv@plt>
	cbz	x21, 0xe3dc <_ZN4CamX7Gralloc18SetGrallocMetaDataEPKNS_12NativeHandleEjjPv+0x2f44>
	bl	0x16380 <_ZNK7android7RefBase9decStrongEPKv@plt>
	b.eq	0xe3ec <_ZN4CamX7Gralloc18SetGrallocMetaDataEPKNS_12NativeHandleEjjPv+0x2f54>
	bl	0x16390 <_ZN7android14sp_report_raceEv@plt>
	bl	0xe338 <_ZN4CamX7Gralloc18SetGrallocMetaDataEPKNS_12NativeHandleEjjPv+0x2ea0>
	bl	0x9448 <_ZN4CamX22DisplayConfigInterface15SetCameraStatusEj+0x430>
	adrp	x20, 0x18000 <_ZN4CamX7Gralloc18SetGrallocMetaDataEPKNS_12NativeHandleEjjPv+0x2fd4>
	adrp	x24, 0x19000 <_ZN4CamX7Gralloc18SetGrallocMetaDataEPKNS_12NativeHandleEjjPv+0x2fe4>
	b.hs	0xe4a0 <_ZN4CamX7Gralloc18SetGrallocMetaDataEPKNS_12NativeHandleEjjPv+0x3008>
	b.ne	0xe4d0 <_ZN4CamX7Gralloc18SetGrallocMetaDataEPKNS_12NativeHandleEjjPv+0x3038>
	b	0xeccc <_ZN4CamX7Gralloc18SetGrallocMetaDataEPKNS_12NativeHandleEjjPv+0x3834>
	b.eq	0xe4fc <_ZN4CamX7Gralloc18SetGrallocMetaDataEPKNS_12NativeHandleEjjPv+0x3064>
	b.ne	0xe558 <_ZN4CamX7Gralloc18SetGrallocMetaDataEPKNS_12NativeHandleEjjPv+0x30c0>
	b.ne	0xe6d4 <_ZN4CamX7Gralloc18SetGrallocMetaDataEPKNS_12NativeHandleEjjPv+0x323c>
	b	0xec10 <_ZN4CamX7Gralloc18SetGrallocMetaDataEPKNS_12NativeHandleEjjPv+0x3778>
	b.hs	0xe5c4 <_ZN4CamX7Gralloc18SetGrallocMetaDataEPKNS_12NativeHandleEjjPv+0x312c>
	adrp	x16, 0x6000 <_ZN4CamX7Gralloc18SetGrallocMetaDataEPKNS_12NativeHandleEjjPv+0x3020>
	adrp	x17, 0x6000 <_ZN4CamX7Gralloc18SetGrallocMetaDataEPKNS_12NativeHandleEjjPv+0x3024>
	b	0xec38 <_ZN4CamX7Gralloc18SetGrallocMetaDataEPKNS_12NativeHandleEjjPv+0x37a0>
	b.ne	0xe62c <_ZN4CamX7Gralloc18SetGrallocMetaDataEPKNS_12NativeHandleEjjPv+0x3194>
	tbz	w1, #31, 0xea60 <_ZN4CamX7Gralloc18SetGrallocMetaDataEPKNS_12NativeHandleEjjPv+0x35c8>
	b	0xea68 <_ZN4CamX7Gralloc18SetGrallocMetaDataEPKNS_12NativeHandleEjjPv+0x35d0>
	b.gt	0xe730 <_ZN4CamX7Gralloc18SetGrallocMetaDataEPKNS_12NativeHandleEjjPv+0x3298>
	b.hi	0xe768 <_ZN4CamX7Gralloc18SetGrallocMetaDataEPKNS_12NativeHandleEjjPv+0x32d0>
	b.ne	0xe75c <_ZN4CamX7Gralloc18SetGrallocMetaDataEPKNS_12NativeHandleEjjPv+0x32c4>
	b.ne	0xe7a8 <_ZN4CamX7Gralloc18SetGrallocMetaDataEPKNS_12NativeHandleEjjPv+0x3310>
	b.ne	0xe768 <_ZN4CamX7Gralloc18SetGrallocMetaDataEPKNS_12NativeHandleEjjPv+0x32d0>
	b	0xeccc <_ZN4CamX7Gralloc18SetGrallocMetaDataEPKNS_12NativeHandleEjjPv+0x3834>
	adrp	x23, 0x5000 <_ZN4CamX7Gralloc18SetGrallocMetaDataEPKNS_12NativeHandleEjjPv+0x3108>
	adrp	x1, 0x6000 <_ZN4CamX7Gralloc18SetGrallocMetaDataEPKNS_12NativeHandleEjjPv+0x312c>
	adrp	x3, 0x5000 <_ZN4CamX7Gralloc18SetGrallocMetaDataEPKNS_12NativeHandleEjjPv+0x312c>
	adrp	x4, 0x4000 <_ZN4CamX7Gralloc18SetGrallocMetaDataEPKNS_12NativeHandleEjjPv+0x312c>
	adrp	x6, 0x5000 <_ZN4CamX7Gralloc18SetGrallocMetaDataEPKNS_12NativeHandleEjjPv+0x3134>
	bl	0x14440 <_ZdaPv+0x228>
	b.eq	0xece4 <_ZN4CamX7Gralloc18SetGrallocMetaDataEPKNS_12NativeHandleEjjPv+0x384c>
	b	0xed00 <_ZN4CamX7Gralloc18SetGrallocMetaDataEPKNS_12NativeHandleEjjPv+0x3868>
	tbnz	w8, #16, 0xe798 <_ZN4CamX7Gralloc18SetGrallocMetaDataEPKNS_12NativeHandleEjjPv+0x3300>
	tbnz	w8, #27, 0xe7b4 <_ZN4CamX7Gralloc18SetGrallocMetaDataEPKNS_12NativeHandleEjjPv+0x331c>
	tbz	w8, #14, 0xea4c <_ZN4CamX7Gralloc18SetGrallocMetaDataEPKNS_12NativeHandleEjjPv+0x35b4>
	adrp	x0, 0x5000 <_ZN4CamX7Gralloc18SetGrallocMetaDataEPKNS_12NativeHandleEjjPv+0x3180>
	b.le	0xea40 <_ZN4CamX7Gralloc18SetGrallocMetaDataEPKNS_12NativeHandleEjjPv+0x35a8>
	b.eq	0xe9ec <_ZN4CamX7Gralloc18SetGrallocMetaDataEPKNS_12NativeHandleEjjPv+0x3554>
	b.hi	0xea4c <_ZN4CamX7Gralloc18SetGrallocMetaDataEPKNS_12NativeHandleEjjPv+0x35b4>
	b.eq	0xea4c <_ZN4CamX7Gralloc18SetGrallocMetaDataEPKNS_12NativeHandleEjjPv+0x35b4>
	b	0xea54 <_ZN4CamX7Gralloc18SetGrallocMetaDataEPKNS_12NativeHandleEjjPv+0x35bc>
	b.eq	0xec10 <_ZN4CamX7Gralloc18SetGrallocMetaDataEPKNS_12NativeHandleEjjPv+0x3778>
	b.eq	0xec10 <_ZN4CamX7Gralloc18SetGrallocMetaDataEPKNS_12NativeHandleEjjPv+0x3778>
	tbnz	w9, #16, 0xe7c0 <_ZN4CamX7Gralloc18SetGrallocMetaDataEPKNS_12NativeHandleEjjPv+0x3328>
	tbnz	w9, #18, 0xe71c <_ZN4CamX7Gralloc18SetGrallocMetaDataEPKNS_12NativeHandleEjjPv+0x3284>
	cbz	w12, 0xe7c0 <_ZN4CamX7Gralloc18SetGrallocMetaDataEPKNS_12NativeHandleEjjPv+0x3328>
	b.ne	0xeae8 <_ZN4CamX7Gralloc18SetGrallocMetaDataEPKNS_12NativeHandleEjjPv+0x3650>
	cbz	w13, 0xe9d8 <_ZN4CamX7Gralloc18SetGrallocMetaDataEPKNS_12NativeHandleEjjPv+0x3540>
	b	0xec10 <_ZN4CamX7Gralloc18SetGrallocMetaDataEPKNS_12NativeHandleEjjPv+0x3778>
	b.hi	0xe7e0 <_ZN4CamX7Gralloc18SetGrallocMetaDataEPKNS_12NativeHandleEjjPv+0x3348>
	adrp	x8, 0x6000 <_ZN4CamX7Gralloc18SetGrallocMetaDataEPKNS_12NativeHandleEjjPv+0x328c>
	b	0xeccc <_ZN4CamX7Gralloc18SetGrallocMetaDataEPKNS_12NativeHandleEjjPv+0x3834>
	b.hi	0xec44 <_ZN4CamX7Gralloc18SetGrallocMetaDataEPKNS_12NativeHandleEjjPv+0x37ac>
	adrp	x14, 0x6000 <_ZN4CamX7Gralloc18SetGrallocMetaDataEPKNS_12NativeHandleEjjPv+0x32bc>
	b	0xeccc <_ZN4CamX7Gralloc18SetGrallocMetaDataEPKNS_12NativeHandleEjjPv+0x3834>
	b	0xea54 <_ZN4CamX7Gralloc18SetGrallocMetaDataEPKNS_12NativeHandleEjjPv+0x35bc>
	b	0xeccc <_ZN4CamX7Gralloc18SetGrallocMetaDataEPKNS_12NativeHandleEjjPv+0x3834>
	b	0xea54 <_ZN4CamX7Gralloc18SetGrallocMetaDataEPKNS_12NativeHandleEjjPv+0x35bc>
	b.ne	0xe80c <_ZN4CamX7Gralloc18SetGrallocMetaDataEPKNS_12NativeHandleEjjPv+0x3374>
	b	0xec10 <_ZN4CamX7Gralloc18SetGrallocMetaDataEPKNS_12NativeHandleEjjPv+0x3778>
	b.eq	0xe924 <_ZN4CamX7Gralloc18SetGrallocMetaDataEPKNS_12NativeHandleEjjPv+0x348c>
	b.ne	0xec44 <_ZN4CamX7Gralloc18SetGrallocMetaDataEPKNS_12NativeHandleEjjPv+0x37ac>
	b	0xeccc <_ZN4CamX7Gralloc18SetGrallocMetaDataEPKNS_12NativeHandleEjjPv+0x3834>
	tbnz	w9, #28, 0xe930 <_ZN4CamX7Gralloc18SetGrallocMetaDataEPKNS_12NativeHandleEjjPv+0x3498>
	tbz	w9, #30, 0xe8a4 <_ZN4CamX7Gralloc18SetGrallocMetaDataEPKNS_12NativeHandleEjjPv+0x340c>
	adrp	x0, 0x5000 <_ZN4CamX7Gralloc18SetGrallocMetaDataEPKNS_12NativeHandleEjjPv+0x335c>
	b.le	0xeb78 <_ZN4CamX7Gralloc18SetGrallocMetaDataEPKNS_12NativeHandleEjjPv+0x36e0>
	b.eq	0xeba8 <_ZN4CamX7Gralloc18SetGrallocMetaDataEPKNS_12NativeHandleEjjPv+0x3710>
	b.hi	0xec08 <_ZN4CamX7Gralloc18SetGrallocMetaDataEPKNS_12NativeHandleEjjPv+0x3770>
	adrp	x24, 0x19000 <_ZN4CamX7Gralloc18SetGrallocMetaDataEPKNS_12NativeHandleEjjPv+0x3414>
	b.eq	0xec10 <_ZN4CamX7Gralloc18SetGrallocMetaDataEPKNS_12NativeHandleEjjPv+0x3778>
	b.ls	0xeb4c <_ZN4CamX7Gralloc18SetGrallocMetaDataEPKNS_12NativeHandleEjjPv+0x36b4>
	b	0xec10 <_ZN4CamX7Gralloc18SetGrallocMetaDataEPKNS_12NativeHandleEjjPv+0x3778>
	b	0xeccc <_ZN4CamX7Gralloc18SetGrallocMetaDataEPKNS_12NativeHandleEjjPv+0x3834>
	b	0xeccc <_ZN4CamX7Gralloc18SetGrallocMetaDataEPKNS_12NativeHandleEjjPv+0x3834>
	b	0xeccc <_ZN4CamX7Gralloc18SetGrallocMetaDataEPKNS_12NativeHandleEjjPv+0x3834>
	b	0xeccc <_ZN4CamX7Gralloc18SetGrallocMetaDataEPKNS_12NativeHandleEjjPv+0x3834>
	b.ne	0xe9c0 <_ZN4CamX7Gralloc18SetGrallocMetaDataEPKNS_12NativeHandleEjjPv+0x3528>
	b	0xeccc <_ZN4CamX7Gralloc18SetGrallocMetaDataEPKNS_12NativeHandleEjjPv+0x3834>
	b	0xeccc <_ZN4CamX7Gralloc18SetGrallocMetaDataEPKNS_12NativeHandleEjjPv+0x3834>
	b	0xeccc <_ZN4CamX7Gralloc18SetGrallocMetaDataEPKNS_12NativeHandleEjjPv+0x3834>
	b	0xeccc <_ZN4CamX7Gralloc18SetGrallocMetaDataEPKNS_12NativeHandleEjjPv+0x3834>
	b	0xeccc <_ZN4CamX7Gralloc18SetGrallocMetaDataEPKNS_12NativeHandleEjjPv+0x3834>
	b.ne	0xeb08 <_ZN4CamX7Gralloc18SetGrallocMetaDataEPKNS_12NativeHandleEjjPv+0x3670>
	b.hs	0xe960 <_ZN4CamX7Gralloc18SetGrallocMetaDataEPKNS_12NativeHandleEjjPv+0x34c8>
	tbnz	w3, #0, 0xeb94 <_ZN4CamX7Gralloc18SetGrallocMetaDataEPKNS_12NativeHandleEjjPv+0x36fc>
	adrp	x23, 0x5000 <_ZN4CamX7Gralloc18SetGrallocMetaDataEPKNS_12NativeHandleEjjPv+0x34a4>
	adrp	x1, 0x6000 <_ZN4CamX7Gralloc18SetGrallocMetaDataEPKNS_12NativeHandleEjjPv+0x34cc>
	adrp	x3, 0x4000 <_ZN4CamX7Gralloc18SetGrallocMetaDataEPKNS_12NativeHandleEjjPv+0x34c8>
	adrp	x4, 0x4000 <_ZN4CamX7Gralloc18SetGrallocMetaDataEPKNS_12NativeHandleEjjPv+0x34cc>
	adrp	x6, 0x4000 <_ZN4CamX7Gralloc18SetGrallocMetaDataEPKNS_12NativeHandleEjjPv+0x34d0>
	bl	0x14440 <_ZdaPv+0x228>
	b	0xec10 <_ZN4CamX7Gralloc18SetGrallocMetaDataEPKNS_12NativeHandleEjjPv+0x3778>
	b	0xeccc <_ZN4CamX7Gralloc18SetGrallocMetaDataEPKNS_12NativeHandleEjjPv+0x3834>
	b.ne	0xeb18 <_ZN4CamX7Gralloc18SetGrallocMetaDataEPKNS_12NativeHandleEjjPv+0x3680>
	b	0xec10 <_ZN4CamX7Gralloc18SetGrallocMetaDataEPKNS_12NativeHandleEjjPv+0x3778>
	adrp	x25, 0x6000 <_ZN4CamX7Gralloc18SetGrallocMetaDataEPKNS_12NativeHandleEjjPv+0x3534>
	adrp	x1, 0x6000 <_ZN4CamX7Gralloc18SetGrallocMetaDataEPKNS_12NativeHandleEjjPv+0x3550>
	adrp	x3, 0x4000 <_ZN4CamX7Gralloc18SetGrallocMetaDataEPKNS_12NativeHandleEjjPv+0x354c>
	adrp	x4, 0x4000 <_ZN4CamX7Gralloc18SetGrallocMetaDataEPKNS_12NativeHandleEjjPv+0x3550>
	adrp	x6, 0x6000 <_ZN4CamX7Gralloc18SetGrallocMetaDataEPKNS_12NativeHandleEjjPv+0x355c>
	bl	0x14440 <_ZdaPv+0x228>
	tbnz	w1, #31, 0xea68 <_ZN4CamX7Gralloc18SetGrallocMetaDataEPKNS_12NativeHandleEjjPv+0x35d0>
	cbnz	w7, 0xec30 <_ZN4CamX7Gralloc18SetGrallocMetaDataEPKNS_12NativeHandleEjjPv+0x3798>
	adrp	x23, 0x5000 <_ZN4CamX7Gralloc18SetGrallocMetaDataEPKNS_12NativeHandleEjjPv+0x35b4>
	adrp	x1, 0x5000 <_ZN4CamX7Gralloc18SetGrallocMetaDataEPKNS_12NativeHandleEjjPv+0x35e8>
	adrp	x3, 0x5000 <_ZN4CamX7Gralloc18SetGrallocMetaDataEPKNS_12NativeHandleEjjPv+0x35ec>
	adrp	x4, 0x4000 <_ZN4CamX7Gralloc18SetGrallocMetaDataEPKNS_12NativeHandleEjjPv+0x35ec>
	adrp	x6, 0x4000 <_ZN4CamX7Gralloc18SetGrallocMetaDataEPKNS_12NativeHandleEjjPv+0x35f0>
	b	0xecb8 <_ZN4CamX7Gralloc18SetGrallocMetaDataEPKNS_12NativeHandleEjjPv+0x3820>
	b.hs	0xeb6c <_ZN4CamX7Gralloc18SetGrallocMetaDataEPKNS_12NativeHandleEjjPv+0x36d4>
	adrp	x15, 0x6000 <_ZN4CamX7Gralloc18SetGrallocMetaDataEPKNS_12NativeHandleEjjPv+0x363c>
	b	0xec10 <_ZN4CamX7Gralloc18SetGrallocMetaDataEPKNS_12NativeHandleEjjPv+0x3778>
	b	0xec10 <_ZN4CamX7Gralloc18SetGrallocMetaDataEPKNS_12NativeHandleEjjPv+0x3778>
	b.ne	0xeb2c <_ZN4CamX7Gralloc18SetGrallocMetaDataEPKNS_12NativeHandleEjjPv+0x3694>
	cbz	w14, 0xe9e0 <_ZN4CamX7Gralloc18SetGrallocMetaDataEPKNS_12NativeHandleEjjPv+0x3548>
	b	0xec10 <_ZN4CamX7Gralloc18SetGrallocMetaDataEPKNS_12NativeHandleEjjPv+0x3778>
	b.ne	0xeb88 <_ZN4CamX7Gralloc18SetGrallocMetaDataEPKNS_12NativeHandleEjjPv+0x36f0>
	b	0xec10 <_ZN4CamX7Gralloc18SetGrallocMetaDataEPKNS_12NativeHandleEjjPv+0x3778>
	b	0xec10 <_ZN4CamX7Gralloc18SetGrallocMetaDataEPKNS_12NativeHandleEjjPv+0x3778>
	b	0xec0c <_ZN4CamX7Gralloc18SetGrallocMetaDataEPKNS_12NativeHandleEjjPv+0x3774>
	b	0xec10 <_ZN4CamX7Gralloc18SetGrallocMetaDataEPKNS_12NativeHandleEjjPv+0x3778>
	adrp	x14, 0x6000 <_ZN4CamX7Gralloc18SetGrallocMetaDataEPKNS_12NativeHandleEjjPv+0x36dc>
	b	0xec10 <_ZN4CamX7Gralloc18SetGrallocMetaDataEPKNS_12NativeHandleEjjPv+0x3778>
	adrp	x24, 0x6000 <_ZN4CamX7Gralloc18SetGrallocMetaDataEPKNS_12NativeHandleEjjPv+0x36f0>
	adrp	x1, 0x6000 <_ZN4CamX7Gralloc18SetGrallocMetaDataEPKNS_12NativeHandleEjjPv+0x370c>
	adrp	x3, 0x4000 <_ZN4CamX7Gralloc18SetGrallocMetaDataEPKNS_12NativeHandleEjjPv+0x3708>
	adrp	x4, 0x4000 <_ZN4CamX7Gralloc18SetGrallocMetaDataEPKNS_12NativeHandleEjjPv+0x370c>
	adrp	x6, 0x6000 <_ZN4CamX7Gralloc18SetGrallocMetaDataEPKNS_12NativeHandleEjjPv+0x3718>
	bl	0x14440 <_ZdaPv+0x228>
	adrp	x24, 0x19000 <_ZN4CamX7Gralloc18SetGrallocMetaDataEPKNS_12NativeHandleEjjPv+0x379c>
	tbnz	w4, #31, 0xec54 <_ZN4CamX7Gralloc18SetGrallocMetaDataEPKNS_12NativeHandleEjjPv+0x37bc>
	cbz	w5, 0xec54 <_ZN4CamX7Gralloc18SetGrallocMetaDataEPKNS_12NativeHandleEjjPv+0x37bc>
	cbz	w19, 0xeccc <_ZN4CamX7Gralloc18SetGrallocMetaDataEPKNS_12NativeHandleEjjPv+0x3834>
	b.eq	0xece4 <_ZN4CamX7Gralloc18SetGrallocMetaDataEPKNS_12NativeHandleEjjPv+0x384c>
	b	0xed00 <_ZN4CamX7Gralloc18SetGrallocMetaDataEPKNS_12NativeHandleEjjPv+0x3868>
	adrp	x26, 0x5000 <_ZN4CamX7Gralloc18SetGrallocMetaDataEPKNS_12NativeHandleEjjPv+0x379c>
	adrp	x1, 0x5000 <_ZN4CamX7Gralloc18SetGrallocMetaDataEPKNS_12NativeHandleEjjPv+0x37c0>
	adrp	x3, 0x6000 <_ZN4CamX7Gralloc18SetGrallocMetaDataEPKNS_12NativeHandleEjjPv+0x37c8>
	adrp	x4, 0x4000 <_ZN4CamX7Gralloc18SetGrallocMetaDataEPKNS_12NativeHandleEjjPv+0x37c4>
	adrp	x6, 0x4000 <_ZN4CamX7Gralloc18SetGrallocMetaDataEPKNS_12NativeHandleEjjPv+0x37c8>
	bl	0x14440 <_ZdaPv+0x228>
	adrp	x20, 0x18000 <_ZN4CamX7Gralloc18SetGrallocMetaDataEPKNS_12NativeHandleEjjPv+0x384c>
	cbnz	w19, 0xec38 <_ZN4CamX7Gralloc18SetGrallocMetaDataEPKNS_12NativeHandleEjjPv+0x37a0>
	b.ne	0xed00 <_ZN4CamX7Gralloc18SetGrallocMetaDataEPKNS_12NativeHandleEjjPv+0x3868>
	b.eq	0xecfc <_ZN4CamX7Gralloc18SetGrallocMetaDataEPKNS_12NativeHandleEjjPv+0x3864>
	b.ne	0xed00 <_ZN4CamX7Gralloc18SetGrallocMetaDataEPKNS_12NativeHandleEjjPv+0x3868>
	tbnz	w0, #31, 0xed10 <_ZN4CamX7Gralloc18SetGrallocMetaDataEPKNS_12NativeHandleEjjPv+0x3878>
	cbnz	w3, 0xed70 <_ZN4CamX7Gralloc18SetGrallocMetaDataEPKNS_12NativeHandleEjjPv+0x38d8>
	adrp	x25, 0x5000 <_ZN4CamX7Gralloc18SetGrallocMetaDataEPKNS_12NativeHandleEjjPv+0x3854>
	adrp	x1, 0x5000 <_ZN4CamX7Gralloc18SetGrallocMetaDataEPKNS_12NativeHandleEjjPv+0x3878>
	adrp	x3, 0x5000 <_ZN4CamX7Gralloc18SetGrallocMetaDataEPKNS_12NativeHandleEjjPv+0x387c>
	adrp	x6, 0x4000 <_ZN4CamX7Gralloc18SetGrallocMetaDataEPKNS_12NativeHandleEjjPv+0x387c>
	adrp	x4, 0x4000 <_ZN4CamX7Gralloc18SetGrallocMetaDataEPKNS_12NativeHandleEjjPv+0x388c>
	bl	0x14440 <_ZdaPv+0x228>
	b.ne	0xeda4 <_ZN4CamX7Gralloc18SetGrallocMetaDataEPKNS_12NativeHandleEjjPv+0x390c>
	cbz	x2, 0xede4 <_ZN4CamX7Gralloc18SetGrallocMetaDataEPKNS_12NativeHandleEjjPv+0x394c>
	cbz	w6, 0xee1c <_ZN4CamX7Gralloc18SetGrallocMetaDataEPKNS_12NativeHandleEjjPv+0x3984>
	b.ne	0xfd84 <_ZN4CamX7Gralloc18SetGrallocMetaDataEPKNS_12NativeHandleEjjPv+0x48ec>
	b.hi	0xf1f4 <_ZN4CamX7Gralloc18SetGrallocMetaDataEPKNS_12NativeHandleEjjPv+0x3d5c>
	b.eq	0xf1f4 <_ZN4CamX7Gralloc18SetGrallocMetaDataEPKNS_12NativeHandleEjjPv+0x3d5c>
	b.hi	0xee74 <_ZN4CamX7Gralloc18SetGrallocMetaDataEPKNS_12NativeHandleEjjPv+0x39dc>
	b.eq	0xef7c <_ZN4CamX7Gralloc18SetGrallocMetaDataEPKNS_12NativeHandleEjjPv+0x3ae4>
	cbz	w27, 0xee84 <_ZN4CamX7Gralloc18SetGrallocMetaDataEPKNS_12NativeHandleEjjPv+0x39ec>
	b.eq	0xeeac <_ZN4CamX7Gralloc18SetGrallocMetaDataEPKNS_12NativeHandleEjjPv+0x3a14>
	b	0xf04c <_ZN4CamX7Gralloc18SetGrallocMetaDataEPKNS_12NativeHandleEjjPv+0x3bb4>
	b.ne	0xf050 <_ZN4CamX7Gralloc18SetGrallocMetaDataEPKNS_12NativeHandleEjjPv+0x3bb8>
	tbz	w7, #0, 0xf050 <_ZN4CamX7Gralloc18SetGrallocMetaDataEPKNS_12NativeHandleEjjPv+0x3bb8>
	cbz	x17, 0xeff8 <_ZN4CamX7Gralloc18SetGrallocMetaDataEPKNS_12NativeHandleEjjPv+0x3b60>
	cbnz	w16, 0xf048 <_ZN4CamX7Gralloc18SetGrallocMetaDataEPKNS_12NativeHandleEjjPv+0x3bb0>
	bl	0xe418 <_ZN4CamX7Gralloc18SetGrallocMetaDataEPKNS_12NativeHandleEjjPv+0x2f80>
	cbnz	w19, 0xeeec <_ZN4CamX7Gralloc18SetGrallocMetaDataEPKNS_12NativeHandleEjjPv+0x3a54>
	cbz	w22, 0xf208 <_ZN4CamX7Gralloc18SetGrallocMetaDataEPKNS_12NativeHandleEjjPv+0x3d70>
	adrp	x28, 0x18000 <_ZN4CamX7Gralloc18SetGrallocMetaDataEPKNS_12NativeHandleEjjPv+0x3a80>
	tbnz	w0, #31, 0xef0c <_ZN4CamX7Gralloc18SetGrallocMetaDataEPKNS_12NativeHandleEjjPv+0x3a74>
	adrp	x20, 0x19000 <_ZN4CamX7Gralloc18SetGrallocMetaDataEPKNS_12NativeHandleEjjPv+0x3a94>
	cbnz	w7, 0xf5d4 <_ZN4CamX7Gralloc18SetGrallocMetaDataEPKNS_12NativeHandleEjjPv+0x413c>
	adrp	x28, 0x5000 <_ZN4CamX7Gralloc18SetGrallocMetaDataEPKNS_12NativeHandleEjjPv+0x3a50>
	adrp	x1, 0x4000 <_ZN4CamX7Gralloc18SetGrallocMetaDataEPKNS_12NativeHandleEjjPv+0x3a70>
	adrp	x3, 0x5000 <_ZN4CamX7Gralloc18SetGrallocMetaDataEPKNS_12NativeHandleEjjPv+0x3a78>
	adrp	x4, 0x4000 <_ZN4CamX7Gralloc18SetGrallocMetaDataEPKNS_12NativeHandleEjjPv+0x3a7c>
	adrp	x6, 0x5000 <_ZN4CamX7Gralloc18SetGrallocMetaDataEPKNS_12NativeHandleEjjPv+0x3a84>
	bl	0x14440 <_ZdaPv+0x228>
	b	0xf5d4 <_ZN4CamX7Gralloc18SetGrallocMetaDataEPKNS_12NativeHandleEjjPv+0x413c>
	b.ne	0xee74 <_ZN4CamX7Gralloc18SetGrallocMetaDataEPKNS_12NativeHandleEjjPv+0x39dc>
	adrp	x14, 0x18000 <_ZN4CamX7Gralloc18SetGrallocMetaDataEPKNS_12NativeHandleEjjPv+0x3b14>
	tbnz	w3, #31, 0xefa0 <_ZN4CamX7Gralloc18SetGrallocMetaDataEPKNS_12NativeHandleEjjPv+0x3b08>
	adrp	x15, 0x19000 <_ZN4CamX7Gralloc18SetGrallocMetaDataEPKNS_12NativeHandleEjjPv+0x3b28>
	cbnz	w1, 0xeff0 <_ZN4CamX7Gralloc18SetGrallocMetaDataEPKNS_12NativeHandleEjjPv+0x3b58>
	adrp	x23, 0x5000 <_ZN4CamX7Gralloc18SetGrallocMetaDataEPKNS_12NativeHandleEjjPv+0x3ae4>
	adrp	x1, 0x4000 <_ZN4CamX7Gralloc18SetGrallocMetaDataEPKNS_12NativeHandleEjjPv+0x3b00>
	adrp	x3, 0x5000 <_ZN4CamX7Gralloc18SetGrallocMetaDataEPKNS_12NativeHandleEjjPv+0x3b08>
	adrp	x4, 0x4000 <_ZN4CamX7Gralloc18SetGrallocMetaDataEPKNS_12NativeHandleEjjPv+0x3b08>
	adrp	x6, 0x4000 <_ZN4CamX7Gralloc18SetGrallocMetaDataEPKNS_12NativeHandleEjjPv+0x3b0c>
	bl	0x14440 <_ZdaPv+0x228>
	b	0xee70 <_ZN4CamX7Gralloc18SetGrallocMetaDataEPKNS_12NativeHandleEjjPv+0x39d8>
	cbnz	w16, 0xf048 <_ZN4CamX7Gralloc18SetGrallocMetaDataEPKNS_12NativeHandleEjjPv+0x3bb0>
	adrp	x22, 0x5000 <_ZN4CamX7Gralloc18SetGrallocMetaDataEPKNS_12NativeHandleEjjPv+0x3b40>
	adrp	x1, 0x6000 <_ZN4CamX7Gralloc18SetGrallocMetaDataEPKNS_12NativeHandleEjjPv+0x3b5c>
	adrp	x3, 0x4000 <_ZN4CamX7Gralloc18SetGrallocMetaDataEPKNS_12NativeHandleEjjPv+0x3b58>
	adrp	x4, 0x4000 <_ZN4CamX7Gralloc18SetGrallocMetaDataEPKNS_12NativeHandleEjjPv+0x3b5c>
	adrp	x6, 0x5000 <_ZN4CamX7Gralloc18SetGrallocMetaDataEPKNS_12NativeHandleEjjPv+0x3b64>
	bl	0x14440 <_ZdaPv+0x228>
	cbz	w23, 0xf0f8 <_ZN4CamX7Gralloc18SetGrallocMetaDataEPKNS_12NativeHandleEjjPv+0x3c60>
	cbnz	w8, 0xf0f8 <_ZN4CamX7Gralloc18SetGrallocMetaDataEPKNS_12NativeHandleEjjPv+0x3c60>
	bl	0x16640 <_ZN4CamX16ImageFormatUtils15SetupUBWCPlanesEPNS_11ImageFormatE@plt>
	adrp	x14, 0x18000 <_ZN4CamX7Gralloc18SetGrallocMetaDataEPKNS_12NativeHandleEjjPv+0x3bec>
	tbnz	w5, #31, 0xf07c <_ZN4CamX7Gralloc18SetGrallocMetaDataEPKNS_12NativeHandleEjjPv+0x3be4>
	adrp	x15, 0x19000 <_ZN4CamX7Gralloc18SetGrallocMetaDataEPKNS_12NativeHandleEjjPv+0x3c00>
	cbnz	w15, 0xede8 <_ZN4CamX7Gralloc18SetGrallocMetaDataEPKNS_12NativeHandleEjjPv+0x3950>
	adrp	x27, 0x5000 <_ZN4CamX7Gralloc18SetGrallocMetaDataEPKNS_12NativeHandleEjjPv+0x3bbc>
	adrp	x4, 0x4000 <_ZN4CamX7Gralloc18SetGrallocMetaDataEPKNS_12NativeHandleEjjPv+0x3bdc>
	adrp	x6, 0x4000 <_ZN4CamX7Gralloc18SetGrallocMetaDataEPKNS_12NativeHandleEjjPv+0x3be4>
	adrp	x1, 0x5000 <_ZN4CamX7Gralloc18SetGrallocMetaDataEPKNS_12NativeHandleEjjPv+0x3c0c>
	adrp	x3, 0x5000 <_ZN4CamX7Gralloc18SetGrallocMetaDataEPKNS_12NativeHandleEjjPv+0x3c10>
	bl	0x14440 <_ZdaPv+0x228>
	b	0xede8 <_ZN4CamX7Gralloc18SetGrallocMetaDataEPKNS_12NativeHandleEjjPv+0x3950>
	cbz	w27, 0xede8 <_ZN4CamX7Gralloc18SetGrallocMetaDataEPKNS_12NativeHandleEjjPv+0x3950>
	cbnz	w8, 0xede8 <_ZN4CamX7Gralloc18SetGrallocMetaDataEPKNS_12NativeHandleEjjPv+0x3950>
	b.ne	0xf14c <_ZN4CamX7Gralloc18SetGrallocMetaDataEPKNS_12NativeHandleEjjPv+0x3cb4>
	b	0xf870 <_ZN4CamX7Gralloc18SetGrallocMetaDataEPKNS_12NativeHandleEjjPv+0x43d8>
	tbnz	w12, #16, 0xf86c <_ZN4CamX7Gralloc18SetGrallocMetaDataEPKNS_12NativeHandleEjjPv+0x43d4>
	tbnz	w12, #27, 0xf28c <_ZN4CamX7Gralloc18SetGrallocMetaDataEPKNS_12NativeHandleEjjPv+0x3df4>
	tbz	w12, #14, 0xf84c <_ZN4CamX7Gralloc18SetGrallocMetaDataEPKNS_12NativeHandleEjjPv+0x43b4>
	b.ne	0xf84c <_ZN4CamX7Gralloc18SetGrallocMetaDataEPKNS_12NativeHandleEjjPv+0x43b4>
	adrp	x0, 0x5000 <_ZN4CamX7Gralloc18SetGrallocMetaDataEPKNS_12NativeHandleEjjPv+0x3cb0>
	b.le	0xf84c <_ZN4CamX7Gralloc18SetGrallocMetaDataEPKNS_12NativeHandleEjjPv+0x43b4>
	b.eq	0xf7f8 <_ZN4CamX7Gralloc18SetGrallocMetaDataEPKNS_12NativeHandleEjjPv+0x4360>
	b.hi	0xf84c <_ZN4CamX7Gralloc18SetGrallocMetaDataEPKNS_12NativeHandleEjjPv+0x43b4>
	b.eq	0xf84c <_ZN4CamX7Gralloc18SetGrallocMetaDataEPKNS_12NativeHandleEjjPv+0x43b4>
	b	0xf870 <_ZN4CamX7Gralloc18SetGrallocMetaDataEPKNS_12NativeHandleEjjPv+0x43d8>
	b.ls	0xee58 <_ZN4CamX7Gralloc18SetGrallocMetaDataEPKNS_12NativeHandleEjjPv+0x39c0>
	b	0xee74 <_ZN4CamX7Gralloc18SetGrallocMetaDataEPKNS_12NativeHandleEjjPv+0x39dc>
	adrp	x16, 0x17000 <_ZN4CamX7Gralloc18SetGrallocMetaDataEPKNS_12NativeHandleEjjPv+0x3d94>
	b.eq	0xf298 <_ZN4CamX7Gralloc18SetGrallocMetaDataEPKNS_12NativeHandleEjjPv+0x3e00>
	cbz	x0, 0xf2a4 <_ZN4CamX7Gralloc18SetGrallocMetaDataEPKNS_12NativeHandleEjjPv+0x3e0c>
	b	0xf2a4 <_ZN4CamX7Gralloc18SetGrallocMetaDataEPKNS_12NativeHandleEjjPv+0x3e0c>
	b	0xf870 <_ZN4CamX7Gralloc18SetGrallocMetaDataEPKNS_12NativeHandleEjjPv+0x43d8>
	cbz	w20, 0xf3a8 <_ZN4CamX7Gralloc18SetGrallocMetaDataEPKNS_12NativeHandleEjjPv+0x3f10>
	adrp	x20, 0x5000 <_ZN4CamX7Gralloc18SetGrallocMetaDataEPKNS_12NativeHandleEjjPv+0x3df4>
	bl	0x16410 <_ZNK7android8hardware6Status11descriptionEv@plt>
	adrp	x1, 0x6000 <_ZN4CamX7Gralloc18SetGrallocMetaDataEPKNS_12NativeHandleEjjPv+0x3e40>
	adrp	x3, 0x5000 <_ZN4CamX7Gralloc18SetGrallocMetaDataEPKNS_12NativeHandleEjjPv+0x3e40>
	adrp	x4, 0x4000 <_ZN4CamX7Gralloc18SetGrallocMetaDataEPKNS_12NativeHandleEjjPv+0x3e40>
	adrp	x6, 0x5000 <_ZN4CamX7Gralloc18SetGrallocMetaDataEPKNS_12NativeHandleEjjPv+0x3e48>
	bl	0x14440 <_ZdaPv+0x228>
	tbz	w19, #0, 0xf33c <_ZN4CamX7Gralloc18SetGrallocMetaDataEPKNS_12NativeHandleEjjPv+0x3ea4>
	cbz	x0, 0xf33c <_ZN4CamX7Gralloc18SetGrallocMetaDataEPKNS_12NativeHandleEjjPv+0x3ea4>
	cbz	x19, 0xf36c <_ZN4CamX7Gralloc18SetGrallocMetaDataEPKNS_12NativeHandleEjjPv+0x3ed4>
	bl	0x16380 <_ZNK7android7RefBase9decStrongEPKv@plt>
	b.eq	0xf368 <_ZN4CamX7Gralloc18SetGrallocMetaDataEPKNS_12NativeHandleEjjPv+0x3ed0>
	bl	0x16390 <_ZN7android14sp_report_raceEv@plt>
	cbz	x22, 0xf388 <_ZN4CamX7Gralloc18SetGrallocMetaDataEPKNS_12NativeHandleEjjPv+0x3ef0>
	bl	0x16380 <_ZNK7android7RefBase9decStrongEPKv@plt>
	b.eq	0xf398 <_ZN4CamX7Gralloc18SetGrallocMetaDataEPKNS_12NativeHandleEjjPv+0x3f00>
	bl	0x16390 <_ZN7android14sp_report_raceEv@plt>
	b	0xf5b8 <_ZN4CamX7Gralloc18SetGrallocMetaDataEPKNS_12NativeHandleEjjPv+0x4120>
	cbz	w9, 0xf41c <_ZN4CamX7Gralloc18SetGrallocMetaDataEPKNS_12NativeHandleEjjPv+0x3f84>
	adrp	x22, 0x5000 <_ZN4CamX7Gralloc18SetGrallocMetaDataEPKNS_12NativeHandleEjjPv+0x3ef0>
	adrp	x1, 0x6000 <_ZN4CamX7Gralloc18SetGrallocMetaDataEPKNS_12NativeHandleEjjPv+0x3f1c>
	adrp	x3, 0x5000 <_ZN4CamX7Gralloc18SetGrallocMetaDataEPKNS_12NativeHandleEjjPv+0x3f1c>
	adrp	x4, 0x4000 <_ZN4CamX7Gralloc18SetGrallocMetaDataEPKNS_12NativeHandleEjjPv+0x3f1c>
	adrp	x6, 0x5000 <_ZN4CamX7Gralloc18SetGrallocMetaDataEPKNS_12NativeHandleEjjPv+0x3f24>
	bl	0x14440 <_ZdaPv+0x228>
	b	0xf5b8 <_ZN4CamX7Gralloc18SetGrallocMetaDataEPKNS_12NativeHandleEjjPv+0x4120>
	adrp	x4, 0x18000 <_ZN4CamX7Gralloc18SetGrallocMetaDataEPKNS_12NativeHandleEjjPv+0x3fac>
	tbnz	w14, #31, 0xf454 <_ZN4CamX7Gralloc18SetGrallocMetaDataEPKNS_12NativeHandleEjjPv+0x3fbc>
	adrp	x5, 0x19000 <_ZN4CamX7Gralloc18SetGrallocMetaDataEPKNS_12NativeHandleEjjPv+0x3fd8>
	cbnz	w15, 0xf4c0 <_ZN4CamX7Gralloc18SetGrallocMetaDataEPKNS_12NativeHandleEjjPv+0x4028>
	adrp	x20, 0x5000 <_ZN4CamX7Gralloc18SetGrallocMetaDataEPKNS_12NativeHandleEjjPv+0x3f94>
	adrp	x1, 0x5000 <_ZN4CamX7Gralloc18SetGrallocMetaDataEPKNS_12NativeHandleEjjPv+0x3fc0>
	adrp	x3, 0x5000 <_ZN4CamX7Gralloc18SetGrallocMetaDataEPKNS_12NativeHandleEjjPv+0x3fc4>
	adrp	x4, 0x4000 <_ZN4CamX7Gralloc18SetGrallocMetaDataEPKNS_12NativeHandleEjjPv+0x3fc4>
	adrp	x6, 0x5000 <_ZN4CamX7Gralloc18SetGrallocMetaDataEPKNS_12NativeHandleEjjPv+0x3fcc>
	bl	0x14440 <_ZdaPv+0x228>
	b.lt	0xf5b4 <_ZN4CamX7Gralloc18SetGrallocMetaDataEPKNS_12NativeHandleEjjPv+0x411c>
	b	0xf4e8 <_ZN4CamX7Gralloc18SetGrallocMetaDataEPKNS_12NativeHandleEjjPv+0x4050>
	b.ge	0xf5b4 <_ZN4CamX7Gralloc18SetGrallocMetaDataEPKNS_12NativeHandleEjjPv+0x411c>
	adrp	x6, 0x18000 <_ZN4CamX7Gralloc18SetGrallocMetaDataEPKNS_12NativeHandleEjjPv+0x407c>
	tbnz	w6, #31, 0xf528 <_ZN4CamX7Gralloc18SetGrallocMetaDataEPKNS_12NativeHandleEjjPv+0x4090>
	adrp	x7, 0x19000 <_ZN4CamX7Gralloc18SetGrallocMetaDataEPKNS_12NativeHandleEjjPv+0x40ac>
	cbnz	w4, 0xf4d8 <_ZN4CamX7Gralloc18SetGrallocMetaDataEPKNS_12NativeHandleEjjPv+0x4040>
	adrp	x0, 0x5000 <_ZN4CamX7Gralloc18SetGrallocMetaDataEPKNS_12NativeHandleEjjPv+0x4068>
	adrp	x12, 0x5000 <_ZN4CamX7Gralloc18SetGrallocMetaDataEPKNS_12NativeHandleEjjPv+0x4080>
	adrp	x1, 0x5000 <_ZN4CamX7Gralloc18SetGrallocMetaDataEPKNS_12NativeHandleEjjPv+0x40a8>
	adrp	x3, 0x5000 <_ZN4CamX7Gralloc18SetGrallocMetaDataEPKNS_12NativeHandleEjjPv+0x40b0>
	adrp	x4, 0x4000 <_ZN4CamX7Gralloc18SetGrallocMetaDataEPKNS_12NativeHandleEjjPv+0x40b0>
	adrp	x6, 0x5000 <_ZN4CamX7Gralloc18SetGrallocMetaDataEPKNS_12NativeHandleEjjPv+0x40b8>
	bl	0x14440 <_ZdaPv+0x228>
	b	0xf4d8 <_ZN4CamX7Gralloc18SetGrallocMetaDataEPKNS_12NativeHandleEjjPv+0x4040>
	bl	0x162f0 <_ZN7android8hardware7details13return_statusD2Ev@plt>
	cbz	w5, 0xf5d4 <_ZN4CamX7Gralloc18SetGrallocMetaDataEPKNS_12NativeHandleEjjPv+0x413c>
	cbz	x0, 0xf5d4 <_ZN4CamX7Gralloc18SetGrallocMetaDataEPKNS_12NativeHandleEjjPv+0x413c>
	cbz	w22, 0xf5e0 <_ZN4CamX7Gralloc18SetGrallocMetaDataEPKNS_12NativeHandleEjjPv+0x4148>
	b	0xf050 <_ZN4CamX7Gralloc18SetGrallocMetaDataEPKNS_12NativeHandleEjjPv+0x3bb8>
	cbz	w8, 0xf684 <_ZN4CamX7Gralloc18SetGrallocMetaDataEPKNS_12NativeHandleEjjPv+0x41ec>
	b.hi	0xfc08 <_ZN4CamX7Gralloc18SetGrallocMetaDataEPKNS_12NativeHandleEjjPv+0x4770>
	b.ne	0xf68c <_ZN4CamX7Gralloc18SetGrallocMetaDataEPKNS_12NativeHandleEjjPv+0x41f4>
	b.eq	0xfc08 <_ZN4CamX7Gralloc18SetGrallocMetaDataEPKNS_12NativeHandleEjjPv+0x4770>
	cbz	w11, 0xf754 <_ZN4CamX7Gralloc18SetGrallocMetaDataEPKNS_12NativeHandleEjjPv+0x42bc>
	b.eq	0xf734 <_ZN4CamX7Gralloc18SetGrallocMetaDataEPKNS_12NativeHandleEjjPv+0x429c>
	b.ne	0xf664 <_ZN4CamX7Gralloc18SetGrallocMetaDataEPKNS_12NativeHandleEjjPv+0x41cc>
	b	0xf754 <_ZN4CamX7Gralloc18SetGrallocMetaDataEPKNS_12NativeHandleEjjPv+0x42bc>
	b	0xf050 <_ZN4CamX7Gralloc18SetGrallocMetaDataEPKNS_12NativeHandleEjjPv+0x3bb8>
	adrp	x22, 0x18000 <_ZN4CamX7Gralloc18SetGrallocMetaDataEPKNS_12NativeHandleEjjPv+0x4218>
	tbnz	w1, #31, 0xf6a8 <_ZN4CamX7Gralloc18SetGrallocMetaDataEPKNS_12NativeHandleEjjPv+0x4210>
	adrp	x19, 0x19000 <_ZN4CamX7Gralloc18SetGrallocMetaDataEPKNS_12NativeHandleEjjPv+0x422c>
	cbnz	w5, 0xf720 <_ZN4CamX7Gralloc18SetGrallocMetaDataEPKNS_12NativeHandleEjjPv+0x4288>
	adrp	x25, 0x5000 <_ZN4CamX7Gralloc18SetGrallocMetaDataEPKNS_12NativeHandleEjjPv+0x41e8>
	adrp	x1, 0x5000 <_ZN4CamX7Gralloc18SetGrallocMetaDataEPKNS_12NativeHandleEjjPv+0x4208>
	adrp	x3, 0x4000 <_ZN4CamX7Gralloc18SetGrallocMetaDataEPKNS_12NativeHandleEjjPv+0x420c>
	adrp	x4, 0x4000 <_ZN4CamX7Gralloc18SetGrallocMetaDataEPKNS_12NativeHandleEjjPv+0x4210>
	adrp	x6, 0x4000 <_ZN4CamX7Gralloc18SetGrallocMetaDataEPKNS_12NativeHandleEjjPv+0x4218>
	bl	0x14440 <_ZdaPv+0x228>
	b	0xede8 <_ZN4CamX7Gralloc18SetGrallocMetaDataEPKNS_12NativeHandleEjjPv+0x3950>
	adrp	x25, 0x18000 <_ZN4CamX7Gralloc18SetGrallocMetaDataEPKNS_12NativeHandleEjjPv+0x42e0>
	tbnz	w9, #31, 0xf770 <_ZN4CamX7Gralloc18SetGrallocMetaDataEPKNS_12NativeHandleEjjPv+0x42d8>
	adrp	x24, 0x19000 <_ZN4CamX7Gralloc18SetGrallocMetaDataEPKNS_12NativeHandleEjjPv+0x42f4>
	cbnz	w2, 0xfc00 <_ZN4CamX7Gralloc18SetGrallocMetaDataEPKNS_12NativeHandleEjjPv+0x4768>
	adrp	x23, 0x5000 <_ZN4CamX7Gralloc18SetGrallocMetaDataEPKNS_12NativeHandleEjjPv+0x42b0>
	adrp	x1, 0x5000 <_ZN4CamX7Gralloc18SetGrallocMetaDataEPKNS_12NativeHandleEjjPv+0x42d4>
	adrp	x4, 0x4000 <_ZN4CamX7Gralloc18SetGrallocMetaDataEPKNS_12NativeHandleEjjPv+0x42d4>
	adrp	x6, 0x4000 <_ZN4CamX7Gralloc18SetGrallocMetaDataEPKNS_12NativeHandleEjjPv+0x42dc>
	adrp	x3, 0x5000 <_ZN4CamX7Gralloc18SetGrallocMetaDataEPKNS_12NativeHandleEjjPv+0x4310>
	b	0xfbfc <_ZN4CamX7Gralloc18SetGrallocMetaDataEPKNS_12NativeHandleEjjPv+0x4764>
	adrp	x28, 0x6000 <_ZN4CamX7Gralloc18SetGrallocMetaDataEPKNS_12NativeHandleEjjPv+0x433c>
	adrp	x1, 0x6000 <_ZN4CamX7Gralloc18SetGrallocMetaDataEPKNS_12NativeHandleEjjPv+0x4358>
	adrp	x3, 0x4000 <_ZN4CamX7Gralloc18SetGrallocMetaDataEPKNS_12NativeHandleEjjPv+0x4354>
	adrp	x4, 0x4000 <_ZN4CamX7Gralloc18SetGrallocMetaDataEPKNS_12NativeHandleEjjPv+0x4358>
	adrp	x6, 0x6000 <_ZN4CamX7Gralloc18SetGrallocMetaDataEPKNS_12NativeHandleEjjPv+0x4364>
	bl	0x14440 <_ZdaPv+0x228>
	adrp	x28, 0x18000 <_ZN4CamX7Gralloc18SetGrallocMetaDataEPKNS_12NativeHandleEjjPv+0x43fc>
	tbnz	w4, #31, 0xf88c <_ZN4CamX7Gralloc18SetGrallocMetaDataEPKNS_12NativeHandleEjjPv+0x43f4>
	adrp	x16, 0x19000 <_ZN4CamX7Gralloc18SetGrallocMetaDataEPKNS_12NativeHandleEjjPv+0x4410>
	cbnz	w2, 0xf8fc <_ZN4CamX7Gralloc18SetGrallocMetaDataEPKNS_12NativeHandleEjjPv+0x4464>
	adrp	x20, 0x5000 <_ZN4CamX7Gralloc18SetGrallocMetaDataEPKNS_12NativeHandleEjjPv+0x43cc>
	adrp	x1, 0x5000 <_ZN4CamX7Gralloc18SetGrallocMetaDataEPKNS_12NativeHandleEjjPv+0x43f8>
	adrp	x3, 0x5000 <_ZN4CamX7Gralloc18SetGrallocMetaDataEPKNS_12NativeHandleEjjPv+0x43fc>
	adrp	x4, 0x4000 <_ZN4CamX7Gralloc18SetGrallocMetaDataEPKNS_12NativeHandleEjjPv+0x43fc>
	adrp	x6, 0x4000 <_ZN4CamX7Gralloc18SetGrallocMetaDataEPKNS_12NativeHandleEjjPv+0x4400>
	bl	0x14440 <_ZdaPv+0x228>
	cbz	w13, 0xf938 <_ZN4CamX7Gralloc18SetGrallocMetaDataEPKNS_12NativeHandleEjjPv+0x44a0>
	b.eq	0xf948 <_ZN4CamX7Gralloc18SetGrallocMetaDataEPKNS_12NativeHandleEjjPv+0x44b0>
	b.ne	0xf90c <_ZN4CamX7Gralloc18SetGrallocMetaDataEPKNS_12NativeHandleEjjPv+0x4474>
	b	0xf940 <_ZN4CamX7Gralloc18SetGrallocMetaDataEPKNS_12NativeHandleEjjPv+0x44a8>
	b	0xf954 <_ZN4CamX7Gralloc18SetGrallocMetaDataEPKNS_12NativeHandleEjjPv+0x44bc>
	tbz	w10, #0, 0xf9c4 <_ZN4CamX7Gralloc18SetGrallocMetaDataEPKNS_12NativeHandleEjjPv+0x452c>
	cbz	x14, 0xfa2c <_ZN4CamX7Gralloc18SetGrallocMetaDataEPKNS_12NativeHandleEjjPv+0x4594>
	cbnz	w0, 0xfa8c <_ZN4CamX7Gralloc18SetGrallocMetaDataEPKNS_12NativeHandleEjjPv+0x45f4>
	b	0xfb68 <_ZN4CamX7Gralloc18SetGrallocMetaDataEPKNS_12NativeHandleEjjPv+0x46d0>
	tbnz	w25, #31, 0xf9d8 <_ZN4CamX7Gralloc18SetGrallocMetaDataEPKNS_12NativeHandleEjjPv+0x4540>
	adrp	x17, 0x19000 <_ZN4CamX7Gralloc18SetGrallocMetaDataEPKNS_12NativeHandleEjjPv+0x455c>
	cbnz	w9, 0xfa8c <_ZN4CamX7Gralloc18SetGrallocMetaDataEPKNS_12NativeHandleEjjPv+0x45f4>
	adrp	x23, 0x5000 <_ZN4CamX7Gralloc18SetGrallocMetaDataEPKNS_12NativeHandleEjjPv+0x4518>
	adrp	x1, 0x4000 <_ZN4CamX7Gralloc18SetGrallocMetaDataEPKNS_12NativeHandleEjjPv+0x4530>
	adrp	x3, 0x4000 <_ZN4CamX7Gralloc18SetGrallocMetaDataEPKNS_12NativeHandleEjjPv+0x4534>
	adrp	x4, 0x4000 <_ZN4CamX7Gralloc18SetGrallocMetaDataEPKNS_12NativeHandleEjjPv+0x4538>
	adrp	x6, 0x5000 <_ZN4CamX7Gralloc18SetGrallocMetaDataEPKNS_12NativeHandleEjjPv+0x4540>
	bl	0x14440 <_ZdaPv+0x228>
	b	0xfa8c <_ZN4CamX7Gralloc18SetGrallocMetaDataEPKNS_12NativeHandleEjjPv+0x45f4>
	tbnz	w11, #31, 0xfa40 <_ZN4CamX7Gralloc18SetGrallocMetaDataEPKNS_12NativeHandleEjjPv+0x45a8>
	adrp	x3, 0x19000 <_ZN4CamX7Gralloc18SetGrallocMetaDataEPKNS_12NativeHandleEjjPv+0x45c4>
	cbnz	w14, 0xfa8c <_ZN4CamX7Gralloc18SetGrallocMetaDataEPKNS_12NativeHandleEjjPv+0x45f4>
	adrp	x27, 0x5000 <_ZN4CamX7Gralloc18SetGrallocMetaDataEPKNS_12NativeHandleEjjPv+0x4580>
	adrp	x1, 0x5000 <_ZN4CamX7Gralloc18SetGrallocMetaDataEPKNS_12NativeHandleEjjPv+0x459c>
	adrp	x3, 0x5000 <_ZN4CamX7Gralloc18SetGrallocMetaDataEPKNS_12NativeHandleEjjPv+0x45a0>
	adrp	x4, 0x4000 <_ZN4CamX7Gralloc18SetGrallocMetaDataEPKNS_12NativeHandleEjjPv+0x45a0>
	adrp	x6, 0x5000 <_ZN4CamX7Gralloc18SetGrallocMetaDataEPKNS_12NativeHandleEjjPv+0x45a8>
	bl	0x14440 <_ZdaPv+0x228>
	tbnz	w3, #31, 0xfaa0 <_ZN4CamX7Gralloc18SetGrallocMetaDataEPKNS_12NativeHandleEjjPv+0x4608>
	adrp	x2, 0x19000 <_ZN4CamX7Gralloc18SetGrallocMetaDataEPKNS_12NativeHandleEjjPv+0x4624>
	cbnz	w1, 0xfaf0 <_ZN4CamX7Gralloc18SetGrallocMetaDataEPKNS_12NativeHandleEjjPv+0x4658>
	adrp	x27, 0x5000 <_ZN4CamX7Gralloc18SetGrallocMetaDataEPKNS_12NativeHandleEjjPv+0x45e0>
	adrp	x1, 0x5000 <_ZN4CamX7Gralloc18SetGrallocMetaDataEPKNS_12NativeHandleEjjPv+0x45fc>
	adrp	x3, 0x5000 <_ZN4CamX7Gralloc18SetGrallocMetaDataEPKNS_12NativeHandleEjjPv+0x4600>
	adrp	x4, 0x4000 <_ZN4CamX7Gralloc18SetGrallocMetaDataEPKNS_12NativeHandleEjjPv+0x4600>
	adrp	x6, 0x5000 <_ZN4CamX7Gralloc18SetGrallocMetaDataEPKNS_12NativeHandleEjjPv+0x4608>
	bl	0x14440 <_ZdaPv+0x228>
	bl	0x16650 <_ZN4CamX16ImageFormatUtils12GetPlaneSizeEPKNS_11ImageFormatEj@plt>
	bl	0x16650 <_ZN4CamX16ImageFormatUtils12GetPlaneSizeEPKNS_11ImageFormatEj@plt>
	tbnz	w13, #31, 0xfb7c <_ZN4CamX7Gralloc18SetGrallocMetaDataEPKNS_12NativeHandleEjjPv+0x46e4>
	adrp	x1, 0x19000 <_ZN4CamX7Gralloc18SetGrallocMetaDataEPKNS_12NativeHandleEjjPv+0x4700>
	cbnz	w25, 0xfc00 <_ZN4CamX7Gralloc18SetGrallocMetaDataEPKNS_12NativeHandleEjjPv+0x4768>
	adrp	x28, 0x5000 <_ZN4CamX7Gralloc18SetGrallocMetaDataEPKNS_12NativeHandleEjjPv+0x46bc>
	adrp	x1, 0x5000 <_ZN4CamX7Gralloc18SetGrallocMetaDataEPKNS_12NativeHandleEjjPv+0x46dc>
	adrp	x3, 0x5000 <_ZN4CamX7Gralloc18SetGrallocMetaDataEPKNS_12NativeHandleEjjPv+0x46e4>
	adrp	x4, 0x4000 <_ZN4CamX7Gralloc18SetGrallocMetaDataEPKNS_12NativeHandleEjjPv+0x46e4>
	adrp	x6, 0x5000 <_ZN4CamX7Gralloc18SetGrallocMetaDataEPKNS_12NativeHandleEjjPv+0x46f0>
	bl	0x14440 <_ZdaPv+0x228>
	b	0xede8 <_ZN4CamX7Gralloc18SetGrallocMetaDataEPKNS_12NativeHandleEjjPv+0x3950>
	b	0xfc58 <_ZN4CamX7Gralloc18SetGrallocMetaDataEPKNS_12NativeHandleEjjPv+0x47c0>
	tbnz	w13, #31, 0xfc88 <_ZN4CamX7Gralloc18SetGrallocMetaDataEPKNS_12NativeHandleEjjPv+0x47f0>
	b.eq	0xfcc8 <_ZN4CamX7Gralloc18SetGrallocMetaDataEPKNS_12NativeHandleEjjPv+0x4830>
	tbnz	w13, #0, 0xfc24 <_ZN4CamX7Gralloc18SetGrallocMetaDataEPKNS_12NativeHandleEjjPv+0x478c>
	tbz	w13, #1, 0xfc48 <_ZN4CamX7Gralloc18SetGrallocMetaDataEPKNS_12NativeHandleEjjPv+0x47b0>
	tbnz	w13, #31, 0xfca8 <_ZN4CamX7Gralloc18SetGrallocMetaDataEPKNS_12NativeHandleEjjPv+0x4810>
	b	0xfcc0 <_ZN4CamX7Gralloc18SetGrallocMetaDataEPKNS_12NativeHandleEjjPv+0x4828>
	b	0xfc48 <_ZN4CamX7Gralloc18SetGrallocMetaDataEPKNS_12NativeHandleEjjPv+0x47b0>
	b	0xfc48 <_ZN4CamX7Gralloc18SetGrallocMetaDataEPKNS_12NativeHandleEjjPv+0x47b0>
	adrp	x12, 0x18000 <_ZN4CamX7Gralloc18SetGrallocMetaDataEPKNS_12NativeHandleEjjPv+0x4854>
	tbnz	w0, #31, 0xfce4 <_ZN4CamX7Gralloc18SetGrallocMetaDataEPKNS_12NativeHandleEjjPv+0x484c>
	adrp	x13, 0x19000 <_ZN4CamX7Gralloc18SetGrallocMetaDataEPKNS_12NativeHandleEjjPv+0x4868>
	cbnz	w7, 0xfc00 <_ZN4CamX7Gralloc18SetGrallocMetaDataEPKNS_12NativeHandleEjjPv+0x4768>
	adrp	x25, 0x5000 <_ZN4CamX7Gralloc18SetGrallocMetaDataEPKNS_12NativeHandleEjjPv+0x4824>
	adrp	x4, 0x4000 <_ZN4CamX7Gralloc18SetGrallocMetaDataEPKNS_12NativeHandleEjjPv+0x4844>
	adrp	x1, 0x5000 <_ZN4CamX7Gralloc18SetGrallocMetaDataEPKNS_12NativeHandleEjjPv+0x4878>
	adrp	x3, 0x6000 <_ZN4CamX7Gralloc18SetGrallocMetaDataEPKNS_12NativeHandleEjjPv+0x4884>
	adrp	x6, 0x4000 <_ZN4CamX7Gralloc18SetGrallocMetaDataEPKNS_12NativeHandleEjjPv+0x4884>
	b	0xfbfc <_ZN4CamX7Gralloc18SetGrallocMetaDataEPKNS_12NativeHandleEjjPv+0x4764>
	tbz	w23, #0, 0xfdec <_ZN4CamX7Gralloc18SetGrallocMetaDataEPKNS_12NativeHandleEjjPv+0x4954>
	cbz	x0, 0xfdec <_ZN4CamX7Gralloc18SetGrallocMetaDataEPKNS_12NativeHandleEjjPv+0x4954>
	b	0xfdec <_ZN4CamX7Gralloc18SetGrallocMetaDataEPKNS_12NativeHandleEjjPv+0x4954>
	b	0xfde8 <_ZN4CamX7Gralloc18SetGrallocMetaDataEPKNS_12NativeHandleEjjPv+0x4950>
	b.ne	0xfdcc <_ZN4CamX7Gralloc18SetGrallocMetaDataEPKNS_12NativeHandleEjjPv+0x4934>
	b	0xfdf4 <_ZN4CamX7Gralloc18SetGrallocMetaDataEPKNS_12NativeHandleEjjPv+0x495c>
	cbz	x8, 0xfdf4 <_ZN4CamX7Gralloc18SetGrallocMetaDataEPKNS_12NativeHandleEjjPv+0x495c>
	b	0xfdf4 <_ZN4CamX7Gralloc18SetGrallocMetaDataEPKNS_12NativeHandleEjjPv+0x495c>
	b	0xfde8 <_ZN4CamX7Gralloc18SetGrallocMetaDataEPKNS_12NativeHandleEjjPv+0x4950>
	bl	0x162f0 <_ZN7android8hardware7details13return_statusD2Ev@plt>
	cbz	w26, 0xfe08 <_ZN4CamX7Gralloc18SetGrallocMetaDataEPKNS_12NativeHandleEjjPv+0x4970>
	cbz	x0, 0xfe08 <_ZN4CamX7Gralloc18SetGrallocMetaDataEPKNS_12NativeHandleEjjPv+0x4970>
	cbz	x1, 0xffd4 <_ZN4CamX7Gralloc18SetGrallocMetaDataEPKNS_12NativeHandleEjjPv+0x4b3c>
	cbz	x0, 0x10038 <_ZN4CamX7Gralloc18SetGrallocMetaDataEPKNS_12NativeHandleEjjPv+0x4ba0>
	adrp	x9, 0x17000 <_ZN4CamX7Gralloc18SetGrallocMetaDataEPKNS_12NativeHandleEjjPv+0x49d8>
	b.eq	0x10050 <_ZN4CamX7Gralloc18SetGrallocMetaDataEPKNS_12NativeHandleEjjPv+0x4bb8>
	cbz	x0, 0xfeb4 <_ZN4CamX7Gralloc18SetGrallocMetaDataEPKNS_12NativeHandleEjjPv+0x4a1c>
	cbz	w8, 0x1006c <_ZN4CamX7Gralloc18SetGrallocMetaDataEPKNS_12NativeHandleEjjPv+0x4bd4>
	adrp	x16, 0x18000 <_ZN4CamX7Gralloc18SetGrallocMetaDataEPKNS_12NativeHandleEjjPv+0x4a50>
	tbnz	w10, #31, 0xfee0 <_ZN4CamX7Gralloc18SetGrallocMetaDataEPKNS_12NativeHandleEjjPv+0x4a48>
	adrp	x17, 0x19000 <_ZN4CamX7Gralloc18SetGrallocMetaDataEPKNS_12NativeHandleEjjPv+0x4a64>
	cbnz	w11, 0xff68 <_ZN4CamX7Gralloc18SetGrallocMetaDataEPKNS_12NativeHandleEjjPv+0x4ad0>
	adrp	x21, 0x5000 <_ZN4CamX7Gralloc18SetGrallocMetaDataEPKNS_12NativeHandleEjjPv+0x4a20>
	bl	0x16410 <_ZNK7android8hardware6Status11descriptionEv@plt>
	adrp	x1, 0x4000 <_ZN4CamX7Gralloc18SetGrallocMetaDataEPKNS_12NativeHandleEjjPv+0x4a64>
	adrp	x3, 0x5000 <_ZN4CamX7Gralloc18SetGrallocMetaDataEPKNS_12NativeHandleEjjPv+0x4a6c>
	adrp	x4, 0x4000 <_ZN4CamX7Gralloc18SetGrallocMetaDataEPKNS_12NativeHandleEjjPv+0x4a6c>
	adrp	x6, 0x5000 <_ZN4CamX7Gralloc18SetGrallocMetaDataEPKNS_12NativeHandleEjjPv+0x4a74>
	bl	0x14440 <_ZdaPv+0x228>
	tbz	w13, #0, 0xff68 <_ZN4CamX7Gralloc18SetGrallocMetaDataEPKNS_12NativeHandleEjjPv+0x4ad0>
	cbz	x0, 0xff68 <_ZN4CamX7Gralloc18SetGrallocMetaDataEPKNS_12NativeHandleEjjPv+0x4ad0>
	cbz	x22, 0xff98 <_ZN4CamX7Gralloc18SetGrallocMetaDataEPKNS_12NativeHandleEjjPv+0x4b00>
	bl	0x16380 <_ZNK7android7RefBase9decStrongEPKv@plt>
	b.eq	0xff94 <_ZN4CamX7Gralloc18SetGrallocMetaDataEPKNS_12NativeHandleEjjPv+0x4afc>
	bl	0x16390 <_ZN7android14sp_report_raceEv@plt>
	cbz	x22, 0xffb4 <_ZN4CamX7Gralloc18SetGrallocMetaDataEPKNS_12NativeHandleEjjPv+0x4b1c>
	bl	0x16380 <_ZNK7android7RefBase9decStrongEPKv@plt>
	b.eq	0xffc4 <_ZN4CamX7Gralloc18SetGrallocMetaDataEPKNS_12NativeHandleEjjPv+0x4b2c>
	bl	0x16390 <_ZN7android14sp_report_raceEv@plt>
	b	0x101dc <_ZN4CamX7Gralloc18SetGrallocMetaDataEPKNS_12NativeHandleEjjPv+0x4d44>
	adrp	x21, 0x5000 <_ZN4CamX7Gralloc18SetGrallocMetaDataEPKNS_12NativeHandleEjjPv+0x4b14>
	adrp	x1, 0x6000 <_ZN4CamX7Gralloc18SetGrallocMetaDataEPKNS_12NativeHandleEjjPv+0x4b34>
	adrp	x3, 0x4000 <_ZN4CamX7Gralloc18SetGrallocMetaDataEPKNS_12NativeHandleEjjPv+0x4b30>
	adrp	x4, 0x4000 <_ZN4CamX7Gralloc18SetGrallocMetaDataEPKNS_12NativeHandleEjjPv+0x4b34>
	adrp	x6, 0x5000 <_ZN4CamX7Gralloc18SetGrallocMetaDataEPKNS_12NativeHandleEjjPv+0x4b3c>
<_ZdaPv+0x228>
<_ZN4CamX7Gralloc18SetGrallocMetaDataEPKNS_12NativeHandleEjjPv+0x4d5c>
<_ZN4CamX7Gralloc18SetGrallocMetaDataEPKNS_12NativeHandleEjjPv+0x4d5c>
<_ZN4CamX7Gralloc18SetGrallocMetaDataEPKNS_12NativeHandleEjjPv+0x4b9c>
0xfec4 <_ZN4CamX7Gralloc18SetGrallocMetaDataEPKNS_12NativeHandleEjjPv+0x4a2c>
0x100e8 <_ZN4CamX7Gralloc18SetGrallocMetaDataEPKNS_12NativeHandleEjjPv+0x4c50>
0x18000 <_ZN4CamX7Gralloc18SetGrallocMetaDataEPKNS_12NativeHandleEjjPv+0x4bfc>
#31, 0x10090 <_ZN4CamX7Gralloc18SetGrallocMetaDataEPKNS_12NativeHandleEjjPv+0x4bf8>
0x19000 <_ZN4CamX7Gralloc18SetGrallocMetaDataEPKNS_12NativeHandleEjjPv+0x4c10>
0x100e0 <_ZN4CamX7Gralloc18SetGrallocMetaDataEPKNS_12NativeHandleEjjPv+0x4c48>
0x5000 <_ZN4CamX7Gralloc18SetGrallocMetaDataEPKNS_12NativeHandleEjjPv+0x4bcc>
0x4000 <_ZN4CamX7Gralloc18SetGrallocMetaDataEPKNS_12NativeHandleEjjPv+0x4bec>
0x5000 <_ZN4CamX7Gralloc18SetGrallocMetaDataEPKNS_12NativeHandleEjjPv+0x4bf4>
0x4000 <_ZN4CamX7Gralloc18SetGrallocMetaDataEPKNS_12NativeHandleEjjPv+0x4bf4>
0x5000 <_ZN4CamX7Gralloc18SetGrallocMetaDataEPKNS_12NativeHandleEjjPv+0x4bfc>
<_ZdaPv+0x228>
<_ZN4CamX7Gralloc18SetGrallocMetaDataEPKNS_12NativeHandleEjjPv+0x4d44>
<_ZN4CamX7Gralloc18SetGrallocMetaDataEPKNS_12NativeHandleEjjPv+0x4cb8>
0x5000 <_ZN4CamX7Gralloc18SetGrallocMetaDataEPKNS_12NativeHandleEjjPv+0x4c30>
0x6000 <_ZN4CamX7Gralloc18SetGrallocMetaDataEPKNS_12NativeHandleEjjPv+0x4c58>
0x5000 <_ZN4CamX7Gralloc18SetGrallocMetaDataEPKNS_12NativeHandleEjjPv+0x4c58>
0x4000 <_ZN4CamX7Gralloc18SetGrallocMetaDataEPKNS_12NativeHandleEjjPv+0x4c58>
0x5000 <_ZN4CamX7Gralloc18SetGrallocMetaDataEPKNS_12NativeHandleEjjPv+0x4c60>
<_ZdaPv+0x228>
<_ZN4CamX7Gralloc18SetGrallocMetaDataEPKNS_12NativeHandleEjjPv+0x4d44>
0x18000 <_ZN4CamX7Gralloc18SetGrallocMetaDataEPKNS_12NativeHandleEjjPv+0x4cd8>
#31, 0x1016c <_ZN4CamX7Gralloc18SetGrallocMetaDataEPKNS_12NativeHandleEjjPv+0x4cd4>
0x19000 <_ZN4CamX7Gralloc18SetGrallocMetaDataEPKNS_12NativeHandleEjjPv+0x4cec>
0x101d8 <_ZN4CamX7Gralloc18SetGrallocMetaDataEPKNS_12NativeHandleEjjPv+0x4d40>
0x5000 <_ZN4CamX7Gralloc18SetGrallocMetaDataEPKNS_12NativeHandleEjjPv+0x4ca8>
0x5000 <_ZN4CamX7Gralloc18SetGrallocMetaDataEPKNS_12NativeHandleEjjPv+0x4cc4>
0x4000 <_ZN4CamX7Gralloc18SetGrallocMetaDataEPKNS_12NativeHandleEjjPv+0x4ccc>
0x5000 <_ZN4CamX7Gralloc18SetGrallocMetaDataEPKNS_12NativeHandleEjjPv+0x4ce4>
0x5000 <_ZN4CamX7Gralloc18SetGrallocMetaDataEPKNS_12NativeHandleEjjPv+0x4ce8>
0x4000 <_ZN4CamX7Gralloc18SetGrallocMetaDataEPKNS_12NativeHandleEjjPv+0x4ce8>
0x5000 <_ZN4CamX7Gralloc18SetGrallocMetaDataEPKNS_12NativeHandleEjjPv+0x4cf0>
<_ZdaPv+0x228>
<_ZN7android8hardware7details13return_statusD2Ev@plt>
<_ZN4CamX7Gralloc18SetGrallocMetaDataEPKNS_12NativeHandleEjjPv+0x4b9c>
#0, 0x10278 <_ZN4CamX7Gralloc18SetGrallocMetaDataEPKNS_12NativeHandleEjjPv+0x4de0>
0x10278 <_ZN4CamX7Gralloc18SetGrallocMetaDataEPKNS_12NativeHandleEjjPv+0x4de0>
<_ZN4CamX7Gralloc18SetGrallocMetaDataEPKNS_12NativeHandleEjjPv+0x4de0>
<_ZN4CamX7Gralloc18SetGrallocMetaDataEPKNS_12NativeHandleEjjPv+0x4ddc>
<_ZN4CamX7Gralloc18SetGrallocMetaDataEPKNS_12NativeHandleEjjPv+0x4dc0>
0x10280 <_ZN4CamX7Gralloc18SetGrallocMetaDataEPKNS_12NativeHandleEjjPv+0x4de8>
<_ZN7android8hardware7details13return_statusD2Ev@plt>
0x1031c <_ZN4CamX7Gralloc18SetGrallocMetaDataEPKNS_12NativeHandleEjjPv+0x4e84>
0x1031c <_ZN4CamX7Gralloc18SetGrallocMetaDataEPKNS_12NativeHandleEjjPv+0x4e84>
0x10398 <_ZN4CamX7Gralloc18SetGrallocMetaDataEPKNS_12NativeHandleEjjPv+0x4f00>
0x5000 <_ZN4CamX7Gralloc18SetGrallocMetaDataEPKNS_12NativeHandleEjjPv+0x4e00>
0x6000 <_ZN4CamX7Gralloc18SetGrallocMetaDataEPKNS_12NativeHandleEjjPv+0x4e20>
0x4000 <_ZN4CamX7Gralloc18SetGrallocMetaDataEPKNS_12NativeHandleEjjPv+0x4e1c>
0x4000 <_ZN4CamX7Gralloc18SetGrallocMetaDataEPKNS_12NativeHandleEjjPv+0x4e20>
0x6000 <_ZN4CamX7Gralloc18SetGrallocMetaDataEPKNS_12NativeHandleEjjPv+0x4e2c>
<_ZdaPv+0x228>
<_ZN4CamX7Gralloc18SetGrallocMetaDataEPKNS_12NativeHandleEjjPv+0x4ed4>
0x5000 <_ZN4CamX7Gralloc18SetGrallocMetaDataEPKNS_12NativeHandleEjjPv+0x4e58>
0x6000 <_ZN4CamX7Gralloc18SetGrallocMetaDataEPKNS_12NativeHandleEjjPv+0x4e78>
0x4000 <_ZN4CamX7Gralloc18SetGrallocMetaDataEPKNS_12NativeHandleEjjPv+0x4e74>
0x4000 <_ZN4CamX7Gralloc18SetGrallocMetaDataEPKNS_12NativeHandleEjjPv+0x4e78>
0x6000 <_ZN4CamX7Gralloc18SetGrallocMetaDataEPKNS_12NativeHandleEjjPv+0x4e84>
<_ZdaPv+0x228>
<_ZN4CamX7Gralloc18SetGrallocMetaDataEPKNS_12NativeHandleEjjPv+0x5240>
0x10530 <_ZN4CamX7Gralloc18SetGrallocMetaDataEPKNS_12NativeHandleEjjPv+0x5098>
0x17000 <_ZN4CamX7Gralloc18SetGrallocMetaDataEPKNS_12NativeHandleEjjPv+0x4f30>
<_ZN4CamX7Gralloc18SetGrallocMetaDataEPKNS_12NativeHandleEjjPv+0x50a0>
0x10410 <_ZN4CamX7Gralloc18SetGrallocMetaDataEPKNS_12NativeHandleEjjPv+0x4f78>
0x10554 <_ZN4CamX7Gralloc18SetGrallocMetaDataEPKNS_12NativeHandleEjjPv+0x50bc>
0x18000 <_ZN4CamX7Gralloc18SetGrallocMetaDataEPKNS_12NativeHandleEjjPv+0x4fa8>
#31, 0x1043c <_ZN4CamX7Gralloc18SetGrallocMetaDataEPKNS_12NativeHandleEjjPv+0x4fa4>
0x19000 <_ZN4CamX7Gralloc18SetGrallocMetaDataEPKNS_12NativeHandleEjjPv+0x4fbc>
0x104c4 <_ZN4CamX7Gralloc18SetGrallocMetaDataEPKNS_12NativeHandleEjjPv+0x502c>
0x5000 <_ZN4CamX7Gralloc18SetGrallocMetaDataEPKNS_12NativeHandleEjjPv+0x4f78>
<_ZNK7android8hardware6Status11descriptionEv@plt>
0x4000 <_ZN4CamX7Gralloc18SetGrallocMetaDataEPKNS_12NativeHandleEjjPv+0x4fbc>
0x6000 <_ZN4CamX7Gralloc18SetGrallocMetaDataEPKNS_12NativeHandleEjjPv+0x4fc8>
0x4000 <_ZN4CamX7Gralloc18SetGrallocMetaDataEPKNS_12NativeHandleEjjPv+0x4fc4>
0x6000 <_ZN4CamX7Gralloc18SetGrallocMetaDataEPKNS_12NativeHandleEjjPv+0x4fd0>
<_ZdaPv+0x228>
#0, 0x104c4 <_ZN4CamX7Gralloc18SetGrallocMetaDataEPKNS_12NativeHandleEjjPv+0x502c>
0x104c4 <_ZN4CamX7Gralloc18SetGrallocMetaDataEPKNS_12NativeHandleEjjPv+0x502c>
0x104f4 <_ZN4CamX7Gralloc18SetGrallocMetaDataEPKNS_12NativeHandleEjjPv+0x505c>
<_ZNK7android7RefBase9decStrongEPKv@plt>
<_ZN4CamX7Gralloc18SetGrallocMetaDataEPKNS_12NativeHandleEjjPv+0x5058>
<_ZN7android14sp_report_raceEv@plt>
0x10510 <_ZN4CamX7Gralloc18SetGrallocMetaDataEPKNS_12NativeHandleEjjPv+0x5078>
<_ZNK7android7RefBase9decStrongEPKv@plt>
<_ZN4CamX7Gralloc18SetGrallocMetaDataEPKNS_12NativeHandleEjjPv+0x5088>
<_ZN7android14sp_report_raceEv@plt>
<_ZN4CamX7Gralloc18SetGrallocMetaDataEPKNS_12NativeHandleEjjPv+0x5234>
<_ZN4CamX7Gralloc18SetGrallocMetaDataEPKNS_12NativeHandleEjjPv+0x4ed4>
0x10420 <_ZN4CamX7Gralloc18SetGrallocMetaDataEPKNS_12NativeHandleEjjPv+0x4f88>
0x105d0 <_ZN4CamX7Gralloc18SetGrallocMetaDataEPKNS_12NativeHandleEjjPv+0x5138>
0x18000 <_ZN4CamX7Gralloc18SetGrallocMetaDataEPKNS_12NativeHandleEjjPv+0x50e4>
#31, 0x10578 <_ZN4CamX7Gralloc18SetGrallocMetaDataEPKNS_12NativeHandleEjjPv+0x50e0>
0x19000 <_ZN4CamX7Gralloc18SetGrallocMetaDataEPKNS_12NativeHandleEjjPv+0x50f8>
0x105c8 <_ZN4CamX7Gralloc18SetGrallocMetaDataEPKNS_12NativeHandleEjjPv+0x5130>
0x5000 <_ZN4CamX7Gralloc18SetGrallocMetaDataEPKNS_12NativeHandleEjjPv+0x50b4>
0x4000 <_ZN4CamX7Gralloc18SetGrallocMetaDataEPKNS_12NativeHandleEjjPv+0x50d4>
0x5000 <_ZN4CamX7Gralloc18SetGrallocMetaDataEPKNS_12NativeHandleEjjPv+0x50dc>
0x4000 <_ZN4CamX7Gralloc18SetGrallocMetaDataEPKNS_12NativeHandleEjjPv+0x50dc>
0x6000 <_ZN4CamX7Gralloc18SetGrallocMetaDataEPKNS_12NativeHandleEjjPv+0x50e8>
<_ZdaPv+0x228>
<_ZN4CamX7Gralloc18SetGrallocMetaDataEPKNS_12NativeHandleEjjPv+0x5234>
<_ZN4CamX7Gralloc18SetGrallocMetaDataEPKNS_12NativeHandleEjjPv+0x51a0>
0x5000 <_ZN4CamX7Gralloc18SetGrallocMetaDataEPKNS_12NativeHandleEjjPv+0x5118>
0x6000 <_ZN4CamX7Gralloc18SetGrallocMetaDataEPKNS_12NativeHandleEjjPv+0x5140>
0x5000 <_ZN4CamX7Gralloc18SetGrallocMetaDataEPKNS_12NativeHandleEjjPv+0x5140>
0x4000 <_ZN4CamX7Gralloc18SetGrallocMetaDataEPKNS_12NativeHandleEjjPv+0x5140>
0x6000 <_ZN4CamX7Gralloc18SetGrallocMetaDataEPKNS_12NativeHandleEjjPv+0x514c>
<_ZdaPv+0x228>
<_ZN4CamX7Gralloc18SetGrallocMetaDataEPKNS_12NativeHandleEjjPv+0x5234>
0x18000 <_ZN4CamX7Gralloc18SetGrallocMetaDataEPKNS_12NativeHandleEjjPv+0x51c0>
#31, 0x10654 <_ZN4CamX7Gralloc18SetGrallocMetaDataEPKNS_12NativeHandleEjjPv+0x51bc>
0x19000 <_ZN4CamX7Gralloc18SetGrallocMetaDataEPKNS_12NativeHandleEjjPv+0x51d4>
0x106c4 <_ZN4CamX7Gralloc18SetGrallocMetaDataEPKNS_12NativeHandleEjjPv+0x522c>
0x5000 <_ZN4CamX7Gralloc18SetGrallocMetaDataEPKNS_12NativeHandleEjjPv+0x5190>
0x5000 <_ZN4CamX7Gralloc18SetGrallocMetaDataEPKNS_12NativeHandleEjjPv+0x51ac>
0x4000 <_ZN4CamX7Gralloc18SetGrallocMetaDataEPKNS_12NativeHandleEjjPv+0x51b4>
0x5000 <_ZN4CamX7Gralloc18SetGrallocMetaDataEPKNS_12NativeHandleEjjPv+0x51cc>
0x6000 <_ZN4CamX7Gralloc18SetGrallocMetaDataEPKNS_12NativeHandleEjjPv+0x51d4>
0x4000 <_ZN4CamX7Gralloc18SetGrallocMetaDataEPKNS_12NativeHandleEjjPv+0x51d0>
0x6000 <_ZN4CamX7Gralloc18SetGrallocMetaDataEPKNS_12NativeHandleEjjPv+0x51dc>
<_ZdaPv+0x228>
<_ZN7android8hardware7details13return_statusD2Ev@plt>
<_ZN4CamX7Gralloc18SetGrallocMetaDataEPKNS_12NativeHandleEjjPv+0x4ed4>
#0, 0x10744 <_ZN4CamX7Gralloc18SetGrallocMetaDataEPKNS_12NativeHandleEjjPv+0x52ac>
0x10744 <_ZN4CamX7Gralloc18SetGrallocMetaDataEPKNS_12NativeHandleEjjPv+0x52ac>
<_ZN4CamX7Gralloc18SetGrallocMetaDataEPKNS_12NativeHandleEjjPv+0x52ac>
<_ZN4CamX7Gralloc18SetGrallocMetaDataEPKNS_12NativeHandleEjjPv+0x52a8>
<_ZN4CamX7Gralloc18SetGrallocMetaDataEPKNS_12NativeHandleEjjPv+0x528c>
0x1074c <_ZN4CamX7Gralloc18SetGrallocMetaDataEPKNS_12NativeHandleEjjPv+0x52b4>
<_ZN7android8hardware7details13return_statusD2Ev@plt>
0x10768 <_ZN4CamX7Gralloc18SetGrallocMetaDataEPKNS_12NativeHandleEjjPv+0x52d0>
0x107f4 <_ZN4CamX7Gralloc18SetGrallocMetaDataEPKNS_12NativeHandleEjjPv+0x535c>
0x17000 <_ZN4CamX7Gralloc18SetGrallocMetaDataEPKNS_12NativeHandleEjjPv+0x5330>
<_ZN4CamX7Gralloc18SetGrallocMetaDataEPKNS_12NativeHandleEjjPv+0x535c>
0x17000 <_ZN4CamX7Gralloc18SetGrallocMetaDataEPKNS_12NativeHandleEjjPv+0x537c>
0x10830 <_ZN4CamX7Gralloc18SetGrallocMetaDataEPKNS_12NativeHandleEjjPv+0x5398>
0x10894 <_ZN4CamX7Gralloc18SetGrallocMetaDataEPKNS_12NativeHandleEjjPv+0x53fc>
<_ZN4CamX7Gralloc18SetGrallocMetaDataEPKNS_12NativeHandleEjjPv+0x5848>
<_ZN4CamX7Gralloc18SetGrallocMetaDataEPKNS_12NativeHandleEjjPv+0x53d4>
0x108c0 <_ZN4CamX7Gralloc18SetGrallocMetaDataEPKNS_12NativeHandleEjjPv+0x5428>
0x108c0 <_ZN4CamX7Gralloc18SetGrallocMetaDataEPKNS_12NativeHandleEjjPv+0x5428>
0x108fc <_ZN4CamX7Gralloc18SetGrallocMetaDataEPKNS_12NativeHandleEjjPv+0x5464>
0x10904 <_ZN4CamX7Gralloc18SetGrallocMetaDataEPKNS_12NativeHandleEjjPv+0x546c>
<_ZN4CamX7Gralloc18SetGrallocMetaDataEPKNS_12NativeHandleEjjPv+0x5484>
<_ZN4CamX7Gralloc18SetGrallocMetaDataEPKNS_12NativeHandleEjjPv+0x53d4>
0x1091c <_ZN4CamX7Gralloc18SetGrallocMetaDataEPKNS_12NativeHandleEjjPv+0x5484>
<_ZN4CamX7Gralloc18SetGrallocMetaDataEPKNS_12NativeHandleEjjPv+0x580c>
#0, 0x10ca4 <_ZN4CamX7Gralloc18SetGrallocMetaDataEPKNS_12NativeHandleEjjPv+0x580c>
0x10ca4 <_ZN4CamX7Gralloc18SetGrallocMetaDataEPKNS_12NativeHandleEjjPv+0x580c>
#0, 0x10ca4 <_ZN4CamX7Gralloc18SetGrallocMetaDataEPKNS_12NativeHandleEjjPv+0x580c>
<_ZN4CamX7Gralloc18SetGrallocMetaDataEPKNS_12NativeHandleEjjPv+0x5518>
0x1086c <_ZN4CamX7Gralloc18SetGrallocMetaDataEPKNS_12NativeHandleEjjPv+0x53d4>
<_ZN4CamX7Gralloc18SetGrallocMetaDataEPKNS_12NativeHandleEjjPv+0x57d0>
<_ZN4CamX7Gralloc18SetGrallocMetaDataEPKNS_12NativeHandleEjjPv+0x53d4>
<_ZN4CamX7Gralloc18SetGrallocMetaDataEPKNS_12NativeHandleEjjPv+0x57e4>
<_ZN4CamX7Gralloc18SetGrallocMetaDataEPKNS_12NativeHandleEjjPv+0x53d4>
<_ZN4CamX7Gralloc18SetGrallocMetaDataEPKNS_12NativeHandleEjjPv+0x53d4>
<_ZN4CamX7Gralloc18SetGrallocMetaDataEPKNS_12NativeHandleEjjPv+0x5814>
0x10cf0 <_ZN4CamX7Gralloc18SetGrallocMetaDataEPKNS_12NativeHandleEjjPv+0x5858>
0x10d70 <_ZN4CamX7Gralloc18SetGrallocMetaDataEPKNS_12NativeHandleEjjPv+0x58d8>
0x17000 <_ZN4CamX7Gralloc18SetGrallocMetaDataEPKNS_12NativeHandleEjjPv+0x58b4>
<_ZN4CamX7Gralloc18SetGrallocMetaDataEPKNS_12NativeHandleEjjPv+0x58d8>
0x17000 <_ZN4CamX7Gralloc18SetGrallocMetaDataEPKNS_12NativeHandleEjjPv+0x58fc>
0x10da8 <_ZN4CamX7Gralloc18SetGrallocMetaDataEPKNS_12NativeHandleEjjPv+0x5910>
0x10dc4 <_ZN4CamX7Gralloc18SetGrallocMetaDataEPKNS_12NativeHandleEjjPv+0x592c>
0x10de8 <_ZN4CamX7Gralloc18SetGrallocMetaDataEPKNS_12NativeHandleEjjPv+0x5950>
0x10e68 <_ZN4CamX7Gralloc18SetGrallocMetaDataEPKNS_12NativeHandleEjjPv+0x59d0>
0x17000 <_ZN4CamX7Gralloc18SetGrallocMetaDataEPKNS_12NativeHandleEjjPv+0x59ac>
<_ZN4CamX7Gralloc18SetGrallocMetaDataEPKNS_12NativeHandleEjjPv+0x59d0>
0x17000 <_ZN4CamX7Gralloc18SetGrallocMetaDataEPKNS_12NativeHandleEjjPv+0x59f4>
0x10ea0 <_ZN4CamX7Gralloc18SetGrallocMetaDataEPKNS_12NativeHandleEjjPv+0x5a08>
0x10ebc <_ZN4CamX7Gralloc18SetGrallocMetaDataEPKNS_12NativeHandleEjjPv+0x5a24>
0x19000 <_ZN4CamX7Gralloc18SetGrallocMetaDataEPKNS_12NativeHandleEjjPv+0x5a84>
0x5000 <_ZN4CamX7Gralloc18SetGrallocMetaDataEPKNS_12NativeHandleEjjPv+0x5a38>
<_ZN7android8hardware11hidl_stringC1EPKc@plt>
0x9000 <_ZN4CamX7Gralloc18SetGrallocMetaDataEPKNS_12NativeHandleEjjPv+0x5a68>
0x17000 <_ZN4CamX7Gralloc18SetGrallocMetaDataEPKNS_12NativeHandleEjjPv+0x5aa4>
<_ZN7android8hardware11hidl_stringC1EPKc@plt>
<_ZN7android8hardware11hidl_stringC1EPKc@plt>
<_ZN7android8hardware11hidl_stringC1EPKc@plt>
<_ZN7android8hardware11hidl_stringC1EPKc@plt>
<_ZN7android8hardware11hidl_stringC1EPKc@plt>
<_ZN7android8hardware11hidl_stringC1EPKc@plt>
<_ZN7android8hardware11hidl_stringC1EPKc@plt>
<_ZN7android8hardware11hidl_stringC1EPKc@plt>
<_ZN7android8hardware11hidl_stringC1EPKc@plt>
<_ZN7android8hardware11hidl_stringC1EPKc@plt>
<_ZN7android8hardware11hidl_stringC1EPKc@plt>
<_ZN7android8hardware11hidl_stringC1EPKc@plt>
<_ZN7android8hardware11hidl_stringC1EPKc@plt>
<_ZN7android8hardware11hidl_stringC1EPKc@plt>
<_ZN7android8hardware11hidl_stringC1EPKc@plt>
<_ZN7android8hardware11hidl_stringC1EPKc@plt>
<_ZN7android8hardware11hidl_stringC1EPKc@plt>
<_ZN7android8hardware11hidl_stringC1EPKc@plt>
<_ZN7android8hardware11hidl_stringC1EPKc@plt>
<_ZN7android8hardware11hidl_stringC1EPKc@plt>
0x11290 <_ZN4CamX7Gralloc18SetGrallocMetaDataEPKNS_12NativeHandleEjjPv+0x5df8>
<_ZN4CamX7Gralloc18SetGrallocMetaDataEPKNS_12NativeHandleEjjPv+0x5e0c>
0x112a4 <_ZN4CamX7Gralloc18SetGrallocMetaDataEPKNS_12NativeHandleEjjPv+0x5e0c>
0x6000 <_ZN4CamX7Gralloc18SetGrallocMetaDataEPKNS_12NativeHandleEjjPv+0x5de0>
0x6000 <_ZN4CamX7Gralloc18SetGrallocMetaDataEPKNS_12NativeHandleEjjPv+0x5de4>
0x9000 <_ZN4CamX7Gralloc18SetGrallocMetaDataEPKNS_12NativeHandleEjjPv+0x5df8>
0x17000 <_ZN4CamX7Gralloc18SetGrallocMetaDataEPKNS_12NativeHandleEjjPv+0x5e34>
0x11324 <_ZN4CamX7Gralloc18SetGrallocMetaDataEPKNS_12NativeHandleEjjPv+0x5e8c>
<_ZN4CamX7Gralloc18SetGrallocMetaDataEPKNS_12NativeHandleEjjPv+0x5ea0>
0x11338 <_ZN4CamX7Gralloc18SetGrallocMetaDataEPKNS_12NativeHandleEjjPv+0x5ea0>
0x9000 <_ZN4CamX7Gralloc18SetGrallocMetaDataEPKNS_12NativeHandleEjjPv+0x5e84>
0x17000 <_ZN4CamX7Gralloc18SetGrallocMetaDataEPKNS_12NativeHandleEjjPv+0x5ef0>
0x113ac <_ZN4CamX7Gralloc18SetGrallocMetaDataEPKNS_12NativeHandleEjjPv+0x5f14>
<_ZN4CamX7Gralloc18SetGrallocMetaDataEPKNS_12NativeHandleEjjPv+0x5f28>
0x113c0 <_ZN4CamX7Gralloc18SetGrallocMetaDataEPKNS_12NativeHandleEjjPv+0x5f28>
0x6000 <_ZN4CamX7Gralloc18SetGrallocMetaDataEPKNS_12NativeHandleEjjPv+0x5efc>
0x6000 <_ZN4CamX7Gralloc18SetGrallocMetaDataEPKNS_12NativeHandleEjjPv+0x5f00>
0x9000 <_ZN4CamX7Gralloc18SetGrallocMetaDataEPKNS_12NativeHandleEjjPv+0x5f14>
0x17000 <_ZN4CamX7Gralloc18SetGrallocMetaDataEPKNS_12NativeHandleEjjPv+0x5f50>
0x11440 <_ZN4CamX7Gralloc18SetGrallocMetaDataEPKNS_12NativeHandleEjjPv+0x5fa8>
<_ZN4CamX7Gralloc18SetGrallocMetaDataEPKNS_12NativeHandleEjjPv+0x5fbc>
0x11454 <_ZN4CamX7Gralloc18SetGrallocMetaDataEPKNS_12NativeHandleEjjPv+0x5fbc>
0x9000 <_ZN4CamX7Gralloc18SetGrallocMetaDataEPKNS_12NativeHandleEjjPv+0x5fa0>
0x17000 <_ZN4CamX7Gralloc18SetGrallocMetaDataEPKNS_12NativeHandleEjjPv+0x5fe0>
0x114c8 <_ZN4CamX7Gralloc18SetGrallocMetaDataEPKNS_12NativeHandleEjjPv+0x6030>
<_ZN4CamX7Gralloc18SetGrallocMetaDataEPKNS_12NativeHandleEjjPv+0x6044>
0x114dc <_ZN4CamX7Gralloc18SetGrallocMetaDataEPKNS_12NativeHandleEjjPv+0x6044>
0x9000 <_ZN4CamX7Gralloc18SetGrallocMetaDataEPKNS_12NativeHandleEjjPv+0x6028>
0x17000 <_ZN4CamX7Gralloc18SetGrallocMetaDataEPKNS_12NativeHandleEjjPv+0x6068>
0x11550 <_ZN4CamX7Gralloc18SetGrallocMetaDataEPKNS_12NativeHandleEjjPv+0x60b8>
<_ZN4CamX7Gralloc18SetGrallocMetaDataEPKNS_12NativeHandleEjjPv+0x60cc>
0x11564 <_ZN4CamX7Gralloc18SetGrallocMetaDataEPKNS_12NativeHandleEjjPv+0x60cc>
0x5000 <_ZN4CamX7Gralloc18SetGrallocMetaDataEPKNS_12NativeHandleEjjPv+0x609c>
0x6000 <_ZN4CamX7Gralloc18SetGrallocMetaDataEPKNS_12NativeHandleEjjPv+0x60a4>
0x9000 <_ZN4CamX7Gralloc18SetGrallocMetaDataEPKNS_12NativeHandleEjjPv+0x60b8>
0x17000 <_ZN4CamX7Gralloc18SetGrallocMetaDataEPKNS_12NativeHandleEjjPv+0x60f4>
0x115e4 <_ZN4CamX7Gralloc18SetGrallocMetaDataEPKNS_12NativeHandleEjjPv+0x614c>
<_ZN4CamX7Gralloc18SetGrallocMetaDataEPKNS_12NativeHandleEjjPv+0x6160>
0x115f8 <_ZN4CamX7Gralloc18SetGrallocMetaDataEPKNS_12NativeHandleEjjPv+0x6160>
0x9000 <_ZN4CamX7Gralloc18SetGrallocMetaDataEPKNS_12NativeHandleEjjPv+0x6144>
0x17000 <_ZN4CamX7Gralloc18SetGrallocMetaDataEPKNS_12NativeHandleEjjPv+0x6184>
0x1166c <_ZN4CamX7Gralloc18SetGrallocMetaDataEPKNS_12NativeHandleEjjPv+0x61d4>
<_ZN4CamX7Gralloc18SetGrallocMetaDataEPKNS_12NativeHandleEjjPv+0x61e8>
0x11680 <_ZN4CamX7Gralloc18SetGrallocMetaDataEPKNS_12NativeHandleEjjPv+0x61e8>
0x9000 <_ZN4CamX7Gralloc18SetGrallocMetaDataEPKNS_12NativeHandleEjjPv+0x61cc>
0x17000 <_ZN4CamX7Gralloc18SetGrallocMetaDataEPKNS_12NativeHandleEjjPv+0x620c>
0x116f4 <_ZN4CamX7Gralloc18SetGrallocMetaDataEPKNS_12NativeHandleEjjPv+0x625c>
<_ZN4CamX7Gralloc18SetGrallocMetaDataEPKNS_12NativeHandleEjjPv+0x6270>
0x11708 <_ZN4CamX7Gralloc18SetGrallocMetaDataEPKNS_12NativeHandleEjjPv+0x6270>
0x9000 <_ZN4CamX7Gralloc18SetGrallocMetaDataEPKNS_12NativeHandleEjjPv+0x6254>
0x17000 <_ZN4CamX7Gralloc18SetGrallocMetaDataEPKNS_12NativeHandleEjjPv+0x6294>
0x1177c <_ZN4CamX7Gralloc18SetGrallocMetaDataEPKNS_12NativeHandleEjjPv+0x62e4>
<_ZN4CamX7Gralloc18SetGrallocMetaDataEPKNS_12NativeHandleEjjPv+0x62f8>
0x11790 <_ZN4CamX7Gralloc18SetGrallocMetaDataEPKNS_12NativeHandleEjjPv+0x62f8>
0x4000 <_ZN4CamX7Gralloc18SetGrallocMetaDataEPKNS_12NativeHandleEjjPv+0x62c4>
0x6000 <_ZN4CamX7Gralloc18SetGrallocMetaDataEPKNS_12NativeHandleEjjPv+0x62d0>
0x9000 <_ZN4CamX7Gralloc18SetGrallocMetaDataEPKNS_12NativeHandleEjjPv+0x62e4>
0x17000 <_ZN4CamX7Gralloc18SetGrallocMetaDataEPKNS_12NativeHandleEjjPv+0x6320>
0x1181c <_ZN4CamX7Gralloc18SetGrallocMetaDataEPKNS_12NativeHandleEjjPv+0x6384>
<_ZN4CamX7Gralloc18SetGrallocMetaDataEPKNS_12NativeHandleEjjPv+0x6398>
0x11830 <_ZN4CamX7Gralloc18SetGrallocMetaDataEPKNS_12NativeHandleEjjPv+0x6398>
0x9000 <_ZN4CamX7Gralloc18SetGrallocMetaDataEPKNS_12NativeHandleEjjPv+0x637c>
0x17000 <_ZN4CamX7Gralloc18SetGrallocMetaDataEPKNS_12NativeHandleEjjPv+0x63bc>
0x118ac <_ZN4CamX7Gralloc18SetGrallocMetaDataEPKNS_12NativeHandleEjjPv+0x6414>
<_ZN4CamX7Gralloc18SetGrallocMetaDataEPKNS_12NativeHandleEjjPv+0x6428>
0x118c0 <_ZN4CamX7Gralloc18SetGrallocMetaDataEPKNS_12NativeHandleEjjPv+0x6428>
0x9000 <_ZN4CamX7Gralloc18SetGrallocMetaDataEPKNS_12NativeHandleEjjPv+0x640c>
0x17000 <_ZN4CamX7Gralloc18SetGrallocMetaDataEPKNS_12NativeHandleEjjPv+0x644c>
0x1193c <_ZN4CamX7Gralloc18SetGrallocMetaDataEPKNS_12NativeHandleEjjPv+0x64a4>
<_ZN4CamX7Gralloc18SetGrallocMetaDataEPKNS_12NativeHandleEjjPv+0x64b8>
0x11950 <_ZN4CamX7Gralloc18SetGrallocMetaDataEPKNS_12NativeHandleEjjPv+0x64b8>
0x9000 <_ZN4CamX7Gralloc18SetGrallocMetaDataEPKNS_12NativeHandleEjjPv+0x649c>
0x17000 <_ZN4CamX7Gralloc18SetGrallocMetaDataEPKNS_12NativeHandleEjjPv+0x64dc>
0x119cc <_ZN4CamX7Gralloc18SetGrallocMetaDataEPKNS_12NativeHandleEjjPv+0x6534>
<_ZN4CamX7Gralloc18SetGrallocMetaDataEPKNS_12NativeHandleEjjPv+0x6548>
0x119e0 <_ZN4CamX7Gralloc18SetGrallocMetaDataEPKNS_12NativeHandleEjjPv+0x6548>
0x9000 <_ZN4CamX7Gralloc18SetGrallocMetaDataEPKNS_12NativeHandleEjjPv+0x652c>
0x17000 <_ZN4CamX7Gralloc18SetGrallocMetaDataEPKNS_12NativeHandleEjjPv+0x656c>
0x11a5c <_ZN4CamX7Gralloc18SetGrallocMetaDataEPKNS_12NativeHandleEjjPv+0x65c4>
<_ZN4CamX7Gralloc18SetGrallocMetaDataEPKNS_12NativeHandleEjjPv+0x65d8>
0x11a70 <_ZN4CamX7Gralloc18SetGrallocMetaDataEPKNS_12NativeHandleEjjPv+0x65d8>
0x9000 <_ZN4CamX7Gralloc18SetGrallocMetaDataEPKNS_12NativeHandleEjjPv+0x65bc>
0x17000 <_ZN4CamX7Gralloc18SetGrallocMetaDataEPKNS_12NativeHandleEjjPv+0x65fc>
0x11aec <_ZN4CamX7Gralloc18SetGrallocMetaDataEPKNS_12NativeHandleEjjPv+0x6654>
<_ZN4CamX7Gralloc18SetGrallocMetaDataEPKNS_12NativeHandleEjjPv+0x6668>
0x11b00 <_ZN4CamX7Gralloc18SetGrallocMetaDataEPKNS_12NativeHandleEjjPv+0x6668>
0x9000 <_ZN4CamX7Gralloc18SetGrallocMetaDataEPKNS_12NativeHandleEjjPv+0x664c>
0x17000 <_ZN4CamX7Gralloc18SetGrallocMetaDataEPKNS_12NativeHandleEjjPv+0x668c>
0x11b7c <_ZN4CamX7Gralloc18SetGrallocMetaDataEPKNS_12NativeHandleEjjPv+0x66e4>
<_ZN4CamX7Gralloc18SetGrallocMetaDataEPKNS_12NativeHandleEjjPv+0x66f8>
0x11b90 <_ZN4CamX7Gralloc18SetGrallocMetaDataEPKNS_12NativeHandleEjjPv+0x66f8>
0x9000 <_ZN4CamX7Gralloc18SetGrallocMetaDataEPKNS_12NativeHandleEjjPv+0x66dc>
0x17000 <_ZN4CamX7Gralloc18SetGrallocMetaDataEPKNS_12NativeHandleEjjPv+0x671c>
0x17000 <_ZN4CamX7Gralloc18SetGrallocMetaDataEPKNS_12NativeHandleEjjPv+0x6778>
<_ZN7android8hardware11hidl_stringC1ERKNSt3__112basic_stringIcNS2_11char_traitsIcEENS2_9allocatorIcEEEE@plt>
0x9000 <_ZN4CamX7Gralloc18SetGrallocMetaDataEPKNS_12NativeHandleEjjPv+0x6778>
<_ZN7android8hardware11hidl_stringC1ERKNSt3__112basic_stringIcNS2_11char_traitsIcEENS2_9allocatorIcEEEE@plt>
<_ZN7android8hardware11hidl_stringC1ERKNSt3__112basic_stringIcNS2_11char_traitsIcEENS2_9allocatorIcEEEE@plt>
<_ZN7android8hardware11hidl_stringC1ERKNSt3__112basic_stringIcNS2_11char_traitsIcEENS2_9allocatorIcEEEE@plt>
<_ZN7android8hardware11hidl_stringC1ERKNSt3__112basic_stringIcNS2_11char_traitsIcEENS2_9allocatorIcEEEE@plt>
<_ZN7android8hardware11hidl_stringC1ERKNSt3__112basic_stringIcNS2_11char_traitsIcEENS2_9allocatorIcEEEE@plt>
<_ZN7android8hardware11hidl_stringC1ERKNSt3__112basic_stringIcNS2_11char_traitsIcEENS2_9allocatorIcEEEE@plt>
<_ZN7android8hardware11hidl_stringC1ERKNSt3__112basic_stringIcNS2_11char_traitsIcEENS2_9allocatorIcEEEE@plt>
<_ZN7android8hardware11hidl_stringC1ERKNSt3__112basic_stringIcNS2_11char_traitsIcEENS2_9allocatorIcEEEE@plt>
<_ZN7android8hardware11hidl_stringC1ERKNSt3__112basic_stringIcNS2_11char_traitsIcEENS2_9allocatorIcEEEE@plt>
<_ZN7android8hardware11hidl_stringC1ERKNSt3__112basic_stringIcNS2_11char_traitsIcEENS2_9allocatorIcEEEE@plt>
<_ZN7android8hardware11hidl_stringC1ERKNSt3__112basic_stringIcNS2_11char_traitsIcEENS2_9allocatorIcEEEE@plt>
<_ZN7android8hardware11hidl_stringC1ERKNSt3__112basic_stringIcNS2_11char_traitsIcEENS2_9allocatorIcEEEE@plt>
<_ZN7android8hardware11hidl_stringC1ERKNSt3__112basic_stringIcNS2_11char_traitsIcEENS2_9allocatorIcEEEE@plt>
<_ZN7android8hardware11hidl_stringC1ERKNSt3__112basic_stringIcNS2_11char_traitsIcEENS2_9allocatorIcEEEE@plt>
<_ZN7android8hardware11hidl_stringC1ERKNSt3__112basic_stringIcNS2_11char_traitsIcEENS2_9allocatorIcEEEE@plt>
<_ZN7android8hardware11hidl_stringC1ERKNSt3__112basic_stringIcNS2_11char_traitsIcEENS2_9allocatorIcEEEE@plt>
<_ZN7android8hardware11hidl_stringC1ERKNSt3__112basic_stringIcNS2_11char_traitsIcEENS2_9allocatorIcEEEE@plt>
<_ZN7android8hardware11hidl_stringC1ERKNSt3__112basic_stringIcNS2_11char_traitsIcEENS2_9allocatorIcEEEE@plt>
<_ZN7android8hardware11hidl_stringC1ERKNSt3__112basic_stringIcNS2_11char_traitsIcEENS2_9allocatorIcEEEE@plt>
<_ZN7android8hardware11hidl_stringC1ERKNSt3__112basic_stringIcNS2_11char_traitsIcEENS2_9allocatorIcEEEE@plt>
<_ZN7android8hardware11hidl_stringC1ERKNSt3__112basic_stringIcNS2_11char_traitsIcEENS2_9allocatorIcEEEE@plt>
<_ZN7android8hardware11hidl_stringC1ERKNSt3__112basic_stringIcNS2_11char_traitsIcEENS2_9allocatorIcEEEE@plt>
<_ZN7android8hardware11hidl_stringC1ERKNSt3__112basic_stringIcNS2_11char_traitsIcEENS2_9allocatorIcEEEE@plt>
<_ZN7android8hardware11hidl_stringC1ERKNSt3__112basic_stringIcNS2_11char_traitsIcEENS2_9allocatorIcEEEE@plt>
<_ZN7android8hardware11hidl_stringC1ERKNSt3__112basic_stringIcNS2_11char_traitsIcEENS2_9allocatorIcEEEE@plt>
<_ZNSt3__112basic_stringIcNS_11char_traitsIcEENS_9allocatorIcEEEC1ERKS5_@plt>
<_ZNSt3__112basic_stringIcNS_11char_traitsIcEENS_9allocatorIcEEEC1ERKS5_@plt>
<_ZNSt3__112basic_stringIcNS_11char_traitsIcEENS_9allocatorIcEEEC1ERKS5_@plt>
<_ZNSt3__112basic_stringIcNS_11char_traitsIcEENS_9allocatorIcEEEC1ERKS5_@plt>
<_ZN4CamX7Gralloc18SetGrallocMetaDataEPKNS_12NativeHandleEjjPv+0x6c64>

0x5000 <_ZN4CamX7Gralloc18SetGrallocMetaDataEPKNS_12NativeHandleEjjPv+0x6c54>
<_ZN4CamX16ImageFormatUtils17GetChipsetVersionEv+0x68>
<_ZN4CamX16ImageFormatUtils17GetChipsetVersionEv+0x70>
<_ZN4CamX16ImageFormatUtils17GetChipsetVersionEv+0xc0>
<_ZN4CamX16ImageFormatUtils17GetChipsetVersionEv+0xc8>
0x6000 <_ZN4CamX16ImageFormatUtils17GetChipsetVersionEv+0x40>
0x6000 <_ZN4CamX16ImageFormatUtils17GetChipsetVersionEv+0x5c>
0x4000 <_ZN4CamX16ImageFormatUtils17GetChipsetVersionEv+0x58>
0x4000 <_ZN4CamX16ImageFormatUtils17GetChipsetVersionEv+0x5c>
0x6000 <_ZN4CamX16ImageFormatUtils17GetChipsetVersionEv+0x68>
<_ZdaPv+0x228>
<_ZN4CamX16ImageFormatUtils17GetChipsetVersionEv+0xf0>

0x12264 <_ZN4CamX16ImageFormatUtils12GetTotalSizeEPKNS_11ImageFormatE+0x6c>
0x12268 <_ZN4CamX16ImageFormatUtils12GetTotalSizeEPKNS_11ImageFormatE+0x70>
<_ZN4CamX16ImageFormatUtils12GetTotalSizeEPKNS_11ImageFormatE+0x6c>
#0, 0x12268 <_ZN4CamX16ImageFormatUtils12GetTotalSizeEPKNS_11ImageFormatE+0x70>
0x6000 <_ZN4CamX16ImageFormatUtils12GetTotalSizeEPKNS_11ImageFormatE+0xc>
<_ZN4CamX16ImageFormatUtils12GetPlaneSizeEPKNS_11ImageFormatEj@plt>
<_ZN4CamX16ImageFormatUtils12GetTotalSizeEPKNS_11ImageFormatE+0x4c>
<_ZN4CamX16ImageFormatUtils12GetTotalSizeEPKNS_11ImageFormatE+0x70>

0x122a0 <_ZN4CamX16ImageFormatUtils17GetNumberOfPlanesEPKNS_11ImageFormatE+0x20>
<_ZN4CamX16ImageFormatUtils17GetNumberOfPlanesEPKNS_11ImageFormatE+0x20>
0x6000 <_ZN4CamX16ImageFormatUtils12GetTotalSizeEPKNS_11ImageFormatE+0x68>

0x12470 <_ZN4CamX16ImageFormatUtils12GetPlaneSizeEPKNS_11ImageFormatEj+0x1c8>
<_ZN4CamX16ImageFormatUtils12GetPlaneSizeEPKNS_11ImageFormatEj+0xfc>
0x123a4 <_ZN4CamX16ImageFormatUtils12GetPlaneSizeEPKNS_11ImageFormatEj+0xfc>
0x18000 <_ZN4CamX16ImageFormatUtils12GetPlaneSizeEPKNS_11ImageFormatEj+0x58>
#31, 0x12304 <_ZN4CamX16ImageFormatUtils12GetPlaneSizeEPKNS_11ImageFormatEj+0x5c>
0x19000 <_ZN4CamX16ImageFormatUtils12GetPlaneSizeEPKNS_11ImageFormatEj+0x6c>
0x1236c <_ZN4CamX16ImageFormatUtils12GetPlaneSizeEPKNS_11ImageFormatEj+0xc4>
0x6000 <_ZN4CamX16ImageFormatUtils12GetPlaneSizeEPKNS_11ImageFormatEj+0x2c>
0x5000 <_ZN4CamX16ImageFormatUtils12GetPlaneSizeEPKNS_11ImageFormatEj+0x4c>
0x5000 <_ZN4CamX16ImageFormatUtils12GetPlaneSizeEPKNS_11ImageFormatEj+0x54>
0x4000 <_ZN4CamX16ImageFormatUtils12GetPlaneSizeEPKNS_11ImageFormatEj+0x58>
0x4000 <_ZN4CamX16ImageFormatUtils12GetPlaneSizeEPKNS_11ImageFormatEj+0x5c>
<_ZdaPv+0x228>
<_ZN4CamX16ImageFormatUtils12GetPlaneSizeEPKNS_11ImageFormatEj+0x1e8>
<_ZN4CamX16ImageFormatUtils12GetPlaneSizeEPKNS_11ImageFormatEj+0x1e8>
0x12474 <_ZN4CamX16ImageFormatUtils12GetPlaneSizeEPKNS_11ImageFormatEj+0x1cc>
<_ZN4CamX16ImageFormatUtils12GetPlaneSizeEPKNS_11ImageFormatEj+0x1cc>
0x6000 <_ZN4CamX16ImageFormatUtils12GetPlaneSizeEPKNS_11ImageFormatEj+0xdc>
<_ZN4CamX16ImageFormatUtils12GetPlaneSizeEPKNS_11ImageFormatEj+0x1cc>
<_ZN4CamX16ImageFormatUtils12GetPlaneSizeEPKNS_11ImageFormatEj+0x178>
<_ZN4CamX16ImageFormatUtils12GetPlaneSizeEPKNS_11ImageFormatEj+0x190>
0x12470 <_ZN4CamX16ImageFormatUtils12GetPlaneSizeEPKNS_11ImageFormatEj+0x1c8>
<_ZN4CamX16ImageFormatUtils10GetRawSizeEPKNS_11ImageFormatE@plt>
<_ZN4CamX16ImageFormatUtils12GetPlaneSizeEPKNS_11ImageFormatEj+0x1a8>
<_ZN4CamX16ImageFormatUtils12GetPlaneSizeEPKNS_11ImageFormatEj+0x1a8>
<_ZN4CamX16ImageFormatUtils12GetPlaneSizeEPKNS_11ImageFormatEj+0x1cc>
<_ZN4CamX16ImageFormatUtils12GetPlaneSizeEPKNS_11ImageFormatEj+0x1c8>
0x12474 <_ZN4CamX16ImageFormatUtils12GetPlaneSizeEPKNS_11ImageFormatEj+0x1cc>
0x12474 <_ZN4CamX16ImageFormatUtils12GetPlaneSizeEPKNS_11ImageFormatEj+0x1cc>
<_ZN4CamX16ImageFormatUtils12GetPlaneSizeEPKNS_11ImageFormatEj+0x1cc>
0x12474 <_ZN4CamX16ImageFormatUtils12GetPlaneSizeEPKNS_11ImageFormatEj+0x1cc>
<_ZN4CamX16ImageFormatUtils12GetPlaneSizeEPKNS_11ImageFormatEj+0xfc>
0x1259c <_ZN4CamX16ImageFormatUtils12GetPlaneSizeEPKNS_11ImageFormatEj+0x2f4>
0x18000 <_ZN4CamX16ImageFormatUtils12GetPlaneSizeEPKNS_11ImageFormatEj+0x258>
#0, 0x12520 <_ZN4CamX16ImageFormatUtils12GetPlaneSizeEPKNS_11ImageFormatEj+0x278>
0x19000 <_ZN4CamX16ImageFormatUtils12GetPlaneSizeEPKNS_11ImageFormatEj+0x288>
0x12450 <_ZN4CamX16ImageFormatUtils12GetPlaneSizeEPKNS_11ImageFormatEj+0x1a8>
0x6000 <_ZN4CamX16ImageFormatUtils12GetPlaneSizeEPKNS_11ImageFormatEj+0x248>
0x5000 <_ZN4CamX16ImageFormatUtils12GetPlaneSizeEPKNS_11ImageFormatEj+0x268>
0x6000 <_ZN4CamX16ImageFormatUtils12GetPlaneSizeEPKNS_11ImageFormatEj+0x270>
0x5000 <_ZN4CamX16ImageFormatUtils12GetPlaneSizeEPKNS_11ImageFormatEj+0x270>
0x4000 <_ZN4CamX16ImageFormatUtils12GetPlaneSizeEPKNS_11ImageFormatEj+0x270>
<_ZdaPv+0x228>
<_ZN4CamX16ImageFormatUtils12GetPlaneSizeEPKNS_11ImageFormatEj+0x1a8>
<_ZN4CamX16ImageFormatUtils12GetPlaneSizeEPKNS_11ImageFormatEj+0x1a8>
0x18000 <_ZN4CamX16ImageFormatUtils12GetPlaneSizeEPKNS_11ImageFormatEj+0x324>
#0, 0x125fc <_ZN4CamX16ImageFormatUtils12GetPlaneSizeEPKNS_11ImageFormatEj+0x354>
0x19000 <_ZN4CamX16ImageFormatUtils12GetPlaneSizeEPKNS_11ImageFormatEj+0x364>
0x12450 <_ZN4CamX16ImageFormatUtils12GetPlaneSizeEPKNS_11ImageFormatEj+0x1a8>
0x6000 <_ZN4CamX16ImageFormatUtils12GetPlaneSizeEPKNS_11ImageFormatEj+0x324>
0x5000 <_ZN4CamX16ImageFormatUtils12GetPlaneSizeEPKNS_11ImageFormatEj+0x340>
0x4000 <_ZN4CamX16ImageFormatUtils12GetPlaneSizeEPKNS_11ImageFormatEj+0x340>
0x5000 <_ZN4CamX16ImageFormatUtils12GetPlaneSizeEPKNS_11ImageFormatEj+0x348>
0x4000 <_ZN4CamX16ImageFormatUtils12GetPlaneSizeEPKNS_11ImageFormatEj+0x348>
<_ZdaPv+0x228>
<_ZN4CamX16ImageFormatUtils12GetPlaneSizeEPKNS_11ImageFormatEj+0x1a8>

<_ZN4CamX16ImageFormatUtils6IsUBWCENS_6FormatE+0x28>
<_ZN4CamX16ImageFormatUtils6IsUBWCENS_6FormatE+0x28>

0x126b0 <_ZN4CamX16ImageFormatUtils5IsYUVEPKNS_11ImageFormatE+0x28>
<_ZN4CamX16ImageFormatUtils5IsYUVEPKNS_11ImageFormatE+0x2c>

0x126e4 <_ZN4CamX16ImageFormatUtils5IsRAWEPKNS_11ImageFormatE+0x24>
<_ZN4CamX16ImageFormatUtils5IsRAWEPKNS_11ImageFormatE+0x24>
0x6000 <_ZN4CamX16ImageFormatUtils5IsYUVEPKNS_11ImageFormatE+0x1c>

<_ZN4CamX16ImageFormatUtils10GetRawSizeEPKNS_11ImageFormatE+0xd8>
0x6000 <_ZN4CamX16ImageFormatUtils5IsRAWEPKNS_11ImageFormatE+0x18>
<_ZN4CamX16ImageFormatUtils10GetRawSizeEPKNS_11ImageFormatE+0x130>
<_ZN4CamX16ImageFormatUtils10GetRawSizeEPKNS_11ImageFormatE+0x154>
0x127c8 <_ZN4CamX16ImageFormatUtils10GetRawSizeEPKNS_11ImageFormatE+0xd8>
<_ZN4CamX16ImageFormatUtils10GetRawSizeEPKNS_11ImageFormatE+0xd8>
0x6000 <_ZN4CamX16ImageFormatUtils10GetRawSizeEPKNS_11ImageFormatE+0x88>
0x127c8 <_ZN4CamX16ImageFormatUtils10GetRawSizeEPKNS_11ImageFormatE+0xd8>
0x127c8 <_ZN4CamX16ImageFormatUtils10GetRawSizeEPKNS_11ImageFormatE+0xd8>

<_ZN4CamX16ImageFormatUtils17Is10BitUBWCFormatENS_6FormatE+0x10>
<_ZN4CamX16ImageFormatUtils17Is10BitUBWCFormatENS_6FormatE+0x18>

<_ZN4CamX16ImageFormatUtils16Is8BitUBWCFormatENS_6FormatE+0x28>

<_ZN4CamX16ImageFormatUtils13Is10BitFormatENS_6FormatE+0x1c>
0x6000 <_ZN4CamX16ImageFormatUtils16Is8BitUBWCFormatENS_6FormatE+0xc>

<_ZN4CamX16ImageFormatUtils12Is8BitFormatENS_6FormatE+0x1c>
0x6000 <_ZN4CamX16ImageFormatUtils13Is10BitFormatENS_6FormatE+0x4>


<_ZN4CamX16ImageFormatUtils15SetupUBWCPlanesEPNS_11ImageFormatE+0x58>
0x6000 <_ZN4CamX16ImageFormatUtils15IsUHDResolutionEjj+0xc>
0x6000 <_ZN4CamX16ImageFormatUtils15IsUHDResolutionEjj+0x10>
<_ZN4CamX16ImageFormatUtils15SetupUBWCPlanesEPNS_11ImageFormatE+0xb8>
0x6000 <_ZN4CamX16ImageFormatUtils15SetupUBWCPlanesEPNS_11ImageFormatE+0x28>
0x6000 <_ZN4CamX16ImageFormatUtils15SetupUBWCPlanesEPNS_11ImageFormatE+0x4c>
0x5000 <_ZN4CamX16ImageFormatUtils15SetupUBWCPlanesEPNS_11ImageFormatE+0x54>
0x4000 <_ZN4CamX16ImageFormatUtils15SetupUBWCPlanesEPNS_11ImageFormatE+0x54>
0x6000 <_ZN4CamX16ImageFormatUtils15SetupUBWCPlanesEPNS_11ImageFormatE+0x60>
<_ZdaPv+0x228>
<_ZN4CamX16ImageFormatUtils12GetPlaneSizeEPKNS_11ImageFormatEj@plt>
<_ZN4CamX16ImageFormatUtils12GetPlaneSizeEPKNS_11ImageFormatEj@plt>

<_ZN4CamX16ImageFormatUtils15GetUBWCTileInfoEPKNS_11ImageFormatE+0x58>
0x6000 <_ZN4CamX16ImageFormatUtils15SetupUBWCPlanesEPNS_11ImageFormatE+0x248>
<_ZN4CamX16ImageFormatUtils15GetUBWCTileInfoEPKNS_11ImageFormatE+0x48>
<_ZN4CamX16ImageFormatUtils15GetUBWCTileInfoEPKNS_11ImageFormatE+0x48>
0x6000 <_ZN4CamX16ImageFormatUtils15GetUBWCTileInfoEPKNS_11ImageFormatE+0x1c>

<_ZN4CamX16ImageFormatUtils16GetBytesPerPixelEPKNS_11ImageFormatE+0xa0>
0x6000 <_ZN4CamX16ImageFormatUtils15GetUBWCTileInfoEPKNS_11ImageFormatE+0x44>
<_ZN4CamX16ImageFormatUtils16GetBytesPerPixelEPKNS_11ImageFormatE+0xa0>
0x6000 <_ZN4CamX16ImageFormatUtils16GetBytesPerPixelEPKNS_11ImageFormatE+0x64>

<_ZN4CamX7Gralloc18SetGrallocMetaDataEPKNS_12NativeHandleEjjPv+0x2860>
0x12d38 <_ZN4CamX16ImageFormatUtils9GetFormatERNS_17GrallocPropertiesERNS_6FormatE+0x68>
<_ZN4CamX7Gralloc18SetGrallocMetaDataEPKNS_12NativeHandleEjjPv+0x2f80>
<_ZN4CamX16ImageFormatUtils9GetFormatERNS_17GrallocPropertiesERNS_6FormatE+0x7c>
<_ZN4CamX16ImageFormatUtils9GetFormatERNS_17GrallocPropertiesERNS_6FormatE+0x54>

<_ZN4CamX7Gralloc18SetGrallocMetaDataEPKNS_12NativeHandleEjjPv+0x2860>
0x12d80 <_ZN4CamX16ImageFormatUtils18ValidateBufferSizeEPvm+0x30>
<_ZN4CamX7Gralloc18SetGrallocMetaDataEPKNS_12NativeHandleEjjPv+0x4978>

<_ZN4CamX7Gralloc18SetGrallocMetaDataEPKNS_12NativeHandleEjjPv+0x2860>
0x12dd8 <_ZN4CamX16ImageFormatUtils22GetUnalignedBufferSizeEPvmNS_6FormatEPm+0x48>
<_ZN4CamX7Gralloc18SetGrallocMetaDataEPKNS_12NativeHandleEjjPv+0x4df0>

<_ZN4CamX7Gralloc18SetGrallocMetaDataEPKNS_12NativeHandleEjjPv+0x2860>
0x12e84 <_ZN4CamX16ImageFormatUtils22InitializeFormatParamsEPNS_11ImageFormatEPNS_15FormatParamInfoE+0x94>
<_ZN4CamX16ImageFormatUtils22InitializeFormatParamsEPNS_11ImageFormatEPNS_15FormatParamInfoE+0x8c>
#0, 0x12e94 <_ZN4CamX16ImageFormatUtils22InitializeFormatParamsEPNS_11ImageFormatEPNS_15FormatParamInfoE+0xa4>
<_ZN4CamX16ImageFormatUtils22InitializeFormatParamsEPNS_11ImageFormatEPNS_15FormatParamInfoE+0xb4>
<_ZN4CamX16ImageFormatUtils22InitializeFormatParamsEPNS_11ImageFormatEPNS_15FormatParamInfoE+0xb4>
0x6000 <_ZN4CamX16ImageFormatUtils22InitializeFormatParamsEPNS_11ImageFormatEPNS_15FormatParamInfoE+0x74>
0x12ef8 <_ZN4CamX16ImageFormatUtils22InitializeFormatParamsEPNS_11ImageFormatEPNS_15FormatParamInfoE+0x108>
<_ZN4CamX16ImageFormatUtils25InitializeRawFormatParamsEPNS_11ImageFormatEPNS_15FormatParamInfoE@plt>
<_ZN4CamX16ImageFormatUtils22InitializeFormatParamsEPNS_11ImageFormatEPNS_15FormatParamInfoE+0x820>
<_ZN4CamX16ImageFormatUtils22InitializeFormatParamsEPNS_11ImageFormatEPNS_15FormatParamInfoE+0x944>
<_ZN4CamX16ImageFormatUtils22InitializeFormatParamsEPNS_11ImageFormatEPNS_15FormatParamInfoE+0x814>
0x6000 <_ZN4CamX16ImageFormatUtils22InitializeFormatParamsEPNS_11ImageFormatEPNS_15FormatParamInfoE+0xe4>
0x18000 <_ZN4CamX16ImageFormatUtils22InitializeFormatParamsEPNS_11ImageFormatEPNS_15FormatParamInfoE+0x148>
0x19000 <_ZN4CamX16ImageFormatUtils22InitializeFormatParamsEPNS_11ImageFormatEPNS_15FormatParamInfoE+0x150>
<_ZN4CamX16ImageFormatUtils22InitializeFormatParamsEPNS_11ImageFormatEPNS_15FormatParamInfoE+0x1f8>
0x17000 <_ZN4CamX16ImageFormatUtils22InitializeFormatParamsEPNS_11ImageFormatEPNS_15FormatParamInfoE+0x18c>
#4, 0x12f84 <_ZN4CamX16ImageFormatUtils22InitializeFormatParamsEPNS_11ImageFormatEPNS_15FormatParamInfoE+0x194>
0x1306c <_ZN4CamX16ImageFormatUtils22InitializeFormatParamsEPNS_11ImageFormatEPNS_15FormatParamInfoE+0x27c>
0x5000 <_ZN4CamX16ImageFormatUtils22InitializeFormatParamsEPNS_11ImageFormatEPNS_15FormatParamInfoE+0x160>
0x5000 <_ZN4CamX16ImageFormatUtils22InitializeFormatParamsEPNS_11ImageFormatEPNS_15FormatParamInfoE+0x180>
0x5000 <_ZN4CamX16ImageFormatUtils22InitializeFormatParamsEPNS_11ImageFormatEPNS_15FormatParamInfoE+0x184>
0x5000 <_ZN4CamX16ImageFormatUtils22InitializeFormatParamsEPNS_11ImageFormatEPNS_15FormatParamInfoE+0x188>
0x5000 <_ZN4CamX16ImageFormatUtils22InitializeFormatParamsEPNS_11ImageFormatEPNS_15FormatParamInfoE+0x18c>
<_ZN4CamX16ImageFormatUtils22InitializeFormatParamsEPNS_11ImageFormatEPNS_15FormatParamInfoE+0x278>
<_ZN4CamX16ImageFormatUtils22InitializeFormatParamsEPNS_11ImageFormatEPNS_15FormatParamInfoE+0x424>
0x1311c <_ZN4CamX16ImageFormatUtils22InitializeFormatParamsEPNS_11ImageFormatEPNS_15FormatParamInfoE+0x32c>
<_ZN4CamX16ImageFormatUtils22InitializeFormatParamsEPNS_11ImageFormatEPNS_15FormatParamInfoE+0x814>
#4, 0x13010 <_ZN4CamX16ImageFormatUtils22InitializeFormatParamsEPNS_11ImageFormatEPNS_15FormatParamInfoE+0x220>
0x1306c <_ZN4CamX16ImageFormatUtils22InitializeFormatParamsEPNS_11ImageFormatEPNS_15FormatParamInfoE+0x27c>
0x5000 <_ZN4CamX16ImageFormatUtils22InitializeFormatParamsEPNS_11ImageFormatEPNS_15FormatParamInfoE+0x1e8>
0x5000 <_ZN4CamX16ImageFormatUtils22InitializeFormatParamsEPNS_11ImageFormatEPNS_15FormatParamInfoE+0x208>
0x6000 <_ZN4CamX16ImageFormatUtils22InitializeFormatParamsEPNS_11ImageFormatEPNS_15FormatParamInfoE+0x210>
0x5000 <_ZN4CamX16ImageFormatUtils22InitializeFormatParamsEPNS_11ImageFormatEPNS_15FormatParamInfoE+0x210>
0x5000 <_ZN4CamX16ImageFormatUtils22InitializeFormatParamsEPNS_11ImageFormatEPNS_15FormatParamInfoE+0x214>
<_ZdaPv+0x228>
<_ZN4CamX16ImageFormatUtils22InitializeFormatParamsEPNS_11ImageFormatEPNS_15FormatParamInfoE+0x2a4>
#31, 0x130ac <_ZN4CamX16ImageFormatUtils22InitializeFormatParamsEPNS_11ImageFormatEPNS_15FormatParamInfoE+0x2bc>
<_ZN4CamX16ImageFormatUtils22InitializeFormatParamsEPNS_11ImageFormatEPNS_15FormatParamInfoE+0x2c4>
#31, 0x130b4 <_ZN4CamX16ImageFormatUtils22InitializeFormatParamsEPNS_11ImageFormatEPNS_15FormatParamInfoE+0x2c4>
0x13114 <_ZN4CamX16ImageFormatUtils22InitializeFormatParamsEPNS_11ImageFormatEPNS_15FormatParamInfoE+0x324>
0x6000 <_ZN4CamX16ImageFormatUtils22InitializeFormatParamsEPNS_11ImageFormatEPNS_15FormatParamInfoE+0x290>
0x5000 <_ZN4CamX16ImageFormatUtils22InitializeFormatParamsEPNS_11ImageFormatEPNS_15FormatParamInfoE+0x2ac>
0x4000 <_ZN4CamX16ImageFormatUtils22InitializeFormatParamsEPNS_11ImageFormatEPNS_15FormatParamInfoE+0x2b0>
0x4000 <_ZN4CamX16ImageFormatUtils22InitializeFormatParamsEPNS_11ImageFormatEPNS_15FormatParamInfoE+0x2b4>
0x4000 <_ZN4CamX16ImageFormatUtils22InitializeFormatParamsEPNS_11ImageFormatEPNS_15FormatParamInfoE+0x2b8>
<_ZdaPv+0x228>
0x1313c <_ZN4CamX16ImageFormatUtils22InitializeFormatParamsEPNS_11ImageFormatEPNS_15FormatParamInfoE+0x34c>
0x1313c <_ZN4CamX16ImageFormatUtils22InitializeFormatParamsEPNS_11ImageFormatEPNS_15FormatParamInfoE+0x34c>
<_ZN4CamX7Gralloc18SetGrallocMetaDataEPKNS_12NativeHandleEjjPv+0x3910>
<_ZN4CamX16ImageFormatUtils22InitializeFormatParamsEPNS_11ImageFormatEPNS_15FormatParamInfoE+0x820>
<_ZN4CamX16ImageFormatUtils22InitializeFormatParamsEPNS_11ImageFormatEPNS_15FormatParamInfoE+0x944>
<_ZN4CamX16ImageFormatUtils15SetupUBWCPlanesEPNS_11ImageFormatE@plt>
<_ZN4CamX16ImageFormatUtils22InitializeFormatParamsEPNS_11ImageFormatEPNS_15FormatParamInfoE+0x820>
<_ZN4CamX16ImageFormatUtils22InitializeFormatParamsEPNS_11ImageFormatEPNS_15FormatParamInfoE+0x944>
<_ZN4CamX16ImageFormatUtils12GetPlaneSizeEPKNS_11ImageFormatEj@plt>
<_ZN4CamX16ImageFormatUtils22InitializeFormatParamsEPNS_11ImageFormatEPNS_15FormatParamInfoE+0x804>
0x13574 <_ZN4CamX16ImageFormatUtils22InitializeFormatParamsEPNS_11ImageFormatEPNS_15FormatParamInfoE+0x784>
0x13574 <_ZN4CamX16ImageFormatUtils22InitializeFormatParamsEPNS_11ImageFormatEPNS_15FormatParamInfoE+0x784>
<_ZN4CamX16ImageFormatUtils22InitializeFormatParamsEPNS_11ImageFormatEPNS_15FormatParamInfoE+0x7f4>
<_ZN4CamX16ImageFormatUtils12GetPlaneSizeEPKNS_11ImageFormatEj@plt>
<_ZN4CamX16ImageFormatUtils22InitializeFormatParamsEPNS_11ImageFormatEPNS_15FormatParamInfoE+0x804>
0x136e4 <_ZN4CamX16ImageFormatUtils22InitializeFormatParamsEPNS_11ImageFormatEPNS_15FormatParamInfoE+0x8f4>
0x136e4 <_ZN4CamX16ImageFormatUtils22InitializeFormatParamsEPNS_11ImageFormatEPNS_15FormatParamInfoE+0x8f4>
<_ZN4CamX16ImageFormatUtils22InitializeFormatParamsEPNS_11ImageFormatEPNS_15FormatParamInfoE+0x928>
<_ZN4CamX16ImageFormatUtils22InitializeFormatParamsEPNS_11ImageFormatEPNS_15FormatParamInfoE+0x814>
<_ZN4CamX16ImageFormatUtils22InitializeFormatParamsEPNS_11ImageFormatEPNS_15FormatParamInfoE+0x820>
<_ZN4CamX16ImageFormatUtils22InitializeFormatParamsEPNS_11ImageFormatEPNS_15FormatParamInfoE+0x944>
<_ZN4CamX16ImageFormatUtils12GetPlaneSizeEPKNS_11ImageFormatEj@plt>
<_ZN4CamX16ImageFormatUtils22InitializeFormatParamsEPNS_11ImageFormatEPNS_15FormatParamInfoE+0x820>
<_ZN4CamX16ImageFormatUtils22InitializeFormatParamsEPNS_11ImageFormatEPNS_15FormatParamInfoE+0x944>
<_ZN4CamX16ImageFormatUtils22InitializeFormatParamsEPNS_11ImageFormatEPNS_15FormatParamInfoE+0x928>
<_ZN4CamX16ImageFormatUtils12GetPlaneSizeEPKNS_11ImageFormatEj@plt>
<_ZN4CamX16ImageFormatUtils22InitializeFormatParamsEPNS_11ImageFormatEPNS_15FormatParamInfoE+0x804>
<_ZN4CamX16ImageFormatUtils12GetPlaneSizeEPKNS_11ImageFormatEj@plt>
<_ZN4CamX16ImageFormatUtils22InitializeFormatParamsEPNS_11ImageFormatEPNS_15FormatParamInfoE+0x804>
<_ZN4CamX16ImageFormatUtils12GetPlaneSizeEPKNS_11ImageFormatEj@plt>
<_ZN4CamX16ImageFormatUtils12GetPlaneSizeEPKNS_11ImageFormatEj@plt>
<_ZN4CamX16ImageFormatUtils22InitializeFormatParamsEPNS_11ImageFormatEPNS_15FormatParamInfoE+0x944>
<_ZN4CamX16ImageFormatUtils22InitializeFormatParamsEPNS_11ImageFormatEPNS_15FormatParamInfoE+0x8d8>
<_ZN4CamX16ImageFormatUtils22InitializeFormatParamsEPNS_11ImageFormatEPNS_15FormatParamInfoE+0x980>
<_ZN4CamX16ImageFormatUtils22InitializeFormatParamsEPNS_11ImageFormatEPNS_15FormatParamInfoE+0x990>
0x18000 <_ZN4CamX16ImageFormatUtils22InitializeFormatParamsEPNS_11ImageFormatEPNS_15FormatParamInfoE+0x868>
#31, 0x13668 <_ZN4CamX16ImageFormatUtils22InitializeFormatParamsEPNS_11ImageFormatEPNS_15FormatParamInfoE+0x878>
0x19000 <_ZN4CamX16ImageFormatUtils22InitializeFormatParamsEPNS_11ImageFormatEPNS_15FormatParamInfoE+0x884>
0x137a0 <_ZN4CamX16ImageFormatUtils22InitializeFormatParamsEPNS_11ImageFormatEPNS_15FormatParamInfoE+0x9b0>
0x6000 <_ZN4CamX16ImageFormatUtils22InitializeFormatParamsEPNS_11ImageFormatEPNS_15FormatParamInfoE+0x844>
0x5000 <_ZN4CamX16ImageFormatUtils22InitializeFormatParamsEPNS_11ImageFormatEPNS_15FormatParamInfoE+0x864>
0x5000 <_ZN4CamX16ImageFormatUtils22InitializeFormatParamsEPNS_11ImageFormatEPNS_15FormatParamInfoE+0x868>
0x4000 <_ZN4CamX16ImageFormatUtils22InitializeFormatParamsEPNS_11ImageFormatEPNS_15FormatParamInfoE+0x868>
0x4000 <_ZN4CamX16ImageFormatUtils22InitializeFormatParamsEPNS_11ImageFormatEPNS_15FormatParamInfoE+0x86c>
<_ZdaPv+0x228>
<_ZN4CamX16ImageFormatUtils22InitializeFormatParamsEPNS_11ImageFormatEPNS_15FormatParamInfoE+0x990>
<_ZN4CamX16ImageFormatUtils22InitializeFormatParamsEPNS_11ImageFormatEPNS_15FormatParamInfoE+0x944>
<_ZN4CamX16ImageFormatUtils22InitializeFormatParamsEPNS_11ImageFormatEPNS_15FormatParamInfoE+0x990>
<_ZN4CamX16ImageFormatUtils12GetPlaneSizeEPKNS_11ImageFormatEj@plt>
<_ZN4CamX16ImageFormatUtils22InitializeFormatParamsEPNS_11ImageFormatEPNS_15FormatParamInfoE+0x820>
<_ZN4CamX16ImageFormatUtils22InitializeFormatParamsEPNS_11ImageFormatEPNS_15FormatParamInfoE+0x970>
<_ZN4CamX16ImageFormatUtils22InitializeFormatParamsEPNS_11ImageFormatEPNS_15FormatParamInfoE+0x97c>
<_ZN4CamX16ImageFormatUtils22InitializeFormatParamsEPNS_11ImageFormatEPNS_15FormatParamInfoE+0x988>
<_ZN4CamX16ImageFormatUtils22InitializeFormatParamsEPNS_11ImageFormatEPNS_15FormatParamInfoE+0x990>
0x1387c <_ZN4CamX16ImageFormatUtils22InitializeFormatParamsEPNS_11ImageFormatEPNS_15FormatParamInfoE+0xa8c>
<_ZN4CamX16ImageFormatUtils22InitializeFormatParamsEPNS_11ImageFormatEPNS_15FormatParamInfoE+0x970>
<_ZN4CamX16ImageFormatUtils22InitializeFormatParamsEPNS_11ImageFormatEPNS_15FormatParamInfoE+0xa60>
<_ZN4CamX16ImageFormatUtils22InitializeFormatParamsEPNS_11ImageFormatEPNS_15FormatParamInfoE+0xa60>
0x13850 <_ZN4CamX16ImageFormatUtils22InitializeFormatParamsEPNS_11ImageFormatEPNS_15FormatParamInfoE+0xa60>
0x18000 <_ZN4CamX16ImageFormatUtils22InitializeFormatParamsEPNS_11ImageFormatEPNS_15FormatParamInfoE+0x9cc>
#31, 0x137c4 <_ZN4CamX16ImageFormatUtils22InitializeFormatParamsEPNS_11ImageFormatEPNS_15FormatParamInfoE+0x9d4>
0x19000 <_ZN4CamX16ImageFormatUtils22InitializeFormatParamsEPNS_11ImageFormatEPNS_15FormatParamInfoE+0x9e0>
0x13850 <_ZN4CamX16ImageFormatUtils22InitializeFormatParamsEPNS_11ImageFormatEPNS_15FormatParamInfoE+0xa60>
0x6000 <_ZN4CamX16ImageFormatUtils22InitializeFormatParamsEPNS_11ImageFormatEPNS_15FormatParamInfoE+0x9a0>
0x5000 <_ZN4CamX16ImageFormatUtils22InitializeFormatParamsEPNS_11ImageFormatEPNS_15FormatParamInfoE+0x9e4>
0x6000 <_ZN4CamX16ImageFormatUtils22InitializeFormatParamsEPNS_11ImageFormatEPNS_15FormatParamInfoE+0x9f0>
0x4000 <_ZN4CamX16ImageFormatUtils22InitializeFormatParamsEPNS_11ImageFormatEPNS_15FormatParamInfoE+0x9f0>
0x4000 <_ZN4CamX16ImageFormatUtils22InitializeFormatParamsEPNS_11ImageFormatEPNS_15FormatParamInfoE+0x9f4>
<_ZdaPv+0x228>
<_ZN4CamX16ImageFormatUtils22InitializeFormatParamsEPNS_11ImageFormatEPNS_15FormatParamInfoE+0xab4>
<_ZN4CamX16ImageFormatUtils22InitializeFormatParamsEPNS_11ImageFormatEPNS_15FormatParamInfoE+0xa70>

<_ZN4CamX7Gralloc18SetGrallocMetaDataEPKNS_12NativeHandleEjjPv+0x2860>
0x17000 <_ZN4CamX16ImageFormatUtils25InitializeRawFormatParamsEPNS_11ImageFormatEPNS_15FormatParamInfoE+0x44>
0x1399c <_ZN4CamX16ImageFormatUtils25InitializeRawFormatParamsEPNS_11ImageFormatEPNS_15FormatParamInfoE+0xf4>
0x5000 <_ZN4CamX16ImageFormatUtils25InitializeRawFormatParamsEPNS_11ImageFormatEPNS_15FormatParamInfoE+0x14>
<_ZN4CamX16ImageFormatUtils25InitializeRawFormatParamsEPNS_11ImageFormatEPNS_15FormatParamInfoE+0x90>
<_ZN4CamX16ImageFormatUtils25InitializeRawFormatParamsEPNS_11ImageFormatEPNS_15FormatParamInfoE+0x98>
<_ZN4CamX16ImageFormatUtils25InitializeRawFormatParamsEPNS_11ImageFormatEPNS_15FormatParamInfoE+0xe8>
<_ZN4CamX16ImageFormatUtils25InitializeRawFormatParamsEPNS_11ImageFormatEPNS_15FormatParamInfoE+0xf0>
0x6000 <_ZN4CamX16ImageFormatUtils25InitializeRawFormatParamsEPNS_11ImageFormatEPNS_15FormatParamInfoE+0x64>
0x6000 <_ZN4CamX16ImageFormatUtils25InitializeRawFormatParamsEPNS_11ImageFormatEPNS_15FormatParamInfoE+0x80>
0x4000 <_ZN4CamX16ImageFormatUtils25InitializeRawFormatParamsEPNS_11ImageFormatEPNS_15FormatParamInfoE+0x7c>
0x4000 <_ZN4CamX16ImageFormatUtils25InitializeRawFormatParamsEPNS_11ImageFormatEPNS_15FormatParamInfoE+0x80>
0x6000 <_ZN4CamX16ImageFormatUtils25InitializeRawFormatParamsEPNS_11ImageFormatEPNS_15FormatParamInfoE+0x8c>
<_ZdaPv+0x228>
0x18000 <_ZN4CamX16ImageFormatUtils25InitializeRawFormatParamsEPNS_11ImageFormatEPNS_15FormatParamInfoE+0x11c>
0x19000 <_ZN4CamX16ImageFormatUtils25InitializeRawFormatParamsEPNS_11ImageFormatEPNS_15FormatParamInfoE+0x124>
<_ZN4CamX16ImageFormatUtils25InitializeRawFormatParamsEPNS_11ImageFormatEPNS_15FormatParamInfoE+0x41c>
0x6000 <_ZN4CamX16ImageFormatUtils25InitializeRawFormatParamsEPNS_11ImageFormatEPNS_15FormatParamInfoE+0x118>
0x13bf0 <_ZN4CamX16ImageFormatUtils25InitializeRawFormatParamsEPNS_11ImageFormatEPNS_15FormatParamInfoE+0x348>
<_ZN4CamX16ImageFormatUtils25InitializeRawFormatParamsEPNS_11ImageFormatEPNS_15FormatParamInfoE+0x348>
<_ZN4CamX16ImageFormatUtils25InitializeRawFormatParamsEPNS_11ImageFormatEPNS_15FormatParamInfoE+0x4f0>
#31, 0x13a34 <_ZN4CamX16ImageFormatUtils25InitializeRawFormatParamsEPNS_11ImageFormatEPNS_15FormatParamInfoE+0x18c>
0x13a80 <_ZN4CamX16ImageFormatUtils25InitializeRawFormatParamsEPNS_11ImageFormatEPNS_15FormatParamInfoE+0x1d8>
0x6000 <_ZN4CamX16ImageFormatUtils25InitializeRawFormatParamsEPNS_11ImageFormatEPNS_15FormatParamInfoE+0x158>
0x5000 <_ZN4CamX16ImageFormatUtils25InitializeRawFormatParamsEPNS_11ImageFormatEPNS_15FormatParamInfoE+0x170>
0x6000 <_ZN4CamX16ImageFormatUtils25InitializeRawFormatParamsEPNS_11ImageFormatEPNS_15FormatParamInfoE+0x178>
0x4000 <_ZN4CamX16ImageFormatUtils25InitializeRawFormatParamsEPNS_11ImageFormatEPNS_15FormatParamInfoE+0x174>
0x6000 <_ZN4CamX16ImageFormatUtils25InitializeRawFormatParamsEPNS_11ImageFormatEPNS_15FormatParamInfoE+0x180>
<_ZdaPv+0x228>
0x13cc8 <_ZN4CamX16ImageFormatUtils25InitializeRawFormatParamsEPNS_11ImageFormatEPNS_15FormatParamInfoE+0x420>
<_ZN4CamX16ImageFormatUtils25InitializeRawFormatParamsEPNS_11ImageFormatEPNS_15FormatParamInfoE+0x43c>
0x13cc8 <_ZN4CamX16ImageFormatUtils25InitializeRawFormatParamsEPNS_11ImageFormatEPNS_15FormatParamInfoE+0x420>
<_ZN4CamX16ImageFormatUtils25InitializeRawFormatParamsEPNS_11ImageFormatEPNS_15FormatParamInfoE+0x43c>
0x13cc8 <_ZN4CamX16ImageFormatUtils25InitializeRawFormatParamsEPNS_11ImageFormatEPNS_15FormatParamInfoE+0x420>
<_ZN4CamX16ImageFormatUtils25InitializeRawFormatParamsEPNS_11ImageFormatEPNS_15FormatParamInfoE+0x43c>
0x13cc8 <_ZN4CamX16ImageFormatUtils25InitializeRawFormatParamsEPNS_11ImageFormatEPNS_15FormatParamInfoE+0x420>
<_ZN4CamX16ImageFormatUtils25InitializeRawFormatParamsEPNS_11ImageFormatEPNS_15FormatParamInfoE+0x43c>
0x13cc8 <_ZN4CamX16ImageFormatUtils25InitializeRawFormatParamsEPNS_11ImageFormatEPNS_15FormatParamInfoE+0x420>
<_ZN4CamX16ImageFormatUtils25InitializeRawFormatParamsEPNS_11ImageFormatEPNS_15FormatParamInfoE+0x43c>
0x13cc8 <_ZN4CamX16ImageFormatUtils25InitializeRawFormatParamsEPNS_11ImageFormatEPNS_15FormatParamInfoE+0x420>
<_ZN4CamX16ImageFormatUtils25InitializeRawFormatParamsEPNS_11ImageFormatEPNS_15FormatParamInfoE+0x43c>
0x13cc8 <_ZN4CamX16ImageFormatUtils25InitializeRawFormatParamsEPNS_11ImageFormatEPNS_15FormatParamInfoE+0x420>
<_ZN4CamX16ImageFormatUtils25InitializeRawFormatParamsEPNS_11ImageFormatEPNS_15FormatParamInfoE+0x43c>
<_ZN4CamX16ImageFormatUtils25InitializeRawFormatParamsEPNS_11ImageFormatEPNS_15FormatParamInfoE+0x580>
<_ZN4CamX16ImageFormatUtils25InitializeRawFormatParamsEPNS_11ImageFormatEPNS_15FormatParamInfoE+0x580>
0x13cc8 <_ZN4CamX16ImageFormatUtils25InitializeRawFormatParamsEPNS_11ImageFormatEPNS_15FormatParamInfoE+0x420>
<_ZN4CamX16ImageFormatUtils25InitializeRawFormatParamsEPNS_11ImageFormatEPNS_15FormatParamInfoE+0x43c>
#31, 0x13c00 <_ZN4CamX16ImageFormatUtils25InitializeRawFormatParamsEPNS_11ImageFormatEPNS_15FormatParamInfoE+0x358>
0x13c50 <_ZN4CamX16ImageFormatUtils25InitializeRawFormatParamsEPNS_11ImageFormatEPNS_15FormatParamInfoE+0x3a8>
0x6000 <_ZN4CamX16ImageFormatUtils25InitializeRawFormatParamsEPNS_11ImageFormatEPNS_15FormatParamInfoE+0x324>
0x5000 <_ZN4CamX16ImageFormatUtils25InitializeRawFormatParamsEPNS_11ImageFormatEPNS_15FormatParamInfoE+0x33c>
0x5000 <_ZN4CamX16ImageFormatUtils25InitializeRawFormatParamsEPNS_11ImageFormatEPNS_15FormatParamInfoE+0x340>
0x4000 <_ZN4CamX16ImageFormatUtils25InitializeRawFormatParamsEPNS_11ImageFormatEPNS_15FormatParamInfoE+0x340>
0x6000 <_ZN4CamX16ImageFormatUtils25InitializeRawFormatParamsEPNS_11ImageFormatEPNS_15FormatParamInfoE+0x34c>
<_ZdaPv+0x228>
<_ZN4CamX16ImageFormatUtils25InitializeRawFormatParamsEPNS_11ImageFormatEPNS_15FormatParamInfoE+0x5a4>
<_ZN4CamX16ImageFormatUtils25InitializeRawFormatParamsEPNS_11ImageFormatEPNS_15FormatParamInfoE+0x5a4>
0x13ce4 <_ZN4CamX16ImageFormatUtils25InitializeRawFormatParamsEPNS_11ImageFormatEPNS_15FormatParamInfoE+0x43c>
<_ZN4CamX16ImageFormatUtils25InitializeRawFormatParamsEPNS_11ImageFormatEPNS_15FormatParamInfoE+0x43c>
<_ZN4CamX7Gralloc18SetGrallocMetaDataEPKNS_12NativeHandleEjjPv+0x3910>
#31, 0x13cf4 <_ZN4CamX16ImageFormatUtils25InitializeRawFormatParamsEPNS_11ImageFormatEPNS_15FormatParamInfoE+0x44c>
0x13d6c <_ZN4CamX16ImageFormatUtils25InitializeRawFormatParamsEPNS_11ImageFormatEPNS_15FormatParamInfoE+0x4c4>
0x6000 <_ZN4CamX16ImageFormatUtils25InitializeRawFormatParamsEPNS_11ImageFormatEPNS_15FormatParamInfoE+0x418>
0x5000 <_ZN4CamX16ImageFormatUtils25InitializeRawFormatParamsEPNS_11ImageFormatEPNS_15FormatParamInfoE+0x438>
0x4000 <_ZN4CamX16ImageFormatUtils25InitializeRawFormatParamsEPNS_11ImageFormatEPNS_15FormatParamInfoE+0x438>
0x6000 <_ZN4CamX16ImageFormatUtils25InitializeRawFormatParamsEPNS_11ImageFormatEPNS_15FormatParamInfoE+0x448>
0x5000 <_ZN4CamX16ImageFormatUtils25InitializeRawFormatParamsEPNS_11ImageFormatEPNS_15FormatParamInfoE+0x460>
<_ZdaPv+0x228>
<_ZN4CamX16ImageFormatUtils25InitializeRawFormatParamsEPNS_11ImageFormatEPNS_15FormatParamInfoE+0x5c8>
#31, 0x13da8 <_ZN4CamX16ImageFormatUtils25InitializeRawFormatParamsEPNS_11ImageFormatEPNS_15FormatParamInfoE+0x500>
0x13df4 <_ZN4CamX16ImageFormatUtils25InitializeRawFormatParamsEPNS_11ImageFormatEPNS_15FormatParamInfoE+0x54c>
0x6000 <_ZN4CamX16ImageFormatUtils25InitializeRawFormatParamsEPNS_11ImageFormatEPNS_15FormatParamInfoE+0x4cc>
0x5000 <_ZN4CamX16ImageFormatUtils25InitializeRawFormatParamsEPNS_11ImageFormatEPNS_15FormatParamInfoE+0x4e4>
0x5000 <_ZN4CamX16ImageFormatUtils25InitializeRawFormatParamsEPNS_11ImageFormatEPNS_15FormatParamInfoE+0x4e8>
0x4000 <_ZN4CamX16ImageFormatUtils25InitializeRawFormatParamsEPNS_11ImageFormatEPNS_15FormatParamInfoE+0x4e8>
0x6000 <_ZN4CamX16ImageFormatUtils25InitializeRawFormatParamsEPNS_11ImageFormatEPNS_15FormatParamInfoE+0x4f4>
<_ZdaPv+0x228>
0x13cc8 <_ZN4CamX16ImageFormatUtils25InitializeRawFormatParamsEPNS_11ImageFormatEPNS_15FormatParamInfoE+0x420>
<_ZN4CamX16ImageFormatUtils25InitializeRawFormatParamsEPNS_11ImageFormatEPNS_15FormatParamInfoE+0x43c>
<_ZN4CamX16ImageFormatUtils25InitializeRawFormatParamsEPNS_11ImageFormatEPNS_15FormatParamInfoE+0x334>
<_ZN4CamX16ImageFormatUtils25InitializeRawFormatParamsEPNS_11ImageFormatEPNS_15FormatParamInfoE+0x410>

0x17000 <_ZN4CamX16ImageFormatUtils24GetUBWCHWVersionExternalEv>

0x17000 <_ZN4CamX16ImageFormatUtils31GetUBWCScaleRatioLimitationFlagEv>

0x17000 <_ZN4CamX16ImageFormatUtils14GetUBWCVersionEv>

0x17000 <_ZN4CamX16ImageFormatUtils18GetUBWCModeConfig1EPKNS_11ImageFormatE>


<_ZN4CamX16ImageFormatUtils17GetUBWCModeConfigEPKNS_11ImageFormatEj+0x80>
0x6000 <_ZN4CamX16ImageFormatUtils17GetUBWCModeConfigEPKNS_11ImageFormatEj>
<_ZN4CamX16ImageFormatUtils17GetUBWCModeConfigEPKNS_11ImageFormatEj+0x80>
<_ZN4CamX16ImageFormatUtils17GetUBWCModeConfigEPKNS_11ImageFormatEj+0x80>
0x17000 <_ZN4CamX16ImageFormatUtils17GetUBWCModeConfigEPKNS_11ImageFormatEj+0x90>
0x18000 <_ZN4CamX16ImageFormatUtils17GetUBWCModeConfigEPKNS_11ImageFormatEj+0xac>
#31, 0x13f90 <_ZN4CamX16ImageFormatUtils17GetUBWCModeConfigEPKNS_11ImageFormatEj+0xc8>
0x19000 <_ZN4CamX16ImageFormatUtils17GetUBWCModeConfigEPKNS_11ImageFormatEj+0xd4>
0x1400c <_ZN4CamX16ImageFormatUtils17GetUBWCModeConfigEPKNS_11ImageFormatEj+0x144>
0x6000 <_ZN4CamX16ImageFormatUtils17GetUBWCModeConfigEPKNS_11ImageFormatEj+0x94>
0x5000 <_ZN4CamX16ImageFormatUtils17GetUBWCModeConfigEPKNS_11ImageFormatEj+0xb4>
0x4000 <_ZN4CamX16ImageFormatUtils17GetUBWCModeConfigEPKNS_11ImageFormatEj+0xb4>
0x4000 <_ZN4CamX16ImageFormatUtils17GetUBWCModeConfigEPKNS_11ImageFormatEj+0xbc>
0x5000 <_ZN4CamX16ImageFormatUtils17GetUBWCModeConfigEPKNS_11ImageFormatEj+0xc4>
<_ZdaPv+0x228>

0x14094 <_ZN4CamX16ImageFormatUtils22GetUBWCPartialTileInfoEPKNS_12UBWCTileInfoEPNS_19UBWCPartialTileInfoEjj+0x6c>
<_ZN4CamX16ImageFormatUtils22GetUBWCPartialTileInfoEPKNS_12UBWCTileInfoEPNS_19UBWCPartialTileInfoEjj+0x58>
0x6000 <_ZN4CamX16ImageFormatUtils22GetUBWCPartialTileInfoEPKNS_12UBWCTileInfoEPNS_19UBWCPartialTileInfoEjj+0x34>
0x6000 <_ZN4CamX16ImageFormatUtils22GetUBWCPartialTileInfoEPKNS_12UBWCTileInfoEPNS_19UBWCPartialTileInfoEjj+0x50>
0x5000 <_ZN4CamX16ImageFormatUtils22GetUBWCPartialTileInfoEPKNS_12UBWCTileInfoEPNS_19UBWCPartialTileInfoEjj+0x58>
0x4000 <_ZN4CamX16ImageFormatUtils22GetUBWCPartialTileInfoEPKNS_12UBWCTileInfoEPNS_19UBWCPartialTileInfoEjj+0x58>
0x4000 <_ZN4CamX16ImageFormatUtils22GetUBWCPartialTileInfoEPKNS_12UBWCTileInfoEPNS_19UBWCPartialTileInfoEjj+0x5c>
<_ZdaPv+0x228>

0x14128 <_Znwm+0x40>
0x14154 <_Znwm+0x6c>
<_Znwm+0x88>
0x1412c <_Znwm+0x44>
<_Znwm+0x44>

0x141b8 <_Znam+0x40>
0x141e4 <_Znam+0x6c>
<_Znam+0x88>
0x141bc <_Znam+0x44>
<_Znam+0x44>

0x14210 <_ZdlPv+0x8>

0x14220 <_ZdaPv+0x8>
<_ZdaPv+0xac>
0x14374 <_ZdaPv+0x15c>
<_ZdaPv+0x1ec>
<_ZdaPv+0x224>
0x14304 <_ZdaPv+0xec>
0x143e8 <_ZdaPv+0x1d0>
0x143e0 <_ZdaPv+0x1c8>
0x1441c <_ZdaPv+0x204>
<_ZdaPv+0x224>
<_ZdaPv+0x1ec>
0x18000 <_ZdaPv+0x25c>
0x19000 <_ZdaPv+0x268>
0x14570 <_ZdaPv+0x358>
0x19000 <_ZdaPv+0x2ac>
0x144cc <_ZdaPv+0x2b4>
<_ZdaPv+0x5b0>
0x14570 <_ZdaPv+0x358>
<_ZN4CamX13OfflineLogger14GetLogInfoMaskEv@plt>
<_ZdaPv+0x358>
0x14524 <_ZdaPv+0x30c>
<_ZdaPv+0x310>
<_ZdaPv+0x578>
<_ZdaPv+0x378>
<_ZdaPv+0x378>
0x14790 <_ZdaPv+0x578>
<_ZdaPv+0x408>
<_ZdaPv+0x3f4>
0x6000 <_ZdaPv+0x3ac>
<_ZdaPv+0x3f8>
0x5000 <_ZdaPv+0x3bc>
<_ZdaPv+0x4fc>
0x19000 <_ZdaPv+0x438>
0x14658 <_ZdaPv+0x440>
<_ZdaPv+0x5b0>
0x14714 <_ZdaPv+0x4fc>
<_ZN4CamX13OfflineLogger21IsEnableOfflineloggerEv@plt>
0x14714 <_ZdaPv+0x4fc>
0x146ec <_ZdaPv+0x4d4>
0x6000 <_ZdaPv+0x454>
<_ZN4CamX22DisplayConfigInterface15SetCameraStatusEj+0x350>
<_ZdaPv+0x4ec>
0x6000 <_ZdaPv+0x49c>
<_ZN4CamX22DisplayConfigInterface15SetCameraStatusEj+0x350>
<_ZN4CamX13OfflineLogger6AddLogEPKcj@plt>
0x14790 <_ZdaPv+0x578>
0x1474c <_ZdaPv+0x534>
<_ZdaPv+0x560>
0x14730 <_ZdaPv+0x518>
0x6000 <_ZdaPv+0x52c>
<_ZdaPv+0x10>
<_ZdaPv+0x5a8>
0x17000 <_ZdaPv+0x5dc>
0x17000 <_ZdaPv+0x5e8>
0x14a44 <_ZdaPv+0x82c>
0x17000 <_ZdaPv+0x600>
<_ZNSt3__15mutex4lockEv@plt>
0x14a38 <_ZdaPv+0x820>
0x17000 <_ZdaPv+0x614>
0x14850 <_ZdaPv+0x638>
<_ZdaPv+0x650>
0x14868 <_ZdaPv+0x650>
<_ZN4CamX13OfflineLoggerC1E17OfflineLoggerType@plt>
<_ZdaPv+0x67c>
<_ZdaPv+0x718>
0x14ab8 <_ZdaPv+0x8a0>
0x148f4 <_ZdaPv+0x6dc>
0x14ad0 <_ZdaPv+0x8b8>
0x14a7c <_ZdaPv+0x864>
<_ZdaPv+0x704>
0x14930 <_ZdaPv+0x718>
0x14950 <_ZdaPv+0x738>
<_ZdaPv+0x750>
0x14968 <_ZdaPv+0x750>
<_ZN4CamX13OfflineLoggerC1E17OfflineLoggerType@plt>
<_ZdaPv+0x77c>
<_ZdaPv+0x818>
0x14ac4 <_ZdaPv+0x8ac>
0x149f4 <_ZdaPv+0x7dc>
0x14adc <_ZdaPv+0x8c4>
0x14a98 <_ZdaPv+0x880>
<_ZdaPv+0x804>
0x14a30 <_ZdaPv+0x818>
0x17000 <_ZdaPv+0x82c>
<_ZNSt3__15mutex6unlockEv@plt>
<_ZdaPv+0x89c>
0x148f8 <_ZdaPv+0x6e0>
<_ZdaPv+0x6e0>
0x149f8 <_ZdaPv+0x7e0>
<_ZdaPv+0x7e0>
0x17000 <_ZdaPv+0x8ac>
<_ZNKSt3__120__vector_base_commonILb1EE20__throw_length_errorEv@plt>
0x17000 <_ZdaPv+0x8b8>
<_ZNKSt3__120__vector_base_commonILb1EE20__throw_length_errorEv@plt>
0x4000 <_ZdaPv+0x878>
<_ZdaPv+0x908>
0x4000 <_ZdaPv+0x884>
<_ZdaPv+0x908>
<_ZdaPv+0x8d4>
0x14b08 <_ZdaPv+0x8f0>
<_ZdaPv+0x8f0>
<_ZdaPv+0x8ec>
0x17000 <_ZdaPv+0x8fc>
<_ZNSt3__15mutex6unlockEv@plt>
<_ZdaPv+0x958>
0x17000 <_ZdaPv+0x938>
0x17000 <_ZdaPv+0x93c>
<_ZNSt11logic_errorC2EPKc@plt>
0x17000 <_ZdaPv+0x978>
0x6000 <_ZdaPv+0x958>
<_ZdaPv+0xb0>
0x19000 <_ZdaPv+0x9b0>
0x14bf0 <_ZdaPv+0x9d8>
0x14be0 <_ZdaPv+0x9c8>
0x14c08 <_ZdaPv+0x9f0>
0x19000 <_ZdaPv+0xa34>
0x14c90 <_ZdaPv+0xa78>
<_ZdaPv+0xa80>
0x14cac <_ZdaPv+0xa94>
<_ZdaPv+0xb08>
<_ZdaPv+0xb08>
0x14d20 <_ZdaPv+0xb08>
<_ZdaPv+0xae0>
0x14d20 <_ZdaPv+0xb08>
<_ZdaPv+0xb08>
<_ZdaPv+0xaa0>
<_ZdaPv+0xcfc>
<_ZdaPv+0xb08>
<_ZdaPv+0xcfc>
0x14d20 <_ZdaPv+0xb08>
<_ZdaPv+0xad4>
<_ZdaPv+0xacc>
<_ZdaPv+0xacc>
0x14d40 <_ZdaPv+0xb28>
<_ZdaPv+0xb38>
0x14d50 <_ZdaPv+0xb38>
0x14d80 <_ZdaPv+0xb68>
<_ZdaPv+0xc74>
<_ZdaPv+0xba4>
<_ZdaPv+0xbb8>
<_ZdaPv+0xbb8>
<_ZNSt3__112__next_primeEm@plt>
<_ZdaPv+0xbd0>
<_ZdaPv+0xd48>
<_ZdaPv+0xc40>
<_ZdaPv+0xc40>
<_ZdaPv+0xc28>
<_ZdaPv+0xc28>
<_ZdaPv+0xc2c>
<_ZNSt3__112__next_primeEm@plt>
<_ZdaPv+0xc40>
<_ZdaPv+0xd48>
<_ZdaPv+0xc6c>
<_ZdaPv+0xc90>
0x14e98 <_ZdaPv+0xc80>
<_ZdaPv+0xca4>
0x14ebc <_ZdaPv+0xca4>
<_ZdaPv+0xcf0>
0x14e98 <_ZdaPv+0xc80>
0x14f08 <_ZdaPv+0xcf0>
<_ZdaPv+0xce4>
<_ZdaPv+0xce8>
<_ZdaPv+0xce8>
<_ZdaPv+0xd28>
0x14f54 <_ZdaPv+0xd3c>
0x14fb4 <_ZdaPv+0xd9c>
0x15280 <_ZdaPv+0x1068>
0x14fd4 <_ZdaPv+0xdbc>
<_ZdaPv+0xdd4>
0x19000 <_ZdaPv+0xdb0>
0x14fcc <_ZdaPv+0xdb4>
<_ZdaPv+0xfb0>
0x14fec <_ZdaPv+0xdd4>
0x19000 <_ZdaPv+0xde8>
0x15008 <_ZdaPv+0xdf0>
<_ZdaPv+0xe18>
<_ZdaPv+0xfd4>
<_ZdaPv+0xfd4>
<_ZdaPv+0xe40>
<_ZdaPv+0xe2c>
0x151c8 <_ZdaPv+0xfb0>
<_ZdaPv+0xe78>
<_ZdaPv+0xe80>
<_ZdaPv+0xe80>
0x151c8 <_ZdaPv+0xfb0>
<_ZdaPv+0xeb0>
<_ZdaPv+0xf3c>
0x151c8 <_ZdaPv+0xfb0>
<_ZdaPv+0xec4>
<_ZdaPv+0xea4>
0x15138 <_ZdaPv+0xf20>
0x15110 <_ZdaPv+0xef8>
<_ZdaPv+0xedc>
<_ZdaPv+0xea8>
<_ZdaPv+0xea8>
0x151c8 <_ZdaPv+0xfb0>
<_ZdaPv+0xf30>
0x151b8 <_ZdaPv+0xfa0>
0x15190 <_ZdaPv+0xf78>
<_ZdaPv+0xf5c>
<_ZdaPv+0xf34>
<_ZdaPv+0xf34>
<_ZdaPv+0x1064>
<_ZdaPv+0xfe8>
0x15058 <_ZdaPv+0xe40>
<_ZdaPv+0x102c>
<_ZdaPv+0xe40>
#2, 0x1525c <_ZdaPv+0x1044>
<_ZdaPv+0xe40>
#1, 0x15274 <_ZdaPv+0x105c>
<_ZdaPv+0xe40>
<_ZdaPv+0xe40>
0x4000 <_ZdaPv+0x1024>
<_ZdaPv+0x908>
0x6000 <_ZdaPv+0x1054>
0x19000 <_ZdaPv+0x10b0>
<_ZdaPv+0xa00>
<_ZdaPv+0xa00>
<_ZdaPv+0xa00>
0x14000 <_ZdaPv+0x10f4>
0x17000 <_ZdaPv+0x1104>
<_ZdaPv+0x1140>
0x1537c <_ZdaPv+0x1164>
0x15368 <_ZdaPv+0x1150>
0x19000 <_ZdaPv+0x1174>
0x15394 <_ZdaPv+0x117c>
0x17000 <_ZdaPv+0x119c>
<_ZdaPv+0x1338>
0x17000 <_ZdaPv+0x11c0>
<_ZNSt3__113basic_istreamIcNS_11char_traitsIcEEED2Ev@plt>
<_ZNSt3__19basic_iosIcNS_11char_traitsIcEEED2Ev@plt>
0x17000 <_ZdaPv+0x11f4>
<_ZdaPv+0x1338>
0x17000 <_ZdaPv+0x1224>
<_ZNSt3__113basic_istreamIcNS_11char_traitsIcEEED2Ev@plt>
<_ZNSt3__19basic_iosIcNS_11char_traitsIcEEED2Ev@plt>
0x17000 <_ZdaPv+0x1254>
<_ZdaPv+0x1338>
0x17000 <_ZdaPv+0x1278>
<_ZNSt3__113basic_istreamIcNS_11char_traitsIcEEED2Ev@plt>
<_ZNSt3__19basic_iosIcNS_11char_traitsIcEEED2Ev@plt>
0x154b8 <_ZdaPv+0x12a0>
0x17000 <_ZdaPv+0x12c8>
<_ZdaPv+0x1338>
0x17000 <_ZdaPv+0x12fc>
<_ZNSt3__113basic_istreamIcNS_11char_traitsIcEEED2Ev@plt>
<_ZNSt3__19basic_iosIcNS_11char_traitsIcEEED2Ev@plt>
0x15540 <_ZdaPv+0x1328>
0x17000 <_ZdaPv+0x1350>
0x155ac <_ZdaPv+0x1394>
<_ZdaPv+0x18e0>
0x15594 <_ZdaPv+0x137c>
0x155c0 <_ZdaPv+0x13a8>
0x155c0 <_ZdaPv+0x13a8>
0x155d4 <_ZdaPv+0x13bc>
0x155d4 <_ZdaPv+0x13bc>
<_ZNSt3__115basic_streambufIcNS_11char_traitsIcEEED2Ev@plt>
<_ZdaPv+0x13e4>
<_ZdaPv+0x1394>
<_ZNSt3__115basic_streambufIcNS_11char_traitsIcEEED2Ev@plt>
<_ZN4CamX22DisplayConfigInterface15SetCameraStatusEj+0x430>
<_ZdaPv+0x1338>
0x15648 <_ZdaPv+0x1430>
0x17000 <_ZdaPv+0x147c>
<_ZNKSt3__16locale9use_facetERNS0_2idE@plt>
<_ZdaPv+0x1534>
#0, 0x15714 <_ZdaPv+0x14fc>
0x156e4 <_ZdaPv+0x14cc>
0x156e4 <_ZdaPv+0x14cc>
<_ZdaPv+0x1544>
0x15770 <_ZdaPv+0x1558>
0x1573c <_ZdaPv+0x1524>
0x157cc <_ZdaPv+0x15b4>
<_ZdaPv+0x14f8>
<_ZdaPv+0x1500>
0x157a8 <_ZdaPv+0x1590>
0x157e8 <_ZdaPv+0x15d0>
<_ZdaPv+0x1544>
<_ZdaPv+0x14f8>
0x15740 <_ZdaPv+0x1528>
<_ZdaPv+0x1528>
0x157ac <_ZdaPv+0x1594>
<_ZdaPv+0x1594>
0x15858 <_ZdaPv+0x1640>
0x15858 <_ZdaPv+0x1640>
0x1586c <_ZdaPv+0x1654>
0x1586c <_ZdaPv+0x1654>
<_ZdaPv+0x1684>
0x158d8 <_ZdaPv+0x16c0>
0x158d8 <_ZdaPv+0x16c0>
0x158bc <_ZdaPv+0x16a4>
<_ZdaPv+0x170c>
0x15924 <_ZdaPv+0x170c>
<_ZdaPv+0x1738>
<_ZdaPv+0x17a8>
0x158f8 <_ZdaPv+0x16e0>
<_ZdaPv+0x16f8>
0x15910 <_ZdaPv+0x16f8>
0x158bc <_ZdaPv+0x16a4>
0x1596c <_ZdaPv+0x1754>
<_ZdaPv+0x17a8>
0x1598c <_ZdaPv+0x1774>
<_ZdaPv+0x178c>
0x159a4 <_ZdaPv+0x178c>
<_ZdaPv+0x1738>
0x15a84 <_ZdaPv+0x186c>
0x15a54 <_ZdaPv+0x183c>
0x15a10 <_ZdaPv+0x17f8>
<_ZdaPv+0x183c>
0x15a5c <_ZdaPv+0x1844>
<_ZdaPv+0x1844>
0x15a70 <_ZdaPv+0x1858>
<_ZdaPv+0x1844>
<_ZdaPv+0x2028>
0x15ad0 <_ZdaPv+0x18b8>
0x15ad0 <_ZdaPv+0x18b8>
0x15af0 <_ZdaPv+0x18d8>
<_ZdaPv+0x18c0>
0x15b3c <_ZdaPv+0x1924>
0x15d0c <_ZdaPv+0x1af4>
#4, 0x15b54 <_ZdaPv+0x193c>
#3, 0x15bf4 <_ZdaPv+0x19dc>
<_ZdaPv+0x1aa0>
<_ZdaPv+0x1968>
<_ZdaPv+0x1a90>
<_ZdaPv+0x1a8c>
<_ZdaPv+0x196c>
<_ZdaPv+0x1a8c>
0x15ca4 <_ZdaPv+0x1a8c>
<_ZdaPv+0x1924>
0x15c14 <_ZdaPv+0x19fc>
<_ZdaPv+0x1a78>
<_ZdaPv+0x1a30>
<_ZdaPv+0x1a78>
<_ZdaPv+0x1a74>
<_ZdaPv+0x1a78>
0x15cd4 <_ZdaPv+0x1abc>
<_ZdaPv+0x1938>
0x15ce0 <_ZdaPv+0x1ac8>
<_ZdaPv+0x1aa0>
<_ZdaPv+0x1938>
<_ZdaPv+0x2028>
0x15d68 <_ZdaPv+0x1b50>
#3, 0x15d70 <_ZdaPv+0x1b58>
0x15d9c <_ZdaPv+0x1b84>
<_ZdaPv+0x1b8c>
<_ZdaPv+0x1d58>
0x15dc0 <_ZdaPv+0x1ba8>
0x15dd4 <_ZdaPv+0x1bbc>
<_ZdaPv+0x1be8>
<_ZdaPv+0x1d40>
0x15d80 <_ZdaPv+0x1b68>
0x15d84 <_ZdaPv+0x1b6c>
<_ZdaPv+0x1b7c>
0x15e54 <_ZdaPv+0x1c3c>
0x15f54 <_ZdaPv+0x1d3c>
<_ZdaPv+0x1d40>
<_ZdaPv+0x1c5c>
<_ZdaPv+0x1c80>
<_ZdaPv+0x1c84>
0x15f54 <_ZdaPv+0x1d3c>
0x15f9c <_ZdaPv+0x1d84>
<_ZdaPv+0x1d1c>
<_ZdaPv+0x1d40>
<_ZdaPv+0x1d3c>
<_ZdaPv+0x1d40>
<_ZdaPv+0x1d58>
<_ZdaPv+0x1d80>
<_ZdaPv+0x2028>
0x15fe8 <_ZdaPv+0x1dd0>
<_ZdaPv+0x1dd0>
<_ZdaPv+0x1dd8>
#4, 0x15fd8 <_ZdaPv+0x1dc0>
<_ZdaPv+0x1dd0>
0x16204 <_ZdaPv+0x1fec>
#4, 0x1606c <_ZdaPv+0x1e54>
<_ZdaPv+0x1e9c>
0x160c8 <_ZdaPv+0x1eb0>
<_ZdaPv+0x1ebc>
<_ZdaPv+0x1ee0>
0x16098 <_ZdaPv+0x1e80>
<_ZdaPv+0x1ee8>
<_ZdaPv+0x1f14>
<_ZdaPv+0x1ec4>
<_ZdaPv+0x1e6c>
<_ZdaPv+0x1f14>
0x16138 <_ZdaPv+0x1f20>
<_ZdaPv+0x1fec>
<_ZdaPv+0x1ff0>
0x16234 <_ZdaPv+0x201c>
<_ZdaPv+0x1fec>
<_ZdaPv+0x1fc0>
<_ZdaPv+0x1fec>
<_ZdaPv+0x1f0c>
0x16234 <_ZdaPv+0x201c>
<_ZdaPv+0x1f34>
<_ZdaPv+0x1fec>
<_ZdaPv+0x1f0c>
<_ZdaPv+0x2020>
<_ZdaPv+0x2028>
<_ZNSt8bad_castC1Ev@plt>
0x17000 <_ZdaPv+0x2048>
0x17000 <_ZdaPv+0x204c>

0x17000 <_ZN13DisplayConfig15ClientInterface6CreateENSt3__112basic_stringIcNS1_11char_traitsIcEENS1_9allocatorIcEEEEPNS_14ConfigCallbackEPPS0_@plt+0x4>

0x17000 <_ZNK7android8hardware7details13return_status16onValueRetrievalEv@plt+0x4>

0x17000 <_ZN7android8hardware7details13return_statusD2Ev@plt+0x4>

0x17000 <_ZN13DisplayConfig15ClientInterface7DestroyEPS0_@plt+0x4>

0x17000 <_ZSt9terminatev@plt+0x4>

0x17000 <_ZN7android8hardware11hidl_stringD1Ev@plt+0x4>

0x17000 <_ZN4CamX7Gralloc22ResetGrallocInterfacesEi@plt+0x4>

0x17000 <_ZNK7android7RefBase9decStrongEPKv@plt+0x4>

0x17000 <_ZN7android14sp_report_raceEv@plt+0x4>

0x17000 <_ZN4CamX7Gralloc17InitializeMapper4Ev@plt+0x4>

0x17000 <_ZN4CamX7Gralloc17InitializeMapper3Ev@plt+0x4>

0x17000 <_ZN6vendor3qti8hardware7display9allocator4V4_013IQtiAllocator10getServiceERKNSt3__112basic_stringIcNS6_11char_traitsIcEENS6_9allocatorIcEEEEb@plt+0x4>

0x17000 <_ZN7android8hardware8graphics6mapper4V4_07IMapper10getServiceERKNSt3__112basic_stringIcNS5_11char_traitsIcEENS5_9allocatorIcEEEEb@plt+0x4>

0x17000 <_ZN6vendor3qti8hardware7display6mapper4V4_010IQtiMapper8castFromERKN7android2spINS6_8hardware8graphics6mapper4V4_07IMapperEEEb@plt+0x4>

0x17000 <_ZNK7android7RefBase9incStrongEPKv@plt+0x4>

0x17000 <_ZNK7android8hardware6Status11descriptionEv@plt+0x4>

0x17000 <_ZN6vendor3qti8hardware7display9allocator4V3_013IQtiAllocator10getServiceERKNSt3__112basic_stringIcNS6_11char_traitsIcEENS6_9allocatorIcEEEEb@plt+0x4>

0x17000 <_ZN7android8hardware8graphics6mapper4V3_07IMapper10getServiceERKNSt3__112basic_stringIcNS5_11char_traitsIcEENS5_9allocatorIcEEEEb@plt+0x4>

0x17000 <_ZN6vendor3qti8hardware7display6mapper4V3_010IQtiMapper8castFromERKN7android2spINS6_8hardware8graphics6mapper4V3_07IMapperEEEb@plt+0x4>

0x17000 <_ZNSt3__15mutex4lockEv@plt+0x4>

0x17000 <_ZNSt3__15mutex6unlockEv@plt+0x4>

0x17000 <_ZN4CamX7Gralloc32AllocateGrallocBufferWithMapper4EjjjPPKNS_12NativeHandleEPjmm@plt+0x4>

0x17000 <_ZN4CamX7Gralloc32AllocateGrallocBufferWithMapper3EjjjPPKNS_12NativeHandleEPjmm@plt+0x4>

0x17000 <_ZN7android8hardware11hidl_handleC1Ev@plt+0x4>

0x17000 <_ZN7android8hardware11hidl_stringC1Ev@plt+0x4>

0x17000 <_ZN7android8hardware11hidl_handleD1Ev@plt+0x4>

0x17000 <_ZN7android8hardware11hidl_handleC1EPK13native_handle@plt+0x4>

0x17000 <_ZN7android8hardware11hidl_stringC1ERKNSt3__112basic_stringIcNS2_11char_traitsIcEENS2_9allocatorIcEEEE@plt+0x4>

0x17000 <_ZN4CamX7Gralloc11GetInstanceEv@plt+0x4>

0x17000 <_ZN7android8gralloc412encodeUint64ERKNS_8hardware8graphics6mapper4V4_07IMapper12MetadataTypeEmPNS1_8hidl_vecIhEE@plt+0x4>

0x17000 <_ZN7android8gralloc412encodeUint32ERKNS_8hardware8graphics6mapper4V4_07IMapper12MetadataTypeEjPNS1_8hidl_vecIhEE@plt+0x4>

0x17000 <_ZN10qtigralloc17encodeCVPMetadataER11CVPMetadataPN7android8hardware8hidl_vecIhEE@plt+0x4>

0x17000 <_ZN10qtigralloc19encodeColorMetadataER13ColorMetaDataPN7android8hardware8hidl_vecIhEE@plt+0x4>

0x17000 <_ZN10qtigralloc15encodeUBWCStatsEP9UBWCStatsPN7android8hardware8hidl_vecIhEE@plt+0x4>

0x17000 <_ZN7android8hardware11hidl_stringaSERKS1_@plt+0x4>

0x17000 <_ZN7android8gralloc410encodeCropERKNSt3__16vectorIN4aidl7android8hardware8graphics6common4RectENS1_9allocatorIS8_EEEEPNS_8hardware8hidl_vecIhEE@plt+0x4>

0x17000 <_ZN7android8hardware11hidl_stringC1EPKc@plt+0x4>

0x17000 <_ZNSt3__112basic_stringIcNS_11char_traitsIcEENS_9allocatorIcEEEC1ERKS5_@plt+0x4>

0x17000 <_ZN4CamX16ImageFormatUtils15SetupUBWCPlanesEPNS_11ImageFormatE@plt+0x4>

0x17000 <_ZN4CamX16ImageFormatUtils12GetPlaneSizeEPKNS_11ImageFormatEj@plt+0x4>

0x17000 <_ZN4CamX16ImageFormatUtils10GetRawSizeEPKNS_11ImageFormatE@plt+0x4>

0x17000 <_ZN4CamX16ImageFormatUtils25InitializeRawFormatParamsEPNS_11ImageFormatEPNS_15FormatParamInfoE@plt+0x4>

0x17000 <_ZN4CamX13OfflineLogger14GetLogInfoMaskEv@plt+0x4>

0x17000 <_ZN4CamX13OfflineLogger21IsEnableOfflineloggerEv@plt+0x4>

0x17000 <_ZN4CamX13OfflineLogger6AddLogEPKcj@plt+0x4>

0x17000 <_ZN4CamX13OfflineLoggerC1E17OfflineLoggerType@plt+0x4>

0x17000 <_ZNKSt3__120__vector_base_commonILb1EE20__throw_length_errorEv@plt+0x4>

0x17000 <_ZNSt11logic_errorC2EPKc@plt+0x4>

0x17000 <_ZNSt3__112__next_primeEm@plt+0x4>

0x17000 <_ZNSt3__113basic_istreamIcNS_11char_traitsIcEEED2Ev@plt+0x4>

0x17000 <_ZNSt3__19basic_iosIcNS_11char_traitsIcEEED2Ev@plt+0x4>

0x17000 <_ZNSt3__115basic_streambufIcNS_11char_traitsIcEEED2Ev@plt+0x4>

0x17000 <_ZNKSt3__16locale9use_facetERNS0_2idE@plt+0x4>

0x17000 <_ZNSt8bad_castC1Ev@plt+0x4>













7a 58  	ldr	x29, 0xf46fc <_ZN4CamX16ImageFormatUtils7s_socIdE+0xdaa0c>
17  	b	0xfffffffffff90f7c <_ZN4CamX16ImageFormatUtils7s_socIdE+0xfffffffffff7728c>
37  	tbnz	w29, #31, 0xffffffffffff812c <_ZN4CamX16ImageFormatUtils7s_socIdE+0xfffffffffffde43c>
14  	b	0x2f64674 <_ZN4CamX16ImageFormatUtils7s_socIdE+0x2f4a984>
37  	tbnz	w19, #16, 0xffffffffffffa9d0 <_ZN4CamX16ImageFormatUtils7s_socIdE+0xfffffffffffe0ce0>
b0  	adrp	x7, 0x40add000 <_ZN4CamX16ImageFormatUtils7s_socIdE+0xe8f50>
 	tbz	w1, #1, 0xffffffffffff84d8 <_ZN4CamX16ImageFormatUtils7s_socIdE+0xfffffffffffde7e8>
 	cbnz	x6, 0xe2168 <_ZN4CamX16ImageFormatUtils7s_socIdE+0xc8478>
 	b	0x683529c <_ZN4CamX16ImageFormatUtils7s_socIdE+0x681b5ac>
 	bl	0xffffffffff8a80ac <_ZN4CamX16ImageFormatUtils7s_socIdE+0xffffffffff88e3bc>
 	b	0xffffffffff425210 <_ZN4CamX16ImageFormatUtils7s_socIdE+0xffffffffff40b520>
 	b	0x416e338 <_ZN4CamX16ImageFormatUtils7s_socIdE+0x4154648>
 	tbnz	x19, #37, 0xffffffffffffad04 <_ZN4CamX16ImageFormatUtils7s_socIdE+0xfffffffffffe1014>
 	tbnz	w18, #12, 0xfffffffffffff3a4 <_ZN4CamX16ImageFormatUtils7s_socIdE+0xfffffffffffe56b4>
 	b.lo	0xf944 <_ZN4CamX7Gralloc18SetGrallocMetaDataEPKNS_12NativeHandleEjjPv+0x44ac>
 	b	0xfffffffffc20b900 <_ZN4CamX16ImageFormatUtils7s_socIdE+0xfffffffffc1f1c10>
 	adrp	x24, 0xffffffff88083000 <_ZN4CamX16ImageFormatUtils7s_socIdE+0xffffffffffe06828>
 	bl	0x80f138 <_ZN4CamX16ImageFormatUtils7s_socIdE+0x7f5448>
 	adrp	x1, 0xffffffff33a7f000 <_ZN4CamX16ImageFormatUtils7s_socIdE+0xffffffffffcb5054>
 	cbz	w24, 0xa53a8 <_ZN4CamX16ImageFormatUtils7s_socIdE+0x8b6b8>
 	adrp	x26, 0x804b7000 <_ZN4CamX16ImageFormatUtils7s_socIdE+0x1e7950>
 	adrp	x29, 0xffffffff3975f000 <_ZN4CamX16ImageFormatUtils7s_socIdE+0xffffffffffccc408>
 	tbz	w12, #6, 0xffffffffffffc07c <_ZN4CamX16ImageFormatUtils7s_socIdE+0xfffffffffffe238c>
 	adrp	x17, 0x3dff9000 <_ZN4CamX16ImageFormatUtils7s_socIdE+0xde6ac>
 	b.gt	0xfffffffffff9ab20 <_ZN4CamX16ImageFormatUtils7s_socIdE+0xfffffffffff80e30>
 	bl	0x56b8ed0 <_ZN4CamX16ImageFormatUtils7s_socIdE+0x569f1e0>
 	adrp	x9, 0xffffffff36958000 <_ZN4CamX16ImageFormatUtils7s_socIdE+0xffffffffffcc0c64>
 	b	0xfffffffffa3e97ac <_ZN4CamX16ImageFormatUtils7s_socIdE+0xfffffffffa3cfabc>
 	ldr	d13, 0x72ff4 <_ZN4CamX16ImageFormatUtils7s_socIdE+0x59304>
 	ldr	d20, 0xfffffffffff6ec18 <_ZN4CamX16ImageFormatUtils7s_socIdE+0xfffffffffff54f28>
 	tbz	x27, #52, 0xffffffffffffba6c <_ZN4CamX16ImageFormatUtils7s_socIdE+0xfffffffffffe1d7c>
 	adrp	x14, 0x79e0c000 <_ZN4CamX16ImageFormatUtils7s_socIdE+0x1cdf94>
 	ldr	s8, 0xfffffffffffc351c <_ZN4CamX16ImageFormatUtils7s_socIdE+0xfffffffffffa982c>
 	cbz	x17, 0xfffffffffffe0348 <_ZN4CamX16ImageFormatUtils7s_socIdE+0xfffffffffffc6658>
 	ldr	s31, 0x82ed0 <_ZN4CamX16ImageFormatUtils7s_socIdE+0x691e0>
 	cbnz	x2, 0xc83cc <_ZN4CamX16ImageFormatUtils7s_socIdE+0xae6dc>
 	adrp	x15, 0xffffffff94e58000 <_ZN4CamX16ImageFormatUtils7s_socIdE+0xffffffffffe3a164>
 	bl	0xfffffffffb6c7c88 <_ZN4CamX16ImageFormatUtils7s_socIdE+0xfffffffffb6adf98>
 	ldr	w29, 0xa6d4c <_ZN4CamX16ImageFormatUtils7s_socIdE+0x8d05c>
 	adrp	x30, 0xffffffffbf20f000 <_ZN4CamX16ImageFormatUtils7s_socIdE+0xffffffffffee30b4>
 	cbnz	w3, 0xffffffffffffad8c <_ZN4CamX16ImageFormatUtils7s_socIdE+0xfffffffffffe109c>
 	adrp	x16, 0x3b4de000 <_ZN4CamX16ImageFormatUtils7s_socIdE+0xd3c34>
 	adrp	x26, 0xffffffff017dd000 <_ZN4CamX16ImageFormatUtils7s_socIdE+0xffffffffffbec850>
 	ldr	xzr, 0xfffffffffffc799c <_ZN4CamX16ImageFormatUtils7s_socIdE+0xfffffffffffadcac>
 	adrp	x18, 0x5a4e0000 <_ZN4CamX16ImageFormatUtils7s_socIdE+0x14fcc0>
 	bl	0xfffffffffbb65ca0 <_ZN4CamX16ImageFormatUtils7s_socIdE+0xfffffffffbb4bfb0>
 	tbz	w10, #30, 0xffffffffffffe434 <_ZN4CamX16ImageFormatUtils7s_socIdE+0xfffffffffffe4744>
 	cbz	w25, 0x4d5c4 <_ZN4CamX16ImageFormatUtils7s_socIdE+0x338d4>
 	adrp	x8, 0x10594000 <_ZN4CamX16ImageFormatUtils7s_socIdE+0x28000>
 	b	0xfffffffffd35f330 <_ZN4CamX16ImageFormatUtils7s_socIdE+0xfffffffffd345640>
 	ldr	w15, 0xfffffffffffa7d5c <_ZN4CamX16ImageFormatUtils7s_socIdE+0xfffffffffff8e06c>
 	bl	0x6058a14 <_ZN4CamX16ImageFormatUtils7s_socIdE+0x603ed24>
 	ldr	x8, 0x8d960 <_ZN4CamX16ImageFormatUtils7s_socIdE+0x73c70>
 	adrp	x25, 0xffffffffaba4d000 <_ZN4CamX16ImageFormatUtils7s_socIdE+0xffffffffffe95430>
 	bl	0xfffffffffe2fa9b0 <_ZN4CamX16ImageFormatUtils7s_socIdE+0xfffffffffe2e0cc0>
 	ldrsw	x12, 0xc6310 <_ZN4CamX16ImageFormatUtils7s_socIdE+0xac620>
 	cbz	x27, 0xc6e8c <_ZN4CamX16ImageFormatUtils7s_socIdE+0xad19c>
 	adrp	x23, 0xffffffff2502f000 <_ZN4CamX16ImageFormatUtils7s_socIdE+0xffffffffffc7ac58>
 	ldr	d15, 0xd1f3c <_ZN4CamX16ImageFormatUtils7s_socIdE+0xb824c>
 	cbz	x12, 0x202a0 <_ZN4CamX16ImageFormatUtils7s_socIdE+0x65b0>
 	ldr	d14, 0xfffffffffffca7ac <_ZN4CamX16ImageFormatUtils7s_socIdE+0xfffffffffffb0abc>
 	adrp	x13, 0x367a9000 <_ZN4CamX16ImageFormatUtils7s_socIdE+0xc0b48>
 	ldrsw	x15, 0x7b3fc <_ZN4CamX16ImageFormatUtils7s_socIdE+0x6170c>
 	ldr	w10, 0xfffffffffff27ce0 <_ZN4CamX16ImageFormatUtils7s_socIdE+0xfffffffffff0dff0>
 	ldr	x9, 0xc1258 <_ZN4CamX16ImageFormatUtils7s_socIdE+0xa7568>
 	ldr	q10, 0xfffffffffff79f38 <_ZN4CamX16ImageFormatUtils7s_socIdE+0xfffffffffff60248>
 	cbz	w17, 0xfffffffffffe2024 <_ZN4CamX16ImageFormatUtils7s_socIdE+0xfffffffffffc8334>
 	bl	0x615aaf8 <_ZN4CamX16ImageFormatUtils7s_socIdE+0x6140e08>
 	cbz	w2, 0x72580 <_ZN4CamX16ImageFormatUtils7s_socIdE+0x58890>
 	b	0xfffffffffdd41fb4 <_ZN4CamX16ImageFormatUtils7s_socIdE+0xfffffffffdd282c4>
 	ldr	q5, 0xfffffffffffb2abc <_ZN4CamX16ImageFormatUtils7s_socIdE+0xfffffffffff98dcc>
 	tbnz	w20, #23, 0xffffffffffffc908 <_ZN4CamX16ImageFormatUtils7s_socIdE+0xfffffffffffe2c18>
 	ldr	x22, 0xfffffffffff2b018 <_ZN4CamX16ImageFormatUtils7s_socIdE+0xfffffffffff11328>
 	b	0xfffffffffdab3388 <_ZN4CamX16ImageFormatUtils7s_socIdE+0xfffffffffda99698>
 	adrp	x13, 0xffffffff411c2000 <_ZN4CamX16ImageFormatUtils7s_socIdE+0xffffffffffceb5bc>
 	bl	0xfffffffffad94258 <_ZN4CamX16ImageFormatUtils7s_socIdE+0xfffffffffad7a568>
 	b	0xfffffffffe292dc8 <_ZN4CamX16ImageFormatUtils7s_socIdE+0xfffffffffe2790d8>
 	bl	0x324a174 <_ZN4CamX16ImageFormatUtils7s_socIdE+0x3230484>
 	b	0x5a2029c <_ZN4CamX16ImageFormatUtils7s_socIdE+0x5a065ac>
 	b	0x708ef4 <_ZN4CamX16ImageFormatUtils7s_socIdE+0x6ef204>
 	adrp	x16, 0x2cf65000 <_ZN4CamX16ImageFormatUtils7s_socIdE+0x9ade4>
 	cbnz	x25, 0xfffffffffff6bd6c <_ZN4CamX16ImageFormatUtils7s_socIdE+0xfffffffffff5207c>
 	bl	0xfffffffffb7744c0 <_ZN4CamX16ImageFormatUtils7s_socIdE+0xfffffffffb75a7d0>
 	b	0x48bccb4 <_ZN4CamX16ImageFormatUtils7s_socIdE+0x48a2fc4>
 	bl	0x61d77b4 <_ZN4CamX16ImageFormatUtils7s_socIdE+0x61bdac4>
 	cbz	x4, 0xfffffffffff6fad4 <_ZN4CamX16ImageFormatUtils7s_socIdE+0xfffffffffff55de4>
 	bl	0xfffffffffe04f844 <_ZN4CamX16ImageFormatUtils7s_socIdE+0xfffffffffe035b54>
 	cbnz	w16, 0x434e4 <_ZN4CamX16ImageFormatUtils7s_socIdE+0x297f4>
 	prfm	pstl1strm, 0xfffffffffffdf958 <_ZN4CamX16ImageFormatUtils7s_socIdE+0xfffffffffffc5c68>
 	b	0xfffffffffe362780 <_ZN4CamX16ImageFormatUtils7s_socIdE+0xfffffffffe348a90>
