0000000000001018 <_ZN15DepthMapWrapperC2EiiiiPmPih>:
    1038: a2 00 00 94  	bl	0x12c0 <_Znwm@plt>
0000000000001060 <_ZN15DepthMapWrapper12processFrameE17WrapperDepthInputP21WrapperDepthCamConfigjP18WrapperDepthOutput>:
    1068: 64 05 00 b4  	cbz	x4, 0x1114 <_ZN15DepthMapWrapper12processFrameE17WrapperDepthInputP21WrapperDepthCamConfigjP18WrapperDepthOutput+0xb4>
    106c: 43 05 00 34  	cbz	w3, 0x1114 <_ZN15DepthMapWrapper12processFrameE17WrapperDepthInputP21WrapperDepthCamConfigjP18WrapperDepthOutput+0xb4>
    1070: 22 05 00 b4  	cbz	x2, 0x1114 <_ZN15DepthMapWrapper12processFrameE17WrapperDepthInputP21WrapperDepthCamConfigjP18WrapperDepthOutput+0xb4>
    1078: e9 04 00 b4  	cbz	x9, 0x1114 <_ZN15DepthMapWrapper12processFrameE17WrapperDepthInputP21WrapperDepthCamConfigjP18WrapperDepthOutput+0xb4>
    107c: 23 04 00 34  	cbz	w3, 0x1100 <_ZN15DepthMapWrapper12processFrameE17WrapperDepthInputP21WrapperDepthCamConfigjP18WrapperDepthOutput+0xa0>
    1090: 06 00 00 14  	b	0x10a8 <_ZN15DepthMapWrapper12processFrameE17WrapperDepthInputP21WrapperDepthCamConfigjP18WrapperDepthOutput+0x48>
    10a4: 00 03 00 54  	b.eq	0x1104 <_ZN15DepthMapWrapper12processFrameE17WrapperDepthInputP21WrapperDepthCamConfigjP18WrapperDepthOutput+0xa4>
    10b0: 40 01 00 54  	b.eq	0x10d8 <_ZN15DepthMapWrapper12processFrameE17WrapperDepthInputP21WrapperDepthCamConfigjP18WrapperDepthOutput+0x78>
    10b8: a0 01 00 54  	b.eq	0x10ec <_ZN15DepthMapWrapper12processFrameE17WrapperDepthInputP21WrapperDepthCamConfigjP18WrapperDepthOutput+0x8c>
    10c0: a1 fe ff 54  	b.ne	0x1094 <_ZN15DepthMapWrapper12processFrameE17WrapperDepthInputP21WrapperDepthCamConfigjP18WrapperDepthOutput+0x34>
    10c8: 6c fe ff b4  	cbz	x12, 0x1094 <_ZN15DepthMapWrapper12processFrameE17WrapperDepthInputP21WrapperDepthCamConfigjP18WrapperDepthOutput+0x34>
    10d0: 4c fe ff 35  	cbnz	w12, 0x1098 <_ZN15DepthMapWrapper12processFrameE17WrapperDepthInputP21WrapperDepthCamConfigjP18WrapperDepthOutput+0x38>
    10d4: f0 ff ff 17  	b	0x1094 <_ZN15DepthMapWrapper12processFrameE17WrapperDepthInputP21WrapperDepthCamConfigjP18WrapperDepthOutput+0x34>
    10dc: ce fd ff b4  	cbz	x14, 0x1094 <_ZN15DepthMapWrapper12processFrameE17WrapperDepthInputP21WrapperDepthCamConfigjP18WrapperDepthOutput+0x34>
    10e4: af fd ff b5  	cbnz	x15, 0x1098 <_ZN15DepthMapWrapper12processFrameE17WrapperDepthInputP21WrapperDepthCamConfigjP18WrapperDepthOutput+0x38>
    10e8: eb ff ff 17  	b	0x1094 <_ZN15DepthMapWrapper12processFrameE17WrapperDepthInputP21WrapperDepthCamConfigjP18WrapperDepthOutput+0x34>
    10f0: 2d fd ff b4  	cbz	x13, 0x1094 <_ZN15DepthMapWrapper12processFrameE17WrapperDepthInputP21WrapperDepthCamConfigjP18WrapperDepthOutput+0x34>
    10f8: 0d fd ff 35  	cbnz	w13, 0x1098 <_ZN15DepthMapWrapper12processFrameE17WrapperDepthInputP21WrapperDepthCamConfigjP18WrapperDepthOutput+0x38>
    10fc: e6 ff ff 17  	b	0x1094 <_ZN15DepthMapWrapper12processFrameE17WrapperDepthInputP21WrapperDepthCamConfigjP18WrapperDepthOutput+0x34>
0000000000001118 <_ZN15DepthMapWrapperD2Ev>:
    112c: 60 00 00 b4  	cbz	x0, 0x1138 <_ZN15DepthMapWrapperD2Ev+0x20>
    1130: 68 00 00 94  	bl	0x12d0 <_ZdlPv@plt>
    1164: 57 00 00 94  	bl	0x12c0 <_Znwm@plt>
    1170: 54 00 00 94  	bl	0x12c0 <_Znwm@plt>
    1274: 17 00 00 94  	bl	0x12d0 <_ZdlPv@plt>
    1284: 13 00 00 14  	b	0x12d0 <_ZdlPv@plt>
00000000000012c0 <_Znwm@plt>:
    12c0: 10 00 00 b0  	adrp	x16, 0x2000 <_Znwm@plt+0x4>
00000000000012d0 <_ZdlPv@plt>:
    12d0: 10 00 00 b0  	adrp	x16, 0x2000 <_ZdlPv@plt+0x4>
