    3248: 5f 5f 31 36  	tbz	wzr, #6, 0x5e30 <_ZTSSt8bad_cast+0x3e>
0000000000005da8 <_ZTSSt12length_error>:
0000000000005db9 <_ZTSSt11logic_error>:
0000000000005dc9 <_ZTSSt9exception>:
0000000000005dd6 <_ZTSNSt3__117bad_function_callE>:
0000000000005df2 <_ZTSSt8bad_cast>:
    f148: 8a ee 01 94  	bl	0x8ab70 <_Znwm@plt>
    f1e4: 67 ee 01 94  	bl	0x8ab80 <_ZNSt3__119__shared_weak_count14__release_weakEv@plt>
    f248: 4e ee 01 94  	bl	0x8ab80 <_ZNSt3__119__shared_weak_count14__release_weakEv@plt>
    f2b0: 4c ee 01 94  	bl	0x8abe0 <_ZdlPv@plt>
    f2d4: 43 ee 01 94  	bl	0x8abe0 <_ZdlPv@plt>
    f300: 3c ee 01 94  	bl	0x8abf0 <_ZN2cv3Mat10deallocateEv@plt>
    f404: ff ed 01 94  	bl	0x8ac00 <_ZN2cv8fastFreeEPv@plt>
    f430: f0 ed 01 94  	bl	0x8abf0 <_ZN2cv3Mat10deallocateEv@plt>
    f528: b6 ed 01 94  	bl	0x8ac00 <_ZN2cv8fastFreeEPv@plt>
    f554: a7 ed 01 94  	bl	0x8abf0 <_ZN2cv3Mat10deallocateEv@plt>
    f658: 6a ed 01 94  	bl	0x8ac00 <_ZN2cv8fastFreeEPv@plt>
    f684: 5b ed 01 94  	bl	0x8abf0 <_ZN2cv3Mat10deallocateEv@plt>
    f780: 20 ed 01 94  	bl	0x8ac00 <_ZN2cv8fastFreeEPv@plt>
    f7ac: 11 ed 01 94  	bl	0x8abf0 <_ZN2cv3Mat10deallocateEv@plt>
    f8a8: d6 ec 01 94  	bl	0x8ac00 <_ZN2cv8fastFreeEPv@plt>
    f8c8: d2 ec 01 14  	b	0x8ac10 <_ZNSt3__15mutexD1Ev@plt>
    f930: b0 ec 01 94  	bl	0x8abf0 <_ZN2cv3Mat10deallocateEv@plt>
    fa34: 73 ec 01 94  	bl	0x8ac00 <_ZN2cv8fastFreeEPv@plt>
    fa60: 64 ec 01 94  	bl	0x8abf0 <_ZN2cv3Mat10deallocateEv@plt>
    fb5c: 29 ec 01 94  	bl	0x8ac00 <_ZN2cv8fastFreeEPv@plt>
    fb88: 1a ec 01 94  	bl	0x8abf0 <_ZN2cv3Mat10deallocateEv@plt>
    fc84: df eb 01 94  	bl	0x8ac00 <_ZN2cv8fastFreeEPv@plt>
    fca4: db eb 01 14  	b	0x8ac10 <_ZNSt3__15mutexD1Ev@plt>
    fd00: bc eb 01 94  	bl	0x8abf0 <_ZN2cv3Mat10deallocateEv@plt>
    fe04: 7f eb 01 94  	bl	0x8ac00 <_ZN2cv8fastFreeEPv@plt>
    fe30: 70 eb 01 94  	bl	0x8abf0 <_ZN2cv3Mat10deallocateEv@plt>
    ff2c: 35 eb 01 94  	bl	0x8ac00 <_ZN2cv8fastFreeEPv@plt>
    ff58: 26 eb 01 94  	bl	0x8abf0 <_ZN2cv3Mat10deallocateEv@plt>
   10054: eb ea 01 94  	bl	0x8ac00 <_ZN2cv8fastFreeEPv@plt>
   10074: e7 ea 01 14  	b	0x8ac10 <_ZNSt3__15mutexD1Ev@plt>
   10104: cb ea 01 94  	bl	0x8ac30 <_ZN2cv12getTickCountEv@plt>
   1013c: c1 ea 01 94  	bl	0x8ac40 <_ZN2cv3ORB6createEifiiiiNS0_9ScoreTypeEii@plt>
   10160: bc ea 01 94  	bl	0x8ac50 <_ZN2cv7noArrayEv@plt>
   101d8: 9e ea 01 94  	bl	0x8ac50 <_ZN2cv7noArrayEv@plt>
   1022c: 81 ea 01 94  	bl	0x8ac30 <_ZN2cv12getTickCountEv@plt>
   10288: 76 ea 01 94  	bl	0x8ac60 <_ZN2cv17DescriptorMatcher6createERKNSt3__112basic_stringIcNS1_11char_traitsIcEENS1_9allocatorIcEEEE@plt>
   1029c: 51 ea 01 94  	bl	0x8abe0 <_ZdlPv@plt>
   10308: 5a ea 01 94  	bl	0x8ac70 <_ZNK2cv17DescriptorMatcher5matchERKNS_11_InputArrayES3_RNSt3__16vectorINS_6DMatchENS4_9allocatorIS6_EEEES3_@plt>
   10334: 2f ea 01 94  	bl	0x8abf0 <_ZN2cv3Mat10deallocateEv@plt>
   1042c: f5 e9 01 94  	bl	0x8ac00 <_ZN2cv8fastFreeEPv@plt>
   1050c: 99 e9 01 94  	bl	0x8ab70 <_Znwm@plt>
   10550: 88 e9 01 94  	bl	0x8ab70 <_Znwm@plt>
   106a8: 52 e9 01 94  	bl	0x8abf0 <_ZN2cv3Mat10deallocateEv@plt>
   10738: 2e e9 01 94  	bl	0x8abf0 <_ZN2cv3Mat10deallocateEv@plt>
   107e4: 07 e9 01 94  	bl	0x8ac00 <_ZN2cv8fastFreeEPv@plt>
   10960: a8 e8 01 94  	bl	0x8ac00 <_ZN2cv8fastFreeEPv@plt>
   10974: cb e8 01 94  	bl	0x8aca0 <_ZN2cv12countNonZeroERKNS_11_InputArrayE@plt>
   10988: ca e8 01 94  	bl	0x8acb0 <_ZN2cv16getTickFrequencyEv@plt>
   109ec: 81 e8 01 94  	bl	0x8abf0 <_ZN2cv3Mat10deallocateEv@plt>
   10ae4: 47 e8 01 94  	bl	0x8ac00 <_ZN2cv8fastFreeEPv@plt>
   10b08: 36 e8 01 94  	bl	0x8abe0 <_ZdlPv@plt>
   10b2c: 2d e8 01 94  	bl	0x8abe0 <_ZdlPv@plt>
   10b70: 1c e8 01 94  	bl	0x8abe0 <_ZdlPv@plt>
   10bcc: 05 e8 01 94  	bl	0x8abe0 <_ZdlPv@plt>
   10bf8: fe e7 01 94  	bl	0x8abf0 <_ZN2cv3Mat10deallocateEv@plt>
   10c74: c3 e7 01 94  	bl	0x8ab80 <_ZNSt3__119__shared_weak_count14__release_weakEv@plt>
   10d18: ba e7 01 94  	bl	0x8ac00 <_ZN2cv8fastFreeEPv@plt>
   10d64: 87 e7 01 94  	bl	0x8ab80 <_ZNSt3__119__shared_weak_count14__release_weakEv@plt>
   10d80: d8 e7 01 94  	bl	0x8ace0 <_ZNKSt3__120__vector_base_commonILb1EE20__throw_length_errorEv@plt>
   10db4: 8f e7 01 94  	bl	0x8abf0 <_ZN2cv3Mat10deallocateEv@plt>
   10eb4: 53 e7 01 94  	bl	0x8ac00 <_ZN2cv8fastFreeEPv@plt>
   10f3c: 2d e7 01 94  	bl	0x8abf0 <_ZN2cv3Mat10deallocateEv@plt>
   11038: f2 e6 01 94  	bl	0x8ac00 <_ZN2cv8fastFreeEPv@plt>
   11058: e2 e6 01 94  	bl	0x8abe0 <_ZdlPv@plt>
   11098: d6 e6 01 94  	bl	0x8abf0 <_ZN2cv3Mat10deallocateEv@plt>
   11194: 9b e6 01 94  	bl	0x8ac00 <_ZN2cv8fastFreeEPv@plt>
   111b8: 8a e6 01 94  	bl	0x8abe0 <_ZdlPv@plt>
   111dc: 81 e6 01 94  	bl	0x8abe0 <_ZdlPv@plt>
   11214: 5b e6 01 94  	bl	0x8ab80 <_ZNSt3__119__shared_weak_count14__release_weakEv@plt>
   11238: 6a e6 01 94  	bl	0x8abe0 <_ZdlPv@plt>
   112a0: 38 e6 01 94  	bl	0x8ab80 <_ZNSt3__119__shared_weak_count14__release_weakEv@plt>
   112e0: 40 e6 01 94  	bl	0x8abe0 <_ZdlPv@plt>
   1130c: 39 e6 01 94  	bl	0x8abf0 <_ZN2cv3Mat10deallocateEv@plt>
   1140c: fd e5 01 94  	bl	0x8ac00 <_ZN2cv8fastFreeEPv@plt>
   11474: ef e5 01 94  	bl	0x8ac30 <_ZN2cv12getTickCountEv@plt>
   11544: 8b e5 01 94  	bl	0x8ab70 <_Znwm@plt>
   115bc: 6d e5 01 94  	bl	0x8ab70 <_Znwm@plt>
   1163c: b1 e5 01 94  	bl	0x8ad00 <_ZN2cv3Mat6createEiPKii@plt>
   1165c: 45 e5 01 94  	bl	0x8ab70 <_Znwm@plt>
   116a8: 32 e5 01 94  	bl	0x8ab70 <_Znwm@plt>
   116f4: 1f e5 01 94  	bl	0x8ab70 <_Znwm@plt>
   11738: 3e e5 01 94  	bl	0x8ac30 <_ZN2cv12getTickCountEv@plt>
   11b50: 38 e4 01 94  	bl	0x8ac30 <_ZN2cv12getTickCountEv@plt>
   11bac: f1 e3 01 94  	bl	0x8ab70 <_Znwm@plt>
   11c9c: d1 e3 01 94  	bl	0x8abe0 <_ZdlPv@plt>
   11ca4: e3 e3 01 94  	bl	0x8ac30 <_ZN2cv12getTickCountEv@plt>
   11d1c: 05 e4 01 94  	bl	0x8ad30 <_ZN2cv3Mat5zerosEiii@plt>
   11dc0: e0 e3 01 94  	bl	0x8ad40 <_ZNK2cv3Mat9convertToERKNS_12_OutputArrayEidd@plt>
   11dc8: 9a e3 01 94  	bl	0x8ac30 <_ZN2cv12getTickCountEv@plt>
   11ddc: b5 e3 01 94  	bl	0x8acb0 <_ZN2cv16getTickFrequencyEv@plt>
   11e24: a3 e3 01 94  	bl	0x8acb0 <_ZN2cv16getTickFrequencyEv@plt>
   11e68: 92 e3 01 94  	bl	0x8acb0 <_ZN2cv16getTickFrequencyEv@plt>
   11eb0: 80 e3 01 94  	bl	0x8acb0 <_ZN2cv16getTickFrequencyEv@plt>
   11f60: 28 e3 01 94  	bl	0x8ac00 <_ZN2cv8fastFreeEPv@plt>
   11fd4: 03 e3 01 94  	bl	0x8abe0 <_ZdlPv@plt>
   11ffc: f9 e2 01 94  	bl	0x8abe0 <_ZdlPv@plt>
   12020: f0 e2 01 94  	bl	0x8abe0 <_ZdlPv@plt>
   1204c: e9 e2 01 94  	bl	0x8abf0 <_ZN2cv3Mat10deallocateEv@plt>
   12150: ac e2 01 94  	bl	0x8ac00 <_ZN2cv8fastFreeEPv@plt>
   12174: 9b e2 01 94  	bl	0x8abe0 <_ZdlPv@plt>
   12198: 92 e2 01 94  	bl	0x8abe0 <_ZdlPv@plt>
   121b8: ca e2 01 94  	bl	0x8ace0 <_ZNKSt3__120__vector_base_commonILb1EE20__throw_length_errorEv@plt>
   121c0: c8 e2 01 94  	bl	0x8ace0 <_ZNKSt3__120__vector_base_commonILb1EE20__throw_length_errorEv@plt>
   121c8: c6 e2 01 94  	bl	0x8ace0 <_ZNKSt3__120__vector_base_commonILb1EE20__throw_length_errorEv@plt>
   121d0: c4 e2 01 94  	bl	0x8ace0 <_ZNKSt3__120__vector_base_commonILb1EE20__throw_length_errorEv@plt>
   121d8: c2 e2 01 94  	bl	0x8ace0 <_ZNKSt3__120__vector_base_commonILb1EE20__throw_length_errorEv@plt>
   121e0: c0 e2 01 94  	bl	0x8ace0 <_ZNKSt3__120__vector_base_commonILb1EE20__throw_length_errorEv@plt>
   12214: 73 e2 01 94  	bl	0x8abe0 <_ZdlPv@plt>
   1235c: 21 e2 01 94  	bl	0x8abe0 <_ZdlPv@plt>
   1239c: 15 e2 01 94  	bl	0x8abf0 <_ZN2cv3Mat10deallocateEv@plt>
   1249c: d9 e1 01 94  	bl	0x8ac00 <_ZN2cv8fastFreeEPv@plt>
   124dc: c1 e1 01 94  	bl	0x8abe0 <_ZdlPv@plt>
   12500: b8 e1 01 94  	bl	0x8abe0 <_ZdlPv@plt>
   12524: af e1 01 94  	bl	0x8abe0 <_ZdlPv@plt>
   12550: a8 e1 01 94  	bl	0x8abf0 <_ZN2cv3Mat10deallocateEv@plt>
   12658: 6a e1 01 94  	bl	0x8ac00 <_ZN2cv8fastFreeEPv@plt>
   1267c: 59 e1 01 94  	bl	0x8abe0 <_ZdlPv@plt>
   126a8: 4e e1 01 94  	bl	0x8abe0 <_ZdlPv@plt>
   1274c: 39 e1 01 94  	bl	0x8ac30 <_ZN2cv12getTickCountEv@plt>
   1281c: f5 e0 01 94  	bl	0x8abf0 <_ZN2cv3Mat10deallocateEv@plt>
   12864: e7 e0 01 94  	bl	0x8ac00 <_ZN2cv8fastFreeEPv@plt>
   12898: b6 e0 01 94  	bl	0x8ab70 <_Znwm@plt>
   129f4: 7f e0 01 94  	bl	0x8abf0 <_ZN2cv3Mat10deallocateEv@plt>
   12a3c: 71 e0 01 94  	bl	0x8ac00 <_ZN2cv8fastFreeEPv@plt>
   12af0: 40 e0 01 94  	bl	0x8abf0 <_ZN2cv3Mat10deallocateEv@plt>
   12b98: 6e e0 01 94  	bl	0x8ad50 <_ZN2cv3Mat8copySizeERKS0_@plt>
   12c20: f4 df 01 94  	bl	0x8abf0 <_ZN2cv3Mat10deallocateEv@plt>
   12cc8: 22 e0 01 94  	bl	0x8ad50 <_ZN2cv3Mat8copySizeERKS0_@plt>
   12e10: d0 df 01 94  	bl	0x8ad50 <_ZN2cv3Mat8copySizeERKS0_@plt>
   12efc: 81 df 01 94  	bl	0x8ad00 <_ZN2cv3Mat6createEiPKii@plt>
   12f4c: 29 df 01 94  	bl	0x8abf0 <_ZN2cv3Mat10deallocateEv@plt>
   12ffc: 55 df 01 94  	bl	0x8ad50 <_ZN2cv3Mat8copySizeERKS0_@plt>
   1308c: 1d df 01 94  	bl	0x8ad00 <_ZN2cv3Mat6createEiPKii@plt>
   130c0: dc de 01 94  	bl	0x8ac30 <_ZN2cv12getTickCountEv@plt>
   13118: 12 df 01 94  	bl	0x8ad60 <_ZN2cv3Mat3eyeEiii@plt>
   131dc: e1 de 01 94  	bl	0x8ad60 <_ZN2cv3Mat3eyeEiii@plt>
   13248: 7a de 01 94  	bl	0x8ac30 <_ZN2cv12getTickCountEv@plt>
   1333c: 2d de 01 94  	bl	0x8abf0 <_ZN2cv3Mat10deallocateEv@plt>
   13418: f6 dd 01 94  	bl	0x8abf0 <_ZN2cv3Mat10deallocateEv@plt>
   134ec: c1 dd 01 94  	bl	0x8abf0 <_ZN2cv3Mat10deallocateEv@plt>
   13524: 13 de 01 94  	bl	0x8ad70 <_ZN2cv12equalizeHistERKNS_11_InputArrayERKNS_12_OutputArrayE@plt>
   13540: 10 de 01 94  	bl	0x8ad80 <_ZNK2cv3Mat6copyToERKNS_12_OutputArrayE@plt>
   13578: fe dd 01 94  	bl	0x8ad70 <_ZN2cv12equalizeHistERKNS_11_InputArrayERKNS_12_OutputArrayE@plt>
   13594: fb dd 01 94  	bl	0x8ad80 <_ZNK2cv3Mat6copyToERKNS_12_OutputArrayE@plt>
   135c8: ea dd 01 94  	bl	0x8ad70 <_ZN2cv12equalizeHistERKNS_11_InputArrayERKNS_12_OutputArrayE@plt>
   135e4: e7 dd 01 94  	bl	0x8ad80 <_ZNK2cv3Mat6copyToERKNS_12_OutputArrayE@plt>
   137ac: 69 dd 01 94  	bl	0x8ad50 <_ZN2cv3Mat8copySizeERKS0_@plt>
   13800: 5c dd 01 94  	bl	0x8ad70 <_ZN2cv12equalizeHistERKNS_11_InputArrayERKNS_12_OutputArrayE@plt>
   1384c: e9 dc 01 94  	bl	0x8abf0 <_ZN2cv3Mat10deallocateEv@plt>
   1394c: ad dc 01 94  	bl	0x8ac00 <_ZN2cv8fastFreeEPv@plt>
   13978: 9e dc 01 94  	bl	0x8abf0 <_ZN2cv3Mat10deallocateEv@plt>
   13a78: 62 dc 01 94  	bl	0x8ac00 <_ZN2cv8fastFreeEPv@plt>
   13a9c: ad dc 01 94  	bl	0x8ad50 <_ZN2cv3Mat8copySizeERKS0_@plt>
   13af0: a0 dc 01 94  	bl	0x8ad70 <_ZN2cv12equalizeHistERKNS_11_InputArrayERKNS_12_OutputArrayE@plt>
   13b3c: 2d dc 01 94  	bl	0x8abf0 <_ZN2cv3Mat10deallocateEv@plt>
   13c40: f0 db 01 94  	bl	0x8ac00 <_ZN2cv8fastFreeEPv@plt>
   13c6c: e1 db 01 94  	bl	0x8abf0 <_ZN2cv3Mat10deallocateEv@plt>
   13d68: a6 db 01 94  	bl	0x8ac00 <_ZN2cv8fastFreeEPv@plt>
   13d8c: f1 db 01 94  	bl	0x8ad50 <_ZN2cv3Mat8copySizeERKS0_@plt>
   13ddc: e5 db 01 94  	bl	0x8ad70 <_ZN2cv12equalizeHistERKNS_11_InputArrayERKNS_12_OutputArrayE@plt>
   13e28: 72 db 01 94  	bl	0x8abf0 <_ZN2cv3Mat10deallocateEv@plt>
   13f28: 36 db 01 94  	bl	0x8ac00 <_ZN2cv8fastFreeEPv@plt>
   13f54: 27 db 01 94  	bl	0x8abf0 <_ZN2cv3Mat10deallocateEv@plt>
   14054: eb da 01 94  	bl	0x8ac00 <_ZN2cv8fastFreeEPv@plt>
   14058: f6 da 01 94  	bl	0x8ac30 <_ZN2cv12getTickCountEv@plt>
   1411c: b5 da 01 94  	bl	0x8abf0 <_ZN2cv3Mat10deallocateEv@plt>
   141c4: 8b da 01 94  	bl	0x8abf0 <_ZN2cv3Mat10deallocateEv@plt>
   1426c: 61 da 01 94  	bl	0x8abf0 <_ZN2cv3Mat10deallocateEv@plt>
   1438c: 1d da 01 94  	bl	0x8ac00 <_ZN2cv8fastFreeEPv@plt>
   143fc: 01 da 01 94  	bl	0x8ac00 <_ZN2cv8fastFreeEPv@plt>
   144f4: c3 d9 01 94  	bl	0x8ac00 <_ZN2cv8fastFreeEPv@plt>
   14568: a6 d9 01 94  	bl	0x8ac00 <_ZN2cv8fastFreeEPv@plt>
   14660: 68 d9 01 94  	bl	0x8ac00 <_ZN2cv8fastFreeEPv@plt>
   146d4: 4b d9 01 94  	bl	0x8ac00 <_ZN2cv8fastFreeEPv@plt>
   14734: 93 d9 01 94  	bl	0x8ad80 <_ZNK2cv3Mat6copyToERKNS_12_OutputArrayE@plt>
   14760: 24 d9 01 94  	bl	0x8abf0 <_ZN2cv3Mat10deallocateEv@plt>
   14860: e8 d8 01 94  	bl	0x8ac00 <_ZN2cv8fastFreeEPv@plt>
   14b44: 3b d8 01 94  	bl	0x8ac30 <_ZN2cv12getTickCountEv@plt>
   14b64: 33 d8 01 94  	bl	0x8ac30 <_ZN2cv12getTickCountEv@plt>
   14dc0: e4 d7 01 94  	bl	0x8ad50 <_ZN2cv3Mat8copySizeERKS0_@plt>
   14ebc: a5 d7 01 94  	bl	0x8ad50 <_ZN2cv3Mat8copySizeERKS0_@plt>
   14f20: 78 d7 01 94  	bl	0x8ad00 <_ZN2cv3Mat6createEiPKii@plt>
   14f68: 22 d7 01 94  	bl	0x8abf0 <_ZN2cv3Mat10deallocateEv@plt>
   15008: 52 d7 01 94  	bl	0x8ad50 <_ZN2cv3Mat8copySizeERKS0_@plt>
   1512c: 09 d7 01 94  	bl	0x8ad50 <_ZN2cv3Mat8copySizeERKS0_@plt>
   151e8: da d6 01 94  	bl	0x8ad50 <_ZN2cv3Mat8copySizeERKS0_@plt>
   152b8: a6 d6 01 94  	bl	0x8ad50 <_ZN2cv3Mat8copySizeERKS0_@plt>
   1536c: 79 d6 01 94  	bl	0x8ad50 <_ZN2cv3Mat8copySizeERKS0_@plt>
   15418: 4e d6 01 94  	bl	0x8ad50 <_ZN2cv3Mat8copySizeERKS0_@plt>
   15874: 47 d5 01 94  	bl	0x8ad90 <_ZNSt3__118condition_variableD1Ev@plt>
   1587c: e5 d4 01 94  	bl	0x8ac10 <_ZNSt3__15mutexD1Ev@plt>
   158e0: a8 d4 01 94  	bl	0x8ab80 <_ZNSt3__119__shared_weak_count14__release_weakEv@plt>
   15904: b7 d4 01 94  	bl	0x8abe0 <_ZdlPv@plt>
   15928: ae d4 01 94  	bl	0x8abe0 <_ZdlPv@plt>
   1594c: a5 d4 01 94  	bl	0x8abe0 <_ZdlPv@plt>
   15970: 9c d4 01 94  	bl	0x8abe0 <_ZdlPv@plt>
   1599c: 95 d4 01 94  	bl	0x8abf0 <_ZN2cv3Mat10deallocateEv@plt>
   15a98: 5a d4 01 94  	bl	0x8ac00 <_ZN2cv8fastFreeEPv@plt>
   15a9c: 65 d4 01 94  	bl	0x8ac30 <_ZN2cv12getTickCountEv@plt>
   15ae8: 9e d4 01 94  	bl	0x8ad60 <_ZN2cv3Mat3eyeEiii@plt>
   15b74: 1f d4 01 94  	bl	0x8abf0 <_ZN2cv3Mat10deallocateEv@plt>
   15c14: 07 d4 01 94  	bl	0x8ac30 <_ZN2cv12getTickCountEv@plt>
   15c60: e4 d3 01 94  	bl	0x8abf0 <_ZN2cv3Mat10deallocateEv@plt>
   15d60: 10 d4 01 94  	bl	0x8ada0 <_ZN2cv22estimateRigidTransformERKNS_11_InputArrayES2_b@plt>
   15d90: 98 d3 01 94  	bl	0x8abf0 <_ZN2cv3Mat10deallocateEv@plt>
   15e6c: 41 d3 01 94  	bl	0x8ab70 <_Znwm@plt>
   15f78: fe d2 01 94  	bl	0x8ab70 <_Znwm@plt>
   15fd8: e6 d2 01 94  	bl	0x8ab70 <_Znwm@plt>
   1611c: b5 d2 01 94  	bl	0x8abf0 <_ZN2cv3Mat10deallocateEv@plt>
   161fc: 79 d2 01 94  	bl	0x8abe0 <_ZdlPv@plt>
   16244: 67 d2 01 94  	bl	0x8abe0 <_ZdlPv@plt>
   16268: 5e d2 01 94  	bl	0x8abe0 <_ZdlPv@plt>
   16298: b2 d2 01 94  	bl	0x8ad60 <_ZN2cv3Mat3eyeEiii@plt>
   1638c: 1d d2 01 94  	bl	0x8ac00 <_ZN2cv8fastFreeEPv@plt>
   1648c: dd d1 01 94  	bl	0x8ac00 <_ZN2cv8fastFreeEPv@plt>
   164e4: c7 d1 01 94  	bl	0x8ac00 <_ZN2cv8fastFreeEPv@plt>
   16598: 96 d1 01 94  	bl	0x8abf0 <_ZN2cv3Mat10deallocateEv@plt>
   1669c: ad d1 01 94  	bl	0x8ad50 <_ZN2cv3Mat8copySizeERKS0_@plt>
   166f8: 3e d1 01 94  	bl	0x8abf0 <_ZN2cv3Mat10deallocateEv@plt>
   16818: fa d0 01 94  	bl	0x8ac00 <_ZN2cv8fastFreeEPv@plt>
   16870: e4 d0 01 94  	bl	0x8ac00 <_ZN2cv8fastFreeEPv@plt>
   168f0: c0 d0 01 94  	bl	0x8abf0 <_ZN2cv3Mat10deallocateEv@plt>
   169f0: 84 d0 01 94  	bl	0x8ac00 <_ZN2cv8fastFreeEPv@plt>
   16aac: 55 d0 01 94  	bl	0x8ac00 <_ZN2cv8fastFreeEPv@plt>
   16b18: 3a d0 01 94  	bl	0x8ac00 <_ZN2cv8fastFreeEPv@plt>
   16bc8: 0a d0 01 94  	bl	0x8abf0 <_ZN2cv3Mat10deallocateEv@plt>
   16d08: be cf 01 94  	bl	0x8ac00 <_ZN2cv8fastFreeEPv@plt>
   16d60: a8 cf 01 94  	bl	0x8ac00 <_ZN2cv8fastFreeEPv@plt>
   16e4c: c5 cf 01 94  	bl	0x8ad60 <_ZN2cv3Mat3eyeEiii@plt>
   16ea4: c3 cf 01 94  	bl	0x8adb0 <_ZN2cv3MatC1ERKS0_RKNS_5Rect_IiEE@plt>
   16ec4: af cf 01 94  	bl	0x8ad80 <_ZNK2cv3Mat6copyToERKNS_12_OutputArrayE@plt>
   16ef0: 40 cf 01 94  	bl	0x8abf0 <_ZN2cv3Mat10deallocateEv@plt>
   16f74: 77 cf 01 94  	bl	0x8ad50 <_ZN2cv3Mat8copySizeERKS0_@plt>
   16fc8: 0a cf 01 94  	bl	0x8abf0 <_ZN2cv3Mat10deallocateEv@plt>
   170e8: c6 ce 01 94  	bl	0x8ac00 <_ZN2cv8fastFreeEPv@plt>
   17140: b0 ce 01 94  	bl	0x8ac00 <_ZN2cv8fastFreeEPv@plt>
   171bc: 8d ce 01 94  	bl	0x8abf0 <_ZN2cv3Mat10deallocateEv@plt>
   172b8: 52 ce 01 94  	bl	0x8ac00 <_ZN2cv8fastFreeEPv@plt>
   17374: 23 ce 01 94  	bl	0x8ac00 <_ZN2cv8fastFreeEPv@plt>
   173d0: 0c ce 01 94  	bl	0x8ac00 <_ZN2cv8fastFreeEPv@plt>
   174b8: d2 cd 01 94  	bl	0x8ac00 <_ZN2cv8fastFreeEPv@plt>
   174e8: c2 cd 01 94  	bl	0x8abf0 <_ZN2cv3Mat10deallocateEv@plt>
   175e4: 87 cd 01 94  	bl	0x8ac00 <_ZN2cv8fastFreeEPv@plt>
   17690: 58 cd 01 94  	bl	0x8abf0 <_ZN2cv3Mat10deallocateEv@plt>
   17734: 87 cd 01 94  	bl	0x8ad50 <_ZN2cv3Mat8copySizeERKS0_@plt>
   1778c: 19 cd 01 94  	bl	0x8abf0 <_ZN2cv3Mat10deallocateEv@plt>
   178a8: d6 cc 01 94  	bl	0x8ac00 <_ZN2cv8fastFreeEPv@plt>
   17900: c0 cc 01 94  	bl	0x8ac00 <_ZN2cv8fastFreeEPv@plt>
   1797c: 9d cc 01 94  	bl	0x8abf0 <_ZN2cv3Mat10deallocateEv@plt>
   17a7c: 61 cc 01 94  	bl	0x8ac00 <_ZN2cv8fastFreeEPv@plt>
   17aa8: 62 cc 01 94  	bl	0x8ac30 <_ZN2cv12getTickCountEv@plt>
   17af0: 9c cc 01 94  	bl	0x8ad60 <_ZN2cv3Mat3eyeEiii@plt>
   17bbc: ed cb 01 94  	bl	0x8ab70 <_Znwm@plt>
   17be0: 00 cc 01 94  	bl	0x8abe0 <_ZdlPv@plt>
   17d24: 0f cc 01 94  	bl	0x8ad60 <_ZN2cv3Mat3eyeEiii@plt>
   17db4: 9f cb 01 94  	bl	0x8ac30 <_ZN2cv12getTickCountEv@plt>
   17dc8: ba cb 01 94  	bl	0x8acb0 <_ZN2cv16getTickFrequencyEv@plt>
   17e10: a8 cb 01 94  	bl	0x8acb0 <_ZN2cv16getTickFrequencyEv@plt>
   17e58: 96 cb 01 94  	bl	0x8acb0 <_ZN2cv16getTickFrequencyEv@plt>
   17ea0: 84 cb 01 94  	bl	0x8acb0 <_ZN2cv16getTickFrequencyEv@plt>
   17ee4: 73 cb 01 94  	bl	0x8acb0 <_ZN2cv16getTickFrequencyEv@plt>
   17f48: 2a cb 01 94  	bl	0x8abf0 <_ZN2cv3Mat10deallocateEv@plt>
   18044: ef ca 01 94  	bl	0x8ac00 <_ZN2cv8fastFreeEPv@plt>
   18070: e0 ca 01 94  	bl	0x8abf0 <_ZN2cv3Mat10deallocateEv@plt>
   18170: a4 ca 01 94  	bl	0x8ac00 <_ZN2cv8fastFreeEPv@plt>
   18194: 93 ca 01 94  	bl	0x8abe0 <_ZdlPv@plt>
   181b8: 8a ca 01 94  	bl	0x8abe0 <_ZdlPv@plt>
   181e4: 83 ca 01 94  	bl	0x8abf0 <_ZN2cv3Mat10deallocateEv@plt>
   182e4: 47 ca 01 94  	bl	0x8ac00 <_ZN2cv8fastFreeEPv@plt>
   1833c: 2d ca 01 94  	bl	0x8abf0 <_ZN2cv3Mat10deallocateEv@plt>
   18384: 1f ca 01 94  	bl	0x8ac00 <_ZN2cv8fastFreeEPv@plt>
   183b8: 0a ca 01 94  	bl	0x8abe0 <_ZdlPv@plt>
   18464: e3 c9 01 94  	bl	0x8abf0 <_ZN2cv3Mat10deallocateEv@plt>
   18524: b3 c9 01 94  	bl	0x8abf0 <_ZN2cv3Mat10deallocateEv@plt>
   185c0: 8c c9 01 94  	bl	0x8abf0 <_ZN2cv3Mat10deallocateEv@plt>
   185ec: 81 c9 01 94  	bl	0x8abf0 <_ZN2cv3Mat10deallocateEv@plt>
   186ac: 55 c9 01 94  	bl	0x8ac00 <_ZN2cv8fastFreeEPv@plt>
   18840: f0 c8 01 94  	bl	0x8ac00 <_ZN2cv8fastFreeEPv@plt>
   188f8: c2 c8 01 94  	bl	0x8ac00 <_ZN2cv8fastFreeEPv@plt>
   18a74: 63 c8 01 94  	bl	0x8ac00 <_ZN2cv8fastFreeEPv@plt>
   18a94: 93 c8 01 94  	bl	0x8ace0 <_ZNKSt3__120__vector_base_commonILb1EE20__throw_length_errorEv@plt>
   18a9c: 91 c8 01 94  	bl	0x8ace0 <_ZNKSt3__120__vector_base_commonILb1EE20__throw_length_errorEv@plt>
   18aa4: 8f c8 01 94  	bl	0x8ace0 <_ZNKSt3__120__vector_base_commonILb1EE20__throw_length_errorEv@plt>
   18ae0: 40 c8 01 94  	bl	0x8abe0 <_ZdlPv@plt>
   18b10: 34 c8 01 94  	bl	0x8abe0 <_ZdlPv@plt>
   18b7c: 1d c8 01 94  	bl	0x8abf0 <_ZN2cv3Mat10deallocateEv@plt>
   18c80: e0 c7 01 94  	bl	0x8ac00 <_ZN2cv8fastFreeEPv@plt>
   18cb8: ce c7 01 94  	bl	0x8abf0 <_ZN2cv3Mat10deallocateEv@plt>
   18dbc: 91 c7 01 94  	bl	0x8ac00 <_ZN2cv8fastFreeEPv@plt>
   18e24: 73 c7 01 94  	bl	0x8abf0 <_ZN2cv3Mat10deallocateEv@plt>
   18f30: 34 c7 01 94  	bl	0x8ac00 <_ZN2cv8fastFreeEPv@plt>
   18f6c: 21 c7 01 94  	bl	0x8abf0 <_ZN2cv3Mat10deallocateEv@plt>
   19078: e2 c6 01 94  	bl	0x8ac00 <_ZN2cv8fastFreeEPv@plt>
   190b4: cf c6 01 94  	bl	0x8abf0 <_ZN2cv3Mat10deallocateEv@plt>
   191c0: 90 c6 01 94  	bl	0x8ac00 <_ZN2cv8fastFreeEPv@plt>
   1923c: 6d c6 01 94  	bl	0x8abf0 <_ZN2cv3Mat10deallocateEv@plt>
   1933c: 31 c6 01 94  	bl	0x8ac00 <_ZN2cv8fastFreeEPv@plt>
   19368: 22 c6 01 94  	bl	0x8abf0 <_ZN2cv3Mat10deallocateEv@plt>
   19464: e7 c5 01 94  	bl	0x8ac00 <_ZN2cv8fastFreeEPv@plt>
   194a4: d3 c5 01 94  	bl	0x8abf0 <_ZN2cv3Mat10deallocateEv@plt>
   195a4: 97 c5 01 94  	bl	0x8ac00 <_ZN2cv8fastFreeEPv@plt>
   195d0: 88 c5 01 94  	bl	0x8abf0 <_ZN2cv3Mat10deallocateEv@plt>
   196cc: 4d c5 01 94  	bl	0x8ac00 <_ZN2cv8fastFreeEPv@plt>
   1970c: 39 c5 01 94  	bl	0x8abf0 <_ZN2cv3Mat10deallocateEv@plt>
   1980c: fd c4 01 94  	bl	0x8ac00 <_ZN2cv8fastFreeEPv@plt>
   19838: ee c4 01 94  	bl	0x8abf0 <_ZN2cv3Mat10deallocateEv@plt>
   19934: b3 c4 01 94  	bl	0x8ac00 <_ZN2cv8fastFreeEPv@plt>
   19970: a0 c4 01 94  	bl	0x8abf0 <_ZN2cv3Mat10deallocateEv@plt>
   19a6c: 65 c4 01 94  	bl	0x8ac00 <_ZN2cv8fastFreeEPv@plt>
   19b14: 37 c4 01 94  	bl	0x8abf0 <_ZN2cv3Mat10deallocateEv@plt>
   19c18: fa c3 01 94  	bl	0x8ac00 <_ZN2cv8fastFreeEPv@plt>
   19c44: eb c3 01 94  	bl	0x8abf0 <_ZN2cv3Mat10deallocateEv@plt>
   19d44: af c3 01 94  	bl	0x8ac00 <_ZN2cv8fastFreeEPv@plt>
   19d70: a0 c3 01 94  	bl	0x8abf0 <_ZN2cv3Mat10deallocateEv@plt>
   19e6c: 65 c3 01 94  	bl	0x8ac00 <_ZN2cv8fastFreeEPv@plt>
   19e84: 63 c3 01 94  	bl	0x8ac10 <_ZNSt3__15mutexD1Ev@plt>
   19eec: 41 c3 01 94  	bl	0x8abf0 <_ZN2cv3Mat10deallocateEv@plt>
   19fe8: 06 c3 01 94  	bl	0x8ac00 <_ZN2cv8fastFreeEPv@plt>
   1a018: f2 c2 01 94  	bl	0x8abe0 <_ZdlPv@plt>
   1a03c: e9 c2 01 94  	bl	0x8abe0 <_ZdlPv@plt>
   1a074: df c2 01 94  	bl	0x8abf0 <_ZN2cv3Mat10deallocateEv@plt>
   1a170: a4 c2 01 94  	bl	0x8ac00 <_ZN2cv8fastFreeEPv@plt>
   1a1b8: 8e c2 01 94  	bl	0x8abf0 <_ZN2cv3Mat10deallocateEv@plt>
   1a2b8: 52 c2 01 94  	bl	0x8ac00 <_ZN2cv8fastFreeEPv@plt>
   1a2f4: 3f c2 01 94  	bl	0x8abf0 <_ZN2cv3Mat10deallocateEv@plt>
   1a3f0: 04 c2 01 94  	bl	0x8ac00 <_ZN2cv8fastFreeEPv@plt>
   1a45c: e5 c1 01 94  	bl	0x8abf0 <_ZN2cv3Mat10deallocateEv@plt>
   1a55c: a9 c1 01 94  	bl	0x8ac00 <_ZN2cv8fastFreeEPv@plt>
   1a5a8: 92 c1 01 94  	bl	0x8abf0 <_ZN2cv3Mat10deallocateEv@plt>
   1a6ac: 55 c1 01 94  	bl	0x8ac00 <_ZN2cv8fastFreeEPv@plt>
   1a6f0: 40 c1 01 94  	bl	0x8abf0 <_ZN2cv3Mat10deallocateEv@plt>
   1a7ec: 05 c1 01 94  	bl	0x8ac00 <_ZN2cv8fastFreeEPv@plt>
   1a824: f3 c0 01 94  	bl	0x8abf0 <_ZN2cv3Mat10deallocateEv@plt>
   1a924: b7 c0 01 94  	bl	0x8ac00 <_ZN2cv8fastFreeEPv@plt>
   1a96c: a1 c0 01 94  	bl	0x8abf0 <_ZN2cv3Mat10deallocateEv@plt>
   1aa6c: 65 c0 01 94  	bl	0x8ac00 <_ZN2cv8fastFreeEPv@plt>
   1aaa4: 53 c0 01 94  	bl	0x8abf0 <_ZN2cv3Mat10deallocateEv@plt>
   1aba4: 17 c0 01 94  	bl	0x8ac00 <_ZN2cv8fastFreeEPv@plt>
   1abe4: 03 c0 01 94  	bl	0x8abf0 <_ZN2cv3Mat10deallocateEv@plt>
   1ace0: c8 bf 01 94  	bl	0x8ac00 <_ZN2cv8fastFreeEPv@plt>
   1ad18: b6 bf 01 94  	bl	0x8abf0 <_ZN2cv3Mat10deallocateEv@plt>
   1ae14: 7b bf 01 94  	bl	0x8ac00 <_ZN2cv8fastFreeEPv@plt>
   1ae4c: 69 bf 01 94  	bl	0x8abf0 <_ZN2cv3Mat10deallocateEv@plt>
   1af4c: 2d bf 01 94  	bl	0x8ac00 <_ZN2cv8fastFreeEPv@plt>
   1af90: 18 bf 01 94  	bl	0x8abf0 <_ZN2cv3Mat10deallocateEv@plt>
   1b090: dc be 01 94  	bl	0x8ac00 <_ZN2cv8fastFreeEPv@plt>
   1b0e4: c3 be 01 94  	bl	0x8abf0 <_ZN2cv3Mat10deallocateEv@plt>
   1b1e0: 88 be 01 94  	bl	0x8ac00 <_ZN2cv8fastFreeEPv@plt>
   1b270: 60 be 01 94  	bl	0x8abf0 <_ZN2cv3Mat10deallocateEv@plt>
   1b37c: 21 be 01 94  	bl	0x8ac00 <_ZN2cv8fastFreeEPv@plt>
   1b3f4: ff bd 01 94  	bl	0x8abf0 <_ZN2cv3Mat10deallocateEv@plt>
   1b504: bf bd 01 94  	bl	0x8ac00 <_ZN2cv8fastFreeEPv@plt>
   1b530: b0 bd 01 94  	bl	0x8abf0 <_ZN2cv3Mat10deallocateEv@plt>
   1b634: 73 bd 01 94  	bl	0x8ac00 <_ZN2cv8fastFreeEPv@plt>
   1b660: 64 bd 01 94  	bl	0x8abf0 <_ZN2cv3Mat10deallocateEv@plt>
   1b764: 27 bd 01 94  	bl	0x8ac00 <_ZN2cv8fastFreeEPv@plt>
   1b77c: 25 bd 01 94  	bl	0x8ac10 <_ZNSt3__15mutexD1Ev@plt>
   1b7b8: 0a bd 01 94  	bl	0x8abe0 <_ZdlPv@plt>
   1b7dc: 01 bd 01 94  	bl	0x8abe0 <_ZdlPv@plt>
   1b808: fa bc 01 94  	bl	0x8abf0 <_ZN2cv3Mat10deallocateEv@plt>
   1b908: be bc 01 94  	bl	0x8ac00 <_ZN2cv8fastFreeEPv@plt>
   1b934: af bc 01 94  	bl	0x8abf0 <_ZN2cv3Mat10deallocateEv@plt>
   1ba34: 73 bc 01 94  	bl	0x8ac00 <_ZN2cv8fastFreeEPv@plt>
   1ba60: 64 bc 01 94  	bl	0x8abf0 <_ZN2cv3Mat10deallocateEv@plt>
   1bb60: 28 bc 01 94  	bl	0x8ac00 <_ZN2cv8fastFreeEPv@plt>
   1bb8c: 19 bc 01 94  	bl	0x8abf0 <_ZN2cv3Mat10deallocateEv@plt>
   1bc8c: dd bb 01 94  	bl	0x8ac00 <_ZN2cv8fastFreeEPv@plt>
   1bcb8: ce bb 01 94  	bl	0x8abf0 <_ZN2cv3Mat10deallocateEv@plt>
   1bdb8: 92 bb 01 94  	bl	0x8ac00 <_ZN2cv8fastFreeEPv@plt>
   1bdd0: 90 bb 01 94  	bl	0x8ac10 <_ZNSt3__15mutexD1Ev@plt>
   1be00: e4 bb 01 94  	bl	0x8ad90 <_ZNSt3__118condition_variableD1Ev@plt>
   1be08: 82 bb 01 94  	bl	0x8ac10 <_ZNSt3__15mutexD1Ev@plt>
   1be68: 46 bb 01 94  	bl	0x8ab80 <_ZNSt3__119__shared_weak_count14__release_weakEv@plt>
   1be8c: 55 bb 01 94  	bl	0x8abe0 <_ZdlPv@plt>
   1beb0: 4c bb 01 94  	bl	0x8abe0 <_ZdlPv@plt>
   1bed4: 43 bb 01 94  	bl	0x8abe0 <_ZdlPv@plt>
   1bef8: 3a bb 01 94  	bl	0x8abe0 <_ZdlPv@plt>
   1bf24: 33 bb 01 94  	bl	0x8abf0 <_ZN2cv3Mat10deallocateEv@plt>
   1c020: f8 ba 01 94  	bl	0x8ac00 <_ZN2cv8fastFreeEPv@plt>
   1c04c: e9 ba 01 94  	bl	0x8abf0 <_ZN2cv3Mat10deallocateEv@plt>
   1c148: ae ba 01 94  	bl	0x8ac00 <_ZN2cv8fastFreeEPv@plt>
   1c174: 9f ba 01 94  	bl	0x8abf0 <_ZN2cv3Mat10deallocateEv@plt>
   1c274: 63 ba 01 94  	bl	0x8ac00 <_ZN2cv8fastFreeEPv@plt>
   1c298: 52 ba 01 94  	bl	0x8abe0 <_ZdlPv@plt>
   1c2bc: 49 ba 01 94  	bl	0x8abe0 <_ZdlPv@plt>
   1c2e8: 42 ba 01 94  	bl	0x8abf0 <_ZN2cv3Mat10deallocateEv@plt>
   1c3e8: 06 ba 01 94  	bl	0x8ac00 <_ZN2cv8fastFreeEPv@plt>
   1c440: ec b9 01 94  	bl	0x8abf0 <_ZN2cv3Mat10deallocateEv@plt>
   1c488: de b9 01 94  	bl	0x8ac00 <_ZN2cv8fastFreeEPv@plt>
   1c4c0: c8 b9 01 94  	bl	0x8abe0 <_ZdlPv@plt>
   1c654: bf b9 01 94  	bl	0x8ad50 <_ZN2cv3Mat8copySizeERKS0_@plt>
   1c724: 8b b9 01 94  	bl	0x8ad50 <_ZN2cv3Mat8copySizeERKS0_@plt>
   1c858: 2a b9 01 94  	bl	0x8ad00 <_ZN2cv3Mat6createEiPKii@plt>
   1c864: 5b b9 01 94  	bl	0x8add0 <_ZN2cv3MataSERKNS_7Scalar_IdEE@plt>
   1c8d0: 0c b9 01 94  	bl	0x8ad00 <_ZN2cv3Mat6createEiPKii@plt>
   1c93c: f1 b8 01 94  	bl	0x8ad00 <_ZN2cv3Mat6createEiPKii@plt>
   1c990: 98 b8 01 94  	bl	0x8abf0 <_ZN2cv3Mat10deallocateEv@plt>
   1ca4c: c1 b8 01 94  	bl	0x8ad50 <_ZN2cv3Mat8copySizeERKS0_@plt>
   1cacc: 49 b8 01 94  	bl	0x8abf0 <_ZN2cv3Mat10deallocateEv@plt>
   1cb80: 74 b8 01 94  	bl	0x8ad50 <_ZN2cv3Mat8copySizeERKS0_@plt>
   1cc00: 40 b8 01 94  	bl	0x8ad00 <_ZN2cv3Mat6createEiPKii@plt>
   1cc50: e8 b7 01 94  	bl	0x8abf0 <_ZN2cv3Mat10deallocateEv@plt>
   1cd04: 13 b8 01 94  	bl	0x8ad50 <_ZN2cv3Mat8copySizeERKS0_@plt>
   1cdd4: 87 b7 01 94  	bl	0x8abf0 <_ZN2cv3Mat10deallocateEv@plt>
   1cedc: 49 b7 01 94  	bl	0x8ac00 <_ZN2cv8fastFreeEPv@plt>
   1cf08: 3a b7 01 94  	bl	0x8abf0 <_ZN2cv3Mat10deallocateEv@plt>
   1d010: fc b6 01 94  	bl	0x8ac00 <_ZN2cv8fastFreeEPv@plt>
   1d03c: ed b6 01 94  	bl	0x8abf0 <_ZN2cv3Mat10deallocateEv@plt>
   1d144: af b6 01 94  	bl	0x8ac00 <_ZN2cv8fastFreeEPv@plt>
   1d170: a0 b6 01 94  	bl	0x8abf0 <_ZN2cv3Mat10deallocateEv@plt>
   1d278: 62 b6 01 94  	bl	0x8ac00 <_ZN2cv8fastFreeEPv@plt>
   1d2a4: 53 b6 01 94  	bl	0x8abf0 <_ZN2cv3Mat10deallocateEv@plt>
   1d3a0: 18 b6 01 94  	bl	0x8ac00 <_ZN2cv8fastFreeEPv@plt>
   1d3cc: 09 b6 01 94  	bl	0x8abf0 <_ZN2cv3Mat10deallocateEv@plt>
   1d4c8: ce b5 01 94  	bl	0x8ac00 <_ZN2cv8fastFreeEPv@plt>
   1d4e0: cc b5 01 94  	bl	0x8ac10 <_ZNSt3__15mutexD1Ev@plt>
   1d6d4: af b5 01 94  	bl	0x8ad90 <_ZNSt3__118condition_variableD1Ev@plt>
   1d6dc: 4d b5 01 94  	bl	0x8ac10 <_ZNSt3__15mutexD1Ev@plt>
   1d73c: 11 b5 01 94  	bl	0x8ab80 <_ZNSt3__119__shared_weak_count14__release_weakEv@plt>
   1d760: 20 b5 01 94  	bl	0x8abe0 <_ZdlPv@plt>
   1d810: 60 b5 01 94  	bl	0x8ad90 <_ZNSt3__118condition_variableD1Ev@plt>
   1d818: fe b4 01 94  	bl	0x8ac10 <_ZNSt3__15mutexD1Ev@plt>
   1d86c: c5 b4 01 94  	bl	0x8ab80 <_ZNSt3__119__shared_weak_count14__release_weakEv@plt>
   1d898: d2 b4 01 94  	bl	0x8abe0 <_ZdlPv@plt>
   1d908: ba b4 01 94  	bl	0x8abf0 <_ZN2cv3Mat10deallocateEv@plt>
   1da0c: 7d b4 01 94  	bl	0x8ac00 <_ZN2cv8fastFreeEPv@plt>
   1da38: 6e b4 01 94  	bl	0x8abf0 <_ZN2cv3Mat10deallocateEv@plt>
   1db3c: 31 b4 01 94  	bl	0x8ac00 <_ZN2cv8fastFreeEPv@plt>
   1db68: 22 b4 01 94  	bl	0x8abf0 <_ZN2cv3Mat10deallocateEv@plt>
   1dc6c: e5 b3 01 94  	bl	0x8ac00 <_ZN2cv8fastFreeEPv@plt>
   1dc98: d6 b3 01 94  	bl	0x8abf0 <_ZN2cv3Mat10deallocateEv@plt>
   1dd9c: 99 b3 01 94  	bl	0x8ac00 <_ZN2cv8fastFreeEPv@plt>
   1ddc8: 8a b3 01 94  	bl	0x8abf0 <_ZN2cv3Mat10deallocateEv@plt>
   1dec4: 4f b3 01 94  	bl	0x8ac00 <_ZN2cv8fastFreeEPv@plt>
   1def0: 40 b3 01 94  	bl	0x8abf0 <_ZN2cv3Mat10deallocateEv@plt>
   1dfec: 05 b3 01 94  	bl	0x8ac00 <_ZN2cv8fastFreeEPv@plt>
   1e00c: 01 b3 01 14  	b	0x8ac10 <_ZNSt3__15mutexD1Ev@plt>
   1e198: ee b2 01 94  	bl	0x8ad50 <_ZN2cv3Mat8copySizeERKS0_@plt>
   1e268: ba b2 01 94  	bl	0x8ad50 <_ZN2cv3Mat8copySizeERKS0_@plt>
   1e39c: 59 b2 01 94  	bl	0x8ad00 <_ZN2cv3Mat6createEiPKii@plt>
   1e3a8: 8a b2 01 94  	bl	0x8add0 <_ZN2cv3MataSERKNS_7Scalar_IdEE@plt>
   1e40c: 3d b2 01 94  	bl	0x8ad00 <_ZN2cv3Mat6createEiPKii@plt>
   1e470: 24 b2 01 94  	bl	0x8ad00 <_ZN2cv3Mat6createEiPKii@plt>
   1e4c4: cb b1 01 94  	bl	0x8abf0 <_ZN2cv3Mat10deallocateEv@plt>
   1e580: f4 b1 01 94  	bl	0x8ad50 <_ZN2cv3Mat8copySizeERKS0_@plt>
   1e600: 7c b1 01 94  	bl	0x8abf0 <_ZN2cv3Mat10deallocateEv@plt>
   1e6b4: a7 b1 01 94  	bl	0x8ad50 <_ZN2cv3Mat8copySizeERKS0_@plt>
   1e734: 73 b1 01 94  	bl	0x8ad00 <_ZN2cv3Mat6createEiPKii@plt>
   1e784: 1b b1 01 94  	bl	0x8abf0 <_ZN2cv3Mat10deallocateEv@plt>
   1e838: 46 b1 01 94  	bl	0x8ad50 <_ZN2cv3Mat8copySizeERKS0_@plt>
   1e908: ba b0 01 94  	bl	0x8abf0 <_ZN2cv3Mat10deallocateEv@plt>
   1ea10: 7c b0 01 94  	bl	0x8ac00 <_ZN2cv8fastFreeEPv@plt>
   1ea3c: 6d b0 01 94  	bl	0x8abf0 <_ZN2cv3Mat10deallocateEv@plt>
   1eb44: 2f b0 01 94  	bl	0x8ac00 <_ZN2cv8fastFreeEPv@plt>
   1eb70: 20 b0 01 94  	bl	0x8abf0 <_ZN2cv3Mat10deallocateEv@plt>
   1ec78: e2 af 01 94  	bl	0x8ac00 <_ZN2cv8fastFreeEPv@plt>
   1eca4: d3 af 01 94  	bl	0x8abf0 <_ZN2cv3Mat10deallocateEv@plt>
   1edac: 95 af 01 94  	bl	0x8ac00 <_ZN2cv8fastFreeEPv@plt>
   1edd8: 86 af 01 94  	bl	0x8abf0 <_ZN2cv3Mat10deallocateEv@plt>
   1eed4: 4b af 01 94  	bl	0x8ac00 <_ZN2cv8fastFreeEPv@plt>
   1ef00: 3c af 01 94  	bl	0x8abf0 <_ZN2cv3Mat10deallocateEv@plt>
   1effc: 01 af 01 94  	bl	0x8ac00 <_ZN2cv8fastFreeEPv@plt>
   1f014: ff ae 01 94  	bl	0x8ac10 <_ZNSt3__15mutexD1Ev@plt>
   1f080: dc ae 01 94  	bl	0x8abf0 <_ZN2cv3Mat10deallocateEv@plt>
   1f184: 9f ae 01 94  	bl	0x8ac00 <_ZN2cv8fastFreeEPv@plt>
   1f1b0: 90 ae 01 94  	bl	0x8abf0 <_ZN2cv3Mat10deallocateEv@plt>
   1f2b4: 53 ae 01 94  	bl	0x8ac00 <_ZN2cv8fastFreeEPv@plt>
   1f2e0: 44 ae 01 94  	bl	0x8abf0 <_ZN2cv3Mat10deallocateEv@plt>
   1f3e4: 07 ae 01 94  	bl	0x8ac00 <_ZN2cv8fastFreeEPv@plt>
   1f410: f8 ad 01 94  	bl	0x8abf0 <_ZN2cv3Mat10deallocateEv@plt>
   1f514: bb ad 01 94  	bl	0x8ac00 <_ZN2cv8fastFreeEPv@plt>
   1f540: ac ad 01 94  	bl	0x8abf0 <_ZN2cv3Mat10deallocateEv@plt>
   1f63c: 71 ad 01 94  	bl	0x8ac00 <_ZN2cv8fastFreeEPv@plt>
   1f668: 62 ad 01 94  	bl	0x8abf0 <_ZN2cv3Mat10deallocateEv@plt>
   1f764: 27 ad 01 94  	bl	0x8ac00 <_ZN2cv8fastFreeEPv@plt>
   1f784: 23 ad 01 14  	b	0x8ac10 <_ZNSt3__15mutexD1Ev@plt>
   1f7d8: 06 ad 01 94  	bl	0x8abf0 <_ZN2cv3Mat10deallocateEv@plt>
   1f8d4: cb ac 01 94  	bl	0x8ac00 <_ZN2cv8fastFreeEPv@plt>
   1f900: bc ac 01 94  	bl	0x8abf0 <_ZN2cv3Mat10deallocateEv@plt>
   1f9fc: 81 ac 01 94  	bl	0x8ac00 <_ZN2cv8fastFreeEPv@plt>
   1fa28: 72 ac 01 94  	bl	0x8abf0 <_ZN2cv3Mat10deallocateEv@plt>
   1fb24: 37 ac 01 94  	bl	0x8ac00 <_ZN2cv8fastFreeEPv@plt>
   1fc50: 4c ac 01 94  	bl	0x8ad80 <_ZNK2cv3Mat6copyToERKNS_12_OutputArrayE@plt>
   1fc84: db ab 01 94  	bl	0x8abf0 <_ZN2cv3Mat10deallocateEv@plt>
   1fd0c: b9 ab 01 94  	bl	0x8abf0 <_ZN2cv3Mat10deallocateEv@plt>
   1fdb4: 93 ab 01 94  	bl	0x8ac00 <_ZN2cv8fastFreeEPv@plt>
   1ff0c: 3d ab 01 94  	bl	0x8ac00 <_ZN2cv8fastFreeEPv@plt>
   1ffe8: 02 ab 01 94  	bl	0x8abf0 <_ZN2cv3Mat10deallocateEv@plt>
   200e0: c8 aa 01 94  	bl	0x8ac00 <_ZN2cv8fastFreeEPv@plt>
   2011c: b5 aa 01 94  	bl	0x8abf0 <_ZN2cv3Mat10deallocateEv@plt>
   20214: 7b aa 01 94  	bl	0x8ac00 <_ZN2cv8fastFreeEPv@plt>
   20240: 6c aa 01 94  	bl	0x8abf0 <_ZN2cv3Mat10deallocateEv@plt>
   20334: 33 aa 01 94  	bl	0x8ac00 <_ZN2cv8fastFreeEPv@plt>
   203a4: 23 aa 01 94  	bl	0x8ac30 <_ZN2cv12getTickCountEv@plt>
   20464: f3 a9 01 94  	bl	0x8ac30 <_ZN2cv12getTickCountEv@plt>
   204b8: 4a aa 01 94  	bl	0x8ade0 <_ZN2cv20perspectiveTransformERKNS_11_InputArrayERKNS_12_OutputArrayES2_@plt>
   204bc: dd a9 01 94  	bl	0x8ac30 <_ZN2cv12getTickCountEv@plt>
   2069c: 65 a9 01 94  	bl	0x8ac30 <_ZN2cv12getTickCountEv@plt>
   206ec: 21 a9 01 94  	bl	0x8ab70 <_Znwm@plt>
   20740: 88 a9 01 94  	bl	0x8ad60 <_ZN2cv3Mat3eyeEiii@plt>
   207f8: 42 a9 01 94  	bl	0x8ad00 <_ZN2cv3Mat6createEiPKii@plt>
   20830: 44 a9 01 94  	bl	0x8ad40 <_ZNK2cv3Mat9convertToERKNS_12_OutputArrayEidd@plt>
   20834: ff a8 01 94  	bl	0x8ac30 <_ZN2cv12getTickCountEv@plt>
   20844: 1b a9 01 94  	bl	0x8acb0 <_ZN2cv16getTickFrequencyEv@plt>
   20888: 0a a9 01 94  	bl	0x8acb0 <_ZN2cv16getTickFrequencyEv@plt>
   208cc: f9 a8 01 94  	bl	0x8acb0 <_ZN2cv16getTickFrequencyEv@plt>
   20910: e8 a8 01 94  	bl	0x8acb0 <_ZN2cv16getTickFrequencyEv@plt>
   20954: d7 a8 01 94  	bl	0x8acb0 <_ZN2cv16getTickFrequencyEv@plt>
   209b8: 8e a8 01 94  	bl	0x8abf0 <_ZN2cv3Mat10deallocateEv@plt>
   20ab0: 54 a8 01 94  	bl	0x8ac00 <_ZN2cv8fastFreeEPv@plt>
   20ad4: 43 a8 01 94  	bl	0x8abe0 <_ZdlPv@plt>
   20af8: 3a a8 01 94  	bl	0x8abe0 <_ZdlPv@plt>
   20b1c: 31 a8 01 94  	bl	0x8abe0 <_ZdlPv@plt>
   20b40: 28 a8 01 94  	bl	0x8abe0 <_ZdlPv@plt>
   20b64: 1f a8 01 94  	bl	0x8abe0 <_ZdlPv@plt>
   20bb0: 4c a8 01 94  	bl	0x8ace0 <_ZNKSt3__120__vector_base_commonILb1EE20__throw_length_errorEv@plt>
   20bdc: 01 a8 01 94  	bl	0x8abe0 <_ZdlPv@plt>
   20c40: ec a7 01 94  	bl	0x8abf0 <_ZN2cv3Mat10deallocateEv@plt>
   20d38: b2 a7 01 94  	bl	0x8ac00 <_ZN2cv8fastFreeEPv@plt>
   20d5c: a1 a7 01 94  	bl	0x8abe0 <_ZdlPv@plt>
   20d94: 93 a7 01 94  	bl	0x8abe0 <_ZdlPv@plt>
   20db8: 8a a7 01 94  	bl	0x8abe0 <_ZdlPv@plt>
   20de4: 7f a7 01 94  	bl	0x8abe0 <_ZdlPv@plt>
   20e0c: 75 a7 01 94  	bl	0x8abe0 <_ZdlPv@plt>
   20ef8: a2 a7 01 94  	bl	0x8ad80 <_ZNK2cv3Mat6copyToERKNS_12_OutputArrayE@plt>
   20f24: b3 a7 01 94  	bl	0x8adf0 <_ZN2cv6invertERKNS_11_InputArrayERKNS_12_OutputArrayEi@plt>
   20f54: 07 a7 01 94  	bl	0x8ab70 <_Znwm@plt>
   21010: 74 a7 01 94  	bl	0x8ade0 <_ZN2cv20perspectiveTransformERKNS_11_InputArrayERKNS_12_OutputArrayES2_@plt>
   210b0: cc a6 01 94  	bl	0x8abe0 <_ZdlPv@plt>
   210d4: c3 a6 01 94  	bl	0x8abe0 <_ZdlPv@plt>
   21100: bc a6 01 94  	bl	0x8abf0 <_ZN2cv3Mat10deallocateEv@plt>
   211f8: 82 a6 01 94  	bl	0x8ac00 <_ZN2cv8fastFreeEPv@plt>
   21260: 60 a6 01 94  	bl	0x8abe0 <_ZdlPv@plt>
   21288: 56 a6 01 94  	bl	0x8abe0 <_ZdlPv@plt>
   212bc: 4d a6 01 94  	bl	0x8abf0 <_ZN2cv3Mat10deallocateEv@plt>
   213b4: 13 a6 01 94  	bl	0x8ac00 <_ZN2cv8fastFreeEPv@plt>
   213f0: 00 a6 01 94  	bl	0x8abf0 <_ZN2cv3Mat10deallocateEv@plt>
   214e8: c6 a5 01 94  	bl	0x8ac00 <_ZN2cv8fastFreeEPv@plt>
   216b8: ca a5 01 94  	bl	0x8ade0 <_ZN2cv20perspectiveTransformERKNS_11_InputArrayERKNS_12_OutputArrayES2_@plt>
   21774: 1b a5 01 94  	bl	0x8abe0 <_ZdlPv@plt>
   21798: 12 a5 01 94  	bl	0x8abe0 <_ZdlPv@plt>
   21808: f6 a4 01 94  	bl	0x8abe0 <_ZdlPv@plt>
   21830: ec a4 01 94  	bl	0x8abe0 <_ZdlPv@plt>
   21954: 2f a5 01 94  	bl	0x8ae10 <_ZNSt3__16threadD1Ev@plt>
   219a8: 1a a5 01 94  	bl	0x8ae10 <_ZNSt3__16threadD1Ev@plt>
   219fc: 05 a5 01 94  	bl	0x8ae10 <_ZNSt3__16threadD1Ev@plt>
   21a50: f0 a4 01 94  	bl	0x8ae10 <_ZNSt3__16threadD1Ev@plt>
   21a88: e2 a4 01 94  	bl	0x8ae10 <_ZNSt3__16threadD1Ev@plt>
   21acc: b1 a4 01 94  	bl	0x8ad90 <_ZNSt3__118condition_variableD1Ev@plt>
   21ad4: af a4 01 94  	bl	0x8ad90 <_ZNSt3__118condition_variableD1Ev@plt>
   21adc: ad a4 01 94  	bl	0x8ad90 <_ZNSt3__118condition_variableD1Ev@plt>
   21ae4: 4b a4 01 94  	bl	0x8ac10 <_ZNSt3__15mutexD1Ev@plt>
   21b0c: c1 a4 01 94  	bl	0x8ae10 <_ZNSt3__16threadD1Ev@plt>
   21b3c: 29 a4 01 94  	bl	0x8abe0 <_ZdlPv@plt>
   21b88: a6 a4 01 94  	bl	0x8ae20 <_ZNSt3__15mutex4lockEv@plt>
   21b9c: a5 a4 01 94  	bl	0x8ae30 <_ZNSt3__118condition_variable10notify_allEv@plt>
   21bb4: a3 a4 01 94  	bl	0x8ae40 <_ZNSt3__118condition_variable4waitERNS_11unique_lockINS_5mutexEEE@plt>
   21bcc: a1 a4 01 94  	bl	0x8ae50 <_ZNSt3__15mutex6unlockEv@plt>
   21be0: a0 a4 01 94  	bl	0x8ae60 <_ZNSt3__16thread4joinEv@plt>
   21c24: 5b a4 01 94  	bl	0x8ad90 <_ZNSt3__118condition_variableD1Ev@plt>
   21c2c: 59 a4 01 94  	bl	0x8ad90 <_ZNSt3__118condition_variableD1Ev@plt>
   21c34: 57 a4 01 94  	bl	0x8ad90 <_ZNSt3__118condition_variableD1Ev@plt>
   21c3c: f5 a3 01 94  	bl	0x8ac10 <_ZNSt3__15mutexD1Ev@plt>
   21c60: 6c a4 01 94  	bl	0x8ae10 <_ZNSt3__16threadD1Ev@plt>
   21c94: d3 a3 01 94  	bl	0x8abe0 <_ZdlPv@plt>
   21ce0: 2c a4 01 94  	bl	0x8ad90 <_ZNSt3__118condition_variableD1Ev@plt>
   21ce8: 2a a4 01 94  	bl	0x8ad90 <_ZNSt3__118condition_variableD1Ev@plt>
   21cf0: 28 a4 01 94  	bl	0x8ad90 <_ZNSt3__118condition_variableD1Ev@plt>
   21cf8: c6 a3 01 94  	bl	0x8ac10 <_ZNSt3__15mutexD1Ev@plt>
   21d30: ac a3 01 14  	b	0x8abe0 <_ZdlPv@plt>
   21de8: 8a a3 01 14  	b	0x8ac10 <_ZNSt3__15mutexD1Ev@plt>
   21e28: 6e a3 01 14  	b	0x8abe0 <_ZdlPv@plt>
   222c8: ea a2 01 94  	bl	0x8ae70 <_ZSt9terminatev@plt>
   22350: 08 a2 01 94  	bl	0x8ab70 <_Znwm@plt>
   22420: f0 a1 01 14  	b	0x8abe0 <_ZdlPv@plt>
   2244c: 25 a2 01 94  	bl	0x8ace0 <_ZNKSt3__120__vector_base_commonILb1EE20__throw_length_errorEv@plt>
   224c0: 7c a2 01 94  	bl	0x8aeb0 <_ZNSt11logic_errorC2EPKc@plt>
   22550: 88 a1 01 94  	bl	0x8ab70 <_Znwm@plt>
   225f8: 7a a1 01 14  	b	0x8abe0 <_ZdlPv@plt>
   22624: af a1 01 94  	bl	0x8ace0 <_ZNKSt3__120__vector_base_commonILb1EE20__throw_length_errorEv@plt>
   226a8: 32 a1 01 94  	bl	0x8ab70 <_Znwm@plt>
   22740: 28 a1 01 14  	b	0x8abe0 <_ZdlPv@plt>
   2276c: 5d a1 01 94  	bl	0x8ace0 <_ZNKSt3__120__vector_base_commonILb1EE20__throw_length_errorEv@plt>
   22870: 24 a1 01 94  	bl	0x8ad00 <_ZN2cv3Mat6createEiPKii@plt>
   22930: 20 a1 01 94  	bl	0x8adb0 <_ZN2cv3MatC1ERKS0_RKNS_5Rect_IiEE@plt>
   2297c: 01 a1 01 94  	bl	0x8ad80 <_ZNK2cv3Mat6copyToERKNS_12_OutputArrayE@plt>
   229b0: 90 a0 01 94  	bl	0x8abf0 <_ZN2cv3Mat10deallocateEv@plt>
   22ab8: 52 a0 01 94  	bl	0x8ac00 <_ZN2cv8fastFreeEPv@plt>
   22b94: 87 a0 01 94  	bl	0x8adb0 <_ZN2cv3MatC1ERKS0_RKNS_5Rect_IiEE@plt>
   22be4: 47 a0 01 94  	bl	0x8ad00 <_ZN2cv3Mat6createEiPKii@plt>
   22c30: 34 a0 01 94  	bl	0x8ad00 <_ZN2cv3Mat6createEiPKii@plt>
   231e4: 83 9e 01 94  	bl	0x8abf0 <_ZN2cv3Mat10deallocateEv@plt>
   232dc: 49 9e 01 94  	bl	0x8ac00 <_ZN2cv8fastFreeEPv@plt>
   23308: 3a 9e 01 94  	bl	0x8abf0 <_ZN2cv3Mat10deallocateEv@plt>
   23404: ff 9d 01 94  	bl	0x8ac00 <_ZN2cv8fastFreeEPv@plt>
   23430: f0 9d 01 94  	bl	0x8abf0 <_ZN2cv3Mat10deallocateEv@plt>
   23530: b4 9d 01 94  	bl	0x8ac00 <_ZN2cv8fastFreeEPv@plt>
   23560: a4 9d 01 94  	bl	0x8abf0 <_ZN2cv3Mat10deallocateEv@plt>
   2365c: 69 9d 01 94  	bl	0x8ac00 <_ZN2cv8fastFreeEPv@plt>
   23688: 5a 9d 01 94  	bl	0x8abf0 <_ZN2cv3Mat10deallocateEv@plt>
   23788: 1e 9d 01 94  	bl	0x8ac00 <_ZN2cv8fastFreeEPv@plt>
   23814: f7 9c 01 94  	bl	0x8abf0 <_ZN2cv3Mat10deallocateEv@plt>
   2390c: bd 9c 01 94  	bl	0x8ac00 <_ZN2cv8fastFreeEPv@plt>
   23944: ab 9c 01 94  	bl	0x8abf0 <_ZN2cv3Mat10deallocateEv@plt>
   23a44: 6f 9c 01 94  	bl	0x8ac00 <_ZN2cv8fastFreeEPv@plt>
   23a7c: 5d 9c 01 94  	bl	0x8abf0 <_ZN2cv3Mat10deallocateEv@plt>
   23b80: 20 9c 01 94  	bl	0x8ac00 <_ZN2cv8fastFreeEPv@plt>
   23bb8: 0e 9c 01 94  	bl	0x8abf0 <_ZN2cv3Mat10deallocateEv@plt>
   23cb8: d2 9b 01 94  	bl	0x8ac00 <_ZN2cv8fastFreeEPv@plt>
   23cf8: be 9b 01 94  	bl	0x8abf0 <_ZN2cv3Mat10deallocateEv@plt>
   23df8: 82 9b 01 94  	bl	0x8ac00 <_ZN2cv8fastFreeEPv@plt>
   23e24: 73 9b 01 94  	bl	0x8abf0 <_ZN2cv3Mat10deallocateEv@plt>
   23f28: 36 9b 01 94  	bl	0x8ac00 <_ZN2cv8fastFreeEPv@plt>
   23f64: 23 9b 01 94  	bl	0x8abf0 <_ZN2cv3Mat10deallocateEv@plt>
   24064: e7 9a 01 94  	bl	0x8ac00 <_ZN2cv8fastFreeEPv@plt>
   241d4: f7 9a 01 94  	bl	0x8adb0 <_ZN2cv3MatC1ERKS0_RKNS_5Rect_IiEE@plt>
   24218: da 9a 01 94  	bl	0x8ad80 <_ZNK2cv3Mat6copyToERKNS_12_OutputArrayE@plt>
   24248: 6a 9a 01 94  	bl	0x8abf0 <_ZN2cv3Mat10deallocateEv@plt>
   2434c: 2d 9a 01 94  	bl	0x8ac00 <_ZN2cv8fastFreeEPv@plt>
   24420: 64 9a 01 94  	bl	0x8adb0 <_ZN2cv3MatC1ERKS0_RKNS_5Rect_IiEE@plt>
   244c8: ca 99 01 94  	bl	0x8abf0 <_ZN2cv3Mat10deallocateEv@plt>
   245cc: 8d 99 01 94  	bl	0x8ac00 <_ZN2cv8fastFreeEPv@plt>
   245f8: 7e 99 01 94  	bl	0x8abf0 <_ZN2cv3Mat10deallocateEv@plt>
   246f8: 42 99 01 94  	bl	0x8ac00 <_ZN2cv8fastFreeEPv@plt>
   24774: 1f 99 01 94  	bl	0x8abf0 <_ZN2cv3Mat10deallocateEv@plt>
   24874: e3 98 01 94  	bl	0x8ac00 <_ZN2cv8fastFreeEPv@plt>
   248ac: d1 98 01 94  	bl	0x8abf0 <_ZN2cv3Mat10deallocateEv@plt>
   249a8: 96 98 01 94  	bl	0x8ac00 <_ZN2cv8fastFreeEPv@plt>
   249e8: 82 98 01 94  	bl	0x8abf0 <_ZN2cv3Mat10deallocateEv@plt>
   24ae4: 47 98 01 94  	bl	0x8ac00 <_ZN2cv8fastFreeEPv@plt>
   24b10: 38 98 01 94  	bl	0x8abf0 <_ZN2cv3Mat10deallocateEv@plt>
   24c10: fc 97 01 94  	bl	0x8ac00 <_ZN2cv8fastFreeEPv@plt>
   24db4: a7 97 01 94  	bl	0x8ac50 <_ZN2cv7noArrayEv@plt>
   24dcc: 41 98 01 94  	bl	0x8aed0 <_ZN2cv13matchTemplateERKNS_11_InputArrayES2_RKNS_12_OutputArrayEiS2_@plt>
   24de4: 9b 97 01 94  	bl	0x8ac50 <_ZN2cv7noArrayEv@plt>
   24e00: 38 98 01 94  	bl	0x8aee0 <_ZN2cv9minMaxLocERKNS_11_InputArrayEPdS3_PNS_6Point_IiEES6_S2_@plt>
   24e58: 66 97 01 94  	bl	0x8abf0 <_ZN2cv3Mat10deallocateEv@plt>
   24f54: 2b 97 01 94  	bl	0x8ac00 <_ZN2cv8fastFreeEPv@plt>
   2500c: f9 96 01 94  	bl	0x8abf0 <_ZN2cv3Mat10deallocateEv@plt>
   25108: be 96 01 94  	bl	0x8ac00 <_ZN2cv8fastFreeEPv@plt>
   25138: aa 96 01 14  	b	0x8abe0 <_ZdlPv@plt>
   268f4: 9f 90 01 94  	bl	0x8ab70 <_Znwm@plt>
   26964: e7 90 01 94  	bl	0x8ad00 <_ZN2cv3Mat6createEiPKii@plt>
   26984: 7b 90 01 94  	bl	0x8ab70 <_Znwm@plt>
   27528: ae 8d 01 94  	bl	0x8abe0 <_ZdlPv@plt>
   27554: a7 8d 01 94  	bl	0x8abf0 <_ZN2cv3Mat10deallocateEv@plt>
   27680: 60 8d 01 94  	bl	0x8ac00 <_ZN2cv8fastFreeEPv@plt>
   276a4: 4f 8d 01 94  	bl	0x8abe0 <_ZdlPv@plt>
   276fc: 79 8d 01 94  	bl	0x8ace0 <_ZNKSt3__120__vector_base_commonILb1EE20__throw_length_errorEv@plt>
   27768: 1e 8d 01 94  	bl	0x8abe0 <_ZdlPv@plt>
   27794: 17 8d 01 94  	bl	0x8abf0 <_ZN2cv3Mat10deallocateEv@plt>
   27890: dc 8c 01 94  	bl	0x8ac00 <_ZN2cv8fastFreeEPv@plt>
   278b8: ca 8c 01 94  	bl	0x8abe0 <_ZdlPv@plt>
   2791c: b1 8c 01 94  	bl	0x8abe0 <_ZdlPv@plt>
   27954: 87 8c 01 94  	bl	0x8ab70 <_Znwm@plt>
   27a38: aa 8c 01 94  	bl	0x8ace0 <_ZNKSt3__120__vector_base_commonILb1EE20__throw_length_errorEv@plt>
   27a60: 60 8c 01 14  	b	0x8abe0 <_ZdlPv@plt>
   29398: 12 86 01 14  	b	0x8abe0 <_ZdlPv@plt>
   2ac78: be 7f 01 94  	bl	0x8ab70 <_Znwm@plt>
   2ad5c: a1 7f 01 14  	b	0x8abe0 <_ZdlPv@plt>
   2ad88: d6 7f 01 94  	bl	0x8ace0 <_ZNKSt3__120__vector_base_commonILb1EE20__throw_length_errorEv@plt>
   2ae18: 56 7f 01 94  	bl	0x8ab70 <_Znwm@plt>
   2aefc: 39 7f 01 14  	b	0x8abe0 <_ZdlPv@plt>
   2af28: 6e 7f 01 94  	bl	0x8ace0 <_ZNKSt3__120__vector_base_commonILb1EE20__throw_length_errorEv@plt>
   2af50: e8 7f 01 94  	bl	0x8aef0 <_ZNSt3__119__shared_weak_countD2Ev@plt>
   2af60: 20 7f 01 14  	b	0x8abe0 <_ZdlPv@plt>
   2af70: 1c 7f 01 14  	b	0x8abe0 <_ZdlPv@plt>
   2afec: e1 7e 01 94  	bl	0x8ab70 <_Znwm@plt>
   2b1a0: 90 7e 01 14  	b	0x8abe0 <_ZdlPv@plt>
   2b1e4: 67 7e 01 94  	bl	0x8ab80 <_ZNSt3__119__shared_weak_count14__release_weakEv@plt>
   2b230: ac 7e 01 94  	bl	0x8ace0 <_ZNKSt3__120__vector_base_commonILb1EE20__throw_length_errorEv@plt>
   2b284: e7 7e 01 94  	bl	0x8ae20 <_ZNSt3__15mutex4lockEv@plt>
   2b318: ce 7e 01 94  	bl	0x8ae50 <_ZNSt3__15mutex6unlockEv@plt>
   2b3cc: a1 7e 01 94  	bl	0x8ae50 <_ZNSt3__15mutex6unlockEv@plt>
   2b440: 78 7e 01 94  	bl	0x8ae20 <_ZNSt3__15mutex4lockEv@plt>
   2b4d0: 58 7e 01 94  	bl	0x8ae30 <_ZNSt3__118condition_variable10notify_allEv@plt>
   2b4e8: 56 7e 01 94  	bl	0x8ae40 <_ZNSt3__118condition_variable4waitERNS_11unique_lockINS_5mutexEEE@plt>
   2b500: 54 7e 01 94  	bl	0x8ae50 <_ZNSt3__15mutex6unlockEv@plt>
   2b540: 44 7e 01 94  	bl	0x8ae50 <_ZNSt3__15mutex6unlockEv@plt>
   2b6e8: 3e 7d 01 14  	b	0x8abe0 <_ZdlPv@plt>
   2b704: 1b 7d 01 94  	bl	0x8ab70 <_Znwm@plt>
   2b750: 24 7d 01 14  	b	0x8abe0 <_ZdlPv@plt>
   2b7c0: a4 7d 01 94  	bl	0x8ae50 <_ZNSt3__15mutex6unlockEv@plt>
   2b824: 7f 7d 01 94  	bl	0x8ae20 <_ZNSt3__15mutex4lockEv@plt>
   2b880: 74 7d 01 94  	bl	0x8ae50 <_ZNSt3__15mutex6unlockEv@plt>
   2b8f0: 58 7d 01 94  	bl	0x8ae50 <_ZNSt3__15mutex6unlockEv@plt>
   2b8f8: 4a 7d 01 94  	bl	0x8ae20 <_ZNSt3__15mutex4lockEv@plt>
   2b910: 50 7d 01 94  	bl	0x8ae50 <_ZNSt3__15mutex6unlockEv@plt>
   2b918: 46 7d 01 94  	bl	0x8ae30 <_ZNSt3__118condition_variable10notify_allEv@plt>
   2b930: 3c 7d 01 94  	bl	0x8ae20 <_ZNSt3__15mutex4lockEv@plt>
   2b958: 3a 7d 01 94  	bl	0x8ae40 <_ZNSt3__118condition_variable4waitERNS_11unique_lockINS_5mutexEEE@plt>
   2b980: 34 7d 01 94  	bl	0x8ae50 <_ZNSt3__15mutex6unlockEv@plt>
   2b9c0: 24 7d 01 94  	bl	0x8ae50 <_ZNSt3__15mutex6unlockEv@plt>
   2b9fc: 09 7d 01 94  	bl	0x8ae20 <_ZNSt3__15mutex4lockEv@plt>
   2ba18: 0e 7d 01 94  	bl	0x8ae50 <_ZNSt3__15mutex6unlockEv@plt>
   2ba20: 04 7d 01 94  	bl	0x8ae30 <_ZNSt3__118condition_variable10notify_allEv@plt>
   2ba44: 03 7d 01 94  	bl	0x8ae50 <_ZNSt3__15mutex6unlockEv@plt>
   2ba6c: 2d 7d 01 94  	bl	0x8af20 <_ZNSt3__15mutex8try_lockEv@plt>
   2bb78: b6 7c 01 94  	bl	0x8ae50 <_ZNSt3__15mutex6unlockEv@plt>
   2bbd4: 93 7c 01 94  	bl	0x8ae20 <_ZNSt3__15mutex4lockEv@plt>
   2bc18: 86 7c 01 94  	bl	0x8ae30 <_ZNSt3__118condition_variable10notify_allEv@plt>
   2bc28: 8a 7c 01 94  	bl	0x8ae50 <_ZNSt3__15mutex6unlockEv@plt>
   2bc98: 6a 7c 01 94  	bl	0x8ae40 <_ZNSt3__118condition_variable4waitERNS_11unique_lockINS_5mutexEEE@plt>
   2bcbc: 65 7c 01 94  	bl	0x8ae50 <_ZNSt3__15mutex6unlockEv@plt>
   2bce8: 4e 7c 01 94  	bl	0x8ae20 <_ZNSt3__15mutex4lockEv@plt>
   2bd04: 4b 7c 01 94  	bl	0x8ae30 <_ZNSt3__118condition_variable10notify_allEv@plt>
   2bd18: 8e 7c 01 94  	bl	0x8af50 <_ZNSt3__120__throw_system_errorEiPKc@plt>
   2bd2c: 89 7c 01 94  	bl	0x8af50 <_ZNSt3__120__throw_system_errorEiPKc@plt>
   2bd3c: 85 7c 01 94  	bl	0x8af50 <_ZNSt3__120__throw_system_errorEiPKc@plt>
   2bd5c: 3d 7c 01 94  	bl	0x8ae50 <_ZNSt3__15mutex6unlockEv@plt>
   2bd8c: 79 7b 01 94  	bl	0x8ab70 <_Znwm@plt>
   2bd94: 73 7c 01 94  	bl	0x8af60 <_ZNSt3__115__thread_structC1Ev@plt>
   2bd9c: 75 7b 01 94  	bl	0x8ab70 <_Znwm@plt>
   2bdf0: 58 7c 01 94  	bl	0x8af50 <_ZNSt3__120__throw_system_errorEiPKc@plt>
   2be10: 5c 7c 01 94  	bl	0x8af80 <_ZNSt3__115__thread_structD1Ev@plt>
   2be18: 72 7b 01 94  	bl	0x8abe0 <_ZdlPv@plt>
   2be2c: 55 7c 01 94  	bl	0x8af80 <_ZNSt3__115__thread_structD1Ev@plt>
   2be3c: 69 7b 01 94  	bl	0x8abe0 <_ZdlPv@plt>
   2be7c: e5 7b 01 94  	bl	0x8ae10 <_ZNSt3__16threadD1Ev@plt>
   2becc: 45 7b 01 14  	b	0x8abe0 <_ZdlPv@plt>
   2bf4c: 09 7b 01 94  	bl	0x8ab70 <_Znwm@plt>
   2c020: 7c 7b 01 94  	bl	0x8ae10 <_ZNSt3__16threadD1Ev@plt>
   2c05c: e1 7a 01 14  	b	0x8abe0 <_ZdlPv@plt>
   2c094: 13 7b 01 94  	bl	0x8ace0 <_ZNKSt3__120__vector_base_commonILb1EE20__throw_length_errorEv@plt>
   2c0f0: a8 7b 01 94  	bl	0x8af90 <_ZNSt9exceptionD2Ev@plt>
   2c100: b8 7a 01 14  	b	0x8abe0 <_ZdlPv@plt>
   2c11c: a1 7b 01 94  	bl	0x8afa0 <_ZNSt3__119__thread_local_dataEv@plt>
   2c15c: 89 7b 01 94  	bl	0x8af80 <_ZNSt3__115__thread_structD1Ev@plt>
   2c164: 9f 7a 01 94  	bl	0x8abe0 <_ZdlPv@plt>
   2c16c: 9d 7a 01 94  	bl	0x8abe0 <_ZdlPv@plt>
   2c1a4: 77 7b 01 94  	bl	0x8af80 <_ZNSt3__115__thread_structD1Ev@plt>
   2c1ac: 8d 7a 01 94  	bl	0x8abe0 <_ZdlPv@plt>
   2c1b4: 8b 7a 01 94  	bl	0x8abe0 <_ZdlPv@plt>
   2d394: f7 75 01 94  	bl	0x8ab70 <_Znwm@plt>
   2d59c: ed 75 01 94  	bl	0x8ad50 <_ZN2cv3Mat8copySizeERKS0_@plt>
   2d5f8: 7a 75 01 14  	b	0x8abe0 <_ZdlPv@plt>
   2d634: 6f 75 01 94  	bl	0x8abf0 <_ZN2cv3Mat10deallocateEv@plt>
   2d67c: 61 75 01 94  	bl	0x8ac00 <_ZN2cv8fastFreeEPv@plt>
   2d6c4: 87 75 01 94  	bl	0x8ace0 <_ZNKSt3__120__vector_base_commonILb1EE20__throw_length_errorEv@plt>
   2d718: 36 75 01 94  	bl	0x8abf0 <_ZN2cv3Mat10deallocateEv@plt>
   2d760: 28 75 01 94  	bl	0x8ac00 <_ZN2cv8fastFreeEPv@plt>
   2d780: 18 75 01 94  	bl	0x8abe0 <_ZdlPv@plt>
   2d940: bc 74 01 94  	bl	0x8ac30 <_ZN2cv12getTickCountEv@plt>
   2d960: 98 75 01 94  	bl	0x8afc0 <_ZNK2cv11_InputArray4sizeEi@plt>
   2d980: 94 75 01 94  	bl	0x8afd0 <_ZNK2cv11_InputArray4kindEv@plt>
   2da10: 74 75 01 94  	bl	0x8afe0 <_ZNK2cv11_InputArray7getMat_Ei@plt>
   2da20: cc 74 01 94  	bl	0x8ad50 <_ZN2cv3Mat8copySizeERKS0_@plt>
   2da44: 63 75 01 94  	bl	0x8afd0 <_ZNK2cv11_InputArray4kindEv@plt>
   2dae4: 3f 75 01 94  	bl	0x8afe0 <_ZNK2cv11_InputArray7getMat_Ei@plt>
   2daf4: 97 74 01 94  	bl	0x8ad50 <_ZN2cv3Mat8copySizeERKS0_@plt>
   2db18: 36 75 01 94  	bl	0x8aff0 <_ZNK2cv12_OutputArray6createENS_5Size_IiEEiibNS0_9DepthMaskE@plt>
   2db3c: 25 75 01 94  	bl	0x8afd0 <_ZNK2cv11_InputArray4kindEv@plt>
   2dbdc: 01 75 01 94  	bl	0x8afe0 <_ZNK2cv11_InputArray7getMat_Ei@plt>
   2dbec: 59 74 01 94  	bl	0x8ad50 <_ZN2cv3Mat8copySizeERKS0_@plt>
   2dccc: c9 74 01 94  	bl	0x8aff0 <_ZNK2cv12_OutputArray6createENS_5Size_IiEEiibNS0_9DepthMaskE@plt>
   2dcd4: bf 74 01 94  	bl	0x8afd0 <_ZNK2cv11_InputArray4kindEv@plt>
   2dd64: 9f 74 01 94  	bl	0x8afe0 <_ZNK2cv11_InputArray7getMat_Ei@plt>
   2dd74: f7 73 01 94  	bl	0x8ad50 <_ZN2cv3Mat8copySizeERKS0_@plt>
   2dda0: 94 73 01 94  	bl	0x8abf0 <_ZN2cv3Mat10deallocateEv@plt>
   2dea8: 56 73 01 94  	bl	0x8ac00 <_ZN2cv8fastFreeEPv@plt>
   2df0c: 3d 73 01 94  	bl	0x8ac00 <_ZN2cv8fastFreeEPv@plt>
   2e064: 3b 73 01 94  	bl	0x8ad50 <_ZN2cv3Mat8copySizeERKS0_@plt>
   2e114: 0f 73 01 94  	bl	0x8ad50 <_ZN2cv3Mat8copySizeERKS0_@plt>
   2e1c4: e3 72 01 94  	bl	0x8ad50 <_ZN2cv3Mat8copySizeERKS0_@plt>
   2e2d4: 9f 72 01 94  	bl	0x8ad50 <_ZN2cv3Mat8copySizeERKS0_@plt>
   2e380: 74 72 01 94  	bl	0x8ad50 <_ZN2cv3Mat8copySizeERKS0_@plt>
   2e434: 53 72 01 94  	bl	0x8ad80 <_ZNK2cv3Mat6copyToERKNS_12_OutputArrayE@plt>
   2e460: e4 71 01 94  	bl	0x8abf0 <_ZN2cv3Mat10deallocateEv@plt>
   2e56c: a5 71 01 94  	bl	0x8ac00 <_ZN2cv8fastFreeEPv@plt>
   2e5c4: 8f 71 01 94  	bl	0x8ac00 <_ZN2cv8fastFreeEPv@plt>
   2e6a4: 63 71 01 94  	bl	0x8ac30 <_ZN2cv12getTickCountEv@plt>
   2e73c: 3d 71 01 94  	bl	0x8ac30 <_ZN2cv12getTickCountEv@plt>
   2e74c: 59 71 01 94  	bl	0x8acb0 <_ZN2cv16getTickFrequencyEv@plt>
   2e788: 4a 71 01 94  	bl	0x8acb0 <_ZN2cv16getTickFrequencyEv@plt>
   2e7c4: 3b 71 01 94  	bl	0x8acb0 <_ZN2cv16getTickFrequencyEv@plt>
   2e800: 64 71 01 94  	bl	0x8ad90 <_ZNSt3__118condition_variableD1Ev@plt>
   2e808: 02 71 01 94  	bl	0x8ac10 <_ZNSt3__15mutexD1Ev@plt>
   2e868: c6 70 01 94  	bl	0x8ab80 <_ZNSt3__119__shared_weak_count14__release_weakEv@plt>
   2e88c: d5 70 01 94  	bl	0x8abe0 <_ZdlPv@plt>
   2e8c0: cc 70 01 94  	bl	0x8abf0 <_ZN2cv3Mat10deallocateEv@plt>
   2e9c4: 8f 70 01 94  	bl	0x8ac00 <_ZN2cv8fastFreeEPv@plt>
   2e9f0: 80 70 01 94  	bl	0x8abf0 <_ZN2cv3Mat10deallocateEv@plt>
   2eaf8: 42 70 01 94  	bl	0x8ac00 <_ZN2cv8fastFreeEPv@plt>
   2eb24: 33 70 01 94  	bl	0x8abf0 <_ZN2cv3Mat10deallocateEv@plt>
   2ec2c: f5 6f 01 94  	bl	0x8ac00 <_ZN2cv8fastFreeEPv@plt>
   2ec58: e6 6f 01 94  	bl	0x8abf0 <_ZN2cv3Mat10deallocateEv@plt>
   2ed60: a8 6f 01 94  	bl	0x8ac00 <_ZN2cv8fastFreeEPv@plt>
   2edd4: 87 6f 01 94  	bl	0x8abf0 <_ZN2cv3Mat10deallocateEv@plt>
   2eed0: 4c 6f 01 94  	bl	0x8ac00 <_ZN2cv8fastFreeEPv@plt>
   2ef08: 3a 6f 01 94  	bl	0x8abf0 <_ZN2cv3Mat10deallocateEv@plt>
   2f008: fe 6e 01 94  	bl	0x8ac00 <_ZN2cv8fastFreeEPv@plt>
   2f040: ec 6e 01 94  	bl	0x8abf0 <_ZN2cv3Mat10deallocateEv@plt>
   2f13c: b1 6e 01 94  	bl	0x8ac00 <_ZN2cv8fastFreeEPv@plt>
   2f168: a2 6e 01 94  	bl	0x8abf0 <_ZN2cv3Mat10deallocateEv@plt>
   2f268: 66 6e 01 94  	bl	0x8ac00 <_ZN2cv8fastFreeEPv@plt>
   2f2ac: 51 6e 01 94  	bl	0x8abf0 <_ZN2cv3Mat10deallocateEv@plt>
   2f3a8: 16 6e 01 94  	bl	0x8ac00 <_ZN2cv8fastFreeEPv@plt>
   2f3e0: 04 6e 01 94  	bl	0x8abf0 <_ZN2cv3Mat10deallocateEv@plt>
   2f4ec: c5 6d 01 94  	bl	0x8ac00 <_ZN2cv8fastFreeEPv@plt>
   2f518: b6 6d 01 94  	bl	0x8abf0 <_ZN2cv3Mat10deallocateEv@plt>
   2f61c: 79 6d 01 94  	bl	0x8ac00 <_ZN2cv8fastFreeEPv@plt>
   2f658: 66 6d 01 94  	bl	0x8abf0 <_ZN2cv3Mat10deallocateEv@plt>
   2f760: 28 6d 01 94  	bl	0x8ac00 <_ZN2cv8fastFreeEPv@plt>
   2f798: 16 6d 01 94  	bl	0x8abf0 <_ZN2cv3Mat10deallocateEv@plt>
   2f8a0: d8 6c 01 94  	bl	0x8ac00 <_ZN2cv8fastFreeEPv@plt>
   2f8c8: d2 6c 01 94  	bl	0x8ac10 <_ZNSt3__15mutexD1Ev@plt>
   2f950: 10 6d 01 94  	bl	0x8ad90 <_ZNSt3__118condition_variableD1Ev@plt>
   2f958: ae 6c 01 94  	bl	0x8ac10 <_ZNSt3__15mutexD1Ev@plt>
   2f9ac: 75 6c 01 94  	bl	0x8ab80 <_ZNSt3__119__shared_weak_count14__release_weakEv@plt>
   2f9d8: 82 6c 01 94  	bl	0x8abe0 <_ZdlPv@plt>
   2fa0c: 79 6c 01 94  	bl	0x8abf0 <_ZN2cv3Mat10deallocateEv@plt>
   2fb08: 3e 6c 01 94  	bl	0x8ac00 <_ZN2cv8fastFreeEPv@plt>
   2fb34: 2f 6c 01 94  	bl	0x8abf0 <_ZN2cv3Mat10deallocateEv@plt>
   2fc38: f2 6b 01 94  	bl	0x8ac00 <_ZN2cv8fastFreeEPv@plt>
   2fc64: e3 6b 01 94  	bl	0x8abf0 <_ZN2cv3Mat10deallocateEv@plt>
   2fd68: a6 6b 01 94  	bl	0x8ac00 <_ZN2cv8fastFreeEPv@plt>
   2fd94: 97 6b 01 94  	bl	0x8abf0 <_ZN2cv3Mat10deallocateEv@plt>
   2fe94: 5b 6b 01 94  	bl	0x8ac00 <_ZN2cv8fastFreeEPv@plt>
   2fef8: 3e 6b 01 94  	bl	0x8abf0 <_ZN2cv3Mat10deallocateEv@plt>
   2fffc: 01 6b 01 94  	bl	0x8ac00 <_ZN2cv8fastFreeEPv@plt>
   30028: f2 6a 01 94  	bl	0x8abf0 <_ZN2cv3Mat10deallocateEv@plt>
   3012c: b5 6a 01 94  	bl	0x8ac00 <_ZN2cv8fastFreeEPv@plt>
   30158: a6 6a 01 94  	bl	0x8abf0 <_ZN2cv3Mat10deallocateEv@plt>
   3025c: 69 6a 01 94  	bl	0x8ac00 <_ZN2cv8fastFreeEPv@plt>
   30288: 5a 6a 01 94  	bl	0x8abf0 <_ZN2cv3Mat10deallocateEv@plt>
   3038c: 1d 6a 01 94  	bl	0x8ac00 <_ZN2cv8fastFreeEPv@plt>
   303b8: 0e 6a 01 94  	bl	0x8abf0 <_ZN2cv3Mat10deallocateEv@plt>
   304b4: d3 69 01 94  	bl	0x8ac00 <_ZN2cv8fastFreeEPv@plt>
   304e0: c4 69 01 94  	bl	0x8abf0 <_ZN2cv3Mat10deallocateEv@plt>
   305dc: 89 69 01 94  	bl	0x8ac00 <_ZN2cv8fastFreeEPv@plt>
   305fc: 85 69 01 14  	b	0x8ac10 <_ZNSt3__15mutexD1Ev@plt>
   30638: 6a 69 01 14  	b	0x8abe0 <_ZdlPv@plt>
   306b0: 30 69 01 94  	bl	0x8ab70 <_Znwm@plt>
   30854: e3 68 01 14  	b	0x8abe0 <_ZdlPv@plt>
   30898: ba 68 01 94  	bl	0x8ab80 <_ZNSt3__119__shared_weak_count14__release_weakEv@plt>
   308e0: 00 69 01 94  	bl	0x8ace0 <_ZNKSt3__120__vector_base_commonILb1EE20__throw_length_errorEv@plt>
   31558: aa 66 01 94  	bl	0x8b000 <_ZNSt3__113basic_istreamIcNS_11char_traitsIcEEED2Ev@plt>
   31568: aa 66 01 14  	b	0x8b010 <_ZNSt3__19basic_iosIcNS_11char_traitsIcEEED2Ev@plt>
   315b0: 9c 66 01 94  	bl	0x8b020 <_ZNSt3__113basic_ostreamIcNS_11char_traitsIcEEED2Ev@plt>
   315c0: 94 66 01 14  	b	0x8b010 <_ZNSt3__19basic_iosIcNS_11char_traitsIcEEED2Ev@plt>
   31614: 7b 66 01 94  	bl	0x8b000 <_ZNSt3__113basic_istreamIcNS_11char_traitsIcEEED2Ev@plt>
   31624: 7b 66 01 14  	b	0x8b010 <_ZNSt3__19basic_iosIcNS_11char_traitsIcEEED2Ev@plt>
   31668: 66 66 01 94  	bl	0x8b000 <_ZNSt3__113basic_istreamIcNS_11char_traitsIcEEED2Ev@plt>
   31670: 68 66 01 94  	bl	0x8b010 <_ZNSt3__19basic_iosIcNS_11char_traitsIcEEED2Ev@plt>
   31680: 58 65 01 14  	b	0x8abe0 <_ZdlPv@plt>
   316d4: 4b 66 01 94  	bl	0x8b000 <_ZNSt3__113basic_istreamIcNS_11char_traitsIcEEED2Ev@plt>
   316dc: 4d 66 01 94  	bl	0x8b010 <_ZNSt3__19basic_iosIcNS_11char_traitsIcEEED2Ev@plt>
   316ec: 3d 65 01 14  	b	0x8abe0 <_ZdlPv@plt>
   3175c: 39 66 01 94  	bl	0x8b040 <_ZdaPv@plt>
   31770: 34 66 01 94  	bl	0x8b040 <_ZdaPv@plt>
   31784: 33 66 01 14  	b	0x8b050 <_ZNSt3__115basic_streambufIcNS_11char_traitsIcEEED2Ev@plt>
   317b4: 27 66 01 94  	bl	0x8b050 <_ZNSt3__115basic_streambufIcNS_11char_traitsIcEEED2Ev@plt>
   317e0: 00 65 01 14  	b	0x8abe0 <_ZdlPv@plt>
   31814: 13 66 01 94  	bl	0x8b060 <_ZNKSt3__16locale9use_facetERNS0_2idE@plt>
   3185c: f9 65 01 94  	bl	0x8b040 <_ZdaPv@plt>
   31894: f7 65 01 94  	bl	0x8b070 <_Znam@plt>
   318cc: e9 65 01 94  	bl	0x8b070 <_Znam@plt>
   31920: c8 65 01 94  	bl	0x8b040 <_ZdaPv@plt>
   31934: c3 65 01 94  	bl	0x8b040 <_ZdaPv@plt>
   31988: ba 65 01 94  	bl	0x8b070 <_Znam@plt>
   319bc: ad 65 01 94  	bl	0x8b070 <_Znam@plt>
   322e8: 7e 63 01 94  	bl	0x8b0e0 <_ZNSt8bad_castC1Ev@plt>
   32354: 33 63 01 94  	bl	0x8b020 <_ZNSt3__113basic_ostreamIcNS_11char_traitsIcEEED2Ev@plt>
   32364: 2b 63 01 14  	b	0x8b010 <_ZNSt3__19basic_iosIcNS_11char_traitsIcEEED2Ev@plt>
   323a8: 1e 63 01 94  	bl	0x8b020 <_ZNSt3__113basic_ostreamIcNS_11char_traitsIcEEED2Ev@plt>
   323b0: 18 63 01 94  	bl	0x8b010 <_ZNSt3__19basic_iosIcNS_11char_traitsIcEEED2Ev@plt>
   323c0: 08 62 01 14  	b	0x8abe0 <_ZdlPv@plt>
   32414: 03 63 01 94  	bl	0x8b020 <_ZNSt3__113basic_ostreamIcNS_11char_traitsIcEEED2Ev@plt>
   3241c: fd 62 01 94  	bl	0x8b010 <_ZNSt3__19basic_iosIcNS_11char_traitsIcEEED2Ev@plt>
   3242c: ed 61 01 14  	b	0x8abe0 <_ZdlPv@plt>
   32a90: b0 60 01 94  	bl	0x8ad50 <_ZN2cv3Mat8copySizeERKS0_@plt>
   32b50: 6c 60 01 94  	bl	0x8ad00 <_ZN2cv3Mat6createEiPKii@plt>
   32dd8: ea 5f 01 94  	bl	0x8ad80 <_ZNK2cv3Mat6copyToERKNS_12_OutputArrayE@plt>
   32e24: b3 60 01 94  	bl	0x8b0f0 <_ZN2cv6resizeERKNS_11_InputArrayERKNS_12_OutputArrayENS_5Size_IiEEddi@plt>
   32eb4: a3 5f 01 94  	bl	0x8ad40 <_ZNK2cv3Mat9convertToERKNS_12_OutputArrayEidd@plt>
   32ee8: 82 60 01 94  	bl	0x8b0f0 <_ZN2cv6resizeERKNS_11_InputArrayERKNS_12_OutputArrayENS_5Size_IiEEddi@plt>
   32f0c: 8d 5f 01 94  	bl	0x8ad40 <_ZNK2cv3Mat9convertToERKNS_12_OutputArrayEidd@plt>
   32f3c: 2d 5f 01 94  	bl	0x8abf0 <_ZN2cv3Mat10deallocateEv@plt>
   32fd0: 5c 5f 01 94  	bl	0x8ad40 <_ZNK2cv3Mat9convertToERKNS_12_OutputArrayEidd@plt>
   32ff4: 57 5f 01 94  	bl	0x8ad50 <_ZN2cv3Mat8copySizeERKS0_@plt>
   330cc: c9 5e 01 94  	bl	0x8abf0 <_ZN2cv3Mat10deallocateEv@plt>
   33130: 08 5f 01 94  	bl	0x8ad50 <_ZN2cv3Mat8copySizeERKS0_@plt>
   331e8: d6 5e 01 94  	bl	0x8ad40 <_ZNK2cv3Mat9convertToERKNS_12_OutputArrayEidd@plt>
   33210: d0 5e 01 94  	bl	0x8ad50 <_ZN2cv3Mat8copySizeERKS0_@plt>
   332e4: 43 5e 01 94  	bl	0x8abf0 <_ZN2cv3Mat10deallocateEv@plt>
   33350: 08 5e 01 94  	bl	0x8ab70 <_Znwm@plt>
   33498: b6 5d 01 94  	bl	0x8ab70 <_Znwm@plt>
   3364c: 6d 5d 01 94  	bl	0x8ac00 <_ZN2cv8fastFreeEPv@plt>
   33678: 5e 5d 01 94  	bl	0x8abf0 <_ZN2cv3Mat10deallocateEv@plt>
   33774: 23 5d 01 94  	bl	0x8ac00 <_ZN2cv8fastFreeEPv@plt>
   337c8: 62 5d 01 94  	bl	0x8ad50 <_ZN2cv3Mat8copySizeERKS0_@plt>
   33800: dc 5c 01 94  	bl	0x8ab70 <_Znwm@plt>
   33938: 8e 5c 01 94  	bl	0x8ab70 <_Znwm@plt>
   33a74: 3f 5c 01 94  	bl	0x8ab70 <_Znwm@plt>
   33bec: 59 5c 01 94  	bl	0x8ad50 <_ZN2cv3Mat8copySizeERKS0_@plt>
   33c28: d2 5b 01 94  	bl	0x8ab70 <_Znwm@plt>
   33d54: ff 5b 01 94  	bl	0x8ad50 <_ZN2cv3Mat8copySizeERKS0_@plt>
   33e38: b2 5b 01 94  	bl	0x8ad00 <_ZN2cv3Mat6createEiPKii@plt>
   33e4c: c1 5b 01 94  	bl	0x8ad50 <_ZN2cv3Mat8copySizeERKS0_@plt>
   33f30: 74 5b 01 94  	bl	0x8ad00 <_ZN2cv3Mat6createEiPKii@plt>
   33f44: 83 5b 01 94  	bl	0x8ad50 <_ZN2cv3Mat8copySizeERKS0_@plt>
   34024: 37 5b 01 94  	bl	0x8ad00 <_ZN2cv3Mat6createEiPKii@plt>
   34038: 46 5b 01 94  	bl	0x8ad50 <_ZN2cv3Mat8copySizeERKS0_@plt>
   34114: fb 5a 01 94  	bl	0x8ad00 <_ZN2cv3Mat6createEiPKii@plt>
   34128: 0a 5b 01 94  	bl	0x8ad50 <_ZN2cv3Mat8copySizeERKS0_@plt>
   34204: bf 5a 01 94  	bl	0x8ad00 <_ZN2cv3Mat6createEiPKii@plt>
   34254: ab 5a 01 94  	bl	0x8ad00 <_ZN2cv3Mat6createEiPKii@plt>
   34280: 5c 5a 01 94  	bl	0x8abf0 <_ZN2cv3Mat10deallocateEv@plt>
   34338: 72 5a 01 94  	bl	0x8ad00 <_ZN2cv3Mat6createEiPKii@plt>
   34368: 22 5a 01 94  	bl	0x8abf0 <_ZN2cv3Mat10deallocateEv@plt>
   343e0: 5c 5a 01 94  	bl	0x8ad50 <_ZN2cv3Mat8copySizeERKS0_@plt>
   344b8: 12 5a 01 94  	bl	0x8ad00 <_ZN2cv3Mat6createEiPKii@plt>
   34508: fe 59 01 94  	bl	0x8ad00 <_ZN2cv3Mat6createEiPKii@plt>
   34534: af 59 01 94  	bl	0x8abf0 <_ZN2cv3Mat10deallocateEv@plt>
   345ec: c5 59 01 94  	bl	0x8ad00 <_ZN2cv3Mat6createEiPKii@plt>
   34618: 76 59 01 94  	bl	0x8abf0 <_ZN2cv3Mat10deallocateEv@plt>
   346cc: 8d 59 01 94  	bl	0x8ad00 <_ZN2cv3Mat6createEiPKii@plt>
   346f8: 3e 59 01 94  	bl	0x8abf0 <_ZN2cv3Mat10deallocateEv@plt>
   347ac: 55 59 01 94  	bl	0x8ad00 <_ZN2cv3Mat6createEiPKii@plt>
   347e0: 04 59 01 94  	bl	0x8abf0 <_ZN2cv3Mat10deallocateEv@plt>
   34900: c0 58 01 94  	bl	0x8ac00 <_ZN2cv8fastFreeEPv@plt>
   3496c: a5 58 01 94  	bl	0x8ac00 <_ZN2cv8fastFreeEPv@plt>
   349e0: 84 58 01 94  	bl	0x8abf0 <_ZN2cv3Mat10deallocateEv@plt>
   34a84: b3 58 01 94  	bl	0x8ad50 <_ZN2cv3Mat8copySizeERKS0_@plt>
   34b38: 12 58 01 94  	bl	0x8ab80 <_ZNSt3__119__shared_weak_count14__release_weakEv@plt>
   34b64: 07 58 01 94  	bl	0x8ab80 <_ZNSt3__119__shared_weak_count14__release_weakEv@plt>
   34c00: 64 58 01 94  	bl	0x8ad90 <_ZNSt3__118condition_variableD1Ev@plt>
   34c08: 02 58 01 94  	bl	0x8ac10 <_ZNSt3__15mutexD1Ev@plt>
   34c6c: c5 57 01 94  	bl	0x8ab80 <_ZNSt3__119__shared_weak_count14__release_weakEv@plt>
   34d44: af 57 01 94  	bl	0x8ac00 <_ZN2cv8fastFreeEPv@plt>
   34da0: 98 57 01 94  	bl	0x8ac00 <_ZN2cv8fastFreeEPv@plt>
   34e10: 78 57 01 94  	bl	0x8abf0 <_ZN2cv3Mat10deallocateEv@plt>
   34eac: a9 57 01 94  	bl	0x8ad50 <_ZN2cv3Mat8copySizeERKS0_@plt>
   34f60: 08 57 01 94  	bl	0x8ab80 <_ZNSt3__119__shared_weak_count14__release_weakEv@plt>
   34f8c: fd 56 01 94  	bl	0x8ab80 <_ZNSt3__119__shared_weak_count14__release_weakEv@plt>
   35028: 5a 57 01 94  	bl	0x8ad90 <_ZNSt3__118condition_variableD1Ev@plt>
   35030: f8 56 01 94  	bl	0x8ac10 <_ZNSt3__15mutexD1Ev@plt>
   35094: bb 56 01 94  	bl	0x8ab80 <_ZNSt3__119__shared_weak_count14__release_weakEv@plt>
   350b8: ca 56 01 94  	bl	0x8abe0 <_ZdlPv@plt>
   35168: a6 56 01 94  	bl	0x8ac00 <_ZN2cv8fastFreeEPv@plt>
   351c8: 8e 56 01 94  	bl	0x8ac00 <_ZN2cv8fastFreeEPv@plt>
   35238: 6e 56 01 94  	bl	0x8abf0 <_ZN2cv3Mat10deallocateEv@plt>
   352e0: 9c 56 01 94  	bl	0x8ad50 <_ZN2cv3Mat8copySizeERKS0_@plt>
   35394: fb 55 01 94  	bl	0x8ab80 <_ZNSt3__119__shared_weak_count14__release_weakEv@plt>
   353c0: f0 55 01 94  	bl	0x8ab80 <_ZNSt3__119__shared_weak_count14__release_weakEv@plt>
   3545c: 4d 56 01 94  	bl	0x8ad90 <_ZNSt3__118condition_variableD1Ev@plt>
   35464: eb 55 01 94  	bl	0x8ac10 <_ZNSt3__15mutexD1Ev@plt>
   354c4: af 55 01 94  	bl	0x8ab80 <_ZNSt3__119__shared_weak_count14__release_weakEv@plt>
   354e8: be 55 01 94  	bl	0x8abe0 <_ZdlPv@plt>
   355b4: 93 55 01 94  	bl	0x8ac00 <_ZN2cv8fastFreeEPv@plt>
   3561c: 79 55 01 94  	bl	0x8ac00 <_ZN2cv8fastFreeEPv@plt>
   35698: 56 55 01 94  	bl	0x8abf0 <_ZN2cv3Mat10deallocateEv@plt>
   3573c: 85 55 01 94  	bl	0x8ad50 <_ZN2cv3Mat8copySizeERKS0_@plt>
   357f8: e2 54 01 94  	bl	0x8ab80 <_ZNSt3__119__shared_weak_count14__release_weakEv@plt>
   35824: d7 54 01 94  	bl	0x8ab80 <_ZNSt3__119__shared_weak_count14__release_weakEv@plt>
   358c0: 34 55 01 94  	bl	0x8ad90 <_ZNSt3__118condition_variableD1Ev@plt>
   358c8: d2 54 01 94  	bl	0x8ac10 <_ZNSt3__15mutexD1Ev@plt>
   3592c: 95 54 01 94  	bl	0x8ab80 <_ZNSt3__119__shared_weak_count14__release_weakEv@plt>
   35950: a4 54 01 94  	bl	0x8abe0 <_ZdlPv@plt>
   3598c: fd 54 01 94  	bl	0x8ad80 <_ZNK2cv3Mat6copyToERKNS_12_OutputArrayE@plt>
   359d4: c7 55 01 94  	bl	0x8b0f0 <_ZN2cv6resizeERKNS_11_InputArrayERKNS_12_OutputArrayENS_5Size_IiEEddi@plt>
   35a08: 7a 54 01 94  	bl	0x8abf0 <_ZN2cv3Mat10deallocateEv@plt>
   35afc: 41 54 01 94  	bl	0x8ac00 <_ZN2cv8fastFreeEPv@plt>
   35bb0: 14 54 01 94  	bl	0x8ac00 <_ZN2cv8fastFreeEPv@plt>
   35c1c: f9 53 01 94  	bl	0x8ac00 <_ZN2cv8fastFreeEPv@plt>
   35c8c: d9 53 01 94  	bl	0x8abf0 <_ZN2cv3Mat10deallocateEv@plt>
   35d34: 07 54 01 94  	bl	0x8ad50 <_ZN2cv3Mat8copySizeERKS0_@plt>
   35dec: 65 53 01 94  	bl	0x8ab80 <_ZNSt3__119__shared_weak_count14__release_weakEv@plt>
   35e1c: 59 53 01 94  	bl	0x8ab80 <_ZNSt3__119__shared_weak_count14__release_weakEv@plt>
   35eb8: b6 53 01 94  	bl	0x8ad90 <_ZNSt3__118condition_variableD1Ev@plt>
   35ec0: 54 53 01 94  	bl	0x8ac10 <_ZNSt3__15mutexD1Ev@plt>
   35f28: 16 53 01 94  	bl	0x8ab80 <_ZNSt3__119__shared_weak_count14__release_weakEv@plt>
   35f50: 24 53 01 94  	bl	0x8abe0 <_ZdlPv@plt>
   35f8c: 7d 53 01 94  	bl	0x8ad80 <_ZNK2cv3Mat6copyToERKNS_12_OutputArrayE@plt>
   35fcc: 49 54 01 94  	bl	0x8b0f0 <_ZN2cv6resizeERKNS_11_InputArrayERKNS_12_OutputArrayENS_5Size_IiEEddi@plt>
   35ff8: fe 52 01 94  	bl	0x8abf0 <_ZN2cv3Mat10deallocateEv@plt>
   360ec: c5 52 01 94  	bl	0x8ac00 <_ZN2cv8fastFreeEPv@plt>
   36118: b6 52 01 94  	bl	0x8abf0 <_ZN2cv3Mat10deallocateEv@plt>
   36208: 7e 52 01 94  	bl	0x8ac00 <_ZN2cv8fastFreeEPv@plt>
   36300: 40 52 01 94  	bl	0x8ac00 <_ZN2cv8fastFreeEPv@plt>
   36364: 27 52 01 94  	bl	0x8ac00 <_ZN2cv8fastFreeEPv@plt>
   363d8: 06 52 01 94  	bl	0x8abf0 <_ZN2cv3Mat10deallocateEv@plt>
   36478: 36 52 01 94  	bl	0x8ad50 <_ZN2cv3Mat8copySizeERKS0_@plt>
   3652c: 95 51 01 94  	bl	0x8ab80 <_ZNSt3__119__shared_weak_count14__release_weakEv@plt>
   36558: 8a 51 01 94  	bl	0x8ab80 <_ZNSt3__119__shared_weak_count14__release_weakEv@plt>
   365f8: e6 51 01 94  	bl	0x8ad90 <_ZNSt3__118condition_variableD1Ev@plt>
   36600: 84 51 01 94  	bl	0x8ac10 <_ZNSt3__15mutexD1Ev@plt>
   36668: 46 51 01 94  	bl	0x8ab80 <_ZNSt3__119__shared_weak_count14__release_weakEv@plt>
   3668c: 55 51 01 94  	bl	0x8abe0 <_ZdlPv@plt>
   366c8: ae 51 01 94  	bl	0x8ad80 <_ZNK2cv3Mat6copyToERKNS_12_OutputArrayE@plt>
   36708: 7a 52 01 94  	bl	0x8b0f0 <_ZN2cv6resizeERKNS_11_InputArrayERKNS_12_OutputArrayENS_5Size_IiEEddi@plt>
   36734: 2f 51 01 94  	bl	0x8abf0 <_ZN2cv3Mat10deallocateEv@plt>
   36828: f6 50 01 94  	bl	0x8ac00 <_ZN2cv8fastFreeEPv@plt>
   36890: d8 50 01 94  	bl	0x8abf0 <_ZN2cv3Mat10deallocateEv@plt>
   36990: 9c 50 01 94  	bl	0x8ac00 <_ZN2cv8fastFreeEPv@plt>
   369d0: 88 50 01 94  	bl	0x8abf0 <_ZN2cv3Mat10deallocateEv@plt>
   36acc: 4d 50 01 94  	bl	0x8ac00 <_ZN2cv8fastFreeEPv@plt>
   36b0c: 39 50 01 94  	bl	0x8abf0 <_ZN2cv3Mat10deallocateEv@plt>
   36c0c: fd 4f 01 94  	bl	0x8ac00 <_ZN2cv8fastFreeEPv@plt>
   36c50: e8 4f 01 94  	bl	0x8abf0 <_ZN2cv3Mat10deallocateEv@plt>
   36d4c: ad 4f 01 94  	bl	0x8ac00 <_ZN2cv8fastFreeEPv@plt>
   36d90: 7c 4f 01 94  	bl	0x8ab80 <_ZNSt3__119__shared_weak_count14__release_weakEv@plt>
   36dbc: 71 4f 01 94  	bl	0x8ab80 <_ZNSt3__119__shared_weak_count14__release_weakEv@plt>
   36e00: 7c 4f 01 94  	bl	0x8abf0 <_ZN2cv3Mat10deallocateEv@plt>
   36efc: 41 4f 01 94  	bl	0x8ac00 <_ZN2cv8fastFreeEPv@plt>
   36f34: 2f 4f 01 94  	bl	0x8abf0 <_ZN2cv3Mat10deallocateEv@plt>
   37030: f4 4e 01 94  	bl	0x8ac00 <_ZN2cv8fastFreeEPv@plt>
   37074: c3 4e 01 94  	bl	0x8ab80 <_ZNSt3__119__shared_weak_count14__release_weakEv@plt>
   370a0: b8 4e 01 94  	bl	0x8ab80 <_ZNSt3__119__shared_weak_count14__release_weakEv@plt>
   370e0: a8 4e 01 94  	bl	0x8ab80 <_ZNSt3__119__shared_weak_count14__release_weakEv@plt>
   3710c: 9d 4e 01 94  	bl	0x8ab80 <_ZNSt3__119__shared_weak_count14__release_weakEv@plt>
   37168: 86 4e 01 94  	bl	0x8ab80 <_ZNSt3__119__shared_weak_count14__release_weakEv@plt>
   37194: 7b 4e 01 94  	bl	0x8ab80 <_ZNSt3__119__shared_weak_count14__release_weakEv@plt>
   371e0: 68 4e 01 94  	bl	0x8ab80 <_ZNSt3__119__shared_weak_count14__release_weakEv@plt>
   3720c: 5d 4e 01 94  	bl	0x8ab80 <_ZNSt3__119__shared_weak_count14__release_weakEv@plt>
   3724c: 4d 4e 01 94  	bl	0x8ab80 <_ZNSt3__119__shared_weak_count14__release_weakEv@plt>
   37278: 42 4e 01 94  	bl	0x8ab80 <_ZNSt3__119__shared_weak_count14__release_weakEv@plt>
   3734c: 29 4e 01 94  	bl	0x8abf0 <_ZN2cv3Mat10deallocateEv@plt>
   3744c: ed 4d 01 94  	bl	0x8ac00 <_ZN2cv8fastFreeEPv@plt>
   37478: de 4d 01 94  	bl	0x8abf0 <_ZN2cv3Mat10deallocateEv@plt>
   37578: a2 4d 01 94  	bl	0x8ac00 <_ZN2cv8fastFreeEPv@plt>
   37590: a0 4d 01 94  	bl	0x8ac10 <_ZNSt3__15mutexD1Ev@plt>
   37598: 56 4e 01 94  	bl	0x8aef0 <_ZNSt3__119__shared_weak_countD2Ev@plt>
   375a0: 90 4d 01 94  	bl	0x8abe0 <_ZdlPv@plt>
   3765c: 65 4d 01 94  	bl	0x8abf0 <_ZN2cv3Mat10deallocateEv@plt>
   3775c: 29 4d 01 94  	bl	0x8ac00 <_ZN2cv8fastFreeEPv@plt>
   37788: 1a 4d 01 94  	bl	0x8abf0 <_ZN2cv3Mat10deallocateEv@plt>
   3788c: dd 4c 01 94  	bl	0x8ac00 <_ZN2cv8fastFreeEPv@plt>
   378a4: db 4c 01 94  	bl	0x8ac10 <_ZNSt3__15mutexD1Ev@plt>
   378ac: 91 4d 01 94  	bl	0x8aef0 <_ZNSt3__119__shared_weak_countD2Ev@plt>
   378b4: cb 4c 01 94  	bl	0x8abe0 <_ZdlPv@plt>
   378f4: bf 4c 01 94  	bl	0x8abf0 <_ZN2cv3Mat10deallocateEv@plt>
   379ec: 85 4c 01 94  	bl	0x8ac00 <_ZN2cv8fastFreeEPv@plt>
   37a18: 76 4c 01 94  	bl	0x8abf0 <_ZN2cv3Mat10deallocateEv@plt>
   37b18: 3a 4c 01 94  	bl	0x8ac00 <_ZN2cv8fastFreeEPv@plt>
   37b30: 38 4c 01 94  	bl	0x8ac10 <_ZNSt3__15mutexD1Ev@plt>
   37b38: ee 4c 01 94  	bl	0x8aef0 <_ZNSt3__119__shared_weak_countD2Ev@plt>
   37b40: 28 4c 01 94  	bl	0x8abe0 <_ZdlPv@plt>
   37b80: 1c 4c 01 94  	bl	0x8abf0 <_ZN2cv3Mat10deallocateEv@plt>
   37c80: e0 4b 01 94  	bl	0x8ac00 <_ZN2cv8fastFreeEPv@plt>
   37cac: d1 4b 01 94  	bl	0x8abf0 <_ZN2cv3Mat10deallocateEv@plt>
   37dac: 95 4b 01 94  	bl	0x8ac00 <_ZN2cv8fastFreeEPv@plt>
   37dc4: 93 4b 01 94  	bl	0x8ac10 <_ZNSt3__15mutexD1Ev@plt>
   37dcc: 49 4c 01 94  	bl	0x8aef0 <_ZNSt3__119__shared_weak_countD2Ev@plt>
   37dd4: 83 4b 01 94  	bl	0x8abe0 <_ZdlPv@plt>
   37e10: 78 4b 01 94  	bl	0x8abf0 <_ZN2cv3Mat10deallocateEv@plt>
   37f10: 3c 4b 01 94  	bl	0x8ac00 <_ZN2cv8fastFreeEPv@plt>
   37f3c: 2d 4b 01 94  	bl	0x8abf0 <_ZN2cv3Mat10deallocateEv@plt>
   3803c: f1 4a 01 94  	bl	0x8ac00 <_ZN2cv8fastFreeEPv@plt>
   38054: ef 4a 01 94  	bl	0x8ac10 <_ZNSt3__15mutexD1Ev@plt>
   3805c: a5 4b 01 94  	bl	0x8aef0 <_ZNSt3__119__shared_weak_countD2Ev@plt>
   38064: df 4a 01 94  	bl	0x8abe0 <_ZdlPv@plt>
   380a0: d4 4a 01 94  	bl	0x8abf0 <_ZN2cv3Mat10deallocateEv@plt>
   38198: 9a 4a 01 94  	bl	0x8ac00 <_ZN2cv8fastFreeEPv@plt>
   381c4: 8b 4a 01 94  	bl	0x8abf0 <_ZN2cv3Mat10deallocateEv@plt>
   382c4: 4f 4a 01 94  	bl	0x8ac00 <_ZN2cv8fastFreeEPv@plt>
   382dc: 4d 4a 01 94  	bl	0x8ac10 <_ZNSt3__15mutexD1Ev@plt>
   382e4: 03 4b 01 94  	bl	0x8aef0 <_ZNSt3__119__shared_weak_countD2Ev@plt>
   382ec: 3d 4a 01 94  	bl	0x8abe0 <_ZdlPv@plt>
   3839c: 15 4a 01 94  	bl	0x8abf0 <_ZN2cv3Mat10deallocateEv@plt>
   38498: da 49 01 94  	bl	0x8ac00 <_ZN2cv8fastFreeEPv@plt>
   384c4: cb 49 01 94  	bl	0x8abf0 <_ZN2cv3Mat10deallocateEv@plt>
   385c0: 90 49 01 94  	bl	0x8ac00 <_ZN2cv8fastFreeEPv@plt>
   385ec: e9 49 01 94  	bl	0x8ad90 <_ZNSt3__118condition_variableD1Ev@plt>
   385f4: 87 49 01 94  	bl	0x8ac10 <_ZNSt3__15mutexD1Ev@plt>
   38648: 4e 49 01 94  	bl	0x8ab80 <_ZNSt3__119__shared_weak_count14__release_weakEv@plt>
   38680: c4 49 01 94  	bl	0x8ad90 <_ZNSt3__118condition_variableD1Ev@plt>
   38688: 62 49 01 94  	bl	0x8ac10 <_ZNSt3__15mutexD1Ev@plt>
   386dc: 29 49 01 94  	bl	0x8ab80 <_ZNSt3__119__shared_weak_count14__release_weakEv@plt>
   38718: 9e 49 01 94  	bl	0x8ad90 <_ZNSt3__118condition_variableD1Ev@plt>
   38720: 3c 49 01 94  	bl	0x8ac10 <_ZNSt3__15mutexD1Ev@plt>
   38774: 03 49 01 94  	bl	0x8ab80 <_ZNSt3__119__shared_weak_count14__release_weakEv@plt>
   3879c: 11 49 01 94  	bl	0x8abe0 <_ZdlPv@plt>
   387c8: 0a 49 01 94  	bl	0x8abf0 <_ZN2cv3Mat10deallocateEv@plt>
   388c0: d0 48 01 94  	bl	0x8ac00 <_ZN2cv8fastFreeEPv@plt>
   388d8: 2e 49 01 94  	bl	0x8ad90 <_ZNSt3__118condition_variableD1Ev@plt>
   388e0: cc 48 01 94  	bl	0x8ac10 <_ZNSt3__15mutexD1Ev@plt>
   38934: 93 48 01 94  	bl	0x8ab80 <_ZNSt3__119__shared_weak_count14__release_weakEv@plt>
   3895c: a1 48 01 94  	bl	0x8abe0 <_ZdlPv@plt>
   38988: 9a 48 01 94  	bl	0x8abf0 <_ZN2cv3Mat10deallocateEv@plt>
   38a80: 60 48 01 94  	bl	0x8ac00 <_ZN2cv8fastFreeEPv@plt>
   38aac: b9 48 01 94  	bl	0x8ad90 <_ZNSt3__118condition_variableD1Ev@plt>
   38ab4: 57 48 01 94  	bl	0x8ac10 <_ZNSt3__15mutexD1Ev@plt>
   38b08: 1e 48 01 94  	bl	0x8ab80 <_ZNSt3__119__shared_weak_count14__release_weakEv@plt>
   38b30: 2c 48 01 94  	bl	0x8abe0 <_ZdlPv@plt>
   38b48: 92 48 01 94  	bl	0x8ad90 <_ZNSt3__118condition_variableD1Ev@plt>
   38b50: 30 48 01 94  	bl	0x8ac10 <_ZNSt3__15mutexD1Ev@plt>
   38b84: 1b 48 01 94  	bl	0x8abf0 <_ZN2cv3Mat10deallocateEv@plt>
   38c38: d2 47 01 94  	bl	0x8ab80 <_ZNSt3__119__shared_weak_count14__release_weakEv@plt>
   38cf0: c4 47 01 94  	bl	0x8ac00 <_ZN2cv8fastFreeEPv@plt>
   38d1c: b5 47 01 94  	bl	0x8abf0 <_ZN2cv3Mat10deallocateEv@plt>
   38e14: 7b 47 01 94  	bl	0x8ac00 <_ZN2cv8fastFreeEPv@plt>
   38e58: 26 48 01 14  	b	0x8aef0 <_ZNSt3__119__shared_weak_countD2Ev@plt>
   38e88: 1a 48 01 94  	bl	0x8aef0 <_ZNSt3__119__shared_weak_countD2Ev@plt>
   38e98: 52 47 01 14  	b	0x8abe0 <_ZdlPv@plt>
   38eb0: 4c 47 01 14  	b	0x8abe0 <_ZdlPv@plt>
   38f00: 3c 47 01 94  	bl	0x8abf0 <_ZN2cv3Mat10deallocateEv@plt>
   38ffc: 01 47 01 94  	bl	0x8ac00 <_ZN2cv8fastFreeEPv@plt>
   39028: f2 46 01 94  	bl	0x8abf0 <_ZN2cv3Mat10deallocateEv@plt>
   39124: b7 46 01 94  	bl	0x8ac00 <_ZN2cv8fastFreeEPv@plt>
   39144: b3 46 01 14  	b	0x8ac10 <_ZNSt3__15mutexD1Ev@plt>
   39170: 9c 46 01 14  	b	0x8abe0 <_ZdlPv@plt>
   39788: da 45 01 14  	b	0x8aef0 <_ZNSt3__119__shared_weak_countD2Ev@plt>
   397b8: ce 45 01 94  	bl	0x8aef0 <_ZNSt3__119__shared_weak_countD2Ev@plt>
   397c8: 06 45 01 14  	b	0x8abe0 <_ZdlPv@plt>
   397e0: 00 45 01 14  	b	0x8abe0 <_ZdlPv@plt>
   39830: f0 44 01 94  	bl	0x8abf0 <_ZN2cv3Mat10deallocateEv@plt>
   3992c: b5 44 01 94  	bl	0x8ac00 <_ZN2cv8fastFreeEPv@plt>
   39958: a6 44 01 94  	bl	0x8abf0 <_ZN2cv3Mat10deallocateEv@plt>
   39a54: 6b 44 01 94  	bl	0x8ac00 <_ZN2cv8fastFreeEPv@plt>
   39a74: 67 44 01 14  	b	0x8ac10 <_ZNSt3__15mutexD1Ev@plt>
   39aa0: 50 44 01 14  	b	0x8abe0 <_ZdlPv@plt>
   39df0: 40 44 01 14  	b	0x8aef0 <_ZNSt3__119__shared_weak_countD2Ev@plt>
   39e20: 34 44 01 94  	bl	0x8aef0 <_ZNSt3__119__shared_weak_countD2Ev@plt>
   39e30: 6c 43 01 14  	b	0x8abe0 <_ZdlPv@plt>
   39e48: 66 43 01 14  	b	0x8abe0 <_ZdlPv@plt>
   39e98: 56 43 01 94  	bl	0x8abf0 <_ZN2cv3Mat10deallocateEv@plt>
   39f94: 1b 43 01 94  	bl	0x8ac00 <_ZN2cv8fastFreeEPv@plt>
   39fc0: 0c 43 01 94  	bl	0x8abf0 <_ZN2cv3Mat10deallocateEv@plt>
   3a0bc: d1 42 01 94  	bl	0x8ac00 <_ZN2cv8fastFreeEPv@plt>
   3a0dc: cd 42 01 14  	b	0x8ac10 <_ZNSt3__15mutexD1Ev@plt>
   3a108: b6 42 01 14  	b	0x8abe0 <_ZdlPv@plt>
   3a5a0: 54 42 01 14  	b	0x8aef0 <_ZNSt3__119__shared_weak_countD2Ev@plt>
   3a5d0: 48 42 01 94  	bl	0x8aef0 <_ZNSt3__119__shared_weak_countD2Ev@plt>
   3a5e0: 80 41 01 14  	b	0x8abe0 <_ZdlPv@plt>
   3a5f8: 7a 41 01 14  	b	0x8abe0 <_ZdlPv@plt>
   3a648: 6a 41 01 94  	bl	0x8abf0 <_ZN2cv3Mat10deallocateEv@plt>
   3a744: 2f 41 01 94  	bl	0x8ac00 <_ZN2cv8fastFreeEPv@plt>
   3a770: 20 41 01 94  	bl	0x8abf0 <_ZN2cv3Mat10deallocateEv@plt>
   3a86c: e5 40 01 94  	bl	0x8ac00 <_ZN2cv8fastFreeEPv@plt>
   3a88c: e1 40 01 14  	b	0x8ac10 <_ZNSt3__15mutexD1Ev@plt>
   3a8b8: ca 40 01 14  	b	0x8abe0 <_ZdlPv@plt>
   3ad70: 60 40 01 14  	b	0x8aef0 <_ZNSt3__119__shared_weak_countD2Ev@plt>
   3ada0: 54 40 01 94  	bl	0x8aef0 <_ZNSt3__119__shared_weak_countD2Ev@plt>
   3adb0: 8c 3f 01 14  	b	0x8abe0 <_ZdlPv@plt>
   3adc8: 86 3f 01 14  	b	0x8abe0 <_ZdlPv@plt>
   3ae18: 76 3f 01 94  	bl	0x8abf0 <_ZN2cv3Mat10deallocateEv@plt>
   3af14: 3b 3f 01 94  	bl	0x8ac00 <_ZN2cv8fastFreeEPv@plt>
   3af40: 2c 3f 01 94  	bl	0x8abf0 <_ZN2cv3Mat10deallocateEv@plt>
   3b03c: f1 3e 01 94  	bl	0x8ac00 <_ZN2cv8fastFreeEPv@plt>
   3b05c: ed 3e 01 14  	b	0x8ac10 <_ZNSt3__15mutexD1Ev@plt>
   3b088: d6 3e 01 14  	b	0x8abe0 <_ZdlPv@plt>
   3b170: 60 3f 01 14  	b	0x8aef0 <_ZNSt3__119__shared_weak_countD2Ev@plt>
   3b1a0: 54 3f 01 94  	bl	0x8aef0 <_ZNSt3__119__shared_weak_countD2Ev@plt>
   3b1b0: 8c 3e 01 14  	b	0x8abe0 <_ZdlPv@plt>
   3b1c8: 86 3e 01 14  	b	0x8abe0 <_ZdlPv@plt>
   3b218: 76 3e 01 94  	bl	0x8abf0 <_ZN2cv3Mat10deallocateEv@plt>
   3b314: 3b 3e 01 94  	bl	0x8ac00 <_ZN2cv8fastFreeEPv@plt>
   3b340: 2c 3e 01 94  	bl	0x8abf0 <_ZN2cv3Mat10deallocateEv@plt>
   3b43c: f1 3d 01 94  	bl	0x8ac00 <_ZN2cv8fastFreeEPv@plt>
   3b45c: ed 3d 01 14  	b	0x8ac10 <_ZNSt3__15mutexD1Ev@plt>
   3b488: d6 3d 01 14  	b	0x8abe0 <_ZdlPv@plt>
   44aa0: 34 18 01 94  	bl	0x8ab70 <_Znwm@plt>
   44b0c: c1 18 01 94  	bl	0x8ae10 <_ZNSt3__16threadD1Ev@plt>
   44b30: 10 18 01 94  	bl	0x8ab70 <_Znwm@plt>
   44b38: 0a 19 01 94  	bl	0x8af60 <_ZNSt3__115__thread_structC1Ev@plt>
   44b40: 0c 18 01 94  	bl	0x8ab70 <_Znwm@plt>
   44bd8: a2 18 01 94  	bl	0x8ae60 <_ZNSt3__16thread4joinEv@plt>
   44bf8: fa 17 01 94  	bl	0x8abe0 <_ZdlPv@plt>
   44c1c: 7d 18 01 94  	bl	0x8ae10 <_ZNSt3__16threadD1Ev@plt>
   44c50: e4 17 01 94  	bl	0x8abe0 <_ZdlPv@plt>
   44ce4: 9b 18 01 94  	bl	0x8af50 <_ZNSt3__120__throw_system_errorEiPKc@plt>
   44d00: 44 18 01 94  	bl	0x8ae10 <_ZNSt3__16threadD1Ev@plt>
   44d1c: 99 18 01 94  	bl	0x8af80 <_ZNSt3__115__thread_structD1Ev@plt>
   44d24: af 17 01 94  	bl	0x8abe0 <_ZdlPv@plt>
   44d40: 90 18 01 94  	bl	0x8af80 <_ZNSt3__115__thread_structD1Ev@plt>
   44d48: a6 17 01 94  	bl	0x8abe0 <_ZdlPv@plt>
   44d50: a4 17 01 94  	bl	0x8abe0 <_ZdlPv@plt>
   44d60: a0 17 01 94  	bl	0x8abe0 <_ZdlPv@plt>
   44d88: 22 18 01 94  	bl	0x8ae10 <_ZNSt3__16threadD1Ev@plt>
   44db8: 8a 17 01 94  	bl	0x8abe0 <_ZdlPv@plt>
   44f20: a4 17 01 94  	bl	0x8adb0 <_ZN2cv3MatC1ERKS0_RKNS_5Rect_IiEE@plt>
   44f48: 9a 17 01 94  	bl	0x8adb0 <_ZN2cv3MatC1ERKS0_RKNS_5Rect_IiEE@plt>
   44f74: 6b 18 01 94  	bl	0x8b120 <_ZN2cv7absdiffERKNS_11_InputArrayES2_RKNS_12_OutputArrayE@plt>
   44fa0: 14 17 01 94  	bl	0x8abf0 <_ZN2cv3Mat10deallocateEv@plt>
   45098: da 16 01 94  	bl	0x8ac00 <_ZN2cv8fastFreeEPv@plt>
   450c4: cb 16 01 94  	bl	0x8abf0 <_ZN2cv3Mat10deallocateEv@plt>
   451b4: 93 16 01 94  	bl	0x8ac00 <_ZN2cv8fastFreeEPv@plt>
   451fc: ed 16 01 94  	bl	0x8adb0 <_ZN2cv3MatC1ERKS0_RKNS_5Rect_IiEE@plt>
   4522c: e1 16 01 94  	bl	0x8adb0 <_ZN2cv3MatC1ERKS0_RKNS_5Rect_IiEE@plt>
   45258: b2 17 01 94  	bl	0x8b120 <_ZN2cv7absdiffERKNS_11_InputArrayES2_RKNS_12_OutputArrayE@plt>
   45284: 5b 16 01 94  	bl	0x8abf0 <_ZN2cv3Mat10deallocateEv@plt>
   45380: 20 16 01 94  	bl	0x8ac00 <_ZN2cv8fastFreeEPv@plt>
   453ac: 11 16 01 94  	bl	0x8abf0 <_ZN2cv3Mat10deallocateEv@plt>
   454a4: d7 15 01 94  	bl	0x8ac00 <_ZN2cv8fastFreeEPv@plt>
   454b4: e7 15 01 94  	bl	0x8ac50 <_ZN2cv7noArrayEv@plt>
   454c4: 1b 17 01 94  	bl	0x8b130 <_ZN2cv4normERKNS_11_InputArrayEiS2_@plt>
   454d8: de 15 01 94  	bl	0x8ac50 <_ZN2cv7noArrayEv@plt>
   454e8: 12 17 01 94  	bl	0x8b130 <_ZN2cv4normERKNS_11_InputArrayEiS2_@plt>
   45530: b0 15 01 94  	bl	0x8abf0 <_ZN2cv3Mat10deallocateEv@plt>
   45620: 78 15 01 94  	bl	0x8ac00 <_ZN2cv8fastFreeEPv@plt>
   4564c: 69 15 01 94  	bl	0x8abf0 <_ZN2cv3Mat10deallocateEv@plt>
   45744: 2f 15 01 94  	bl	0x8ac00 <_ZN2cv8fastFreeEPv@plt>
   457d4: 07 15 01 94  	bl	0x8abf0 <_ZN2cv3Mat10deallocateEv@plt>
   458d0: cc 14 01 94  	bl	0x8ac00 <_ZN2cv8fastFreeEPv@plt>
   45908: ba 14 01 94  	bl	0x8abf0 <_ZN2cv3Mat10deallocateEv@plt>
   45a00: 80 14 01 94  	bl	0x8ac00 <_ZN2cv8fastFreeEPv@plt>
   45a3c: 6d 14 01 94  	bl	0x8abf0 <_ZN2cv3Mat10deallocateEv@plt>
   45b34: 33 14 01 94  	bl	0x8ac00 <_ZN2cv8fastFreeEPv@plt>
   45b6c: 21 14 01 94  	bl	0x8abf0 <_ZN2cv3Mat10deallocateEv@plt>
   45c5c: e9 13 01 94  	bl	0x8ac00 <_ZN2cv8fastFreeEPv@plt>
   45ca0: d4 13 01 94  	bl	0x8abf0 <_ZN2cv3Mat10deallocateEv@plt>
   45d90: 9c 13 01 94  	bl	0x8ac00 <_ZN2cv8fastFreeEPv@plt>
   45dbc: 8d 13 01 94  	bl	0x8abf0 <_ZN2cv3Mat10deallocateEv@plt>
   45eb4: 53 13 01 94  	bl	0x8ac00 <_ZN2cv8fastFreeEPv@plt>
   45edc: 31 14 01 94  	bl	0x8afa0 <_ZNSt3__119__thread_local_dataEv@plt>
   45f14: 1b 14 01 94  	bl	0x8af80 <_ZNSt3__115__thread_structD1Ev@plt>
   45f1c: 31 13 01 94  	bl	0x8abe0 <_ZdlPv@plt>
   45f24: 2f 13 01 94  	bl	0x8abe0 <_ZdlPv@plt>
   45f5c: 09 14 01 94  	bl	0x8af80 <_ZNSt3__115__thread_structD1Ev@plt>
   45f64: 1f 13 01 94  	bl	0x8abe0 <_ZdlPv@plt>
   45f6c: 1d 13 01 94  	bl	0x8abe0 <_ZdlPv@plt>
   45fe4: 13 13 01 94  	bl	0x8ac30 <_ZN2cv12getTickCountEv@plt>
   4600c: 11 13 01 94  	bl	0x8ac50 <_ZN2cv7noArrayEv@plt>
   4601c: 49 14 01 94  	bl	0x8b140 <_ZN2cv4meanERKNS_11_InputArrayES2_@plt>
   4618c: 7d 12 01 94  	bl	0x8ab80 <_ZNSt3__119__shared_weak_count14__release_weakEv@plt>
   461f4: 7f 12 01 94  	bl	0x8abf0 <_ZN2cv3Mat10deallocateEv@plt>
   46210: 5c 12 01 94  	bl	0x8ab80 <_ZNSt3__119__shared_weak_count14__release_weakEv@plt>
   46238: 52 12 01 94  	bl	0x8ab80 <_ZNSt3__119__shared_weak_count14__release_weakEv@plt>
   46338: 32 12 01 94  	bl	0x8ac00 <_ZN2cv8fastFreeEPv@plt>
   463dc: 6d 12 01 94  	bl	0x8ad90 <_ZNSt3__118condition_variableD1Ev@plt>
   463e4: 0b 12 01 94  	bl	0x8ac10 <_ZNSt3__15mutexD1Ev@plt>
   46444: cf 11 01 94  	bl	0x8ab80 <_ZNSt3__119__shared_weak_count14__release_weakEv@plt>
   46468: de 11 01 94  	bl	0x8abe0 <_ZdlPv@plt>
   464b8: ce 11 01 94  	bl	0x8abf0 <_ZN2cv3Mat10deallocateEv@plt>
   46500: c0 11 01 94  	bl	0x8ac00 <_ZN2cv8fastFreeEPv@plt>
   465b4: d3 11 01 94  	bl	0x8ad00 <_ZN2cv3Mat6createEiPKii@plt>
   465cc: 01 12 01 94  	bl	0x8add0 <_ZN2cv3MataSERKNS_7Scalar_IdEE@plt>
   46628: b6 11 01 94  	bl	0x8ad00 <_ZN2cv3Mat6createEiPKii@plt>
   46640: e4 11 01 94  	bl	0x8add0 <_ZN2cv3MataSERKNS_7Scalar_IdEE@plt>
   46670: 40 11 01 94  	bl	0x8ab70 <_Znwm@plt>
   466e4: 5b 11 01 94  	bl	0x8ac50 <_ZN2cv7noArrayEv@plt>
   466f4: 93 12 01 94  	bl	0x8b140 <_ZN2cv4meanERKNS_11_InputArrayES2_@plt>
   4682c: f1 10 01 94  	bl	0x8abf0 <_ZN2cv3Mat10deallocateEv@plt>
   46874: e3 10 01 94  	bl	0x8ac00 <_ZN2cv8fastFreeEPv@plt>
   468e4: db 10 01 94  	bl	0x8ac50 <_ZN2cv7noArrayEv@plt>
   468f4: 13 12 01 94  	bl	0x8b140 <_ZN2cv4meanERKNS_11_InputArrayES2_@plt>
   469c4: a3 10 01 94  	bl	0x8ac50 <_ZN2cv7noArrayEv@plt>
   469d4: db 11 01 94  	bl	0x8b140 <_ZN2cv4meanERKNS_11_InputArrayES2_@plt>
   46b88: 5e 10 01 94  	bl	0x8ad00 <_ZN2cv3Mat6createEiPKii@plt>
   46ba4: 2b 10 01 94  	bl	0x8ac50 <_ZN2cv7noArrayEv@plt>
   46bb8: 66 11 01 94  	bl	0x8b150 <_ZN2cv3Mat5setToERKNS_11_InputArrayES3_@plt>
   46be0: 7c 10 01 94  	bl	0x8add0 <_ZN2cv3MataSERKNS_7Scalar_IdEE@plt>
   46d28: 0e 11 01 94  	bl	0x8b160 <_ZN2cv3Mat5zerosENS_5Size_IiEEi@plt>
   46dc0: fc 0f 01 94  	bl	0x8adb0 <_ZN2cv3MatC1ERKS0_RKNS_5Rect_IiEE@plt>
   46dec: 99 0f 01 94  	bl	0x8ac50 <_ZN2cv7noArrayEv@plt>
   46dfc: d5 10 01 94  	bl	0x8b150 <_ZN2cv3Mat5setToERKNS_11_InputArrayES3_@plt>
   46e28: 72 0f 01 94  	bl	0x8abf0 <_ZN2cv3Mat10deallocateEv@plt>
   46f28: 36 0f 01 94  	bl	0x8ac00 <_ZN2cv8fastFreeEPv@plt>
   46f60: 3c 0f 01 94  	bl	0x8ac50 <_ZN2cv7noArrayEv@plt>
   46f74: 7f 10 01 94  	bl	0x8b170 <_ZN2cv11bitwise_andERKNS_11_InputArrayES2_RKNS_12_OutputArrayES2_@plt>
   46f8c: 45 0f 01 94  	bl	0x8aca0 <_ZN2cv12countNonZeroERKNS_11_InputArrayE@plt>
   46ff4: 0f 0f 01 94  	bl	0x8ac30 <_ZN2cv12getTickCountEv@plt>
   47004: 2b 0f 01 94  	bl	0x8acb0 <_ZN2cv16getTickFrequencyEv@plt>
   47068: e2 0e 01 94  	bl	0x8abf0 <_ZN2cv3Mat10deallocateEv@plt>
   47160: a8 0e 01 94  	bl	0x8ac00 <_ZN2cv8fastFreeEPv@plt>
   47184: 97 0e 01 94  	bl	0x8abe0 <_ZdlPv@plt>
   471b0: 90 0e 01 94  	bl	0x8abf0 <_ZN2cv3Mat10deallocateEv@plt>
   472ac: 55 0e 01 94  	bl	0x8ac00 <_ZN2cv8fastFreeEPv@plt>
   472d8: 46 0e 01 94  	bl	0x8abf0 <_ZN2cv3Mat10deallocateEv@plt>
   473d4: 0b 0e 01 94  	bl	0x8ac00 <_ZN2cv8fastFreeEPv@plt>
   47400: fc 0d 01 94  	bl	0x8abf0 <_ZN2cv3Mat10deallocateEv@plt>
   474fc: c1 0d 01 94  	bl	0x8ac00 <_ZN2cv8fastFreeEPv@plt>
   47604: 7b 0d 01 94  	bl	0x8abf0 <_ZN2cv3Mat10deallocateEv@plt>
   476fc: 41 0d 01 94  	bl	0x8ac00 <_ZN2cv8fastFreeEPv@plt>
   47754: 27 0d 01 94  	bl	0x8abf0 <_ZN2cv3Mat10deallocateEv@plt>
   4784c: ed 0c 01 94  	bl	0x8ac00 <_ZN2cv8fastFreeEPv@plt>
   478f4: bf 0c 01 94  	bl	0x8abf0 <_ZN2cv3Mat10deallocateEv@plt>
   479f4: 83 0c 01 94  	bl	0x8ac00 <_ZN2cv8fastFreeEPv@plt>
   47a34: 6f 0c 01 94  	bl	0x8abf0 <_ZN2cv3Mat10deallocateEv@plt>
   47b2c: 35 0c 01 94  	bl	0x8ac00 <_ZN2cv8fastFreeEPv@plt>
   47b74: 87 0c 01 94  	bl	0x8ad90 <_ZNSt3__118condition_variableD1Ev@plt>
   47b7c: 25 0c 01 94  	bl	0x8ac10 <_ZNSt3__15mutexD1Ev@plt>
   47bd0: ec 0b 01 94  	bl	0x8ab80 <_ZNSt3__119__shared_weak_count14__release_weakEv@plt>
   47bf8: fa 0b 01 94  	bl	0x8abe0 <_ZdlPv@plt>
   47c28: ee 0b 01 94  	bl	0x8abe0 <_ZdlPv@plt>
   47c54: e7 0b 01 94  	bl	0x8abf0 <_ZN2cv3Mat10deallocateEv@plt>
   47d50: ac 0b 01 94  	bl	0x8ac00 <_ZN2cv8fastFreeEPv@plt>
   47d7c: 9d 0b 01 94  	bl	0x8abf0 <_ZN2cv3Mat10deallocateEv@plt>
   47e78: 62 0b 01 94  	bl	0x8ac00 <_ZN2cv8fastFreeEPv@plt>
   47ea4: 53 0b 01 94  	bl	0x8abf0 <_ZN2cv3Mat10deallocateEv@plt>
   47fa0: 18 0b 01 94  	bl	0x8ac00 <_ZN2cv8fastFreeEPv@plt>
   48734: 3f 09 01 94  	bl	0x8ac30 <_ZN2cv12getTickCountEv@plt>
   48760: 04 09 01 94  	bl	0x8ab70 <_Znwm@plt>
   488a4: eb 08 01 94  	bl	0x8ac50 <_ZN2cv7noArrayEv@plt>
   488bc: 39 0a 01 94  	bl	0x8b1a0 <_ZN2cv8subtractERKNS_11_InputArrayES2_RKNS_12_OutputArrayES2_i@plt>
   488e4: a3 08 01 94  	bl	0x8ab70 <_Znwm@plt>
   48a38: ba 09 01 94  	bl	0x8b120 <_ZN2cv7absdiffERKNS_11_InputArrayES2_RKNS_12_OutputArrayE@plt>
   48a3c: 7d 08 01 94  	bl	0x8ac30 <_ZN2cv12getTickCountEv@plt>
   48a8c: c9 09 01 94  	bl	0x8b1b0 <_ZN2cv8integralERKNS_11_InputArrayERKNS_12_OutputArrayES5_ii@plt>
   48a90: 68 08 01 94  	bl	0x8ac30 <_ZN2cv12getTickCountEv@plt>
   48aec: 85 08 01 94  	bl	0x8ad00 <_ZN2cv3Mat6createEiPKii@plt>
   48b00: b4 08 01 94  	bl	0x8add0 <_ZN2cv3MataSERKNS_7Scalar_IdEE@plt>
   48b04: 4b 08 01 94  	bl	0x8ac30 <_ZN2cv12getTickCountEv@plt>
   48e08: 8a 07 01 94  	bl	0x8ac30 <_ZN2cv12getTickCountEv@plt>
   48e88: 6a 07 01 94  	bl	0x8ac30 <_ZN2cv12getTickCountEv@plt>
   48fc4: ef 06 01 94  	bl	0x8ab80 <_ZNSt3__119__shared_weak_count14__release_weakEv@plt>
   49030: f0 06 01 94  	bl	0x8abf0 <_ZN2cv3Mat10deallocateEv@plt>
   4904c: cd 06 01 94  	bl	0x8ab80 <_ZNSt3__119__shared_weak_count14__release_weakEv@plt>
   49070: c4 06 01 94  	bl	0x8ab80 <_ZNSt3__119__shared_weak_count14__release_weakEv@plt>
   49178: a2 06 01 94  	bl	0x8ac00 <_ZN2cv8fastFreeEPv@plt>
   491bc: 6d 06 01 94  	bl	0x8ab70 <_Znwm@plt>
   492d0: a0 06 01 94  	bl	0x8ad50 <_ZN2cv3Mat8copySizeERKS0_@plt>
   49388: 72 06 01 94  	bl	0x8ad50 <_ZN2cv3Mat8copySizeERKS0_@plt>
   493b0: f0 05 01 94  	bl	0x8ab70 <_Znwm@plt>
   49424: 37 06 01 94  	bl	0x8ad00 <_ZN2cv3Mat6createEiPKii@plt>
   49528: 0a 06 01 94  	bl	0x8ad50 <_ZN2cv3Mat8copySizeERKS0_@plt>
   4958c: dd 05 01 94  	bl	0x8ad00 <_ZN2cv3Mat6createEiPKii@plt>
   495e0: 84 05 01 94  	bl	0x8abf0 <_ZN2cv3Mat10deallocateEv@plt>
   49688: b2 05 01 94  	bl	0x8ad50 <_ZN2cv3Mat8copySizeERKS0_@plt>
   4979c: f9 04 01 94  	bl	0x8ab80 <_ZNSt3__119__shared_weak_count14__release_weakEv@plt>
   497d4: eb 04 01 94  	bl	0x8ab80 <_ZNSt3__119__shared_weak_count14__release_weakEv@plt>
   49870: c4 04 01 94  	bl	0x8ab80 <_ZNSt3__119__shared_weak_count14__release_weakEv@plt>
   498dc: c5 04 01 94  	bl	0x8abf0 <_ZN2cv3Mat10deallocateEv@plt>
   498f8: a2 04 01 94  	bl	0x8ab80 <_ZNSt3__119__shared_weak_count14__release_weakEv@plt>
   499f8: 82 04 01 94  	bl	0x8ac00 <_ZN2cv8fastFreeEPv@plt>
   49a00: 5c 04 01 94  	bl	0x8ab70 <_Znwm@plt>
   49b20: 8c 04 01 94  	bl	0x8ad50 <_ZN2cv3Mat8copySizeERKS0_@plt>
   49bbc: 51 04 01 94  	bl	0x8ad00 <_ZN2cv3Mat6createEiPKii@plt>
   49c10: f8 03 01 94  	bl	0x8abf0 <_ZN2cv3Mat10deallocateEv@plt>
   49cb4: 27 04 01 94  	bl	0x8ad50 <_ZN2cv3Mat8copySizeERKS0_@plt>
   49d88: 7e 03 01 94  	bl	0x8ab80 <_ZNSt3__119__shared_weak_count14__release_weakEv@plt>
   49dc4: 6f 03 01 94  	bl	0x8ab80 <_ZNSt3__119__shared_weak_count14__release_weakEv@plt>
   49e5c: 49 03 01 94  	bl	0x8ab80 <_ZNSt3__119__shared_weak_count14__release_weakEv@plt>
   49ec8: 4a 03 01 94  	bl	0x8abf0 <_ZN2cv3Mat10deallocateEv@plt>
   49ee4: 27 03 01 94  	bl	0x8ab80 <_ZNSt3__119__shared_weak_count14__release_weakEv@plt>
   49fe4: 07 03 01 94  	bl	0x8ac00 <_ZN2cv8fastFreeEPv@plt>
   4a078: ee 02 01 94  	bl	0x8ac30 <_ZN2cv12getTickCountEv@plt>
   4a08c: 09 03 01 94  	bl	0x8acb0 <_ZN2cv16getTickFrequencyEv@plt>
   4a0d8: f6 02 01 94  	bl	0x8acb0 <_ZN2cv16getTickFrequencyEv@plt>
   4a120: e4 02 01 94  	bl	0x8acb0 <_ZN2cv16getTickFrequencyEv@plt>
   4a168: d2 02 01 94  	bl	0x8acb0 <_ZN2cv16getTickFrequencyEv@plt>
   4a1b0: c0 02 01 94  	bl	0x8acb0 <_ZN2cv16getTickFrequencyEv@plt>
   4a1f8: ae 02 01 94  	bl	0x8acb0 <_ZN2cv16getTickFrequencyEv@plt>
   4a25c: 65 02 01 94  	bl	0x8abf0 <_ZN2cv3Mat10deallocateEv@plt>
   4a358: 2a 02 01 94  	bl	0x8ac00 <_ZN2cv8fastFreeEPv@plt>
   4a384: 1b 02 01 94  	bl	0x8abf0 <_ZN2cv3Mat10deallocateEv@plt>
   4a484: df 01 01 94  	bl	0x8ac00 <_ZN2cv8fastFreeEPv@plt>
   4a490: 40 02 01 94  	bl	0x8ad90 <_ZNSt3__118condition_variableD1Ev@plt>
   4a498: de 01 01 94  	bl	0x8ac10 <_ZNSt3__15mutexD1Ev@plt>
   4a4f8: a2 01 01 94  	bl	0x8ab80 <_ZNSt3__119__shared_weak_count14__release_weakEv@plt>
   4a51c: b1 01 01 94  	bl	0x8abe0 <_ZdlPv@plt>
   4a548: aa 01 01 94  	bl	0x8abf0 <_ZN2cv3Mat10deallocateEv@plt>
   4a648: 6e 01 01 94  	bl	0x8ac00 <_ZN2cv8fastFreeEPv@plt>
   4a674: 5f 01 01 94  	bl	0x8abf0 <_ZN2cv3Mat10deallocateEv@plt>
   4a778: 22 01 01 94  	bl	0x8ac00 <_ZN2cv8fastFreeEPv@plt>
   4a7a4: 13 01 01 94  	bl	0x8abf0 <_ZN2cv3Mat10deallocateEv@plt>
   4a8a4: d7 00 01 94  	bl	0x8ac00 <_ZN2cv8fastFreeEPv@plt>
   4a8d0: c8 00 01 94  	bl	0x8abf0 <_ZN2cv3Mat10deallocateEv@plt>
   4a9d0: 8c 00 01 94  	bl	0x8ac00 <_ZN2cv8fastFreeEPv@plt>
   4a9e0: 80 00 01 94  	bl	0x8abe0 <_ZdlPv@plt>
   4a9f0: 7c 00 01 94  	bl	0x8abe0 <_ZdlPv@plt>
   4aa00: 78 00 01 94  	bl	0x8abe0 <_ZdlPv@plt>
   4aa8c: 95 00 01 94  	bl	0x8ace0 <_ZNKSt3__120__vector_base_commonILb1EE20__throw_length_errorEv@plt>
   4aa94: 93 00 01 94  	bl	0x8ace0 <_ZNKSt3__120__vector_base_commonILb1EE20__throw_length_errorEv@plt>
   4ac24: f3 ff 00 94  	bl	0x8abf0 <_ZN2cv3Mat10deallocateEv@plt>
   4ad1c: b9 ff 00 94  	bl	0x8ac00 <_ZN2cv8fastFreeEPv@plt>
   4ad60: 88 ff 00 94  	bl	0x8ab80 <_ZNSt3__119__shared_weak_count14__release_weakEv@plt>
   4ad8c: 7d ff 00 94  	bl	0x8ab80 <_ZNSt3__119__shared_weak_count14__release_weakEv@plt>
   4adcc: 89 ff 00 94  	bl	0x8abf0 <_ZN2cv3Mat10deallocateEv@plt>
   4aec4: 4f ff 00 94  	bl	0x8ac00 <_ZN2cv8fastFreeEPv@plt>
   4af08: 1e ff 00 94  	bl	0x8ab80 <_ZNSt3__119__shared_weak_count14__release_weakEv@plt>
   4af34: 13 ff 00 94  	bl	0x8ab80 <_ZNSt3__119__shared_weak_count14__release_weakEv@plt>
   4af84: 1b ff 00 94  	bl	0x8abf0 <_ZN2cv3Mat10deallocateEv@plt>
   4b07c: e1 fe 00 94  	bl	0x8ac00 <_ZN2cv8fastFreeEPv@plt>
   4b168: a2 fe 00 94  	bl	0x8abf0 <_ZN2cv3Mat10deallocateEv@plt>
   4b258: 6a fe 00 94  	bl	0x8ac00 <_ZN2cv8fastFreeEPv@plt>
   4b284: 5b fe 00 94  	bl	0x8abf0 <_ZN2cv3Mat10deallocateEv@plt>
   4b380: 20 fe 00 94  	bl	0x8ac00 <_ZN2cv8fastFreeEPv@plt>
   4b398: 1e fe 00 94  	bl	0x8ac10 <_ZNSt3__15mutexD1Ev@plt>
   4b3a0: d4 fe 00 94  	bl	0x8aef0 <_ZNSt3__119__shared_weak_countD2Ev@plt>
   4b3a8: 0e fe 00 94  	bl	0x8abe0 <_ZdlPv@plt>
   4b3e4: 03 fe 00 94  	bl	0x8abf0 <_ZN2cv3Mat10deallocateEv@plt>
   4b4e0: c8 fd 00 94  	bl	0x8ac00 <_ZN2cv8fastFreeEPv@plt>
   4b50c: b9 fd 00 94  	bl	0x8abf0 <_ZN2cv3Mat10deallocateEv@plt>
   4b608: 7e fd 00 94  	bl	0x8ac00 <_ZN2cv8fastFreeEPv@plt>
   4b634: 6f fd 00 94  	bl	0x8abf0 <_ZN2cv3Mat10deallocateEv@plt>
   4b734: 33 fd 00 94  	bl	0x8ac00 <_ZN2cv8fastFreeEPv@plt>
   4b748: 26 fd 00 94  	bl	0x8abe0 <_ZdlPv@plt>
   4b774: 1f fd 00 94  	bl	0x8abf0 <_ZN2cv3Mat10deallocateEv@plt>
   4b874: e3 fc 00 94  	bl	0x8ac00 <_ZN2cv8fastFreeEPv@plt>
   4b8a0: d4 fc 00 94  	bl	0x8abf0 <_ZN2cv3Mat10deallocateEv@plt>
   4b9a4: 97 fc 00 94  	bl	0x8ac00 <_ZN2cv8fastFreeEPv@plt>
   4b9c0: 94 fc 00 94  	bl	0x8ac10 <_ZNSt3__15mutexD1Ev@plt>
   4b9c8: 4a fd 00 94  	bl	0x8aef0 <_ZNSt3__119__shared_weak_countD2Ev@plt>
   4b9d0: 84 fc 00 94  	bl	0x8abe0 <_ZdlPv@plt>
   4ba44: 6b fc 00 94  	bl	0x8abf0 <_ZN2cv3Mat10deallocateEv@plt>
   4bb40: 30 fc 00 94  	bl	0x8ac00 <_ZN2cv8fastFreeEPv@plt>
   4bb6c: 21 fc 00 94  	bl	0x8abf0 <_ZN2cv3Mat10deallocateEv@plt>
   4bc68: e6 fb 00 94  	bl	0x8ac00 <_ZN2cv8fastFreeEPv@plt>
   4bc74: 47 fc 00 94  	bl	0x8ad90 <_ZNSt3__118condition_variableD1Ev@plt>
   4bc7c: e5 fb 00 94  	bl	0x8ac10 <_ZNSt3__15mutexD1Ev@plt>
   4bcd0: ac fb 00 94  	bl	0x8ab80 <_ZNSt3__119__shared_weak_count14__release_weakEv@plt>
   4bcfc: b9 fb 00 94  	bl	0x8abe0 <_ZdlPv@plt>
   4bd28: b2 fb 00 94  	bl	0x8abf0 <_ZN2cv3Mat10deallocateEv@plt>
   4be24: 77 fb 00 94  	bl	0x8ac00 <_ZN2cv8fastFreeEPv@plt>
   4be50: 68 fb 00 94  	bl	0x8abf0 <_ZN2cv3Mat10deallocateEv@plt>
   4bf54: 2b fb 00 94  	bl	0x8ac00 <_ZN2cv8fastFreeEPv@plt>
   4bf80: 1c fb 00 94  	bl	0x8abf0 <_ZN2cv3Mat10deallocateEv@plt>
   4c084: df fa 00 94  	bl	0x8ac00 <_ZN2cv8fastFreeEPv@plt>
   4c0b0: d0 fa 00 94  	bl	0x8abf0 <_ZN2cv3Mat10deallocateEv@plt>
   4c1b0: 94 fa 00 94  	bl	0x8ac00 <_ZN2cv8fastFreeEPv@plt>
   4c1c0: 88 fa 00 94  	bl	0x8abe0 <_ZdlPv@plt>
   4c1d0: 84 fa 00 94  	bl	0x8abe0 <_ZdlPv@plt>
   4c1e0: 80 fa 00 94  	bl	0x8abe0 <_ZdlPv@plt>
   4c290: 38 fa 00 94  	bl	0x8ab70 <_Znwm@plt>
   4cd44: 8b f7 00 94  	bl	0x8ab70 <_Znwm@plt>
   4cf7c: 61 f7 00 94  	bl	0x8ad00 <_ZN2cv3Mat6createEiPKii@plt>
   4cf9c: f5 f6 00 94  	bl	0x8ab70 <_Znwm@plt>
   4cfd8: e6 f6 00 94  	bl	0x8ab70 <_Znwm@plt>
   4d008: da f6 00 94  	bl	0x8ab70 <_Znwm@plt>
   4d040: cc f6 00 94  	bl	0x8ab70 <_Znwm@plt>
   4d07c: bd f6 00 94  	bl	0x8ab70 <_Znwm@plt>
   4d0b0: b0 f6 00 94  	bl	0x8ab70 <_Znwm@plt>
   4d188: de f6 00 94  	bl	0x8ad00 <_ZN2cv3Mat6createEiPKii@plt>
   4e420: f0 f1 00 94  	bl	0x8abe0 <_ZdlPv@plt>
   4e444: e7 f1 00 94  	bl	0x8abe0 <_ZdlPv@plt>
   4e468: de f1 00 94  	bl	0x8abe0 <_ZdlPv@plt>
   4e478: da f1 00 94  	bl	0x8abe0 <_ZdlPv@plt>
   4e488: d6 f1 00 94  	bl	0x8abe0 <_ZdlPv@plt>
   4e498: d2 f1 00 94  	bl	0x8abe0 <_ZdlPv@plt>
   4e4c4: cb f1 00 94  	bl	0x8abf0 <_ZN2cv3Mat10deallocateEv@plt>
   4e5c4: 8f f1 00 94  	bl	0x8ac00 <_ZN2cv8fastFreeEPv@plt>
   4e5cc: 85 f1 00 94  	bl	0x8abe0 <_ZdlPv@plt>
   4e5d4: 83 f1 00 94  	bl	0x8abe0 <_ZdlPv@plt>
   4f08c: 15 ef 00 94  	bl	0x8ace0 <_ZNKSt3__120__vector_base_commonILb1EE20__throw_length_errorEv@plt>
   4f0fc: b9 ee 00 94  	bl	0x8abe0 <_ZdlPv@plt>
   4f11c: b1 ee 00 94  	bl	0x8abe0 <_ZdlPv@plt>
   4f148: a6 ee 00 94  	bl	0x8abe0 <_ZdlPv@plt>
   4f16c: 9d ee 00 94  	bl	0x8abe0 <_ZdlPv@plt>
   4f17c: 99 ee 00 94  	bl	0x8abe0 <_ZdlPv@plt>
   4f18c: 95 ee 00 94  	bl	0x8abe0 <_ZdlPv@plt>
   4f1b8: 8e ee 00 94  	bl	0x8abf0 <_ZN2cv3Mat10deallocateEv@plt>
   4f2b8: 52 ee 00 94  	bl	0x8ac00 <_ZN2cv8fastFreeEPv@plt>
   4f2cc: 45 ee 00 94  	bl	0x8abe0 <_ZdlPv@plt>
   4f2d4: 43 ee 00 94  	bl	0x8abe0 <_ZdlPv@plt>
   4f2e8: 3e ee 00 94  	bl	0x8abe0 <_ZdlPv@plt>
   4f308: 36 ee 00 14  	b	0x8abe0 <_ZdlPv@plt>
   4f378: fe ed 00 94  	bl	0x8ab70 <_Znwm@plt>
   4f3b4: ef ed 00 94  	bl	0x8ab70 <_Znwm@plt>
   4f60c: 75 ed 00 94  	bl	0x8abe0 <_ZdlPv@plt>
   4f658: 46 ed 00 94  	bl	0x8ab70 <_Znwm@plt>
   4f6dc: 41 ed 00 94  	bl	0x8abe0 <_ZdlPv@plt>
   4f724: 13 ed 00 94  	bl	0x8ab70 <_Znwm@plt>
   4f7bc: 49 ed 00 94  	bl	0x8ace0 <_ZNKSt3__120__vector_base_commonILb1EE20__throw_length_errorEv@plt>
   4f7c4: 47 ed 00 94  	bl	0x8ace0 <_ZNKSt3__120__vector_base_commonILb1EE20__throw_length_errorEv@plt>
   4f814: f3 ec 00 94  	bl	0x8abe0 <_ZdlPv@plt>
   4f824: ef ec 00 94  	bl	0x8abe0 <_ZdlPv@plt>
   4f87c: bd ec 00 94  	bl	0x8ab70 <_Znwm@plt>
   4f99c: ed ec 00 94  	bl	0x8ad50 <_ZN2cv3Mat8copySizeERKS0_@plt>
   4fe38: b2 eb 00 94  	bl	0x8ad00 <_ZN2cv3Mat6createEiPKii@plt>
   4fe90: 9c eb 00 94  	bl	0x8ad00 <_ZN2cv3Mat6createEiPKii@plt>
   4fec4: 4b eb 00 94  	bl	0x8abf0 <_ZN2cv3Mat10deallocateEv@plt>
   4ff50: 28 eb 00 94  	bl	0x8abf0 <_ZN2cv3Mat10deallocateEv@plt>
   4fffc: 01 eb 00 94  	bl	0x8ac00 <_ZN2cv8fastFreeEPv@plt>
   50170: a4 ea 00 94  	bl	0x8ac00 <_ZN2cv8fastFreeEPv@plt>
   501c0: 8c ea 00 94  	bl	0x8abf0 <_ZN2cv3Mat10deallocateEv@plt>
   50264: bb ea 00 94  	bl	0x8ad50 <_ZN2cv3Mat8copySizeERKS0_@plt>
   50324: 17 ea 00 94  	bl	0x8ab80 <_ZNSt3__119__shared_weak_count14__release_weakEv@plt>
   5038c: 19 ea 00 94  	bl	0x8abf0 <_ZN2cv3Mat10deallocateEv@plt>
   50488: de e9 00 94  	bl	0x8ac00 <_ZN2cv8fastFreeEPv@plt>
   504d4: ab e9 00 94  	bl	0x8ab80 <_ZNSt3__119__shared_weak_count14__release_weakEv@plt>
   50510: 9c e9 00 94  	bl	0x8ab80 <_ZNSt3__119__shared_weak_count14__release_weakEv@plt>
   50550: a8 e9 00 94  	bl	0x8abf0 <_ZN2cv3Mat10deallocateEv@plt>
   50650: 6c e9 00 94  	bl	0x8ac00 <_ZN2cv8fastFreeEPv@plt>
   50678: 5a e9 00 94  	bl	0x8abe0 <_ZdlPv@plt>
   50688: 56 e9 00 94  	bl	0x8abe0 <_ZdlPv@plt>
   506b4: 4f e9 00 94  	bl	0x8abf0 <_ZN2cv3Mat10deallocateEv@plt>
   507b4: 13 e9 00 94  	bl	0x8ac00 <_ZN2cv8fastFreeEPv@plt>
   507cc: 11 e9 00 94  	bl	0x8ac10 <_ZNSt3__15mutexD1Ev@plt>
   507d4: c7 e9 00 94  	bl	0x8aef0 <_ZNSt3__119__shared_weak_countD2Ev@plt>
   507dc: 01 e9 00 94  	bl	0x8abe0 <_ZdlPv@plt>
   5083c: cd e8 00 94  	bl	0x8ab70 <_Znwm@plt>
   50950: 00 e9 00 94  	bl	0x8ad50 <_ZN2cv3Mat8copySizeERKS0_@plt>
   509b4: d3 e8 00 94  	bl	0x8ad00 <_ZN2cv3Mat6createEiPKii@plt>
   509c0: 04 e9 00 94  	bl	0x8add0 <_ZN2cv3MataSERKNS_7Scalar_IdEE@plt>
   50a5c: a9 e8 00 94  	bl	0x8ad00 <_ZN2cv3Mat6createEiPKii@plt>
   50aac: 51 e8 00 94  	bl	0x8abf0 <_ZN2cv3Mat10deallocateEv@plt>
   50b50: 80 e8 00 94  	bl	0x8ad50 <_ZN2cv3Mat8copySizeERKS0_@plt>
   50de8: 66 e7 00 94  	bl	0x8ab80 <_ZNSt3__119__shared_weak_count14__release_weakEv@plt>
   50e64: 47 e7 00 94  	bl	0x8ab80 <_ZNSt3__119__shared_weak_count14__release_weakEv@plt>
   50ea0: 38 e7 00 94  	bl	0x8ab80 <_ZNSt3__119__shared_weak_count14__release_weakEv@plt>
   50ee0: 44 e7 00 94  	bl	0x8abf0 <_ZN2cv3Mat10deallocateEv@plt>
   50fdc: 09 e7 00 94  	bl	0x8ac00 <_ZN2cv8fastFreeEPv@plt>
   51008: fa e6 00 94  	bl	0x8abf0 <_ZN2cv3Mat10deallocateEv@plt>
   5110c: bd e6 00 94  	bl	0x8ac00 <_ZN2cv8fastFreeEPv@plt>
   51148: aa e6 00 94  	bl	0x8abf0 <_ZN2cv3Mat10deallocateEv@plt>
   51248: 6e e6 00 94  	bl	0x8ac00 <_ZN2cv8fastFreeEPv@plt>
   51260: 6c e6 00 94  	bl	0x8ac10 <_ZNSt3__15mutexD1Ev@plt>
   51268: 22 e7 00 94  	bl	0x8aef0 <_ZNSt3__119__shared_weak_countD2Ev@plt>
   51270: 5c e6 00 94  	bl	0x8abe0 <_ZdlPv@plt>
   512c8: 2a e6 00 94  	bl	0x8ab70 <_Znwm@plt>
   51400: 54 e6 00 94  	bl	0x8ad50 <_ZN2cv3Mat8copySizeERKS0_@plt>
   514b0: 14 e6 00 94  	bl	0x8ad00 <_ZN2cv3Mat6createEiPKii@plt>
   51508: fe e5 00 94  	bl	0x8ad00 <_ZN2cv3Mat6createEiPKii@plt>
   51558: a6 e5 00 94  	bl	0x8abf0 <_ZN2cv3Mat10deallocateEv@plt>
   51600: d4 e5 00 94  	bl	0x8ad50 <_ZN2cv3Mat8copySizeERKS0_@plt>
   51920: 98 e4 00 94  	bl	0x8ab80 <_ZNSt3__119__shared_weak_count14__release_weakEv@plt>
   51998: 7a e4 00 94  	bl	0x8ab80 <_ZNSt3__119__shared_weak_count14__release_weakEv@plt>
   519d4: 6b e4 00 94  	bl	0x8ab80 <_ZNSt3__119__shared_weak_count14__release_weakEv@plt>
   51a1c: 75 e4 00 94  	bl	0x8abf0 <_ZN2cv3Mat10deallocateEv@plt>
   51b10: 3c e4 00 94  	bl	0x8ac00 <_ZN2cv8fastFreeEPv@plt>
   51b3c: 2d e4 00 94  	bl	0x8abf0 <_ZN2cv3Mat10deallocateEv@plt>
   51c40: f0 e3 00 94  	bl	0x8ac00 <_ZN2cv8fastFreeEPv@plt>
   51c6c: e1 e3 00 94  	bl	0x8abf0 <_ZN2cv3Mat10deallocateEv@plt>
   51d70: a4 e3 00 94  	bl	0x8ac00 <_ZN2cv8fastFreeEPv@plt>
   51d88: a2 e3 00 94  	bl	0x8ac10 <_ZNSt3__15mutexD1Ev@plt>
   51d90: 58 e4 00 94  	bl	0x8aef0 <_ZNSt3__119__shared_weak_countD2Ev@plt>
   51d98: 92 e3 00 94  	bl	0x8abe0 <_ZdlPv@plt>
   51de0: 44 e4 00 14  	b	0x8aef0 <_ZNSt3__119__shared_weak_countD2Ev@plt>
   51e10: 38 e4 00 94  	bl	0x8aef0 <_ZNSt3__119__shared_weak_countD2Ev@plt>
   51e20: 70 e3 00 14  	b	0x8abe0 <_ZdlPv@plt>
   51e38: 6a e3 00 14  	b	0x8abe0 <_ZdlPv@plt>
   51e88: 5a e3 00 94  	bl	0x8abf0 <_ZN2cv3Mat10deallocateEv@plt>
   51f84: 1f e3 00 94  	bl	0x8ac00 <_ZN2cv8fastFreeEPv@plt>
   51f94: 13 e3 00 94  	bl	0x8abe0 <_ZdlPv@plt>
   51fa4: 0f e3 00 94  	bl	0x8abe0 <_ZdlPv@plt>
   51fd0: 08 e3 00 94  	bl	0x8abf0 <_ZN2cv3Mat10deallocateEv@plt>
   520cc: cd e2 00 94  	bl	0x8ac00 <_ZN2cv8fastFreeEPv@plt>
   520ec: c9 e2 00 14  	b	0x8ac10 <_ZNSt3__15mutexD1Ev@plt>
   52118: b2 e2 00 14  	b	0x8abe0 <_ZdlPv@plt>
   521f4: 5f e2 00 94  	bl	0x8ab70 <_Znwm@plt>
   52280: 58 e2 00 14  	b	0x8abe0 <_ZdlPv@plt>
   522a8: 8e e2 00 94  	bl	0x8ace0 <_ZNKSt3__120__vector_base_commonILb1EE20__throw_length_errorEv@plt>
   5231c: 15 e2 00 94  	bl	0x8ab70 <_Znwm@plt>
   523a8: 0e e2 00 14  	b	0x8abe0 <_ZdlPv@plt>
   523d0: 44 e2 00 94  	bl	0x8ace0 <_ZNKSt3__120__vector_base_commonILb1EE20__throw_length_errorEv@plt>
   52408: ba e2 00 14  	b	0x8aef0 <_ZNSt3__119__shared_weak_countD2Ev@plt>
   52438: ae e2 00 94  	bl	0x8aef0 <_ZNSt3__119__shared_weak_countD2Ev@plt>
   52448: e6 e1 00 14  	b	0x8abe0 <_ZdlPv@plt>
   52460: e0 e1 00 14  	b	0x8abe0 <_ZdlPv@plt>
   524b0: d0 e1 00 94  	bl	0x8abf0 <_ZN2cv3Mat10deallocateEv@plt>
   525a8: 96 e1 00 94  	bl	0x8ac00 <_ZN2cv8fastFreeEPv@plt>
   525d4: 87 e1 00 94  	bl	0x8abf0 <_ZN2cv3Mat10deallocateEv@plt>
   526d0: 4c e1 00 94  	bl	0x8ac00 <_ZN2cv8fastFreeEPv@plt>
   526fc: 3d e1 00 94  	bl	0x8abf0 <_ZN2cv3Mat10deallocateEv@plt>
   527f8: 02 e1 00 94  	bl	0x8ac00 <_ZN2cv8fastFreeEPv@plt>
   52818: fe e0 00 14  	b	0x8ac10 <_ZNSt3__15mutexD1Ev@plt>
   52848: e6 e0 00 14  	b	0x8abe0 <_ZdlPv@plt>
   529b8: 4e e1 00 14  	b	0x8aef0 <_ZNSt3__119__shared_weak_countD2Ev@plt>
   529e8: 42 e1 00 94  	bl	0x8aef0 <_ZNSt3__119__shared_weak_countD2Ev@plt>
   529f8: 7a e0 00 14  	b	0x8abe0 <_ZdlPv@plt>
   52a10: 74 e0 00 14  	b	0x8abe0 <_ZdlPv@plt>
   52a60: 64 e0 00 94  	bl	0x8abf0 <_ZN2cv3Mat10deallocateEv@plt>
   52b64: 27 e0 00 94  	bl	0x8ac00 <_ZN2cv8fastFreeEPv@plt>
   52b90: 18 e0 00 94  	bl	0x8abf0 <_ZN2cv3Mat10deallocateEv@plt>
   52c8c: dd df 00 94  	bl	0x8ac00 <_ZN2cv8fastFreeEPv@plt>
   52cb8: ce df 00 94  	bl	0x8abf0 <_ZN2cv3Mat10deallocateEv@plt>
   52db4: 93 df 00 94  	bl	0x8ac00 <_ZN2cv8fastFreeEPv@plt>
   52dd4: 8f df 00 14  	b	0x8ac10 <_ZNSt3__15mutexD1Ev@plt>
   52e08: 76 df 00 14  	b	0x8abe0 <_ZdlPv@plt>
   53f88: da db 00 14  	b	0x8aef0 <_ZNSt3__119__shared_weak_countD2Ev@plt>
   53fb8: ce db 00 94  	bl	0x8aef0 <_ZNSt3__119__shared_weak_countD2Ev@plt>
   53fc8: 06 db 00 14  	b	0x8abe0 <_ZdlPv@plt>
   53fe0: 00 db 00 14  	b	0x8abe0 <_ZdlPv@plt>
   54030: f0 da 00 94  	bl	0x8abf0 <_ZN2cv3Mat10deallocateEv@plt>
   54128: b6 da 00 94  	bl	0x8ac00 <_ZN2cv8fastFreeEPv@plt>
   54154: a7 da 00 94  	bl	0x8abf0 <_ZN2cv3Mat10deallocateEv@plt>
   5424c: 6d da 00 94  	bl	0x8ac00 <_ZN2cv8fastFreeEPv@plt>
   54278: 5e da 00 94  	bl	0x8abf0 <_ZN2cv3Mat10deallocateEv@plt>
   54370: 24 da 00 94  	bl	0x8ac00 <_ZN2cv8fastFreeEPv@plt>
   54380: 18 da 00 94  	bl	0x8abe0 <_ZdlPv@plt>
   543ac: 11 da 00 94  	bl	0x8abf0 <_ZN2cv3Mat10deallocateEv@plt>
   544a8: d6 d9 00 94  	bl	0x8ac00 <_ZN2cv8fastFreeEPv@plt>
   544d4: c7 d9 00 94  	bl	0x8abf0 <_ZN2cv3Mat10deallocateEv@plt>
   545d0: 8c d9 00 94  	bl	0x8ac00 <_ZN2cv8fastFreeEPv@plt>
   545f0: 88 d9 00 14  	b	0x8ac10 <_ZNSt3__15mutexD1Ev@plt>
   54628: 6e d9 00 14  	b	0x8abe0 <_ZdlPv@plt>
   54c48: aa d8 00 14  	b	0x8aef0 <_ZNSt3__119__shared_weak_countD2Ev@plt>
   54c78: 9e d8 00 94  	bl	0x8aef0 <_ZNSt3__119__shared_weak_countD2Ev@plt>
   54c88: d6 d7 00 14  	b	0x8abe0 <_ZdlPv@plt>
   54ca0: d0 d7 00 14  	b	0x8abe0 <_ZdlPv@plt>
   54cf0: c0 d7 00 94  	bl	0x8abf0 <_ZN2cv3Mat10deallocateEv@plt>
   54dec: 85 d7 00 94  	bl	0x8ac00 <_ZN2cv8fastFreeEPv@plt>
   54e18: 76 d7 00 94  	bl	0x8abf0 <_ZN2cv3Mat10deallocateEv@plt>
   54f14: 3b d7 00 94  	bl	0x8ac00 <_ZN2cv8fastFreeEPv@plt>
   54f34: 37 d7 00 14  	b	0x8ac10 <_ZNSt3__15mutexD1Ev@plt>
   54f60: 20 d7 00 14  	b	0x8abe0 <_ZdlPv@plt>
   551dc: 65 d6 00 94  	bl	0x8ab70 <_Znwm@plt>
   5526c: 5d d6 00 14  	b	0x8abe0 <_ZdlPv@plt>
   5529c: 91 d6 00 94  	bl	0x8ace0 <_ZNKSt3__120__vector_base_commonILb1EE20__throw_length_errorEv@plt>
   5532c: 11 d6 00 94  	bl	0x8ab70 <_Znwm@plt>
   553bc: 09 d6 00 14  	b	0x8abe0 <_ZdlPv@plt>
   553ec: 3d d6 00 94  	bl	0x8ace0 <_ZNKSt3__120__vector_base_commonILb1EE20__throw_length_errorEv@plt>
   55590: 98 d5 00 94  	bl	0x8abf0 <_ZN2cv3Mat10deallocateEv@plt>
   555d8: 8a d5 00 94  	bl	0x8ac00 <_ZN2cv8fastFreeEPv@plt>
   55668: 62 d5 00 94  	bl	0x8abf0 <_ZN2cv3Mat10deallocateEv@plt>
   556b0: 54 d5 00 94  	bl	0x8ac00 <_ZN2cv8fastFreeEPv@plt>
   55744: 2b d6 00 94  	bl	0x8aff0 <_ZNK2cv12_OutputArray6createENS_5Size_IiEEiibNS0_9DepthMaskE@plt>
   5574c: 21 d6 00 94  	bl	0x8afd0 <_ZNK2cv11_InputArray4kindEv@plt>
   55808: fa d4 00 94  	bl	0x8abf0 <_ZN2cv3Mat10deallocateEv@plt>
   55850: ec d4 00 94  	bl	0x8ac00 <_ZN2cv8fastFreeEPv@plt>
   55864: df d5 00 94  	bl	0x8afe0 <_ZNK2cv11_InputArray7getMat_Ei@plt>
   55874: 37 d5 00 94  	bl	0x8ad50 <_ZN2cv3Mat8copySizeERKS0_@plt>
   558a0: d4 d4 00 94  	bl	0x8abf0 <_ZN2cv3Mat10deallocateEv@plt>
   559ac: 95 d4 00 94  	bl	0x8ac00 <_ZN2cv8fastFreeEPv@plt>
   55a10: 7c d4 00 94  	bl	0x8ac00 <_ZN2cv8fastFreeEPv@plt>
   55ac0: 4c d5 00 94  	bl	0x8aff0 <_ZNK2cv12_OutputArray6createENS_5Size_IiEEiibNS0_9DepthMaskE@plt>
   55ac8: 42 d5 00 94  	bl	0x8afd0 <_ZNK2cv11_InputArray4kindEv@plt>
   55b58: 22 d5 00 94  	bl	0x8afe0 <_ZNK2cv11_InputArray7getMat_Ei@plt>
   55b68: 7a d4 00 94  	bl	0x8ad50 <_ZN2cv3Mat8copySizeERKS0_@plt>
   55b94: 17 d4 00 94  	bl	0x8abf0 <_ZN2cv3Mat10deallocateEv@plt>
   55c9c: d9 d3 00 94  	bl	0x8ac00 <_ZN2cv8fastFreeEPv@plt>
   55d00: c0 d3 00 94  	bl	0x8ac00 <_ZN2cv8fastFreeEPv@plt>
   55d58: 86 d3 00 94  	bl	0x8ab70 <_Znwm@plt>
   55eb8: a6 d3 00 94  	bl	0x8ad50 <_ZN2cv3Mat8copySizeERKS0_@plt>
   55f68: 7a d3 00 94  	bl	0x8ad50 <_ZN2cv3Mat8copySizeERKS0_@plt>
   5604c: 2d d3 00 94  	bl	0x8ad00 <_ZN2cv3Mat6createEiPKii@plt>
   560f0: 04 d3 00 94  	bl	0x8ad00 <_ZN2cv3Mat6createEiPKii@plt>
   561b8: 8e d2 00 94  	bl	0x8abf0 <_ZN2cv3Mat10deallocateEv@plt>
   562d8: 4a d2 00 94  	bl	0x8ac00 <_ZN2cv8fastFreeEPv@plt>
   56344: 6f d2 00 94  	bl	0x8ad00 <_ZN2cv3Mat6createEiPKii@plt>
   563a4: 57 d2 00 94  	bl	0x8ad00 <_ZN2cv3Mat6createEiPKii@plt>
   5640c: d9 d1 00 94  	bl	0x8ab70 <_Znwm@plt>
   56460: e0 d1 00 94  	bl	0x8abe0 <_ZdlPv@plt>
   56744: 0f d1 00 94  	bl	0x8ab80 <_ZNSt3__119__shared_weak_count14__release_weakEv@plt>
   56770: 04 d1 00 94  	bl	0x8ab80 <_ZNSt3__119__shared_weak_count14__release_weakEv@plt>
   56804: 63 d1 00 94  	bl	0x8ad90 <_ZNSt3__118condition_variableD1Ev@plt>
   5680c: 01 d1 00 94  	bl	0x8ac10 <_ZNSt3__15mutexD1Ev@plt>
   5686c: c5 d0 00 94  	bl	0x8ab80 <_ZNSt3__119__shared_weak_count14__release_weakEv@plt>
   56890: d4 d0 00 94  	bl	0x8abe0 <_ZdlPv@plt>
   568bc: cd d0 00 94  	bl	0x8abf0 <_ZN2cv3Mat10deallocateEv@plt>
   569d4: 8b d0 00 94  	bl	0x8ac00 <_ZN2cv8fastFreeEPv@plt>
   56a00: 7c d0 00 94  	bl	0x8abf0 <_ZN2cv3Mat10deallocateEv@plt>
   56b00: 40 d0 00 94  	bl	0x8ac00 <_ZN2cv8fastFreeEPv@plt>
   56b58: 26 d0 00 94  	bl	0x8abf0 <_ZN2cv3Mat10deallocateEv@plt>
   56ba0: 18 d0 00 94  	bl	0x8ac00 <_ZN2cv8fastFreeEPv@plt>
   56bd4: 03 d0 00 94  	bl	0x8abe0 <_ZdlPv@plt>
   56c2c: f1 cf 00 94  	bl	0x8abf0 <_ZN2cv3Mat10deallocateEv@plt>
   56c74: e3 cf 00 94  	bl	0x8ac00 <_ZN2cv8fastFreeEPv@plt>
   56ca8: ce cf 00 94  	bl	0x8abe0 <_ZdlPv@plt>
   56d00: bc cf 00 94  	bl	0x8abf0 <_ZN2cv3Mat10deallocateEv@plt>
   56d48: ae cf 00 94  	bl	0x8ac00 <_ZN2cv8fastFreeEPv@plt>
   56d7c: 99 cf 00 94  	bl	0x8abe0 <_ZdlPv@plt>
   56e14: 77 cf 00 94  	bl	0x8abf0 <_ZN2cv3Mat10deallocateEv@plt>
   56f14: 3b cf 00 94  	bl	0x8ac00 <_ZN2cv8fastFreeEPv@plt>
   56f4c: 29 cf 00 94  	bl	0x8abf0 <_ZN2cv3Mat10deallocateEv@plt>
   5704c: ed ce 00 94  	bl	0x8ac00 <_ZN2cv8fastFreeEPv@plt>
   57090: bc ce 00 94  	bl	0x8ab80 <_ZNSt3__119__shared_weak_count14__release_weakEv@plt>
   570bc: b1 ce 00 94  	bl	0x8ab80 <_ZNSt3__119__shared_weak_count14__release_weakEv@plt>
   571b4: 8f ce 00 94  	bl	0x8abf0 <_ZN2cv3Mat10deallocateEv@plt>
   572a0: 58 ce 00 94  	bl	0x8ac00 <_ZN2cv8fastFreeEPv@plt>
   572e4: 43 ce 00 94  	bl	0x8abf0 <_ZN2cv3Mat10deallocateEv@plt>
   573e0: 08 ce 00 94  	bl	0x8ac00 <_ZN2cv8fastFreeEPv@plt>
   5740c: f9 cd 00 94  	bl	0x8abf0 <_ZN2cv3Mat10deallocateEv@plt>
   57508: be cd 00 94  	bl	0x8ac00 <_ZN2cv8fastFreeEPv@plt>
   57534: af cd 00 94  	bl	0x8abf0 <_ZN2cv3Mat10deallocateEv@plt>
   57630: 74 cd 00 94  	bl	0x8ac00 <_ZN2cv8fastFreeEPv@plt>
   5765c: 65 cd 00 94  	bl	0x8abf0 <_ZN2cv3Mat10deallocateEv@plt>
   57758: 2a cd 00 94  	bl	0x8ac00 <_ZN2cv8fastFreeEPv@plt>
   57784: 1b cd 00 94  	bl	0x8abf0 <_ZN2cv3Mat10deallocateEv@plt>
   57884: df cc 00 94  	bl	0x8ac00 <_ZN2cv8fastFreeEPv@plt>
   578e0: c4 cc 00 94  	bl	0x8abf0 <_ZN2cv3Mat10deallocateEv@plt>
   57928: b6 cc 00 94  	bl	0x8ac00 <_ZN2cv8fastFreeEPv@plt>
   57960: a0 cc 00 94  	bl	0x8abe0 <_ZdlPv@plt>
   57984: 97 cc 00 94  	bl	0x8abe0 <_ZdlPv@plt>
   579e0: 84 cc 00 94  	bl	0x8abf0 <_ZN2cv3Mat10deallocateEv@plt>
   57a28: 76 cc 00 94  	bl	0x8ac00 <_ZN2cv8fastFreeEPv@plt>
   57a60: 60 cc 00 94  	bl	0x8abe0 <_ZdlPv@plt>
   57abc: 4d cc 00 94  	bl	0x8abf0 <_ZN2cv3Mat10deallocateEv@plt>
   57b04: 3f cc 00 94  	bl	0x8ac00 <_ZN2cv8fastFreeEPv@plt>
   57b3c: 29 cc 00 94  	bl	0x8abe0 <_ZdlPv@plt>
   57b98: 16 cc 00 94  	bl	0x8abf0 <_ZN2cv3Mat10deallocateEv@plt>
   57be0: 08 cc 00 94  	bl	0x8ac00 <_ZN2cv8fastFreeEPv@plt>
   57c18: f2 cb 00 94  	bl	0x8abe0 <_ZdlPv@plt>
   57c34: f7 cb 00 94  	bl	0x8ac10 <_ZNSt3__15mutexD1Ev@plt>
   57c3c: ad cc 00 94  	bl	0x8aef0 <_ZNSt3__119__shared_weak_countD2Ev@plt>
   57c44: e7 cb 00 94  	bl	0x8abe0 <_ZdlPv@plt>
   57c50: 50 cc 00 94  	bl	0x8ad90 <_ZNSt3__118condition_variableD1Ev@plt>
   57c58: ee cb 00 94  	bl	0x8ac10 <_ZNSt3__15mutexD1Ev@plt>
   57cb8: b2 cb 00 94  	bl	0x8ab80 <_ZNSt3__119__shared_weak_count14__release_weakEv@plt>
   57cdc: c1 cb 00 94  	bl	0x8abe0 <_ZdlPv@plt>
   57d08: ba cb 00 94  	bl	0x8abf0 <_ZN2cv3Mat10deallocateEv@plt>
   57e04: 7f cb 00 94  	bl	0x8ac00 <_ZN2cv8fastFreeEPv@plt>
   57e30: 70 cb 00 94  	bl	0x8abf0 <_ZN2cv3Mat10deallocateEv@plt>
   57f2c: 35 cb 00 94  	bl	0x8ac00 <_ZN2cv8fastFreeEPv@plt>
   57f84: 1b cb 00 94  	bl	0x8abf0 <_ZN2cv3Mat10deallocateEv@plt>
   57fcc: 0d cb 00 94  	bl	0x8ac00 <_ZN2cv8fastFreeEPv@plt>
   58000: f8 ca 00 94  	bl	0x8abe0 <_ZdlPv@plt>
   58058: e6 ca 00 94  	bl	0x8abf0 <_ZN2cv3Mat10deallocateEv@plt>
   580a0: d8 ca 00 94  	bl	0x8ac00 <_ZN2cv8fastFreeEPv@plt>
   580d4: c3 ca 00 94  	bl	0x8abe0 <_ZdlPv@plt>
   5812c: b1 ca 00 94  	bl	0x8abf0 <_ZN2cv3Mat10deallocateEv@plt>
   58174: a3 ca 00 94  	bl	0x8ac00 <_ZN2cv8fastFreeEPv@plt>
   581ac: 8d ca 00 94  	bl	0x8abe0 <_ZdlPv@plt>
   58244: 4b ca 00 94  	bl	0x8ab70 <_Znwm@plt>
   58344: 83 ca 00 94  	bl	0x8ad50 <_ZN2cv3Mat8copySizeERKS0_@plt>
   58350: 64 ca 00 94  	bl	0x8ace0 <_ZNKSt3__120__vector_base_commonILb1EE20__throw_length_errorEv@plt>
   583b0: 10 ca 00 94  	bl	0x8abf0 <_ZN2cv3Mat10deallocateEv@plt>
   583f8: 02 ca 00 94  	bl	0x8ac00 <_ZN2cv8fastFreeEPv@plt>
   58428: ee c9 00 94  	bl	0x8abe0 <_ZdlPv@plt>
   58468: a2 ca 00 14  	b	0x8aef0 <_ZNSt3__119__shared_weak_countD2Ev@plt>
   58498: 96 ca 00 94  	bl	0x8aef0 <_ZNSt3__119__shared_weak_countD2Ev@plt>
   584a8: ce c9 00 14  	b	0x8abe0 <_ZdlPv@plt>
   584c0: c8 c9 00 14  	b	0x8abe0 <_ZdlPv@plt>
   58514: b7 c9 00 94  	bl	0x8abf0 <_ZN2cv3Mat10deallocateEv@plt>
   58618: 7a c9 00 94  	bl	0x8ac00 <_ZN2cv8fastFreeEPv@plt>
   58644: 6b c9 00 94  	bl	0x8abf0 <_ZN2cv3Mat10deallocateEv@plt>
   58748: 2e c9 00 94  	bl	0x8ac00 <_ZN2cv8fastFreeEPv@plt>
   58774: 1f c9 00 94  	bl	0x8abf0 <_ZN2cv3Mat10deallocateEv@plt>
   58878: e2 c8 00 94  	bl	0x8ac00 <_ZN2cv8fastFreeEPv@plt>
   588a4: d3 c8 00 94  	bl	0x8abf0 <_ZN2cv3Mat10deallocateEv@plt>
   5899c: 99 c8 00 94  	bl	0x8ac00 <_ZN2cv8fastFreeEPv@plt>
   589c8: 8a c8 00 94  	bl	0x8abf0 <_ZN2cv3Mat10deallocateEv@plt>
   58ac4: 4f c8 00 94  	bl	0x8ac00 <_ZN2cv8fastFreeEPv@plt>
   58b1c: 35 c8 00 94  	bl	0x8abf0 <_ZN2cv3Mat10deallocateEv@plt>
   58b64: 27 c8 00 94  	bl	0x8ac00 <_ZN2cv8fastFreeEPv@plt>
   58b98: 12 c8 00 94  	bl	0x8abe0 <_ZdlPv@plt>
   58bbc: 09 c8 00 94  	bl	0x8abe0 <_ZdlPv@plt>
   58c14: f7 c7 00 94  	bl	0x8abf0 <_ZN2cv3Mat10deallocateEv@plt>
   58c5c: e9 c7 00 94  	bl	0x8ac00 <_ZN2cv8fastFreeEPv@plt>
   58c90: d4 c7 00 94  	bl	0x8abe0 <_ZdlPv@plt>
   58ce8: c2 c7 00 94  	bl	0x8abf0 <_ZN2cv3Mat10deallocateEv@plt>
   58d30: b4 c7 00 94  	bl	0x8ac00 <_ZN2cv8fastFreeEPv@plt>
   58d64: 9f c7 00 94  	bl	0x8abe0 <_ZdlPv@plt>
   58dbc: 8d c7 00 94  	bl	0x8abf0 <_ZN2cv3Mat10deallocateEv@plt>
   58e04: 7f c7 00 94  	bl	0x8ac00 <_ZN2cv8fastFreeEPv@plt>
   58e38: 6a c7 00 94  	bl	0x8abe0 <_ZdlPv@plt>
   58e5c: 6d c7 00 14  	b	0x8ac10 <_ZNSt3__15mutexD1Ev@plt>
   58ea8: 4e c7 00 14  	b	0x8abe0 <_ZdlPv@plt>
   58ff8: de c6 00 94  	bl	0x8ab70 <_Znwm@plt>
   59320: 8c c6 00 94  	bl	0x8ad50 <_ZN2cv3Mat8copySizeERKS0_@plt>
   59384: 17 c6 00 14  	b	0x8abe0 <_ZdlPv@plt>
   593c0: 0c c6 00 94  	bl	0x8abf0 <_ZN2cv3Mat10deallocateEv@plt>
   59408: fe c5 00 94  	bl	0x8ac00 <_ZN2cv8fastFreeEPv@plt>
   5944c: 25 c6 00 94  	bl	0x8ace0 <_ZNKSt3__120__vector_base_commonILb1EE20__throw_length_errorEv@plt>
   594a4: d3 c5 00 94  	bl	0x8abf0 <_ZN2cv3Mat10deallocateEv@plt>
   594ec: c5 c5 00 94  	bl	0x8ac00 <_ZN2cv8fastFreeEPv@plt>
   59514: b3 c5 00 94  	bl	0x8abe0 <_ZdlPv@plt>
   5b2a4: 4f be 00 94  	bl	0x8abe0 <_ZdlPv@plt>
   5b320: 30 be 00 94  	bl	0x8abe0 <_ZdlPv@plt>
   5b348: 26 be 00 94  	bl	0x8abe0 <_ZdlPv@plt>
   5b358: 22 be 00 94  	bl	0x8abe0 <_ZdlPv@plt>
   5b384: 1b be 00 94  	bl	0x8abf0 <_ZN2cv3Mat10deallocateEv@plt>
   5b478: e2 bd 00 94  	bl	0x8ac00 <_ZN2cv8fastFreeEPv@plt>
   5b4a4: d3 bd 00 94  	bl	0x8abf0 <_ZN2cv3Mat10deallocateEv@plt>
   5b598: 9a bd 00 94  	bl	0x8ac00 <_ZN2cv8fastFreeEPv@plt>
   5b5c4: 8b bd 00 94  	bl	0x8abf0 <_ZN2cv3Mat10deallocateEv@plt>
   5b6c0: 50 bd 00 94  	bl	0x8ac00 <_ZN2cv8fastFreeEPv@plt>
   5b6ec: 41 bd 00 94  	bl	0x8abf0 <_ZN2cv3Mat10deallocateEv@plt>
   5b7e8: 06 bd 00 94  	bl	0x8ac00 <_ZN2cv8fastFreeEPv@plt>
   5b884: d3 bd 00 94  	bl	0x8afd0 <_ZNK2cv11_InputArray4kindEv@plt>
   5b914: b3 bd 00 94  	bl	0x8afe0 <_ZNK2cv11_InputArray7getMat_Ei@plt>
   5b924: 0b bd 00 94  	bl	0x8ad50 <_ZN2cv3Mat8copySizeERKS0_@plt>
   5b93c: a5 bd 00 94  	bl	0x8afd0 <_ZNK2cv11_InputArray4kindEv@plt>
   5b9cc: 85 bd 00 94  	bl	0x8afe0 <_ZNK2cv11_InputArray7getMat_Ei@plt>
   5b9dc: dd bc 00 94  	bl	0x8ad50 <_ZN2cv3Mat8copySizeERKS0_@plt>
   5b9f4: 77 bd 00 94  	bl	0x8afd0 <_ZNK2cv11_InputArray4kindEv@plt>
   5ba90: 54 bd 00 94  	bl	0x8afe0 <_ZNK2cv11_InputArray7getMat_Ei@plt>
   5baa0: ac bc 00 94  	bl	0x8ad50 <_ZN2cv3Mat8copySizeERKS0_@plt>
   5bad4: 47 bd 00 94  	bl	0x8aff0 <_ZNK2cv12_OutputArray6createENS_5Size_IiEEiibNS0_9DepthMaskE@plt>
   5baec: 39 bd 00 94  	bl	0x8afd0 <_ZNK2cv11_InputArray4kindEv@plt>
   5bb7c: 19 bd 00 94  	bl	0x8afe0 <_ZNK2cv11_InputArray7getMat_Ei@plt>
   5bb8c: 71 bc 00 94  	bl	0x8ad50 <_ZN2cv3Mat8copySizeERKS0_@plt>
   5bba4: 0b bd 00 94  	bl	0x8afd0 <_ZNK2cv11_InputArray4kindEv@plt>
   5bc34: eb bc 00 94  	bl	0x8afe0 <_ZNK2cv11_InputArray7getMat_Ei@plt>
   5bc44: 43 bc 00 94  	bl	0x8ad50 <_ZN2cv3Mat8copySizeERKS0_@plt>
   5bc48: fa bb 00 94  	bl	0x8ac30 <_ZN2cv12getTickCountEv@plt>
   5bc80: ec bb 00 94  	bl	0x8ac30 <_ZN2cv12getTickCountEv@plt>
   5bc8c: 51 bd 00 94  	bl	0x8b1d0 <_ZNK2cv11_InputArray5emptyEv@plt>
   5bcdc: 29 bc 00 94  	bl	0x8ad80 <_ZNK2cv3Mat6copyToERKNS_12_OutputArrayE@plt>
   5bcf4: 23 bc 00 94  	bl	0x8ad80 <_ZNK2cv3Mat6copyToERKNS_12_OutputArrayE@plt>
   5bd0c: b1 bc 00 94  	bl	0x8afd0 <_ZNK2cv11_InputArray4kindEv@plt>
   5bd9c: 91 bc 00 94  	bl	0x8afe0 <_ZNK2cv11_InputArray7getMat_Ei@plt>
   5bdac: e9 bb 00 94  	bl	0x8ad50 <_ZN2cv3Mat8copySizeERKS0_@plt>
   5bdd8: 86 bc 00 94  	bl	0x8aff0 <_ZNK2cv12_OutputArray6createENS_5Size_IiEEiibNS0_9DepthMaskE@plt>
   5bdf0: 78 bc 00 94  	bl	0x8afd0 <_ZNK2cv11_InputArray4kindEv@plt>
   5be80: 58 bc 00 94  	bl	0x8afe0 <_ZNK2cv11_InputArray7getMat_Ei@plt>
   5be90: b0 bb 00 94  	bl	0x8ad50 <_ZN2cv3Mat8copySizeERKS0_@plt>
   5bee4: 43 bb 00 94  	bl	0x8abf0 <_ZN2cv3Mat10deallocateEv@plt>
   5bfe4: 07 bb 00 94  	bl	0x8ac00 <_ZN2cv8fastFreeEPv@plt>
   5c010: f8 ba 00 94  	bl	0x8abf0 <_ZN2cv3Mat10deallocateEv@plt>
   5c110: bc ba 00 94  	bl	0x8ac00 <_ZN2cv8fastFreeEPv@plt>
   5c13c: ad ba 00 94  	bl	0x8abf0 <_ZN2cv3Mat10deallocateEv@plt>
   5c234: 73 ba 00 94  	bl	0x8ac00 <_ZN2cv8fastFreeEPv@plt>
   5c238: 7e ba 00 94  	bl	0x8ac30 <_ZN2cv12getTickCountEv@plt>
   5c248: 9a ba 00 94  	bl	0x8acb0 <_ZN2cv16getTickFrequencyEv@plt>
   5c28c: 89 ba 00 94  	bl	0x8acb0 <_ZN2cv16getTickFrequencyEv@plt>
   5c2d0: 78 ba 00 94  	bl	0x8acb0 <_ZN2cv16getTickFrequencyEv@plt>
   5c334: 2f ba 00 94  	bl	0x8abf0 <_ZN2cv3Mat10deallocateEv@plt>
   5c434: f3 b9 00 94  	bl	0x8ac00 <_ZN2cv8fastFreeEPv@plt>
   5c460: e4 b9 00 94  	bl	0x8abf0 <_ZN2cv3Mat10deallocateEv@plt>
   5c560: a8 b9 00 94  	bl	0x8ac00 <_ZN2cv8fastFreeEPv@plt>
   5c58c: 99 b9 00 94  	bl	0x8abf0 <_ZN2cv3Mat10deallocateEv@plt>
   5c68c: 5d b9 00 94  	bl	0x8ac00 <_ZN2cv8fastFreeEPv@plt>
   5c6b8: 4e b9 00 94  	bl	0x8abf0 <_ZN2cv3Mat10deallocateEv@plt>
   5c7b8: 12 b9 00 94  	bl	0x8ac00 <_ZN2cv8fastFreeEPv@plt>
   5c7e4: 03 b9 00 94  	bl	0x8abf0 <_ZN2cv3Mat10deallocateEv@plt>
   5c8e4: c7 b8 00 94  	bl	0x8ac00 <_ZN2cv8fastFreeEPv@plt>
   5c964: a3 b8 00 94  	bl	0x8abf0 <_ZN2cv3Mat10deallocateEv@plt>
   5ca64: 67 b8 00 94  	bl	0x8ac00 <_ZN2cv8fastFreeEPv@plt>
   5caa8: 52 b8 00 94  	bl	0x8abf0 <_ZN2cv3Mat10deallocateEv@plt>
   5cba8: 16 b8 00 94  	bl	0x8ac00 <_ZN2cv8fastFreeEPv@plt>
   5cbe0: 04 b8 00 94  	bl	0x8abf0 <_ZN2cv3Mat10deallocateEv@plt>
   5ccd8: ca b7 00 94  	bl	0x8ac00 <_ZN2cv8fastFreeEPv@plt>
   5cd50: a8 b7 00 94  	bl	0x8abf0 <_ZN2cv3Mat10deallocateEv@plt>
   5ce50: 6c b7 00 94  	bl	0x8ac00 <_ZN2cv8fastFreeEPv@plt>
   5ce7c: 5d b7 00 94  	bl	0x8abf0 <_ZN2cv3Mat10deallocateEv@plt>
   5cf7c: 21 b7 00 94  	bl	0x8ac00 <_ZN2cv8fastFreeEPv@plt>
   5cfa8: 12 b7 00 94  	bl	0x8abf0 <_ZN2cv3Mat10deallocateEv@plt>
   5d0a8: d6 b6 00 94  	bl	0x8ac00 <_ZN2cv8fastFreeEPv@plt>
   5d0d4: c7 b6 00 94  	bl	0x8abf0 <_ZN2cv3Mat10deallocateEv@plt>
   5d1d4: 8b b6 00 94  	bl	0x8ac00 <_ZN2cv8fastFreeEPv@plt>
   5d200: 7c b6 00 94  	bl	0x8abf0 <_ZN2cv3Mat10deallocateEv@plt>
   5d300: 40 b6 00 94  	bl	0x8ac00 <_ZN2cv8fastFreeEPv@plt>
   5d37c: 2d b6 00 94  	bl	0x8ac30 <_ZN2cv12getTickCountEv@plt>
   5d41c: d5 b5 00 94  	bl	0x8ab70 <_Znwm@plt>
   5d548: 02 b6 00 94  	bl	0x8ad50 <_ZN2cv3Mat8copySizeERKS0_@plt>
   5d704: ab b5 00 94  	bl	0x8adb0 <_ZN2cv3MatC1ERKS0_RKNS_5Rect_IiEE@plt>
   5d738: 2e b5 00 94  	bl	0x8abf0 <_ZN2cv3Mat10deallocateEv@plt>
   5d7ec: 45 b5 00 94  	bl	0x8ad00 <_ZN2cv3Mat6createEiPKii@plt>
   5d83c: ed b4 00 94  	bl	0x8abf0 <_ZN2cv3Mat10deallocateEv@plt>
   5d8e4: 1b b5 00 94  	bl	0x8ad50 <_ZN2cv3Mat8copySizeERKS0_@plt>
   5d954: eb b4 00 94  	bl	0x8ad00 <_ZN2cv3Mat6createEiPKii@plt>
   5d9b4: d3 b4 00 94  	bl	0x8ad00 <_ZN2cv3Mat6createEiPKii@plt>
   5da1c: b9 b4 00 94  	bl	0x8ad00 <_ZN2cv3Mat6createEiPKii@plt>
   5dac0: 30 b4 00 94  	bl	0x8ab80 <_ZNSt3__119__shared_weak_count14__release_weakEv@plt>
   5daec: 25 b4 00 94  	bl	0x8ab80 <_ZNSt3__119__shared_weak_count14__release_weakEv@plt>
   5daf4: 1f b4 00 94  	bl	0x8ab70 <_Znwm@plt>
   5dc34: 47 b4 00 94  	bl	0x8ad50 <_ZN2cv3Mat8copySizeERKS0_@plt>
   5ddb0: 00 b4 00 94  	bl	0x8adb0 <_ZN2cv3MatC1ERKS0_RKNS_5Rect_IiEE@plt>
   5dde4: 83 b3 00 94  	bl	0x8abf0 <_ZN2cv3Mat10deallocateEv@plt>
   5de94: 9b b3 00 94  	bl	0x8ad00 <_ZN2cv3Mat6createEiPKii@plt>
   5dee4: 43 b3 00 94  	bl	0x8abf0 <_ZN2cv3Mat10deallocateEv@plt>
   5df8c: 71 b3 00 94  	bl	0x8ad50 <_ZN2cv3Mat8copySizeERKS0_@plt>
   5dff4: 43 b3 00 94  	bl	0x8ad00 <_ZN2cv3Mat6createEiPKii@plt>
   5e04c: 2d b3 00 94  	bl	0x8ad00 <_ZN2cv3Mat6createEiPKii@plt>
   5e0f4: a3 b2 00 94  	bl	0x8ab80 <_ZNSt3__119__shared_weak_count14__release_weakEv@plt>
   5e120: 98 b2 00 94  	bl	0x8ab80 <_ZNSt3__119__shared_weak_count14__release_weakEv@plt>
   5e198: 7a b2 00 94  	bl	0x8ab80 <_ZNSt3__119__shared_weak_count14__release_weakEv@plt>
   5e1a0: 74 b2 00 94  	bl	0x8ab70 <_Znwm@plt>
   5e2cc: a1 b2 00 94  	bl	0x8ad50 <_ZN2cv3Mat8copySizeERKS0_@plt>
   5e444: 5b b2 00 94  	bl	0x8adb0 <_ZN2cv3MatC1ERKS0_RKNS_5Rect_IiEE@plt>
   5e478: de b1 00 94  	bl	0x8abf0 <_ZN2cv3Mat10deallocateEv@plt>
   5e52c: f5 b1 00 94  	bl	0x8ad00 <_ZN2cv3Mat6createEiPKii@plt>
   5e57c: 9d b1 00 94  	bl	0x8abf0 <_ZN2cv3Mat10deallocateEv@plt>
   5e628: ca b1 00 94  	bl	0x8ad50 <_ZN2cv3Mat8copySizeERKS0_@plt>
   5e690: 9c b1 00 94  	bl	0x8ad00 <_ZN2cv3Mat6createEiPKii@plt>
   5e6ec: 85 b1 00 94  	bl	0x8ad00 <_ZN2cv3Mat6createEiPKii@plt>
   5e7a0: f8 b0 00 94  	bl	0x8ab80 <_ZNSt3__119__shared_weak_count14__release_weakEv@plt>
   5e7cc: ed b0 00 94  	bl	0x8ab80 <_ZNSt3__119__shared_weak_count14__release_weakEv@plt>
   5e834: d3 b0 00 94  	bl	0x8ab80 <_ZNSt3__119__shared_weak_count14__release_weakEv@plt>
   5e848: ca b0 00 94  	bl	0x8ab70 <_Znwm@plt>
   5e988: f2 b0 00 94  	bl	0x8ad50 <_ZN2cv3Mat8copySizeERKS0_@plt>
   5eb40: 9c b0 00 94  	bl	0x8adb0 <_ZN2cv3MatC1ERKS0_RKNS_5Rect_IiEE@plt>
   5eb74: 1f b0 00 94  	bl	0x8abf0 <_ZN2cv3Mat10deallocateEv@plt>
   5ec24: 37 b0 00 94  	bl	0x8ad00 <_ZN2cv3Mat6createEiPKii@plt>
   5ec74: df af 00 94  	bl	0x8abf0 <_ZN2cv3Mat10deallocateEv@plt>
   5ed18: 0e b0 00 94  	bl	0x8ad50 <_ZN2cv3Mat8copySizeERKS0_@plt>
   5ed88: de af 00 94  	bl	0x8ad00 <_ZN2cv3Mat6createEiPKii@plt>
   5ede8: c6 af 00 94  	bl	0x8ad00 <_ZN2cv3Mat6createEiPKii@plt>
   5ee50: ac af 00 94  	bl	0x8ad00 <_ZN2cv3Mat6createEiPKii@plt>
   5eef4: 23 af 00 94  	bl	0x8ab80 <_ZNSt3__119__shared_weak_count14__release_weakEv@plt>
   5ef20: 18 af 00 94  	bl	0x8ab80 <_ZNSt3__119__shared_weak_count14__release_weakEv@plt>
   5ef70: 04 af 00 94  	bl	0x8ab80 <_ZNSt3__119__shared_weak_count14__release_weakEv@plt>
   5efc0: f0 ae 00 94  	bl	0x8ab80 <_ZNSt3__119__shared_weak_count14__release_weakEv@plt>
   5f010: dc ae 00 94  	bl	0x8ab80 <_ZNSt3__119__shared_weak_count14__release_weakEv@plt>
   5f07c: c1 ae 00 94  	bl	0x8ab80 <_ZNSt3__119__shared_weak_count14__release_weakEv@plt>
   5f0cc: ad ae 00 94  	bl	0x8ab80 <_ZNSt3__119__shared_weak_count14__release_weakEv@plt>
   5f11c: 99 ae 00 94  	bl	0x8ab80 <_ZNSt3__119__shared_weak_count14__release_weakEv@plt>
   5f16c: 85 ae 00 94  	bl	0x8ab80 <_ZNSt3__119__shared_weak_count14__release_weakEv@plt>
   5f1b8: 72 ae 00 94  	bl	0x8ab80 <_ZNSt3__119__shared_weak_count14__release_weakEv@plt>
   5f1cc: 69 ae 00 94  	bl	0x8ab70 <_Znwm@plt>
   5f2f0: 98 ae 00 94  	bl	0x8ad50 <_ZN2cv3Mat8copySizeERKS0_@plt>
   5f3d4: 4b ae 00 94  	bl	0x8ad00 <_ZN2cv3Mat6createEiPKii@plt>
   5f428: f2 ad 00 94  	bl	0x8abf0 <_ZN2cv3Mat10deallocateEv@plt>
   5f4d0: 20 ae 00 94  	bl	0x8ad50 <_ZN2cv3Mat8copySizeERKS0_@plt>
   5f600: c0 ad 00 94  	bl	0x8ad00 <_ZN2cv3Mat6createEiPKii@plt>
   5f624: 6f ad 00 94  	bl	0x8abe0 <_ZdlPv@plt>
   5f6c8: 2e ad 00 94  	bl	0x8ab80 <_ZNSt3__119__shared_weak_count14__release_weakEv@plt>
   5f6f4: 23 ad 00 94  	bl	0x8ab80 <_ZNSt3__119__shared_weak_count14__release_weakEv@plt>
   5f6f8: 4e ad 00 94  	bl	0x8ac30 <_ZN2cv12getTickCountEv@plt>
   5f820: 04 ad 00 94  	bl	0x8ac30 <_ZN2cv12getTickCountEv@plt>
   5f82c: 59 ad 00 94  	bl	0x8ad90 <_ZNSt3__118condition_variableD1Ev@plt>
   5f834: f7 ac 00 94  	bl	0x8ac10 <_ZNSt3__15mutexD1Ev@plt>
   5f894: bb ac 00 94  	bl	0x8ab80 <_ZNSt3__119__shared_weak_count14__release_weakEv@plt>
   5f8b8: ca ac 00 94  	bl	0x8abe0 <_ZdlPv@plt>
   5f91c: b5 ac 00 94  	bl	0x8abf0 <_ZN2cv3Mat10deallocateEv@plt>
   5f964: a3 ac 00 94  	bl	0x8abf0 <_ZN2cv3Mat10deallocateEv@plt>
   5f9ac: 91 ac 00 94  	bl	0x8abf0 <_ZN2cv3Mat10deallocateEv@plt>
   5fa00: 7c ac 00 94  	bl	0x8abf0 <_ZN2cv3Mat10deallocateEv@plt>
   5facc: 4d ac 00 94  	bl	0x8ac00 <_ZN2cv8fastFreeEPv@plt>
   5fc40: f0 ab 00 94  	bl	0x8ac00 <_ZN2cv8fastFreeEPv@plt>
   5fcec: c5 ab 00 94  	bl	0x8ac00 <_ZN2cv8fastFreeEPv@plt>
   5fe60: 68 ab 00 94  	bl	0x8ac00 <_ZN2cv8fastFreeEPv@plt>
   5ff18: 3a ab 00 94  	bl	0x8ac00 <_ZN2cv8fastFreeEPv@plt>
   60090: dc aa 00 94  	bl	0x8ac00 <_ZN2cv8fastFreeEPv@plt>
   60144: af aa 00 94  	bl	0x8ac00 <_ZN2cv8fastFreeEPv@plt>
   602b8: 52 aa 00 94  	bl	0x8ac00 <_ZN2cv8fastFreeEPv@plt>
   602f8: 3e aa 00 94  	bl	0x8abf0 <_ZN2cv3Mat10deallocateEv@plt>
   603f8: 02 aa 00 94  	bl	0x8ac00 <_ZN2cv8fastFreeEPv@plt>
   60438: ee a9 00 94  	bl	0x8abf0 <_ZN2cv3Mat10deallocateEv@plt>
   60538: b2 a9 00 94  	bl	0x8ac00 <_ZN2cv8fastFreeEPv@plt>
   60570: a0 a9 00 94  	bl	0x8abf0 <_ZN2cv3Mat10deallocateEv@plt>
   60670: 64 a9 00 94  	bl	0x8ac00 <_ZN2cv8fastFreeEPv@plt>
   606a8: 52 a9 00 94  	bl	0x8abf0 <_ZN2cv3Mat10deallocateEv@plt>
   607a8: 16 a9 00 94  	bl	0x8ac00 <_ZN2cv8fastFreeEPv@plt>
   60804: df a8 00 94  	bl	0x8ab80 <_ZNSt3__119__shared_weak_count14__release_weakEv@plt>
   60830: d4 a8 00 94  	bl	0x8ab80 <_ZNSt3__119__shared_weak_count14__release_weakEv@plt>
   608b8: b2 a8 00 94  	bl	0x8ab80 <_ZNSt3__119__shared_weak_count14__release_weakEv@plt>
   60924: 97 a8 00 94  	bl	0x8ab80 <_ZNSt3__119__shared_weak_count14__release_weakEv@plt>
   60950: 8c a8 00 94  	bl	0x8ab80 <_ZNSt3__119__shared_weak_count14__release_weakEv@plt>
   60998: 7a a8 00 94  	bl	0x8ab80 <_ZNSt3__119__shared_weak_count14__release_weakEv@plt>
   609c4: 6f a8 00 94  	bl	0x8ab80 <_ZNSt3__119__shared_weak_count14__release_weakEv@plt>
   60a0c: 5d a8 00 94  	bl	0x8ab80 <_ZNSt3__119__shared_weak_count14__release_weakEv@plt>
   60a38: 52 a8 00 94  	bl	0x8ab80 <_ZNSt3__119__shared_weak_count14__release_weakEv@plt>
   60a94: 53 a8 00 94  	bl	0x8abe0 <_ZdlPv@plt>
   60ac0: 4c a8 00 94  	bl	0x8abf0 <_ZN2cv3Mat10deallocateEv@plt>
   60bb4: 13 a8 00 94  	bl	0x8ac00 <_ZN2cv8fastFreeEPv@plt>
   60bdc: 01 a8 00 94  	bl	0x8abe0 <_ZdlPv@plt>
   60c04: f7 a7 00 94  	bl	0x8abe0 <_ZdlPv@plt>
   60c30: f0 a7 00 94  	bl	0x8abf0 <_ZN2cv3Mat10deallocateEv@plt>
   60d30: b4 a7 00 94  	bl	0x8ac00 <_ZN2cv8fastFreeEPv@plt>
   60d5c: a5 a7 00 94  	bl	0x8abf0 <_ZN2cv3Mat10deallocateEv@plt>
   60e60: 68 a7 00 94  	bl	0x8ac00 <_ZN2cv8fastFreeEPv@plt>
   60eb8: 4e a7 00 94  	bl	0x8abf0 <_ZN2cv3Mat10deallocateEv@plt>
   60fb4: 13 a7 00 94  	bl	0x8ac00 <_ZN2cv8fastFreeEPv@plt>
   60fe0: 04 a7 00 94  	bl	0x8abf0 <_ZN2cv3Mat10deallocateEv@plt>
   610dc: c9 a6 00 94  	bl	0x8ac00 <_ZN2cv8fastFreeEPv@plt>
   61108: ba a6 00 94  	bl	0x8abf0 <_ZN2cv3Mat10deallocateEv@plt>
   61204: 7f a6 00 94  	bl	0x8ac00 <_ZN2cv8fastFreeEPv@plt>
   6122c: 6d a6 00 94  	bl	0x8abe0 <_ZdlPv@plt>
   61254: 63 a6 00 94  	bl	0x8abe0 <_ZdlPv@plt>
   61280: 5c a6 00 94  	bl	0x8abf0 <_ZN2cv3Mat10deallocateEv@plt>
   61380: 20 a6 00 94  	bl	0x8ac00 <_ZN2cv8fastFreeEPv@plt>
   613ac: 11 a6 00 94  	bl	0x8abf0 <_ZN2cv3Mat10deallocateEv@plt>
   614b0: d4 a5 00 94  	bl	0x8ac00 <_ZN2cv8fastFreeEPv@plt>
   614cc: d1 a5 00 94  	bl	0x8ac10 <_ZNSt3__15mutexD1Ev@plt>
   614d4: 87 a6 00 94  	bl	0x8aef0 <_ZNSt3__119__shared_weak_countD2Ev@plt>
   614dc: c1 a5 00 94  	bl	0x8abe0 <_ZdlPv@plt>
   61528: b2 a5 00 94  	bl	0x8abf0 <_ZN2cv3Mat10deallocateEv@plt>
   61628: 76 a5 00 94  	bl	0x8ac00 <_ZN2cv8fastFreeEPv@plt>
   61654: 67 a5 00 94  	bl	0x8abf0 <_ZN2cv3Mat10deallocateEv@plt>
   61754: 2b a5 00 94  	bl	0x8ac00 <_ZN2cv8fastFreeEPv@plt>
   6177c: 19 a5 00 94  	bl	0x8abe0 <_ZdlPv@plt>
   617a4: 0f a5 00 94  	bl	0x8abe0 <_ZdlPv@plt>
   617d0: 08 a5 00 94  	bl	0x8abf0 <_ZN2cv3Mat10deallocateEv@plt>
   618d0: cc a4 00 94  	bl	0x8ac00 <_ZN2cv8fastFreeEPv@plt>
   618fc: bd a4 00 94  	bl	0x8abf0 <_ZN2cv3Mat10deallocateEv@plt>
   619f8: 82 a4 00 94  	bl	0x8ac00 <_ZN2cv8fastFreeEPv@plt>
   61a10: 80 a4 00 94  	bl	0x8ac10 <_ZNSt3__15mutexD1Ev@plt>
   61a18: 36 a5 00 94  	bl	0x8aef0 <_ZNSt3__119__shared_weak_countD2Ev@plt>
   61a20: 70 a4 00 94  	bl	0x8abe0 <_ZdlPv@plt>
   61a64: 63 a4 00 94  	bl	0x8abf0 <_ZN2cv3Mat10deallocateEv@plt>
   61b5c: 29 a4 00 94  	bl	0x8ac00 <_ZN2cv8fastFreeEPv@plt>
   61b88: 1a a4 00 94  	bl	0x8abf0 <_ZN2cv3Mat10deallocateEv@plt>
   61c88: de a3 00 94  	bl	0x8ac00 <_ZN2cv8fastFreeEPv@plt>
   61cb0: cc a3 00 94  	bl	0x8abe0 <_ZdlPv@plt>
   61cd8: c2 a3 00 94  	bl	0x8abe0 <_ZdlPv@plt>
   61d04: bb a3 00 94  	bl	0x8abf0 <_ZN2cv3Mat10deallocateEv@plt>
   61e04: 7f a3 00 94  	bl	0x8ac00 <_ZN2cv8fastFreeEPv@plt>
   61e30: 70 a3 00 94  	bl	0x8abf0 <_ZN2cv3Mat10deallocateEv@plt>
   61f30: 34 a3 00 94  	bl	0x8ac00 <_ZN2cv8fastFreeEPv@plt>
   61f48: 32 a3 00 94  	bl	0x8ac10 <_ZNSt3__15mutexD1Ev@plt>
   61f50: e8 a3 00 94  	bl	0x8aef0 <_ZNSt3__119__shared_weak_countD2Ev@plt>
   61f58: 22 a3 00 94  	bl	0x8abe0 <_ZdlPv@plt>
   61fa0: 14 a3 00 94  	bl	0x8abf0 <_ZN2cv3Mat10deallocateEv@plt>
   6209c: d9 a2 00 94  	bl	0x8ac00 <_ZN2cv8fastFreeEPv@plt>
   620c8: ca a2 00 94  	bl	0x8abf0 <_ZN2cv3Mat10deallocateEv@plt>
   621c4: 8f a2 00 94  	bl	0x8ac00 <_ZN2cv8fastFreeEPv@plt>
   621f0: 80 a2 00 94  	bl	0x8abf0 <_ZN2cv3Mat10deallocateEv@plt>
   622ec: 45 a2 00 94  	bl	0x8ac00 <_ZN2cv8fastFreeEPv@plt>
   62314: 33 a2 00 94  	bl	0x8abe0 <_ZdlPv@plt>
   6233c: 29 a2 00 94  	bl	0x8abe0 <_ZdlPv@plt>
   62368: 22 a2 00 94  	bl	0x8abf0 <_ZN2cv3Mat10deallocateEv@plt>
   62468: e6 a1 00 94  	bl	0x8ac00 <_ZN2cv8fastFreeEPv@plt>
   62494: d7 a1 00 94  	bl	0x8abf0 <_ZN2cv3Mat10deallocateEv@plt>
   62598: 9a a1 00 94  	bl	0x8ac00 <_ZN2cv8fastFreeEPv@plt>
   625b4: 97 a1 00 94  	bl	0x8ac10 <_ZNSt3__15mutexD1Ev@plt>
   625bc: 4d a2 00 94  	bl	0x8aef0 <_ZNSt3__119__shared_weak_countD2Ev@plt>
   625c4: 87 a1 00 94  	bl	0x8abe0 <_ZdlPv@plt>
   62608: e2 a1 00 94  	bl	0x8ad90 <_ZNSt3__118condition_variableD1Ev@plt>
   62610: 80 a1 00 94  	bl	0x8ac10 <_ZNSt3__15mutexD1Ev@plt>
   62664: 47 a1 00 94  	bl	0x8ab80 <_ZNSt3__119__shared_weak_count14__release_weakEv@plt>
   62690: 54 a1 00 94  	bl	0x8abe0 <_ZdlPv@plt>
   626f8: 4e a1 00 94  	bl	0x8ac30 <_ZN2cv12getTickCountEv@plt>
   627f4: df a0 00 94  	bl	0x8ab70 <_Znwm@plt>
   62908: 12 a1 00 94  	bl	0x8ad50 <_ZN2cv3Mat8copySizeERKS0_@plt>
   62acc: b9 a0 00 94  	bl	0x8adb0 <_ZN2cv3MatC1ERKS0_RKNS_5Rect_IiEE@plt>
   62b00: 3c a0 00 94  	bl	0x8abf0 <_ZN2cv3Mat10deallocateEv@plt>
   62bb4: 53 a0 00 94  	bl	0x8ad00 <_ZN2cv3Mat6createEiPKii@plt>
   62c04: fb 9f 00 94  	bl	0x8abf0 <_ZN2cv3Mat10deallocateEv@plt>
   62cac: 29 a0 00 94  	bl	0x8ad50 <_ZN2cv3Mat8copySizeERKS0_@plt>
   62d24: f7 9f 00 94  	bl	0x8ad00 <_ZN2cv3Mat6createEiPKii@plt>
   62d88: de 9f 00 94  	bl	0x8ad00 <_ZN2cv3Mat6createEiPKii@plt>
   62de8: c6 9f 00 94  	bl	0x8ad00 <_ZN2cv3Mat6createEiPKii@plt>
   62e90: 3c 9f 00 94  	bl	0x8ab80 <_ZNSt3__119__shared_weak_count14__release_weakEv@plt>
   62ebc: 31 9f 00 94  	bl	0x8ab80 <_ZNSt3__119__shared_weak_count14__release_weakEv@plt>
   62ec4: 2b 9f 00 94  	bl	0x8ab70 <_Znwm@plt>
   62ff4: 57 9f 00 94  	bl	0x8ad50 <_ZN2cv3Mat8copySizeERKS0_@plt>
   63224: e3 9e 00 94  	bl	0x8adb0 <_ZN2cv3MatC1ERKS0_RKNS_5Rect_IiEE@plt>
   63258: 66 9e 00 94  	bl	0x8abf0 <_ZN2cv3Mat10deallocateEv@plt>
   63308: 7e 9e 00 94  	bl	0x8ad00 <_ZN2cv3Mat6createEiPKii@plt>
   63358: 26 9e 00 94  	bl	0x8abf0 <_ZN2cv3Mat10deallocateEv@plt>
   63400: 54 9e 00 94  	bl	0x8ad50 <_ZN2cv3Mat8copySizeERKS0_@plt>
   63468: 26 9e 00 94  	bl	0x8ad00 <_ZN2cv3Mat6createEiPKii@plt>
   634c0: 10 9e 00 94  	bl	0x8ad00 <_ZN2cv3Mat6createEiPKii@plt>
   63524: f7 9d 00 94  	bl	0x8ad00 <_ZN2cv3Mat6createEiPKii@plt>
   63588: de 9d 00 94  	bl	0x8ad00 <_ZN2cv3Mat6createEiPKii@plt>
   63630: 54 9d 00 94  	bl	0x8ab80 <_ZNSt3__119__shared_weak_count14__release_weakEv@plt>
   6365c: 49 9d 00 94  	bl	0x8ab80 <_ZNSt3__119__shared_weak_count14__release_weakEv@plt>
   636d4: 2b 9d 00 94  	bl	0x8ab80 <_ZNSt3__119__shared_weak_count14__release_weakEv@plt>
   636dc: 25 9d 00 94  	bl	0x8ab70 <_Znwm@plt>
   63804: 53 9d 00 94  	bl	0x8ad50 <_ZN2cv3Mat8copySizeERKS0_@plt>
   639f4: ef 9c 00 94  	bl	0x8adb0 <_ZN2cv3MatC1ERKS0_RKNS_5Rect_IiEE@plt>
   63a28: 72 9c 00 94  	bl	0x8abf0 <_ZN2cv3Mat10deallocateEv@plt>
   63ad8: 8a 9c 00 94  	bl	0x8ad00 <_ZN2cv3Mat6createEiPKii@plt>
   63b28: 32 9c 00 94  	bl	0x8abf0 <_ZN2cv3Mat10deallocateEv@plt>
   63bd0: 60 9c 00 94  	bl	0x8ad50 <_ZN2cv3Mat8copySizeERKS0_@plt>
   63c38: 32 9c 00 94  	bl	0x8ad00 <_ZN2cv3Mat6createEiPKii@plt>
   63c9c: 19 9c 00 94  	bl	0x8ad00 <_ZN2cv3Mat6createEiPKii@plt>
   63d00: 00 9c 00 94  	bl	0x8ad00 <_ZN2cv3Mat6createEiPKii@plt>
   63da8: 76 9b 00 94  	bl	0x8ab80 <_ZNSt3__119__shared_weak_count14__release_weakEv@plt>
   63dd8: 6a 9b 00 94  	bl	0x8ab80 <_ZNSt3__119__shared_weak_count14__release_weakEv@plt>
   63e44: 4f 9b 00 94  	bl	0x8ab80 <_ZNSt3__119__shared_weak_count14__release_weakEv@plt>
   63e4c: 49 9b 00 94  	bl	0x8ab70 <_Znwm@plt>
   63f78: 76 9b 00 94  	bl	0x8ad50 <_ZN2cv3Mat8copySizeERKS0_@plt>
   64090: 48 9b 00 94  	bl	0x8adb0 <_ZN2cv3MatC1ERKS0_RKNS_5Rect_IiEE@plt>
   640c4: cb 9a 00 94  	bl	0x8abf0 <_ZN2cv3Mat10deallocateEv@plt>
   64174: e3 9a 00 94  	bl	0x8ad00 <_ZN2cv3Mat6createEiPKii@plt>
   641c4: 8b 9a 00 94  	bl	0x8abf0 <_ZN2cv3Mat10deallocateEv@plt>
   64268: ba 9a 00 94  	bl	0x8ad50 <_ZN2cv3Mat8copySizeERKS0_@plt>
   64338: 72 9a 00 94  	bl	0x8ad00 <_ZN2cv3Mat6createEiPKii@plt>
   643d8: ea 99 00 94  	bl	0x8ab80 <_ZNSt3__119__shared_weak_count14__release_weakEv@plt>
   64404: df 99 00 94  	bl	0x8ab80 <_ZNSt3__119__shared_weak_count14__release_weakEv@plt>
   64454: cb 99 00 94  	bl	0x8ab80 <_ZNSt3__119__shared_weak_count14__release_weakEv@plt>
   644a4: b7 99 00 94  	bl	0x8ab80 <_ZNSt3__119__shared_weak_count14__release_weakEv@plt>
   644f0: a4 99 00 94  	bl	0x8ab80 <_ZNSt3__119__shared_weak_count14__release_weakEv@plt>
   6455c: 89 99 00 94  	bl	0x8ab80 <_ZNSt3__119__shared_weak_count14__release_weakEv@plt>
   645ac: 75 99 00 94  	bl	0x8ab80 <_ZNSt3__119__shared_weak_count14__release_weakEv@plt>
   645fc: 61 99 00 94  	bl	0x8ab80 <_ZNSt3__119__shared_weak_count14__release_weakEv@plt>
   6464c: 4d 99 00 94  	bl	0x8ab80 <_ZNSt3__119__shared_weak_count14__release_weakEv@plt>
   64698: 3a 99 00 94  	bl	0x8ab80 <_ZNSt3__119__shared_weak_count14__release_weakEv@plt>
   646b8: 2e 99 00 94  	bl	0x8ab70 <_Znwm@plt>
   647cc: 61 99 00 94  	bl	0x8ad50 <_ZN2cv3Mat8copySizeERKS0_@plt>
   648d4: 0b 99 00 94  	bl	0x8ad00 <_ZN2cv3Mat6createEiPKii@plt>
   64928: b2 98 00 94  	bl	0x8abf0 <_ZN2cv3Mat10deallocateEv@plt>
   649d0: e0 98 00 94  	bl	0x8ad50 <_ZN2cv3Mat8copySizeERKS0_@plt>
   64a98: 9a 98 00 94  	bl	0x8ad00 <_ZN2cv3Mat6createEiPKii@plt>
   64b38: 12 98 00 94  	bl	0x8ab80 <_ZNSt3__119__shared_weak_count14__release_weakEv@plt>
   64b64: 07 98 00 94  	bl	0x8ab80 <_ZNSt3__119__shared_weak_count14__release_weakEv@plt>
   64b68: 32 98 00 94  	bl	0x8ac30 <_ZN2cv12getTickCountEv@plt>
   64c90: e8 97 00 94  	bl	0x8ac30 <_ZN2cv12getTickCountEv@plt>
   64c9c: 3d 98 00 94  	bl	0x8ad90 <_ZNSt3__118condition_variableD1Ev@plt>
   64ca4: db 97 00 94  	bl	0x8ac10 <_ZNSt3__15mutexD1Ev@plt>
   64d04: 9f 97 00 94  	bl	0x8ab80 <_ZNSt3__119__shared_weak_count14__release_weakEv@plt>
   64d28: ae 97 00 94  	bl	0x8abe0 <_ZdlPv@plt>
   64d90: 98 97 00 94  	bl	0x8abf0 <_ZN2cv3Mat10deallocateEv@plt>
   64dd8: 86 97 00 94  	bl	0x8abf0 <_ZN2cv3Mat10deallocateEv@plt>
   64e14: 77 97 00 94  	bl	0x8abf0 <_ZN2cv3Mat10deallocateEv@plt>
   64e44: 6b 97 00 94  	bl	0x8abf0 <_ZN2cv3Mat10deallocateEv@plt>
   64efc: 41 97 00 94  	bl	0x8ac00 <_ZN2cv8fastFreeEPv@plt>
   65074: e3 96 00 94  	bl	0x8ac00 <_ZN2cv8fastFreeEPv@plt>
   65124: b7 96 00 94  	bl	0x8ac00 <_ZN2cv8fastFreeEPv@plt>
   6529c: 59 96 00 94  	bl	0x8ac00 <_ZN2cv8fastFreeEPv@plt>
   6534c: 2d 96 00 94  	bl	0x8ac00 <_ZN2cv8fastFreeEPv@plt>
   654c8: ce 95 00 94  	bl	0x8ac00 <_ZN2cv8fastFreeEPv@plt>
   65580: a0 95 00 94  	bl	0x8ac00 <_ZN2cv8fastFreeEPv@plt>
   656f8: 42 95 00 94  	bl	0x8ac00 <_ZN2cv8fastFreeEPv@plt>
   65738: 2e 95 00 94  	bl	0x8abf0 <_ZN2cv3Mat10deallocateEv@plt>
   6583c: f1 94 00 94  	bl	0x8ac00 <_ZN2cv8fastFreeEPv@plt>
   6587c: dd 94 00 94  	bl	0x8abf0 <_ZN2cv3Mat10deallocateEv@plt>
   65980: a0 94 00 94  	bl	0x8ac00 <_ZN2cv8fastFreeEPv@plt>
   659b8: 8e 94 00 94  	bl	0x8abf0 <_ZN2cv3Mat10deallocateEv@plt>
   65abc: 51 94 00 94  	bl	0x8ac00 <_ZN2cv8fastFreeEPv@plt>
   65af4: 3f 94 00 94  	bl	0x8abf0 <_ZN2cv3Mat10deallocateEv@plt>
   65bf8: 02 94 00 94  	bl	0x8ac00 <_ZN2cv8fastFreeEPv@plt>
   65c54: cb 93 00 94  	bl	0x8ab80 <_ZNSt3__119__shared_weak_count14__release_weakEv@plt>
   65d00: a0 93 00 94  	bl	0x8ab80 <_ZNSt3__119__shared_weak_count14__release_weakEv@plt>
   65d2c: 95 93 00 94  	bl	0x8ab80 <_ZNSt3__119__shared_weak_count14__release_weakEv@plt>
   65d74: 83 93 00 94  	bl	0x8ab80 <_ZNSt3__119__shared_weak_count14__release_weakEv@plt>
   65de0: 68 93 00 94  	bl	0x8ab80 <_ZNSt3__119__shared_weak_count14__release_weakEv@plt>
   65e4c: 4d 93 00 94  	bl	0x8ab80 <_ZNSt3__119__shared_weak_count14__release_weakEv@plt>
   65e78: 42 93 00 94  	bl	0x8ab80 <_ZNSt3__119__shared_weak_count14__release_weakEv@plt>
   65ee8: 42 93 00 94  	bl	0x8abf0 <_ZN2cv3Mat10deallocateEv@plt>
   65fdc: 09 93 00 94  	bl	0x8ac00 <_ZN2cv8fastFreeEPv@plt>
   66008: fa 92 00 94  	bl	0x8abf0 <_ZN2cv3Mat10deallocateEv@plt>
   66104: bf 92 00 94  	bl	0x8ac00 <_ZN2cv8fastFreeEPv@plt>
   66130: b0 92 00 94  	bl	0x8abf0 <_ZN2cv3Mat10deallocateEv@plt>
   6622c: 75 92 00 94  	bl	0x8ac00 <_ZN2cv8fastFreeEPv@plt>
   66254: 63 92 00 94  	bl	0x8abe0 <_ZdlPv@plt>
   6627c: 59 92 00 94  	bl	0x8abe0 <_ZdlPv@plt>
   662a8: 52 92 00 94  	bl	0x8abf0 <_ZN2cv3Mat10deallocateEv@plt>
   663a8: 16 92 00 94  	bl	0x8ac00 <_ZN2cv8fastFreeEPv@plt>
   663d4: 07 92 00 94  	bl	0x8abf0 <_ZN2cv3Mat10deallocateEv@plt>
   664d8: ca 91 00 94  	bl	0x8ac00 <_ZN2cv8fastFreeEPv@plt>
   66538: ae 91 00 94  	bl	0x8abf0 <_ZN2cv3Mat10deallocateEv@plt>
   66638: 72 91 00 94  	bl	0x8ac00 <_ZN2cv8fastFreeEPv@plt>
   66660: 60 91 00 94  	bl	0x8abe0 <_ZdlPv@plt>
   66688: 56 91 00 94  	bl	0x8abe0 <_ZdlPv@plt>
   666b4: 4f 91 00 94  	bl	0x8abf0 <_ZN2cv3Mat10deallocateEv@plt>
   667b4: 13 91 00 94  	bl	0x8ac00 <_ZN2cv8fastFreeEPv@plt>
   667e0: 04 91 00 94  	bl	0x8abf0 <_ZN2cv3Mat10deallocateEv@plt>
   668dc: c9 90 00 94  	bl	0x8ac00 <_ZN2cv8fastFreeEPv@plt>
   66930: b0 90 00 94  	bl	0x8abf0 <_ZN2cv3Mat10deallocateEv@plt>
   66a30: 74 90 00 94  	bl	0x8ac00 <_ZN2cv8fastFreeEPv@plt>
   66a58: 62 90 00 94  	bl	0x8abe0 <_ZdlPv@plt>
   66a80: 58 90 00 94  	bl	0x8abe0 <_ZdlPv@plt>
   66aac: 51 90 00 94  	bl	0x8abf0 <_ZN2cv3Mat10deallocateEv@plt>
   66bac: 15 90 00 94  	bl	0x8ac00 <_ZN2cv8fastFreeEPv@plt>
   66bd8: 06 90 00 94  	bl	0x8abf0 <_ZN2cv3Mat10deallocateEv@plt>
   66cd4: cb 8f 00 94  	bl	0x8ac00 <_ZN2cv8fastFreeEPv@plt>
   66cec: c9 8f 00 94  	bl	0x8ac10 <_ZNSt3__15mutexD1Ev@plt>
   66cf4: 7f 90 00 94  	bl	0x8aef0 <_ZNSt3__119__shared_weak_countD2Ev@plt>
   66cfc: b9 8f 00 94  	bl	0x8abe0 <_ZdlPv@plt>
   66d3c: ad 8f 00 94  	bl	0x8abf0 <_ZN2cv3Mat10deallocateEv@plt>
   66e3c: 71 8f 00 94  	bl	0x8ac00 <_ZN2cv8fastFreeEPv@plt>
   66e68: 62 8f 00 94  	bl	0x8abf0 <_ZN2cv3Mat10deallocateEv@plt>
   66f68: 26 8f 00 94  	bl	0x8ac00 <_ZN2cv8fastFreeEPv@plt>
   66f94: 17 8f 00 94  	bl	0x8abf0 <_ZN2cv3Mat10deallocateEv@plt>
   67094: db 8e 00 94  	bl	0x8ac00 <_ZN2cv8fastFreeEPv@plt>
   670bc: c9 8e 00 94  	bl	0x8abe0 <_ZdlPv@plt>
   670e4: bf 8e 00 94  	bl	0x8abe0 <_ZdlPv@plt>
   67110: b8 8e 00 94  	bl	0x8abf0 <_ZN2cv3Mat10deallocateEv@plt>
   67210: 7c 8e 00 94  	bl	0x8ac00 <_ZN2cv8fastFreeEPv@plt>
   6723c: 6d 8e 00 94  	bl	0x8abf0 <_ZN2cv3Mat10deallocateEv@plt>
   67338: 32 8e 00 94  	bl	0x8ac00 <_ZN2cv8fastFreeEPv@plt>
   67394: 17 8e 00 94  	bl	0x8abf0 <_ZN2cv3Mat10deallocateEv@plt>
   67494: db 8d 00 94  	bl	0x8ac00 <_ZN2cv8fastFreeEPv@plt>
   674c0: cc 8d 00 94  	bl	0x8abf0 <_ZN2cv3Mat10deallocateEv@plt>
   675c0: 90 8d 00 94  	bl	0x8ac00 <_ZN2cv8fastFreeEPv@plt>
   675ec: 81 8d 00 94  	bl	0x8abf0 <_ZN2cv3Mat10deallocateEv@plt>
   676ec: 45 8d 00 94  	bl	0x8ac00 <_ZN2cv8fastFreeEPv@plt>
   67718: 36 8d 00 94  	bl	0x8abf0 <_ZN2cv3Mat10deallocateEv@plt>
   67818: fa 8c 00 94  	bl	0x8ac00 <_ZN2cv8fastFreeEPv@plt>
   67840: e8 8c 00 94  	bl	0x8abe0 <_ZdlPv@plt>
   67868: de 8c 00 94  	bl	0x8abe0 <_ZdlPv@plt>
   67894: d7 8c 00 94  	bl	0x8abf0 <_ZN2cv3Mat10deallocateEv@plt>
   67994: 9b 8c 00 94  	bl	0x8ac00 <_ZN2cv8fastFreeEPv@plt>
   679c0: 8c 8c 00 94  	bl	0x8abf0 <_ZN2cv3Mat10deallocateEv@plt>
   67abc: 51 8c 00 94  	bl	0x8ac00 <_ZN2cv8fastFreeEPv@plt>
   67ad4: 4f 8c 00 94  	bl	0x8ac10 <_ZNSt3__15mutexD1Ev@plt>
   67adc: 05 8d 00 94  	bl	0x8aef0 <_ZNSt3__119__shared_weak_countD2Ev@plt>
   67ae4: 3f 8c 00 94  	bl	0x8abe0 <_ZdlPv@plt>
   67b34: 97 8c 00 94  	bl	0x8ad90 <_ZNSt3__118condition_variableD1Ev@plt>
   67b3c: 35 8c 00 94  	bl	0x8ac10 <_ZNSt3__15mutexD1Ev@plt>
   67b90: fc 8b 00 94  	bl	0x8ab80 <_ZNSt3__119__shared_weak_count14__release_weakEv@plt>
   67bbc: 09 8c 00 94  	bl	0x8abe0 <_ZdlPv@plt>
   67c2c: d1 8b 00 94  	bl	0x8ab70 <_Znwm@plt>
   67d20: 98 8b 00 94  	bl	0x8ab80 <_ZNSt3__119__shared_weak_count14__release_weakEv@plt>
   67d98: 7a 8b 00 94  	bl	0x8ab80 <_ZNSt3__119__shared_weak_count14__release_weakEv@plt>
   67dd0: 6c 8b 00 94  	bl	0x8ab80 <_ZNSt3__119__shared_weak_count14__release_weakEv@plt>
   67de4: 43 8c 00 94  	bl	0x8aef0 <_ZNSt3__119__shared_weak_countD2Ev@plt>
   67dec: 7d 8b 00 94  	bl	0x8abe0 <_ZdlPv@plt>
   67e44: 4b 8b 00 94  	bl	0x8ab70 <_Znwm@plt>
   67f84: 73 8b 00 94  	bl	0x8ad50 <_ZN2cv3Mat8copySizeERKS0_@plt>
   68014: 4f 8b 00 94  	bl	0x8ad50 <_ZN2cv3Mat8copySizeERKS0_@plt>
   680cc: ad 8a 00 94  	bl	0x8ab80 <_ZNSt3__119__shared_weak_count14__release_weakEv@plt>
   68140: 90 8a 00 94  	bl	0x8ab80 <_ZNSt3__119__shared_weak_count14__release_weakEv@plt>
   68178: 82 8a 00 94  	bl	0x8ab80 <_ZNSt3__119__shared_weak_count14__release_weakEv@plt>
   681b0: 90 8a 00 94  	bl	0x8abf0 <_ZN2cv3Mat10deallocateEv@plt>
   682ac: 55 8a 00 94  	bl	0x8ac00 <_ZN2cv8fastFreeEPv@plt>
   682d0: 50 8a 00 94  	bl	0x8ac10 <_ZNSt3__15mutexD1Ev@plt>
   682d8: 06 8b 00 94  	bl	0x8aef0 <_ZNSt3__119__shared_weak_countD2Ev@plt>
   682e0: 40 8a 00 94  	bl	0x8abe0 <_ZdlPv@plt>
   6833c: 0d 8a 00 94  	bl	0x8ab70 <_Znwm@plt>
   6847c: 35 8a 00 94  	bl	0x8ad50 <_ZN2cv3Mat8copySizeERKS0_@plt>
   6850c: 11 8a 00 94  	bl	0x8ad50 <_ZN2cv3Mat8copySizeERKS0_@plt>
   685c4: 6f 89 00 94  	bl	0x8ab80 <_ZNSt3__119__shared_weak_count14__release_weakEv@plt>
   68638: 52 89 00 94  	bl	0x8ab80 <_ZNSt3__119__shared_weak_count14__release_weakEv@plt>
   68670: 44 89 00 94  	bl	0x8ab80 <_ZNSt3__119__shared_weak_count14__release_weakEv@plt>
   686a8: 52 89 00 94  	bl	0x8abf0 <_ZN2cv3Mat10deallocateEv@plt>
   687a4: 17 89 00 94  	bl	0x8ac00 <_ZN2cv8fastFreeEPv@plt>
   687c8: 12 89 00 94  	bl	0x8ac10 <_ZNSt3__15mutexD1Ev@plt>
   687d0: c8 89 00 94  	bl	0x8aef0 <_ZNSt3__119__shared_weak_countD2Ev@plt>
   687d8: 02 89 00 94  	bl	0x8abe0 <_ZdlPv@plt>
   68830: d0 88 00 94  	bl	0x8ab70 <_Znwm@plt>
   68970: f8 88 00 94  	bl	0x8ad50 <_ZN2cv3Mat8copySizeERKS0_@plt>
   68a00: d4 88 00 94  	bl	0x8ad50 <_ZN2cv3Mat8copySizeERKS0_@plt>
   68ab8: 32 88 00 94  	bl	0x8ab80 <_ZNSt3__119__shared_weak_count14__release_weakEv@plt>
   68b2c: 15 88 00 94  	bl	0x8ab80 <_ZNSt3__119__shared_weak_count14__release_weakEv@plt>
   68b64: 07 88 00 94  	bl	0x8ab80 <_ZNSt3__119__shared_weak_count14__release_weakEv@plt>
   68b9c: 15 88 00 94  	bl	0x8abf0 <_ZN2cv3Mat10deallocateEv@plt>
   68c98: da 87 00 94  	bl	0x8ac00 <_ZN2cv8fastFreeEPv@plt>
   68cbc: d5 87 00 94  	bl	0x8ac10 <_ZNSt3__15mutexD1Ev@plt>
   68cc4: 8b 88 00 94  	bl	0x8aef0 <_ZNSt3__119__shared_weak_countD2Ev@plt>
   68ccc: c5 87 00 94  	bl	0x8abe0 <_ZdlPv@plt>
   68d1c: 95 87 00 94  	bl	0x8ab70 <_Znwm@plt>
   68e18: ce 87 00 94  	bl	0x8ad50 <_ZN2cv3Mat8copySizeERKS0_@plt>
   68ed0: 2c 87 00 94  	bl	0x8ab80 <_ZNSt3__119__shared_weak_count14__release_weakEv@plt>
   68f40: 10 87 00 94  	bl	0x8ab80 <_ZNSt3__119__shared_weak_count14__release_weakEv@plt>
   68f78: 02 87 00 94  	bl	0x8ab80 <_ZNSt3__119__shared_weak_count14__release_weakEv@plt>
   68f9c: 1d 87 00 94  	bl	0x8ac10 <_ZNSt3__15mutexD1Ev@plt>
   68fa4: d3 87 00 94  	bl	0x8aef0 <_ZNSt3__119__shared_weak_countD2Ev@plt>
   68fac: 0d 87 00 94  	bl	0x8abe0 <_ZdlPv@plt>
   6901c: d5 86 00 94  	bl	0x8ab70 <_Znwm@plt>
   69110: 9c 86 00 94  	bl	0x8ab80 <_ZNSt3__119__shared_weak_count14__release_weakEv@plt>
   69188: 7e 86 00 94  	bl	0x8ab80 <_ZNSt3__119__shared_weak_count14__release_weakEv@plt>
   691c0: 70 86 00 94  	bl	0x8ab80 <_ZNSt3__119__shared_weak_count14__release_weakEv@plt>
   691d4: 47 87 00 94  	bl	0x8aef0 <_ZNSt3__119__shared_weak_countD2Ev@plt>
   691dc: 81 86 00 94  	bl	0x8abe0 <_ZdlPv@plt>
   69218: 36 87 00 14  	b	0x8aef0 <_ZNSt3__119__shared_weak_countD2Ev@plt>
   69248: 2a 87 00 94  	bl	0x8aef0 <_ZNSt3__119__shared_weak_countD2Ev@plt>
   69258: 62 86 00 14  	b	0x8abe0 <_ZdlPv@plt>
   69270: 5c 86 00 14  	b	0x8abe0 <_ZdlPv@plt>
   69528: 2e 87 00 94  	bl	0x8b1e0 <_ZNK2cv3Mat9locateROIERNS_5Size_IiEERNS_6Point_IiEE@plt>
   6954c: 29 87 00 94  	bl	0x8b1f0 <_ZN2cv3Mat9adjustROIEiiii@plt>
   695c8: 8a 85 00 94  	bl	0x8abf0 <_ZN2cv3Mat10deallocateEv@plt>
   696cc: 4d 85 00 94  	bl	0x8ac00 <_ZN2cv8fastFreeEPv@plt>
   696f8: 3e 85 00 94  	bl	0x8abf0 <_ZN2cv3Mat10deallocateEv@plt>
   697fc: 01 85 00 94  	bl	0x8ac00 <_ZN2cv8fastFreeEPv@plt>
   69828: f2 84 00 94  	bl	0x8abf0 <_ZN2cv3Mat10deallocateEv@plt>
   6992c: b5 84 00 94  	bl	0x8ac00 <_ZN2cv8fastFreeEPv@plt>
   69950: a4 84 00 94  	bl	0x8abe0 <_ZdlPv@plt>
   69974: 9b 84 00 94  	bl	0x8abe0 <_ZdlPv@plt>
   699a0: 94 84 00 94  	bl	0x8abf0 <_ZN2cv3Mat10deallocateEv@plt>
   69a9c: 59 84 00 94  	bl	0x8ac00 <_ZN2cv8fastFreeEPv@plt>
   69ac8: 4a 84 00 94  	bl	0x8abf0 <_ZN2cv3Mat10deallocateEv@plt>
   69bc4: 0f 84 00 94  	bl	0x8ac00 <_ZN2cv8fastFreeEPv@plt>
   69be4: 0b 84 00 14  	b	0x8ac10 <_ZNSt3__15mutexD1Ev@plt>
   69c20: f0 83 00 14  	b	0x8abe0 <_ZdlPv@plt>
   6a2d4: 27 82 00 94  	bl	0x8ab70 <_Znwm@plt>
   6a360: 20 82 00 14  	b	0x8abe0 <_ZdlPv@plt>
   6a390: 54 82 00 94  	bl	0x8ace0 <_ZNKSt3__120__vector_base_commonILb1EE20__throw_length_errorEv@plt>
   6a3d0: c8 82 00 14  	b	0x8aef0 <_ZNSt3__119__shared_weak_countD2Ev@plt>
   6a400: bc 82 00 94  	bl	0x8aef0 <_ZNSt3__119__shared_weak_countD2Ev@plt>
   6a410: f4 81 00 14  	b	0x8abe0 <_ZdlPv@plt>
   6a428: ee 81 00 14  	b	0x8abe0 <_ZdlPv@plt>
   6a478: de 81 00 94  	bl	0x8abf0 <_ZN2cv3Mat10deallocateEv@plt>
   6a570: a4 81 00 94  	bl	0x8ac00 <_ZN2cv8fastFreeEPv@plt>
   6a59c: 95 81 00 94  	bl	0x8abf0 <_ZN2cv3Mat10deallocateEv@plt>
   6a694: 5b 81 00 94  	bl	0x8ac00 <_ZN2cv8fastFreeEPv@plt>
   6a6b8: 4a 81 00 94  	bl	0x8abe0 <_ZdlPv@plt>
   6a6dc: 41 81 00 94  	bl	0x8abe0 <_ZdlPv@plt>
   6a708: 3a 81 00 94  	bl	0x8abf0 <_ZN2cv3Mat10deallocateEv@plt>
   6a804: ff 80 00 94  	bl	0x8ac00 <_ZN2cv8fastFreeEPv@plt>
   6a830: f0 80 00 94  	bl	0x8abf0 <_ZN2cv3Mat10deallocateEv@plt>
   6a92c: b5 80 00 94  	bl	0x8ac00 <_ZN2cv8fastFreeEPv@plt>
   6a94c: b1 80 00 14  	b	0x8ac10 <_ZNSt3__15mutexD1Ev@plt>
   6a988: 96 80 00 14  	b	0x8abe0 <_ZdlPv@plt>
   6b580: 5c 7e 00 14  	b	0x8aef0 <_ZNSt3__119__shared_weak_countD2Ev@plt>
   6b5b0: 50 7e 00 94  	bl	0x8aef0 <_ZNSt3__119__shared_weak_countD2Ev@plt>
   6b5c0: 88 7d 00 14  	b	0x8abe0 <_ZdlPv@plt>
   6b5d8: 82 7d 00 14  	b	0x8abe0 <_ZdlPv@plt>
   6b73c: 85 7d 00 94  	bl	0x8ad50 <_ZN2cv3Mat8copySizeERKS0_@plt>
   6b810: 50 7d 00 94  	bl	0x8ad50 <_ZN2cv3Mat8copySizeERKS0_@plt>
   6b93c: f1 7c 00 94  	bl	0x8ad00 <_ZN2cv3Mat6createEiPKii@plt>
   6b98c: 99 7c 00 94  	bl	0x8abf0 <_ZN2cv3Mat10deallocateEv@plt>
   6ba40: c4 7c 00 94  	bl	0x8ad50 <_ZN2cv3Mat8copySizeERKS0_@plt>
   6bacc: 8d 7c 00 94  	bl	0x8ad00 <_ZN2cv3Mat6createEiPKii@plt>
   6bb28: 76 7c 00 94  	bl	0x8ad00 <_ZN2cv3Mat6createEiPKii@plt>
   6bcdc: c5 7b 00 94  	bl	0x8abf0 <_ZN2cv3Mat10deallocateEv@plt>
   6bddc: 89 7b 00 94  	bl	0x8ac00 <_ZN2cv8fastFreeEPv@plt>
   6be08: 7a 7b 00 94  	bl	0x8abf0 <_ZN2cv3Mat10deallocateEv@plt>
   6bf10: 3c 7b 00 94  	bl	0x8ac00 <_ZN2cv8fastFreeEPv@plt>
   6bf3c: 2d 7b 00 94  	bl	0x8abf0 <_ZN2cv3Mat10deallocateEv@plt>
   6c044: ef 7a 00 94  	bl	0x8ac00 <_ZN2cv8fastFreeEPv@plt>
   6c070: e0 7a 00 94  	bl	0x8abf0 <_ZN2cv3Mat10deallocateEv@plt>
   6c16c: a5 7a 00 94  	bl	0x8ac00 <_ZN2cv8fastFreeEPv@plt>
   6c198: 96 7a 00 94  	bl	0x8abf0 <_ZN2cv3Mat10deallocateEv@plt>
   6c298: 5a 7a 00 94  	bl	0x8ac00 <_ZN2cv8fastFreeEPv@plt>
   6c2b4: 57 7a 00 94  	bl	0x8ac10 <_ZNSt3__15mutexD1Ev@plt>
   6c320: 34 7a 00 94  	bl	0x8abf0 <_ZN2cv3Mat10deallocateEv@plt>
   6c424: f7 79 00 94  	bl	0x8ac00 <_ZN2cv8fastFreeEPv@plt>
   6c450: e8 79 00 94  	bl	0x8abf0 <_ZN2cv3Mat10deallocateEv@plt>
   6c554: ab 79 00 94  	bl	0x8ac00 <_ZN2cv8fastFreeEPv@plt>
   6c580: 9c 79 00 94  	bl	0x8abf0 <_ZN2cv3Mat10deallocateEv@plt>
   6c684: 5f 79 00 94  	bl	0x8ac00 <_ZN2cv8fastFreeEPv@plt>
   6c6b0: 50 79 00 94  	bl	0x8abf0 <_ZN2cv3Mat10deallocateEv@plt>
   6c7ac: 15 79 00 94  	bl	0x8ac00 <_ZN2cv8fastFreeEPv@plt>
   6c7d8: 06 79 00 94  	bl	0x8abf0 <_ZN2cv3Mat10deallocateEv@plt>
   6c8d4: cb 78 00 94  	bl	0x8ac00 <_ZN2cv8fastFreeEPv@plt>
   6c8f4: c7 78 00 14  	b	0x8ac10 <_ZNSt3__15mutexD1Ev@plt>
   6c930: ac 78 00 14  	b	0x8abe0 <_ZdlPv@plt>
   6d6d8: 06 76 00 14  	b	0x8aef0 <_ZNSt3__119__shared_weak_countD2Ev@plt>
   6d708: fa 75 00 94  	bl	0x8aef0 <_ZNSt3__119__shared_weak_countD2Ev@plt>
   6d718: 32 75 00 14  	b	0x8abe0 <_ZdlPv@plt>
   6d730: 2c 75 00 14  	b	0x8abe0 <_ZdlPv@plt>
   6d780: 1c 75 00 94  	bl	0x8abf0 <_ZN2cv3Mat10deallocateEv@plt>
   6d878: e2 74 00 94  	bl	0x8ac00 <_ZN2cv8fastFreeEPv@plt>
   6d8a4: d3 74 00 94  	bl	0x8abf0 <_ZN2cv3Mat10deallocateEv@plt>
   6d99c: 99 74 00 94  	bl	0x8ac00 <_ZN2cv8fastFreeEPv@plt>
   6d9c0: 88 74 00 94  	bl	0x8abe0 <_ZdlPv@plt>
   6d9e4: 7f 74 00 94  	bl	0x8abe0 <_ZdlPv@plt>
   6da10: 78 74 00 94  	bl	0x8abf0 <_ZN2cv3Mat10deallocateEv@plt>
   6db0c: 3d 74 00 94  	bl	0x8ac00 <_ZN2cv8fastFreeEPv@plt>
   6db38: 2e 74 00 94  	bl	0x8abf0 <_ZN2cv3Mat10deallocateEv@plt>
   6dc34: f3 73 00 94  	bl	0x8ac00 <_ZN2cv8fastFreeEPv@plt>
   6dc54: ef 73 00 14  	b	0x8ac10 <_ZNSt3__15mutexD1Ev@plt>
   6dc90: d4 73 00 14  	b	0x8abe0 <_ZdlPv@plt>
   6e878: 9e 71 00 14  	b	0x8aef0 <_ZNSt3__119__shared_weak_countD2Ev@plt>
   6e8a8: 92 71 00 94  	bl	0x8aef0 <_ZNSt3__119__shared_weak_countD2Ev@plt>
   6e8b8: ca 70 00 14  	b	0x8abe0 <_ZdlPv@plt>
   6e8d0: c4 70 00 14  	b	0x8abe0 <_ZdlPv@plt>
   6e920: b4 70 00 94  	bl	0x8abf0 <_ZN2cv3Mat10deallocateEv@plt>
   6ea24: 77 70 00 94  	bl	0x8ac00 <_ZN2cv8fastFreeEPv@plt>
   6ea50: 68 70 00 94  	bl	0x8abf0 <_ZN2cv3Mat10deallocateEv@plt>
   6eb54: 2b 70 00 94  	bl	0x8ac00 <_ZN2cv8fastFreeEPv@plt>
   6eb80: 1c 70 00 94  	bl	0x8abf0 <_ZN2cv3Mat10deallocateEv@plt>
   6ec84: df 6f 00 94  	bl	0x8ac00 <_ZN2cv8fastFreeEPv@plt>
   6eca8: ce 6f 00 94  	bl	0x8abe0 <_ZdlPv@plt>
   6eccc: c5 6f 00 94  	bl	0x8abe0 <_ZdlPv@plt>
   6ecf8: be 6f 00 94  	bl	0x8abf0 <_ZN2cv3Mat10deallocateEv@plt>
   6edf4: 83 6f 00 94  	bl	0x8ac00 <_ZN2cv8fastFreeEPv@plt>
   6ee20: 74 6f 00 94  	bl	0x8abf0 <_ZN2cv3Mat10deallocateEv@plt>
   6ef1c: 39 6f 00 94  	bl	0x8ac00 <_ZN2cv8fastFreeEPv@plt>
   6ef3c: 35 6f 00 14  	b	0x8ac10 <_ZNSt3__15mutexD1Ev@plt>
   6ef78: 1a 6f 00 14  	b	0x8abe0 <_ZdlPv@plt>
   6f4e0: 84 6e 00 14  	b	0x8aef0 <_ZNSt3__119__shared_weak_countD2Ev@plt>
   6f510: 78 6e 00 94  	bl	0x8aef0 <_ZNSt3__119__shared_weak_countD2Ev@plt>
   6f520: b0 6d 00 14  	b	0x8abe0 <_ZdlPv@plt>
   6f538: aa 6d 00 14  	b	0x8abe0 <_ZdlPv@plt>
   6f588: 9a 6d 00 94  	bl	0x8abf0 <_ZN2cv3Mat10deallocateEv@plt>
   6f684: 5f 6d 00 94  	bl	0x8ac00 <_ZN2cv8fastFreeEPv@plt>
   6f6b0: 50 6d 00 94  	bl	0x8abf0 <_ZN2cv3Mat10deallocateEv@plt>
   6f7ac: 15 6d 00 94  	bl	0x8ac00 <_ZN2cv8fastFreeEPv@plt>
   6f7cc: 11 6d 00 14  	b	0x8ac10 <_ZNSt3__15mutexD1Ev@plt>
   6f7f8: fa 6c 00 14  	b	0x8abe0 <_ZdlPv@plt>
   70258: 26 6b 00 14  	b	0x8aef0 <_ZNSt3__119__shared_weak_countD2Ev@plt>
   70288: 1a 6b 00 94  	bl	0x8aef0 <_ZNSt3__119__shared_weak_countD2Ev@plt>
   70298: 52 6a 00 14  	b	0x8abe0 <_ZdlPv@plt>
   702b0: 4c 6a 00 14  	b	0x8abe0 <_ZdlPv@plt>
   70300: 3c 6a 00 94  	bl	0x8abf0 <_ZN2cv3Mat10deallocateEv@plt>
   703fc: 01 6a 00 94  	bl	0x8ac00 <_ZN2cv8fastFreeEPv@plt>
   70428: f2 69 00 94  	bl	0x8abf0 <_ZN2cv3Mat10deallocateEv@plt>
   70524: b7 69 00 94  	bl	0x8ac00 <_ZN2cv8fastFreeEPv@plt>
   70544: b3 69 00 14  	b	0x8ac10 <_ZNSt3__15mutexD1Ev@plt>
   70570: 9c 69 00 14  	b	0x8abe0 <_ZdlPv@plt>
   70858: a6 69 00 14  	b	0x8aef0 <_ZNSt3__119__shared_weak_countD2Ev@plt>
   70888: 9a 69 00 94  	bl	0x8aef0 <_ZNSt3__119__shared_weak_countD2Ev@plt>
   70898: d2 68 00 14  	b	0x8abe0 <_ZdlPv@plt>
   708b0: cc 68 00 14  	b	0x8abe0 <_ZdlPv@plt>
   70900: bc 68 00 94  	bl	0x8abf0 <_ZN2cv3Mat10deallocateEv@plt>
   709fc: 81 68 00 94  	bl	0x8ac00 <_ZN2cv8fastFreeEPv@plt>
   70a28: 72 68 00 94  	bl	0x8abf0 <_ZN2cv3Mat10deallocateEv@plt>
   70b24: 37 68 00 94  	bl	0x8ac00 <_ZN2cv8fastFreeEPv@plt>
   70b44: 33 68 00 14  	b	0x8ac10 <_ZNSt3__15mutexD1Ev@plt>
   70b70: 1c 68 00 14  	b	0x8abe0 <_ZdlPv@plt>
   70e88: 5a 67 00 94  	bl	0x8abf0 <_ZN2cv3Mat10deallocateEv@plt>
   70f7c: 21 67 00 94  	bl	0x8ac00 <_ZN2cv8fastFreeEPv@plt>
   70f94: 1f 67 00 94  	bl	0x8ac10 <_ZNSt3__15mutexD1Ev@plt>
   70fa4: d3 67 00 14  	b	0x8aef0 <_ZNSt3__119__shared_weak_countD2Ev@plt>
   71008: fa 66 00 94  	bl	0x8abf0 <_ZN2cv3Mat10deallocateEv@plt>
   710fc: c1 66 00 94  	bl	0x8ac00 <_ZN2cv8fastFreeEPv@plt>
   71114: bf 66 00 94  	bl	0x8ac10 <_ZNSt3__15mutexD1Ev@plt>
   7111c: 75 67 00 94  	bl	0x8aef0 <_ZNSt3__119__shared_weak_countD2Ev@plt>
   7112c: ad 66 00 14  	b	0x8abe0 <_ZdlPv@plt>
   71148: a6 66 00 14  	b	0x8abe0 <_ZdlPv@plt>
   71198: 96 66 00 94  	bl	0x8abf0 <_ZN2cv3Mat10deallocateEv@plt>
   7128c: 5d 66 00 94  	bl	0x8ac00 <_ZN2cv8fastFreeEPv@plt>
   712ac: 59 66 00 14  	b	0x8ac10 <_ZNSt3__15mutexD1Ev@plt>
   71300: 3c 66 00 94  	bl	0x8abf0 <_ZN2cv3Mat10deallocateEv@plt>
   713f4: 03 66 00 94  	bl	0x8ac00 <_ZN2cv8fastFreeEPv@plt>
   7140c: 01 66 00 94  	bl	0x8ac10 <_ZNSt3__15mutexD1Ev@plt>
   7141c: f1 65 00 14  	b	0x8abe0 <_ZdlPv@plt>
   71640: 2c 66 00 14  	b	0x8aef0 <_ZNSt3__119__shared_weak_countD2Ev@plt>
   71670: 20 66 00 94  	bl	0x8aef0 <_ZNSt3__119__shared_weak_countD2Ev@plt>
   71680: 58 65 00 14  	b	0x8abe0 <_ZdlPv@plt>
   71698: 52 65 00 14  	b	0x8abe0 <_ZdlPv@plt>
   716e8: 42 65 00 94  	bl	0x8abf0 <_ZN2cv3Mat10deallocateEv@plt>
   717ec: 05 65 00 94  	bl	0x8ac00 <_ZN2cv8fastFreeEPv@plt>
   71810: f4 64 00 94  	bl	0x8abe0 <_ZdlPv@plt>
   71834: eb 64 00 94  	bl	0x8abe0 <_ZdlPv@plt>
   71860: e4 64 00 94  	bl	0x8abf0 <_ZN2cv3Mat10deallocateEv@plt>
   7195c: a9 64 00 94  	bl	0x8ac00 <_ZN2cv8fastFreeEPv@plt>
   71988: 9a 64 00 94  	bl	0x8abf0 <_ZN2cv3Mat10deallocateEv@plt>
   71a84: 5f 64 00 94  	bl	0x8ac00 <_ZN2cv8fastFreeEPv@plt>
   71aa4: 5b 64 00 14  	b	0x8ac10 <_ZNSt3__15mutexD1Ev@plt>
   71ad8: 42 64 00 14  	b	0x8abe0 <_ZdlPv@plt>
   72084: d7 62 00 94  	bl	0x8abe0 <_ZdlPv@plt>
   720c8: aa 62 00 94  	bl	0x8ab70 <_Znwm@plt>
   721ac: cd 62 00 94  	bl	0x8ace0 <_ZNKSt3__120__vector_base_commonILb1EE20__throw_length_errorEv@plt>
   726d0: 08 62 00 14  	b	0x8aef0 <_ZNSt3__119__shared_weak_countD2Ev@plt>
   72700: fc 61 00 94  	bl	0x8aef0 <_ZNSt3__119__shared_weak_countD2Ev@plt>
   72710: 34 61 00 14  	b	0x8abe0 <_ZdlPv@plt>
   72728: 2e 61 00 14  	b	0x8abe0 <_ZdlPv@plt>
   72778: 1e 61 00 94  	bl	0x8abf0 <_ZN2cv3Mat10deallocateEv@plt>
   7287c: e1 60 00 94  	bl	0x8ac00 <_ZN2cv8fastFreeEPv@plt>
   728a8: d2 60 00 94  	bl	0x8abf0 <_ZN2cv3Mat10deallocateEv@plt>
   729ac: 95 60 00 94  	bl	0x8ac00 <_ZN2cv8fastFreeEPv@plt>
   729d8: 86 60 00 94  	bl	0x8abf0 <_ZN2cv3Mat10deallocateEv@plt>
   72adc: 49 60 00 94  	bl	0x8ac00 <_ZN2cv8fastFreeEPv@plt>
   72b00: 38 60 00 94  	bl	0x8abe0 <_ZdlPv@plt>
   72b24: 2f 60 00 94  	bl	0x8abe0 <_ZdlPv@plt>
   72b50: 28 60 00 94  	bl	0x8abf0 <_ZN2cv3Mat10deallocateEv@plt>
   72c4c: ed 5f 00 94  	bl	0x8ac00 <_ZN2cv8fastFreeEPv@plt>
   72c78: de 5f 00 94  	bl	0x8abf0 <_ZN2cv3Mat10deallocateEv@plt>
   72d74: a3 5f 00 94  	bl	0x8ac00 <_ZN2cv8fastFreeEPv@plt>
   72d94: 9f 5f 00 14  	b	0x8ac10 <_ZNSt3__15mutexD1Ev@plt>
   72dd0: 84 5f 00 14  	b	0x8abe0 <_ZdlPv@plt>
   73438: ae 5e 00 14  	b	0x8aef0 <_ZNSt3__119__shared_weak_countD2Ev@plt>
   73468: a2 5e 00 94  	bl	0x8aef0 <_ZNSt3__119__shared_weak_countD2Ev@plt>
   73478: da 5d 00 14  	b	0x8abe0 <_ZdlPv@plt>
   73490: d4 5d 00 14  	b	0x8abe0 <_ZdlPv@plt>
   734e0: c4 5d 00 94  	bl	0x8abf0 <_ZN2cv3Mat10deallocateEv@plt>
   735d8: 8a 5d 00 94  	bl	0x8ac00 <_ZN2cv8fastFreeEPv@plt>
   73604: 7b 5d 00 94  	bl	0x8abf0 <_ZN2cv3Mat10deallocateEv@plt>
   736fc: 41 5d 00 94  	bl	0x8ac00 <_ZN2cv8fastFreeEPv@plt>
   73728: 32 5d 00 94  	bl	0x8abf0 <_ZN2cv3Mat10deallocateEv@plt>
   73820: f8 5c 00 94  	bl	0x8ac00 <_ZN2cv8fastFreeEPv@plt>
   7384c: e9 5c 00 94  	bl	0x8abf0 <_ZN2cv3Mat10deallocateEv@plt>
   73944: af 5c 00 94  	bl	0x8ac00 <_ZN2cv8fastFreeEPv@plt>
   73968: 9e 5c 00 94  	bl	0x8abe0 <_ZdlPv@plt>
   7398c: 95 5c 00 94  	bl	0x8abe0 <_ZdlPv@plt>
   739b8: 8e 5c 00 94  	bl	0x8abf0 <_ZN2cv3Mat10deallocateEv@plt>
   73ab4: 53 5c 00 94  	bl	0x8ac00 <_ZN2cv8fastFreeEPv@plt>
   73ae0: 44 5c 00 94  	bl	0x8abf0 <_ZN2cv3Mat10deallocateEv@plt>
   73bdc: 09 5c 00 94  	bl	0x8ac00 <_ZN2cv8fastFreeEPv@plt>
   73bfc: 05 5c 00 14  	b	0x8ac10 <_ZNSt3__15mutexD1Ev@plt>
   73c40: e8 5b 00 14  	b	0x8abe0 <_ZdlPv@plt>
   74940: 6c 59 00 14  	b	0x8aef0 <_ZNSt3__119__shared_weak_countD2Ev@plt>
   74970: 60 59 00 94  	bl	0x8aef0 <_ZNSt3__119__shared_weak_countD2Ev@plt>
   74980: 98 58 00 14  	b	0x8abe0 <_ZdlPv@plt>
   74998: 92 58 00 14  	b	0x8abe0 <_ZdlPv@plt>
   749e8: 82 58 00 94  	bl	0x8abf0 <_ZN2cv3Mat10deallocateEv@plt>
   74ae0: 48 58 00 94  	bl	0x8ac00 <_ZN2cv8fastFreeEPv@plt>
   74b0c: 39 58 00 94  	bl	0x8abf0 <_ZN2cv3Mat10deallocateEv@plt>
   74c04: ff 57 00 94  	bl	0x8ac00 <_ZN2cv8fastFreeEPv@plt>
   74c30: f0 57 00 94  	bl	0x8abf0 <_ZN2cv3Mat10deallocateEv@plt>
   74d28: b6 57 00 94  	bl	0x8ac00 <_ZN2cv8fastFreeEPv@plt>
   74d4c: a5 57 00 94  	bl	0x8abe0 <_ZdlPv@plt>
   74d70: 9c 57 00 94  	bl	0x8abe0 <_ZdlPv@plt>
   74d9c: 95 57 00 94  	bl	0x8abf0 <_ZN2cv3Mat10deallocateEv@plt>
   74e98: 5a 57 00 94  	bl	0x8ac00 <_ZN2cv8fastFreeEPv@plt>
   74ec4: 4b 57 00 94  	bl	0x8abf0 <_ZN2cv3Mat10deallocateEv@plt>
   74fc0: 10 57 00 94  	bl	0x8ac00 <_ZN2cv8fastFreeEPv@plt>
   74fe0: 0c 57 00 14  	b	0x8ac10 <_ZNSt3__15mutexD1Ev@plt>
   75020: f0 56 00 14  	b	0x8abe0 <_ZdlPv@plt>
   75da0: 54 54 00 14  	b	0x8aef0 <_ZNSt3__119__shared_weak_countD2Ev@plt>
   75dd0: 48 54 00 94  	bl	0x8aef0 <_ZNSt3__119__shared_weak_countD2Ev@plt>
   75de0: 80 53 00 14  	b	0x8abe0 <_ZdlPv@plt>
   75df8: 7a 53 00 14  	b	0x8abe0 <_ZdlPv@plt>
   75e48: 6a 53 00 94  	bl	0x8abf0 <_ZN2cv3Mat10deallocateEv@plt>
   75f40: 30 53 00 94  	bl	0x8ac00 <_ZN2cv8fastFreeEPv@plt>
   75f64: 1f 53 00 94  	bl	0x8abe0 <_ZdlPv@plt>
   75f88: 16 53 00 94  	bl	0x8abe0 <_ZdlPv@plt>
   75fb4: 0f 53 00 94  	bl	0x8abf0 <_ZN2cv3Mat10deallocateEv@plt>
   760b0: d4 52 00 94  	bl	0x8ac00 <_ZN2cv8fastFreeEPv@plt>
   760dc: c5 52 00 94  	bl	0x8abf0 <_ZN2cv3Mat10deallocateEv@plt>
   761d8: 8a 52 00 94  	bl	0x8ac00 <_ZN2cv8fastFreeEPv@plt>
   761f8: 86 52 00 14  	b	0x8ac10 <_ZNSt3__15mutexD1Ev@plt>
   76230: 6c 52 00 14  	b	0x8abe0 <_ZdlPv@plt>
   76740: ec 51 00 14  	b	0x8aef0 <_ZNSt3__119__shared_weak_countD2Ev@plt>
   76770: e0 51 00 94  	bl	0x8aef0 <_ZNSt3__119__shared_weak_countD2Ev@plt>
   76780: 18 51 00 14  	b	0x8abe0 <_ZdlPv@plt>
   76798: 12 51 00 14  	b	0x8abe0 <_ZdlPv@plt>
   767e8: 02 51 00 94  	bl	0x8abf0 <_ZN2cv3Mat10deallocateEv@plt>
   768e0: c8 50 00 94  	bl	0x8ac00 <_ZN2cv8fastFreeEPv@plt>
   76904: b7 50 00 94  	bl	0x8abe0 <_ZdlPv@plt>
   76928: ae 50 00 94  	bl	0x8abe0 <_ZdlPv@plt>
   76954: a7 50 00 94  	bl	0x8abf0 <_ZN2cv3Mat10deallocateEv@plt>
   76a50: 6c 50 00 94  	bl	0x8ac00 <_ZN2cv8fastFreeEPv@plt>
   76a7c: 5d 50 00 94  	bl	0x8abf0 <_ZN2cv3Mat10deallocateEv@plt>
   76b78: 22 50 00 94  	bl	0x8ac00 <_ZN2cv8fastFreeEPv@plt>
   76b98: 1e 50 00 14  	b	0x8ac10 <_ZNSt3__15mutexD1Ev@plt>
   76bd0: 04 50 00 14  	b	0x8abe0 <_ZdlPv@plt>
   77528: c2 4d 00 94  	bl	0x8ac30 <_ZN2cv12getTickCountEv@plt>
   775d0: 88 4d 00 94  	bl	0x8abf0 <_ZN2cv3Mat10deallocateEv@plt>
   776dc: 49 4d 00 94  	bl	0x8ac00 <_ZN2cv8fastFreeEPv@plt>
   77740: 30 4d 00 94  	bl	0x8ac00 <_ZN2cv8fastFreeEPv@plt>
   777a8: 12 4d 00 94  	bl	0x8abf0 <_ZN2cv3Mat10deallocateEv@plt>
   778a0: d8 4c 00 94  	bl	0x8ac00 <_ZN2cv8fastFreeEPv@plt>
   778a4: e3 4c 00 94  	bl	0x8ac30 <_ZN2cv12getTickCountEv@plt>
   77994: 97 4c 00 94  	bl	0x8abf0 <_ZN2cv3Mat10deallocateEv@plt>
   77a48: 6a 4c 00 94  	bl	0x8abf0 <_ZN2cv3Mat10deallocateEv@plt>
   77ae0: 9c 4c 00 94  	bl	0x8ad50 <_ZN2cv3Mat8copySizeERKS0_@plt>
   77af8: ca 4c 00 94  	bl	0x8ae20 <_ZNSt3__15mutex4lockEv@plt>
   77b68: 22 4c 00 94  	bl	0x8abf0 <_ZN2cv3Mat10deallocateEv@plt>
   77c00: 54 4c 00 94  	bl	0x8ad50 <_ZN2cv3Mat8copySizeERKS0_@plt>
   77c38: 7a 4c 00 94  	bl	0x8ae20 <_ZNSt3__15mutex4lockEv@plt>
   77cb0: 28 4c 00 94  	bl	0x8ad50 <_ZN2cv3Mat8copySizeERKS0_@plt>
   77cc8: 56 4c 00 94  	bl	0x8ae20 <_ZNSt3__15mutex4lockEv@plt>
   77cf0: 58 4c 00 94  	bl	0x8ae50 <_ZNSt3__15mutex6unlockEv@plt>
   77d48: aa 4b 00 94  	bl	0x8abf0 <_ZN2cv3Mat10deallocateEv@plt>
   77e44: 6f 4b 00 94  	bl	0x8ac00 <_ZN2cv8fastFreeEPv@plt>
   77e70: 60 4b 00 94  	bl	0x8abf0 <_ZN2cv3Mat10deallocateEv@plt>
   77f6c: 25 4b 00 94  	bl	0x8ac00 <_ZN2cv8fastFreeEPv@plt>
   77f98: 16 4b 00 94  	bl	0x8abf0 <_ZN2cv3Mat10deallocateEv@plt>
   78094: db 4a 00 94  	bl	0x8ac00 <_ZN2cv8fastFreeEPv@plt>
   780b8: ca 4a 00 94  	bl	0x8abe0 <_ZdlPv@plt>
   78110: b8 4a 00 94  	bl	0x8abf0 <_ZN2cv3Mat10deallocateEv@plt>
   78158: aa 4a 00 94  	bl	0x8ac00 <_ZN2cv8fastFreeEPv@plt>
   7818c: 95 4a 00 94  	bl	0x8abe0 <_ZdlPv@plt>
   781e4: 83 4a 00 94  	bl	0x8abf0 <_ZN2cv3Mat10deallocateEv@plt>
   7822c: 75 4a 00 94  	bl	0x8ac00 <_ZN2cv8fastFreeEPv@plt>
   78260: 60 4a 00 94  	bl	0x8abe0 <_ZdlPv@plt>
   782a0: 64 4a 00 94  	bl	0x8ac30 <_ZN2cv12getTickCountEv@plt>
   7830c: 49 4a 00 94  	bl	0x8ac30 <_ZN2cv12getTickCountEv@plt>
   78360: 78 4a 00 94  	bl	0x8ad40 <_ZNK2cv3Mat9convertToERKNS_12_OutputArrayEidd@plt>
   7845c: 49 4a 00 94  	bl	0x8ad80 <_ZNK2cv3Mat6copyToERKNS_12_OutputArrayE@plt>
   78470: 44 4a 00 94  	bl	0x8ad80 <_ZNK2cv3Mat6copyToERKNS_12_OutputArrayE@plt>
   78490: e8 49 00 94  	bl	0x8ac30 <_ZN2cv12getTickCountEv@plt>
   784a4: 03 4a 00 94  	bl	0x8acb0 <_ZN2cv16getTickFrequencyEv@plt>
   784ec: f1 49 00 94  	bl	0x8acb0 <_ZN2cv16getTickFrequencyEv@plt>
   78530: e0 49 00 94  	bl	0x8acb0 <_ZN2cv16getTickFrequencyEv@plt>
   78578: ce 49 00 94  	bl	0x8acb0 <_ZN2cv16getTickFrequencyEv@plt>
   78660: 64 49 00 94  	bl	0x8abf0 <_ZN2cv3Mat10deallocateEv@plt>
   787b0: 10 49 00 94  	bl	0x8abf0 <_ZN2cv3Mat10deallocateEv@plt>
   788a8: d6 48 00 94  	bl	0x8ac00 <_ZN2cv8fastFreeEPv@plt>
   78940: b0 48 00 94  	bl	0x8ac00 <_ZN2cv8fastFreeEPv@plt>
   789a0: 94 48 00 94  	bl	0x8abf0 <_ZN2cv3Mat10deallocateEv@plt>
   78a98: 5a 48 00 94  	bl	0x8ac00 <_ZN2cv8fastFreeEPv@plt>
   78ad8: 46 48 00 94  	bl	0x8abf0 <_ZN2cv3Mat10deallocateEv@plt>
   78bd8: 0a 48 00 94  	bl	0x8ac00 <_ZN2cv8fastFreeEPv@plt>
   78c10: f8 47 00 94  	bl	0x8abf0 <_ZN2cv3Mat10deallocateEv@plt>
   78d08: be 47 00 94  	bl	0x8ac00 <_ZN2cv8fastFreeEPv@plt>
   78d4c: a9 47 00 94  	bl	0x8abf0 <_ZN2cv3Mat10deallocateEv@plt>
   78e48: 6e 47 00 94  	bl	0x8ac00 <_ZN2cv8fastFreeEPv@plt>
   78e74: 5f 47 00 94  	bl	0x8abf0 <_ZN2cv3Mat10deallocateEv@plt>
   78f70: 24 47 00 94  	bl	0x8ac00 <_ZN2cv8fastFreeEPv@plt>
   78f9c: 15 47 00 94  	bl	0x8abf0 <_ZN2cv3Mat10deallocateEv@plt>
   79098: da 46 00 94  	bl	0x8ac00 <_ZN2cv8fastFreeEPv@plt>
   790bc: c9 46 00 94  	bl	0x8abe0 <_ZdlPv@plt>
   79114: b7 46 00 94  	bl	0x8abf0 <_ZN2cv3Mat10deallocateEv@plt>
   7915c: a9 46 00 94  	bl	0x8ac00 <_ZN2cv8fastFreeEPv@plt>
   79190: 94 46 00 94  	bl	0x8abe0 <_ZdlPv@plt>
   791e8: 82 46 00 94  	bl	0x8abf0 <_ZN2cv3Mat10deallocateEv@plt>
   79230: 74 46 00 94  	bl	0x8ac00 <_ZN2cv8fastFreeEPv@plt>
   79268: 5e 46 00 94  	bl	0x8abe0 <_ZdlPv@plt>
   792d0: 48 46 00 94  	bl	0x8abf0 <_ZN2cv3Mat10deallocateEv@plt>
   793cc: 0d 46 00 94  	bl	0x8ac00 <_ZN2cv8fastFreeEPv@plt>
   79408: f6 45 00 94  	bl	0x8abe0 <_ZdlPv@plt>
   79434: ef 45 00 94  	bl	0x8abf0 <_ZN2cv3Mat10deallocateEv@plt>
   79530: b4 45 00 94  	bl	0x8ac00 <_ZN2cv8fastFreeEPv@plt>
   795c8: 9a 45 00 94  	bl	0x8ac30 <_ZN2cv12getTickCountEv@plt>
   79814: d7 44 00 94  	bl	0x8ab70 <_Znwm@plt>
   7990c: 99 44 00 94  	bl	0x8ab70 <_Znwm@plt>
   79ce0: 4c 44 00 94  	bl	0x8ae10 <_ZNSt3__16threadD1Ev@plt>
   79d0c: b9 43 00 94  	bl	0x8abf0 <_ZN2cv3Mat10deallocateEv@plt>
   79df4: ef 43 00 94  	bl	0x8adb0 <_ZN2cv3MatC1ERKS0_RKNS_5Rect_IiEE@plt>
   79e38: 6e 43 00 94  	bl	0x8abf0 <_ZN2cv3Mat10deallocateEv@plt>
   79ed4: 4b 43 00 94  	bl	0x8ac00 <_ZN2cv8fastFreeEPv@plt>
   79f34: 2f 43 00 94  	bl	0x8abf0 <_ZN2cv3Mat10deallocateEv@plt>
   7a054: eb 42 00 94  	bl	0x8ac00 <_ZN2cv8fastFreeEPv@plt>
   7a070: 50 43 00 94  	bl	0x8adb0 <_ZN2cv3MatC1ERKS0_RKNS_5Rect_IiEE@plt>
   7a0b4: cf 42 00 94  	bl	0x8abf0 <_ZN2cv3Mat10deallocateEv@plt>
   7a150: ac 42 00 94  	bl	0x8ac00 <_ZN2cv8fastFreeEPv@plt>
   7a1b0: 90 42 00 94  	bl	0x8abf0 <_ZN2cv3Mat10deallocateEv@plt>
   7a2d0: 4c 42 00 94  	bl	0x8ac00 <_ZN2cv8fastFreeEPv@plt>
   7a2e4: b3 42 00 94  	bl	0x8adb0 <_ZN2cv3MatC1ERKS0_RKNS_5Rect_IiEE@plt>
   7a318: 36 42 00 94  	bl	0x8abf0 <_ZN2cv3Mat10deallocateEv@plt>
   7a41c: f9 41 00 94  	bl	0x8ac00 <_ZN2cv8fastFreeEPv@plt>
   7a448: ea 41 00 94  	bl	0x8abf0 <_ZN2cv3Mat10deallocateEv@plt>
   7a548: ae 41 00 94  	bl	0x8ac00 <_ZN2cv8fastFreeEPv@plt>
   7a574: 9f 41 00 94  	bl	0x8abf0 <_ZN2cv3Mat10deallocateEv@plt>
   7a674: 63 41 00 94  	bl	0x8ac00 <_ZN2cv8fastFreeEPv@plt>
   7a6cc: 49 41 00 94  	bl	0x8abf0 <_ZN2cv3Mat10deallocateEv@plt>
   7a714: 3b 41 00 94  	bl	0x8ac00 <_ZN2cv8fastFreeEPv@plt>
   7a748: 26 41 00 94  	bl	0x8abe0 <_ZdlPv@plt>
   7a774: 1f 41 00 94  	bl	0x8abf0 <_ZN2cv3Mat10deallocateEv@plt>
   7a874: e3 40 00 94  	bl	0x8ac00 <_ZN2cv8fastFreeEPv@plt>
   7a8a0: d4 40 00 94  	bl	0x8abf0 <_ZN2cv3Mat10deallocateEv@plt>
   7a9a0: 98 40 00 94  	bl	0x8ac00 <_ZN2cv8fastFreeEPv@plt>
   7a9cc: 89 40 00 94  	bl	0x8abf0 <_ZN2cv3Mat10deallocateEv@plt>
   7aacc: 4d 40 00 94  	bl	0x8ac00 <_ZN2cv8fastFreeEPv@plt>
   7aaf8: 3e 40 00 94  	bl	0x8abf0 <_ZN2cv3Mat10deallocateEv@plt>
   7abf8: 02 40 00 94  	bl	0x8ac00 <_ZN2cv8fastFreeEPv@plt>
   7ac24: f3 3f 00 94  	bl	0x8abf0 <_ZN2cv3Mat10deallocateEv@plt>
   7ad24: b7 3f 00 94  	bl	0x8ac00 <_ZN2cv8fastFreeEPv@plt>
   7ad50: a8 3f 00 94  	bl	0x8abf0 <_ZN2cv3Mat10deallocateEv@plt>
   7ae50: 6c 3f 00 94  	bl	0x8ac00 <_ZN2cv8fastFreeEPv@plt>
   7ae7c: 5d 3f 00 94  	bl	0x8abf0 <_ZN2cv3Mat10deallocateEv@plt>
   7af80: 20 3f 00 94  	bl	0x8ac00 <_ZN2cv8fastFreeEPv@plt>
   7afac: 11 3f 00 94  	bl	0x8abf0 <_ZN2cv3Mat10deallocateEv@plt>
   7b0ac: d5 3e 00 94  	bl	0x8ac00 <_ZN2cv8fastFreeEPv@plt>
   7b0d8: c6 3e 00 94  	bl	0x8abf0 <_ZN2cv3Mat10deallocateEv@plt>
   7b1d8: 8a 3e 00 94  	bl	0x8ac00 <_ZN2cv8fastFreeEPv@plt>
   7b204: 7b 3e 00 94  	bl	0x8abf0 <_ZN2cv3Mat10deallocateEv@plt>
   7b304: 3f 3e 00 94  	bl	0x8ac00 <_ZN2cv8fastFreeEPv@plt>
   7b330: 30 3e 00 94  	bl	0x8abf0 <_ZN2cv3Mat10deallocateEv@plt>
   7b42c: f5 3d 00 94  	bl	0x8ac00 <_ZN2cv8fastFreeEPv@plt>
   7b484: db 3d 00 94  	bl	0x8abf0 <_ZN2cv3Mat10deallocateEv@plt>
   7b4cc: cd 3d 00 94  	bl	0x8ac00 <_ZN2cv8fastFreeEPv@plt>
   7b500: b8 3d 00 94  	bl	0x8abe0 <_ZdlPv@plt>
   7b558: a6 3d 00 94  	bl	0x8abf0 <_ZN2cv3Mat10deallocateEv@plt>
   7b5a0: 98 3d 00 94  	bl	0x8ac00 <_ZN2cv8fastFreeEPv@plt>
   7b5d4: 83 3d 00 94  	bl	0x8abe0 <_ZdlPv@plt>
   7b6d0: 4c 3d 00 94  	bl	0x8ac00 <_ZN2cv8fastFreeEPv@plt>
   7b738: 32 3d 00 94  	bl	0x8ac00 <_ZN2cv8fastFreeEPv@plt>
   7b784: 8b 3d 00 94  	bl	0x8adb0 <_ZN2cv3MatC1ERKS0_RKNS_5Rect_IiEE@plt>
   7b7b0: 10 3d 00 94  	bl	0x8abf0 <_ZN2cv3Mat10deallocateEv@plt>
   7b8c4: cf 3c 00 94  	bl	0x8ac00 <_ZN2cv8fastFreeEPv@plt>
   7b934: b3 3c 00 94  	bl	0x8ac00 <_ZN2cv8fastFreeEPv@plt>
   7b970: b0 3c 00 94  	bl	0x8ac30 <_ZN2cv12getTickCountEv@plt>
   7b9a4: a3 3c 00 94  	bl	0x8ac30 <_ZN2cv12getTickCountEv@plt>
   7ba04: df 3c 00 94  	bl	0x8ad80 <_ZNK2cv3Mat6copyToERKNS_12_OutputArrayE@plt>
   7ba30: d4 3c 00 94  	bl	0x8ad80 <_ZNK2cv3Mat6copyToERKNS_12_OutputArrayE@plt>
   7ba4c: 79 3c 00 94  	bl	0x8ac30 <_ZN2cv12getTickCountEv@plt>
   7ba60: d4 3c 00 94  	bl	0x8adb0 <_ZN2cv3MatC1ERKS0_RKNS_5Rect_IiEE@plt>
   7ba90: 58 3c 00 94  	bl	0x8abf0 <_ZN2cv3Mat10deallocateEv@plt>
   7bb04: 1b 3c 00 94  	bl	0x8ab70 <_Znwm@plt>
   7bb0c: 15 3d 00 94  	bl	0x8af60 <_ZNSt3__115__thread_structC1Ev@plt>
   7bb18: 16 3c 00 94  	bl	0x8ab70 <_Znwm@plt>
   7bc50: ec 3b 00 94  	bl	0x8ac00 <_ZN2cv8fastFreeEPv@plt>
   7bcb8: d2 3b 00 94  	bl	0x8ac00 <_ZN2cv8fastFreeEPv@plt>
   7bd00: 2c 3c 00 94  	bl	0x8adb0 <_ZN2cv3MatC1ERKS0_RKNS_5Rect_IiEE@plt>
   7bd2c: b1 3b 00 94  	bl	0x8abf0 <_ZN2cv3Mat10deallocateEv@plt>
   7be40: 70 3b 00 94  	bl	0x8ac00 <_ZN2cv8fastFreeEPv@plt>
   7beb0: 54 3b 00 94  	bl	0x8ac00 <_ZN2cv8fastFreeEPv@plt>
   7bf0c: 49 3b 00 94  	bl	0x8ac30 <_ZN2cv12getTickCountEv@plt>
   7bf24: 63 3b 00 94  	bl	0x8acb0 <_ZN2cv16getTickFrequencyEv@plt>
   7bf70: 50 3b 00 94  	bl	0x8acb0 <_ZN2cv16getTickFrequencyEv@plt>
   7bfbc: 3d 3b 00 94  	bl	0x8acb0 <_ZN2cv16getTickFrequencyEv@plt>
   7c004: 2b 3b 00 94  	bl	0x8acb0 <_ZN2cv16getTickFrequencyEv@plt>
   7c04c: 19 3b 00 94  	bl	0x8acb0 <_ZN2cv16getTickFrequencyEv@plt>
   7c094: 07 3b 00 94  	bl	0x8acb0 <_ZN2cv16getTickFrequencyEv@plt>
   7c0dc: f5 3a 00 94  	bl	0x8acb0 <_ZN2cv16getTickFrequencyEv@plt>
   7c190: 08 3b 00 94  	bl	0x8adb0 <_ZN2cv3MatC1ERKS0_RKNS_5Rect_IiEE@plt>
   7c230: c8 3a 00 94  	bl	0x8ad50 <_ZN2cv3Mat8copySizeERKS0_@plt>
   7c308: 3e 3a 00 94  	bl	0x8ac00 <_ZN2cv8fastFreeEPv@plt>
   7c340: b4 3a 00 94  	bl	0x8ae10 <_ZNSt3__16threadD1Ev@plt>
   7c390: f8 39 00 94  	bl	0x8ab70 <_Znwm@plt>
   7c448: fa 39 00 94  	bl	0x8ac30 <_ZN2cv12getTickCountEv@plt>
   7c4c4: db 39 00 94  	bl	0x8ac30 <_ZN2cv12getTickCountEv@plt>
   7c634: 6f 39 00 94  	bl	0x8abf0 <_ZN2cv3Mat10deallocateEv@plt>
   7c848: 2e 39 00 94  	bl	0x8ad00 <_ZN2cv3Mat6createEiPKii@plt>
   7c86c: 59 39 00 94  	bl	0x8add0 <_ZN2cv3MataSERKNS_7Scalar_IdEE@plt>
   7c988: f2 38 00 94  	bl	0x8ad50 <_ZN2cv3Mat8copySizeERKS0_@plt>
   7c9cc: d9 38 00 94  	bl	0x8ad30 <_ZN2cv3Mat5zerosEiii@plt>
   7cc1c: f5 37 00 94  	bl	0x8abf0 <_ZN2cv3Mat10deallocateEv@plt>
   7cd1c: b9 37 00 94  	bl	0x8ac00 <_ZN2cv8fastFreeEPv@plt>
   7cfb0: 9c 38 00 94  	bl	0x8b220 <_ZN2cvplERKNS_3MatERKNS_7Scalar_IdEE@plt>
   7d100: 44 37 00 94  	bl	0x8ae10 <_ZNSt3__16threadD1Ev@plt>
   7d1a0: 1c 37 00 94  	bl	0x8ae10 <_ZNSt3__16threadD1Ev@plt>
   7d294: df 36 00 94  	bl	0x8ae10 <_ZNSt3__16threadD1Ev@plt>
   7d334: b7 36 00 94  	bl	0x8ae10 <_ZNSt3__16threadD1Ev@plt>
   7d408: 96 36 00 94  	bl	0x8ae60 <_ZNSt3__16thread4joinEv@plt>
   7d42c: 79 36 00 94  	bl	0x8ae10 <_ZNSt3__16threadD1Ev@plt>
   7d458: e2 35 00 94  	bl	0x8abe0 <_ZdlPv@plt>
   7d4a4: d3 35 00 94  	bl	0x8abf0 <_ZN2cv3Mat10deallocateEv@plt>
   7d550: 00 36 00 94  	bl	0x8ad50 <_ZN2cv3Mat8copySizeERKS0_@plt>
   7d5fc: d5 35 00 94  	bl	0x8ad50 <_ZN2cv3Mat8copySizeERKS0_@plt>
   7d688: ea 36 00 94  	bl	0x8b230 <_ZN2cv12findContoursERKNS_11_InputArrayERKNS_12_OutputArrayES5_iiNS_6Point_IiEE@plt>
   7d6d0: 28 35 00 94  	bl	0x8ab70 <_Znwm@plt>
   7d710: 18 35 00 94  	bl	0x8ab70 <_Znwm@plt>
   7d748: 0a 35 00 94  	bl	0x8ab70 <_Znwm@plt>
   7d780: fc 34 00 94  	bl	0x8ab70 <_Znwm@plt>
   7da20: 08 36 00 94  	bl	0x8b240 <_ZN2cv12approxPolyDPERKNS_11_InputArrayERKNS_12_OutputArrayEdb@plt>
   7da4c: 69 34 00 94  	bl	0x8abf0 <_ZN2cv3Mat10deallocateEv@plt>
   7db40: 30 34 00 94  	bl	0x8ac00 <_ZN2cv8fastFreeEPv@plt>
   7dbe8: 9a 35 00 94  	bl	0x8b250 <_ZN2cv12boundingRectERKNS_11_InputArrayE@plt>
   7dc40: ec 33 00 94  	bl	0x8abf0 <_ZN2cv3Mat10deallocateEv@plt>
   7dd34: b3 33 00 94  	bl	0x8ac00 <_ZN2cv8fastFreeEPv@plt>
   7df18: a6 33 00 94  	bl	0x8adb0 <_ZN2cv3MatC1ERKS0_RKNS_5Rect_IiEE@plt>
   7df3c: 9d 33 00 94  	bl	0x8adb0 <_ZN2cv3MatC1ERKS0_RKNS_5Rect_IiEE@plt>
   7df5c: 95 33 00 94  	bl	0x8adb0 <_ZN2cv3MatC1ERKS0_RKNS_5Rect_IiEE@plt>
   7df7c: 8d 33 00 94  	bl	0x8adb0 <_ZN2cv3MatC1ERKS0_RKNS_5Rect_IiEE@plt>
   7dfc0: 50 33 00 94  	bl	0x8ad00 <_ZN2cv3Mat6createEiPKii@plt>
   7e098: 62 34 00 94  	bl	0x8b220 <_ZN2cvplERKNS_3MatERKNS_7Scalar_IdEE@plt>
   7e238: 6e 32 00 94  	bl	0x8abf0 <_ZN2cv3Mat10deallocateEv@plt>
   7e32c: 35 32 00 94  	bl	0x8ac00 <_ZN2cv8fastFreeEPv@plt>
   7e358: 26 32 00 94  	bl	0x8abf0 <_ZN2cv3Mat10deallocateEv@plt>
   7e454: eb 31 00 94  	bl	0x8ac00 <_ZN2cv8fastFreeEPv@plt>
   7e480: dc 31 00 94  	bl	0x8abf0 <_ZN2cv3Mat10deallocateEv@plt>
   7e580: a0 31 00 94  	bl	0x8ac00 <_ZN2cv8fastFreeEPv@plt>
   7e5ac: 91 31 00 94  	bl	0x8abf0 <_ZN2cv3Mat10deallocateEv@plt>
   7e6a8: 56 31 00 94  	bl	0x8ac00 <_ZN2cv8fastFreeEPv@plt>
   7e6d4: 47 31 00 94  	bl	0x8abf0 <_ZN2cv3Mat10deallocateEv@plt>
   7e7d4: 0b 31 00 94  	bl	0x8ac00 <_ZN2cv8fastFreeEPv@plt>
   7e82c: 35 31 00 94  	bl	0x8ad00 <_ZN2cv3Mat6createEiPKii@plt>
   7e914: 43 32 00 94  	bl	0x8b220 <_ZN2cvplERKNS_3MatERKNS_7Scalar_IdEE@plt>
   7ea74: 63 30 00 94  	bl	0x8ac00 <_ZN2cv8fastFreeEPv@plt>
   7eaa0: 54 30 00 94  	bl	0x8abf0 <_ZN2cv3Mat10deallocateEv@plt>
   7eb98: 1a 30 00 94  	bl	0x8ac00 <_ZN2cv8fastFreeEPv@plt>
   7eba8: 22 30 00 94  	bl	0x8ac30 <_ZN2cv12getTickCountEv@plt>
   7ec00: 0c 30 00 94  	bl	0x8ac30 <_ZN2cv12getTickCountEv@plt>
   7ec10: 28 30 00 94  	bl	0x8acb0 <_ZN2cv16getTickFrequencyEv@plt>
   7ec54: 17 30 00 94  	bl	0x8acb0 <_ZN2cv16getTickFrequencyEv@plt>
   7ec98: 06 30 00 94  	bl	0x8acb0 <_ZN2cv16getTickFrequencyEv@plt>
   7ed28: b2 2f 00 94  	bl	0x8abf0 <_ZN2cv3Mat10deallocateEv@plt>
   7ed70: a4 2f 00 94  	bl	0x8ac00 <_ZN2cv8fastFreeEPv@plt>
   7eda4: 8f 2f 00 94  	bl	0x8abe0 <_ZdlPv@plt>
   7eda8: a2 2f 00 94  	bl	0x8ac30 <_ZN2cv12getTickCountEv@plt>
   7edd0: e4 30 00 94  	bl	0x8b160 <_ZN2cv3Mat5zerosENS_5Size_IiEEi@plt>
   7eec0: 78 2f 00 94  	bl	0x8aca0 <_ZN2cv12countNonZeroERKNS_11_InputArrayE@plt>
   7ef1c: 4d 2f 00 94  	bl	0x8ac50 <_ZN2cv7noArrayEv@plt>
   7ef30: cc 30 00 94  	bl	0x8b260 <_ZN2cv10bitwise_orERKNS_11_InputArrayES2_RKNS_12_OutputArrayES2_@plt>
   7efc0: ac 30 00 94  	bl	0x8b270 <_ZN2cv7inRangeERKNS_11_InputArrayES2_S2_RKNS_12_OutputArrayE@plt>
   7f044: fb 2e 00 94  	bl	0x8ac30 <_ZN2cv12getTickCountEv@plt>
   7f05c: 81 2f 00 94  	bl	0x8ae60 <_ZNSt3__16thread4joinEv@plt>
   7f09c: 79 30 00 94  	bl	0x8b280 <_ZN2cvmiERKNS_3MatES2_@plt>
   7f0a8: 7a 30 00 94  	bl	0x8b290 <_ZN2cv3absERKNS_7MatExprE@plt>
   7f140: 58 30 00 94  	bl	0x8b2a0 <_ZN2cvgeERKNS_3MatEd@plt>
   7f190: 98 2e 00 94  	bl	0x8abf0 <_ZN2cv3Mat10deallocateEv@plt>
   7f304: 3b 2e 00 94  	bl	0x8abf0 <_ZN2cv3Mat10deallocateEv@plt>
   7f400: 00 2e 00 94  	bl	0x8ac00 <_ZN2cv8fastFreeEPv@plt>
   7f424: a3 2f 00 94  	bl	0x8b2b0 <_ZN2cvmlERKNS_3MatEd@plt>
   7f434: 9f 2f 00 94  	bl	0x8b2b0 <_ZN2cvmlERKNS_3MatEd@plt>
   7f444: 9f 2f 00 94  	bl	0x8b2c0 <_ZN2cvplERKNS_7MatExprES2_@plt>
   7f4a8: 8a 2f 00 94  	bl	0x8b2d0 <_ZNK2cv3Mat6copyToERKNS_12_OutputArrayERKNS_11_InputArrayE@plt>
   7f4e4: 13 2e 00 94  	bl	0x8ad30 <_ZN2cv3Mat5zerosEiii@plt>
   7f7b4: cb 2e 00 94  	bl	0x8b2e0 <_ZNSt3__16__sortIRNS_6__lessIffEEPfEEvT0_S5_T_@plt>
   7f7ec: fd 2c 00 94  	bl	0x8abe0 <_ZdlPv@plt>
   7f818: f6 2c 00 94  	bl	0x8abf0 <_ZN2cv3Mat10deallocateEv@plt>
   7f914: bb 2c 00 94  	bl	0x8ac00 <_ZN2cv8fastFreeEPv@plt>
   7f948: ba 2c 00 94  	bl	0x8ac30 <_ZN2cv12getTickCountEv@plt>
   7f99c: a5 2c 00 94  	bl	0x8ac30 <_ZN2cv12getTickCountEv@plt>
   7fa38: 72 2c 00 94  	bl	0x8ac00 <_ZN2cv8fastFreeEPv@plt>
   7fad0: 4c 2c 00 94  	bl	0x8ac00 <_ZN2cv8fastFreeEPv@plt>
   7fb20: 78 2c 00 94  	bl	0x8ad00 <_ZN2cv3Mat6createEiPKii@plt>
   7fb44: a3 2c 00 94  	bl	0x8add0 <_ZN2cv3MataSERKNS_7Scalar_IdEE@plt>
   7fc74: df 2b 00 94  	bl	0x8abf0 <_ZN2cv3Mat10deallocateEv@plt>
   7fd6c: a5 2b 00 94  	bl	0x8ac00 <_ZN2cv8fastFreeEPv@plt>
   7fd90: 94 2b 00 94  	bl	0x8abe0 <_ZdlPv@plt>
   7fdb4: 8b 2b 00 94  	bl	0x8abe0 <_ZdlPv@plt>
   7fdd8: 82 2b 00 94  	bl	0x8abe0 <_ZdlPv@plt>
   7fe28: 6e 2b 00 94  	bl	0x8abe0 <_ZdlPv@plt>
   7fe64: 5f 2b 00 94  	bl	0x8abe0 <_ZdlPv@plt>
   7fe8c: 55 2b 00 94  	bl	0x8abe0 <_ZdlPv@plt>
   7fee0: 40 2b 00 94  	bl	0x8abe0 <_ZdlPv@plt>
   7ff1c: 31 2b 00 94  	bl	0x8abe0 <_ZdlPv@plt>
   7ff4c: 29 2b 00 94  	bl	0x8abf0 <_ZN2cv3Mat10deallocateEv@plt>
   80050: ec 2a 00 94  	bl	0x8ac00 <_ZN2cv8fastFreeEPv@plt>
   80080: dc 2a 00 94  	bl	0x8abf0 <_ZN2cv3Mat10deallocateEv@plt>
   80180: a0 2a 00 94  	bl	0x8ac00 <_ZN2cv8fastFreeEPv@plt>
   801a0: 54 2c 00 94  	bl	0x8b2f0 <_ZN2cvanERKNS_3MatES2_@plt>
   80218: 3a 2c 00 94  	bl	0x8b300 <_ZN2cvcoERKNS_3MatE@plt>
   80284: 23 2c 00 94  	bl	0x8b310 <_ZN2cvorERKNS_3MatES2_@plt>
   80354: af 2a 00 94  	bl	0x8ae10 <_ZNSt3__16threadD1Ev@plt>
   803fc: 85 2a 00 94  	bl	0x8ae10 <_ZNSt3__16threadD1Ev@plt>
   80514: 3f 2a 00 94  	bl	0x8ae10 <_ZNSt3__16threadD1Ev@plt>
   805bc: 15 2a 00 94  	bl	0x8ae10 <_ZNSt3__16threadD1Ev@plt>
   8069c: f1 29 00 94  	bl	0x8ae60 <_ZNSt3__16thread4joinEv@plt>
   806c0: d4 29 00 94  	bl	0x8ae10 <_ZNSt3__16threadD1Ev@plt>
   806ec: 3d 29 00 94  	bl	0x8abe0 <_ZdlPv@plt>
   8071c: 35 29 00 94  	bl	0x8abf0 <_ZN2cv3Mat10deallocateEv@plt>
   80818: fa 28 00 94  	bl	0x8ac00 <_ZN2cv8fastFreeEPv@plt>
   80844: eb 28 00 94  	bl	0x8abf0 <_ZN2cv3Mat10deallocateEv@plt>
   80944: af 28 00 94  	bl	0x8ac00 <_ZN2cv8fastFreeEPv@plt>
   809d8: 86 28 00 94  	bl	0x8abf0 <_ZN2cv3Mat10deallocateEv@plt>
   80ad8: 4a 28 00 94  	bl	0x8ac00 <_ZN2cv8fastFreeEPv@plt>
   80b10: 74 28 00 94  	bl	0x8ace0 <_ZNKSt3__120__vector_base_commonILb1EE20__throw_length_errorEv@plt>
   80b18: 72 28 00 94  	bl	0x8ace0 <_ZNKSt3__120__vector_base_commonILb1EE20__throw_length_errorEv@plt>
   80b24: 0b 29 00 94  	bl	0x8af50 <_ZNSt3__120__throw_system_errorEiPKc@plt>
   80b28: d2 28 00 94  	bl	0x8ae70 <_ZSt9terminatev@plt>
   80b30: 6c 28 00 94  	bl	0x8ace0 <_ZNKSt3__120__vector_base_commonILb1EE20__throw_length_errorEv@plt>
   80b3c: 69 28 00 94  	bl	0x8ace0 <_ZNKSt3__120__vector_base_commonILb1EE20__throw_length_errorEv@plt>
   80b90: 18 28 00 94  	bl	0x8abf0 <_ZN2cv3Mat10deallocateEv@plt>
   80c8c: dd 27 00 94  	bl	0x8ac00 <_ZN2cv8fastFreeEPv@plt>
   80d34: ab 27 00 94  	bl	0x8abe0 <_ZdlPv@plt>
   80dd4: 87 27 00 94  	bl	0x8abf0 <_ZN2cv3Mat10deallocateEv@plt>
   80ed4: 4b 27 00 94  	bl	0x8ac00 <_ZN2cv8fastFreeEPv@plt>
   80f1c: 35 27 00 94  	bl	0x8abf0 <_ZN2cv3Mat10deallocateEv@plt>
   81018: fa 26 00 94  	bl	0x8ac00 <_ZN2cv8fastFreeEPv@plt>
   81060: e4 26 00 94  	bl	0x8abf0 <_ZN2cv3Mat10deallocateEv@plt>
   8115c: a9 26 00 94  	bl	0x8ac00 <_ZN2cv8fastFreeEPv@plt>
   811b8: 8e 26 00 94  	bl	0x8abf0 <_ZN2cv3Mat10deallocateEv@plt>
   812b4: 53 26 00 94  	bl	0x8ac00 <_ZN2cv8fastFreeEPv@plt>
   81334: 2f 26 00 94  	bl	0x8abf0 <_ZN2cv3Mat10deallocateEv@plt>
   81430: f4 25 00 94  	bl	0x8ac00 <_ZN2cv8fastFreeEPv@plt>
   81468: e2 25 00 94  	bl	0x8abf0 <_ZN2cv3Mat10deallocateEv@plt>
   81564: a7 25 00 94  	bl	0x8ac00 <_ZN2cv8fastFreeEPv@plt>
   815c8: 8a 25 00 94  	bl	0x8abf0 <_ZN2cv3Mat10deallocateEv@plt>
   816c4: 4f 25 00 94  	bl	0x8ac00 <_ZN2cv8fastFreeEPv@plt>
   816e8: 3e 25 00 94  	bl	0x8abe0 <_ZdlPv@plt>
   8174c: 29 25 00 94  	bl	0x8abf0 <_ZN2cv3Mat10deallocateEv@plt>
   81794: 1b 25 00 94  	bl	0x8ac00 <_ZN2cv8fastFreeEPv@plt>
   81804: fb 24 00 94  	bl	0x8abf0 <_ZN2cv3Mat10deallocateEv@plt>
   818fc: c1 24 00 94  	bl	0x8ac00 <_ZN2cv8fastFreeEPv@plt>
   81928: b2 24 00 94  	bl	0x8abf0 <_ZN2cv3Mat10deallocateEv@plt>
   81a20: 78 24 00 94  	bl	0x8ac00 <_ZN2cv8fastFreeEPv@plt>
   81a90: 58 24 00 94  	bl	0x8abf0 <_ZN2cv3Mat10deallocateEv@plt>
   81b7c: 21 24 00 94  	bl	0x8ac00 <_ZN2cv8fastFreeEPv@plt>
   81b90: fc 24 00 94  	bl	0x8af80 <_ZNSt3__115__thread_structD1Ev@plt>
   81b98: 12 24 00 94  	bl	0x8abe0 <_ZdlPv@plt>
   81ba0: 10 24 00 94  	bl	0x8abe0 <_ZdlPv@plt>
   81bb4: f3 24 00 94  	bl	0x8af80 <_ZNSt3__115__thread_structD1Ev@plt>
   81bc4: 07 24 00 94  	bl	0x8abe0 <_ZdlPv@plt>
   81c2c: f1 23 00 94  	bl	0x8abf0 <_ZN2cv3Mat10deallocateEv@plt>
   81d20: b8 23 00 94  	bl	0x8ac00 <_ZN2cv8fastFreeEPv@plt>
   81d5c: a5 23 00 94  	bl	0x8abf0 <_ZN2cv3Mat10deallocateEv@plt>
   81e60: 68 23 00 94  	bl	0x8ac00 <_ZN2cv8fastFreeEPv@plt>
   81e98: 56 23 00 94  	bl	0x8abf0 <_ZN2cv3Mat10deallocateEv@plt>
   81f9c: 19 23 00 94  	bl	0x8ac00 <_ZN2cv8fastFreeEPv@plt>
   82000: fc 22 00 94  	bl	0x8abf0 <_ZN2cv3Mat10deallocateEv@plt>
   820f4: c3 22 00 94  	bl	0x8ac00 <_ZN2cv8fastFreeEPv@plt>
   82144: ab 22 00 94  	bl	0x8abf0 <_ZN2cv3Mat10deallocateEv@plt>
   82240: 70 22 00 94  	bl	0x8ac00 <_ZN2cv8fastFreeEPv@plt>
   8226c: 61 22 00 94  	bl	0x8abf0 <_ZN2cv3Mat10deallocateEv@plt>
   82368: 26 22 00 94  	bl	0x8ac00 <_ZN2cv8fastFreeEPv@plt>
   82394: 17 22 00 94  	bl	0x8abf0 <_ZN2cv3Mat10deallocateEv@plt>
   82490: dc 21 00 94  	bl	0x8ac00 <_ZN2cv8fastFreeEPv@plt>
   824bc: cd 21 00 94  	bl	0x8abf0 <_ZN2cv3Mat10deallocateEv@plt>
   825b8: 92 21 00 94  	bl	0x8ac00 <_ZN2cv8fastFreeEPv@plt>
   82604: 7b 21 00 94  	bl	0x8abf0 <_ZN2cv3Mat10deallocateEv@plt>
   826f8: 42 21 00 94  	bl	0x8ac00 <_ZN2cv8fastFreeEPv@plt>
   8271c: 31 21 00 94  	bl	0x8abe0 <_ZdlPv@plt>
   82740: 28 21 00 94  	bl	0x8abe0 <_ZdlPv@plt>
   82764: 1f 21 00 94  	bl	0x8abe0 <_ZdlPv@plt>
   82784: 17 21 00 94  	bl	0x8abe0 <_ZdlPv@plt>
   827f0: fc 20 00 94  	bl	0x8abe0 <_ZdlPv@plt>
   82814: f3 20 00 94  	bl	0x8abe0 <_ZdlPv@plt>
   82834: eb 20 00 94  	bl	0x8abe0 <_ZdlPv@plt>
   828a0: d0 20 00 94  	bl	0x8abe0 <_ZdlPv@plt>
   828cc: c9 20 00 94  	bl	0x8abf0 <_ZN2cv3Mat10deallocateEv@plt>
   829cc: 8d 20 00 94  	bl	0x8ac00 <_ZN2cv8fastFreeEPv@plt>
   829f8: 7e 20 00 94  	bl	0x8abf0 <_ZN2cv3Mat10deallocateEv@plt>
   82af8: 42 20 00 94  	bl	0x8ac00 <_ZN2cv8fastFreeEPv@plt>
   82b30: 2c 20 00 94  	bl	0x8abe0 <_ZdlPv@plt>
   82b5c: 25 20 00 94  	bl	0x8abf0 <_ZN2cv3Mat10deallocateEv@plt>
   82c54: eb 1f 00 94  	bl	0x8ac00 <_ZN2cv8fastFreeEPv@plt>
   82c98: d6 1f 00 94  	bl	0x8abf0 <_ZN2cv3Mat10deallocateEv@plt>
   82d9c: 99 1f 00 94  	bl	0x8ac00 <_ZN2cv8fastFreeEPv@plt>
   82dd4: 87 1f 00 94  	bl	0x8abf0 <_ZN2cv3Mat10deallocateEv@plt>
   82ed8: 4a 1f 00 94  	bl	0x8ac00 <_ZN2cv8fastFreeEPv@plt>
   82efc: c5 1f 00 94  	bl	0x8ae10 <_ZNSt3__16threadD1Ev@plt>
   82f10: c0 1f 00 94  	bl	0x8ae10 <_ZNSt3__16threadD1Ev@plt>
   82f70: 20 1f 00 94  	bl	0x8abf0 <_ZN2cv3Mat10deallocateEv@plt>
   82fb8: 12 1f 00 94  	bl	0x8ac00 <_ZN2cv8fastFreeEPv@plt>
   8304c: e9 1e 00 94  	bl	0x8abf0 <_ZN2cv3Mat10deallocateEv@plt>
   83094: db 1e 00 94  	bl	0x8ac00 <_ZN2cv8fastFreeEPv@plt>
   83138: 36 1f 00 94  	bl	0x8ae10 <_ZNSt3__16threadD1Ev@plt>
   8316c: 9d 1e 00 94  	bl	0x8abe0 <_ZdlPv@plt>
   83198: 96 1e 00 94  	bl	0x8abf0 <_ZN2cv3Mat10deallocateEv@plt>
   83298: 5a 1e 00 94  	bl	0x8ac00 <_ZN2cv8fastFreeEPv@plt>
   832c4: 4b 1e 00 94  	bl	0x8abf0 <_ZN2cv3Mat10deallocateEv@plt>
   833c4: 0f 1e 00 94  	bl	0x8ac00 <_ZN2cv8fastFreeEPv@plt>
   833fc: 85 1e 00 94  	bl	0x8ae10 <_ZNSt3__16threadD1Ev@plt>
   83430: ec 1d 00 94  	bl	0x8abe0 <_ZdlPv@plt>
   8345c: e5 1d 00 94  	bl	0x8abf0 <_ZN2cv3Mat10deallocateEv@plt>
   83558: aa 1d 00 94  	bl	0x8ac00 <_ZN2cv8fastFreeEPv@plt>
   8358c: 99 1d 00 94  	bl	0x8abf0 <_ZN2cv3Mat10deallocateEv@plt>
   83690: 5c 1d 00 94  	bl	0x8ac00 <_ZN2cv8fastFreeEPv@plt>
   836fc: 3d 1d 00 94  	bl	0x8abf0 <_ZN2cv3Mat10deallocateEv@plt>
   83744: 2f 1d 00 94  	bl	0x8ac00 <_ZN2cv8fastFreeEPv@plt>
   83778: 1a 1d 00 94  	bl	0x8abe0 <_ZdlPv@plt>
   837b4: 0f 1d 00 94  	bl	0x8abf0 <_ZN2cv3Mat10deallocateEv@plt>
   838a4: d7 1c 00 94  	bl	0x8ac00 <_ZN2cv8fastFreeEPv@plt>
   838dc: c5 1c 00 94  	bl	0x8abf0 <_ZN2cv3Mat10deallocateEv@plt>
   839cc: 8d 1c 00 94  	bl	0x8ac00 <_ZN2cv8fastFreeEPv@plt>
   839ec: 09 1d 00 94  	bl	0x8ae10 <_ZNSt3__16threadD1Ev@plt>
   83a18: 76 1c 00 94  	bl	0x8abf0 <_ZN2cv3Mat10deallocateEv@plt>
   83b18: 3a 1c 00 94  	bl	0x8ac00 <_ZN2cv8fastFreeEPv@plt>
   83b44: 2b 1c 00 94  	bl	0x8abf0 <_ZN2cv3Mat10deallocateEv@plt>
   83c44: ef 1b 00 94  	bl	0x8ac00 <_ZN2cv8fastFreeEPv@plt>
   83c70: e0 1b 00 94  	bl	0x8abf0 <_ZN2cv3Mat10deallocateEv@plt>
   83d70: a4 1b 00 94  	bl	0x8ac00 <_ZN2cv8fastFreeEPv@plt>
   83dc8: 8a 1b 00 94  	bl	0x8abf0 <_ZN2cv3Mat10deallocateEv@plt>
   83e10: 7c 1b 00 94  	bl	0x8ac00 <_ZN2cv8fastFreeEPv@plt>
   83e44: 67 1b 00 94  	bl	0x8abe0 <_ZdlPv@plt>
   83e70: 60 1b 00 94  	bl	0x8abf0 <_ZN2cv3Mat10deallocateEv@plt>
   83f70: 24 1b 00 94  	bl	0x8ac00 <_ZN2cv8fastFreeEPv@plt>
   83f9c: 15 1b 00 94  	bl	0x8abf0 <_ZN2cv3Mat10deallocateEv@plt>
   8409c: d9 1a 00 94  	bl	0x8ac00 <_ZN2cv8fastFreeEPv@plt>
   840c8: ca 1a 00 94  	bl	0x8abf0 <_ZN2cv3Mat10deallocateEv@plt>
   841c8: 8e 1a 00 94  	bl	0x8ac00 <_ZN2cv8fastFreeEPv@plt>
   841f4: 7f 1a 00 94  	bl	0x8abf0 <_ZN2cv3Mat10deallocateEv@plt>
   842f4: 43 1a 00 94  	bl	0x8ac00 <_ZN2cv8fastFreeEPv@plt>
   84320: 34 1a 00 94  	bl	0x8abf0 <_ZN2cv3Mat10deallocateEv@plt>
   84420: f8 19 00 94  	bl	0x8ac00 <_ZN2cv8fastFreeEPv@plt>
   8444c: e9 19 00 94  	bl	0x8abf0 <_ZN2cv3Mat10deallocateEv@plt>
   8454c: ad 19 00 94  	bl	0x8ac00 <_ZN2cv8fastFreeEPv@plt>
   84578: 9e 19 00 94  	bl	0x8abf0 <_ZN2cv3Mat10deallocateEv@plt>
   84678: 62 19 00 94  	bl	0x8ac00 <_ZN2cv8fastFreeEPv@plt>
   846a4: 53 19 00 94  	bl	0x8abf0 <_ZN2cv3Mat10deallocateEv@plt>
   847a4: 17 19 00 94  	bl	0x8ac00 <_ZN2cv8fastFreeEPv@plt>
   847d0: 08 19 00 94  	bl	0x8abf0 <_ZN2cv3Mat10deallocateEv@plt>
   848d0: cc 18 00 94  	bl	0x8ac00 <_ZN2cv8fastFreeEPv@plt>
   848fc: bd 18 00 94  	bl	0x8abf0 <_ZN2cv3Mat10deallocateEv@plt>
   849fc: 81 18 00 94  	bl	0x8ac00 <_ZN2cv8fastFreeEPv@plt>
   84a28: 72 18 00 94  	bl	0x8abf0 <_ZN2cv3Mat10deallocateEv@plt>
   84b28: 36 18 00 94  	bl	0x8ac00 <_ZN2cv8fastFreeEPv@plt>
   84b80: 1c 18 00 94  	bl	0x8abf0 <_ZN2cv3Mat10deallocateEv@plt>
   84bc8: 0e 18 00 94  	bl	0x8ac00 <_ZN2cv8fastFreeEPv@plt>
   84bfc: f9 17 00 94  	bl	0x8abe0 <_ZdlPv@plt>
   84c54: e7 17 00 94  	bl	0x8abf0 <_ZN2cv3Mat10deallocateEv@plt>
   84c9c: d9 17 00 94  	bl	0x8ac00 <_ZN2cv8fastFreeEPv@plt>
   84cd4: c3 17 00 94  	bl	0x8abe0 <_ZdlPv@plt>
   84d84: 67 19 00 94  	bl	0x8b320 <_ZN2cv12GaussianBlurERKNS_11_InputArrayERKNS_12_OutputArrayENS_5Size_IiEEddi@plt>
   84dcc: 85 17 00 94  	bl	0x8abe0 <_ZdlPv@plt>
   84ddc: 81 17 00 94  	bl	0x8abe0 <_ZdlPv@plt>
   84e08: 7a 17 00 94  	bl	0x8abf0 <_ZN2cv3Mat10deallocateEv@plt>
   84f00: 40 17 00 94  	bl	0x8ac00 <_ZN2cv8fastFreeEPv@plt>
   84f2c: 31 17 00 94  	bl	0x8abf0 <_ZN2cv3Mat10deallocateEv@plt>
   85024: f7 16 00 94  	bl	0x8ac00 <_ZN2cv8fastFreeEPv@plt>
   85050: e8 16 00 94  	bl	0x8abf0 <_ZN2cv3Mat10deallocateEv@plt>
   85148: ae 16 00 94  	bl	0x8ac00 <_ZN2cv8fastFreeEPv@plt>
   85174: 9f 16 00 94  	bl	0x8abf0 <_ZN2cv3Mat10deallocateEv@plt>
   8526c: 65 16 00 94  	bl	0x8ac00 <_ZN2cv8fastFreeEPv@plt>
   853cc: c5 17 00 94  	bl	0x8b2e0 <_ZNSt3__16__sortIRNS_6__lessIffEEPfEEvT0_S5_T_@plt>
   85400: f8 15 00 94  	bl	0x8abe0 <_ZdlPv@plt>
   85470: dc 15 00 94  	bl	0x8abe0 <_ZdlPv@plt>
   859e0: 64 14 00 94  	bl	0x8ab70 <_Znwm@plt>
   859e8: 5e 15 00 94  	bl	0x8af60 <_ZNSt3__115__thread_structC1Ev@plt>
   859f0: 60 14 00 94  	bl	0x8ab70 <_Znwm@plt>
   85a84: 33 15 00 94  	bl	0x8af50 <_ZNSt3__120__throw_system_errorEiPKc@plt>
   85aa4: 37 15 00 94  	bl	0x8af80 <_ZNSt3__115__thread_structD1Ev@plt>
   85aac: 4d 14 00 94  	bl	0x8abe0 <_ZdlPv@plt>
   85ac0: 30 15 00 94  	bl	0x8af80 <_ZNSt3__115__thread_structD1Ev@plt>
   85ad0: 44 14 00 94  	bl	0x8abe0 <_ZdlPv@plt>
   85da8: 7e 14 00 94  	bl	0x8afa0 <_ZNSt3__119__thread_local_dataEv@plt>
   85df0: 64 14 00 94  	bl	0x8af80 <_ZNSt3__115__thread_structD1Ev@plt>
   85df8: 7a 13 00 94  	bl	0x8abe0 <_ZdlPv@plt>
   85e00: 78 13 00 94  	bl	0x8abe0 <_ZdlPv@plt>
   85e3c: 51 14 00 94  	bl	0x8af80 <_ZNSt3__115__thread_structD1Ev@plt>
   85e44: 67 13 00 94  	bl	0x8abe0 <_ZdlPv@plt>
   85e4c: 65 13 00 94  	bl	0x8abe0 <_ZdlPv@plt>
   860e0: a4 12 00 94  	bl	0x8ab70 <_Znwm@plt>
   860e8: 9e 13 00 94  	bl	0x8af60 <_ZNSt3__115__thread_structC1Ev@plt>
   860f0: a0 12 00 94  	bl	0x8ab70 <_Znwm@plt>
   86160: 7c 13 00 94  	bl	0x8af50 <_ZNSt3__120__throw_system_errorEiPKc@plt>
   86180: 80 13 00 94  	bl	0x8af80 <_ZNSt3__115__thread_structD1Ev@plt>
   86188: 96 12 00 94  	bl	0x8abe0 <_ZdlPv@plt>
   8619c: 79 13 00 94  	bl	0x8af80 <_ZNSt3__115__thread_structD1Ev@plt>
   861ac: 8d 12 00 94  	bl	0x8abe0 <_ZdlPv@plt>
   86504: a7 12 00 94  	bl	0x8afa0 <_ZNSt3__119__thread_local_dataEv@plt>
   8653c: 91 12 00 94  	bl	0x8af80 <_ZNSt3__115__thread_structD1Ev@plt>
   86544: a7 11 00 94  	bl	0x8abe0 <_ZdlPv@plt>
   8654c: a5 11 00 94  	bl	0x8abe0 <_ZdlPv@plt>
   86584: 7f 12 00 94  	bl	0x8af80 <_ZNSt3__115__thread_structD1Ev@plt>
   8658c: 95 11 00 94  	bl	0x8abe0 <_ZdlPv@plt>
   86594: 93 11 00 94  	bl	0x8abe0 <_ZdlPv@plt>
   865b4: 7b 12 00 94  	bl	0x8afa0 <_ZNSt3__119__thread_local_dataEv@plt>
   86608: 7a 11 00 94  	bl	0x8abf0 <_ZN2cv3Mat10deallocateEv@plt>
   866fc: 41 11 00 94  	bl	0x8ac00 <_ZN2cv8fastFreeEPv@plt>
   86710: 1c 12 00 94  	bl	0x8af80 <_ZNSt3__115__thread_structD1Ev@plt>
   86718: 32 11 00 94  	bl	0x8abe0 <_ZdlPv@plt>
   86720: 30 11 00 94  	bl	0x8abe0 <_ZdlPv@plt>
   86774: 1f 11 00 94  	bl	0x8abf0 <_ZN2cv3Mat10deallocateEv@plt>
   86868: e6 10 00 94  	bl	0x8ac00 <_ZN2cv8fastFreeEPv@plt>
   8687c: c1 11 00 94  	bl	0x8af80 <_ZNSt3__115__thread_structD1Ev@plt>
   86884: d7 10 00 94  	bl	0x8abe0 <_ZdlPv@plt>
   8688c: d5 10 00 94  	bl	0x8abe0 <_ZdlPv@plt>
   868a8: e2 10 00 94  	bl	0x8ac30 <_ZN2cv12getTickCountEv@plt>
   86d64: a3 0f 00 94  	bl	0x8abf0 <_ZN2cv3Mat10deallocateEv@plt>
   86e64: 67 0f 00 94  	bl	0x8ac00 <_ZN2cv8fastFreeEPv@plt>
   86e90: 58 0f 00 94  	bl	0x8abf0 <_ZN2cv3Mat10deallocateEv@plt>
   86f90: 1c 0f 00 94  	bl	0x8ac00 <_ZN2cv8fastFreeEPv@plt>
   86fbc: 0d 0f 00 94  	bl	0x8abf0 <_ZN2cv3Mat10deallocateEv@plt>
   870bc: d1 0e 00 94  	bl	0x8ac00 <_ZN2cv8fastFreeEPv@plt>
   870e8: c2 0e 00 94  	bl	0x8abf0 <_ZN2cv3Mat10deallocateEv@plt>
   871e8: 86 0e 00 94  	bl	0x8ac00 <_ZN2cv8fastFreeEPv@plt>
   87214: 77 0e 00 94  	bl	0x8abf0 <_ZN2cv3Mat10deallocateEv@plt>
   87314: 3b 0e 00 94  	bl	0x8ac00 <_ZN2cv8fastFreeEPv@plt>
   873cc: 09 0e 00 94  	bl	0x8abf0 <_ZN2cv3Mat10deallocateEv@plt>
   874cc: cd 0d 00 94  	bl	0x8ac00 <_ZN2cv8fastFreeEPv@plt>
   874f8: be 0d 00 94  	bl	0x8abf0 <_ZN2cv3Mat10deallocateEv@plt>
   875f8: 82 0d 00 94  	bl	0x8ac00 <_ZN2cv8fastFreeEPv@plt>
   87624: 73 0d 00 94  	bl	0x8abf0 <_ZN2cv3Mat10deallocateEv@plt>
   87724: 37 0d 00 94  	bl	0x8ac00 <_ZN2cv8fastFreeEPv@plt>
   87750: 28 0d 00 94  	bl	0x8abf0 <_ZN2cv3Mat10deallocateEv@plt>
   87850: ec 0c 00 94  	bl	0x8ac00 <_ZN2cv8fastFreeEPv@plt>
   8787c: dd 0c 00 94  	bl	0x8abf0 <_ZN2cv3Mat10deallocateEv@plt>
   8797c: a1 0c 00 94  	bl	0x8ac00 <_ZN2cv8fastFreeEPv@plt>
   87a74: 2f 0e 00 94  	bl	0x8b330 <_ZN2cv3Mat20updateContinuityFlagEv@plt>
   87ab4: 2f 0c 00 94  	bl	0x8ab70 <_Znwm@plt>
   87b00: 10 0e 00 94  	bl	0x8b340 <_ZN2cv5errorEiRKNSt3__112basic_stringIcNS0_11char_traitsIcEENS0_9allocatorIcEEEEPKcSA_i@plt>
   87b0c: 19 0c 00 94  	bl	0x8ab70 <_Znwm@plt>
   87b58: fa 0d 00 94  	bl	0x8b340 <_ZN2cv5errorEiRKNSt3__112basic_stringIcNS0_11char_traitsIcEENS0_9allocatorIcEEEEPKcSA_i@plt>
   87b7c: 19 0c 00 94  	bl	0x8abe0 <_ZdlPv@plt>
   87be8: 12 0c 00 94  	bl	0x8ac30 <_ZN2cv12getTickCountEv@plt>
   87e84: 5b 0b 00 94  	bl	0x8abf0 <_ZN2cv3Mat10deallocateEv@plt>
   87fac: 15 0b 00 94  	bl	0x8ac00 <_ZN2cv8fastFreeEPv@plt>
   88090: d8 0a 00 94  	bl	0x8abf0 <_ZN2cv3Mat10deallocateEv@plt>
   881b8: 92 0a 00 94  	bl	0x8ac00 <_ZN2cv8fastFreeEPv@plt>
   8823c: 7d 0a 00 94  	bl	0x8ac30 <_ZN2cv12getTickCountEv@plt>
   882a0: 54 0a 00 94  	bl	0x8abf0 <_ZN2cv3Mat10deallocateEv@plt>
   883a8: 16 0a 00 94  	bl	0x8ac00 <_ZN2cv8fastFreeEPv@plt>
   883d4: 07 0a 00 94  	bl	0x8abf0 <_ZN2cv3Mat10deallocateEv@plt>
   884d4: cb 09 00 94  	bl	0x8ac00 <_ZN2cv8fastFreeEPv@plt>
   884f8: ba 09 00 94  	bl	0x8abe0 <_ZdlPv@plt>
   88550: a8 09 00 94  	bl	0x8abf0 <_ZN2cv3Mat10deallocateEv@plt>
   88598: 9a 09 00 94  	bl	0x8ac00 <_ZN2cv8fastFreeEPv@plt>
   885cc: 85 09 00 94  	bl	0x8abe0 <_ZdlPv@plt>
   88624: 73 09 00 94  	bl	0x8abf0 <_ZN2cv3Mat10deallocateEv@plt>
   8866c: 65 09 00 94  	bl	0x8ac00 <_ZN2cv8fastFreeEPv@plt>
   886a0: 50 09 00 94  	bl	0x8abe0 <_ZdlPv@plt>
   88780: 2c 09 00 94  	bl	0x8ac30 <_ZN2cv12getTickCountEv@plt>
   8878c: 49 09 00 94  	bl	0x8acb0 <_ZN2cv16getTickFrequencyEv@plt>
   88838: ee 08 00 94  	bl	0x8abf0 <_ZN2cv3Mat10deallocateEv@plt>
   88928: b6 08 00 94  	bl	0x8ac00 <_ZN2cv8fastFreeEPv@plt>
   88960: a4 08 00 94  	bl	0x8abf0 <_ZN2cv3Mat10deallocateEv@plt>
   88a50: 6c 08 00 94  	bl	0x8ac00 <_ZN2cv8fastFreeEPv@plt>
   88a94: 57 08 00 94  	bl	0x8abf0 <_ZN2cv3Mat10deallocateEv@plt>
   88b94: 1b 08 00 94  	bl	0x8ac00 <_ZN2cv8fastFreeEPv@plt>
   88bc0: 0c 08 00 94  	bl	0x8abf0 <_ZN2cv3Mat10deallocateEv@plt>
   88cc0: d0 07 00 94  	bl	0x8ac00 <_ZN2cv8fastFreeEPv@plt>
   88ce4: bf 07 00 94  	bl	0x8abe0 <_ZdlPv@plt>
   88d3c: ad 07 00 94  	bl	0x8abf0 <_ZN2cv3Mat10deallocateEv@plt>
   88d84: 9f 07 00 94  	bl	0x8ac00 <_ZN2cv8fastFreeEPv@plt>
   88db8: 8a 07 00 94  	bl	0x8abe0 <_ZdlPv@plt>
   88e10: 78 07 00 94  	bl	0x8abf0 <_ZN2cv3Mat10deallocateEv@plt>
   88e58: 6a 07 00 94  	bl	0x8ac00 <_ZN2cv8fastFreeEPv@plt>
   88e90: 54 07 00 94  	bl	0x8abe0 <_ZdlPv@plt>
   88ef4: 1f 07 00 94  	bl	0x8ab70 <_Znwm@plt>
   88f40: 34 07 00 94  	bl	0x8ac10 <_ZNSt3__15mutexD1Ev@plt>
   88f48: 26 07 00 94  	bl	0x8abe0 <_ZdlPv@plt>
   88fb4: ef 08 00 94  	bl	0x8b370 <_ZNSt3__111this_thread9sleep_forERKNS_6chrono8durationIxNS_5ratioILl1ELl1000000000EEEEE@plt>
   8918c: 79 06 00 94  	bl	0x8ab70 <_Znwm@plt>
   89208: 76 06 00 94  	bl	0x8abe0 <_ZdlPv@plt>
   89238: 6e 06 00 94  	bl	0x8abf0 <_ZN2cv3Mat10deallocateEv@plt>
   89334: 33 06 00 94  	bl	0x8ac00 <_ZN2cv8fastFreeEPv@plt>
   89420: f0 05 00 94  	bl	0x8abe0 <_ZdlPv@plt>
   89468: 1e 06 00 94  	bl	0x8ace0 <_ZNKSt3__120__vector_base_commonILb1EE20__throw_length_errorEv@plt>
   894bc: cd 05 00 94  	bl	0x8abf0 <_ZN2cv3Mat10deallocateEv@plt>
   895b8: 92 05 00 94  	bl	0x8ac00 <_ZN2cv8fastFreeEPv@plt>
   895e0: 80 05 00 94  	bl	0x8abe0 <_ZdlPv@plt>
   89668: 42 05 00 94  	bl	0x8ab70 <_Znwm@plt>
   89824: ef 04 00 14  	b	0x8abe0 <_ZdlPv@plt>
   89850: 24 05 00 94  	bl	0x8ace0 <_ZNKSt3__120__vector_base_commonILb1EE20__throw_length_errorEv@plt>
000000000008ab70 <_Znwm@plt>:
   8ab70: 10 00 00 f0  	adrp	x16, 0x8d000 <_Znwm@plt+0xc>
000000000008ab80 <_ZNSt3__119__shared_weak_count14__release_weakEv@plt>:
   8ab80: 10 00 00 f0  	adrp	x16, 0x8d000 <_ZNSt3__119__shared_weak_count14__release_weakEv@plt+0xc>
000000000008abe0 <_ZdlPv@plt>:
   8abe0: 10 00 00 f0  	adrp	x16, 0x8d000 <_ZdlPv@plt+0xc>
000000000008abf0 <_ZN2cv3Mat10deallocateEv@plt>:
   8abf0: 10 00 00 f0  	adrp	x16, 0x8d000 <_ZN2cv3Mat10deallocateEv@plt+0xc>
000000000008ac00 <_ZN2cv8fastFreeEPv@plt>:
   8ac00: 10 00 00 f0  	adrp	x16, 0x8d000 <_ZN2cv8fastFreeEPv@plt+0xc>
000000000008ac10 <_ZNSt3__15mutexD1Ev@plt>:
   8ac10: 10 00 00 f0  	adrp	x16, 0x8d000 <_ZNSt3__15mutexD1Ev@plt+0xc>
000000000008ac30 <_ZN2cv12getTickCountEv@plt>:
   8ac30: 10 00 00 f0  	adrp	x16, 0x8d000 <_ZN2cv12getTickCountEv@plt+0xc>
000000000008ac40 <_ZN2cv3ORB6createEifiiiiNS0_9ScoreTypeEii@plt>:
   8ac40: 10 00 00 f0  	adrp	x16, 0x8d000 <_ZN2cv3ORB6createEifiiiiNS0_9ScoreTypeEii@plt+0xc>
000000000008ac50 <_ZN2cv7noArrayEv@plt>:
   8ac50: 10 00 00 f0  	adrp	x16, 0x8d000 <_ZN2cv7noArrayEv@plt+0xc>
000000000008ac60 <_ZN2cv17DescriptorMatcher6createERKNSt3__112basic_stringIcNS1_11char_traitsIcEENS1_9allocatorIcEEEE@plt>:
   8ac60: 10 00 00 f0  	adrp	x16, 0x8d000 <_ZN2cv17DescriptorMatcher6createERKNSt3__112basic_stringIcNS1_11char_traitsIcEENS1_9allocatorIcEEEE@plt+0xc>
000000000008ac70 <_ZNK2cv17DescriptorMatcher5matchERKNS_11_InputArrayES3_RNSt3__16vectorINS_6DMatchENS4_9allocatorIS6_EEEES3_@plt>:
   8ac70: 10 00 00 f0  	adrp	x16, 0x8d000 <_ZNK2cv17DescriptorMatcher5matchERKNS_11_InputArrayES3_RNSt3__16vectorINS_6DMatchENS4_9allocatorIS6_EEEES3_@plt+0xc>
000000000008aca0 <_ZN2cv12countNonZeroERKNS_11_InputArrayE@plt>:
   8aca0: 10 00 00 f0  	adrp	x16, 0x8d000 <_ZN2cv12countNonZeroERKNS_11_InputArrayE@plt+0xc>
000000000008acb0 <_ZN2cv16getTickFrequencyEv@plt>:
   8acb0: 10 00 00 f0  	adrp	x16, 0x8d000 <_ZN2cv16getTickFrequencyEv@plt+0xc>
000000000008ace0 <_ZNKSt3__120__vector_base_commonILb1EE20__throw_length_errorEv@plt>:
   8ace0: 10 00 00 f0  	adrp	x16, 0x8d000 <_ZNKSt3__120__vector_base_commonILb1EE20__throw_length_errorEv@plt+0xc>
000000000008ad00 <_ZN2cv3Mat6createEiPKii@plt>:
   8ad00: 10 00 00 f0  	adrp	x16, 0x8d000 <_ZN2cv3Mat6createEiPKii@plt+0xc>
000000000008ad30 <_ZN2cv3Mat5zerosEiii@plt>:
   8ad30: 10 00 00 f0  	adrp	x16, 0x8d000 <_ZN2cv3Mat5zerosEiii@plt+0xc>
000000000008ad40 <_ZNK2cv3Mat9convertToERKNS_12_OutputArrayEidd@plt>:
   8ad40: 10 00 00 f0  	adrp	x16, 0x8d000 <_ZNK2cv3Mat9convertToERKNS_12_OutputArrayEidd@plt+0xc>
000000000008ad50 <_ZN2cv3Mat8copySizeERKS0_@plt>:
   8ad50: 10 00 00 f0  	adrp	x16, 0x8d000 <_ZN2cv3Mat8copySizeERKS0_@plt+0xc>
000000000008ad60 <_ZN2cv3Mat3eyeEiii@plt>:
   8ad60: 10 00 00 f0  	adrp	x16, 0x8d000 <_ZN2cv3Mat3eyeEiii@plt+0xc>
000000000008ad70 <_ZN2cv12equalizeHistERKNS_11_InputArrayERKNS_12_OutputArrayE@plt>:
   8ad70: 10 00 00 f0  	adrp	x16, 0x8d000 <_ZN2cv12equalizeHistERKNS_11_InputArrayERKNS_12_OutputArrayE@plt+0xc>
000000000008ad80 <_ZNK2cv3Mat6copyToERKNS_12_OutputArrayE@plt>:
   8ad80: 10 00 00 f0  	adrp	x16, 0x8d000 <_ZNK2cv3Mat6copyToERKNS_12_OutputArrayE@plt+0xc>
000000000008ad90 <_ZNSt3__118condition_variableD1Ev@plt>:
   8ad90: 10 00 00 f0  	adrp	x16, 0x8d000 <_ZNSt3__118condition_variableD1Ev@plt+0xc>
000000000008ada0 <_ZN2cv22estimateRigidTransformERKNS_11_InputArrayES2_b@plt>:
   8ada0: 10 00 00 f0  	adrp	x16, 0x8d000 <_ZN2cv22estimateRigidTransformERKNS_11_InputArrayES2_b@plt+0xc>
000000000008adb0 <_ZN2cv3MatC1ERKS0_RKNS_5Rect_IiEE@plt>:
   8adb0: 10 00 00 f0  	adrp	x16, 0x8d000 <_ZN2cv3MatC1ERKS0_RKNS_5Rect_IiEE@plt+0xc>
000000000008add0 <_ZN2cv3MataSERKNS_7Scalar_IdEE@plt>:
   8add0: 10 00 00 f0  	adrp	x16, 0x8d000 <_ZN2cv3MataSERKNS_7Scalar_IdEE@plt+0xc>
000000000008ade0 <_ZN2cv20perspectiveTransformERKNS_11_InputArrayERKNS_12_OutputArrayES2_@plt>:
   8ade0: 10 00 00 f0  	adrp	x16, 0x8d000 <_ZN2cv20perspectiveTransformERKNS_11_InputArrayERKNS_12_OutputArrayES2_@plt+0xc>
000000000008adf0 <_ZN2cv6invertERKNS_11_InputArrayERKNS_12_OutputArrayEi@plt>:
   8adf0: 10 00 00 f0  	adrp	x16, 0x8d000 <_ZN2cv6invertERKNS_11_InputArrayERKNS_12_OutputArrayEi@plt+0xc>
000000000008ae10 <_ZNSt3__16threadD1Ev@plt>:
   8ae10: 10 00 00 f0  	adrp	x16, 0x8d000 <_ZNSt3__16threadD1Ev@plt+0xc>
000000000008ae20 <_ZNSt3__15mutex4lockEv@plt>:
   8ae20: 10 00 00 f0  	adrp	x16, 0x8d000 <_ZNSt3__15mutex4lockEv@plt+0xc>
000000000008ae30 <_ZNSt3__118condition_variable10notify_allEv@plt>:
   8ae30: 10 00 00 f0  	adrp	x16, 0x8d000 <_ZNSt3__118condition_variable10notify_allEv@plt+0xc>
000000000008ae40 <_ZNSt3__118condition_variable4waitERNS_11unique_lockINS_5mutexEEE@plt>:
   8ae40: 10 00 00 f0  	adrp	x16, 0x8d000 <_ZNSt3__118condition_variable4waitERNS_11unique_lockINS_5mutexEEE@plt+0xc>
000000000008ae50 <_ZNSt3__15mutex6unlockEv@plt>:
   8ae50: 10 00 00 f0  	adrp	x16, 0x8d000 <_ZNSt3__15mutex6unlockEv@plt+0xc>
000000000008ae60 <_ZNSt3__16thread4joinEv@plt>:
   8ae60: 10 00 00 f0  	adrp	x16, 0x8d000 <_ZNSt3__16thread4joinEv@plt+0xc>
000000000008ae70 <_ZSt9terminatev@plt>:
   8ae70: 10 00 00 f0  	adrp	x16, 0x8d000 <_ZSt9terminatev@plt+0xc>
000000000008aeb0 <_ZNSt11logic_errorC2EPKc@plt>:
   8aeb0: 10 00 00 f0  	adrp	x16, 0x8d000 <_ZNSt11logic_errorC2EPKc@plt+0xc>
000000000008aed0 <_ZN2cv13matchTemplateERKNS_11_InputArrayES2_RKNS_12_OutputArrayEiS2_@plt>:
   8aed0: 10 00 00 f0  	adrp	x16, 0x8d000 <_ZN2cv13matchTemplateERKNS_11_InputArrayES2_RKNS_12_OutputArrayEiS2_@plt+0xc>
000000000008aee0 <_ZN2cv9minMaxLocERKNS_11_InputArrayEPdS3_PNS_6Point_IiEES6_S2_@plt>:
   8aee0: 10 00 00 f0  	adrp	x16, 0x8d000 <_ZN2cv9minMaxLocERKNS_11_InputArrayEPdS3_PNS_6Point_IiEES6_S2_@plt+0xc>
000000000008aef0 <_ZNSt3__119__shared_weak_countD2Ev@plt>:
   8aef0: 10 00 00 f0  	adrp	x16, 0x8d000 <_ZNSt3__119__shared_weak_countD2Ev@plt+0xc>
000000000008af20 <_ZNSt3__15mutex8try_lockEv@plt>:
   8af20: 10 00 00 f0  	adrp	x16, 0x8d000 <_ZNSt3__15mutex8try_lockEv@plt+0xc>
000000000008af50 <_ZNSt3__120__throw_system_errorEiPKc@plt>:
   8af50: 10 00 00 f0  	adrp	x16, 0x8d000 <_ZNSt3__120__throw_system_errorEiPKc@plt+0xc>
000000000008af60 <_ZNSt3__115__thread_structC1Ev@plt>:
   8af60: 10 00 00 f0  	adrp	x16, 0x8d000 <_ZNSt3__115__thread_structC1Ev@plt+0xc>
000000000008af80 <_ZNSt3__115__thread_structD1Ev@plt>:
   8af80: 10 00 00 f0  	adrp	x16, 0x8d000 <_ZNSt3__115__thread_structD1Ev@plt+0xc>
000000000008af90 <_ZNSt9exceptionD2Ev@plt>:
   8af90: 10 00 00 f0  	adrp	x16, 0x8d000 <_ZNSt9exceptionD2Ev@plt+0xc>
000000000008afa0 <_ZNSt3__119__thread_local_dataEv@plt>:
   8afa0: 10 00 00 f0  	adrp	x16, 0x8d000 <_ZNSt3__119__thread_local_dataEv@plt+0xc>
000000000008afc0 <_ZNK2cv11_InputArray4sizeEi@plt>:
   8afc0: 10 00 00 f0  	adrp	x16, 0x8d000 <_ZNK2cv11_InputArray4sizeEi@plt+0xc>
000000000008afd0 <_ZNK2cv11_InputArray4kindEv@plt>:
   8afd0: 10 00 00 f0  	adrp	x16, 0x8d000 <_ZNK2cv11_InputArray4kindEv@plt+0xc>
000000000008afe0 <_ZNK2cv11_InputArray7getMat_Ei@plt>:
   8afe0: 10 00 00 f0  	adrp	x16, 0x8d000 <_ZNK2cv11_InputArray7getMat_Ei@plt+0xc>
000000000008aff0 <_ZNK2cv12_OutputArray6createENS_5Size_IiEEiibNS0_9DepthMaskE@plt>:
   8aff0: 10 00 00 f0  	adrp	x16, 0x8d000 <_ZNK2cv12_OutputArray6createENS_5Size_IiEEiibNS0_9DepthMaskE@plt+0xc>
000000000008b000 <_ZNSt3__113basic_istreamIcNS_11char_traitsIcEEED2Ev@plt>:
   8b000: 10 00 00 d0  	adrp	x16, 0x8d000 <_ZNSt3__113basic_istreamIcNS_11char_traitsIcEEED2Ev@plt+0x8>
000000000008b010 <_ZNSt3__19basic_iosIcNS_11char_traitsIcEEED2Ev@plt>:
   8b010: 10 00 00 d0  	adrp	x16, 0x8d000 <_ZNSt3__19basic_iosIcNS_11char_traitsIcEEED2Ev@plt+0x8>
000000000008b020 <_ZNSt3__113basic_ostreamIcNS_11char_traitsIcEEED2Ev@plt>:
   8b020: 10 00 00 d0  	adrp	x16, 0x8d000 <_ZNSt3__113basic_ostreamIcNS_11char_traitsIcEEED2Ev@plt+0x8>
000000000008b040 <_ZdaPv@plt>:
   8b040: 10 00 00 d0  	adrp	x16, 0x8d000 <_ZdaPv@plt+0x8>
000000000008b050 <_ZNSt3__115basic_streambufIcNS_11char_traitsIcEEED2Ev@plt>:
   8b050: 10 00 00 d0  	adrp	x16, 0x8d000 <_ZNSt3__115basic_streambufIcNS_11char_traitsIcEEED2Ev@plt+0x8>
000000000008b060 <_ZNKSt3__16locale9use_facetERNS0_2idE@plt>:
   8b060: 10 00 00 d0  	adrp	x16, 0x8d000 <_ZNKSt3__16locale9use_facetERNS0_2idE@plt+0x8>
000000000008b070 <_Znam@plt>:
   8b070: 10 00 00 d0  	adrp	x16, 0x8d000 <_Znam@plt+0x8>
000000000008b0e0 <_ZNSt8bad_castC1Ev@plt>:
   8b0e0: 10 00 00 d0  	adrp	x16, 0x8d000 <_ZNSt8bad_castC1Ev@plt+0x8>
000000000008b0f0 <_ZN2cv6resizeERKNS_11_InputArrayERKNS_12_OutputArrayENS_5Size_IiEEddi@plt>:
   8b0f0: 10 00 00 d0  	adrp	x16, 0x8d000 <_ZN2cv6resizeERKNS_11_InputArrayERKNS_12_OutputArrayENS_5Size_IiEEddi@plt+0x8>
000000000008b120 <_ZN2cv7absdiffERKNS_11_InputArrayES2_RKNS_12_OutputArrayE@plt>:
   8b120: 10 00 00 d0  	adrp	x16, 0x8d000 <_ZN2cv7absdiffERKNS_11_InputArrayES2_RKNS_12_OutputArrayE@plt+0x8>
000000000008b130 <_ZN2cv4normERKNS_11_InputArrayEiS2_@plt>:
   8b130: 10 00 00 d0  	adrp	x16, 0x8d000 <_ZN2cv4normERKNS_11_InputArrayEiS2_@plt+0x8>
000000000008b140 <_ZN2cv4meanERKNS_11_InputArrayES2_@plt>:
   8b140: 10 00 00 d0  	adrp	x16, 0x8d000 <_ZN2cv4meanERKNS_11_InputArrayES2_@plt+0x8>
000000000008b150 <_ZN2cv3Mat5setToERKNS_11_InputArrayES3_@plt>:
   8b150: 10 00 00 d0  	adrp	x16, 0x8d000 <_ZN2cv3Mat5setToERKNS_11_InputArrayES3_@plt+0x8>
000000000008b160 <_ZN2cv3Mat5zerosENS_5Size_IiEEi@plt>:
   8b160: 10 00 00 d0  	adrp	x16, 0x8d000 <_ZN2cv3Mat5zerosENS_5Size_IiEEi@plt+0x8>
000000000008b170 <_ZN2cv11bitwise_andERKNS_11_InputArrayES2_RKNS_12_OutputArrayES2_@plt>:
   8b170: 10 00 00 d0  	adrp	x16, 0x8d000 <_ZN2cv11bitwise_andERKNS_11_InputArrayES2_RKNS_12_OutputArrayES2_@plt+0x8>
000000000008b1a0 <_ZN2cv8subtractERKNS_11_InputArrayES2_RKNS_12_OutputArrayES2_i@plt>:
   8b1a0: 10 00 00 d0  	adrp	x16, 0x8d000 <_ZN2cv8subtractERKNS_11_InputArrayES2_RKNS_12_OutputArrayES2_i@plt+0x8>
000000000008b1b0 <_ZN2cv8integralERKNS_11_InputArrayERKNS_12_OutputArrayES5_ii@plt>:
   8b1b0: 10 00 00 d0  	adrp	x16, 0x8d000 <_ZN2cv8integralERKNS_11_InputArrayERKNS_12_OutputArrayES5_ii@plt+0x8>
000000000008b1d0 <_ZNK2cv11_InputArray5emptyEv@plt>:
   8b1d0: 10 00 00 d0  	adrp	x16, 0x8d000 <_ZNK2cv11_InputArray5emptyEv@plt+0x8>
000000000008b1e0 <_ZNK2cv3Mat9locateROIERNS_5Size_IiEERNS_6Point_IiEE@plt>:
   8b1e0: 10 00 00 d0  	adrp	x16, 0x8d000 <_ZNK2cv3Mat9locateROIERNS_5Size_IiEERNS_6Point_IiEE@plt+0x8>
000000000008b1f0 <_ZN2cv3Mat9adjustROIEiiii@plt>:
   8b1f0: 10 00 00 d0  	adrp	x16, 0x8d000 <_ZN2cv3Mat9adjustROIEiiii@plt+0x8>
000000000008b220 <_ZN2cvplERKNS_3MatERKNS_7Scalar_IdEE@plt>:
   8b220: 10 00 00 d0  	adrp	x16, 0x8d000 <_ZN2cvplERKNS_3MatERKNS_7Scalar_IdEE@plt+0x8>
000000000008b230 <_ZN2cv12findContoursERKNS_11_InputArrayERKNS_12_OutputArrayES5_iiNS_6Point_IiEE@plt>:
   8b230: 10 00 00 d0  	adrp	x16, 0x8d000 <_ZN2cv12findContoursERKNS_11_InputArrayERKNS_12_OutputArrayES5_iiNS_6Point_IiEE@plt+0x8>
000000000008b240 <_ZN2cv12approxPolyDPERKNS_11_InputArrayERKNS_12_OutputArrayEdb@plt>:
   8b240: 10 00 00 d0  	adrp	x16, 0x8d000 <_ZN2cv12approxPolyDPERKNS_11_InputArrayERKNS_12_OutputArrayEdb@plt+0x8>
000000000008b250 <_ZN2cv12boundingRectERKNS_11_InputArrayE@plt>:
   8b250: 10 00 00 d0  	adrp	x16, 0x8d000 <_ZN2cv12boundingRectERKNS_11_InputArrayE@plt+0x8>
000000000008b260 <_ZN2cv10bitwise_orERKNS_11_InputArrayES2_RKNS_12_OutputArrayES2_@plt>:
   8b260: 10 00 00 d0  	adrp	x16, 0x8d000 <_ZN2cv10bitwise_orERKNS_11_InputArrayES2_RKNS_12_OutputArrayES2_@plt+0x8>
000000000008b270 <_ZN2cv7inRangeERKNS_11_InputArrayES2_S2_RKNS_12_OutputArrayE@plt>:
   8b270: 10 00 00 d0  	adrp	x16, 0x8d000 <_ZN2cv7inRangeERKNS_11_InputArrayES2_S2_RKNS_12_OutputArrayE@plt+0x8>
000000000008b280 <_ZN2cvmiERKNS_3MatES2_@plt>:
   8b280: 10 00 00 d0  	adrp	x16, 0x8d000 <_ZN2cvmiERKNS_3MatES2_@plt+0x8>
000000000008b290 <_ZN2cv3absERKNS_7MatExprE@plt>:
   8b290: 10 00 00 d0  	adrp	x16, 0x8d000 <_ZN2cv3absERKNS_7MatExprE@plt+0x8>
000000000008b2a0 <_ZN2cvgeERKNS_3MatEd@plt>:
   8b2a0: 10 00 00 d0  	adrp	x16, 0x8d000 <_ZN2cvgeERKNS_3MatEd@plt+0x8>
000000000008b2b0 <_ZN2cvmlERKNS_3MatEd@plt>:
   8b2b0: 10 00 00 d0  	adrp	x16, 0x8d000 <_ZN2cvmlERKNS_3MatEd@plt+0x8>
000000000008b2c0 <_ZN2cvplERKNS_7MatExprES2_@plt>:
   8b2c0: 10 00 00 d0  	adrp	x16, 0x8d000 <_ZN2cvplERKNS_7MatExprES2_@plt+0x8>
000000000008b2d0 <_ZNK2cv3Mat6copyToERKNS_12_OutputArrayERKNS_11_InputArrayE@plt>:
   8b2d0: 10 00 00 d0  	adrp	x16, 0x8d000 <_ZNK2cv3Mat6copyToERKNS_12_OutputArrayERKNS_11_InputArrayE@plt+0x8>
000000000008b2e0 <_ZNSt3__16__sortIRNS_6__lessIffEEPfEEvT0_S5_T_@plt>:
   8b2e0: 10 00 00 d0  	adrp	x16, 0x8d000 <_ZNSt3__16__sortIRNS_6__lessIffEEPfEEvT0_S5_T_@plt+0x8>
000000000008b2f0 <_ZN2cvanERKNS_3MatES2_@plt>:
   8b2f0: 10 00 00 d0  	adrp	x16, 0x8d000 <_ZN2cvanERKNS_3MatES2_@plt+0x8>
000000000008b300 <_ZN2cvcoERKNS_3MatE@plt>:
   8b300: 10 00 00 d0  	adrp	x16, 0x8d000 <_ZN2cvcoERKNS_3MatE@plt+0x8>
000000000008b310 <_ZN2cvorERKNS_3MatES2_@plt>:
   8b310: 10 00 00 d0  	adrp	x16, 0x8d000 <_ZN2cvorERKNS_3MatES2_@plt+0x8>
000000000008b320 <_ZN2cv12GaussianBlurERKNS_11_InputArrayERKNS_12_OutputArrayENS_5Size_IiEEddi@plt>:
   8b320: 10 00 00 d0  	adrp	x16, 0x8d000 <_ZN2cv12GaussianBlurERKNS_11_InputArrayERKNS_12_OutputArrayENS_5Size_IiEEddi@plt+0x8>
000000000008b330 <_ZN2cv3Mat20updateContinuityFlagEv@plt>:
   8b330: 10 00 00 d0  	adrp	x16, 0x8d000 <_ZN2cv3Mat20updateContinuityFlagEv@plt+0x8>
000000000008b340 <_ZN2cv5errorEiRKNSt3__112basic_stringIcNS0_11char_traitsIcEENS0_9allocatorIcEEEEPKcSA_i@plt>:
   8b340: 10 00 00 d0  	adrp	x16, 0x8d000 <_ZN2cv5errorEiRKNSt3__112basic_stringIcNS0_11char_traitsIcEENS0_9allocatorIcEEEEPKcSA_i@plt+0x8>
000000000008b370 <_ZNSt3__111this_thread9sleep_forERKNS_6chrono8durationIxNS_5ratioILl1ELl1000000000EEEEE@plt>:
   8b370: 10 00 00 d0  	adrp	x16, 0x8d000 <_ZNSt3__111this_thread9sleep_forERKNS_6chrono8durationIxNS_5ratioILl1ELl1000000000EEEEE@plt+0x8>
000000000008c208 <_ZTVNSt3__117bad_function_callE>:
000000000008c270 <_ZTVNSt3__114basic_ifstreamIcNS_11char_traitsIcEEEE>:
000000000008c2c0 <_ZTCNSt3__114basic_ifstreamIcNS_11char_traitsIcEEEE0_NS_13basic_istreamIcS2_EE>:
000000000008c310 <_ZTVNSt3__113basic_filebufIcNS_11char_traitsIcEEEE>:
000000000008c390 <_ZTVNSt3__114basic_ofstreamIcNS_11char_traitsIcEEEE>:
000000000008c3e0 <_ZTCNSt3__114basic_ofstreamIcNS_11char_traitsIcEEEE0_NS_13basic_ostreamIcS2_EE>:
000000000008d0d8 <_ZTISt9exception>:
000000000008d0e8 <_ZTISt11logic_error>:
000000000008d100 <_ZTISt12length_error>:
000000000008d118 <_ZTINSt3__117bad_function_callE>:
000000000008d150 <_ZTISt8bad_cast>:
