0000000000005e9c <_ZTSSt12length_error>:
0000000000005ead <_ZTSSt11logic_error>:
0000000000005ebd <_ZTSSt9exception>:
0000000000005eca <_ZTSNSt3__117bad_function_callE>:
0000000000005ee6 <_ZTSSt8bad_cast>:
   10184: eb ed 01 94  	bl	0x8b930 <_Znwm@plt>
   1018c: ed ed 01 94  	bl	0x8b940 <_ZNSt3__115__thread_structC1Ev@plt>
   10194: e7 ed 01 94  	bl	0x8b930 <_Znwm@plt>
   101e0: e0 ed 01 94  	bl	0x8b960 <_ZNSt3__16threadD1Ev@plt>
   101e8: d2 ed 01 94  	bl	0x8b930 <_Znwm@plt>
   101f0: d4 ed 01 94  	bl	0x8b940 <_ZNSt3__115__thread_structC1Ev@plt>
   101f8: ce ed 01 94  	bl	0x8b930 <_Znwm@plt>
   1023c: c9 ed 01 94  	bl	0x8b960 <_ZNSt3__16threadD1Ev@plt>
   10244: bb ed 01 94  	bl	0x8b930 <_Znwm@plt>
   1024c: bd ed 01 94  	bl	0x8b940 <_ZNSt3__115__thread_structC1Ev@plt>
   10254: b7 ed 01 94  	bl	0x8b930 <_Znwm@plt>
   10298: b2 ed 01 94  	bl	0x8b960 <_ZNSt3__16threadD1Ev@plt>
   102a0: a4 ed 01 94  	bl	0x8b930 <_Znwm@plt>
   102a8: a6 ed 01 94  	bl	0x8b940 <_ZNSt3__115__thread_structC1Ev@plt>
   102b0: a0 ed 01 94  	bl	0x8b930 <_Znwm@plt>
   102f4: 9b ed 01 94  	bl	0x8b960 <_ZNSt3__16threadD1Ev@plt>
   102fc: 8d ed 01 94  	bl	0x8b930 <_Znwm@plt>
   10304: 8f ed 01 94  	bl	0x8b940 <_ZNSt3__115__thread_structC1Ev@plt>
   1030c: 89 ed 01 94  	bl	0x8b930 <_Znwm@plt>
   10350: 84 ed 01 94  	bl	0x8b960 <_ZNSt3__16threadD1Ev@plt>
   10358: 76 ed 01 94  	bl	0x8b930 <_Znwm@plt>
   10360: 78 ed 01 94  	bl	0x8b940 <_ZNSt3__115__thread_structC1Ev@plt>
   10368: 72 ed 01 94  	bl	0x8b930 <_Znwm@plt>
   103ac: 6d ed 01 94  	bl	0x8b960 <_ZNSt3__16threadD1Ev@plt>
   103b4: 5f ed 01 94  	bl	0x8b930 <_Znwm@plt>
   103bc: 61 ed 01 94  	bl	0x8b940 <_ZNSt3__115__thread_structC1Ev@plt>
   103c4: 5b ed 01 94  	bl	0x8b930 <_Znwm@plt>
   10408: 56 ed 01 94  	bl	0x8b960 <_ZNSt3__16threadD1Ev@plt>
   10410: 48 ed 01 94  	bl	0x8b930 <_Znwm@plt>
   10418: 4a ed 01 94  	bl	0x8b940 <_ZNSt3__115__thread_structC1Ev@plt>
   10420: 44 ed 01 94  	bl	0x8b930 <_Znwm@plt>
   10460: 40 ed 01 94  	bl	0x8b960 <_ZNSt3__16threadD1Ev@plt>
   104bc: 31 ed 01 94  	bl	0x8b980 <_ZNSt3__120__throw_system_errorEiPKc@plt>
   104d0: 24 ed 01 94  	bl	0x8b960 <_ZNSt3__16threadD1Ev@plt>
   104ec: 2d ed 01 94  	bl	0x8b9a0 <_ZNSt3__115__thread_structD1Ev@plt>
   104f4: 2f ed 01 94  	bl	0x8b9b0 <_ZdlPv@plt>
   104fc: 2d ed 01 94  	bl	0x8b9b0 <_ZdlPv@plt>
   1050c: 25 ed 01 94  	bl	0x8b9a0 <_ZNSt3__115__thread_structD1Ev@plt>
   1051c: 25 ed 01 94  	bl	0x8b9b0 <_ZdlPv@plt>
   10560: 18 ed 01 94  	bl	0x8b9c0 <_ZNSt3__118condition_variableD1Ev@plt>
   10568: 16 ed 01 94  	bl	0x8b9c0 <_ZNSt3__118condition_variableD1Ev@plt>
   10570: 14 ed 01 94  	bl	0x8b9c0 <_ZNSt3__118condition_variableD1Ev@plt>
   10578: 16 ed 01 94  	bl	0x8b9d0 <_ZNSt3__15mutexD1Ev@plt>
   105a0: f0 ec 01 94  	bl	0x8b960 <_ZNSt3__16threadD1Ev@plt>
   105d4: f7 ec 01 94  	bl	0x8b9b0 <_ZdlPv@plt>
   10620: f8 ec 01 94  	bl	0x8ba00 <_ZNSt3__15mutex4lockEv@plt>
   10634: f7 ec 01 94  	bl	0x8ba10 <_ZNSt3__118condition_variable10notify_allEv@plt>
   1064c: f5 ec 01 94  	bl	0x8ba20 <_ZNSt3__118condition_variable4waitERNS_11unique_lockINS_5mutexEEE@plt>
   10664: f3 ec 01 94  	bl	0x8ba30 <_ZNSt3__15mutex6unlockEv@plt>
   10678: f2 ec 01 94  	bl	0x8ba40 <_ZNSt3__16thread4joinEv@plt>
   106bc: c1 ec 01 94  	bl	0x8b9c0 <_ZNSt3__118condition_variableD1Ev@plt>
   106c4: bf ec 01 94  	bl	0x8b9c0 <_ZNSt3__118condition_variableD1Ev@plt>
   106cc: bd ec 01 94  	bl	0x8b9c0 <_ZNSt3__118condition_variableD1Ev@plt>
   106d4: bf ec 01 94  	bl	0x8b9d0 <_ZNSt3__15mutexD1Ev@plt>
   106f8: 9a ec 01 94  	bl	0x8b960 <_ZNSt3__16threadD1Ev@plt>
   1072c: a1 ec 01 94  	bl	0x8b9b0 <_ZdlPv@plt>
   10778: 92 ec 01 94  	bl	0x8b9c0 <_ZNSt3__118condition_variableD1Ev@plt>
   10780: 90 ec 01 94  	bl	0x8b9c0 <_ZNSt3__118condition_variableD1Ev@plt>
   10788: 8e ec 01 94  	bl	0x8b9c0 <_ZNSt3__118condition_variableD1Ev@plt>
   10790: 90 ec 01 94  	bl	0x8b9d0 <_ZNSt3__15mutexD1Ev@plt>
   1080c: 55 ec 01 94  	bl	0x8b960 <_ZNSt3__16threadD1Ev@plt>
   1085c: 55 ec 01 14  	b	0x8b9b0 <_ZdlPv@plt>
   10870: 7c ec 01 94  	bl	0x8ba60 <_ZSt9terminatev@plt>
   108b4: 53 ec 01 94  	bl	0x8ba00 <_ZNSt3__15mutex4lockEv@plt>
   108f8: 46 ec 01 94  	bl	0x8ba10 <_ZNSt3__118condition_variable10notify_allEv@plt>
   10908: 4a ec 01 94  	bl	0x8ba30 <_ZNSt3__15mutex6unlockEv@plt>
   10978: 2a ec 01 94  	bl	0x8ba20 <_ZNSt3__118condition_variable4waitERNS_11unique_lockINS_5mutexEEE@plt>
   1099c: 25 ec 01 94  	bl	0x8ba30 <_ZNSt3__15mutex6unlockEv@plt>
   109c8: 0e ec 01 94  	bl	0x8ba00 <_ZNSt3__15mutex4lockEv@plt>
   109e4: 0b ec 01 94  	bl	0x8ba10 <_ZNSt3__118condition_variable10notify_allEv@plt>
   109f8: e2 eb 01 94  	bl	0x8b980 <_ZNSt3__120__throw_system_errorEiPKc@plt>
   10a0c: dd eb 01 94  	bl	0x8b980 <_ZNSt3__120__throw_system_errorEiPKc@plt>
   10a1c: d9 eb 01 94  	bl	0x8b980 <_ZNSt3__120__throw_system_errorEiPKc@plt>
   10a3c: fd eb 01 94  	bl	0x8ba30 <_ZNSt3__15mutex6unlockEv@plt>
   10ad8: 96 eb 01 94  	bl	0x8b930 <_Znwm@plt>
   10c0c: 55 eb 01 94  	bl	0x8b960 <_ZNSt3__16threadD1Ev@plt>
   10c44: 5b eb 01 14  	b	0x8b9b0 <_ZdlPv@plt>
   10c84: 87 eb 01 94  	bl	0x8baa0 <_ZNKSt3__120__vector_base_commonILb1EE20__throw_length_errorEv@plt>
   10cf0: 7c eb 01 94  	bl	0x8bae0 <_ZNSt11logic_errorC2EPKc@plt>
   10d24: 73 eb 01 94  	bl	0x8baf0 <_ZNSt3__119__thread_local_dataEv@plt>
   10d64: 0f eb 01 94  	bl	0x8b9a0 <_ZNSt3__115__thread_structD1Ev@plt>
   10d6c: 11 eb 01 94  	bl	0x8b9b0 <_ZdlPv@plt>
   10d74: 0f eb 01 94  	bl	0x8b9b0 <_ZdlPv@plt>
   10dac: fd ea 01 94  	bl	0x8b9a0 <_ZNSt3__115__thread_structD1Ev@plt>
   10db4: ff ea 01 94  	bl	0x8b9b0 <_ZdlPv@plt>
   10dbc: fd ea 01 94  	bl	0x8b9b0 <_ZdlPv@plt>
   10e10: 40 eb 01 94  	bl	0x8bb10 <_ZNSt9exceptionD2Ev@plt>
   10e20: e4 ea 01 14  	b	0x8b9b0 <_ZdlPv@plt>
   10e78: ae ea 01 94  	bl	0x8b930 <_Znwm@plt>
   10f18: 86 ea 01 94  	bl	0x8b930 <_Znwm@plt>
   11060: 54 ea 01 94  	bl	0x8b9b0 <_ZdlPv@plt>
   110d4: 93 ea 01 94  	bl	0x8bb20 <_ZNSt3__119__shared_weak_count14__release_weakEv@plt>
   11108: 86 ea 01 14  	b	0x8bb20 <_ZNSt3__119__shared_weak_count14__release_weakEv@plt>
   11134: 5b ea 01 94  	bl	0x8baa0 <_ZNKSt3__120__vector_base_commonILb1EE20__throw_length_errorEv@plt>
   11168: 6e ea 01 94  	bl	0x8bb20 <_ZNSt3__119__shared_weak_count14__release_weakEv@plt>
   111e4: 07 ea 01 94  	bl	0x8ba00 <_ZNSt3__15mutex4lockEv@plt>
   11248: ee e9 01 94  	bl	0x8ba00 <_ZNSt3__15mutex4lockEv@plt>
   11264: eb e9 01 94  	bl	0x8ba10 <_ZNSt3__118condition_variable10notify_allEv@plt>
   11278: ea e9 01 94  	bl	0x8ba20 <_ZNSt3__118condition_variable4waitERNS_11unique_lockINS_5mutexEEE@plt>
   11290: e8 e9 01 94  	bl	0x8ba30 <_ZNSt3__15mutex6unlockEv@plt>
   112cc: d9 e9 01 94  	bl	0x8ba30 <_ZNSt3__15mutex6unlockEv@plt>
   11374: af e9 01 94  	bl	0x8ba30 <_ZNSt3__15mutex6unlockEv@plt>
   113b8: 9e e9 01 94  	bl	0x8ba30 <_ZNSt3__15mutex6unlockEv@plt>
   11440: 5c e9 01 94  	bl	0x8b9b0 <_ZdlPv@plt>
   11464: 53 e9 01 94  	bl	0x8b9b0 <_ZdlPv@plt>
   1148c: b9 e9 01 94  	bl	0x8bb70 <_ZN2cv3Mat10deallocateEv@plt>
   11590: 7c e9 01 94  	bl	0x8bb80 <_ZN2cv8fastFreeEPv@plt>
   115b8: 6e e9 01 94  	bl	0x8bb70 <_ZN2cv3Mat10deallocateEv@plt>
   116b0: 34 e9 01 94  	bl	0x8bb80 <_ZN2cv8fastFreeEPv@plt>
   116d8: 26 e9 01 94  	bl	0x8bb70 <_ZN2cv3Mat10deallocateEv@plt>
   117dc: e9 e8 01 94  	bl	0x8bb80 <_ZN2cv8fastFreeEPv@plt>
   11804: db e8 01 94  	bl	0x8bb70 <_ZN2cv3Mat10deallocateEv@plt>
   11900: a0 e8 01 94  	bl	0x8bb80 <_ZN2cv8fastFreeEPv@plt>
   11928: 92 e8 01 94  	bl	0x8bb70 <_ZN2cv3Mat10deallocateEv@plt>
   11a24: 57 e8 01 94  	bl	0x8bb80 <_ZN2cv8fastFreeEPv@plt>
   11a44: e3 e7 01 14  	b	0x8b9d0 <_ZNSt3__15mutexD1Ev@plt>
   11aa4: 33 e8 01 94  	bl	0x8bb70 <_ZN2cv3Mat10deallocateEv@plt>
   11ba8: f6 e7 01 94  	bl	0x8bb80 <_ZN2cv8fastFreeEPv@plt>
   11bd0: e8 e7 01 94  	bl	0x8bb70 <_ZN2cv3Mat10deallocateEv@plt>
   11ccc: ad e7 01 94  	bl	0x8bb80 <_ZN2cv8fastFreeEPv@plt>
   11cf4: 9f e7 01 94  	bl	0x8bb70 <_ZN2cv3Mat10deallocateEv@plt>
   11df0: 64 e7 01 94  	bl	0x8bb80 <_ZN2cv8fastFreeEPv@plt>
   11e10: f0 e6 01 14  	b	0x8b9d0 <_ZNSt3__15mutexD1Ev@plt>
   11e30: e0 e6 01 14  	b	0x8b9b0 <_ZdlPv@plt>
   11ee4: 93 e6 01 94  	bl	0x8b930 <_Znwm@plt>
   11fd4: 77 e6 01 14  	b	0x8b9b0 <_ZdlPv@plt>
   120c4: 77 e6 01 94  	bl	0x8baa0 <_ZNKSt3__120__vector_base_commonILb1EE20__throw_length_errorEv@plt>
   120e0: 3c e6 01 14  	b	0x8b9d0 <_ZNSt3__15mutexD1Ev@plt>
   12130: 20 e6 01 14  	b	0x8b9b0 <_ZdlPv@plt>
   121e8: f2 e5 01 14  	b	0x8b9b0 <_ZdlPv@plt>
   12e44: 5b e3 01 94  	bl	0x8bbb0 <_ZN2cv3Mat6createEiPKii@plt>
   12ec0: 40 e3 01 94  	bl	0x8bbc0 <_ZN2cv3MatC1ERKS0_RKNS_5Rect_IiEE@plt>
   12f0c: 31 e3 01 94  	bl	0x8bbd0 <_ZNK2cv3Mat6copyToERKNS_12_OutputArrayE@plt>
   12f34: 0f e3 01 94  	bl	0x8bb70 <_ZN2cv3Mat10deallocateEv@plt>
   1303c: d1 e2 01 94  	bl	0x8bb80 <_ZN2cv8fastFreeEPv@plt>
   130cc: a9 e2 01 94  	bl	0x8bb70 <_ZN2cv3Mat10deallocateEv@plt>
   13150: 9c e2 01 94  	bl	0x8bbc0 <_ZN2cv3MatC1ERKS0_RKNS_5Rect_IiEE@plt>
   131a0: 84 e2 01 94  	bl	0x8bbb0 <_ZN2cv3Mat6createEiPKii@plt>
   131f0: 70 e2 01 94  	bl	0x8bbb0 <_ZN2cv3Mat6createEiPKii@plt>
   138d8: aa e0 01 94  	bl	0x8bb80 <_ZN2cv8fastFreeEPv@plt>
   13900: 9c e0 01 94  	bl	0x8bb70 <_ZN2cv3Mat10deallocateEv@plt>
   13a00: 60 e0 01 94  	bl	0x8bb80 <_ZN2cv8fastFreeEPv@plt>
   13a70: 40 e0 01 94  	bl	0x8bb70 <_ZN2cv3Mat10deallocateEv@plt>
   13b68: 06 e0 01 94  	bl	0x8bb80 <_ZN2cv8fastFreeEPv@plt>
   13b90: f8 df 01 94  	bl	0x8bb70 <_ZN2cv3Mat10deallocateEv@plt>
   13c90: bc df 01 94  	bl	0x8bb80 <_ZN2cv8fastFreeEPv@plt>
   13cb8: ae df 01 94  	bl	0x8bb70 <_ZN2cv3Mat10deallocateEv@plt>
   13db8: 72 df 01 94  	bl	0x8bb80 <_ZN2cv8fastFreeEPv@plt>
   13e04: 5b df 01 94  	bl	0x8bb70 <_ZN2cv3Mat10deallocateEv@plt>
   13efc: 21 df 01 94  	bl	0x8bb80 <_ZN2cv8fastFreeEPv@plt>
   13f30: 10 df 01 94  	bl	0x8bb70 <_ZN2cv3Mat10deallocateEv@plt>
   14030: d4 de 01 94  	bl	0x8bb80 <_ZN2cv8fastFreeEPv@plt>
   14064: c3 de 01 94  	bl	0x8bb70 <_ZN2cv3Mat10deallocateEv@plt>
   14164: 87 de 01 94  	bl	0x8bb80 <_ZN2cv8fastFreeEPv@plt>
   14198: 76 de 01 94  	bl	0x8bb70 <_ZN2cv3Mat10deallocateEv@plt>
   14294: 3b de 01 94  	bl	0x8bb80 <_ZN2cv8fastFreeEPv@plt>
   142d0: 28 de 01 94  	bl	0x8bb70 <_ZN2cv3Mat10deallocateEv@plt>
   143cc: ed dd 01 94  	bl	0x8bb80 <_ZN2cv8fastFreeEPv@plt>
   143f4: df dd 01 94  	bl	0x8bb70 <_ZN2cv3Mat10deallocateEv@plt>
   144f4: a3 dd 01 94  	bl	0x8bb80 <_ZN2cv8fastFreeEPv@plt>
   1452c: 91 dd 01 94  	bl	0x8bb70 <_ZN2cv3Mat10deallocateEv@plt>
   1462c: 55 dd 01 94  	bl	0x8bb80 <_ZN2cv8fastFreeEPv@plt>
   14770: 14 dd 01 94  	bl	0x8bbc0 <_ZN2cv3MatC1ERKS0_RKNS_5Rect_IiEE@plt>
   147b4: 07 dd 01 94  	bl	0x8bbd0 <_ZNK2cv3Mat6copyToERKNS_12_OutputArrayE@plt>
   147e0: e4 dc 01 94  	bl	0x8bb70 <_ZN2cv3Mat10deallocateEv@plt>
   14928: 96 dc 01 94  	bl	0x8bb80 <_ZN2cv8fastFreeEPv@plt>
   149b8: 6e dc 01 94  	bl	0x8bb70 <_ZN2cv3Mat10deallocateEv@plt>
   14a44: 5f dc 01 94  	bl	0x8bbc0 <_ZN2cv3MatC1ERKS0_RKNS_5Rect_IiEE@plt>
   14b48: 0e dc 01 94  	bl	0x8bb80 <_ZN2cv8fastFreeEPv@plt>
   14b78: fe db 01 94  	bl	0x8bb70 <_ZN2cv3Mat10deallocateEv@plt>
   14c7c: c1 db 01 94  	bl	0x8bb80 <_ZN2cv8fastFreeEPv@plt>
   14cb4: af db 01 94  	bl	0x8bb70 <_ZN2cv3Mat10deallocateEv@plt>
   14db4: 73 db 01 94  	bl	0x8bb80 <_ZN2cv8fastFreeEPv@plt>
   14de8: 62 db 01 94  	bl	0x8bb70 <_ZN2cv3Mat10deallocateEv@plt>
   14ee8: 26 db 01 94  	bl	0x8bb80 <_ZN2cv8fastFreeEPv@plt>
   14f24: 13 db 01 94  	bl	0x8bb70 <_ZN2cv3Mat10deallocateEv@plt>
   15024: d7 da 01 94  	bl	0x8bb80 <_ZN2cv8fastFreeEPv@plt>
   1504c: c9 da 01 94  	bl	0x8bb70 <_ZN2cv3Mat10deallocateEv@plt>
   1514c: 8d da 01 94  	bl	0x8bb80 <_ZN2cv8fastFreeEPv@plt>
   15644: 6b d9 01 94  	bl	0x8bbf0 <_ZN2cv7noArrayEv@plt>
   1565c: 69 d9 01 94  	bl	0x8bc00 <_ZN2cv13matchTemplateERKNS_11_InputArrayES2_RKNS_12_OutputArrayEiS2_@plt>
   15678: 5e d9 01 94  	bl	0x8bbf0 <_ZN2cv7noArrayEv@plt>
   15694: 5f d9 01 94  	bl	0x8bc10 <_ZN2cv9minMaxLocERKNS_11_InputArrayEPdS3_PNS_6Point_IiEES6_S2_@plt>
   156e8: 22 d9 01 94  	bl	0x8bb70 <_ZN2cv3Mat10deallocateEv@plt>
   157e0: e8 d8 01 94  	bl	0x8bb80 <_ZN2cv8fastFreeEPv@plt>
   16980: 7c d4 01 94  	bl	0x8bb70 <_ZN2cv3Mat10deallocateEv@plt>
   16a78: 42 d4 01 94  	bl	0x8bb80 <_ZN2cv8fastFreeEPv@plt>
   16d58: 16 d3 01 14  	b	0x8b9b0 <_ZdlPv@plt>
   16d74: ef d2 01 94  	bl	0x8b930 <_Znwm@plt>
   16dc0: fc d2 01 14  	b	0x8b9b0 <_ZdlPv@plt>
   16e68: f2 d2 01 94  	bl	0x8ba30 <_ZNSt3__15mutex6unlockEv@plt>
   16e98: da d2 01 94  	bl	0x8ba00 <_ZNSt3__15mutex4lockEv@plt>
   16eb4: df d2 01 94  	bl	0x8ba30 <_ZNSt3__15mutex6unlockEv@plt>
   16f40: b8 d2 01 94  	bl	0x8ba20 <_ZNSt3__118condition_variable4waitERNS_11unique_lockINS_5mutexEEE@plt>
   16fb4: 93 d2 01 94  	bl	0x8ba00 <_ZNSt3__15mutex4lockEv@plt>
   16fcc: 99 d2 01 94  	bl	0x8ba30 <_ZNSt3__15mutex6unlockEv@plt>
   16fd4: 8f d2 01 94  	bl	0x8ba10 <_ZNSt3__118condition_variable10notify_allEv@plt>
   1700c: 7d d2 01 94  	bl	0x8ba00 <_ZNSt3__15mutex4lockEv@plt>
   17028: 82 d2 01 94  	bl	0x8ba30 <_ZNSt3__15mutex6unlockEv@plt>
   17030: 78 d2 01 94  	bl	0x8ba10 <_ZNSt3__118condition_variable10notify_allEv@plt>
   1703c: 7d d2 01 94  	bl	0x8ba30 <_ZNSt3__15mutex6unlockEv@plt>
   17090: f0 d2 01 94  	bl	0x8bc50 <_ZNSt3__15mutex8try_lockEv@plt>
   1714c: 39 d2 01 94  	bl	0x8ba30 <_ZNSt3__15mutex6unlockEv@plt>
   171f0: 10 d2 01 94  	bl	0x8ba30 <_ZNSt3__15mutex6unlockEv@plt>
   1723c: f1 d1 01 94  	bl	0x8ba00 <_ZNSt3__15mutex4lockEv@plt>
   17398: a6 d1 01 94  	bl	0x8ba30 <_ZNSt3__15mutex6unlockEv@plt>
   173b8: 2a d2 01 94  	bl	0x8bc60 <_ZNSt3__119__shared_weak_countD2Ev@plt>
   173c8: 7a d1 01 14  	b	0x8b9b0 <_ZdlPv@plt>
   173d8: 76 d1 01 14  	b	0x8b9b0 <_ZdlPv@plt>
   174a0: 24 d1 01 94  	bl	0x8b930 <_Znwm@plt>
   17548: 1a d1 01 14  	b	0x8b9b0 <_ZdlPv@plt>
   17574: 4b d1 01 94  	bl	0x8baa0 <_ZNKSt3__120__vector_base_commonILb1EE20__throw_length_errorEv@plt>
   1763c: bd d0 01 94  	bl	0x8b930 <_Znwm@plt>
   1773c: 9d d0 01 14  	b	0x8b9b0 <_ZdlPv@plt>
   17780: c8 d0 01 94  	bl	0x8baa0 <_ZNKSt3__120__vector_base_commonILb1EE20__throw_length_errorEv@plt>
   17848: 3a d0 01 94  	bl	0x8b930 <_Znwm@plt>
   178b8: 3e d0 01 14  	b	0x8b9b0 <_ZdlPv@plt>
   178e4: 6f d0 01 94  	bl	0x8baa0 <_ZNKSt3__120__vector_base_commonILb1EE20__throw_length_errorEv@plt>
   17944: 8b d0 01 94  	bl	0x8bb70 <_ZN2cv3Mat10deallocateEv@plt>
   179e4: a7 d0 01 94  	bl	0x8bc80 <_ZN2cv3Mat8copySizeERKS0_@plt>
   17a6c: 41 d0 01 94  	bl	0x8bb70 <_ZN2cv3Mat10deallocateEv@plt>
   17b70: 04 d0 01 94  	bl	0x8bb80 <_ZN2cv8fastFreeEPv@plt>
   17b98: f6 cf 01 94  	bl	0x8bb70 <_ZN2cv3Mat10deallocateEv@plt>
   17c94: bb cf 01 94  	bl	0x8bb80 <_ZN2cv8fastFreeEPv@plt>
   17cbc: ad cf 01 94  	bl	0x8bb70 <_ZN2cv3Mat10deallocateEv@plt>
   17db8: 72 cf 01 94  	bl	0x8bb80 <_ZN2cv8fastFreeEPv@plt>
   17dd8: fe ce 01 14  	b	0x8b9d0 <_ZNSt3__15mutexD1Ev@plt>
   17e08: ea ce 01 14  	b	0x8b9b0 <_ZdlPv@plt>
   194d0: f0 c9 01 94  	bl	0x8bc90 <_ZN2cv12getTickCountEv@plt>
   1950c: e5 c9 01 94  	bl	0x8bca0 <_ZN2cv3ORB6createEifiiiiNS0_9ScoreTypeEii@plt>
   1953c: ad c9 01 94  	bl	0x8bbf0 <_ZN2cv7noArrayEv@plt>
   195c8: 8a c9 01 94  	bl	0x8bbf0 <_ZN2cv7noArrayEv@plt>
   19638: 96 c9 01 94  	bl	0x8bc90 <_ZN2cv12getTickCountEv@plt>
   19698: 86 c9 01 94  	bl	0x8bcb0 <_ZN2cv17DescriptorMatcher6createERKNSt3__112basic_stringIcNS1_11char_traitsIcEENS1_9allocatorIcEEEE@plt>
   196ac: c1 c8 01 94  	bl	0x8b9b0 <_ZdlPv@plt>
   19738: 62 c9 01 94  	bl	0x8bcc0 <_ZNK2cv17DescriptorMatcher5matchERKNS_11_InputArrayES3_RNSt3__16vectorINS_6DMatchENS4_9allocatorIS6_EEEES3_@plt>
   19760: 04 c9 01 94  	bl	0x8bb70 <_ZN2cv3Mat10deallocateEv@plt>
   19858: ca c8 01 94  	bl	0x8bb80 <_ZN2cv8fastFreeEPv@plt>
   198fc: 0d c8 01 94  	bl	0x8b930 <_Znwm@plt>
   19944: fb c7 01 94  	bl	0x8b930 <_Znwm@plt>
   19a94: 37 c8 01 94  	bl	0x8bb70 <_ZN2cv3Mat10deallocateEv@plt>
   19b20: 14 c8 01 94  	bl	0x8bb70 <_ZN2cv3Mat10deallocateEv@plt>
   19bcc: ed c7 01 94  	bl	0x8bb80 <_ZN2cv8fastFreeEPv@plt>
   19d40: 90 c7 01 94  	bl	0x8bb80 <_ZN2cv8fastFreeEPv@plt>
   19d54: e3 c7 01 94  	bl	0x8bce0 <_ZN2cv12countNonZeroERKNS_11_InputArrayE@plt>
   19d68: e2 c7 01 94  	bl	0x8bcf0 <_ZN2cv16getTickFrequencyEv@plt>
   19dc8: 6a c7 01 94  	bl	0x8bb70 <_ZN2cv3Mat10deallocateEv@plt>
   19ec0: 30 c7 01 94  	bl	0x8bb80 <_ZN2cv8fastFreeEPv@plt>
   19ee4: b3 c6 01 94  	bl	0x8b9b0 <_ZdlPv@plt>
   19f08: aa c6 01 94  	bl	0x8b9b0 <_ZdlPv@plt>
   19f4c: 99 c6 01 94  	bl	0x8b9b0 <_ZdlPv@plt>
   19fa8: 82 c6 01 94  	bl	0x8b9b0 <_ZdlPv@plt>
   19fd0: e8 c6 01 94  	bl	0x8bb70 <_ZN2cv3Mat10deallocateEv@plt>
   1a050: b4 c6 01 94  	bl	0x8bb20 <_ZNSt3__119__shared_weak_count14__release_weakEv@plt>
   1a0f4: a3 c6 01 94  	bl	0x8bb80 <_ZN2cv8fastFreeEPv@plt>
   1a144: 77 c6 01 94  	bl	0x8bb20 <_ZNSt3__119__shared_weak_count14__release_weakEv@plt>
   1a160: 50 c6 01 94  	bl	0x8baa0 <_ZNKSt3__120__vector_base_commonILb1EE20__throw_length_errorEv@plt>
   1a168: 4e c6 01 94  	bl	0x8baa0 <_ZNKSt3__120__vector_base_commonILb1EE20__throw_length_errorEv@plt>
   1a194: 77 c6 01 94  	bl	0x8bb70 <_ZN2cv3Mat10deallocateEv@plt>
   1a294: 3b c6 01 94  	bl	0x8bb80 <_ZN2cv8fastFreeEPv@plt>
   1a338: 0e c6 01 94  	bl	0x8bb70 <_ZN2cv3Mat10deallocateEv@plt>
   1a430: d4 c5 01 94  	bl	0x8bb80 <_ZN2cv8fastFreeEPv@plt>
   1a44c: 59 c5 01 94  	bl	0x8b9b0 <_ZdlPv@plt>
   1a484: bb c5 01 94  	bl	0x8bb70 <_ZN2cv3Mat10deallocateEv@plt>
   1a57c: 81 c5 01 94  	bl	0x8bb80 <_ZN2cv8fastFreeEPv@plt>
   1a5a0: 04 c5 01 94  	bl	0x8b9b0 <_ZdlPv@plt>
   1a5c4: fb c4 01 94  	bl	0x8b9b0 <_ZdlPv@plt>
   1a5fc: 49 c5 01 94  	bl	0x8bb20 <_ZNSt3__119__shared_weak_count14__release_weakEv@plt>
   1a620: e4 c4 01 94  	bl	0x8b9b0 <_ZdlPv@plt>
   1a684: 27 c5 01 94  	bl	0x8bb20 <_ZNSt3__119__shared_weak_count14__release_weakEv@plt>
   1a6c4: bb c4 01 94  	bl	0x8b9b0 <_ZdlPv@plt>
   1a6ec: 21 c5 01 94  	bl	0x8bb70 <_ZN2cv3Mat10deallocateEv@plt>
   1a7ec: e5 c4 01 94  	bl	0x8bb80 <_ZN2cv8fastFreeEPv@plt>
   1a84c: 11 c5 01 94  	bl	0x8bc90 <_ZN2cv12getTickCountEv@plt>
   1a8dc: 15 c4 01 94  	bl	0x8b930 <_Znwm@plt>
   1a95c: f5 c3 01 94  	bl	0x8b930 <_Znwm@plt>
   1a9e0: 74 c4 01 94  	bl	0x8bbb0 <_ZN2cv3Mat6createEiPKii@plt>
   1aa08: ca c3 01 94  	bl	0x8b930 <_Znwm@plt>
   1aa58: b6 c3 01 94  	bl	0x8b930 <_Znwm@plt>
   1aaa8: a2 c3 01 94  	bl	0x8b930 <_Znwm@plt>
   1aae4: 6b c4 01 94  	bl	0x8bc90 <_ZN2cv12getTickCountEv@plt>
   1aec8: 72 c3 01 94  	bl	0x8bc90 <_ZN2cv12getTickCountEv@plt>
   1af1c: 85 c2 01 94  	bl	0x8b930 <_Znwm@plt>
   1b008: 6a c2 01 94  	bl	0x8b9b0 <_ZdlPv@plt>
   1b00c: 21 c3 01 94  	bl	0x8bc90 <_ZN2cv12getTickCountEv@plt>
   1b07c: 29 c3 01 94  	bl	0x8bd20 <_ZN2cv3Mat5zerosEiii@plt>
   1b0e8: a2 c2 01 94  	bl	0x8bb70 <_ZN2cv3Mat10deallocateEv@plt>
   1b1e8: 66 c2 01 94  	bl	0x8bb80 <_ZN2cv8fastFreeEPv@plt>
   1b214: 57 c2 01 94  	bl	0x8bb70 <_ZN2cv3Mat10deallocateEv@plt>
   1b314: 1b c2 01 94  	bl	0x8bb80 <_ZN2cv8fastFreeEPv@plt>
   1b33c: 0d c2 01 94  	bl	0x8bb70 <_ZN2cv3Mat10deallocateEv@plt>
   1b43c: d1 c1 01 94  	bl	0x8bb80 <_ZN2cv8fastFreeEPv@plt>
   1b4bc: 1d c2 01 94  	bl	0x8bd30 <_ZNK2cv3Mat9convertToERKNS_12_OutputArrayEidd@plt>
   1b4c0: f4 c1 01 94  	bl	0x8bc90 <_ZN2cv12getTickCountEv@plt>
   1b4d8: 06 c2 01 94  	bl	0x8bcf0 <_ZN2cv16getTickFrequencyEv@plt>
   1b520: f4 c1 01 94  	bl	0x8bcf0 <_ZN2cv16getTickFrequencyEv@plt>
   1b564: e3 c1 01 94  	bl	0x8bcf0 <_ZN2cv16getTickFrequencyEv@plt>
   1b5ac: d1 c1 01 94  	bl	0x8bcf0 <_ZN2cv16getTickFrequencyEv@plt>
   1b65c: 49 c1 01 94  	bl	0x8bb80 <_ZN2cv8fastFreeEPv@plt>
   1b6cc: b9 c0 01 94  	bl	0x8b9b0 <_ZdlPv@plt>
   1b6f0: b0 c0 01 94  	bl	0x8b9b0 <_ZdlPv@plt>
   1b714: a7 c0 01 94  	bl	0x8b9b0 <_ZdlPv@plt>
   1b73c: 0d c1 01 94  	bl	0x8bb70 <_ZN2cv3Mat10deallocateEv@plt>
   1b83c: d1 c0 01 94  	bl	0x8bb80 <_ZN2cv8fastFreeEPv@plt>
   1b860: 54 c0 01 94  	bl	0x8b9b0 <_ZdlPv@plt>
   1b884: 4b c0 01 94  	bl	0x8b9b0 <_ZdlPv@plt>
   1b8d0: 74 c0 01 94  	bl	0x8baa0 <_ZNKSt3__120__vector_base_commonILb1EE20__throw_length_errorEv@plt>
   1b8d8: 72 c0 01 94  	bl	0x8baa0 <_ZNKSt3__120__vector_base_commonILb1EE20__throw_length_errorEv@plt>
   1b8e0: 70 c0 01 94  	bl	0x8baa0 <_ZNKSt3__120__vector_base_commonILb1EE20__throw_length_errorEv@plt>
   1b8e8: 6e c0 01 94  	bl	0x8baa0 <_ZNKSt3__120__vector_base_commonILb1EE20__throw_length_errorEv@plt>
   1b8f0: 6c c0 01 94  	bl	0x8baa0 <_ZNKSt3__120__vector_base_commonILb1EE20__throw_length_errorEv@plt>
   1b8f8: 6a c0 01 94  	bl	0x8baa0 <_ZNKSt3__120__vector_base_commonILb1EE20__throw_length_errorEv@plt>
   1b92c: 21 c0 01 94  	bl	0x8b9b0 <_ZdlPv@plt>
   1ba60: 44 c0 01 94  	bl	0x8bb70 <_ZN2cv3Mat10deallocateEv@plt>
   1bb68: 06 c0 01 94  	bl	0x8bb80 <_ZN2cv8fastFreeEPv@plt>
   1bb94: f7 bf 01 94  	bl	0x8bb70 <_ZN2cv3Mat10deallocateEv@plt>
   1bc9c: b9 bf 01 94  	bl	0x8bb80 <_ZN2cv8fastFreeEPv@plt>
   1bcc4: ab bf 01 94  	bl	0x8bb70 <_ZN2cv3Mat10deallocateEv@plt>
   1bdcc: 6d bf 01 94  	bl	0x8bb80 <_ZN2cv8fastFreeEPv@plt>
   1be18: e6 be 01 94  	bl	0x8b9b0 <_ZdlPv@plt>
   1be58: 46 bf 01 94  	bl	0x8bb70 <_ZN2cv3Mat10deallocateEv@plt>
   1bf5c: 09 bf 01 94  	bl	0x8bb80 <_ZN2cv8fastFreeEPv@plt>
   1bf80: 8c be 01 94  	bl	0x8b9b0 <_ZdlPv@plt>
   1bfa4: 83 be 01 94  	bl	0x8b9b0 <_ZdlPv@plt>
   1bfc8: 7a be 01 94  	bl	0x8b9b0 <_ZdlPv@plt>
   1bff0: e0 be 01 94  	bl	0x8bb70 <_ZN2cv3Mat10deallocateEv@plt>
   1c0f0: a4 be 01 94  	bl	0x8bb80 <_ZN2cv8fastFreeEPv@plt>
   1c114: 27 be 01 94  	bl	0x8b9b0 <_ZdlPv@plt>
   1c13c: 1d be 01 94  	bl	0x8b9b0 <_ZdlPv@plt>
   1c1b8: de bd 01 94  	bl	0x8b930 <_Znwm@plt>
   1c22c: 61 be 01 94  	bl	0x8bbb0 <_ZN2cv3Mat6createEiPKii@plt>
   1c250: b8 bd 01 94  	bl	0x8b930 <_Znwm@plt>
   1c8cc: 39 bc 01 94  	bl	0x8b9b0 <_ZdlPv@plt>
   1c8f4: 9f bc 01 94  	bl	0x8bb70 <_ZN2cv3Mat10deallocateEv@plt>
   1ca20: 58 bc 01 94  	bl	0x8bb80 <_ZN2cv8fastFreeEPv@plt>
   1ca44: db bb 01 94  	bl	0x8b9b0 <_ZdlPv@plt>
   1ca94: 03 bc 01 94  	bl	0x8baa0 <_ZNKSt3__120__vector_base_commonILb1EE20__throw_length_errorEv@plt>
   1caf8: ae bb 01 94  	bl	0x8b9b0 <_ZdlPv@plt>
   1cb20: 14 bc 01 94  	bl	0x8bb70 <_ZN2cv3Mat10deallocateEv@plt>
   1cc20: d8 bb 01 94  	bl	0x8bb80 <_ZN2cv8fastFreeEPv@plt>
   1cc48: 5a bb 01 94  	bl	0x8b9b0 <_ZdlPv@plt>
   1ccb4: 3f bb 01 94  	bl	0x8b9b0 <_ZdlPv@plt>
   1cce8: 12 bb 01 94  	bl	0x8b930 <_Znwm@plt>
   1cdcc: 35 bb 01 94  	bl	0x8baa0 <_ZNKSt3__120__vector_base_commonILb1EE20__throw_length_errorEv@plt>
   1da18: 9e b8 01 94  	bl	0x8bc90 <_ZN2cv12getTickCountEv@plt>
   1dc44: 0f b8 01 94  	bl	0x8bc80 <_ZN2cv3Mat8copySizeERKS0_@plt>
   1dd38: 9e b7 01 94  	bl	0x8bbb0 <_ZN2cv3Mat6createEiPKii@plt>
   1dda0: 84 b7 01 94  	bl	0x8bbb0 <_ZN2cv3Mat6createEiPKii@plt>
   1ddd0: b0 b7 01 94  	bl	0x8bc90 <_ZN2cv12getTickCountEv@plt>
   1de38: c2 b7 01 94  	bl	0x8bd40 <_ZN2cv3Mat3eyeEiii@plt>
   1de9c: 35 b7 01 94  	bl	0x8bb70 <_ZN2cv3Mat10deallocateEv@plt>
   1dfa0: f8 b6 01 94  	bl	0x8bb80 <_ZN2cv8fastFreeEPv@plt>
   1dfcc: e9 b6 01 94  	bl	0x8bb70 <_ZN2cv3Mat10deallocateEv@plt>
   1e0d0: ac b6 01 94  	bl	0x8bb80 <_ZN2cv8fastFreeEPv@plt>
   1e0f8: 9e b6 01 94  	bl	0x8bb70 <_ZN2cv3Mat10deallocateEv@plt>
   1e200: 60 b6 01 94  	bl	0x8bb80 <_ZN2cv8fastFreeEPv@plt>
   1e2a8: a6 b6 01 94  	bl	0x8bd40 <_ZN2cv3Mat3eyeEiii@plt>
   1e350: 08 b6 01 94  	bl	0x8bb70 <_ZN2cv3Mat10deallocateEv@plt>
   1e454: cb b5 01 94  	bl	0x8bb80 <_ZN2cv8fastFreeEPv@plt>
   1e480: bc b5 01 94  	bl	0x8bb70 <_ZN2cv3Mat10deallocateEv@plt>
   1e584: 7f b5 01 94  	bl	0x8bb80 <_ZN2cv8fastFreeEPv@plt>
   1e5ac: 71 b5 01 94  	bl	0x8bb70 <_ZN2cv3Mat10deallocateEv@plt>
   1e6b4: 33 b5 01 94  	bl	0x8bb80 <_ZN2cv8fastFreeEPv@plt>
   1e6c4: 73 b5 01 94  	bl	0x8bc90 <_ZN2cv12getTickCountEv@plt>
   1e8d0: 20 b5 01 94  	bl	0x8bd50 <_ZN2cv12equalizeHistERKNS_11_InputArrayERKNS_12_OutputArrayE@plt>
   1e8ec: b9 b4 01 94  	bl	0x8bbd0 <_ZNK2cv3Mat6copyToERKNS_12_OutputArrayE@plt>
   1e928: 0a b5 01 94  	bl	0x8bd50 <_ZN2cv12equalizeHistERKNS_11_InputArrayERKNS_12_OutputArrayE@plt>
   1e970: 80 b4 01 94  	bl	0x8bb70 <_ZN2cv3Mat10deallocateEv@plt>
   1ea0c: d1 b4 01 94  	bl	0x8bd50 <_ZN2cv12equalizeHistERKNS_11_InputArrayERKNS_12_OutputArrayE@plt>
   1ea2c: 69 b4 01 94  	bl	0x8bbd0 <_ZNK2cv3Mat6copyToERKNS_12_OutputArrayE@plt>
   1ea68: ba b4 01 94  	bl	0x8bd50 <_ZN2cv12equalizeHistERKNS_11_InputArrayERKNS_12_OutputArrayE@plt>
   1eab4: 2f b4 01 94  	bl	0x8bb70 <_ZN2cv3Mat10deallocateEv@plt>
   1eb4c: 81 b4 01 94  	bl	0x8bd50 <_ZN2cv12equalizeHistERKNS_11_InputArrayERKNS_12_OutputArrayE@plt>
   1eb6c: 19 b4 01 94  	bl	0x8bbd0 <_ZNK2cv3Mat6copyToERKNS_12_OutputArrayE@plt>
   1eba4: 6b b4 01 94  	bl	0x8bd50 <_ZN2cv12equalizeHistERKNS_11_InputArrayERKNS_12_OutputArrayE@plt>
   1ebec: e1 b3 01 94  	bl	0x8bb70 <_ZN2cv3Mat10deallocateEv@plt>
   1ece8: a6 b3 01 94  	bl	0x8bb80 <_ZN2cv8fastFreeEPv@plt>
   1ed10: 98 b3 01 94  	bl	0x8bb70 <_ZN2cv3Mat10deallocateEv@plt>
   1ee08: 5e b3 01 94  	bl	0x8bb80 <_ZN2cv8fastFreeEPv@plt>
   1ee30: 50 b3 01 94  	bl	0x8bb70 <_ZN2cv3Mat10deallocateEv@plt>
   1ef2c: 15 b3 01 94  	bl	0x8bb80 <_ZN2cv8fastFreeEPv@plt>
   1ef54: 07 b3 01 94  	bl	0x8bb70 <_ZN2cv3Mat10deallocateEv@plt>
   1f04c: cd b2 01 94  	bl	0x8bb80 <_ZN2cv8fastFreeEPv@plt>
   1f0ec: a5 b2 01 94  	bl	0x8bb80 <_ZN2cv8fastFreeEPv@plt>
   1f184: 7f b2 01 94  	bl	0x8bb80 <_ZN2cv8fastFreeEPv@plt>
   1f188: c2 b2 01 94  	bl	0x8bc90 <_ZN2cv12getTickCountEv@plt>
   1f254: 47 b2 01 94  	bl	0x8bb70 <_ZN2cv3Mat10deallocateEv@plt>
   1f2fc: 1d b2 01 94  	bl	0x8bb70 <_ZN2cv3Mat10deallocateEv@plt>
   1f3a0: f4 b1 01 94  	bl	0x8bb70 <_ZN2cv3Mat10deallocateEv@plt>
   1f4c4: af b1 01 94  	bl	0x8bb80 <_ZN2cv8fastFreeEPv@plt>
   1f534: 93 b1 01 94  	bl	0x8bb80 <_ZN2cv8fastFreeEPv@plt>
   1f630: 54 b1 01 94  	bl	0x8bb80 <_ZN2cv8fastFreeEPv@plt>
   1f6a0: 38 b1 01 94  	bl	0x8bb80 <_ZN2cv8fastFreeEPv@plt>
   1f79c: f9 b0 01 94  	bl	0x8bb80 <_ZN2cv8fastFreeEPv@plt>
   1f80c: dd b0 01 94  	bl	0x8bb80 <_ZN2cv8fastFreeEPv@plt>
   1f86c: d9 b0 01 94  	bl	0x8bbd0 <_ZNK2cv3Mat6copyToERKNS_12_OutputArrayE@plt>
   1f898: b6 b0 01 94  	bl	0x8bb70 <_ZN2cv3Mat10deallocateEv@plt>
   1f99c: 79 b0 01 94  	bl	0x8bb80 <_ZN2cv8fastFreeEPv@plt>
   1fc6c: 09 b0 01 94  	bl	0x8bc90 <_ZN2cv12getTickCountEv@plt>
   1ff7c: 41 af 01 94  	bl	0x8bc80 <_ZN2cv3Mat8copySizeERKS0_@plt>
   20080: 00 af 01 94  	bl	0x8bc80 <_ZN2cv3Mat8copySizeERKS0_@plt>
   200e4: b3 ae 01 94  	bl	0x8bbb0 <_ZN2cv3Mat6createEiPKii@plt>
   20220: 98 ae 01 94  	bl	0x8bc80 <_ZN2cv3Mat8copySizeERKS0_@plt>
   202f8: 62 ae 01 94  	bl	0x8bc80 <_ZN2cv3Mat8copySizeERKS0_@plt>
   203cc: 2d ae 01 94  	bl	0x8bc80 <_ZN2cv3Mat8copySizeERKS0_@plt>
   20480: 00 ae 01 94  	bl	0x8bc80 <_ZN2cv3Mat8copySizeERKS0_@plt>
   2052c: d5 ad 01 94  	bl	0x8bc80 <_ZN2cv3Mat8copySizeERKS0_@plt>
   207e0: 78 ac 01 94  	bl	0x8b9c0 <_ZNSt3__118condition_variableD1Ev@plt>
   207e8: 7a ac 01 94  	bl	0x8b9d0 <_ZNSt3__15mutexD1Ev@plt>
   20850: b4 ac 01 94  	bl	0x8bb20 <_ZNSt3__119__shared_weak_count14__release_weakEv@plt>
   20874: 4f ac 01 94  	bl	0x8b9b0 <_ZdlPv@plt>
   20898: 46 ac 01 94  	bl	0x8b9b0 <_ZdlPv@plt>
   208c0: 3c ac 01 94  	bl	0x8b9b0 <_ZdlPv@plt>
   208e4: 33 ac 01 94  	bl	0x8b9b0 <_ZdlPv@plt>
   2090c: 99 ac 01 94  	bl	0x8bb70 <_ZN2cv3Mat10deallocateEv@plt>
   20a10: 5c ac 01 94  	bl	0x8bb80 <_ZN2cv8fastFreeEPv@plt>
   20a14: 9f ac 01 94  	bl	0x8bc90 <_ZN2cv12getTickCountEv@plt>
   20a50: 90 ac 01 94  	bl	0x8bc90 <_ZN2cv12getTickCountEv@plt>
   20a98: 36 ac 01 94  	bl	0x8bb70 <_ZN2cv3Mat10deallocateEv@plt>
   20b94: 73 ac 01 94  	bl	0x8bd60 <_ZN2cv22estimateRigidTransformERKNS_11_InputArrayES2_b@plt>
   20bc4: eb ab 01 94  	bl	0x8bb70 <_ZN2cv3Mat10deallocateEv@plt>
   20ea4: 33 ab 01 94  	bl	0x8bb70 <_ZN2cv3Mat10deallocateEv@plt>
   20f8c: 89 aa 01 94  	bl	0x8b9b0 <_ZdlPv@plt>
   20fb4: 7f aa 01 94  	bl	0x8b9b0 <_ZdlPv@plt>
   20fd8: 76 aa 01 94  	bl	0x8b9b0 <_ZdlPv@plt>
   21008: 4e ab 01 94  	bl	0x8bd40 <_ZN2cv3Mat3eyeEiii@plt>
   21094: b7 aa 01 94  	bl	0x8bb70 <_ZN2cv3Mat10deallocateEv@plt>
   211b0: 74 aa 01 94  	bl	0x8bb80 <_ZN2cv8fastFreeEPv@plt>
   2121c: 59 aa 01 94  	bl	0x8bb80 <_ZN2cv8fastFreeEPv@plt>
   21258: 8e aa 01 94  	bl	0x8bc90 <_ZN2cv12getTickCountEv@plt>
   21318: 1a aa 01 94  	bl	0x8bb80 <_ZN2cv8fastFreeEPv@plt>
   21378: 02 aa 01 94  	bl	0x8bb80 <_ZN2cv8fastFreeEPv@plt>
   21454: 3b aa 01 94  	bl	0x8bd40 <_ZN2cv3Mat3eyeEiii@plt>
   214b4: af a9 01 94  	bl	0x8bb70 <_ZN2cv3Mat10deallocateEv@plt>
   215b0: 74 a9 01 94  	bl	0x8bb80 <_ZN2cv8fastFreeEPv@plt>
   215d8: 66 a9 01 94  	bl	0x8bb70 <_ZN2cv3Mat10deallocateEv@plt>
   216d4: 2b a9 01 94  	bl	0x8bb80 <_ZN2cv8fastFreeEPv@plt>
   216fc: 1d a9 01 94  	bl	0x8bb70 <_ZN2cv3Mat10deallocateEv@plt>
   217f8: e2 a8 01 94  	bl	0x8bb80 <_ZN2cv8fastFreeEPv@plt>
   218ac: b5 a8 01 94  	bl	0x8bb80 <_ZN2cv8fastFreeEPv@plt>
   2199c: 75 a8 01 94  	bl	0x8bb70 <_ZN2cv3Mat10deallocateEv@plt>
   21ab8: 32 a8 01 94  	bl	0x8bb80 <_ZN2cv8fastFreeEPv@plt>
   21b18: 1a a8 01 94  	bl	0x8bb80 <_ZN2cv8fastFreeEPv@plt>
   21b80: fc a7 01 94  	bl	0x8bb70 <_ZN2cv3Mat10deallocateEv@plt>
   21c80: c0 a7 01 94  	bl	0x8bb80 <_ZN2cv8fastFreeEPv@plt>
   21d3c: 91 a7 01 94  	bl	0x8bb80 <_ZN2cv8fastFreeEPv@plt>
   21da0: 78 a7 01 94  	bl	0x8bb80 <_ZN2cv8fastFreeEPv@plt>
   21e78: 42 a7 01 94  	bl	0x8bb80 <_ZN2cv8fastFreeEPv@plt>
   21ea0: 34 a7 01 94  	bl	0x8bb70 <_ZN2cv3Mat10deallocateEv@plt>
   21f9c: f9 a6 01 94  	bl	0x8bb80 <_ZN2cv8fastFreeEPv@plt>
   21fc4: eb a6 01 94  	bl	0x8bb70 <_ZN2cv3Mat10deallocateEv@plt>
   220c0: b0 a6 01 94  	bl	0x8bb80 <_ZN2cv8fastFreeEPv@plt>
   220f4: b3 a6 01 94  	bl	0x8bbc0 <_ZN2cv3MatC1ERKS0_RKNS_5Rect_IiEE@plt>
   22114: af a6 01 94  	bl	0x8bbd0 <_ZNK2cv3Mat6copyToERKNS_12_OutputArrayE@plt>
   2213c: 8d a6 01 94  	bl	0x8bb70 <_ZN2cv3Mat10deallocateEv@plt>
   22238: 52 a6 01 94  	bl	0x8bb80 <_ZN2cv8fastFreeEPv@plt>
   22268: 42 a6 01 94  	bl	0x8bb70 <_ZN2cv3Mat10deallocateEv@plt>
   22368: 06 a6 01 94  	bl	0x8bb80 <_ZN2cv8fastFreeEPv@plt>
   22414: d7 a5 01 94  	bl	0x8bb70 <_ZN2cv3Mat10deallocateEv@plt>
   22530: 94 a5 01 94  	bl	0x8bb80 <_ZN2cv8fastFreeEPv@plt>
   2259c: 79 a5 01 94  	bl	0x8bb80 <_ZN2cv8fastFreeEPv@plt>
   22608: 5a a5 01 94  	bl	0x8bb70 <_ZN2cv3Mat10deallocateEv@plt>
   22708: 1e a5 01 94  	bl	0x8bb80 <_ZN2cv8fastFreeEPv@plt>
   22738: 56 a5 01 94  	bl	0x8bc90 <_ZN2cv12getTickCountEv@plt>
   22788: 6e a5 01 94  	bl	0x8bd40 <_ZN2cv3Mat3eyeEiii@plt>
   227ec: e1 a4 01 94  	bl	0x8bb70 <_ZN2cv3Mat10deallocateEv@plt>
   22908: 0a a4 01 94  	bl	0x8b930 <_Znwm@plt>
   2292c: 21 a4 01 94  	bl	0x8b9b0 <_ZdlPv@plt>
   22a38: c2 a4 01 94  	bl	0x8bd40 <_ZN2cv3Mat3eyeEiii@plt>
   22a9c: 35 a4 01 94  	bl	0x8bb70 <_ZN2cv3Mat10deallocateEv@plt>
   22b6c: 01 a4 01 94  	bl	0x8bb70 <_ZN2cv3Mat10deallocateEv@plt>
   22c68: c6 a3 01 94  	bl	0x8bb80 <_ZN2cv8fastFreeEPv@plt>
   22c94: b7 a3 01 94  	bl	0x8bb70 <_ZN2cv3Mat10deallocateEv@plt>
   22d98: 7a a3 01 94  	bl	0x8bb80 <_ZN2cv8fastFreeEPv@plt>
   22dc0: 6c a3 01 94  	bl	0x8bb70 <_ZN2cv3Mat10deallocateEv@plt>
   22ec4: 2f a3 01 94  	bl	0x8bb80 <_ZN2cv8fastFreeEPv@plt>
   22f10: 18 a3 01 94  	bl	0x8bb70 <_ZN2cv3Mat10deallocateEv@plt>
   23008: de a2 01 94  	bl	0x8bb80 <_ZN2cv8fastFreeEPv@plt>
   23034: cf a2 01 94  	bl	0x8bb70 <_ZN2cv3Mat10deallocateEv@plt>
   23138: 92 a2 01 94  	bl	0x8bb80 <_ZN2cv8fastFreeEPv@plt>
   23160: 84 a2 01 94  	bl	0x8bb70 <_ZN2cv3Mat10deallocateEv@plt>
   23264: 47 a2 01 94  	bl	0x8bb80 <_ZN2cv8fastFreeEPv@plt>
   232d0: 70 a2 01 94  	bl	0x8bc90 <_ZN2cv12getTickCountEv@plt>
   232e8: 82 a2 01 94  	bl	0x8bcf0 <_ZN2cv16getTickFrequencyEv@plt>
   23330: 70 a2 01 94  	bl	0x8bcf0 <_ZN2cv16getTickFrequencyEv@plt>
   2337c: 5d a2 01 94  	bl	0x8bcf0 <_ZN2cv16getTickFrequencyEv@plt>
   233c4: 4b a2 01 94  	bl	0x8bcf0 <_ZN2cv16getTickFrequencyEv@plt>
   2340c: 39 a2 01 94  	bl	0x8bcf0 <_ZN2cv16getTickFrequencyEv@plt>
   2346c: c1 a1 01 94  	bl	0x8bb70 <_ZN2cv3Mat10deallocateEv@plt>
   2356c: 85 a1 01 94  	bl	0x8bb80 <_ZN2cv8fastFreeEPv@plt>
   23594: 77 a1 01 94  	bl	0x8bb70 <_ZN2cv3Mat10deallocateEv@plt>
   23694: 3b a1 01 94  	bl	0x8bb80 <_ZN2cv8fastFreeEPv@plt>
   236b8: be a0 01 94  	bl	0x8b9b0 <_ZdlPv@plt>
   236dc: b5 a0 01 94  	bl	0x8b9b0 <_ZdlPv@plt>
   23704: 1b a1 01 94  	bl	0x8bb70 <_ZN2cv3Mat10deallocateEv@plt>
   23804: df a0 01 94  	bl	0x8bb80 <_ZN2cv8fastFreeEPv@plt>
   2386c: 51 a0 01 94  	bl	0x8b9b0 <_ZdlPv@plt>
   238d0: a8 a0 01 94  	bl	0x8bb70 <_ZN2cv3Mat10deallocateEv@plt>
   238f8: 9e a0 01 94  	bl	0x8bb70 <_ZN2cv3Mat10deallocateEv@plt>
   239b4: 73 a0 01 94  	bl	0x8bb80 <_ZN2cv8fastFreeEPv@plt>
   23b28: 16 a0 01 94  	bl	0x8bb80 <_ZN2cv8fastFreeEPv@plt>
   23bd8: ea 9f 01 94  	bl	0x8bb80 <_ZN2cv8fastFreeEPv@plt>
   23d48: 8e 9f 01 94  	bl	0x8bb80 <_ZN2cv8fastFreeEPv@plt>
   23d98: 76 9f 01 94  	bl	0x8bb70 <_ZN2cv3Mat10deallocateEv@plt>
   23e9c: 39 9f 01 94  	bl	0x8bb80 <_ZN2cv8fastFreeEPv@plt>
   23ed0: 28 9f 01 94  	bl	0x8bb70 <_ZN2cv3Mat10deallocateEv@plt>
   23fd4: eb 9e 01 94  	bl	0x8bb80 <_ZN2cv8fastFreeEPv@plt>
   24038: ce 9e 01 94  	bl	0x8bb70 <_ZN2cv3Mat10deallocateEv@plt>
   24144: 8f 9e 01 94  	bl	0x8bb80 <_ZN2cv8fastFreeEPv@plt>
   2417c: 7d 9e 01 94  	bl	0x8bb70 <_ZN2cv3Mat10deallocateEv@plt>
   24288: 3e 9e 01 94  	bl	0x8bb80 <_ZN2cv8fastFreeEPv@plt>
   242c0: 2c 9e 01 94  	bl	0x8bb70 <_ZN2cv3Mat10deallocateEv@plt>
   243cc: ed 9d 01 94  	bl	0x8bb80 <_ZN2cv8fastFreeEPv@plt>
   24448: ca 9d 01 94  	bl	0x8bb70 <_ZN2cv3Mat10deallocateEv@plt>
   2454c: 8d 9d 01 94  	bl	0x8bb80 <_ZN2cv8fastFreeEPv@plt>
   24578: 7e 9d 01 94  	bl	0x8bb70 <_ZN2cv3Mat10deallocateEv@plt>
   2467c: 41 9d 01 94  	bl	0x8bb80 <_ZN2cv8fastFreeEPv@plt>
   246a4: 33 9d 01 94  	bl	0x8bb70 <_ZN2cv3Mat10deallocateEv@plt>
   247a8: f6 9c 01 94  	bl	0x8bb80 <_ZN2cv8fastFreeEPv@plt>
   247e8: e2 9c 01 94  	bl	0x8bb70 <_ZN2cv3Mat10deallocateEv@plt>
   248e0: a8 9c 01 94  	bl	0x8bb80 <_ZN2cv8fastFreeEPv@plt>
   24958: 86 9c 01 94  	bl	0x8bb70 <_ZN2cv3Mat10deallocateEv@plt>
   24a54: 4b 9c 01 94  	bl	0x8bb80 <_ZN2cv8fastFreeEPv@plt>
   24a7c: 3d 9c 01 94  	bl	0x8bb70 <_ZN2cv3Mat10deallocateEv@plt>
   24b74: 03 9c 01 94  	bl	0x8bb80 <_ZN2cv8fastFreeEPv@plt>
   24bb0: f0 9b 01 94  	bl	0x8bb70 <_ZN2cv3Mat10deallocateEv@plt>
   24cac: b5 9b 01 94  	bl	0x8bb80 <_ZN2cv8fastFreeEPv@plt>
   24cd4: a7 9b 01 94  	bl	0x8bb70 <_ZN2cv3Mat10deallocateEv@plt>
   24dcc: 6d 9b 01 94  	bl	0x8bb80 <_ZN2cv8fastFreeEPv@plt>
   24e08: 5a 9b 01 94  	bl	0x8bb70 <_ZN2cv3Mat10deallocateEv@plt>
   24f04: 1f 9b 01 94  	bl	0x8bb80 <_ZN2cv8fastFreeEPv@plt>
   24f2c: 11 9b 01 94  	bl	0x8bb70 <_ZN2cv3Mat10deallocateEv@plt>
   25024: d7 9a 01 94  	bl	0x8bb80 <_ZN2cv8fastFreeEPv@plt>
   25074: bf 9a 01 94  	bl	0x8bb70 <_ZN2cv3Mat10deallocateEv@plt>
   25178: 82 9a 01 94  	bl	0x8bb80 <_ZN2cv8fastFreeEPv@plt>
   251a4: 73 9a 01 94  	bl	0x8bb70 <_ZN2cv3Mat10deallocateEv@plt>
   252a8: 36 9a 01 94  	bl	0x8bb80 <_ZN2cv8fastFreeEPv@plt>
   252d0: 28 9a 01 94  	bl	0x8bb70 <_ZN2cv3Mat10deallocateEv@plt>
   253d4: eb 99 01 94  	bl	0x8bb80 <_ZN2cv8fastFreeEPv@plt>
   25428: d2 99 01 94  	bl	0x8bb70 <_ZN2cv3Mat10deallocateEv@plt>
   2551c: 99 99 01 94  	bl	0x8bb80 <_ZN2cv8fastFreeEPv@plt>
   25544: 8b 99 01 94  	bl	0x8bb70 <_ZN2cv3Mat10deallocateEv@plt>
   25640: 50 99 01 94  	bl	0x8bb80 <_ZN2cv8fastFreeEPv@plt>
   25668: 42 99 01 94  	bl	0x8bb70 <_ZN2cv3Mat10deallocateEv@plt>
   25764: 07 99 01 94  	bl	0x8bb80 <_ZN2cv8fastFreeEPv@plt>
   2577c: 95 98 01 94  	bl	0x8b9d0 <_ZNSt3__15mutexD1Ev@plt>
   257e4: e3 98 01 94  	bl	0x8bb70 <_ZN2cv3Mat10deallocateEv@plt>
   258e4: a7 98 01 94  	bl	0x8bb80 <_ZN2cv8fastFreeEPv@plt>
   25910: 98 98 01 94  	bl	0x8bb70 <_ZN2cv3Mat10deallocateEv@plt>
   25a14: 5b 98 01 94  	bl	0x8bb80 <_ZN2cv8fastFreeEPv@plt>
   25a3c: 4d 98 01 94  	bl	0x8bb70 <_ZN2cv3Mat10deallocateEv@plt>
   25b40: 10 98 01 94  	bl	0x8bb80 <_ZN2cv8fastFreeEPv@plt>
   25b6c: 01 98 01 94  	bl	0x8bb70 <_ZN2cv3Mat10deallocateEv@plt>
   25c70: c4 97 01 94  	bl	0x8bb80 <_ZN2cv8fastFreeEPv@plt>
   25cb8: ae 97 01 94  	bl	0x8bb70 <_ZN2cv3Mat10deallocateEv@plt>
   25dbc: 71 97 01 94  	bl	0x8bb80 <_ZN2cv8fastFreeEPv@plt>
   25de8: 62 97 01 94  	bl	0x8bb70 <_ZN2cv3Mat10deallocateEv@plt>
   25eec: 25 97 01 94  	bl	0x8bb80 <_ZN2cv8fastFreeEPv@plt>
   25f14: 17 97 01 94  	bl	0x8bb70 <_ZN2cv3Mat10deallocateEv@plt>
   26018: da 96 01 94  	bl	0x8bb80 <_ZN2cv8fastFreeEPv@plt>
   2607c: bd 96 01 94  	bl	0x8bb70 <_ZN2cv3Mat10deallocateEv@plt>
   26178: 82 96 01 94  	bl	0x8bb80 <_ZN2cv8fastFreeEPv@plt>
   261b0: 70 96 01 94  	bl	0x8bb70 <_ZN2cv3Mat10deallocateEv@plt>
   262ac: 35 96 01 94  	bl	0x8bb80 <_ZN2cv8fastFreeEPv@plt>
   262d4: 27 96 01 94  	bl	0x8bb70 <_ZN2cv3Mat10deallocateEv@plt>
   263d0: ec 95 01 94  	bl	0x8bb80 <_ZN2cv8fastFreeEPv@plt>
   263f8: de 95 01 94  	bl	0x8bb70 <_ZN2cv3Mat10deallocateEv@plt>
   264f4: a3 95 01 94  	bl	0x8bb80 <_ZN2cv8fastFreeEPv@plt>
   26530: 90 95 01 94  	bl	0x8bb70 <_ZN2cv3Mat10deallocateEv@plt>
   2662c: 55 95 01 94  	bl	0x8bb80 <_ZN2cv8fastFreeEPv@plt>
   26668: 42 95 01 94  	bl	0x8bb70 <_ZN2cv3Mat10deallocateEv@plt>
   26768: 06 95 01 94  	bl	0x8bb80 <_ZN2cv8fastFreeEPv@plt>
   267b0: f0 94 01 94  	bl	0x8bb70 <_ZN2cv3Mat10deallocateEv@plt>
   268b0: b4 94 01 94  	bl	0x8bb80 <_ZN2cv8fastFreeEPv@plt>
   268e8: a2 94 01 94  	bl	0x8bb70 <_ZN2cv3Mat10deallocateEv@plt>
   269e4: 67 94 01 94  	bl	0x8bb80 <_ZN2cv8fastFreeEPv@plt>
   26a1c: 55 94 01 94  	bl	0x8bb70 <_ZN2cv3Mat10deallocateEv@plt>
   26b20: 18 94 01 94  	bl	0x8bb80 <_ZN2cv8fastFreeEPv@plt>
   26b48: 0a 94 01 94  	bl	0x8bb70 <_ZN2cv3Mat10deallocateEv@plt>
   26c44: cf 93 01 94  	bl	0x8bb80 <_ZN2cv8fastFreeEPv@plt>
   26c6c: c1 93 01 94  	bl	0x8bb70 <_ZN2cv3Mat10deallocateEv@plt>
   26d68: 86 93 01 94  	bl	0x8bb80 <_ZN2cv8fastFreeEPv@plt>
   26d90: 78 93 01 94  	bl	0x8bb70 <_ZN2cv3Mat10deallocateEv@plt>
   26e8c: 3d 93 01 94  	bl	0x8bb80 <_ZN2cv8fastFreeEPv@plt>
   26ecc: b9 92 01 94  	bl	0x8b9b0 <_ZdlPv@plt>
   26ef8: ae 92 01 94  	bl	0x8b9b0 <_ZdlPv@plt>
   26f28: 12 93 01 94  	bl	0x8bb70 <_ZN2cv3Mat10deallocateEv@plt>
   27028: d6 92 01 94  	bl	0x8bb80 <_ZN2cv8fastFreeEPv@plt>
   27068: c2 92 01 94  	bl	0x8bb70 <_ZN2cv3Mat10deallocateEv@plt>
   27168: 86 92 01 94  	bl	0x8bb80 <_ZN2cv8fastFreeEPv@plt>
   271a0: 74 92 01 94  	bl	0x8bb70 <_ZN2cv3Mat10deallocateEv@plt>
   272a0: 38 92 01 94  	bl	0x8bb80 <_ZN2cv8fastFreeEPv@plt>
   272d4: 27 92 01 94  	bl	0x8bb70 <_ZN2cv3Mat10deallocateEv@plt>
   273d0: ec 91 01 94  	bl	0x8bb80 <_ZN2cv8fastFreeEPv@plt>
   27404: db 91 01 94  	bl	0x8bb70 <_ZN2cv3Mat10deallocateEv@plt>
   27500: a0 91 01 94  	bl	0x8bb80 <_ZN2cv8fastFreeEPv@plt>
   27574: 7f 91 01 94  	bl	0x8bb70 <_ZN2cv3Mat10deallocateEv@plt>
   27680: 40 91 01 94  	bl	0x8bb80 <_ZN2cv8fastFreeEPv@plt>
   276bc: 2d 91 01 94  	bl	0x8bb70 <_ZN2cv3Mat10deallocateEv@plt>
   277c0: f0 90 01 94  	bl	0x8bb80 <_ZN2cv8fastFreeEPv@plt>
   277e8: e2 90 01 94  	bl	0x8bb70 <_ZN2cv3Mat10deallocateEv@plt>
   278ec: a5 90 01 94  	bl	0x8bb80 <_ZN2cv8fastFreeEPv@plt>
   27914: 97 90 01 94  	bl	0x8bb70 <_ZN2cv3Mat10deallocateEv@plt>
   27a18: 5a 90 01 94  	bl	0x8bb80 <_ZN2cv8fastFreeEPv@plt>
   27a30: e8 8f 01 94  	bl	0x8b9d0 <_ZNSt3__15mutexD1Ev@plt>
   27a74: cf 8f 01 94  	bl	0x8b9b0 <_ZdlPv@plt>
   27a98: c6 8f 01 94  	bl	0x8b9b0 <_ZdlPv@plt>
   27ac0: 2c 90 01 94  	bl	0x8bb70 <_ZN2cv3Mat10deallocateEv@plt>
   27bc0: f0 8f 01 94  	bl	0x8bb80 <_ZN2cv8fastFreeEPv@plt>
   27be8: e2 8f 01 94  	bl	0x8bb70 <_ZN2cv3Mat10deallocateEv@plt>
   27ce8: a6 8f 01 94  	bl	0x8bb80 <_ZN2cv8fastFreeEPv@plt>
   27d10: 98 8f 01 94  	bl	0x8bb70 <_ZN2cv3Mat10deallocateEv@plt>
   27e10: 5c 8f 01 94  	bl	0x8bb80 <_ZN2cv8fastFreeEPv@plt>
   27e38: 4e 8f 01 94  	bl	0x8bb70 <_ZN2cv3Mat10deallocateEv@plt>
   27f38: 12 8f 01 94  	bl	0x8bb80 <_ZN2cv8fastFreeEPv@plt>
   27f60: 04 8f 01 94  	bl	0x8bb70 <_ZN2cv3Mat10deallocateEv@plt>
   28060: c8 8e 01 94  	bl	0x8bb80 <_ZN2cv8fastFreeEPv@plt>
   28078: 56 8e 01 94  	bl	0x8b9d0 <_ZNSt3__15mutexD1Ev@plt>
   2809c: 49 8e 01 94  	bl	0x8b9c0 <_ZNSt3__118condition_variableD1Ev@plt>
   280a4: 4b 8e 01 94  	bl	0x8b9d0 <_ZNSt3__15mutexD1Ev@plt>
   280f8: 8a 8e 01 94  	bl	0x8bb20 <_ZNSt3__119__shared_weak_count14__release_weakEv@plt>
   28120: 24 8e 01 94  	bl	0x8b9b0 <_ZdlPv@plt>
   28144: 1b 8e 01 94  	bl	0x8b9b0 <_ZdlPv@plt>
   28168: 12 8e 01 94  	bl	0x8b9b0 <_ZdlPv@plt>
   2818c: 09 8e 01 94  	bl	0x8b9b0 <_ZdlPv@plt>
   281b4: 6f 8e 01 94  	bl	0x8bb70 <_ZN2cv3Mat10deallocateEv@plt>
   282b0: 34 8e 01 94  	bl	0x8bb80 <_ZN2cv8fastFreeEPv@plt>
   282d8: 26 8e 01 94  	bl	0x8bb70 <_ZN2cv3Mat10deallocateEv@plt>
   283d8: ea 8d 01 94  	bl	0x8bb80 <_ZN2cv8fastFreeEPv@plt>
   28400: dc 8d 01 94  	bl	0x8bb70 <_ZN2cv3Mat10deallocateEv@plt>
   28500: a0 8d 01 94  	bl	0x8bb80 <_ZN2cv8fastFreeEPv@plt>
   28524: 23 8d 01 94  	bl	0x8b9b0 <_ZdlPv@plt>
   28548: 1a 8d 01 94  	bl	0x8b9b0 <_ZdlPv@plt>
   28570: 80 8d 01 94  	bl	0x8bb70 <_ZN2cv3Mat10deallocateEv@plt>
   28670: 44 8d 01 94  	bl	0x8bb80 <_ZN2cv8fastFreeEPv@plt>
   286d8: b6 8c 01 94  	bl	0x8b9b0 <_ZdlPv@plt>
   28878: 2e 8c 01 94  	bl	0x8b930 <_Znwm@plt>
   28ae4: b3 8b 01 94  	bl	0x8b9b0 <_ZdlPv@plt>
   28b24: df 8b 01 94  	bl	0x8baa0 <_ZNKSt3__120__vector_base_commonILb1EE20__throw_length_errorEv@plt>
   28b80: 8c 8b 01 94  	bl	0x8b9b0 <_ZdlPv@plt>
   28bd4: 57 8b 01 94  	bl	0x8b930 <_Znwm@plt>
   28c48: 96 8b 01 94  	bl	0x8baa0 <_ZNKSt3__120__vector_base_commonILb1EE20__throw_length_errorEv@plt>
   28cb4: 3f 8b 01 94  	bl	0x8b9b0 <_ZdlPv@plt>
   28e64: 87 8b 01 94  	bl	0x8bc80 <_ZN2cv3Mat8copySizeERKS0_@plt>
   28f34: 53 8b 01 94  	bl	0x8bc80 <_ZN2cv3Mat8copySizeERKS0_@plt>
   29070: d0 8a 01 94  	bl	0x8bbb0 <_ZN2cv3Mat6createEiPKii@plt>
   2907c: 41 8b 01 94  	bl	0x8bd80 <_ZN2cv3MataSERKNS_7Scalar_IdEE@plt>
   290f0: b0 8a 01 94  	bl	0x8bbb0 <_ZN2cv3Mat6createEiPKii@plt>
   2915c: 95 8a 01 94  	bl	0x8bbb0 <_ZN2cv3Mat6createEiPKii@plt>
   291bc: 7d 8a 01 94  	bl	0x8bbb0 <_ZN2cv3Mat6createEiPKii@plt>
   2927c: 3d 8a 01 94  	bl	0x8bb70 <_ZN2cv3Mat10deallocateEv@plt>
   29370: 04 8a 01 94  	bl	0x8bb80 <_ZN2cv8fastFreeEPv@plt>
   29398: f6 89 01 94  	bl	0x8bb70 <_ZN2cv3Mat10deallocateEv@plt>
   29498: ba 89 01 94  	bl	0x8bb80 <_ZN2cv8fastFreeEPv@plt>
   294c0: ac 89 01 94  	bl	0x8bb70 <_ZN2cv3Mat10deallocateEv@plt>
   295c0: 70 89 01 94  	bl	0x8bb80 <_ZN2cv8fastFreeEPv@plt>
   295e8: 62 89 01 94  	bl	0x8bb70 <_ZN2cv3Mat10deallocateEv@plt>
   296e8: 26 89 01 94  	bl	0x8bb80 <_ZN2cv8fastFreeEPv@plt>
   29710: 18 89 01 94  	bl	0x8bb70 <_ZN2cv3Mat10deallocateEv@plt>
   2980c: dd 88 01 94  	bl	0x8bb80 <_ZN2cv8fastFreeEPv@plt>
   29834: cf 88 01 94  	bl	0x8bb70 <_ZN2cv3Mat10deallocateEv@plt>
   29934: 93 88 01 94  	bl	0x8bb80 <_ZN2cv8fastFreeEPv@plt>
   2994c: 21 88 01 94  	bl	0x8b9d0 <_ZNSt3__15mutexD1Ev@plt>
   29ac4: bf 87 01 94  	bl	0x8b9c0 <_ZNSt3__118condition_variableD1Ev@plt>
   29acc: c1 87 01 94  	bl	0x8b9d0 <_ZNSt3__15mutexD1Ev@plt>
   29b2c: fd 87 01 94  	bl	0x8bb20 <_ZNSt3__119__shared_weak_count14__release_weakEv@plt>
   29b50: 98 87 01 94  	bl	0x8b9b0 <_ZdlPv@plt>
   29bbc: 81 87 01 94  	bl	0x8b9c0 <_ZNSt3__118condition_variableD1Ev@plt>
   29bc4: 83 87 01 94  	bl	0x8b9d0 <_ZNSt3__15mutexD1Ev@plt>
   29c18: c2 87 01 94  	bl	0x8bb20 <_ZNSt3__119__shared_weak_count14__release_weakEv@plt>
   29c44: 5b 87 01 94  	bl	0x8b9b0 <_ZdlPv@plt>
   29cb4: af 87 01 94  	bl	0x8bb70 <_ZN2cv3Mat10deallocateEv@plt>
   29db8: 72 87 01 94  	bl	0x8bb80 <_ZN2cv8fastFreeEPv@plt>
   29de0: 64 87 01 94  	bl	0x8bb70 <_ZN2cv3Mat10deallocateEv@plt>
   29ee4: 27 87 01 94  	bl	0x8bb80 <_ZN2cv8fastFreeEPv@plt>
   29f0c: 19 87 01 94  	bl	0x8bb70 <_ZN2cv3Mat10deallocateEv@plt>
   2a010: dc 86 01 94  	bl	0x8bb80 <_ZN2cv8fastFreeEPv@plt>
   2a038: ce 86 01 94  	bl	0x8bb70 <_ZN2cv3Mat10deallocateEv@plt>
   2a13c: 91 86 01 94  	bl	0x8bb80 <_ZN2cv8fastFreeEPv@plt>
   2a164: 83 86 01 94  	bl	0x8bb70 <_ZN2cv3Mat10deallocateEv@plt>
   2a260: 48 86 01 94  	bl	0x8bb80 <_ZN2cv8fastFreeEPv@plt>
   2a288: 3a 86 01 94  	bl	0x8bb70 <_ZN2cv3Mat10deallocateEv@plt>
   2a384: ff 85 01 94  	bl	0x8bb80 <_ZN2cv8fastFreeEPv@plt>
   2a3a4: 8b 85 01 14  	b	0x8b9d0 <_ZNSt3__15mutexD1Ev@plt>
   2a560: c8 85 01 94  	bl	0x8bc80 <_ZN2cv3Mat8copySizeERKS0_@plt>
   2a630: 94 85 01 94  	bl	0x8bc80 <_ZN2cv3Mat8copySizeERKS0_@plt>
   2a76c: 11 85 01 94  	bl	0x8bbb0 <_ZN2cv3Mat6createEiPKii@plt>
   2a778: 82 85 01 94  	bl	0x8bd80 <_ZN2cv3MataSERKNS_7Scalar_IdEE@plt>
   2a7e4: f3 84 01 94  	bl	0x8bbb0 <_ZN2cv3Mat6createEiPKii@plt>
   2a848: da 84 01 94  	bl	0x8bbb0 <_ZN2cv3Mat6createEiPKii@plt>
   2a8a8: c2 84 01 94  	bl	0x8bbb0 <_ZN2cv3Mat6createEiPKii@plt>
   2a968: 82 84 01 94  	bl	0x8bb70 <_ZN2cv3Mat10deallocateEv@plt>
   2aa5c: 49 84 01 94  	bl	0x8bb80 <_ZN2cv8fastFreeEPv@plt>
   2aa84: 3b 84 01 94  	bl	0x8bb70 <_ZN2cv3Mat10deallocateEv@plt>
   2ab84: ff 83 01 94  	bl	0x8bb80 <_ZN2cv8fastFreeEPv@plt>
   2abac: f1 83 01 94  	bl	0x8bb70 <_ZN2cv3Mat10deallocateEv@plt>
   2acac: b5 83 01 94  	bl	0x8bb80 <_ZN2cv8fastFreeEPv@plt>
   2acd4: a7 83 01 94  	bl	0x8bb70 <_ZN2cv3Mat10deallocateEv@plt>
   2add4: 6b 83 01 94  	bl	0x8bb80 <_ZN2cv8fastFreeEPv@plt>
   2adfc: 5d 83 01 94  	bl	0x8bb70 <_ZN2cv3Mat10deallocateEv@plt>
   2aef8: 22 83 01 94  	bl	0x8bb80 <_ZN2cv8fastFreeEPv@plt>
   2af20: 14 83 01 94  	bl	0x8bb70 <_ZN2cv3Mat10deallocateEv@plt>
   2b020: d8 82 01 94  	bl	0x8bb80 <_ZN2cv8fastFreeEPv@plt>
   2b038: 66 82 01 94  	bl	0x8b9d0 <_ZNSt3__15mutexD1Ev@plt>
   2b0a4: b3 82 01 94  	bl	0x8bb70 <_ZN2cv3Mat10deallocateEv@plt>
   2b1a8: 76 82 01 94  	bl	0x8bb80 <_ZN2cv8fastFreeEPv@plt>
   2b1d0: 68 82 01 94  	bl	0x8bb70 <_ZN2cv3Mat10deallocateEv@plt>
   2b2d4: 2b 82 01 94  	bl	0x8bb80 <_ZN2cv8fastFreeEPv@plt>
   2b2fc: 1d 82 01 94  	bl	0x8bb70 <_ZN2cv3Mat10deallocateEv@plt>
   2b400: e0 81 01 94  	bl	0x8bb80 <_ZN2cv8fastFreeEPv@plt>
   2b428: d2 81 01 94  	bl	0x8bb70 <_ZN2cv3Mat10deallocateEv@plt>
   2b52c: 95 81 01 94  	bl	0x8bb80 <_ZN2cv8fastFreeEPv@plt>
   2b554: 87 81 01 94  	bl	0x8bb70 <_ZN2cv3Mat10deallocateEv@plt>
   2b650: 4c 81 01 94  	bl	0x8bb80 <_ZN2cv8fastFreeEPv@plt>
   2b678: 3e 81 01 94  	bl	0x8bb70 <_ZN2cv3Mat10deallocateEv@plt>
   2b774: 03 81 01 94  	bl	0x8bb80 <_ZN2cv8fastFreeEPv@plt>
   2b794: 8f 80 01 14  	b	0x8b9d0 <_ZNSt3__15mutexD1Ev@plt>
   2b8cc: c1 80 01 94  	bl	0x8bbd0 <_ZNK2cv3Mat6copyToERKNS_12_OutputArrayE@plt>
   2b8fc: 9d 80 01 94  	bl	0x8bb70 <_ZN2cv3Mat10deallocateEv@plt>
   2b988: 7a 80 01 94  	bl	0x8bb70 <_ZN2cv3Mat10deallocateEv@plt>
   2ba30: 54 80 01 94  	bl	0x8bb80 <_ZN2cv8fastFreeEPv@plt>
   2bb7c: 01 80 01 94  	bl	0x8bb80 <_ZN2cv8fastFreeEPv@plt>
   2bc58: c6 7f 01 94  	bl	0x8bb70 <_ZN2cv3Mat10deallocateEv@plt>
   2bd50: 8c 7f 01 94  	bl	0x8bb80 <_ZN2cv8fastFreeEPv@plt>
   2bd88: 7a 7f 01 94  	bl	0x8bb70 <_ZN2cv3Mat10deallocateEv@plt>
   2be80: 40 7f 01 94  	bl	0x8bb80 <_ZN2cv8fastFreeEPv@plt>
   2bea8: 32 7f 01 94  	bl	0x8bb70 <_ZN2cv3Mat10deallocateEv@plt>
   2bfa0: f8 7e 01 94  	bl	0x8bb80 <_ZN2cv8fastFreeEPv@plt>
   2c050: 38 7e 01 94  	bl	0x8b930 <_Znwm@plt>
   2c140: 1c 7e 01 14  	b	0x8b9b0 <_ZdlPv@plt>
   2c248: 16 7e 01 94  	bl	0x8baa0 <_ZNKSt3__120__vector_base_commonILb1EE20__throw_length_errorEv@plt>
   2c284: 3b 7e 01 94  	bl	0x8bb70 <_ZN2cv3Mat10deallocateEv@plt>
   2c374: 03 7e 01 94  	bl	0x8bb80 <_ZN2cv8fastFreeEPv@plt>
   2c3b4: 5f 7d 01 94  	bl	0x8b930 <_Znwm@plt>
   2c3f0: ac 7d 01 94  	bl	0x8baa0 <_ZNKSt3__120__vector_base_commonILb1EE20__throw_length_errorEv@plt>
   2c420: 64 7d 01 94  	bl	0x8b9b0 <_ZdlPv@plt>
   2c45c: 35 7d 01 94  	bl	0x8b930 <_Znwm@plt>
   2c498: 82 7d 01 94  	bl	0x8baa0 <_ZNKSt3__120__vector_base_commonILb1EE20__throw_length_errorEv@plt>
   2c4c8: 3a 7d 01 94  	bl	0x8b9b0 <_ZdlPv@plt>
   2c4f8: 2e 7d 01 14  	b	0x8b9b0 <_ZdlPv@plt>
   2c6f0: b0 7c 01 14  	b	0x8b9b0 <_ZdlPv@plt>
   2c9b0: b4 7c 01 94  	bl	0x8bc80 <_ZN2cv3Mat8copySizeERKS0_@plt>
   2cc0c: 61 7c 01 94  	bl	0x8bd90 <_ZN2cv20perspectiveTransformERKNS_11_InputArrayERKNS_12_OutputArrayES2_@plt>
   2cccc: 39 7b 01 94  	bl	0x8b9b0 <_ZdlPv@plt>
   2ccf0: 30 7b 01 94  	bl	0x8b9b0 <_ZdlPv@plt>
   2cd60: 14 7b 01 94  	bl	0x8b9b0 <_ZdlPv@plt>
   2cd88: 0a 7b 01 94  	bl	0x8b9b0 <_ZdlPv@plt>
   2cdc8: fa 7a 01 94  	bl	0x8b9b0 <_ZdlPv@plt>
   2ce50: d8 7a 01 14  	b	0x8b9b0 <_ZdlPv@plt>
   2e2fc: b5 75 01 94  	bl	0x8b9d0 <_ZNSt3__15mutexD1Ev@plt>
   2e34c: 09 76 01 94  	bl	0x8bb70 <_ZN2cv3Mat10deallocateEv@plt>
   2e450: cc 75 01 94  	bl	0x8bb80 <_ZN2cv8fastFreeEPv@plt>
   2e478: be 75 01 94  	bl	0x8bb70 <_ZN2cv3Mat10deallocateEv@plt>
   2e57c: 81 75 01 94  	bl	0x8bb80 <_ZN2cv8fastFreeEPv@plt>
   2e5a4: 73 75 01 94  	bl	0x8bb70 <_ZN2cv3Mat10deallocateEv@plt>
   2e6a8: 36 75 01 94  	bl	0x8bb80 <_ZN2cv8fastFreeEPv@plt>
   2e6d0: 28 75 01 94  	bl	0x8bb70 <_ZN2cv3Mat10deallocateEv@plt>
   2e7d4: eb 74 01 94  	bl	0x8bb80 <_ZN2cv8fastFreeEPv@plt>
   2e7fc: dd 74 01 94  	bl	0x8bb70 <_ZN2cv3Mat10deallocateEv@plt>
   2e8f8: a2 74 01 94  	bl	0x8bb80 <_ZN2cv8fastFreeEPv@plt>
   2e920: 94 74 01 94  	bl	0x8bb70 <_ZN2cv3Mat10deallocateEv@plt>
   2ea1c: 59 74 01 94  	bl	0x8bb80 <_ZN2cv8fastFreeEPv@plt>
   2ea3c: e5 73 01 14  	b	0x8b9d0 <_ZNSt3__15mutexD1Ev@plt>
   2ea78: ce 73 01 14  	b	0x8b9b0 <_ZdlPv@plt>
   2f000: 4c 72 01 94  	bl	0x8b930 <_Znwm@plt>
   2f15c: 15 72 01 14  	b	0x8b9b0 <_ZdlPv@plt>
   2f1a0: 60 72 01 94  	bl	0x8bb20 <_ZNSt3__119__shared_weak_count14__release_weakEv@plt>
   2f1e4: 2f 72 01 94  	bl	0x8baa0 <_ZNKSt3__120__vector_base_commonILb1EE20__throw_length_errorEv@plt>
   2faa0: c0 70 01 94  	bl	0x8bda0 <_ZNSt3__113basic_istreamIcNS_11char_traitsIcEEED2Ev@plt>
   2fab0: c0 70 01 14  	b	0x8bdb0 <_ZNSt3__19basic_iosIcNS_11char_traitsIcEEED2Ev@plt>
   2fb24: ab 70 01 94  	bl	0x8bdd0 <_ZdaPv@plt>
   2fb38: a6 70 01 94  	bl	0x8bdd0 <_ZdaPv@plt>
   2fb4c: a5 70 01 14  	b	0x8bde0 <_ZNSt3__115basic_streambufIcNS_11char_traitsIcEEED2Ev@plt>
   2fb98: 92 70 01 94  	bl	0x8bde0 <_ZNSt3__115basic_streambufIcNS_11char_traitsIcEEED2Ev@plt>
   2fbc8: 7a 6f 01 14  	b	0x8b9b0 <_ZdlPv@plt>
   2fbfc: 7d 70 01 94  	bl	0x8bdf0 <_ZNKSt3__16locale9use_facetERNS0_2idE@plt>
   2fc44: 63 70 01 94  	bl	0x8bdd0 <_ZdaPv@plt>
   2fc74: 63 70 01 94  	bl	0x8be00 <_Znam@plt>
   2fca4: 57 70 01 94  	bl	0x8be00 <_Znam@plt>
   2fcf8: 36 70 01 94  	bl	0x8bdd0 <_ZdaPv@plt>
   2fd0c: 31 70 01 94  	bl	0x8bdd0 <_ZdaPv@plt>
   2fd60: 28 70 01 94  	bl	0x8be00 <_Znam@plt>
   2fd94: 1b 70 01 94  	bl	0x8be00 <_Znam@plt>
   30798: b6 6d 01 94  	bl	0x8be70 <_ZNSt8bad_castC1Ev@plt>
   307f8: 6a 6d 01 94  	bl	0x8bda0 <_ZNSt3__113basic_istreamIcNS_11char_traitsIcEEED2Ev@plt>
   30800: 6c 6d 01 94  	bl	0x8bdb0 <_ZNSt3__19basic_iosIcNS_11char_traitsIcEEED2Ev@plt>
   30810: 68 6c 01 14  	b	0x8b9b0 <_ZdlPv@plt>
   30864: 4f 6d 01 94  	bl	0x8bda0 <_ZNSt3__113basic_istreamIcNS_11char_traitsIcEEED2Ev@plt>
   30874: 4f 6d 01 14  	b	0x8bdb0 <_ZNSt3__19basic_iosIcNS_11char_traitsIcEEED2Ev@plt>
   308c4: 37 6d 01 94  	bl	0x8bda0 <_ZNSt3__113basic_istreamIcNS_11char_traitsIcEEED2Ev@plt>
   308cc: 39 6d 01 94  	bl	0x8bdb0 <_ZNSt3__19basic_iosIcNS_11char_traitsIcEEED2Ev@plt>
   308dc: 35 6c 01 14  	b	0x8b9b0 <_ZdlPv@plt>
   30f94: f7 6a 01 94  	bl	0x8bb70 <_ZN2cv3Mat10deallocateEv@plt>
   31090: bc 6a 01 94  	bl	0x8bb80 <_ZN2cv8fastFreeEPv@plt>
   310b8: ae 6a 01 94  	bl	0x8bb70 <_ZN2cv3Mat10deallocateEv@plt>
   311b4: 73 6a 01 94  	bl	0x8bb80 <_ZN2cv8fastFreeEPv@plt>
   311d4: ff 69 01 14  	b	0x8b9d0 <_ZNSt3__15mutexD1Ev@plt>
   31200: ec 69 01 14  	b	0x8b9b0 <_ZdlPv@plt>
   312e8: 5e 6a 01 14  	b	0x8bc60 <_ZNSt3__119__shared_weak_countD2Ev@plt>
   31318: 52 6a 01 94  	bl	0x8bc60 <_ZNSt3__119__shared_weak_countD2Ev@plt>
   31328: a2 69 01 14  	b	0x8b9b0 <_ZdlPv@plt>
   31390: 88 69 01 14  	b	0x8b9b0 <_ZdlPv@plt>
   313dc: e5 69 01 94  	bl	0x8bb70 <_ZN2cv3Mat10deallocateEv@plt>
   314d8: aa 69 01 94  	bl	0x8bb80 <_ZN2cv8fastFreeEPv@plt>
   31500: 9c 69 01 94  	bl	0x8bb70 <_ZN2cv3Mat10deallocateEv@plt>
   315fc: 61 69 01 94  	bl	0x8bb80 <_ZN2cv8fastFreeEPv@plt>
   3161c: ed 68 01 14  	b	0x8b9d0 <_ZNSt3__15mutexD1Ev@plt>
   31648: da 68 01 14  	b	0x8b9b0 <_ZdlPv@plt>
   317b0: 2c 69 01 14  	b	0x8bc60 <_ZNSt3__119__shared_weak_countD2Ev@plt>
   317e0: 20 69 01 94  	bl	0x8bc60 <_ZNSt3__119__shared_weak_countD2Ev@plt>
   317f0: 70 68 01 14  	b	0x8b9b0 <_ZdlPv@plt>
   31858: 56 68 01 14  	b	0x8b9b0 <_ZdlPv@plt>
   31924: d7 68 01 94  	bl	0x8bc80 <_ZN2cv3Mat8copySizeERKS0_@plt>
   319d0: 78 68 01 94  	bl	0x8bbb0 <_ZN2cv3Mat6createEiPKii@plt>
   31c34: e7 67 01 94  	bl	0x8bbd0 <_ZNK2cv3Mat6copyToERKNS_12_OutputArrayE@plt>
   31c80: 80 68 01 94  	bl	0x8be80 <_ZN2cv6resizeERKNS_11_InputArrayERKNS_12_OutputArrayENS_5Size_IiEEddi@plt>
   31d10: 08 68 01 94  	bl	0x8bd30 <_ZNK2cv3Mat9convertToERKNS_12_OutputArrayEidd@plt>
   31d44: 4f 68 01 94  	bl	0x8be80 <_ZN2cv6resizeERKNS_11_InputArrayERKNS_12_OutputArrayENS_5Size_IiEEddi@plt>
   31d64: f3 67 01 94  	bl	0x8bd30 <_ZNK2cv3Mat9convertToERKNS_12_OutputArrayEidd@plt>
   31d8c: 79 67 01 94  	bl	0x8bb70 <_ZN2cv3Mat10deallocateEv@plt>
   31e18: c6 67 01 94  	bl	0x8bd30 <_ZNK2cv3Mat9convertToERKNS_12_OutputArrayEidd@plt>
   31e38: 92 67 01 94  	bl	0x8bc80 <_ZN2cv3Mat8copySizeERKS0_@plt>
   31ef4: 63 67 01 94  	bl	0x8bc80 <_ZN2cv3Mat8copySizeERKS0_@plt>
   31fac: 61 67 01 94  	bl	0x8bd30 <_ZNK2cv3Mat9convertToERKNS_12_OutputArrayEidd@plt>
   31fcc: 2d 67 01 94  	bl	0x8bc80 <_ZN2cv3Mat8copySizeERKS0_@plt>
   3209c: 25 66 01 94  	bl	0x8b930 <_Znwm@plt>
   32190: e8 65 01 94  	bl	0x8b930 <_Znwm@plt>
   322e4: 27 66 01 94  	bl	0x8bb80 <_ZN2cv8fastFreeEPv@plt>
   3230c: 19 66 01 94  	bl	0x8bb70 <_ZN2cv3Mat10deallocateEv@plt>
   32408: de 65 01 94  	bl	0x8bb80 <_ZN2cv8fastFreeEPv@plt>
   32440: 3c 65 01 94  	bl	0x8b930 <_Znwm@plt>
   32544: fb 64 01 94  	bl	0x8b930 <_Znwm@plt>
   32634: bf 64 01 94  	bl	0x8b930 <_Znwm@plt>
   3272c: 81 64 01 94  	bl	0x8b930 <_Znwm@plt>
   32840: 10 65 01 94  	bl	0x8bc80 <_ZN2cv3Mat8copySizeERKS0_@plt>
   32920: a4 64 01 94  	bl	0x8bbb0 <_ZN2cv3Mat6createEiPKii@plt>
   32974: c3 64 01 94  	bl	0x8bc80 <_ZN2cv3Mat8copySizeERKS0_@plt>
   32a54: 57 64 01 94  	bl	0x8bbb0 <_ZN2cv3Mat6createEiPKii@plt>
   32aa0: 44 64 01 94  	bl	0x8bbb0 <_ZN2cv3Mat6createEiPKii@plt>
   32ad0: 28 64 01 94  	bl	0x8bb70 <_ZN2cv3Mat10deallocateEv@plt>
   32b8c: 09 64 01 94  	bl	0x8bbb0 <_ZN2cv3Mat6createEiPKii@plt>
   32bc4: eb 63 01 94  	bl	0x8bb70 <_ZN2cv3Mat10deallocateEv@plt>
   32c78: 02 64 01 94  	bl	0x8bc80 <_ZN2cv3Mat8copySizeERKS0_@plt>
   32d58: 96 63 01 94  	bl	0x8bbb0 <_ZN2cv3Mat6createEiPKii@plt>
   32dac: 81 63 01 94  	bl	0x8bbb0 <_ZN2cv3Mat6createEiPKii@plt>
   32dd8: 66 63 01 94  	bl	0x8bb70 <_ZN2cv3Mat10deallocateEv@plt>
   32e8c: 7d 63 01 94  	bl	0x8bc80 <_ZN2cv3Mat8copySizeERKS0_@plt>
   32f64: 13 63 01 94  	bl	0x8bbb0 <_ZN2cv3Mat6createEiPKii@plt>
   32fc4: 2f 63 01 94  	bl	0x8bc80 <_ZN2cv3Mat8copySizeERKS0_@plt>
   33098: c6 62 01 94  	bl	0x8bbb0 <_ZN2cv3Mat6createEiPKii@plt>
   330e8: b2 62 01 94  	bl	0x8bbb0 <_ZN2cv3Mat6createEiPKii@plt>
   3311c: 95 62 01 94  	bl	0x8bb70 <_ZN2cv3Mat10deallocateEv@plt>
   331d8: 76 62 01 94  	bl	0x8bbb0 <_ZN2cv3Mat6createEiPKii@plt>
   33210: 58 62 01 94  	bl	0x8bb70 <_ZN2cv3Mat10deallocateEv@plt>
   332c0: 70 62 01 94  	bl	0x8bc80 <_ZN2cv3Mat8copySizeERKS0_@plt>
   33390: 08 62 01 94  	bl	0x8bbb0 <_ZN2cv3Mat6createEiPKii@plt>
   333e0: f4 61 01 94  	bl	0x8bbb0 <_ZN2cv3Mat6createEiPKii@plt>
   33414: d7 61 01 94  	bl	0x8bb70 <_ZN2cv3Mat10deallocateEv@plt>
   33524: 97 61 01 94  	bl	0x8bb80 <_ZN2cv8fastFreeEPv@plt>
   33588: 7e 61 01 94  	bl	0x8bb80 <_ZN2cv8fastFreeEPv@plt>
   3366c: 2d 61 01 94  	bl	0x8bb20 <_ZNSt3__119__shared_weak_count14__release_weakEv@plt>
   3369c: 21 61 01 94  	bl	0x8bb20 <_ZNSt3__119__shared_weak_count14__release_weakEv@plt>
   336b0: c4 60 01 94  	bl	0x8b9c0 <_ZNSt3__118condition_variableD1Ev@plt>
   336b8: c6 60 01 94  	bl	0x8b9d0 <_ZNSt3__15mutexD1Ev@plt>
   33718: 02 61 01 94  	bl	0x8bb20 <_ZNSt3__119__shared_weak_count14__release_weakEv@plt>
   337f0: e4 60 01 94  	bl	0x8bb80 <_ZN2cv8fastFreeEPv@plt>
   33850: cc 60 01 94  	bl	0x8bb80 <_ZN2cv8fastFreeEPv@plt>
   33944: 77 60 01 94  	bl	0x8bb20 <_ZNSt3__119__shared_weak_count14__release_weakEv@plt>
   33974: 6b 60 01 94  	bl	0x8bb20 <_ZNSt3__119__shared_weak_count14__release_weakEv@plt>
   33984: 0f 60 01 94  	bl	0x8b9c0 <_ZNSt3__118condition_variableD1Ev@plt>
   3398c: 11 60 01 94  	bl	0x8b9d0 <_ZNSt3__15mutexD1Ev@plt>
   339ec: 4d 60 01 94  	bl	0x8bb20 <_ZNSt3__119__shared_weak_count14__release_weakEv@plt>
   33abc: 31 60 01 94  	bl	0x8bb80 <_ZN2cv8fastFreeEPv@plt>
   33b20: 18 60 01 94  	bl	0x8bb80 <_ZN2cv8fastFreeEPv@plt>
   33c28: be 5f 01 94  	bl	0x8bb20 <_ZNSt3__119__shared_weak_count14__release_weakEv@plt>
   33c58: b2 5f 01 94  	bl	0x8bb20 <_ZNSt3__119__shared_weak_count14__release_weakEv@plt>
   33c68: 56 5f 01 94  	bl	0x8b9c0 <_ZNSt3__118condition_variableD1Ev@plt>
   33c70: 58 5f 01 94  	bl	0x8b9d0 <_ZNSt3__15mutexD1Ev@plt>
   33cd4: 93 5f 01 94  	bl	0x8bb20 <_ZNSt3__119__shared_weak_count14__release_weakEv@plt>
   33da8: 76 5f 01 94  	bl	0x8bb80 <_ZN2cv8fastFreeEPv@plt>
   33e0c: 5d 5f 01 94  	bl	0x8bb80 <_ZN2cv8fastFreeEPv@plt>
   33f18: 02 5f 01 94  	bl	0x8bb20 <_ZNSt3__119__shared_weak_count14__release_weakEv@plt>
   33f4c: f5 5e 01 94  	bl	0x8bb20 <_ZNSt3__119__shared_weak_count14__release_weakEv@plt>
   33f5c: 99 5e 01 94  	bl	0x8b9c0 <_ZNSt3__118condition_variableD1Ev@plt>
   33f64: 9b 5e 01 94  	bl	0x8b9d0 <_ZNSt3__15mutexD1Ev@plt>
   33fc4: d7 5e 01 94  	bl	0x8bb20 <_ZNSt3__119__shared_weak_count14__release_weakEv@plt>
   33fe8: 72 5e 01 94  	bl	0x8b9b0 <_ZdlPv@plt>
   34020: ec 5e 01 94  	bl	0x8bbd0 <_ZNK2cv3Mat6copyToERKNS_12_OutputArrayE@plt>
   34060: 88 5f 01 94  	bl	0x8be80 <_ZN2cv6resizeERKNS_11_InputArrayERKNS_12_OutputArrayENS_5Size_IiEEddi@plt>
   34088: ba 5e 01 94  	bl	0x8bb70 <_ZN2cv3Mat10deallocateEv@plt>
   34178: 82 5e 01 94  	bl	0x8bb80 <_ZN2cv8fastFreeEPv@plt>
   34234: 53 5e 01 94  	bl	0x8bb80 <_ZN2cv8fastFreeEPv@plt>
   34294: 3b 5e 01 94  	bl	0x8bb80 <_ZN2cv8fastFreeEPv@plt>
   3437c: e9 5d 01 94  	bl	0x8bb20 <_ZNSt3__119__shared_weak_count14__release_weakEv@plt>
   343b4: db 5d 01 94  	bl	0x8bb20 <_ZNSt3__119__shared_weak_count14__release_weakEv@plt>
   343c4: 7f 5d 01 94  	bl	0x8b9c0 <_ZNSt3__118condition_variableD1Ev@plt>
   343cc: 81 5d 01 94  	bl	0x8b9d0 <_ZNSt3__15mutexD1Ev@plt>
   3442c: bd 5d 01 94  	bl	0x8bb20 <_ZNSt3__119__shared_weak_count14__release_weakEv@plt>
   34450: 58 5d 01 94  	bl	0x8b9b0 <_ZdlPv@plt>
   34488: d2 5d 01 94  	bl	0x8bbd0 <_ZNK2cv3Mat6copyToERKNS_12_OutputArrayE@plt>
   344c8: 6e 5e 01 94  	bl	0x8be80 <_ZN2cv6resizeERKNS_11_InputArrayERKNS_12_OutputArrayENS_5Size_IiEEddi@plt>
   344f0: a0 5d 01 94  	bl	0x8bb70 <_ZN2cv3Mat10deallocateEv@plt>
   345e8: 66 5d 01 94  	bl	0x8bb80 <_ZN2cv8fastFreeEPv@plt>
   346a0: 38 5d 01 94  	bl	0x8bb80 <_ZN2cv8fastFreeEPv@plt>
   34700: 20 5d 01 94  	bl	0x8bb80 <_ZN2cv8fastFreeEPv@plt>
   347f4: cb 5c 01 94  	bl	0x8bb20 <_ZNSt3__119__shared_weak_count14__release_weakEv@plt>
   34820: c0 5c 01 94  	bl	0x8bb20 <_ZNSt3__119__shared_weak_count14__release_weakEv@plt>
   34834: 63 5c 01 94  	bl	0x8b9c0 <_ZNSt3__118condition_variableD1Ev@plt>
   3483c: 65 5c 01 94  	bl	0x8b9d0 <_ZNSt3__15mutexD1Ev@plt>
   348a0: a0 5c 01 94  	bl	0x8bb20 <_ZNSt3__119__shared_weak_count14__release_weakEv@plt>
   348c8: 3a 5c 01 94  	bl	0x8b9b0 <_ZdlPv@plt>
   34900: b4 5c 01 94  	bl	0x8bbd0 <_ZNK2cv3Mat6copyToERKNS_12_OutputArrayE@plt>
   34940: 50 5d 01 94  	bl	0x8be80 <_ZN2cv6resizeERKNS_11_InputArrayERKNS_12_OutputArrayENS_5Size_IiEEddi@plt>
   34968: 82 5c 01 94  	bl	0x8bb70 <_ZN2cv3Mat10deallocateEv@plt>
   34a5c: 49 5c 01 94  	bl	0x8bb80 <_ZN2cv8fastFreeEPv@plt>
   34a84: 3b 5c 01 94  	bl	0x8bb70 <_ZN2cv3Mat10deallocateEv@plt>
   34b7c: 01 5c 01 94  	bl	0x8bb80 <_ZN2cv8fastFreeEPv@plt>
   34d34: 8f 5b 01 94  	bl	0x8bb70 <_ZN2cv3Mat10deallocateEv@plt>
   34e34: 53 5b 01 94  	bl	0x8bb80 <_ZN2cv8fastFreeEPv@plt>
   34e6c: 41 5b 01 94  	bl	0x8bb70 <_ZN2cv3Mat10deallocateEv@plt>
   34f6c: 05 5b 01 94  	bl	0x8bb80 <_ZN2cv8fastFreeEPv@plt>
   34fa0: f4 5a 01 94  	bl	0x8bb70 <_ZN2cv3Mat10deallocateEv@plt>
   350a0: b8 5a 01 94  	bl	0x8bb80 <_ZN2cv8fastFreeEPv@plt>
   350dc: a5 5a 01 94  	bl	0x8bb70 <_ZN2cv3Mat10deallocateEv@plt>
   351d4: 6b 5a 01 94  	bl	0x8bb80 <_ZN2cv8fastFreeEPv@plt>
   35214: 57 5a 01 94  	bl	0x8bb70 <_ZN2cv3Mat10deallocateEv@plt>
   35314: 1b 5a 01 94  	bl	0x8bb80 <_ZN2cv8fastFreeEPv@plt>
   35348: 0a 5a 01 94  	bl	0x8bb70 <_ZN2cv3Mat10deallocateEv@plt>
   35448: ce 59 01 94  	bl	0x8bb80 <_ZN2cv8fastFreeEPv@plt>
   354bc: 99 59 01 94  	bl	0x8bb20 <_ZNSt3__119__shared_weak_count14__release_weakEv@plt>
   354ec: 8d 59 01 94  	bl	0x8bb20 <_ZNSt3__119__shared_weak_count14__release_weakEv@plt>
   35534: 7b 59 01 94  	bl	0x8bb20 <_ZNSt3__119__shared_weak_count14__release_weakEv@plt>
   35564: 6f 59 01 94  	bl	0x8bb20 <_ZNSt3__119__shared_weak_count14__release_weakEv@plt>
   355a4: 5f 59 01 94  	bl	0x8bb20 <_ZNSt3__119__shared_weak_count14__release_weakEv@plt>
   355d4: 53 59 01 94  	bl	0x8bb20 <_ZNSt3__119__shared_weak_count14__release_weakEv@plt>
   35624: 3f 59 01 94  	bl	0x8bb20 <_ZNSt3__119__shared_weak_count14__release_weakEv@plt>
   35654: 33 59 01 94  	bl	0x8bb20 <_ZNSt3__119__shared_weak_count14__release_weakEv@plt>
   35694: 37 59 01 94  	bl	0x8bb70 <_ZN2cv3Mat10deallocateEv@plt>
   357a0: f8 58 01 94  	bl	0x8bb80 <_ZN2cv8fastFreeEPv@plt>
   357cc: e9 58 01 94  	bl	0x8bb70 <_ZN2cv3Mat10deallocateEv@plt>
   358d0: ac 58 01 94  	bl	0x8bb80 <_ZN2cv8fastFreeEPv@plt>
   358ec: 39 58 01 94  	bl	0x8b9d0 <_ZNSt3__15mutexD1Ev@plt>
   358f8: da 58 01 94  	bl	0x8bc60 <_ZNSt3__119__shared_weak_countD2Ev@plt>
   35900: 2c 58 01 94  	bl	0x8b9b0 <_ZdlPv@plt>
   35948: 76 58 01 94  	bl	0x8bb20 <_ZNSt3__119__shared_weak_count14__release_weakEv@plt>
   35978: 6a 58 01 94  	bl	0x8bb20 <_ZNSt3__119__shared_weak_count14__release_weakEv@plt>
   359b8: 5a 58 01 94  	bl	0x8bb20 <_ZNSt3__119__shared_weak_count14__release_weakEv@plt>
   359e8: 4e 58 01 94  	bl	0x8bb20 <_ZNSt3__119__shared_weak_count14__release_weakEv@plt>
   35a30: 50 58 01 94  	bl	0x8bb70 <_ZN2cv3Mat10deallocateEv@plt>
   35b3c: 11 58 01 94  	bl	0x8bb80 <_ZN2cv8fastFreeEPv@plt>
   35b68: 02 58 01 94  	bl	0x8bb70 <_ZN2cv3Mat10deallocateEv@plt>
   35c70: c4 57 01 94  	bl	0x8bb80 <_ZN2cv8fastFreeEPv@plt>
   35c8c: 51 57 01 94  	bl	0x8b9d0 <_ZNSt3__15mutexD1Ev@plt>
   35c98: f2 57 01 94  	bl	0x8bc60 <_ZNSt3__119__shared_weak_countD2Ev@plt>
   35ca0: 44 57 01 94  	bl	0x8b9b0 <_ZdlPv@plt>
   35ce0: a4 57 01 94  	bl	0x8bb70 <_ZN2cv3Mat10deallocateEv@plt>
   35dec: 65 57 01 94  	bl	0x8bb80 <_ZN2cv8fastFreeEPv@plt>
   35e18: 56 57 01 94  	bl	0x8bb70 <_ZN2cv3Mat10deallocateEv@plt>
   35f20: 18 57 01 94  	bl	0x8bb80 <_ZN2cv8fastFreeEPv@plt>
   35f3c: a5 56 01 94  	bl	0x8b9d0 <_ZNSt3__15mutexD1Ev@plt>
   35f48: 46 57 01 94  	bl	0x8bc60 <_ZNSt3__119__shared_weak_countD2Ev@plt>
   35f50: 98 56 01 94  	bl	0x8b9b0 <_ZdlPv@plt>
   35f8c: f9 56 01 94  	bl	0x8bb70 <_ZN2cv3Mat10deallocateEv@plt>
   36098: ba 56 01 94  	bl	0x8bb80 <_ZN2cv8fastFreeEPv@plt>
   360c4: ab 56 01 94  	bl	0x8bb70 <_ZN2cv3Mat10deallocateEv@plt>
   361c8: 6e 56 01 94  	bl	0x8bb80 <_ZN2cv8fastFreeEPv@plt>
   361e4: fb 55 01 94  	bl	0x8b9d0 <_ZNSt3__15mutexD1Ev@plt>
   361f0: 9c 56 01 94  	bl	0x8bc60 <_ZNSt3__119__shared_weak_countD2Ev@plt>
   361f8: ee 55 01 94  	bl	0x8b9b0 <_ZdlPv@plt>
   36210: ec 55 01 94  	bl	0x8b9c0 <_ZNSt3__118condition_variableD1Ev@plt>
   36218: ee 55 01 94  	bl	0x8b9d0 <_ZNSt3__15mutexD1Ev@plt>
   3626c: 2d 56 01 94  	bl	0x8bb20 <_ZNSt3__119__shared_weak_count14__release_weakEv@plt>
   362c8: 2a 56 01 94  	bl	0x8bb70 <_ZN2cv3Mat10deallocateEv@plt>
   363d4: eb 55 01 94  	bl	0x8bb80 <_ZN2cv8fastFreeEPv@plt>
   36400: dc 55 01 94  	bl	0x8bb70 <_ZN2cv3Mat10deallocateEv@plt>
   36504: 9f 55 01 94  	bl	0x8bb80 <_ZN2cv8fastFreeEPv@plt>
   36520: 2c 55 01 94  	bl	0x8b9d0 <_ZNSt3__15mutexD1Ev@plt>
   3652c: cd 55 01 94  	bl	0x8bc60 <_ZNSt3__119__shared_weak_countD2Ev@plt>
   36534: 1f 55 01 94  	bl	0x8b9b0 <_ZdlPv@plt>
   36570: 80 55 01 94  	bl	0x8bb70 <_ZN2cv3Mat10deallocateEv@plt>
   3667c: 41 55 01 94  	bl	0x8bb80 <_ZN2cv8fastFreeEPv@plt>
   366a8: 32 55 01 94  	bl	0x8bb70 <_ZN2cv3Mat10deallocateEv@plt>
   367ac: f5 54 01 94  	bl	0x8bb80 <_ZN2cv8fastFreeEPv@plt>
   367c8: 82 54 01 94  	bl	0x8b9d0 <_ZNSt3__15mutexD1Ev@plt>
   367d4: 23 55 01 94  	bl	0x8bc60 <_ZNSt3__119__shared_weak_countD2Ev@plt>
   367dc: 75 54 01 94  	bl	0x8b9b0 <_ZdlPv@plt>
   367f4: 73 54 01 94  	bl	0x8b9c0 <_ZNSt3__118condition_variableD1Ev@plt>
   367fc: 75 54 01 94  	bl	0x8b9d0 <_ZNSt3__15mutexD1Ev@plt>
   36850: b4 54 01 94  	bl	0x8bb20 <_ZNSt3__119__shared_weak_count14__release_weakEv@plt>
   36884: 4f 54 01 94  	bl	0x8b9c0 <_ZNSt3__118condition_variableD1Ev@plt>
   3688c: 51 54 01 94  	bl	0x8b9d0 <_ZNSt3__15mutexD1Ev@plt>
   368e0: 90 54 01 94  	bl	0x8bb20 <_ZNSt3__119__shared_weak_count14__release_weakEv@plt>
   3691c: 29 54 01 94  	bl	0x8b9c0 <_ZNSt3__118condition_variableD1Ev@plt>
   36924: 2b 54 01 94  	bl	0x8b9d0 <_ZNSt3__15mutexD1Ev@plt>
   36978: 6a 54 01 94  	bl	0x8bb20 <_ZNSt3__119__shared_weak_count14__release_weakEv@plt>
   369a0: 04 54 01 94  	bl	0x8b9b0 <_ZdlPv@plt>
   369d8: 66 54 01 94  	bl	0x8bb70 <_ZN2cv3Mat10deallocateEv@plt>
   36ad0: 2c 54 01 94  	bl	0x8bb80 <_ZN2cv8fastFreeEPv@plt>
   36af4: b3 53 01 94  	bl	0x8b9c0 <_ZNSt3__118condition_variableD1Ev@plt>
   36afc: b5 53 01 94  	bl	0x8b9d0 <_ZNSt3__15mutexD1Ev@plt>
   36b50: f4 53 01 94  	bl	0x8bb20 <_ZNSt3__119__shared_weak_count14__release_weakEv@plt>
   36b78: 8e 53 01 94  	bl	0x8b9b0 <_ZdlPv@plt>
   36b88: 8e 53 01 94  	bl	0x8b9c0 <_ZNSt3__118condition_variableD1Ev@plt>
   36b90: 90 53 01 94  	bl	0x8b9d0 <_ZNSt3__15mutexD1Ev@plt>
   36be4: cf 53 01 94  	bl	0x8bb20 <_ZNSt3__119__shared_weak_count14__release_weakEv@plt>
   36c10: 68 53 01 94  	bl	0x8b9b0 <_ZdlPv@plt>
   36c48: ca 53 01 94  	bl	0x8bb70 <_ZN2cv3Mat10deallocateEv@plt>
   36d40: 90 53 01 94  	bl	0x8bb80 <_ZN2cv8fastFreeEPv@plt>
   36d78: 7e 53 01 94  	bl	0x8bb70 <_ZN2cv3Mat10deallocateEv@plt>
   36e70: 44 53 01 94  	bl	0x8bb80 <_ZN2cv8fastFreeEPv@plt>
   36ec8: 2a 53 01 94  	bl	0x8bb70 <_ZN2cv3Mat10deallocateEv@plt>
   36fc0: f0 52 01 94  	bl	0x8bb80 <_ZN2cv8fastFreeEPv@plt>
   36fe8: e2 52 01 94  	bl	0x8bb70 <_ZN2cv3Mat10deallocateEv@plt>
   370e4: a7 52 01 94  	bl	0x8bb80 <_ZN2cv8fastFreeEPv@plt>
   37124: 93 52 01 94  	bl	0x8bb70 <_ZN2cv3Mat10deallocateEv@plt>
   3721c: 59 52 01 94  	bl	0x8bb80 <_ZN2cv8fastFreeEPv@plt>
   37274: 3f 52 01 94  	bl	0x8bb70 <_ZN2cv3Mat10deallocateEv@plt>
   37370: 04 52 01 94  	bl	0x8bb80 <_ZN2cv8fastFreeEPv@plt>
   37398: f6 51 01 94  	bl	0x8bb70 <_ZN2cv3Mat10deallocateEv@plt>
   37494: bb 51 01 94  	bl	0x8bb80 <_ZN2cv8fastFreeEPv@plt>
   374b4: 47 51 01 14  	b	0x8b9d0 <_ZNSt3__15mutexD1Ev@plt>
   374e0: 34 51 01 14  	b	0x8b9b0 <_ZdlPv@plt>
   37998: b2 50 01 14  	b	0x8bc60 <_ZNSt3__119__shared_weak_countD2Ev@plt>
   379c8: a6 50 01 94  	bl	0x8bc60 <_ZNSt3__119__shared_weak_countD2Ev@plt>
   379d8: f6 4f 01 14  	b	0x8b9b0 <_ZdlPv@plt>
   37a40: dc 4f 01 14  	b	0x8b9b0 <_ZdlPv@plt>
   37a8c: 39 50 01 94  	bl	0x8bb70 <_ZN2cv3Mat10deallocateEv@plt>
   37b88: fe 4f 01 94  	bl	0x8bb80 <_ZN2cv8fastFreeEPv@plt>
   37bb0: f0 4f 01 94  	bl	0x8bb70 <_ZN2cv3Mat10deallocateEv@plt>
   37cac: b5 4f 01 94  	bl	0x8bb80 <_ZN2cv8fastFreeEPv@plt>
   37ccc: 41 4f 01 14  	b	0x8b9d0 <_ZNSt3__15mutexD1Ev@plt>
   37cf8: 2e 4f 01 14  	b	0x8b9b0 <_ZdlPv@plt>
   38170: bc 4e 01 14  	b	0x8bc60 <_ZNSt3__119__shared_weak_countD2Ev@plt>
   381a0: b0 4e 01 94  	bl	0x8bc60 <_ZNSt3__119__shared_weak_countD2Ev@plt>
   381b0: 00 4e 01 14  	b	0x8b9b0 <_ZdlPv@plt>
   38218: e6 4d 01 14  	b	0x8b9b0 <_ZdlPv@plt>
   38264: 43 4e 01 94  	bl	0x8bb70 <_ZN2cv3Mat10deallocateEv@plt>
   38360: 08 4e 01 94  	bl	0x8bb80 <_ZN2cv8fastFreeEPv@plt>
   38388: fa 4d 01 94  	bl	0x8bb70 <_ZN2cv3Mat10deallocateEv@plt>
   38484: bf 4d 01 94  	bl	0x8bb80 <_ZN2cv8fastFreeEPv@plt>
   384a4: 4b 4d 01 14  	b	0x8b9d0 <_ZNSt3__15mutexD1Ev@plt>
   384d0: 38 4d 01 14  	b	0x8b9b0 <_ZdlPv@plt>
   38818: 12 4d 01 14  	b	0x8bc60 <_ZNSt3__119__shared_weak_countD2Ev@plt>
   38848: 06 4d 01 94  	bl	0x8bc60 <_ZNSt3__119__shared_weak_countD2Ev@plt>
   38858: 56 4c 01 14  	b	0x8b9b0 <_ZdlPv@plt>
   388c0: 3c 4c 01 14  	b	0x8b9b0 <_ZdlPv@plt>
   3890c: 99 4c 01 94  	bl	0x8bb70 <_ZN2cv3Mat10deallocateEv@plt>
   38a08: 5e 4c 01 94  	bl	0x8bb80 <_ZN2cv8fastFreeEPv@plt>
   38a30: 50 4c 01 94  	bl	0x8bb70 <_ZN2cv3Mat10deallocateEv@plt>
   38b2c: 15 4c 01 94  	bl	0x8bb80 <_ZN2cv8fastFreeEPv@plt>
   38b4c: a1 4b 01 14  	b	0x8b9d0 <_ZNSt3__15mutexD1Ev@plt>
   38b78: 8e 4b 01 14  	b	0x8b9b0 <_ZdlPv@plt>
   39180: b8 4a 01 14  	b	0x8bc60 <_ZNSt3__119__shared_weak_countD2Ev@plt>
   391b0: ac 4a 01 94  	bl	0x8bc60 <_ZNSt3__119__shared_weak_countD2Ev@plt>
   391c0: fc 49 01 14  	b	0x8b9b0 <_ZdlPv@plt>
   39228: e2 49 01 14  	b	0x8b9b0 <_ZdlPv@plt>
   3f9b0: 84 30 01 94  	bl	0x8bbc0 <_ZN2cv3MatC1ERKS0_RKNS_5Rect_IiEE@plt>
   3f9d8: 7a 30 01 94  	bl	0x8bbc0 <_ZN2cv3MatC1ERKS0_RKNS_5Rect_IiEE@plt>
   3fa04: 23 31 01 94  	bl	0x8be90 <_ZN2cv7absdiffERKNS_11_InputArrayES2_RKNS_12_OutputArrayE@plt>
   3fa2c: 51 30 01 94  	bl	0x8bb70 <_ZN2cv3Mat10deallocateEv@plt>
   3fb24: 17 30 01 94  	bl	0x8bb80 <_ZN2cv8fastFreeEPv@plt>
   3fb4c: 09 30 01 94  	bl	0x8bb70 <_ZN2cv3Mat10deallocateEv@plt>
   3fc3c: d1 2f 01 94  	bl	0x8bb80 <_ZN2cv8fastFreeEPv@plt>
   3fc84: cf 2f 01 94  	bl	0x8bbc0 <_ZN2cv3MatC1ERKS0_RKNS_5Rect_IiEE@plt>
   3fcb4: c3 2f 01 94  	bl	0x8bbc0 <_ZN2cv3MatC1ERKS0_RKNS_5Rect_IiEE@plt>
   3fce0: 6c 30 01 94  	bl	0x8be90 <_ZN2cv7absdiffERKNS_11_InputArrayES2_RKNS_12_OutputArrayE@plt>
   3fd08: 9a 2f 01 94  	bl	0x8bb70 <_ZN2cv3Mat10deallocateEv@plt>
   3fe04: 5f 2f 01 94  	bl	0x8bb80 <_ZN2cv8fastFreeEPv@plt>
   3fe2c: 51 2f 01 94  	bl	0x8bb70 <_ZN2cv3Mat10deallocateEv@plt>
   3ff24: 17 2f 01 94  	bl	0x8bb80 <_ZN2cv8fastFreeEPv@plt>
   3ff34: 2f 2f 01 94  	bl	0x8bbf0 <_ZN2cv7noArrayEv@plt>
   3ff44: d7 2f 01 94  	bl	0x8bea0 <_ZN2cv4normERKNS_11_InputArrayEiS2_@plt>
   3ff58: 26 2f 01 94  	bl	0x8bbf0 <_ZN2cv7noArrayEv@plt>
   3ff68: ce 2f 01 94  	bl	0x8bea0 <_ZN2cv4normERKNS_11_InputArrayEiS2_@plt>
   3ffac: f1 2e 01 94  	bl	0x8bb70 <_ZN2cv3Mat10deallocateEv@plt>
   4009c: b9 2e 01 94  	bl	0x8bb80 <_ZN2cv8fastFreeEPv@plt>
   400c4: ab 2e 01 94  	bl	0x8bb70 <_ZN2cv3Mat10deallocateEv@plt>
   401bc: 71 2e 01 94  	bl	0x8bb80 <_ZN2cv8fastFreeEPv@plt>
   40248: 4a 2e 01 94  	bl	0x8bb70 <_ZN2cv3Mat10deallocateEv@plt>
   40344: 0f 2e 01 94  	bl	0x8bb80 <_ZN2cv8fastFreeEPv@plt>
   40378: fe 2d 01 94  	bl	0x8bb70 <_ZN2cv3Mat10deallocateEv@plt>
   40470: c4 2d 01 94  	bl	0x8bb80 <_ZN2cv8fastFreeEPv@plt>
   404a8: b2 2d 01 94  	bl	0x8bb70 <_ZN2cv3Mat10deallocateEv@plt>
   405a0: 78 2d 01 94  	bl	0x8bb80 <_ZN2cv8fastFreeEPv@plt>
   405d4: 67 2d 01 94  	bl	0x8bb70 <_ZN2cv3Mat10deallocateEv@plt>
   406c4: 2f 2d 01 94  	bl	0x8bb80 <_ZN2cv8fastFreeEPv@plt>
   40704: 1b 2d 01 94  	bl	0x8bb70 <_ZN2cv3Mat10deallocateEv@plt>
   407f4: e3 2c 01 94  	bl	0x8bb80 <_ZN2cv8fastFreeEPv@plt>
   4081c: d5 2c 01 94  	bl	0x8bb70 <_ZN2cv3Mat10deallocateEv@plt>
   40914: 9b 2c 01 94  	bl	0x8bb80 <_ZN2cv8fastFreeEPv@plt>
   4093c: 6d 2c 01 94  	bl	0x8baf0 <_ZNSt3__119__thread_local_dataEv@plt>
   40988: 06 2c 01 94  	bl	0x8b9a0 <_ZNSt3__115__thread_structD1Ev@plt>
   40990: 08 2c 01 94  	bl	0x8b9b0 <_ZdlPv@plt>
   40998: 06 2c 01 94  	bl	0x8b9b0 <_ZdlPv@plt>
   409ec: ed 2b 01 94  	bl	0x8b9a0 <_ZNSt3__115__thread_structD1Ev@plt>
   409f4: ef 2b 01 94  	bl	0x8b9b0 <_ZdlPv@plt>
   409fc: ed 2b 01 94  	bl	0x8b9b0 <_ZdlPv@plt>
   40a74: af 2b 01 94  	bl	0x8b930 <_Znwm@plt>
   40a7c: b1 2b 01 94  	bl	0x8b940 <_ZNSt3__115__thread_structC1Ev@plt>
   40a84: ab 2b 01 94  	bl	0x8b930 <_Znwm@plt>
   40ad0: a4 2b 01 94  	bl	0x8b960 <_ZNSt3__16threadD1Ev@plt>
   40ad8: 96 2b 01 94  	bl	0x8b930 <_Znwm@plt>
   40ae0: 98 2b 01 94  	bl	0x8b940 <_ZNSt3__115__thread_structC1Ev@plt>
   40ae8: 92 2b 01 94  	bl	0x8b930 <_Znwm@plt>
   40b2c: 8d 2b 01 94  	bl	0x8b960 <_ZNSt3__16threadD1Ev@plt>
   40b34: 7f 2b 01 94  	bl	0x8b930 <_Znwm@plt>
   40b3c: 81 2b 01 94  	bl	0x8b940 <_ZNSt3__115__thread_structC1Ev@plt>
   40b44: 7b 2b 01 94  	bl	0x8b930 <_Znwm@plt>
   40b88: 76 2b 01 94  	bl	0x8b960 <_ZNSt3__16threadD1Ev@plt>
   40b90: 68 2b 01 94  	bl	0x8b930 <_Znwm@plt>
   40b98: 6a 2b 01 94  	bl	0x8b940 <_ZNSt3__115__thread_structC1Ev@plt>
   40ba0: 64 2b 01 94  	bl	0x8b930 <_Znwm@plt>
   40be0: 60 2b 01 94  	bl	0x8b960 <_ZNSt3__16threadD1Ev@plt>
   40c3c: 51 2b 01 94  	bl	0x8b980 <_ZNSt3__120__throw_system_errorEiPKc@plt>
   40c50: 44 2b 01 94  	bl	0x8b960 <_ZNSt3__16threadD1Ev@plt>
   40c6c: 4d 2b 01 94  	bl	0x8b9a0 <_ZNSt3__115__thread_structD1Ev@plt>
   40c74: 4f 2b 01 94  	bl	0x8b9b0 <_ZdlPv@plt>
   40c7c: 4d 2b 01 94  	bl	0x8b9b0 <_ZdlPv@plt>
   40c90: 44 2b 01 94  	bl	0x8b9a0 <_ZNSt3__115__thread_structD1Ev@plt>
   40c98: 46 2b 01 94  	bl	0x8b9b0 <_ZdlPv@plt>
   40cac: 41 2b 01 94  	bl	0x8b9b0 <_ZdlPv@plt>
   40cf0: 34 2b 01 94  	bl	0x8b9c0 <_ZNSt3__118condition_variableD1Ev@plt>
   40cf8: 32 2b 01 94  	bl	0x8b9c0 <_ZNSt3__118condition_variableD1Ev@plt>
   40d00: 30 2b 01 94  	bl	0x8b9c0 <_ZNSt3__118condition_variableD1Ev@plt>
   40d08: 32 2b 01 94  	bl	0x8b9d0 <_ZNSt3__15mutexD1Ev@plt>
   40d30: 0c 2b 01 94  	bl	0x8b960 <_ZNSt3__16threadD1Ev@plt>
   40d64: 13 2b 01 94  	bl	0x8b9b0 <_ZdlPv@plt>
   40db0: 14 2b 01 94  	bl	0x8ba00 <_ZNSt3__15mutex4lockEv@plt>
   40dc4: 13 2b 01 94  	bl	0x8ba10 <_ZNSt3__118condition_variable10notify_allEv@plt>
   40ddc: 11 2b 01 94  	bl	0x8ba20 <_ZNSt3__118condition_variable4waitERNS_11unique_lockINS_5mutexEEE@plt>
   40df4: 0f 2b 01 94  	bl	0x8ba30 <_ZNSt3__15mutex6unlockEv@plt>
   40e08: 0e 2b 01 94  	bl	0x8ba40 <_ZNSt3__16thread4joinEv@plt>
   40e4c: dd 2a 01 94  	bl	0x8b9c0 <_ZNSt3__118condition_variableD1Ev@plt>
   40e54: db 2a 01 94  	bl	0x8b9c0 <_ZNSt3__118condition_variableD1Ev@plt>
   40e5c: d9 2a 01 94  	bl	0x8b9c0 <_ZNSt3__118condition_variableD1Ev@plt>
   40e64: db 2a 01 94  	bl	0x8b9d0 <_ZNSt3__15mutexD1Ev@plt>
   40e88: b6 2a 01 94  	bl	0x8b960 <_ZNSt3__16threadD1Ev@plt>
   40ebc: bd 2a 01 94  	bl	0x8b9b0 <_ZdlPv@plt>
   40f08: ae 2a 01 94  	bl	0x8b9c0 <_ZNSt3__118condition_variableD1Ev@plt>
   40f10: ac 2a 01 94  	bl	0x8b9c0 <_ZNSt3__118condition_variableD1Ev@plt>
   40f18: aa 2a 01 94  	bl	0x8b9c0 <_ZNSt3__118condition_variableD1Ev@plt>
   40f20: ac 2a 01 94  	bl	0x8b9d0 <_ZNSt3__15mutexD1Ev@plt>
   40f74: a3 2a 01 94  	bl	0x8ba00 <_ZNSt3__15mutex4lockEv@plt>
   40fb8: 96 2a 01 94  	bl	0x8ba10 <_ZNSt3__118condition_variable10notify_allEv@plt>
   40fc8: 9a 2a 01 94  	bl	0x8ba30 <_ZNSt3__15mutex6unlockEv@plt>
   41038: 7a 2a 01 94  	bl	0x8ba20 <_ZNSt3__118condition_variable4waitERNS_11unique_lockINS_5mutexEEE@plt>
   4105c: 75 2a 01 94  	bl	0x8ba30 <_ZNSt3__15mutex6unlockEv@plt>
   41088: 5e 2a 01 94  	bl	0x8ba00 <_ZNSt3__15mutex4lockEv@plt>
   410a4: 5b 2a 01 94  	bl	0x8ba10 <_ZNSt3__118condition_variable10notify_allEv@plt>
   410b8: 32 2a 01 94  	bl	0x8b980 <_ZNSt3__120__throw_system_errorEiPKc@plt>
   410cc: 2d 2a 01 94  	bl	0x8b980 <_ZNSt3__120__throw_system_errorEiPKc@plt>
   410dc: 29 2a 01 94  	bl	0x8b980 <_ZNSt3__120__throw_system_errorEiPKc@plt>
   410fc: 4d 2a 01 94  	bl	0x8ba30 <_ZNSt3__15mutex6unlockEv@plt>
   4111c: 75 2a 01 94  	bl	0x8baf0 <_ZNSt3__119__thread_local_dataEv@plt>
   4115c: 11 2a 01 94  	bl	0x8b9a0 <_ZNSt3__115__thread_structD1Ev@plt>
   41164: 13 2a 01 94  	bl	0x8b9b0 <_ZdlPv@plt>
   4116c: 11 2a 01 94  	bl	0x8b9b0 <_ZdlPv@plt>
   411a4: ff 29 01 94  	bl	0x8b9a0 <_ZNSt3__115__thread_structD1Ev@plt>
   411ac: 01 2a 01 94  	bl	0x8b9b0 <_ZdlPv@plt>
   411b4: ff 29 01 94  	bl	0x8b9b0 <_ZdlPv@plt>
   41268: b2 29 01 94  	bl	0x8b930 <_Znwm@plt>
   412cc: b9 29 01 14  	b	0x8b9b0 <_ZdlPv@plt>
   412dc: f1 29 01 94  	bl	0x8baa0 <_ZNKSt3__120__vector_base_commonILb1EE20__throw_length_errorEv@plt>
   41a94: 7f 28 01 94  	bl	0x8bc90 <_ZN2cv12getTickCountEv@plt>
   41ac0: 9c 27 01 94  	bl	0x8b930 <_Znwm@plt>
   41df0: 80 27 01 94  	bl	0x8bbf0 <_ZN2cv7noArrayEv@plt>
   41e08: 2e 28 01 94  	bl	0x8bec0 <_ZN2cv8subtractERKNS_11_InputArrayES2_RKNS_12_OutputArrayES2_i@plt>
   41e30: c0 26 01 94  	bl	0x8b930 <_Znwm@plt>
   41f98: be 27 01 94  	bl	0x8be90 <_ZN2cv7absdiffERKNS_11_InputArrayES2_RKNS_12_OutputArrayE@plt>
   41f9c: 3d 27 01 94  	bl	0x8bc90 <_ZN2cv12getTickCountEv@plt>
   41fe8: ba 27 01 94  	bl	0x8bed0 <_ZN2cv8integralERKNS_11_InputArrayERKNS_12_OutputArrayES5_ii@plt>
   41fec: 29 27 01 94  	bl	0x8bc90 <_ZN2cv12getTickCountEv@plt>
   4204c: d9 26 01 94  	bl	0x8bbb0 <_ZN2cv3Mat6createEiPKii@plt>
   42068: 46 27 01 94  	bl	0x8bd80 <_ZN2cv3MataSERKNS_7Scalar_IdEE@plt>
   4206c: 09 27 01 94  	bl	0x8bc90 <_ZN2cv12getTickCountEv@plt>
   42390: 40 26 01 94  	bl	0x8bc90 <_ZN2cv12getTickCountEv@plt>
   42404: 23 26 01 94  	bl	0x8bc90 <_ZN2cv12getTickCountEv@plt>
   42548: 76 25 01 94  	bl	0x8bb20 <_ZNSt3__119__shared_weak_count14__release_weakEv@plt>
   4260c: 45 25 01 94  	bl	0x8bb20 <_ZNSt3__119__shared_weak_count14__release_weakEv@plt>
   42674: 3f 25 01 94  	bl	0x8bb70 <_ZN2cv3Mat10deallocateEv@plt>
   42690: 24 25 01 94  	bl	0x8bb20 <_ZNSt3__119__shared_weak_count14__release_weakEv@plt>
   426b4: 1b 25 01 94  	bl	0x8bb20 <_ZNSt3__119__shared_weak_count14__release_weakEv@plt>
   427bc: f1 24 01 94  	bl	0x8bb80 <_ZN2cv8fastFreeEPv@plt>
   42808: 4a 24 01 94  	bl	0x8b930 <_Znwm@plt>
   42910: dc 24 01 94  	bl	0x8bc80 <_ZN2cv3Mat8copySizeERKS0_@plt>
   429cc: ad 24 01 94  	bl	0x8bc80 <_ZN2cv3Mat8copySizeERKS0_@plt>
   429f0: d0 23 01 94  	bl	0x8b930 <_Znwm@plt>
   42a68: 52 24 01 94  	bl	0x8bbb0 <_ZN2cv3Mat6createEiPKii@plt>
   42b50: 4c 24 01 94  	bl	0x8bc80 <_ZN2cv3Mat8copySizeERKS0_@plt>
   42bb4: ff 23 01 94  	bl	0x8bbb0 <_ZN2cv3Mat6createEiPKii@plt>
   42c88: a6 23 01 94  	bl	0x8bb20 <_ZNSt3__119__shared_weak_count14__release_weakEv@plt>
   42cc0: 98 23 01 94  	bl	0x8bb20 <_ZNSt3__119__shared_weak_count14__release_weakEv@plt>
   42d60: 70 23 01 94  	bl	0x8bb20 <_ZNSt3__119__shared_weak_count14__release_weakEv@plt>
   42dc8: 6a 23 01 94  	bl	0x8bb70 <_ZN2cv3Mat10deallocateEv@plt>
   42de4: 4f 23 01 94  	bl	0x8bb20 <_ZNSt3__119__shared_weak_count14__release_weakEv@plt>
   42ee4: 27 23 01 94  	bl	0x8bb80 <_ZN2cv8fastFreeEPv@plt>
   42eec: 91 22 01 94  	bl	0x8b930 <_Znwm@plt>
   43004: 1f 23 01 94  	bl	0x8bc80 <_ZN2cv3Mat8copySizeERKS0_@plt>
   430a4: c3 22 01 94  	bl	0x8bbb0 <_ZN2cv3Mat6createEiPKii@plt>
   43164: 6f 22 01 94  	bl	0x8bb20 <_ZNSt3__119__shared_weak_count14__release_weakEv@plt>
   43194: 63 22 01 94  	bl	0x8bb20 <_ZNSt3__119__shared_weak_count14__release_weakEv@plt>
   43234: 3b 22 01 94  	bl	0x8bb20 <_ZNSt3__119__shared_weak_count14__release_weakEv@plt>
   4329c: 35 22 01 94  	bl	0x8bb70 <_ZN2cv3Mat10deallocateEv@plt>
   432b8: 1a 22 01 94  	bl	0x8bb20 <_ZNSt3__119__shared_weak_count14__release_weakEv@plt>
   433b8: f2 21 01 94  	bl	0x8bb80 <_ZN2cv8fastFreeEPv@plt>
   433c4: 33 22 01 94  	bl	0x8bc90 <_ZN2cv12getTickCountEv@plt>
   433d8: 46 22 01 94  	bl	0x8bcf0 <_ZN2cv16getTickFrequencyEv@plt>
   43424: 33 22 01 94  	bl	0x8bcf0 <_ZN2cv16getTickFrequencyEv@plt>
   4346c: 21 22 01 94  	bl	0x8bcf0 <_ZN2cv16getTickFrequencyEv@plt>
   434b4: 0f 22 01 94  	bl	0x8bcf0 <_ZN2cv16getTickFrequencyEv@plt>
   434fc: fd 21 01 94  	bl	0x8bcf0 <_ZN2cv16getTickFrequencyEv@plt>
   43544: eb 21 01 94  	bl	0x8bcf0 <_ZN2cv16getTickFrequencyEv@plt>
   435a4: 73 21 01 94  	bl	0x8bb70 <_ZN2cv3Mat10deallocateEv@plt>
   436a4: 37 21 01 94  	bl	0x8bb80 <_ZN2cv8fastFreeEPv@plt>
   436cc: 29 21 01 94  	bl	0x8bb70 <_ZN2cv3Mat10deallocateEv@plt>
   437cc: ed 20 01 94  	bl	0x8bb80 <_ZN2cv8fastFreeEPv@plt>
   437fc: dd 20 01 94  	bl	0x8bb70 <_ZN2cv3Mat10deallocateEv@plt>
   438fc: a1 20 01 94  	bl	0x8bb80 <_ZN2cv8fastFreeEPv@plt>
   43924: 93 20 01 94  	bl	0x8bb70 <_ZN2cv3Mat10deallocateEv@plt>
   43a24: 57 20 01 94  	bl	0x8bb80 <_ZN2cv8fastFreeEPv@plt>
   43a4c: 49 20 01 94  	bl	0x8bb70 <_ZN2cv3Mat10deallocateEv@plt>
   43b4c: 0d 20 01 94  	bl	0x8bb80 <_ZN2cv8fastFreeEPv@plt>
   43b74: ff 1f 01 94  	bl	0x8bb70 <_ZN2cv3Mat10deallocateEv@plt>
   43c74: c3 1f 01 94  	bl	0x8bb80 <_ZN2cv8fastFreeEPv@plt>
   43c84: 4b 1f 01 94  	bl	0x8b9b0 <_ZdlPv@plt>
   43c94: 47 1f 01 94  	bl	0x8b9b0 <_ZdlPv@plt>
   43ca4: 43 1f 01 94  	bl	0x8b9b0 <_ZdlPv@plt>
   43db4: 3b 1f 01 94  	bl	0x8baa0 <_ZNKSt3__120__vector_base_commonILb1EE20__throw_length_errorEv@plt>
   43dbc: 39 1f 01 94  	bl	0x8baa0 <_ZNKSt3__120__vector_base_commonILb1EE20__throw_length_errorEv@plt>
   43df8: 5e 1f 01 94  	bl	0x8bb70 <_ZN2cv3Mat10deallocateEv@plt>
   43ef0: 24 1f 01 94  	bl	0x8bb80 <_ZN2cv8fastFreeEPv@plt>
   43f30: 10 1f 01 94  	bl	0x8bb70 <_ZN2cv3Mat10deallocateEv@plt>
   44028: d6 1e 01 94  	bl	0x8bb80 <_ZN2cv8fastFreeEPv@plt>
   44078: be 1e 01 94  	bl	0x8bb70 <_ZN2cv3Mat10deallocateEv@plt>
   44170: 84 1e 01 94  	bl	0x8bb80 <_ZN2cv8fastFreeEPv@plt>
   441fc: 49 1e 01 94  	bl	0x8bb20 <_ZNSt3__119__shared_weak_count14__release_weakEv@plt>
   44228: 3e 1e 01 94  	bl	0x8bb20 <_ZNSt3__119__shared_weak_count14__release_weakEv@plt>
   44270: 2c 1e 01 94  	bl	0x8bb20 <_ZNSt3__119__shared_weak_count14__release_weakEv@plt>
   4429c: 21 1e 01 94  	bl	0x8bb20 <_ZNSt3__119__shared_weak_count14__release_weakEv@plt>
   442ec: 0d 1e 01 94  	bl	0x8bb20 <_ZNSt3__119__shared_weak_count14__release_weakEv@plt>
   44324: ff 1d 01 94  	bl	0x8bb20 <_ZNSt3__119__shared_weak_count14__release_weakEv@plt>
   44378: fe 1d 01 94  	bl	0x8bb70 <_ZN2cv3Mat10deallocateEv@plt>
   44464: c7 1d 01 94  	bl	0x8bb80 <_ZN2cv8fastFreeEPv@plt>
   4448c: b9 1d 01 94  	bl	0x8bb70 <_ZN2cv3Mat10deallocateEv@plt>
   44584: 7f 1d 01 94  	bl	0x8bb80 <_ZN2cv8fastFreeEPv@plt>
   4459c: 0d 1d 01 94  	bl	0x8b9d0 <_ZNSt3__15mutexD1Ev@plt>
   445a4: af 1d 01 94  	bl	0x8bc60 <_ZNSt3__119__shared_weak_countD2Ev@plt>
   445ac: 01 1d 01 94  	bl	0x8b9b0 <_ZdlPv@plt>
   445e4: 63 1d 01 94  	bl	0x8bb70 <_ZN2cv3Mat10deallocateEv@plt>
   446e0: 28 1d 01 94  	bl	0x8bb80 <_ZN2cv8fastFreeEPv@plt>
   44708: 1a 1d 01 94  	bl	0x8bb70 <_ZN2cv3Mat10deallocateEv@plt>
   44800: e0 1c 01 94  	bl	0x8bb80 <_ZN2cv8fastFreeEPv@plt>
   44828: d2 1c 01 94  	bl	0x8bb70 <_ZN2cv3Mat10deallocateEv@plt>
   44920: 98 1c 01 94  	bl	0x8bb80 <_ZN2cv8fastFreeEPv@plt>
   44934: 1f 1c 01 94  	bl	0x8b9b0 <_ZdlPv@plt>
   4495c: 85 1c 01 94  	bl	0x8bb70 <_ZN2cv3Mat10deallocateEv@plt>
   44a5c: 49 1c 01 94  	bl	0x8bb80 <_ZN2cv8fastFreeEPv@plt>
   44a84: 3b 1c 01 94  	bl	0x8bb70 <_ZN2cv3Mat10deallocateEv@plt>
   44b80: 00 1c 01 94  	bl	0x8bb80 <_ZN2cv8fastFreeEPv@plt>
   44b98: 8e 1b 01 94  	bl	0x8b9d0 <_ZNSt3__15mutexD1Ev@plt>
   44ba0: 30 1c 01 94  	bl	0x8bc60 <_ZNSt3__119__shared_weak_countD2Ev@plt>
   44ba8: 82 1b 01 94  	bl	0x8b9b0 <_ZdlPv@plt>
   44c14: d7 1b 01 94  	bl	0x8bb70 <_ZN2cv3Mat10deallocateEv@plt>
   44d14: 9b 1b 01 94  	bl	0x8bb80 <_ZN2cv8fastFreeEPv@plt>
   44d3c: 8d 1b 01 94  	bl	0x8bb70 <_ZN2cv3Mat10deallocateEv@plt>
   44e3c: 51 1b 01 94  	bl	0x8bb80 <_ZN2cv8fastFreeEPv@plt>
   44e6c: 41 1b 01 94  	bl	0x8bb70 <_ZN2cv3Mat10deallocateEv@plt>
   44f6c: 05 1b 01 94  	bl	0x8bb80 <_ZN2cv8fastFreeEPv@plt>
   44f94: f7 1a 01 94  	bl	0x8bb70 <_ZN2cv3Mat10deallocateEv@plt>
   45094: bb 1a 01 94  	bl	0x8bb80 <_ZN2cv8fastFreeEPv@plt>
   450bc: ad 1a 01 94  	bl	0x8bb70 <_ZN2cv3Mat10deallocateEv@plt>
   451bc: 71 1a 01 94  	bl	0x8bb80 <_ZN2cv8fastFreeEPv@plt>
   451e4: 63 1a 01 94  	bl	0x8bb70 <_ZN2cv3Mat10deallocateEv@plt>
   452e4: 27 1a 01 94  	bl	0x8bb80 <_ZN2cv8fastFreeEPv@plt>
   452f4: af 19 01 94  	bl	0x8b9b0 <_ZdlPv@plt>
   45304: ab 19 01 94  	bl	0x8b9b0 <_ZdlPv@plt>
   45314: a7 19 01 94  	bl	0x8b9b0 <_ZdlPv@plt>
   453a4: 63 19 01 94  	bl	0x8b930 <_Znwm@plt>
   453d0: 58 19 01 94  	bl	0x8b930 <_Znwm@plt>
   4564c: b9 18 01 94  	bl	0x8b930 <_Znwm@plt>
   456d0: b8 18 01 94  	bl	0x8b9b0 <_ZdlPv@plt>
   45724: 83 18 01 94  	bl	0x8b930 <_Znwm@plt>
   457bc: b9 18 01 94  	bl	0x8baa0 <_ZNKSt3__120__vector_base_commonILb1EE20__throw_length_errorEv@plt>
   457c4: b7 18 01 94  	bl	0x8baa0 <_ZNKSt3__120__vector_base_commonILb1EE20__throw_length_errorEv@plt>
   45818: 66 18 01 94  	bl	0x8b9b0 <_ZdlPv@plt>
   45828: 62 18 01 94  	bl	0x8b9b0 <_ZdlPv@plt>
   45938: 7a 18 01 94  	bl	0x8bb20 <_ZNSt3__119__shared_weak_count14__release_weakEv@plt>
   459e8: 4e 18 01 94  	bl	0x8bb20 <_ZNSt3__119__shared_weak_count14__release_weakEv@plt>
   45a20: 40 18 01 94  	bl	0x8bb20 <_ZNSt3__119__shared_weak_count14__release_weakEv@plt>
   45b30: fc 17 01 94  	bl	0x8bb20 <_ZNSt3__119__shared_weak_count14__release_weakEv@plt>
   45be0: d0 17 01 94  	bl	0x8bb20 <_ZNSt3__119__shared_weak_count14__release_weakEv@plt>
   45c18: c2 17 01 94  	bl	0x8bb20 <_ZNSt3__119__shared_weak_count14__release_weakEv@plt>
   45d28: 36 17 01 94  	bl	0x8ba00 <_ZNSt3__15mutex4lockEv@plt>
   45d8c: 1d 17 01 94  	bl	0x8ba00 <_ZNSt3__15mutex4lockEv@plt>
   45da8: 1a 17 01 94  	bl	0x8ba10 <_ZNSt3__118condition_variable10notify_allEv@plt>
   45dbc: 19 17 01 94  	bl	0x8ba20 <_ZNSt3__118condition_variable4waitERNS_11unique_lockINS_5mutexEEE@plt>
   45dd4: 17 17 01 94  	bl	0x8ba30 <_ZNSt3__15mutex6unlockEv@plt>
   45e10: 08 17 01 94  	bl	0x8ba30 <_ZNSt3__15mutex6unlockEv@plt>
   45ebc: dd 16 01 94  	bl	0x8ba30 <_ZNSt3__15mutex6unlockEv@plt>
   45f00: cc 16 01 94  	bl	0x8ba30 <_ZNSt3__15mutex6unlockEv@plt>
   45f60: 98 16 01 94  	bl	0x8b9c0 <_ZNSt3__118condition_variableD1Ev@plt>
   45f68: 9a 16 01 94  	bl	0x8b9d0 <_ZNSt3__15mutexD1Ev@plt>
   45fc8: d6 16 01 94  	bl	0x8bb20 <_ZNSt3__119__shared_weak_count14__release_weakEv@plt>
   45ff8: 6e 16 01 14  	b	0x8b9b0 <_ZdlPv@plt>
   46010: 68 16 01 14  	b	0x8b9b0 <_ZdlPv@plt>
   4602c: 41 16 01 94  	bl	0x8b930 <_Znwm@plt>
   46078: 4e 16 01 14  	b	0x8b9b0 <_ZdlPv@plt>
   46120: 44 16 01 94  	bl	0x8ba30 <_ZNSt3__15mutex6unlockEv@plt>
   46150: 2c 16 01 94  	bl	0x8ba00 <_ZNSt3__15mutex4lockEv@plt>
   4616c: 31 16 01 94  	bl	0x8ba30 <_ZNSt3__15mutex6unlockEv@plt>
   461f8: 0a 16 01 94  	bl	0x8ba20 <_ZNSt3__118condition_variable4waitERNS_11unique_lockINS_5mutexEEE@plt>
   4626c: e5 15 01 94  	bl	0x8ba00 <_ZNSt3__15mutex4lockEv@plt>
   46284: eb 15 01 94  	bl	0x8ba30 <_ZNSt3__15mutex6unlockEv@plt>
   4628c: e1 15 01 94  	bl	0x8ba10 <_ZNSt3__118condition_variable10notify_allEv@plt>
   462c4: cf 15 01 94  	bl	0x8ba00 <_ZNSt3__15mutex4lockEv@plt>
   462e0: d4 15 01 94  	bl	0x8ba30 <_ZNSt3__15mutex6unlockEv@plt>
   462e8: ca 15 01 94  	bl	0x8ba10 <_ZNSt3__118condition_variable10notify_allEv@plt>
   462f4: cf 15 01 94  	bl	0x8ba30 <_ZNSt3__15mutex6unlockEv@plt>
   4634c: 09 16 01 94  	bl	0x8bb70 <_ZN2cv3Mat10deallocateEv@plt>
   46448: ce 15 01 94  	bl	0x8bb80 <_ZN2cv8fastFreeEPv@plt>
   46470: c0 15 01 94  	bl	0x8bb70 <_ZN2cv3Mat10deallocateEv@plt>
   4656c: 85 15 01 94  	bl	0x8bb80 <_ZN2cv8fastFreeEPv@plt>
   4658c: 11 15 01 14  	b	0x8b9d0 <_ZNSt3__15mutexD1Ev@plt>
   465b8: fe 14 01 14  	b	0x8b9b0 <_ZdlPv@plt>
   46790: 34 15 01 14  	b	0x8bc60 <_ZNSt3__119__shared_weak_countD2Ev@plt>
   467c0: 28 15 01 94  	bl	0x8bc60 <_ZNSt3__119__shared_weak_countD2Ev@plt>
   467d0: 78 14 01 14  	b	0x8b9b0 <_ZdlPv@plt>
   46838: 5e 14 01 14  	b	0x8b9b0 <_ZdlPv@plt>
   46884: bb 14 01 94  	bl	0x8bb70 <_ZN2cv3Mat10deallocateEv@plt>
   4697c: 81 14 01 94  	bl	0x8bb80 <_ZN2cv8fastFreeEPv@plt>
   469a4: 73 14 01 94  	bl	0x8bb70 <_ZN2cv3Mat10deallocateEv@plt>
   46a9c: 39 14 01 94  	bl	0x8bb80 <_ZN2cv8fastFreeEPv@plt>
   46ac4: 2b 14 01 94  	bl	0x8bb70 <_ZN2cv3Mat10deallocateEv@plt>
   46bbc: f1 13 01 94  	bl	0x8bb80 <_ZN2cv8fastFreeEPv@plt>
   46bcc: 79 13 01 94  	bl	0x8b9b0 <_ZdlPv@plt>
   46bf4: df 13 01 94  	bl	0x8bb70 <_ZN2cv3Mat10deallocateEv@plt>
   46cf0: a4 13 01 94  	bl	0x8bb80 <_ZN2cv8fastFreeEPv@plt>
   46d18: 96 13 01 94  	bl	0x8bb70 <_ZN2cv3Mat10deallocateEv@plt>
   46e14: 5b 13 01 94  	bl	0x8bb80 <_ZN2cv8fastFreeEPv@plt>
   46e34: e7 12 01 14  	b	0x8b9d0 <_ZNSt3__15mutexD1Ev@plt>
   46e70: d0 12 01 14  	b	0x8b9b0 <_ZdlPv@plt>
   47040: 08 13 01 14  	b	0x8bc60 <_ZNSt3__119__shared_weak_countD2Ev@plt>
   47070: fc 12 01 94  	bl	0x8bc60 <_ZNSt3__119__shared_weak_countD2Ev@plt>
   47080: 4c 12 01 14  	b	0x8b9b0 <_ZdlPv@plt>
   470e8: 32 12 01 14  	b	0x8b9b0 <_ZdlPv@plt>
   47130: 00 12 01 94  	bl	0x8b930 <_Znwm@plt>
   4723c: 91 12 01 94  	bl	0x8bc80 <_ZN2cv3Mat8copySizeERKS0_@plt>
   472f0: 30 12 01 94  	bl	0x8bbb0 <_ZN2cv3Mat6createEiPKii@plt>
   4734c: 19 12 01 94  	bl	0x8bbb0 <_ZN2cv3Mat6createEiPKii@plt>
   47634: 4f 11 01 94  	bl	0x8bb70 <_ZN2cv3Mat10deallocateEv@plt>
   47720: 18 11 01 94  	bl	0x8bb80 <_ZN2cv8fastFreeEPv@plt>
   47748: 0a 11 01 94  	bl	0x8bb70 <_ZN2cv3Mat10deallocateEv@plt>
   4784c: cd 10 01 94  	bl	0x8bb80 <_ZN2cv8fastFreeEPv@plt>
   47874: bf 10 01 94  	bl	0x8bb70 <_ZN2cv3Mat10deallocateEv@plt>
   47970: 84 10 01 94  	bl	0x8bb80 <_ZN2cv8fastFreeEPv@plt>
   47988: 12 10 01 94  	bl	0x8b9d0 <_ZNSt3__15mutexD1Ev@plt>
   47990: b4 10 01 94  	bl	0x8bc60 <_ZNSt3__119__shared_weak_countD2Ev@plt>
   47998: 06 10 01 94  	bl	0x8b9b0 <_ZdlPv@plt>
   479f4: 5f 10 01 94  	bl	0x8bb70 <_ZN2cv3Mat10deallocateEv@plt>
   47af8: 22 10 01 94  	bl	0x8bb80 <_ZN2cv8fastFreeEPv@plt>
   47b20: 14 10 01 94  	bl	0x8bb70 <_ZN2cv3Mat10deallocateEv@plt>
   47c1c: d9 0f 01 94  	bl	0x8bb80 <_ZN2cv8fastFreeEPv@plt>
   47c44: cb 0f 01 94  	bl	0x8bb70 <_ZN2cv3Mat10deallocateEv@plt>
   47d40: 90 0f 01 94  	bl	0x8bb80 <_ZN2cv8fastFreeEPv@plt>
   47d60: 1c 0f 01 14  	b	0x8b9d0 <_ZNSt3__15mutexD1Ev@plt>
   47d90: 08 0f 01 14  	b	0x8b9b0 <_ZdlPv@plt>
   481e8: 9e 0e 01 14  	b	0x8bc60 <_ZNSt3__119__shared_weak_countD2Ev@plt>
   48218: 92 0e 01 94  	bl	0x8bc60 <_ZNSt3__119__shared_weak_countD2Ev@plt>
   48228: e2 0d 01 14  	b	0x8b9b0 <_ZdlPv@plt>
   48290: c8 0d 01 14  	b	0x8b9b0 <_ZdlPv@plt>
   482dc: 95 0d 01 94  	bl	0x8b930 <_Znwm@plt>
   483dc: 29 0e 01 94  	bl	0x8bc80 <_ZN2cv3Mat8copySizeERKS0_@plt>
   48450: d8 0d 01 94  	bl	0x8bbb0 <_ZN2cv3Mat6createEiPKii@plt>
   4845c: 49 0e 01 94  	bl	0x8bd80 <_ZN2cv3MataSERKNS_7Scalar_IdEE@plt>
   484fc: ad 0d 01 94  	bl	0x8bbb0 <_ZN2cv3Mat6createEiPKii@plt>
   48764: 03 0d 01 94  	bl	0x8bb70 <_ZN2cv3Mat10deallocateEv@plt>
   48858: ca 0c 01 94  	bl	0x8bb80 <_ZN2cv8fastFreeEPv@plt>
   48880: bc 0c 01 94  	bl	0x8bb70 <_ZN2cv3Mat10deallocateEv@plt>
   4897c: 81 0c 01 94  	bl	0x8bb80 <_ZN2cv8fastFreeEPv@plt>
   489b4: 6f 0c 01 94  	bl	0x8bb70 <_ZN2cv3Mat10deallocateEv@plt>
   48ab0: 34 0c 01 94  	bl	0x8bb80 <_ZN2cv8fastFreeEPv@plt>
   48ac8: c2 0b 01 94  	bl	0x8b9d0 <_ZNSt3__15mutexD1Ev@plt>
   48ad0: 64 0c 01 94  	bl	0x8bc60 <_ZNSt3__119__shared_weak_countD2Ev@plt>
   48ad8: b6 0b 01 94  	bl	0x8b9b0 <_ZdlPv@plt>
   48b2c: 11 0c 01 94  	bl	0x8bb70 <_ZN2cv3Mat10deallocateEv@plt>
   48c24: d7 0b 01 94  	bl	0x8bb80 <_ZN2cv8fastFreeEPv@plt>
   48c4c: c9 0b 01 94  	bl	0x8bb70 <_ZN2cv3Mat10deallocateEv@plt>
   48d48: 8e 0b 01 94  	bl	0x8bb80 <_ZN2cv8fastFreeEPv@plt>
   48d70: 80 0b 01 94  	bl	0x8bb70 <_ZN2cv3Mat10deallocateEv@plt>
   48e6c: 45 0b 01 94  	bl	0x8bb80 <_ZN2cv8fastFreeEPv@plt>
   48e8c: d1 0a 01 14  	b	0x8b9d0 <_ZNSt3__15mutexD1Ev@plt>
   48ec0: bc 0a 01 14  	b	0x8b9b0 <_ZdlPv@plt>
   49290: 74 0a 01 14  	b	0x8bc60 <_ZNSt3__119__shared_weak_countD2Ev@plt>
   492c0: 68 0a 01 94  	bl	0x8bc60 <_ZNSt3__119__shared_weak_countD2Ev@plt>
   492d0: b8 09 01 14  	b	0x8b9b0 <_ZdlPv@plt>
   49338: 9e 09 01 14  	b	0x8b9b0 <_ZdlPv@plt>
   49384: 6b 09 01 94  	bl	0x8b930 <_Znwm@plt>
   49488: fe 09 01 94  	bl	0x8bc80 <_ZN2cv3Mat8copySizeERKS0_@plt>
   49570: 90 09 01 94  	bl	0x8bbb0 <_ZN2cv3Mat6createEiPKii@plt>
   495c8: 7a 09 01 94  	bl	0x8bbb0 <_ZN2cv3Mat6createEiPKii@plt>
   495fc: 5d 09 01 94  	bl	0x8bb70 <_ZN2cv3Mat10deallocateEv@plt>
   49688: 3a 09 01 94  	bl	0x8bb70 <_ZN2cv3Mat10deallocateEv@plt>
   49734: 13 09 01 94  	bl	0x8bb80 <_ZN2cv8fastFreeEPv@plt>
   498a0: b8 08 01 94  	bl	0x8bb80 <_ZN2cv8fastFreeEPv@plt>
   49914: 97 08 01 94  	bl	0x8bb70 <_ZN2cv3Mat10deallocateEv@plt>
   49a10: 5c 08 01 94  	bl	0x8bb80 <_ZN2cv8fastFreeEPv@plt>
   49a5c: 45 08 01 94  	bl	0x8bb70 <_ZN2cv3Mat10deallocateEv@plt>
   49b60: 08 08 01 94  	bl	0x8bb80 <_ZN2cv8fastFreeEPv@plt>
   49b88: 8a 07 01 94  	bl	0x8b9b0 <_ZdlPv@plt>
   49b98: 86 07 01 94  	bl	0x8b9b0 <_ZdlPv@plt>
   49bc0: ec 07 01 94  	bl	0x8bb70 <_ZN2cv3Mat10deallocateEv@plt>
   49cbc: b1 07 01 94  	bl	0x8bb80 <_ZN2cv8fastFreeEPv@plt>
   49cd4: 3f 07 01 94  	bl	0x8b9d0 <_ZNSt3__15mutexD1Ev@plt>
   49cdc: e1 07 01 94  	bl	0x8bc60 <_ZNSt3__119__shared_weak_countD2Ev@plt>
   49ce4: 33 07 01 94  	bl	0x8b9b0 <_ZdlPv@plt>
   49d60: f4 06 01 94  	bl	0x8b930 <_Znwm@plt>
   49dbc: fd 06 01 14  	b	0x8b9b0 <_ZdlPv@plt>
   49e68: b2 06 01 94  	bl	0x8b930 <_Znwm@plt>
   49ec4: bb 06 01 14  	b	0x8b9b0 <_ZdlPv@plt>
   49f4c: 09 07 01 94  	bl	0x8bb70 <_ZN2cv3Mat10deallocateEv@plt>
   4a048: ce 06 01 94  	bl	0x8bb80 <_ZN2cv8fastFreeEPv@plt>
   4a058: 56 06 01 94  	bl	0x8b9b0 <_ZdlPv@plt>
   4a068: 52 06 01 94  	bl	0x8b9b0 <_ZdlPv@plt>
   4a090: b8 06 01 94  	bl	0x8bb70 <_ZN2cv3Mat10deallocateEv@plt>
   4a18c: 7d 06 01 94  	bl	0x8bb80 <_ZN2cv8fastFreeEPv@plt>
   4a1ac: 09 06 01 14  	b	0x8b9d0 <_ZNSt3__15mutexD1Ev@plt>
   4a1d8: f6 05 01 14  	b	0x8b9b0 <_ZdlPv@plt>
   4a278: 7a 06 01 14  	b	0x8bc60 <_ZNSt3__119__shared_weak_countD2Ev@plt>
   4a2a8: 6e 06 01 94  	bl	0x8bc60 <_ZNSt3__119__shared_weak_countD2Ev@plt>
   4a2b8: be 05 01 14  	b	0x8b9b0 <_ZdlPv@plt>
   4a320: a4 05 01 14  	b	0x8b9b0 <_ZdlPv@plt>
   4a350: 78 05 01 94  	bl	0x8b930 <_Znwm@plt>
   4a38c: c5 05 01 94  	bl	0x8baa0 <_ZNKSt3__120__vector_base_commonILb1EE20__throw_length_errorEv@plt>
   4a3bc: 7d 05 01 94  	bl	0x8b9b0 <_ZdlPv@plt>
   4a41c: 45 05 01 94  	bl	0x8b930 <_Znwm@plt>
   4a51c: d9 05 01 94  	bl	0x8bc80 <_ZN2cv3Mat8copySizeERKS0_@plt>
   4a528: 5e 05 01 94  	bl	0x8baa0 <_ZNKSt3__120__vector_base_commonILb1EE20__throw_length_errorEv@plt>
   4a590: 08 05 01 94  	bl	0x8b9b0 <_ZdlPv@plt>
   4a68c: a9 04 01 94  	bl	0x8b930 <_Znwm@plt>
   4a714: a7 04 01 94  	bl	0x8b9b0 <_ZdlPv@plt>
   4a750: d4 04 01 94  	bl	0x8baa0 <_ZNKSt3__120__vector_base_commonILb1EE20__throw_length_errorEv@plt>
   4a7ac: 81 04 01 94  	bl	0x8b9b0 <_ZdlPv@plt>
   4a8c8: aa 04 01 94  	bl	0x8bb70 <_ZN2cv3Mat10deallocateEv@plt>
   4a9cc: 6d 04 01 94  	bl	0x8bb80 <_ZN2cv8fastFreeEPv@plt>
   4a9f4: 5f 04 01 94  	bl	0x8bb70 <_ZN2cv3Mat10deallocateEv@plt>
   4aaf8: 22 04 01 94  	bl	0x8bb80 <_ZN2cv8fastFreeEPv@plt>
   4ab20: 14 04 01 94  	bl	0x8bb70 <_ZN2cv3Mat10deallocateEv@plt>
   4ac24: d7 03 01 94  	bl	0x8bb80 <_ZN2cv8fastFreeEPv@plt>
   4ac4c: c9 03 01 94  	bl	0x8bb70 <_ZN2cv3Mat10deallocateEv@plt>
   4ad44: 8f 03 01 94  	bl	0x8bb80 <_ZN2cv8fastFreeEPv@plt>
   4ad6c: 81 03 01 94  	bl	0x8bb70 <_ZN2cv3Mat10deallocateEv@plt>
   4ae68: 46 03 01 94  	bl	0x8bb80 <_ZN2cv8fastFreeEPv@plt>
   4aed0: b8 02 01 94  	bl	0x8b9b0 <_ZdlPv@plt>
   4aef4: af 02 01 94  	bl	0x8b9b0 <_ZdlPv@plt>
   4af5c: 95 02 01 94  	bl	0x8b9b0 <_ZdlPv@plt>
   4afc4: 7b 02 01 94  	bl	0x8b9b0 <_ZdlPv@plt>
   4b02c: 61 02 01 94  	bl	0x8b9b0 <_ZdlPv@plt>
   4b050: 60 02 01 14  	b	0x8b9d0 <_ZNSt3__15mutexD1Ev@plt>
   4b090: 48 02 01 14  	b	0x8b9b0 <_ZdlPv@plt>
   4c5f0: 9c fd 00 14  	b	0x8bc60 <_ZNSt3__119__shared_weak_countD2Ev@plt>
   4c620: 90 fd 00 94  	bl	0x8bc60 <_ZNSt3__119__shared_weak_countD2Ev@plt>
   4c630: e0 fc 00 14  	b	0x8b9b0 <_ZdlPv@plt>
   4c698: c6 fc 00 14  	b	0x8b9b0 <_ZdlPv@plt>
   4c71c: f5 fd 00 94  	bl	0x8bef0 <_ZNK2cv11_InputArray4kindEv@plt>
   4c7ac: d5 fd 00 94  	bl	0x8bf00 <_ZNK2cv11_InputArray7getMat_Ei@plt>
   4c7bc: 31 fd 00 94  	bl	0x8bc80 <_ZN2cv3Mat8copySizeERKS0_@plt>
   4c7d4: c7 fd 00 94  	bl	0x8bef0 <_ZNK2cv11_InputArray4kindEv@plt>
   4c864: a7 fd 00 94  	bl	0x8bf00 <_ZNK2cv11_InputArray7getMat_Ei@plt>
   4c874: 03 fd 00 94  	bl	0x8bc80 <_ZN2cv3Mat8copySizeERKS0_@plt>
   4c88c: 99 fd 00 94  	bl	0x8bef0 <_ZNK2cv11_InputArray4kindEv@plt>
   4c928: 76 fd 00 94  	bl	0x8bf00 <_ZNK2cv11_InputArray7getMat_Ei@plt>
   4c938: d2 fc 00 94  	bl	0x8bc80 <_ZN2cv3Mat8copySizeERKS0_@plt>
   4c96c: 69 fd 00 94  	bl	0x8bf10 <_ZNK2cv12_OutputArray6createENS_5Size_IiEEiibNS0_9DepthMaskE@plt>
   4c984: 5b fd 00 94  	bl	0x8bef0 <_ZNK2cv11_InputArray4kindEv@plt>
   4ca14: 3b fd 00 94  	bl	0x8bf00 <_ZNK2cv11_InputArray7getMat_Ei@plt>
   4ca24: 97 fc 00 94  	bl	0x8bc80 <_ZN2cv3Mat8copySizeERKS0_@plt>
   4ca3c: 2d fd 00 94  	bl	0x8bef0 <_ZNK2cv11_InputArray4kindEv@plt>
   4cacc: 0d fd 00 94  	bl	0x8bf00 <_ZNK2cv11_InputArray7getMat_Ei@plt>
   4cadc: 69 fc 00 94  	bl	0x8bc80 <_ZN2cv3Mat8copySizeERKS0_@plt>
   4cae0: 6c fc 00 94  	bl	0x8bc90 <_ZN2cv12getTickCountEv@plt>
   4cb10: 60 fc 00 94  	bl	0x8bc90 <_ZN2cv12getTickCountEv@plt>
   4cb1c: 01 fd 00 94  	bl	0x8bf20 <_ZNK2cv11_InputArray5emptyEv@plt>
   4cb70: 18 fc 00 94  	bl	0x8bbd0 <_ZNK2cv3Mat6copyToERKNS_12_OutputArrayE@plt>
   4cb88: 12 fc 00 94  	bl	0x8bbd0 <_ZNK2cv3Mat6copyToERKNS_12_OutputArrayE@plt>
   4cba0: d4 fc 00 94  	bl	0x8bef0 <_ZNK2cv11_InputArray4kindEv@plt>
   4cc30: b4 fc 00 94  	bl	0x8bf00 <_ZNK2cv11_InputArray7getMat_Ei@plt>
   4cc40: 10 fc 00 94  	bl	0x8bc80 <_ZN2cv3Mat8copySizeERKS0_@plt>
   4cc6c: a9 fc 00 94  	bl	0x8bf10 <_ZNK2cv12_OutputArray6createENS_5Size_IiEEiibNS0_9DepthMaskE@plt>
   4cc84: 9b fc 00 94  	bl	0x8bef0 <_ZNK2cv11_InputArray4kindEv@plt>
   4cd14: 7b fc 00 94  	bl	0x8bf00 <_ZNK2cv11_InputArray7getMat_Ei@plt>
   4cd24: d7 fb 00 94  	bl	0x8bc80 <_ZN2cv3Mat8copySizeERKS0_@plt>
   4cd70: 80 fb 00 94  	bl	0x8bb70 <_ZN2cv3Mat10deallocateEv@plt>
   4ce70: 44 fb 00 94  	bl	0x8bb80 <_ZN2cv8fastFreeEPv@plt>
   4ce98: 36 fb 00 94  	bl	0x8bb70 <_ZN2cv3Mat10deallocateEv@plt>
   4cf98: fa fa 00 94  	bl	0x8bb80 <_ZN2cv8fastFreeEPv@plt>
   4cfc0: ec fa 00 94  	bl	0x8bb70 <_ZN2cv3Mat10deallocateEv@plt>
   4d0b8: b2 fa 00 94  	bl	0x8bb80 <_ZN2cv8fastFreeEPv@plt>
   4d0bc: f5 fa 00 94  	bl	0x8bc90 <_ZN2cv12getTickCountEv@plt>
   4d0cc: 09 fb 00 94  	bl	0x8bcf0 <_ZN2cv16getTickFrequencyEv@plt>
   4d110: f8 fa 00 94  	bl	0x8bcf0 <_ZN2cv16getTickFrequencyEv@plt>
   4d154: e7 fa 00 94  	bl	0x8bcf0 <_ZN2cv16getTickFrequencyEv@plt>
   4d1b4: 6f fa 00 94  	bl	0x8bb70 <_ZN2cv3Mat10deallocateEv@plt>
   4d2b4: 33 fa 00 94  	bl	0x8bb80 <_ZN2cv8fastFreeEPv@plt>
   4d2dc: 25 fa 00 94  	bl	0x8bb70 <_ZN2cv3Mat10deallocateEv@plt>
   4d3dc: e9 f9 00 94  	bl	0x8bb80 <_ZN2cv8fastFreeEPv@plt>
   4d404: db f9 00 94  	bl	0x8bb70 <_ZN2cv3Mat10deallocateEv@plt>
   4d504: 9f f9 00 94  	bl	0x8bb80 <_ZN2cv8fastFreeEPv@plt>
   4d52c: 91 f9 00 94  	bl	0x8bb70 <_ZN2cv3Mat10deallocateEv@plt>
   4d62c: 55 f9 00 94  	bl	0x8bb80 <_ZN2cv8fastFreeEPv@plt>
   4d654: 47 f9 00 94  	bl	0x8bb70 <_ZN2cv3Mat10deallocateEv@plt>
   4d754: 0b f9 00 94  	bl	0x8bb80 <_ZN2cv8fastFreeEPv@plt>
   4d7d0: e8 f8 00 94  	bl	0x8bb70 <_ZN2cv3Mat10deallocateEv@plt>
   4d8d0: ac f8 00 94  	bl	0x8bb80 <_ZN2cv8fastFreeEPv@plt>
   4d910: 98 f8 00 94  	bl	0x8bb70 <_ZN2cv3Mat10deallocateEv@plt>
   4da10: 5c f8 00 94  	bl	0x8bb80 <_ZN2cv8fastFreeEPv@plt>
   4da44: 4b f8 00 94  	bl	0x8bb70 <_ZN2cv3Mat10deallocateEv@plt>
   4db3c: 11 f8 00 94  	bl	0x8bb80 <_ZN2cv8fastFreeEPv@plt>
   4dbb0: f0 f7 00 94  	bl	0x8bb70 <_ZN2cv3Mat10deallocateEv@plt>
   4dcb0: b4 f7 00 94  	bl	0x8bb80 <_ZN2cv8fastFreeEPv@plt>
   4dcd8: a6 f7 00 94  	bl	0x8bb70 <_ZN2cv3Mat10deallocateEv@plt>
   4ddd8: 6a f7 00 94  	bl	0x8bb80 <_ZN2cv8fastFreeEPv@plt>
   4de00: 5c f7 00 94  	bl	0x8bb70 <_ZN2cv3Mat10deallocateEv@plt>
   4df00: 20 f7 00 94  	bl	0x8bb80 <_ZN2cv8fastFreeEPv@plt>
   4df28: 12 f7 00 94  	bl	0x8bb70 <_ZN2cv3Mat10deallocateEv@plt>
   4e028: d6 f6 00 94  	bl	0x8bb80 <_ZN2cv8fastFreeEPv@plt>
   4e050: c8 f6 00 94  	bl	0x8bb70 <_ZN2cv3Mat10deallocateEv@plt>
   4e150: 8c f6 00 94  	bl	0x8bb80 <_ZN2cv8fastFreeEPv@plt>
   4e1c0: b4 f6 00 94  	bl	0x8bc90 <_ZN2cv12getTickCountEv@plt>
   4e270: b0 f5 00 94  	bl	0x8b930 <_Znwm@plt>
   4e388: 3e f6 00 94  	bl	0x8bc80 <_ZN2cv3Mat8copySizeERKS0_@plt>
   4e550: 9c f5 00 94  	bl	0x8bbc0 <_ZN2cv3MatC1ERKS0_RKNS_5Rect_IiEE@plt>
   4e580: 7c f5 00 94  	bl	0x8bb70 <_ZN2cv3Mat10deallocateEv@plt>
   4e634: 5f f5 00 94  	bl	0x8bbb0 <_ZN2cv3Mat6createEiPKii@plt>
   4e6a4: 43 f5 00 94  	bl	0x8bbb0 <_ZN2cv3Mat6createEiPKii@plt>
   4e708: 2a f5 00 94  	bl	0x8bbb0 <_ZN2cv3Mat6createEiPKii@plt>
   4e778: 0e f5 00 94  	bl	0x8bbb0 <_ZN2cv3Mat6createEiPKii@plt>
   4e828: be f4 00 94  	bl	0x8bb20 <_ZNSt3__119__shared_weak_count14__release_weakEv@plt>
   4e854: b3 f4 00 94  	bl	0x8bb20 <_ZNSt3__119__shared_weak_count14__release_weakEv@plt>
   4e85c: 35 f4 00 94  	bl	0x8b930 <_Znwm@plt>
   4e980: c0 f4 00 94  	bl	0x8bc80 <_ZN2cv3Mat8copySizeERKS0_@plt>
   4eb04: 2f f4 00 94  	bl	0x8bbc0 <_ZN2cv3MatC1ERKS0_RKNS_5Rect_IiEE@plt>
   4eb34: 0f f4 00 94  	bl	0x8bb70 <_ZN2cv3Mat10deallocateEv@plt>
   4ebe4: f3 f3 00 94  	bl	0x8bbb0 <_ZN2cv3Mat6createEiPKii@plt>
   4ec4c: d9 f3 00 94  	bl	0x8bbb0 <_ZN2cv3Mat6createEiPKii@plt>
   4eca8: c2 f3 00 94  	bl	0x8bbb0 <_ZN2cv3Mat6createEiPKii@plt>
   4ed58: 72 f3 00 94  	bl	0x8bb20 <_ZNSt3__119__shared_weak_count14__release_weakEv@plt>
   4ed84: 67 f3 00 94  	bl	0x8bb20 <_ZNSt3__119__shared_weak_count14__release_weakEv@plt>
   4edf8: 4a f3 00 94  	bl	0x8bb20 <_ZNSt3__119__shared_weak_count14__release_weakEv@plt>
   4ee00: cc f2 00 94  	bl	0x8b930 <_Znwm@plt>
   4ef28: 56 f3 00 94  	bl	0x8bc80 <_ZN2cv3Mat8copySizeERKS0_@plt>
   4f0a8: c6 f2 00 94  	bl	0x8bbc0 <_ZN2cv3MatC1ERKS0_RKNS_5Rect_IiEE@plt>
   4f0d8: a6 f2 00 94  	bl	0x8bb70 <_ZN2cv3Mat10deallocateEv@plt>
   4f188: 8a f2 00 94  	bl	0x8bbb0 <_ZN2cv3Mat6createEiPKii@plt>
   4f1f0: 70 f2 00 94  	bl	0x8bbb0 <_ZN2cv3Mat6createEiPKii@plt>
   4f24c: 59 f2 00 94  	bl	0x8bbb0 <_ZN2cv3Mat6createEiPKii@plt>
   4f2fc: 09 f2 00 94  	bl	0x8bb20 <_ZNSt3__119__shared_weak_count14__release_weakEv@plt>
   4f328: fe f1 00 94  	bl	0x8bb20 <_ZNSt3__119__shared_weak_count14__release_weakEv@plt>
   4f390: e4 f1 00 94  	bl	0x8bb20 <_ZNSt3__119__shared_weak_count14__release_weakEv@plt>
   4f3a4: 63 f1 00 94  	bl	0x8b930 <_Znwm@plt>
   4f4c8: ee f1 00 94  	bl	0x8bc80 <_ZN2cv3Mat8copySizeERKS0_@plt>
   4f69c: 49 f1 00 94  	bl	0x8bbc0 <_ZN2cv3MatC1ERKS0_RKNS_5Rect_IiEE@plt>
   4f6cc: 29 f1 00 94  	bl	0x8bb70 <_ZN2cv3Mat10deallocateEv@plt>
   4f77c: 0d f1 00 94  	bl	0x8bbb0 <_ZN2cv3Mat6createEiPKii@plt>
   4f7e8: f2 f0 00 94  	bl	0x8bbb0 <_ZN2cv3Mat6createEiPKii@plt>
   4f848: da f0 00 94  	bl	0x8bbb0 <_ZN2cv3Mat6createEiPKii@plt>
   4f8bc: bd f0 00 94  	bl	0x8bbb0 <_ZN2cv3Mat6createEiPKii@plt>
   4f974: 6b f0 00 94  	bl	0x8bb20 <_ZNSt3__119__shared_weak_count14__release_weakEv@plt>
   4f9a0: 60 f0 00 94  	bl	0x8bb20 <_ZNSt3__119__shared_weak_count14__release_weakEv@plt>
   4f9f8: 4a f0 00 94  	bl	0x8bb20 <_ZNSt3__119__shared_weak_count14__release_weakEv@plt>
   4fa4c: 35 f0 00 94  	bl	0x8bb20 <_ZNSt3__119__shared_weak_count14__release_weakEv@plt>
   4fa98: 22 f0 00 94  	bl	0x8bb20 <_ZNSt3__119__shared_weak_count14__release_weakEv@plt>
   4fb08: 06 f0 00 94  	bl	0x8bb20 <_ZNSt3__119__shared_weak_count14__release_weakEv@plt>
   4fb5c: f1 ef 00 94  	bl	0x8bb20 <_ZNSt3__119__shared_weak_count14__release_weakEv@plt>
   4fbac: dd ef 00 94  	bl	0x8bb20 <_ZNSt3__119__shared_weak_count14__release_weakEv@plt>
   4fc00: c8 ef 00 94  	bl	0x8bb20 <_ZNSt3__119__shared_weak_count14__release_weakEv@plt>
   4fc4c: b5 ef 00 94  	bl	0x8bb20 <_ZNSt3__119__shared_weak_count14__release_weakEv@plt>
   4fc64: 33 ef 00 94  	bl	0x8b930 <_Znwm@plt>
   4fd7c: c1 ef 00 94  	bl	0x8bc80 <_ZN2cv3Mat8copySizeERKS0_@plt>
   4fe68: 52 ef 00 94  	bl	0x8bbb0 <_ZN2cv3Mat6createEiPKii@plt>
   4ff98: 06 ef 00 94  	bl	0x8bbb0 <_ZN2cv3Mat6createEiPKii@plt>
   4ffc0: 7c ee 00 94  	bl	0x8b9b0 <_ZdlPv@plt>
   5006c: ad ee 00 94  	bl	0x8bb20 <_ZNSt3__119__shared_weak_count14__release_weakEv@plt>
   50098: a2 ee 00 94  	bl	0x8bb20 <_ZNSt3__119__shared_weak_count14__release_weakEv@plt>
   5009c: fd ee 00 94  	bl	0x8bc90 <_ZN2cv12getTickCountEv@plt>
   500a8: fa ee 00 94  	bl	0x8bc90 <_ZN2cv12getTickCountEv@plt>
   5010c: 99 ee 00 94  	bl	0x8bb70 <_ZN2cv3Mat10deallocateEv@plt>
   50158: 86 ee 00 94  	bl	0x8bb70 <_ZN2cv3Mat10deallocateEv@plt>
   501a4: 73 ee 00 94  	bl	0x8bb70 <_ZN2cv3Mat10deallocateEv@plt>
   501fc: 5d ee 00 94  	bl	0x8bb70 <_ZN2cv3Mat10deallocateEv@plt>
   502d4: 2b ee 00 94  	bl	0x8bb80 <_ZN2cv8fastFreeEPv@plt>
   5044c: cd ed 00 94  	bl	0x8bb80 <_ZN2cv8fastFreeEPv@plt>
   504fc: a1 ed 00 94  	bl	0x8bb80 <_ZN2cv8fastFreeEPv@plt>
   50674: 43 ed 00 94  	bl	0x8bb80 <_ZN2cv8fastFreeEPv@plt>
   50724: 17 ed 00 94  	bl	0x8bb80 <_ZN2cv8fastFreeEPv@plt>
   508a0: b8 ec 00 94  	bl	0x8bb80 <_ZN2cv8fastFreeEPv@plt>
   50958: 8a ec 00 94  	bl	0x8bb80 <_ZN2cv8fastFreeEPv@plt>
   50ad0: 2c ec 00 94  	bl	0x8bb80 <_ZN2cv8fastFreeEPv@plt>
   50c18: d6 eb 00 94  	bl	0x8bb70 <_ZN2cv3Mat10deallocateEv@plt>
   50d1c: 99 eb 00 94  	bl	0x8bb80 <_ZN2cv8fastFreeEPv@plt>
   50d58: 86 eb 00 94  	bl	0x8bb70 <_ZN2cv3Mat10deallocateEv@plt>
   50e5c: 49 eb 00 94  	bl	0x8bb80 <_ZN2cv8fastFreeEPv@plt>
   50e90: 38 eb 00 94  	bl	0x8bb70 <_ZN2cv3Mat10deallocateEv@plt>
   50f94: fb ea 00 94  	bl	0x8bb80 <_ZN2cv8fastFreeEPv@plt>
   50fc8: ea ea 00 94  	bl	0x8bb70 <_ZN2cv3Mat10deallocateEv@plt>
   510cc: ad ea 00 94  	bl	0x8bb80 <_ZN2cv8fastFreeEPv@plt>
   51130: 7c ea 00 94  	bl	0x8bb20 <_ZNSt3__119__shared_weak_count14__release_weakEv@plt>
   511c0: 58 ea 00 94  	bl	0x8bb20 <_ZNSt3__119__shared_weak_count14__release_weakEv@plt>
   511ec: 4d ea 00 94  	bl	0x8bb20 <_ZNSt3__119__shared_weak_count14__release_weakEv@plt>
   51248: 36 ea 00 94  	bl	0x8bb20 <_ZNSt3__119__shared_weak_count14__release_weakEv@plt>
   51278: 2a ea 00 94  	bl	0x8bb20 <_ZNSt3__119__shared_weak_count14__release_weakEv@plt>
   512c4: 17 ea 00 94  	bl	0x8bb20 <_ZNSt3__119__shared_weak_count14__release_weakEv@plt>
   512f0: 0c ea 00 94  	bl	0x8bb20 <_ZNSt3__119__shared_weak_count14__release_weakEv@plt>
   51338: fa e9 00 94  	bl	0x8bb20 <_ZNSt3__119__shared_weak_count14__release_weakEv@plt>
   51364: ef e9 00 94  	bl	0x8bb20 <_ZNSt3__119__shared_weak_count14__release_weakEv@plt>
   51398: 86 e9 00 94  	bl	0x8b9b0 <_ZdlPv@plt>
   513c8: ea e9 00 94  	bl	0x8bb70 <_ZN2cv3Mat10deallocateEv@plt>
   514c8: ae e9 00 94  	bl	0x8bb80 <_ZN2cv8fastFreeEPv@plt>
   514f0: 30 e9 00 94  	bl	0x8b9b0 <_ZdlPv@plt>
   51518: 26 e9 00 94  	bl	0x8b9b0 <_ZdlPv@plt>
   51540: 8c e9 00 94  	bl	0x8bb70 <_ZN2cv3Mat10deallocateEv@plt>
   51644: 4f e9 00 94  	bl	0x8bb80 <_ZN2cv8fastFreeEPv@plt>
   5166c: 41 e9 00 94  	bl	0x8bb70 <_ZN2cv3Mat10deallocateEv@plt>
   51768: 06 e9 00 94  	bl	0x8bb80 <_ZN2cv8fastFreeEPv@plt>
   51780: 94 e8 00 94  	bl	0x8b9d0 <_ZNSt3__15mutexD1Ev@plt>
   51788: 36 e9 00 94  	bl	0x8bc60 <_ZNSt3__119__shared_weak_countD2Ev@plt>
   51790: 88 e8 00 94  	bl	0x8b9b0 <_ZdlPv@plt>
   517d0: e8 e8 00 94  	bl	0x8bb70 <_ZN2cv3Mat10deallocateEv@plt>
   518d0: ac e8 00 94  	bl	0x8bb80 <_ZN2cv8fastFreeEPv@plt>
   518f8: 9e e8 00 94  	bl	0x8bb70 <_ZN2cv3Mat10deallocateEv@plt>
   519f8: 62 e8 00 94  	bl	0x8bb80 <_ZN2cv8fastFreeEPv@plt>
   51a20: 54 e8 00 94  	bl	0x8bb70 <_ZN2cv3Mat10deallocateEv@plt>
   51b20: 18 e8 00 94  	bl	0x8bb80 <_ZN2cv8fastFreeEPv@plt>
   51b48: 9a e7 00 94  	bl	0x8b9b0 <_ZdlPv@plt>
   51b70: 90 e7 00 94  	bl	0x8b9b0 <_ZdlPv@plt>
   51b98: f6 e7 00 94  	bl	0x8bb70 <_ZN2cv3Mat10deallocateEv@plt>
   51c9c: b9 e7 00 94  	bl	0x8bb80 <_ZN2cv8fastFreeEPv@plt>
   51cc4: ab e7 00 94  	bl	0x8bb70 <_ZN2cv3Mat10deallocateEv@plt>
   51dc0: 70 e7 00 94  	bl	0x8bb80 <_ZN2cv8fastFreeEPv@plt>
   51e1c: 55 e7 00 94  	bl	0x8bb70 <_ZN2cv3Mat10deallocateEv@plt>
   51f14: 1b e7 00 94  	bl	0x8bb80 <_ZN2cv8fastFreeEPv@plt>
   51f3c: 0d e7 00 94  	bl	0x8bb70 <_ZN2cv3Mat10deallocateEv@plt>
   5203c: d1 e6 00 94  	bl	0x8bb80 <_ZN2cv8fastFreeEPv@plt>
   52064: 53 e6 00 94  	bl	0x8b9b0 <_ZdlPv@plt>
   5208c: 49 e6 00 94  	bl	0x8b9b0 <_ZdlPv@plt>
   520b4: af e6 00 94  	bl	0x8bb70 <_ZN2cv3Mat10deallocateEv@plt>
   521b8: 72 e6 00 94  	bl	0x8bb80 <_ZN2cv8fastFreeEPv@plt>
   521e0: 64 e6 00 94  	bl	0x8bb70 <_ZN2cv3Mat10deallocateEv@plt>
   522dc: 29 e6 00 94  	bl	0x8bb80 <_ZN2cv8fastFreeEPv@plt>
   522f4: b7 e5 00 94  	bl	0x8b9d0 <_ZNSt3__15mutexD1Ev@plt>
   522fc: 59 e6 00 94  	bl	0x8bc60 <_ZNSt3__119__shared_weak_countD2Ev@plt>
   52304: ab e5 00 94  	bl	0x8b9b0 <_ZdlPv@plt>
   52344: 0b e6 00 94  	bl	0x8bb70 <_ZN2cv3Mat10deallocateEv@plt>
   5243c: d1 e5 00 94  	bl	0x8bb80 <_ZN2cv8fastFreeEPv@plt>
   52464: c3 e5 00 94  	bl	0x8bb70 <_ZN2cv3Mat10deallocateEv@plt>
   52564: 87 e5 00 94  	bl	0x8bb80 <_ZN2cv8fastFreeEPv@plt>
   5258c: 09 e5 00 94  	bl	0x8b9b0 <_ZdlPv@plt>
   525b4: ff e4 00 94  	bl	0x8b9b0 <_ZdlPv@plt>
   525dc: 65 e5 00 94  	bl	0x8bb70 <_ZN2cv3Mat10deallocateEv@plt>
   526e0: 28 e5 00 94  	bl	0x8bb80 <_ZN2cv8fastFreeEPv@plt>
   52708: 1a e5 00 94  	bl	0x8bb70 <_ZN2cv3Mat10deallocateEv@plt>
   52804: df e4 00 94  	bl	0x8bb80 <_ZN2cv8fastFreeEPv@plt>
   5281c: 6d e4 00 94  	bl	0x8b9d0 <_ZNSt3__15mutexD1Ev@plt>
   52824: 0f e5 00 94  	bl	0x8bc60 <_ZNSt3__119__shared_weak_countD2Ev@plt>
   5282c: 61 e4 00 94  	bl	0x8b9b0 <_ZdlPv@plt>
   52870: c0 e4 00 94  	bl	0x8bb70 <_ZN2cv3Mat10deallocateEv@plt>
   5297c: 81 e4 00 94  	bl	0x8bb80 <_ZN2cv8fastFreeEPv@plt>
   529a8: 72 e4 00 94  	bl	0x8bb70 <_ZN2cv3Mat10deallocateEv@plt>
   52ab4: 33 e4 00 94  	bl	0x8bb80 <_ZN2cv8fastFreeEPv@plt>
   52ae0: 24 e4 00 94  	bl	0x8bb70 <_ZN2cv3Mat10deallocateEv@plt>
   52bec: e5 e3 00 94  	bl	0x8bb80 <_ZN2cv8fastFreeEPv@plt>
   52c18: 66 e3 00 94  	bl	0x8b9b0 <_ZdlPv@plt>
   52c48: 5a e3 00 94  	bl	0x8b9b0 <_ZdlPv@plt>
   52c74: bf e3 00 94  	bl	0x8bb70 <_ZN2cv3Mat10deallocateEv@plt>
   52d84: 7f e3 00 94  	bl	0x8bb80 <_ZN2cv8fastFreeEPv@plt>
   52db0: 70 e3 00 94  	bl	0x8bb70 <_ZN2cv3Mat10deallocateEv@plt>
   52eb8: 32 e3 00 94  	bl	0x8bb80 <_ZN2cv8fastFreeEPv@plt>
   52ed4: bf e2 00 94  	bl	0x8b9d0 <_ZNSt3__15mutexD1Ev@plt>
   52ee0: 60 e3 00 94  	bl	0x8bc60 <_ZNSt3__119__shared_weak_countD2Ev@plt>
   52ee8: b2 e2 00 94  	bl	0x8b9b0 <_ZdlPv@plt>
   52f78: 46 e3 00 94  	bl	0x8bc90 <_ZN2cv12getTickCountEv@plt>
   53078: 2e e2 00 94  	bl	0x8b930 <_Znwm@plt>
   53184: bf e2 00 94  	bl	0x8bc80 <_ZN2cv3Mat8copySizeERKS0_@plt>
   5334c: 1d e2 00 94  	bl	0x8bbc0 <_ZN2cv3MatC1ERKS0_RKNS_5Rect_IiEE@plt>
   5337c: fd e1 00 94  	bl	0x8bb70 <_ZN2cv3Mat10deallocateEv@plt>
   53430: e0 e1 00 94  	bl	0x8bbb0 <_ZN2cv3Mat6createEiPKii@plt>
   534ac: c1 e1 00 94  	bl	0x8bbb0 <_ZN2cv3Mat6createEiPKii@plt>
   53520: a4 e1 00 94  	bl	0x8bbb0 <_ZN2cv3Mat6createEiPKii@plt>
   53590: 88 e1 00 94  	bl	0x8bbb0 <_ZN2cv3Mat6createEiPKii@plt>
   53640: 38 e1 00 94  	bl	0x8bb20 <_ZNSt3__119__shared_weak_count14__release_weakEv@plt>
   5366c: 2d e1 00 94  	bl	0x8bb20 <_ZNSt3__119__shared_weak_count14__release_weakEv@plt>
   53674: af e0 00 94  	bl	0x8b930 <_Znwm@plt>
   53788: 3e e1 00 94  	bl	0x8bc80 <_ZN2cv3Mat8copySizeERKS0_@plt>
   539bc: 81 e0 00 94  	bl	0x8bbc0 <_ZN2cv3MatC1ERKS0_RKNS_5Rect_IiEE@plt>
   539ec: 61 e0 00 94  	bl	0x8bb70 <_ZN2cv3Mat10deallocateEv@plt>
   53a9c: 45 e0 00 94  	bl	0x8bbb0 <_ZN2cv3Mat6createEiPKii@plt>
   53b08: 2a e0 00 94  	bl	0x8bbb0 <_ZN2cv3Mat6createEiPKii@plt>
   53b68: 12 e0 00 94  	bl	0x8bbb0 <_ZN2cv3Mat6createEiPKii@plt>
   53bd8: f6 df 00 94  	bl	0x8bbb0 <_ZN2cv3Mat6createEiPKii@plt>
   53c44: db df 00 94  	bl	0x8bbb0 <_ZN2cv3Mat6createEiPKii@plt>
   53d00: 88 df 00 94  	bl	0x8bb20 <_ZNSt3__119__shared_weak_count14__release_weakEv@plt>
   53d30: 7c df 00 94  	bl	0x8bb20 <_ZNSt3__119__shared_weak_count14__release_weakEv@plt>
   53da4: 5f df 00 94  	bl	0x8bb20 <_ZNSt3__119__shared_weak_count14__release_weakEv@plt>
   53dac: e1 de 00 94  	bl	0x8b930 <_Znwm@plt>
   53ec4: 6f df 00 94  	bl	0x8bc80 <_ZN2cv3Mat8copySizeERKS0_@plt>
   540c4: bf de 00 94  	bl	0x8bbc0 <_ZN2cv3MatC1ERKS0_RKNS_5Rect_IiEE@plt>
   540f4: 9f de 00 94  	bl	0x8bb70 <_ZN2cv3Mat10deallocateEv@plt>
   541a4: 83 de 00 94  	bl	0x8bbb0 <_ZN2cv3Mat6createEiPKii@plt>
   54210: 68 de 00 94  	bl	0x8bbb0 <_ZN2cv3Mat6createEiPKii@plt>
   54280: 4c de 00 94  	bl	0x8bbb0 <_ZN2cv3Mat6createEiPKii@plt>
   542ec: 31 de 00 94  	bl	0x8bbb0 <_ZN2cv3Mat6createEiPKii@plt>
   543a0: e0 dd 00 94  	bl	0x8bb20 <_ZNSt3__119__shared_weak_count14__release_weakEv@plt>
   543cc: d5 dd 00 94  	bl	0x8bb20 <_ZNSt3__119__shared_weak_count14__release_weakEv@plt>
   54430: bc dd 00 94  	bl	0x8bb20 <_ZNSt3__119__shared_weak_count14__release_weakEv@plt>
   54438: 3e dd 00 94  	bl	0x8b930 <_Znwm@plt>
   54550: cc dd 00 94  	bl	0x8bc80 <_ZN2cv3Mat8copySizeERKS0_@plt>
   54664: 57 dd 00 94  	bl	0x8bbc0 <_ZN2cv3MatC1ERKS0_RKNS_5Rect_IiEE@plt>
   54694: 37 dd 00 94  	bl	0x8bb70 <_ZN2cv3Mat10deallocateEv@plt>
   54744: 1b dd 00 94  	bl	0x8bbb0 <_ZN2cv3Mat6createEiPKii@plt>
   54814: e7 dc 00 94  	bl	0x8bbb0 <_ZN2cv3Mat6createEiPKii@plt>
   548c0: 98 dc 00 94  	bl	0x8bb20 <_ZNSt3__119__shared_weak_count14__release_weakEv@plt>
   548ec: 8d dc 00 94  	bl	0x8bb20 <_ZNSt3__119__shared_weak_count14__release_weakEv@plt>
   54944: 77 dc 00 94  	bl	0x8bb20 <_ZNSt3__119__shared_weak_count14__release_weakEv@plt>
   54998: 62 dc 00 94  	bl	0x8bb20 <_ZNSt3__119__shared_weak_count14__release_weakEv@plt>
   549e4: 4f dc 00 94  	bl	0x8bb20 <_ZNSt3__119__shared_weak_count14__release_weakEv@plt>
   54a54: 33 dc 00 94  	bl	0x8bb20 <_ZNSt3__119__shared_weak_count14__release_weakEv@plt>
   54aa8: 1e dc 00 94  	bl	0x8bb20 <_ZNSt3__119__shared_weak_count14__release_weakEv@plt>
   54af8: 0a dc 00 94  	bl	0x8bb20 <_ZNSt3__119__shared_weak_count14__release_weakEv@plt>
   54b4c: f5 db 00 94  	bl	0x8bb20 <_ZNSt3__119__shared_weak_count14__release_weakEv@plt>
   54b98: e2 db 00 94  	bl	0x8bb20 <_ZNSt3__119__shared_weak_count14__release_weakEv@plt>
   54bb0: 60 db 00 94  	bl	0x8b930 <_Znwm@plt>
   54cc8: ee db 00 94  	bl	0x8bc80 <_ZN2cv3Mat8copySizeERKS0_@plt>
   54dc4: 7b db 00 94  	bl	0x8bbb0 <_ZN2cv3Mat6createEiPKii@plt>
   54e90: 48 db 00 94  	bl	0x8bbb0 <_ZN2cv3Mat6createEiPKii@plt>
   54f40: f8 da 00 94  	bl	0x8bb20 <_ZNSt3__119__shared_weak_count14__release_weakEv@plt>
   54f6c: ed da 00 94  	bl	0x8bb20 <_ZNSt3__119__shared_weak_count14__release_weakEv@plt>
   54f70: 48 db 00 94  	bl	0x8bc90 <_ZN2cv12getTickCountEv@plt>
   54f7c: 45 db 00 94  	bl	0x8bc90 <_ZN2cv12getTickCountEv@plt>
   54fe4: e3 da 00 94  	bl	0x8bb70 <_ZN2cv3Mat10deallocateEv@plt>
   55030: d0 da 00 94  	bl	0x8bb70 <_ZN2cv3Mat10deallocateEv@plt>
   5506c: c1 da 00 94  	bl	0x8bb70 <_ZN2cv3Mat10deallocateEv@plt>
   55098: b6 da 00 94  	bl	0x8bb70 <_ZN2cv3Mat10deallocateEv@plt>
   5514c: 8d da 00 94  	bl	0x8bb80 <_ZN2cv8fastFreeEPv@plt>
   552c0: 30 da 00 94  	bl	0x8bb80 <_ZN2cv8fastFreeEPv@plt>
   5536c: 05 da 00 94  	bl	0x8bb80 <_ZN2cv8fastFreeEPv@plt>
   554e0: a8 d9 00 94  	bl	0x8bb80 <_ZN2cv8fastFreeEPv@plt>
   5558c: 7d d9 00 94  	bl	0x8bb80 <_ZN2cv8fastFreeEPv@plt>
   55704: 1f d9 00 94  	bl	0x8bb80 <_ZN2cv8fastFreeEPv@plt>
   557b8: f2 d8 00 94  	bl	0x8bb80 <_ZN2cv8fastFreeEPv@plt>
   5592c: 95 d8 00 94  	bl	0x8bb80 <_ZN2cv8fastFreeEPv@plt>
   55a74: 3f d8 00 94  	bl	0x8bb70 <_ZN2cv3Mat10deallocateEv@plt>
   55b74: 03 d8 00 94  	bl	0x8bb80 <_ZN2cv8fastFreeEPv@plt>
   55bb0: f0 d7 00 94  	bl	0x8bb70 <_ZN2cv3Mat10deallocateEv@plt>
   55cb0: b4 d7 00 94  	bl	0x8bb80 <_ZN2cv8fastFreeEPv@plt>
   55ce4: a3 d7 00 94  	bl	0x8bb70 <_ZN2cv3Mat10deallocateEv@plt>
   55de4: 67 d7 00 94  	bl	0x8bb80 <_ZN2cv8fastFreeEPv@plt>
   55e18: 56 d7 00 94  	bl	0x8bb70 <_ZN2cv3Mat10deallocateEv@plt>
   55f18: 1a d7 00 94  	bl	0x8bb80 <_ZN2cv8fastFreeEPv@plt>
   55f7c: e9 d6 00 94  	bl	0x8bb20 <_ZNSt3__119__shared_weak_count14__release_weakEv@plt>
   56018: c2 d6 00 94  	bl	0x8bb20 <_ZNSt3__119__shared_weak_count14__release_weakEv@plt>
   56048: b6 d6 00 94  	bl	0x8bb20 <_ZNSt3__119__shared_weak_count14__release_weakEv@plt>
   560a4: 9f d6 00 94  	bl	0x8bb20 <_ZNSt3__119__shared_weak_count14__release_weakEv@plt>
   560d0: 94 d6 00 94  	bl	0x8bb20 <_ZNSt3__119__shared_weak_count14__release_weakEv@plt>
   56120: 80 d6 00 94  	bl	0x8bb20 <_ZNSt3__119__shared_weak_count14__release_weakEv@plt>
   56150: 74 d6 00 94  	bl	0x8bb20 <_ZNSt3__119__shared_weak_count14__release_weakEv@plt>
   561a0: 60 d6 00 94  	bl	0x8bb20 <_ZNSt3__119__shared_weak_count14__release_weakEv@plt>
   561d0: 54 d6 00 94  	bl	0x8bb20 <_ZNSt3__119__shared_weak_count14__release_weakEv@plt>
   56214: 57 d6 00 94  	bl	0x8bb70 <_ZN2cv3Mat10deallocateEv@plt>
   5630c: 1d d6 00 94  	bl	0x8bb80 <_ZN2cv8fastFreeEPv@plt>
   56334: 0f d6 00 94  	bl	0x8bb70 <_ZN2cv3Mat10deallocateEv@plt>
   56434: d3 d5 00 94  	bl	0x8bb80 <_ZN2cv8fastFreeEPv@plt>
   5645c: c5 d5 00 94  	bl	0x8bb70 <_ZN2cv3Mat10deallocateEv@plt>
   5655c: 89 d5 00 94  	bl	0x8bb80 <_ZN2cv8fastFreeEPv@plt>
   56584: 0b d5 00 94  	bl	0x8b9b0 <_ZdlPv@plt>
   565ac: 01 d5 00 94  	bl	0x8b9b0 <_ZdlPv@plt>
   565d4: 67 d5 00 94  	bl	0x8bb70 <_ZN2cv3Mat10deallocateEv@plt>
   566d8: 2a d5 00 94  	bl	0x8bb80 <_ZN2cv8fastFreeEPv@plt>
   56700: 1c d5 00 94  	bl	0x8bb70 <_ZN2cv3Mat10deallocateEv@plt>
   567fc: e1 d4 00 94  	bl	0x8bb80 <_ZN2cv8fastFreeEPv@plt>
   56858: c6 d4 00 94  	bl	0x8bb70 <_ZN2cv3Mat10deallocateEv@plt>
   56958: 8a d4 00 94  	bl	0x8bb80 <_ZN2cv8fastFreeEPv@plt>
   56980: 0c d4 00 94  	bl	0x8b9b0 <_ZdlPv@plt>
   569a8: 02 d4 00 94  	bl	0x8b9b0 <_ZdlPv@plt>
   569d0: 68 d4 00 94  	bl	0x8bb70 <_ZN2cv3Mat10deallocateEv@plt>
   56ad4: 2b d4 00 94  	bl	0x8bb80 <_ZN2cv8fastFreeEPv@plt>
   56afc: 1d d4 00 94  	bl	0x8bb70 <_ZN2cv3Mat10deallocateEv@plt>
   56bf8: e2 d3 00 94  	bl	0x8bb80 <_ZN2cv8fastFreeEPv@plt>
   56c10: 70 d3 00 94  	bl	0x8b9d0 <_ZNSt3__15mutexD1Ev@plt>
   56c18: 12 d4 00 94  	bl	0x8bc60 <_ZNSt3__119__shared_weak_countD2Ev@plt>
   56c20: 64 d3 00 94  	bl	0x8b9b0 <_ZdlPv@plt>
   56c60: c4 d3 00 94  	bl	0x8bb70 <_ZN2cv3Mat10deallocateEv@plt>
   56d64: 87 d3 00 94  	bl	0x8bb80 <_ZN2cv8fastFreeEPv@plt>
   56d90: 08 d3 00 94  	bl	0x8b9b0 <_ZdlPv@plt>
   56dbc: fd d2 00 94  	bl	0x8b9b0 <_ZdlPv@plt>
   56de8: 62 d3 00 94  	bl	0x8bb70 <_ZN2cv3Mat10deallocateEv@plt>
   56ef8: 22 d3 00 94  	bl	0x8bb80 <_ZN2cv8fastFreeEPv@plt>
   56f24: 13 d3 00 94  	bl	0x8bb70 <_ZN2cv3Mat10deallocateEv@plt>
   5702c: d5 d2 00 94  	bl	0x8bb80 <_ZN2cv8fastFreeEPv@plt>
   57048: 62 d2 00 94  	bl	0x8b9d0 <_ZNSt3__15mutexD1Ev@plt>
   57054: 03 d3 00 94  	bl	0x8bc60 <_ZNSt3__119__shared_weak_countD2Ev@plt>
   5705c: 55 d2 00 94  	bl	0x8b9b0 <_ZdlPv@plt>
   5709c: b5 d2 00 94  	bl	0x8bb70 <_ZN2cv3Mat10deallocateEv@plt>
   571a0: 78 d2 00 94  	bl	0x8bb80 <_ZN2cv8fastFreeEPv@plt>
   571cc: 69 d2 00 94  	bl	0x8bb70 <_ZN2cv3Mat10deallocateEv@plt>
   572d8: 2a d2 00 94  	bl	0x8bb80 <_ZN2cv8fastFreeEPv@plt>
   57304: 1b d2 00 94  	bl	0x8bb70 <_ZN2cv3Mat10deallocateEv@plt>
   57410: dc d1 00 94  	bl	0x8bb80 <_ZN2cv8fastFreeEPv@plt>
   5743c: 5d d1 00 94  	bl	0x8b9b0 <_ZdlPv@plt>
   57468: 52 d1 00 94  	bl	0x8b9b0 <_ZdlPv@plt>
   57494: b7 d1 00 94  	bl	0x8bb70 <_ZN2cv3Mat10deallocateEv@plt>
   575a4: 77 d1 00 94  	bl	0x8bb80 <_ZN2cv8fastFreeEPv@plt>
   575d0: 68 d1 00 94  	bl	0x8bb70 <_ZN2cv3Mat10deallocateEv@plt>
   576d8: 2a d1 00 94  	bl	0x8bb80 <_ZN2cv8fastFreeEPv@plt>
   576f4: b7 d0 00 94  	bl	0x8b9d0 <_ZNSt3__15mutexD1Ev@plt>
   57700: 58 d1 00 94  	bl	0x8bc60 <_ZNSt3__119__shared_weak_countD2Ev@plt>
   57708: aa d0 00 94  	bl	0x8b9b0 <_ZdlPv@plt>
   57750: 08 d1 00 94  	bl	0x8bb70 <_ZN2cv3Mat10deallocateEv@plt>
   57850: cc d0 00 94  	bl	0x8bb80 <_ZN2cv8fastFreeEPv@plt>
   57878: be d0 00 94  	bl	0x8bb70 <_ZN2cv3Mat10deallocateEv@plt>
   5797c: 81 d0 00 94  	bl	0x8bb80 <_ZN2cv8fastFreeEPv@plt>
   579a4: 73 d0 00 94  	bl	0x8bb70 <_ZN2cv3Mat10deallocateEv@plt>
   57aa8: 36 d0 00 94  	bl	0x8bb80 <_ZN2cv8fastFreeEPv@plt>
   57ad0: 28 d0 00 94  	bl	0x8bb70 <_ZN2cv3Mat10deallocateEv@plt>
   57bd4: eb cf 00 94  	bl	0x8bb80 <_ZN2cv8fastFreeEPv@plt>
   57c00: 6c cf 00 94  	bl	0x8b9b0 <_ZdlPv@plt>
   57c30: 60 cf 00 94  	bl	0x8b9b0 <_ZdlPv@plt>
   57c58: c6 cf 00 94  	bl	0x8bb70 <_ZN2cv3Mat10deallocateEv@plt>
   57d60: 88 cf 00 94  	bl	0x8bb80 <_ZN2cv8fastFreeEPv@plt>
   57d88: 7a cf 00 94  	bl	0x8bb70 <_ZN2cv3Mat10deallocateEv@plt>
   57e88: 3e cf 00 94  	bl	0x8bb80 <_ZN2cv8fastFreeEPv@plt>
   57ea4: cb ce 00 94  	bl	0x8b9d0 <_ZNSt3__15mutexD1Ev@plt>
   57eac: 6d cf 00 94  	bl	0x8bc60 <_ZNSt3__119__shared_weak_countD2Ev@plt>
   57eb4: bf ce 00 94  	bl	0x8b9b0 <_ZdlPv@plt>
   57f5c: 75 ce 00 94  	bl	0x8b930 <_Znwm@plt>
   58058: b2 ce 00 94  	bl	0x8bb20 <_ZNSt3__119__shared_weak_count14__release_weakEv@plt>
   58100: 88 ce 00 94  	bl	0x8bb20 <_ZNSt3__119__shared_weak_count14__release_weakEv@plt>
   58138: 7a ce 00 94  	bl	0x8bb20 <_ZNSt3__119__shared_weak_count14__release_weakEv@plt>
   5814c: c5 ce 00 94  	bl	0x8bc60 <_ZNSt3__119__shared_weak_countD2Ev@plt>
   58154: 17 ce 00 94  	bl	0x8b9b0 <_ZdlPv@plt>
   581ac: e1 cd 00 94  	bl	0x8b930 <_Znwm@plt>
   582bc: 71 ce 00 94  	bl	0x8bc80 <_ZN2cv3Mat8copySizeERKS0_@plt>
   5834c: 4d ce 00 94  	bl	0x8bc80 <_ZN2cv3Mat8copySizeERKS0_@plt>
   5840c: c5 cd 00 94  	bl	0x8bb20 <_ZNSt3__119__shared_weak_count14__release_weakEv@plt>
   584a4: b3 cd 00 94  	bl	0x8bb70 <_ZN2cv3Mat10deallocateEv@plt>
   58590: 7c cd 00 94  	bl	0x8bb80 <_ZN2cv8fastFreeEPv@plt>
   585b4: 07 cd 00 94  	bl	0x8b9d0 <_ZNSt3__15mutexD1Ev@plt>
   585f4: 4b cd 00 94  	bl	0x8bb20 <_ZNSt3__119__shared_weak_count14__release_weakEv@plt>
   5862c: 3d cd 00 94  	bl	0x8bb20 <_ZNSt3__119__shared_weak_count14__release_weakEv@plt>
   58640: 88 cd 00 94  	bl	0x8bc60 <_ZNSt3__119__shared_weak_countD2Ev@plt>
   58648: da cc 00 94  	bl	0x8b9b0 <_ZdlPv@plt>
   586a4: a3 cc 00 94  	bl	0x8b930 <_Znwm@plt>
   587b4: 33 cd 00 94  	bl	0x8bc80 <_ZN2cv3Mat8copySizeERKS0_@plt>
   58844: 0f cd 00 94  	bl	0x8bc80 <_ZN2cv3Mat8copySizeERKS0_@plt>
   58904: 87 cc 00 94  	bl	0x8bb20 <_ZNSt3__119__shared_weak_count14__release_weakEv@plt>
   5899c: 75 cc 00 94  	bl	0x8bb70 <_ZN2cv3Mat10deallocateEv@plt>
   58a88: 3e cc 00 94  	bl	0x8bb80 <_ZN2cv8fastFreeEPv@plt>
   58aac: c9 cb 00 94  	bl	0x8b9d0 <_ZNSt3__15mutexD1Ev@plt>
   58aec: 0d cc 00 94  	bl	0x8bb20 <_ZNSt3__119__shared_weak_count14__release_weakEv@plt>
   58b24: ff cb 00 94  	bl	0x8bb20 <_ZNSt3__119__shared_weak_count14__release_weakEv@plt>
   58b38: 4a cc 00 94  	bl	0x8bc60 <_ZNSt3__119__shared_weak_countD2Ev@plt>
   58b40: 9c cb 00 94  	bl	0x8b9b0 <_ZdlPv@plt>
   58b98: 66 cb 00 94  	bl	0x8b930 <_Znwm@plt>
   58ca8: f6 cb 00 94  	bl	0x8bc80 <_ZN2cv3Mat8copySizeERKS0_@plt>
   58d38: d2 cb 00 94  	bl	0x8bc80 <_ZN2cv3Mat8copySizeERKS0_@plt>
   58df8: 4a cb 00 94  	bl	0x8bb20 <_ZNSt3__119__shared_weak_count14__release_weakEv@plt>
   58e90: 38 cb 00 94  	bl	0x8bb70 <_ZN2cv3Mat10deallocateEv@plt>
   58f7c: 01 cb 00 94  	bl	0x8bb80 <_ZN2cv8fastFreeEPv@plt>
   58fa0: 8c ca 00 94  	bl	0x8b9d0 <_ZNSt3__15mutexD1Ev@plt>
   58fe0: d0 ca 00 94  	bl	0x8bb20 <_ZNSt3__119__shared_weak_count14__release_weakEv@plt>
   59018: c2 ca 00 94  	bl	0x8bb20 <_ZNSt3__119__shared_weak_count14__release_weakEv@plt>
   5902c: 0d cb 00 94  	bl	0x8bc60 <_ZNSt3__119__shared_weak_countD2Ev@plt>
   59034: 5f ca 00 94  	bl	0x8b9b0 <_ZdlPv@plt>
   59080: 2c ca 00 94  	bl	0x8b930 <_Znwm@plt>
   59168: c6 ca 00 94  	bl	0x8bc80 <_ZN2cv3Mat8copySizeERKS0_@plt>
   59228: 3e ca 00 94  	bl	0x8bb20 <_ZNSt3__119__shared_weak_count14__release_weakEv@plt>
   592b0: c8 c9 00 94  	bl	0x8b9d0 <_ZNSt3__15mutexD1Ev@plt>
   592f0: 0c ca 00 94  	bl	0x8bb20 <_ZNSt3__119__shared_weak_count14__release_weakEv@plt>
   59328: fe c9 00 94  	bl	0x8bb20 <_ZNSt3__119__shared_weak_count14__release_weakEv@plt>
   5933c: 49 ca 00 94  	bl	0x8bc60 <_ZNSt3__119__shared_weak_countD2Ev@plt>
   59344: 9b c9 00 94  	bl	0x8b9b0 <_ZdlPv@plt>
   593a4: 83 c9 00 94  	bl	0x8b9b0 <_ZdlPv@plt>
   593e0: 54 c9 00 94  	bl	0x8b930 <_Znwm@plt>
   594cc: 75 c9 00 94  	bl	0x8baa0 <_ZNKSt3__120__vector_base_commonILb1EE20__throw_length_errorEv@plt>
   5951c: 95 c9 00 94  	bl	0x8bb70 <_ZN2cv3Mat10deallocateEv@plt>
   59614: 5b c9 00 94  	bl	0x8bb80 <_ZN2cv8fastFreeEPv@plt>
   59638: de c8 00 94  	bl	0x8b9b0 <_ZdlPv@plt>
   5965c: d5 c8 00 94  	bl	0x8b9b0 <_ZdlPv@plt>
   59684: 3b c9 00 94  	bl	0x8bb70 <_ZN2cv3Mat10deallocateEv@plt>
   59780: 00 c9 00 94  	bl	0x8bb80 <_ZN2cv8fastFreeEPv@plt>
   597a8: f2 c8 00 94  	bl	0x8bb70 <_ZN2cv3Mat10deallocateEv@plt>
   598a4: b7 c8 00 94  	bl	0x8bb80 <_ZN2cv8fastFreeEPv@plt>
   598c4: 43 c8 00 14  	b	0x8b9d0 <_ZNSt3__15mutexD1Ev@plt>
   598f8: 2e c8 00 14  	b	0x8b9b0 <_ZdlPv@plt>
   5a0e8: de c6 00 14  	b	0x8bc60 <_ZNSt3__119__shared_weak_countD2Ev@plt>
   5a118: d2 c6 00 94  	bl	0x8bc60 <_ZNSt3__119__shared_weak_countD2Ev@plt>
   5a128: 22 c6 00 14  	b	0x8b9b0 <_ZdlPv@plt>
   5a190: 08 c6 00 14  	b	0x8b9b0 <_ZdlPv@plt>
   5a1dc: 65 c6 00 94  	bl	0x8bb70 <_ZN2cv3Mat10deallocateEv@plt>
   5a2d0: 2c c6 00 94  	bl	0x8bb80 <_ZN2cv8fastFreeEPv@plt>
   5a2f0: b8 c5 00 14  	b	0x8b9d0 <_ZNSt3__15mutexD1Ev@plt>
   5a33c: 0d c6 00 94  	bl	0x8bb70 <_ZN2cv3Mat10deallocateEv@plt>
   5a430: d4 c5 00 94  	bl	0x8bb80 <_ZN2cv8fastFreeEPv@plt>
   5a448: 62 c5 00 94  	bl	0x8b9d0 <_ZNSt3__15mutexD1Ev@plt>
   5a458: 56 c5 00 14  	b	0x8b9b0 <_ZdlPv@plt>
   5a62c: 51 c5 00 94  	bl	0x8bb70 <_ZN2cv3Mat10deallocateEv@plt>
   5a720: 18 c5 00 94  	bl	0x8bb80 <_ZN2cv8fastFreeEPv@plt>
   5a738: a6 c4 00 94  	bl	0x8b9d0 <_ZNSt3__15mutexD1Ev@plt>
   5a748: 46 c5 00 14  	b	0x8bc60 <_ZNSt3__119__shared_weak_countD2Ev@plt>
   5a7a4: f3 c4 00 94  	bl	0x8bb70 <_ZN2cv3Mat10deallocateEv@plt>
   5a898: ba c4 00 94  	bl	0x8bb80 <_ZN2cv8fastFreeEPv@plt>
   5a8b0: 48 c4 00 94  	bl	0x8b9d0 <_ZNSt3__15mutexD1Ev@plt>
   5a8b8: ea c4 00 94  	bl	0x8bc60 <_ZNSt3__119__shared_weak_countD2Ev@plt>
   5a8c8: 3a c4 00 14  	b	0x8b9b0 <_ZdlPv@plt>
   5a930: 20 c4 00 14  	b	0x8b9b0 <_ZdlPv@plt>
   5a97c: 7d c4 00 94  	bl	0x8bb70 <_ZN2cv3Mat10deallocateEv@plt>
   5aa78: 42 c4 00 94  	bl	0x8bb80 <_ZN2cv8fastFreeEPv@plt>
   5aaa0: 34 c4 00 94  	bl	0x8bb70 <_ZN2cv3Mat10deallocateEv@plt>
   5ab9c: f9 c3 00 94  	bl	0x8bb80 <_ZN2cv8fastFreeEPv@plt>
   5abbc: 85 c3 00 14  	b	0x8b9d0 <_ZNSt3__15mutexD1Ev@plt>
   5abe8: 72 c3 00 14  	b	0x8b9b0 <_ZdlPv@plt>
   5af10: 54 c3 00 14  	b	0x8bc60 <_ZNSt3__119__shared_weak_countD2Ev@plt>
   5af40: 48 c3 00 94  	bl	0x8bc60 <_ZNSt3__119__shared_weak_countD2Ev@plt>
   5af50: 98 c2 00 14  	b	0x8b9b0 <_ZdlPv@plt>
   5afb8: 7e c2 00 14  	b	0x8b9b0 <_ZdlPv@plt>
   5b004: db c2 00 94  	bl	0x8bb70 <_ZN2cv3Mat10deallocateEv@plt>
   5b100: a0 c2 00 94  	bl	0x8bb80 <_ZN2cv8fastFreeEPv@plt>
   5b128: 92 c2 00 94  	bl	0x8bb70 <_ZN2cv3Mat10deallocateEv@plt>
   5b224: 57 c2 00 94  	bl	0x8bb80 <_ZN2cv8fastFreeEPv@plt>
   5b244: e3 c1 00 14  	b	0x8b9d0 <_ZNSt3__15mutexD1Ev@plt>
   5b270: d0 c1 00 14  	b	0x8b9b0 <_ZdlPv@plt>
   5b550: c4 c1 00 14  	b	0x8bc60 <_ZNSt3__119__shared_weak_countD2Ev@plt>
   5b580: b8 c1 00 94  	bl	0x8bc60 <_ZNSt3__119__shared_weak_countD2Ev@plt>
   5b590: 08 c1 00 14  	b	0x8b9b0 <_ZdlPv@plt>
   5b5f8: ee c0 00 14  	b	0x8b9b0 <_ZdlPv@plt>
   5b644: 4b c1 00 94  	bl	0x8bb70 <_ZN2cv3Mat10deallocateEv@plt>
   5b740: 10 c1 00 94  	bl	0x8bb80 <_ZN2cv8fastFreeEPv@plt>
   5b768: 02 c1 00 94  	bl	0x8bb70 <_ZN2cv3Mat10deallocateEv@plt>
   5b864: c7 c0 00 94  	bl	0x8bb80 <_ZN2cv8fastFreeEPv@plt>
   5b884: 53 c0 00 14  	b	0x8b9d0 <_ZNSt3__15mutexD1Ev@plt>
   5b8b0: 40 c0 00 14  	b	0x8b9b0 <_ZdlPv@plt>
   5c330: 4c be 00 14  	b	0x8bc60 <_ZNSt3__119__shared_weak_countD2Ev@plt>
   5c360: 40 be 00 94  	bl	0x8bc60 <_ZNSt3__119__shared_weak_countD2Ev@plt>
   5c370: 90 bd 00 14  	b	0x8b9b0 <_ZdlPv@plt>
   5c3d8: 76 bd 00 14  	b	0x8b9b0 <_ZdlPv@plt>
   5c424: d3 bd 00 94  	bl	0x8bb70 <_ZN2cv3Mat10deallocateEv@plt>
   5c51c: 99 bd 00 94  	bl	0x8bb80 <_ZN2cv8fastFreeEPv@plt>
   5c540: 1c bd 00 94  	bl	0x8b9b0 <_ZdlPv@plt>
   5c564: 13 bd 00 94  	bl	0x8b9b0 <_ZdlPv@plt>
   5c58c: 79 bd 00 94  	bl	0x8bb70 <_ZN2cv3Mat10deallocateEv@plt>
   5c688: 3e bd 00 94  	bl	0x8bb80 <_ZN2cv8fastFreeEPv@plt>
   5c6b0: 30 bd 00 94  	bl	0x8bb70 <_ZN2cv3Mat10deallocateEv@plt>
   5c7ac: f5 bc 00 94  	bl	0x8bb80 <_ZN2cv8fastFreeEPv@plt>
   5c7cc: 81 bc 00 14  	b	0x8b9d0 <_ZNSt3__15mutexD1Ev@plt>
   5c800: 6c bc 00 14  	b	0x8b9b0 <_ZdlPv@plt>
   5cd10: d4 bb 00 14  	b	0x8bc60 <_ZNSt3__119__shared_weak_countD2Ev@plt>
   5cd40: c8 bb 00 94  	bl	0x8bc60 <_ZNSt3__119__shared_weak_countD2Ev@plt>
   5cd50: 18 bb 00 14  	b	0x8b9b0 <_ZdlPv@plt>
   5cdb8: fe ba 00 14  	b	0x8b9b0 <_ZdlPv@plt>
   5ce04: 5b bb 00 94  	bl	0x8bb70 <_ZN2cv3Mat10deallocateEv@plt>
   5cefc: 21 bb 00 94  	bl	0x8bb80 <_ZN2cv8fastFreeEPv@plt>
   5cf24: 13 bb 00 94  	bl	0x8bb70 <_ZN2cv3Mat10deallocateEv@plt>
   5d01c: d9 ba 00 94  	bl	0x8bb80 <_ZN2cv8fastFreeEPv@plt>
   5d044: cb ba 00 94  	bl	0x8bb70 <_ZN2cv3Mat10deallocateEv@plt>
   5d13c: 91 ba 00 94  	bl	0x8bb80 <_ZN2cv8fastFreeEPv@plt>
   5d160: 14 ba 00 94  	bl	0x8b9b0 <_ZdlPv@plt>
   5d184: 0b ba 00 94  	bl	0x8b9b0 <_ZdlPv@plt>
   5d1ac: 71 ba 00 94  	bl	0x8bb70 <_ZN2cv3Mat10deallocateEv@plt>
   5d2a8: 36 ba 00 94  	bl	0x8bb80 <_ZN2cv8fastFreeEPv@plt>
   5d2d0: 28 ba 00 94  	bl	0x8bb70 <_ZN2cv3Mat10deallocateEv@plt>
   5d3cc: ed b9 00 94  	bl	0x8bb80 <_ZN2cv8fastFreeEPv@plt>
   5d3ec: 79 b9 00 14  	b	0x8b9d0 <_ZNSt3__15mutexD1Ev@plt>
   5d428: 62 b9 00 14  	b	0x8b9b0 <_ZdlPv@plt>
   5d950: 18 b8 00 94  	bl	0x8b9b0 <_ZdlPv@plt>
   5da50: b8 b7 00 94  	bl	0x8b930 <_Znwm@plt>
   5dac0: 68 b8 00 14  	b	0x8bc60 <_ZNSt3__119__shared_weak_countD2Ev@plt>
   5daf0: 5c b8 00 94  	bl	0x8bc60 <_ZNSt3__119__shared_weak_countD2Ev@plt>
   5db00: ac b7 00 14  	b	0x8b9b0 <_ZdlPv@plt>
   5db68: 92 b7 00 14  	b	0x8b9b0 <_ZdlPv@plt>
   5dcc0: f0 b7 00 94  	bl	0x8bc80 <_ZN2cv3Mat8copySizeERKS0_@plt>
   5dd90: bc b7 00 94  	bl	0x8bc80 <_ZN2cv3Mat8copySizeERKS0_@plt>
   5ded4: 37 b7 00 94  	bl	0x8bbb0 <_ZN2cv3Mat6createEiPKii@plt>
   5df44: 1b b7 00 94  	bl	0x8bbb0 <_ZN2cv3Mat6createEiPKii@plt>
   5dfa4: 03 b7 00 94  	bl	0x8bbb0 <_ZN2cv3Mat6createEiPKii@plt>
   5e154: 87 b6 00 94  	bl	0x8bb70 <_ZN2cv3Mat10deallocateEv@plt>
   5e248: 4e b6 00 94  	bl	0x8bb80 <_ZN2cv8fastFreeEPv@plt>
   5e270: 40 b6 00 94  	bl	0x8bb70 <_ZN2cv3Mat10deallocateEv@plt>
   5e370: 04 b6 00 94  	bl	0x8bb80 <_ZN2cv8fastFreeEPv@plt>
   5e398: f6 b5 00 94  	bl	0x8bb70 <_ZN2cv3Mat10deallocateEv@plt>
   5e498: ba b5 00 94  	bl	0x8bb80 <_ZN2cv8fastFreeEPv@plt>
   5e4c0: ac b5 00 94  	bl	0x8bb70 <_ZN2cv3Mat10deallocateEv@plt>
   5e5bc: 71 b5 00 94  	bl	0x8bb80 <_ZN2cv8fastFreeEPv@plt>
   5e5e4: 63 b5 00 94  	bl	0x8bb70 <_ZN2cv3Mat10deallocateEv@plt>
   5e6dc: 29 b5 00 94  	bl	0x8bb80 <_ZN2cv8fastFreeEPv@plt>
   5e6f4: b7 b4 00 94  	bl	0x8b9d0 <_ZNSt3__15mutexD1Ev@plt>
   5e75c: 05 b5 00 94  	bl	0x8bb70 <_ZN2cv3Mat10deallocateEv@plt>
   5e860: c8 b4 00 94  	bl	0x8bb80 <_ZN2cv8fastFreeEPv@plt>
   5e888: ba b4 00 94  	bl	0x8bb70 <_ZN2cv3Mat10deallocateEv@plt>
   5e98c: 7d b4 00 94  	bl	0x8bb80 <_ZN2cv8fastFreeEPv@plt>
   5e9b4: 6f b4 00 94  	bl	0x8bb70 <_ZN2cv3Mat10deallocateEv@plt>
   5eab8: 32 b4 00 94  	bl	0x8bb80 <_ZN2cv8fastFreeEPv@plt>
   5eae0: 24 b4 00 94  	bl	0x8bb70 <_ZN2cv3Mat10deallocateEv@plt>
   5ebdc: e9 b3 00 94  	bl	0x8bb80 <_ZN2cv8fastFreeEPv@plt>
   5ec04: db b3 00 94  	bl	0x8bb70 <_ZN2cv3Mat10deallocateEv@plt>
   5ed00: a0 b3 00 94  	bl	0x8bb80 <_ZN2cv8fastFreeEPv@plt>
   5ed20: 2c b3 00 14  	b	0x8b9d0 <_ZNSt3__15mutexD1Ev@plt>
   5ed58: 16 b3 00 14  	b	0x8b9b0 <_ZdlPv@plt>
   5f9b0: ac b0 00 14  	b	0x8bc60 <_ZNSt3__119__shared_weak_countD2Ev@plt>
   5f9e0: a0 b0 00 94  	bl	0x8bc60 <_ZNSt3__119__shared_weak_countD2Ev@plt>
   5f9f0: f0 af 00 14  	b	0x8b9b0 <_ZdlPv@plt>
   5fa58: d6 af 00 14  	b	0x8b9b0 <_ZdlPv@plt>
   5faa4: 33 b0 00 94  	bl	0x8bb70 <_ZN2cv3Mat10deallocateEv@plt>
   5fb9c: f9 af 00 94  	bl	0x8bb80 <_ZN2cv8fastFreeEPv@plt>
   5fbc4: eb af 00 94  	bl	0x8bb70 <_ZN2cv3Mat10deallocateEv@plt>
   5fcbc: b1 af 00 94  	bl	0x8bb80 <_ZN2cv8fastFreeEPv@plt>
   5fce4: a3 af 00 94  	bl	0x8bb70 <_ZN2cv3Mat10deallocateEv@plt>
   5fddc: 69 af 00 94  	bl	0x8bb80 <_ZN2cv8fastFreeEPv@plt>
   5fe04: 5b af 00 94  	bl	0x8bb70 <_ZN2cv3Mat10deallocateEv@plt>
   5fefc: 21 af 00 94  	bl	0x8bb80 <_ZN2cv8fastFreeEPv@plt>
   5ff20: a4 ae 00 94  	bl	0x8b9b0 <_ZdlPv@plt>
   5ff44: 9b ae 00 94  	bl	0x8b9b0 <_ZdlPv@plt>
   5ff6c: 01 af 00 94  	bl	0x8bb70 <_ZN2cv3Mat10deallocateEv@plt>
   60068: c6 ae 00 94  	bl	0x8bb80 <_ZN2cv8fastFreeEPv@plt>
   60090: b8 ae 00 94  	bl	0x8bb70 <_ZN2cv3Mat10deallocateEv@plt>
   6018c: 7d ae 00 94  	bl	0x8bb80 <_ZN2cv8fastFreeEPv@plt>
   601ac: 09 ae 00 14  	b	0x8b9d0 <_ZNSt3__15mutexD1Ev@plt>
   601f0: f0 ad 00 14  	b	0x8b9b0 <_ZdlPv@plt>
   6066c: d1 ac 00 94  	bl	0x8b9b0 <_ZdlPv@plt>
   60790: 34 ad 00 14  	b	0x8bc60 <_ZNSt3__119__shared_weak_countD2Ev@plt>
   607c0: 28 ad 00 94  	bl	0x8bc60 <_ZNSt3__119__shared_weak_countD2Ev@plt>
   607d0: 78 ac 00 14  	b	0x8b9b0 <_ZdlPv@plt>
   60838: 5e ac 00 14  	b	0x8b9b0 <_ZdlPv@plt>
   60884: bb ac 00 94  	bl	0x8bb70 <_ZN2cv3Mat10deallocateEv@plt>
   60988: 7e ac 00 94  	bl	0x8bb80 <_ZN2cv8fastFreeEPv@plt>
   609b0: 70 ac 00 94  	bl	0x8bb70 <_ZN2cv3Mat10deallocateEv@plt>
   60ab4: 33 ac 00 94  	bl	0x8bb80 <_ZN2cv8fastFreeEPv@plt>
   60adc: 25 ac 00 94  	bl	0x8bb70 <_ZN2cv3Mat10deallocateEv@plt>
   60be0: e8 ab 00 94  	bl	0x8bb80 <_ZN2cv8fastFreeEPv@plt>
   60c04: 6b ab 00 94  	bl	0x8b9b0 <_ZdlPv@plt>
   60c28: 62 ab 00 94  	bl	0x8b9b0 <_ZdlPv@plt>
   60c50: c8 ab 00 94  	bl	0x8bb70 <_ZN2cv3Mat10deallocateEv@plt>
   60d4c: 8d ab 00 94  	bl	0x8bb80 <_ZN2cv8fastFreeEPv@plt>
   60d74: 7f ab 00 94  	bl	0x8bb70 <_ZN2cv3Mat10deallocateEv@plt>
   60e70: 44 ab 00 94  	bl	0x8bb80 <_ZN2cv8fastFreeEPv@plt>
   60e90: d0 aa 00 14  	b	0x8b9d0 <_ZNSt3__15mutexD1Ev@plt>
   60ed0: b8 aa 00 14  	b	0x8b9b0 <_ZdlPv@plt>
   614f0: 30 a9 00 94  	bl	0x8b9b0 <_ZdlPv@plt>
   61600: 98 a9 00 14  	b	0x8bc60 <_ZNSt3__119__shared_weak_countD2Ev@plt>
   61630: 8c a9 00 94  	bl	0x8bc60 <_ZNSt3__119__shared_weak_countD2Ev@plt>
   61640: dc a8 00 14  	b	0x8b9b0 <_ZdlPv@plt>
   616a8: c2 a8 00 14  	b	0x8b9b0 <_ZdlPv@plt>
   6170c: 89 a8 00 94  	bl	0x8b930 <_Znwm@plt>
   61808: c6 a8 00 94  	bl	0x8bb20 <_ZNSt3__119__shared_weak_count14__release_weakEv@plt>
   618b0: 9c a8 00 94  	bl	0x8bb20 <_ZNSt3__119__shared_weak_count14__release_weakEv@plt>
   618e8: 8e a8 00 94  	bl	0x8bb20 <_ZNSt3__119__shared_weak_count14__release_weakEv@plt>
   618fc: d9 a8 00 94  	bl	0x8bc60 <_ZNSt3__119__shared_weak_countD2Ev@plt>
   61904: 2b a8 00 94  	bl	0x8b9b0 <_ZdlPv@plt>
   61ae4: 93 a7 00 94  	bl	0x8b930 <_Znwm@plt>
   61b48: 9a a7 00 14  	b	0x8b9b0 <_ZdlPv@plt>
   61b74: cb a7 00 94  	bl	0x8baa0 <_ZNKSt3__120__vector_base_commonILb1EE20__throw_length_errorEv@plt>
   61bbc: ed a7 00 94  	bl	0x8bb70 <_ZN2cv3Mat10deallocateEv@plt>
   61cc0: b0 a7 00 94  	bl	0x8bb80 <_ZN2cv8fastFreeEPv@plt>
   61ce4: 33 a7 00 94  	bl	0x8b9b0 <_ZdlPv@plt>
   61d08: 2a a7 00 94  	bl	0x8b9b0 <_ZdlPv@plt>
   61d30: 90 a7 00 94  	bl	0x8bb70 <_ZN2cv3Mat10deallocateEv@plt>
   61e2c: 55 a7 00 94  	bl	0x8bb80 <_ZN2cv8fastFreeEPv@plt>
   61e54: 47 a7 00 94  	bl	0x8bb70 <_ZN2cv3Mat10deallocateEv@plt>
   61f50: 0c a7 00 94  	bl	0x8bb80 <_ZN2cv8fastFreeEPv@plt>
   61f70: 98 a6 00 14  	b	0x8b9d0 <_ZNSt3__15mutexD1Ev@plt>
   61fa8: 82 a6 00 14  	b	0x8b9b0 <_ZdlPv@plt>
   62a38: 8a a4 00 14  	b	0x8bc60 <_ZNSt3__119__shared_weak_countD2Ev@plt>
   62a68: 7e a4 00 94  	bl	0x8bc60 <_ZNSt3__119__shared_weak_countD2Ev@plt>
   62a78: ce a3 00 14  	b	0x8b9b0 <_ZdlPv@plt>
   62ae0: b4 a3 00 14  	b	0x8b9b0 <_ZdlPv@plt>
   62b80: f4 a4 00 94  	bl	0x8bf50 <_ZNK2cv3Mat9locateROIERNS_5Size_IiEERNS_6Point_IiEE@plt>
   62ba4: ef a4 00 94  	bl	0x8bf60 <_ZN2cv3Mat9adjustROIEiiii@plt>
   62c1c: d5 a3 00 94  	bl	0x8bb70 <_ZN2cv3Mat10deallocateEv@plt>
   62d20: 98 a3 00 94  	bl	0x8bb80 <_ZN2cv8fastFreeEPv@plt>
   62d48: 8a a3 00 94  	bl	0x8bb70 <_ZN2cv3Mat10deallocateEv@plt>
   62e4c: 4d a3 00 94  	bl	0x8bb80 <_ZN2cv8fastFreeEPv@plt>
   62e74: 3f a3 00 94  	bl	0x8bb70 <_ZN2cv3Mat10deallocateEv@plt>
   62f78: 02 a3 00 94  	bl	0x8bb80 <_ZN2cv8fastFreeEPv@plt>
   62f9c: 85 a2 00 94  	bl	0x8b9b0 <_ZdlPv@plt>
   62fc0: 7c a2 00 94  	bl	0x8b9b0 <_ZdlPv@plt>
   62fe8: e2 a2 00 94  	bl	0x8bb70 <_ZN2cv3Mat10deallocateEv@plt>
   630e4: a7 a2 00 94  	bl	0x8bb80 <_ZN2cv8fastFreeEPv@plt>
   6310c: 99 a2 00 94  	bl	0x8bb70 <_ZN2cv3Mat10deallocateEv@plt>
   63208: 5e a2 00 94  	bl	0x8bb80 <_ZN2cv8fastFreeEPv@plt>
   63228: ea a1 00 14  	b	0x8b9d0 <_ZNSt3__15mutexD1Ev@plt>
   63268: d2 a1 00 14  	b	0x8b9b0 <_ZdlPv@plt>
   636ac: c1 a0 00 94  	bl	0x8b9b0 <_ZdlPv@plt>
   63718: 86 a0 00 94  	bl	0x8b930 <_Znwm@plt>
   63908: d6 a0 00 14  	b	0x8bc60 <_ZNSt3__119__shared_weak_countD2Ev@plt>
   63938: ca a0 00 94  	bl	0x8bc60 <_ZNSt3__119__shared_weak_countD2Ev@plt>
   63948: 1a a0 00 14  	b	0x8b9b0 <_ZdlPv@plt>
   639b0: 00 a0 00 14  	b	0x8b9b0 <_ZdlPv@plt>
   639fc: 5d a0 00 94  	bl	0x8bb70 <_ZN2cv3Mat10deallocateEv@plt>
   63af4: 23 a0 00 94  	bl	0x8bb80 <_ZN2cv8fastFreeEPv@plt>
   63b1c: 15 a0 00 94  	bl	0x8bb70 <_ZN2cv3Mat10deallocateEv@plt>
   63c14: db 9f 00 94  	bl	0x8bb80 <_ZN2cv8fastFreeEPv@plt>
   63c38: 5e 9f 00 94  	bl	0x8b9b0 <_ZdlPv@plt>
   63c5c: 55 9f 00 94  	bl	0x8b9b0 <_ZdlPv@plt>
   63c84: bb 9f 00 94  	bl	0x8bb70 <_ZN2cv3Mat10deallocateEv@plt>
   63d80: 80 9f 00 94  	bl	0x8bb80 <_ZN2cv8fastFreeEPv@plt>
   63da8: 72 9f 00 94  	bl	0x8bb70 <_ZN2cv3Mat10deallocateEv@plt>
   63ea4: 37 9f 00 94  	bl	0x8bb80 <_ZN2cv8fastFreeEPv@plt>
   63ec4: c3 9e 00 14  	b	0x8b9d0 <_ZNSt3__15mutexD1Ev@plt>
   63f00: ac 9e 00 14  	b	0x8b9b0 <_ZdlPv@plt>
   641ec: f1 9d 00 94  	bl	0x8b9b0 <_ZdlPv@plt>
   64258: 82 9e 00 14  	b	0x8bc60 <_ZNSt3__119__shared_weak_countD2Ev@plt>
   64288: 76 9e 00 94  	bl	0x8bc60 <_ZNSt3__119__shared_weak_countD2Ev@plt>
   64298: c6 9d 00 14  	b	0x8b9b0 <_ZdlPv@plt>
   64300: ac 9d 00 14  	b	0x8b9b0 <_ZdlPv@plt>
   6434c: 09 9e 00 94  	bl	0x8bb70 <_ZN2cv3Mat10deallocateEv@plt>
   64444: cf 9d 00 94  	bl	0x8bb80 <_ZN2cv8fastFreeEPv@plt>
   6446c: c1 9d 00 94  	bl	0x8bb70 <_ZN2cv3Mat10deallocateEv@plt>
   64564: 87 9d 00 94  	bl	0x8bb80 <_ZN2cv8fastFreeEPv@plt>
   64588: 0a 9d 00 94  	bl	0x8b9b0 <_ZdlPv@plt>
   645ac: 01 9d 00 94  	bl	0x8b9b0 <_ZdlPv@plt>
   645d4: 67 9d 00 94  	bl	0x8bb70 <_ZN2cv3Mat10deallocateEv@plt>
   646d0: 2c 9d 00 94  	bl	0x8bb80 <_ZN2cv8fastFreeEPv@plt>
   646f8: 1e 9d 00 94  	bl	0x8bb70 <_ZN2cv3Mat10deallocateEv@plt>
   647f4: e3 9c 00 94  	bl	0x8bb80 <_ZN2cv8fastFreeEPv@plt>
   64814: 6f 9c 00 14  	b	0x8b9d0 <_ZNSt3__15mutexD1Ev@plt>
   64850: 58 9c 00 14  	b	0x8b9b0 <_ZdlPv@plt>
   64b64: 93 9b 00 94  	bl	0x8b9b0 <_ZdlPv@plt>
   64bd0: 24 9c 00 14  	b	0x8bc60 <_ZNSt3__119__shared_weak_countD2Ev@plt>
   64c00: 18 9c 00 94  	bl	0x8bc60 <_ZNSt3__119__shared_weak_countD2Ev@plt>
   64c10: 68 9b 00 14  	b	0x8b9b0 <_ZdlPv@plt>
   64c78: 4e 9b 00 14  	b	0x8b9b0 <_ZdlPv@plt>
   64cc4: ab 9b 00 94  	bl	0x8bb70 <_ZN2cv3Mat10deallocateEv@plt>
   64dc8: 6e 9b 00 94  	bl	0x8bb80 <_ZN2cv8fastFreeEPv@plt>
   64df0: 60 9b 00 94  	bl	0x8bb70 <_ZN2cv3Mat10deallocateEv@plt>
   64ef4: 23 9b 00 94  	bl	0x8bb80 <_ZN2cv8fastFreeEPv@plt>
   64f1c: 15 9b 00 94  	bl	0x8bb70 <_ZN2cv3Mat10deallocateEv@plt>
   65020: d8 9a 00 94  	bl	0x8bb80 <_ZN2cv8fastFreeEPv@plt>
   65044: 5b 9a 00 94  	bl	0x8b9b0 <_ZdlPv@plt>
   65068: 52 9a 00 94  	bl	0x8b9b0 <_ZdlPv@plt>
   65090: b8 9a 00 94  	bl	0x8bb70 <_ZN2cv3Mat10deallocateEv@plt>
   6518c: 7d 9a 00 94  	bl	0x8bb80 <_ZN2cv8fastFreeEPv@plt>
   651b4: 6f 9a 00 94  	bl	0x8bb70 <_ZN2cv3Mat10deallocateEv@plt>
   652b0: 34 9a 00 94  	bl	0x8bb80 <_ZN2cv8fastFreeEPv@plt>
   652d0: c0 99 00 14  	b	0x8b9d0 <_ZNSt3__15mutexD1Ev@plt>
   65310: a8 99 00 14  	b	0x8b9b0 <_ZdlPv@plt>
   65870: 50 98 00 94  	bl	0x8b9b0 <_ZdlPv@plt>
   65940: c8 98 00 14  	b	0x8bc60 <_ZNSt3__119__shared_weak_countD2Ev@plt>
   65970: bc 98 00 94  	bl	0x8bc60 <_ZNSt3__119__shared_weak_countD2Ev@plt>
   65980: 0c 98 00 14  	b	0x8b9b0 <_ZdlPv@plt>
   659e8: f2 97 00 14  	b	0x8b9b0 <_ZdlPv@plt>
   65bbc: 35 98 00 94  	bl	0x8bc90 <_ZN2cv12getTickCountEv@plt>
   65c50: c8 97 00 94  	bl	0x8bb70 <_ZN2cv3Mat10deallocateEv@plt>
   65d64: 87 97 00 94  	bl	0x8bb80 <_ZN2cv8fastFreeEPv@plt>
   65dc8: 6e 97 00 94  	bl	0x8bb80 <_ZN2cv8fastFreeEPv@plt>
   65e30: 50 97 00 94  	bl	0x8bb70 <_ZN2cv3Mat10deallocateEv@plt>
   65f28: 16 97 00 94  	bl	0x8bb80 <_ZN2cv8fastFreeEPv@plt>
   65f2c: 59 97 00 94  	bl	0x8bc90 <_ZN2cv12getTickCountEv@plt>
   65fa8: 3a 97 00 94  	bl	0x8bc90 <_ZN2cv12getTickCountEv@plt>
   66f2c: b5 92 00 94  	bl	0x8ba00 <_ZNSt3__15mutex4lockEv@plt>
   66f5c: 4d 93 00 94  	bl	0x8bc90 <_ZN2cv12getTickCountEv@plt>
   66fb8: 76 93 00 94  	bl	0x8bd90 <_ZN2cv20perspectiveTransformERKNS_11_InputArrayERKNS_12_OutputArrayES2_@plt>
   66fbc: 35 93 00 94  	bl	0x8bc90 <_ZN2cv12getTickCountEv@plt>
   67080: 04 93 00 94  	bl	0x8bc90 <_ZN2cv12getTickCountEv@plt>
   67150: fc 92 00 94  	bl	0x8bd40 <_ZN2cv3Mat3eyeEiii@plt>
   671b4: 6f 92 00 94  	bl	0x8bb70 <_ZN2cv3Mat10deallocateEv@plt>
   6726c: b1 91 00 94  	bl	0x8b930 <_Znwm@plt>
   67338: 1e 92 00 94  	bl	0x8bbb0 <_ZN2cv3Mat6createEiPKii@plt>
   67374: 6f 92 00 94  	bl	0x8bd30 <_ZNK2cv3Mat9convertToERKNS_12_OutputArrayEidd@plt>
   67378: 46 92 00 94  	bl	0x8bc90 <_ZN2cv12getTickCountEv@plt>
   6738c: 59 92 00 94  	bl	0x8bcf0 <_ZN2cv16getTickFrequencyEv@plt>
   673d8: 46 92 00 94  	bl	0x8bcf0 <_ZN2cv16getTickFrequencyEv@plt>
   67420: 34 92 00 94  	bl	0x8bcf0 <_ZN2cv16getTickFrequencyEv@plt>
   67464: 23 92 00 94  	bl	0x8bcf0 <_ZN2cv16getTickFrequencyEv@plt>
   674ac: 11 92 00 94  	bl	0x8bcf0 <_ZN2cv16getTickFrequencyEv@plt>
   6750c: 99 91 00 94  	bl	0x8bb70 <_ZN2cv3Mat10deallocateEv@plt>
   67608: 5e 91 00 94  	bl	0x8bb80 <_ZN2cv8fastFreeEPv@plt>
   67634: 4f 91 00 94  	bl	0x8bb70 <_ZN2cv3Mat10deallocateEv@plt>
   67738: 12 91 00 94  	bl	0x8bb80 <_ZN2cv8fastFreeEPv@plt>
   67760: 04 91 00 94  	bl	0x8bb70 <_ZN2cv3Mat10deallocateEv@plt>
   67864: c7 90 00 94  	bl	0x8bb80 <_ZN2cv8fastFreeEPv@plt>
   678fc: a1 90 00 94  	bl	0x8bb80 <_ZN2cv8fastFreeEPv@plt>
   67920: 24 90 00 94  	bl	0x8b9b0 <_ZdlPv@plt>
   67944: 1b 90 00 94  	bl	0x8b9b0 <_ZdlPv@plt>
   67968: 12 90 00 94  	bl	0x8b9b0 <_ZdlPv@plt>
   6798c: 09 90 00 94  	bl	0x8b9b0 <_ZdlPv@plt>
   679b4: ff 8f 00 94  	bl	0x8b9b0 <_ZdlPv@plt>
   67a04: ff 8f 00 94  	bl	0x8ba00 <_ZNSt3__15mutex4lockEv@plt>
   67a48: ee 8f 00 94  	bl	0x8ba00 <_ZNSt3__15mutex4lockEv@plt>
   67a74: ef 8f 00 94  	bl	0x8ba30 <_ZNSt3__15mutex6unlockEv@plt>
   67aa4: 7b 90 00 94  	bl	0x8bc90 <_ZN2cv12getTickCountEv@plt>
   67b1c: 5d 90 00 94  	bl	0x8bc90 <_ZN2cv12getTickCountEv@plt>
   67b84: 6b 90 00 94  	bl	0x8bd30 <_ZNK2cv3Mat9convertToERKNS_12_OutputArrayEidd@plt>
   67c90: d0 8f 00 94  	bl	0x8bbd0 <_ZNK2cv3Mat6copyToERKNS_12_OutputArrayE@plt>
   67ca8: ca 8f 00 94  	bl	0x8bbd0 <_ZNK2cv3Mat6copyToERKNS_12_OutputArrayE@plt>
   67cc4: f3 8f 00 94  	bl	0x8bc90 <_ZN2cv12getTickCountEv@plt>
   67cd8: 06 90 00 94  	bl	0x8bcf0 <_ZN2cv16getTickFrequencyEv@plt>
   67d1c: f5 8f 00 94  	bl	0x8bcf0 <_ZN2cv16getTickFrequencyEv@plt>
   67d60: e4 8f 00 94  	bl	0x8bcf0 <_ZN2cv16getTickFrequencyEv@plt>
   67da8: d2 8f 00 94  	bl	0x8bcf0 <_ZN2cv16getTickFrequencyEv@plt>
   67e08: 5a 8f 00 94  	bl	0x8bb70 <_ZN2cv3Mat10deallocateEv@plt>
   67f08: 1e 8f 00 94  	bl	0x8bb80 <_ZN2cv8fastFreeEPv@plt>
   67f30: 10 8f 00 94  	bl	0x8bb70 <_ZN2cv3Mat10deallocateEv@plt>
   68030: d4 8e 00 94  	bl	0x8bb80 <_ZN2cv8fastFreeEPv@plt>
   68058: c6 8e 00 94  	bl	0x8bb70 <_ZN2cv3Mat10deallocateEv@plt>
   68158: 8a 8e 00 94  	bl	0x8bb80 <_ZN2cv8fastFreeEPv@plt>
   6817c: 0d 8e 00 94  	bl	0x8b9b0 <_ZdlPv@plt>
   681e4: f3 8d 00 94  	bl	0x8b9b0 <_ZdlPv@plt>
   6824c: d9 8d 00 94  	bl	0x8b9b0 <_ZdlPv@plt>
   682c8: 72 8e 00 94  	bl	0x8bc90 <_ZN2cv12getTickCountEv@plt>
   682dc: 25 8f 00 94  	bl	0x8bf70 <_ZNK2cv11_InputArray4sizeEi@plt>
   68300: fc 8e 00 94  	bl	0x8bef0 <_ZNK2cv11_InputArray4kindEv@plt>
   683a0: d8 8e 00 94  	bl	0x8bf00 <_ZNK2cv11_InputArray7getMat_Ei@plt>
   683b0: 34 8e 00 94  	bl	0x8bc80 <_ZN2cv3Mat8copySizeERKS0_@plt>
   683cc: c9 8e 00 94  	bl	0x8bef0 <_ZNK2cv11_InputArray4kindEv@plt>
   6846c: a5 8e 00 94  	bl	0x8bf00 <_ZNK2cv11_InputArray7getMat_Ei@plt>
   6847c: 01 8e 00 94  	bl	0x8bc80 <_ZN2cv3Mat8copySizeERKS0_@plt>
   684a4: 9b 8e 00 94  	bl	0x8bf10 <_ZNK2cv12_OutputArray6createENS_5Size_IiEEiibNS0_9DepthMaskE@plt>
   684c0: 8c 8e 00 94  	bl	0x8bef0 <_ZNK2cv11_InputArray4kindEv@plt>
   68560: 68 8e 00 94  	bl	0x8bf00 <_ZNK2cv11_InputArray7getMat_Ei@plt>
   68570: c4 8d 00 94  	bl	0x8bc80 <_ZN2cv3Mat8copySizeERKS0_@plt>
   68658: 2e 8e 00 94  	bl	0x8bf10 <_ZNK2cv12_OutputArray6createENS_5Size_IiEEiibNS0_9DepthMaskE@plt>
   68660: 24 8e 00 94  	bl	0x8bef0 <_ZNK2cv11_InputArray4kindEv@plt>
   68708: fe 8d 00 94  	bl	0x8bf00 <_ZNK2cv11_InputArray7getMat_Ei@plt>
   68718: 5a 8d 00 94  	bl	0x8bc80 <_ZN2cv3Mat8copySizeERKS0_@plt>
   68744: 0b 8d 00 94  	bl	0x8bb70 <_ZN2cv3Mat10deallocateEv@plt>
   68858: ca 8c 00 94  	bl	0x8bb80 <_ZN2cv8fastFreeEPv@plt>
   688bc: b1 8c 00 94  	bl	0x8bb80 <_ZN2cv8fastFreeEPv@plt>
   689ec: a5 8c 00 94  	bl	0x8bc80 <_ZN2cv3Mat8copySizeERKS0_@plt>
   68aa8: 76 8c 00 94  	bl	0x8bc80 <_ZN2cv3Mat8copySizeERKS0_@plt>
   68b50: 4c 8c 00 94  	bl	0x8bc80 <_ZN2cv3Mat8copySizeERKS0_@plt>
   68c5c: 09 8c 00 94  	bl	0x8bc80 <_ZN2cv3Mat8copySizeERKS0_@plt>
   68d0c: dd 8b 00 94  	bl	0x8bc80 <_ZN2cv3Mat8copySizeERKS0_@plt>
   68ddc: 7d 8b 00 94  	bl	0x8bbd0 <_ZNK2cv3Mat6copyToERKNS_12_OutputArrayE@plt>
   68e04: 5b 8b 00 94  	bl	0x8bb70 <_ZN2cv3Mat10deallocateEv@plt>
   68f18: 1a 8b 00 94  	bl	0x8bb80 <_ZN2cv8fastFreeEPv@plt>
   68f74: 03 8b 00 94  	bl	0x8bb80 <_ZN2cv8fastFreeEPv@plt>
   69050: 10 8b 00 94  	bl	0x8bc90 <_ZN2cv12getTickCountEv@plt>
   69060: 0c 8b 00 94  	bl	0x8bc90 <_ZN2cv12getTickCountEv@plt>
   69074: 1f 8b 00 94  	bl	0x8bcf0 <_ZN2cv16getTickFrequencyEv@plt>
   690b0: 10 8b 00 94  	bl	0x8bcf0 <_ZN2cv16getTickFrequencyEv@plt>
   690f0: 00 8b 00 94  	bl	0x8bcf0 <_ZN2cv16getTickFrequencyEv@plt>
   69128: 26 8a 00 94  	bl	0x8b9c0 <_ZNSt3__118condition_variableD1Ev@plt>
   69130: 28 8a 00 94  	bl	0x8b9d0 <_ZNSt3__15mutexD1Ev@plt>
   69190: 64 8a 00 94  	bl	0x8bb20 <_ZNSt3__119__shared_weak_count14__release_weakEv@plt>
   691b4: ff 89 00 94  	bl	0x8b9b0 <_ZdlPv@plt>
   691e4: 63 8a 00 94  	bl	0x8bb70 <_ZN2cv3Mat10deallocateEv@plt>
   692e4: 27 8a 00 94  	bl	0x8bb80 <_ZN2cv8fastFreeEPv@plt>
   6930c: 19 8a 00 94  	bl	0x8bb70 <_ZN2cv3Mat10deallocateEv@plt>
   69414: db 89 00 94  	bl	0x8bb80 <_ZN2cv8fastFreeEPv@plt>
   6943c: cd 89 00 94  	bl	0x8bb70 <_ZN2cv3Mat10deallocateEv@plt>
   69548: 8e 89 00 94  	bl	0x8bb80 <_ZN2cv8fastFreeEPv@plt>
   69570: 80 89 00 94  	bl	0x8bb70 <_ZN2cv3Mat10deallocateEv@plt>
   69680: 40 89 00 94  	bl	0x8bb80 <_ZN2cv8fastFreeEPv@plt>
   696d8: 26 89 00 94  	bl	0x8bb70 <_ZN2cv3Mat10deallocateEv@plt>
   6980c: dd 88 00 94  	bl	0x8bb80 <_ZN2cv8fastFreeEPv@plt>
   698b8: c6 88 00 94  	bl	0x8bbd0 <_ZNK2cv3Mat6copyToERKNS_12_OutputArrayE@plt>
   698e4: a7 89 00 94  	bl	0x8bf80 <_ZN2cv6invertERKNS_11_InputArrayERKNS_12_OutputArrayEi@plt>
   699c8: f2 88 00 94  	bl	0x8bd90 <_ZN2cv20perspectiveTransformERKNS_11_InputArrayERKNS_12_OutputArrayES2_@plt>
   69a5c: d5 87 00 94  	bl	0x8b9b0 <_ZdlPv@plt>
   69a80: cc 87 00 94  	bl	0x8b9b0 <_ZdlPv@plt>
   69aa8: 32 88 00 94  	bl	0x8bb70 <_ZN2cv3Mat10deallocateEv@plt>
   69ba4: f7 87 00 94  	bl	0x8bb80 <_ZN2cv8fastFreeEPv@plt>
   69c38: ce 87 00 94  	bl	0x8bb70 <_ZN2cv3Mat10deallocateEv@plt>
   69d3c: 91 87 00 94  	bl	0x8bb80 <_ZN2cv8fastFreeEPv@plt>
   69d58: 52 87 00 94  	bl	0x8baa0 <_ZNKSt3__120__vector_base_commonILb1EE20__throw_length_errorEv@plt>
   69d84: 0b 87 00 94  	bl	0x8b9b0 <_ZdlPv@plt>
   69da8: 02 87 00 94  	bl	0x8b9b0 <_ZdlPv@plt>
   69de8: 62 87 00 94  	bl	0x8bb70 <_ZN2cv3Mat10deallocateEv@plt>
   69ee0: 28 87 00 94  	bl	0x8bb80 <_ZN2cv8fastFreeEPv@plt>
   69f14: 17 87 00 94  	bl	0x8bb70 <_ZN2cv3Mat10deallocateEv@plt>
   6a00c: dd 86 00 94  	bl	0x8bb80 <_ZN2cv8fastFreeEPv@plt>
   6a040: cc 86 00 94  	bl	0x8bb70 <_ZN2cv3Mat10deallocateEv@plt>
   6a140: 90 86 00 94  	bl	0x8bb80 <_ZN2cv8fastFreeEPv@plt>
   6a174: 7f 86 00 94  	bl	0x8bb70 <_ZN2cv3Mat10deallocateEv@plt>
   6a278: 42 86 00 94  	bl	0x8bb80 <_ZN2cv8fastFreeEPv@plt>
   6a2ac: 31 86 00 94  	bl	0x8bb70 <_ZN2cv3Mat10deallocateEv@plt>
   6a3ac: f5 85 00 94  	bl	0x8bb80 <_ZN2cv8fastFreeEPv@plt>
   6a3d4: e7 85 00 94  	bl	0x8bb70 <_ZN2cv3Mat10deallocateEv@plt>
   6a4d4: ab 85 00 94  	bl	0x8bb80 <_ZN2cv8fastFreeEPv@plt>
   6a51c: 95 85 00 94  	bl	0x8bb70 <_ZN2cv3Mat10deallocateEv@plt>
   6a618: 5a 85 00 94  	bl	0x8bb80 <_ZN2cv8fastFreeEPv@plt>
   6a650: 48 85 00 94  	bl	0x8bb70 <_ZN2cv3Mat10deallocateEv@plt>
   6a750: 0c 85 00 94  	bl	0x8bb80 <_ZN2cv8fastFreeEPv@plt>
   6a778: fe 84 00 94  	bl	0x8bb70 <_ZN2cv3Mat10deallocateEv@plt>
   6a87c: c1 84 00 94  	bl	0x8bb80 <_ZN2cv8fastFreeEPv@plt>
   6a8b4: af 84 00 94  	bl	0x8bb70 <_ZN2cv3Mat10deallocateEv@plt>
   6a9bc: 71 84 00 94  	bl	0x8bb80 <_ZN2cv8fastFreeEPv@plt>
   6a9f0: 60 84 00 94  	bl	0x8bb70 <_ZN2cv3Mat10deallocateEv@plt>
   6aaf8: 22 84 00 94  	bl	0x8bb80 <_ZN2cv8fastFreeEPv@plt>
   6ab20: ac 83 00 94  	bl	0x8b9d0 <_ZNSt3__15mutexD1Ev@plt>
   6ab88: 8a 83 00 94  	bl	0x8b9b0 <_ZdlPv@plt>
   6abe0: e4 83 00 94  	bl	0x8bb70 <_ZN2cv3Mat10deallocateEv@plt>
   6ace4: a7 83 00 94  	bl	0x8bb80 <_ZN2cv8fastFreeEPv@plt>
   6ad10: 98 83 00 94  	bl	0x8bb70 <_ZN2cv3Mat10deallocateEv@plt>
   6ae14: 5b 83 00 94  	bl	0x8bb80 <_ZN2cv8fastFreeEPv@plt>
   6ae3c: 4d 83 00 94  	bl	0x8bb70 <_ZN2cv3Mat10deallocateEv@plt>
   6af40: 10 83 00 94  	bl	0x8bb80 <_ZN2cv8fastFreeEPv@plt>
   6af80: 90 82 00 94  	bl	0x8b9c0 <_ZNSt3__118condition_variableD1Ev@plt>
   6af88: 92 82 00 94  	bl	0x8b9d0 <_ZNSt3__15mutexD1Ev@plt>
   6afdc: d1 82 00 94  	bl	0x8bb20 <_ZNSt3__119__shared_weak_count14__release_weakEv@plt>
   6b004: 6b 82 00 94  	bl	0x8b9b0 <_ZdlPv@plt>
   6b034: cf 82 00 94  	bl	0x8bb70 <_ZN2cv3Mat10deallocateEv@plt>
   6b134: 93 82 00 94  	bl	0x8bb80 <_ZN2cv8fastFreeEPv@plt>
   6b15c: 85 82 00 94  	bl	0x8bb70 <_ZN2cv3Mat10deallocateEv@plt>
   6b260: 48 82 00 94  	bl	0x8bb80 <_ZN2cv8fastFreeEPv@plt>
   6b288: 3a 82 00 94  	bl	0x8bb70 <_ZN2cv3Mat10deallocateEv@plt>
   6b38c: fd 81 00 94  	bl	0x8bb80 <_ZN2cv8fastFreeEPv@plt>
   6b3b4: ef 81 00 94  	bl	0x8bb70 <_ZN2cv3Mat10deallocateEv@plt>
   6b4b8: b2 81 00 94  	bl	0x8bb80 <_ZN2cv8fastFreeEPv@plt>
   6b4fc: 9d 81 00 94  	bl	0x8bb70 <_ZN2cv3Mat10deallocateEv@plt>
   6b5fc: 61 81 00 94  	bl	0x8bb80 <_ZN2cv8fastFreeEPv@plt>
   6b63c: 4d 81 00 94  	bl	0x8bb70 <_ZN2cv3Mat10deallocateEv@plt>
   6b734: 13 81 00 94  	bl	0x8bb80 <_ZN2cv8fastFreeEPv@plt>
   6b758: 96 80 00 94  	bl	0x8b9b0 <_ZdlPv@plt>
   6b790: f8 80 00 94  	bl	0x8bb70 <_ZN2cv3Mat10deallocateEv@plt>
   6b894: bb 80 00 94  	bl	0x8bb80 <_ZN2cv8fastFreeEPv@plt>
   6b8c8: aa 80 00 94  	bl	0x8bb70 <_ZN2cv3Mat10deallocateEv@plt>
   6b9c0: 70 80 00 94  	bl	0x8bb80 <_ZN2cv8fastFreeEPv@plt>
   6ba00: ec 7f 00 94  	bl	0x8b9b0 <_ZdlPv@plt>
   6ba24: e3 7f 00 94  	bl	0x8b9b0 <_ZdlPv@plt>
   6ba48: da 7f 00 94  	bl	0x8b9b0 <_ZdlPv@plt>
   6ba6c: d1 7f 00 94  	bl	0x8b9b0 <_ZdlPv@plt>
   6ba9c: 35 80 00 94  	bl	0x8bb70 <_ZN2cv3Mat10deallocateEv@plt>
   6bb9c: f9 7f 00 94  	bl	0x8bb80 <_ZN2cv8fastFreeEPv@plt>
   6bbc4: eb 7f 00 94  	bl	0x8bb70 <_ZN2cv3Mat10deallocateEv@plt>
   6bcc4: af 7f 00 94  	bl	0x8bb80 <_ZN2cv8fastFreeEPv@plt>
   6bcec: a1 7f 00 94  	bl	0x8bb70 <_ZN2cv3Mat10deallocateEv@plt>
   6bdec: 65 7f 00 94  	bl	0x8bb80 <_ZN2cv8fastFreeEPv@plt>
   6be10: e8 7e 00 94  	bl	0x8b9b0 <_ZdlPv@plt>
   6be74: cf 7e 00 94  	bl	0x8b9b0 <_ZdlPv@plt>
   6bedc: b5 7e 00 94  	bl	0x8b9b0 <_ZdlPv@plt>
   6bf34: 0f 7f 00 94  	bl	0x8bb70 <_ZN2cv3Mat10deallocateEv@plt>
   6c030: d4 7e 00 94  	bl	0x8bb80 <_ZN2cv8fastFreeEPv@plt>
   6c06c: 51 7e 00 94  	bl	0x8b9b0 <_ZdlPv@plt>
   6c094: b7 7e 00 94  	bl	0x8bb70 <_ZN2cv3Mat10deallocateEv@plt>
   6c190: 7c 7e 00 94  	bl	0x8bb80 <_ZN2cv8fastFreeEPv@plt>
   6c238: 96 7e 00 94  	bl	0x8bc90 <_ZN2cv12getTickCountEv@plt>
   6c834: 4b 7c 00 94  	bl	0x8b960 <_ZNSt3__16threadD1Ev@plt>
   6c85c: c5 7c 00 94  	bl	0x8bb70 <_ZN2cv3Mat10deallocateEv@plt>
   6c950: 9c 7c 00 94  	bl	0x8bbc0 <_ZN2cv3MatC1ERKS0_RKNS_5Rect_IiEE@plt>
   6c990: 78 7c 00 94  	bl	0x8bb70 <_ZN2cv3Mat10deallocateEv@plt>
   6ca54: 4b 7c 00 94  	bl	0x8bb80 <_ZN2cv8fastFreeEPv@plt>
   6cab8: 2e 7c 00 94  	bl	0x8bb70 <_ZN2cv3Mat10deallocateEv@plt>
   6cbe4: e7 7b 00 94  	bl	0x8bb80 <_ZN2cv8fastFreeEPv@plt>
   6cc00: f0 7b 00 94  	bl	0x8bbc0 <_ZN2cv3MatC1ERKS0_RKNS_5Rect_IiEE@plt>
   6cc40: cc 7b 00 94  	bl	0x8bb70 <_ZN2cv3Mat10deallocateEv@plt>
   6cd04: 9f 7b 00 94  	bl	0x8bb80 <_ZN2cv8fastFreeEPv@plt>
   6cd68: 82 7b 00 94  	bl	0x8bb70 <_ZN2cv3Mat10deallocateEv@plt>
   6ce94: 3b 7b 00 94  	bl	0x8bb80 <_ZN2cv8fastFreeEPv@plt>
   6cea8: 46 7b 00 94  	bl	0x8bbc0 <_ZN2cv3MatC1ERKS0_RKNS_5Rect_IiEE@plt>
   6cedc: 25 7b 00 94  	bl	0x8bb70 <_ZN2cv3Mat10deallocateEv@plt>
   6cfe0: e8 7a 00 94  	bl	0x8bb80 <_ZN2cv8fastFreeEPv@plt>
   6d008: da 7a 00 94  	bl	0x8bb70 <_ZN2cv3Mat10deallocateEv@plt>
   6d108: 9e 7a 00 94  	bl	0x8bb80 <_ZN2cv8fastFreeEPv@plt>
   6d130: 90 7a 00 94  	bl	0x8bb70 <_ZN2cv3Mat10deallocateEv@plt>
   6d230: 54 7a 00 94  	bl	0x8bb80 <_ZN2cv8fastFreeEPv@plt>
   6d298: c6 79 00 94  	bl	0x8b9b0 <_ZdlPv@plt>
   6d2c0: 2c 7a 00 94  	bl	0x8bb70 <_ZN2cv3Mat10deallocateEv@plt>
   6d3c0: f0 79 00 94  	bl	0x8bb80 <_ZN2cv8fastFreeEPv@plt>
   6d3e8: e2 79 00 94  	bl	0x8bb70 <_ZN2cv3Mat10deallocateEv@plt>
   6d4e8: a6 79 00 94  	bl	0x8bb80 <_ZN2cv8fastFreeEPv@plt>
   6d510: 98 79 00 94  	bl	0x8bb70 <_ZN2cv3Mat10deallocateEv@plt>
   6d610: 5c 79 00 94  	bl	0x8bb80 <_ZN2cv8fastFreeEPv@plt>
   6d638: 4e 79 00 94  	bl	0x8bb70 <_ZN2cv3Mat10deallocateEv@plt>
   6d738: 12 79 00 94  	bl	0x8bb80 <_ZN2cv8fastFreeEPv@plt>
   6d760: 04 79 00 94  	bl	0x8bb70 <_ZN2cv3Mat10deallocateEv@plt>
   6d860: c8 78 00 94  	bl	0x8bb80 <_ZN2cv8fastFreeEPv@plt>
   6d888: ba 78 00 94  	bl	0x8bb70 <_ZN2cv3Mat10deallocateEv@plt>
   6d988: 7e 78 00 94  	bl	0x8bb80 <_ZN2cv8fastFreeEPv@plt>
   6d9b0: 70 78 00 94  	bl	0x8bb70 <_ZN2cv3Mat10deallocateEv@plt>
   6dab0: 34 78 00 94  	bl	0x8bb80 <_ZN2cv8fastFreeEPv@plt>
   6dad8: 26 78 00 94  	bl	0x8bb70 <_ZN2cv3Mat10deallocateEv@plt>
   6dbd8: ea 77 00 94  	bl	0x8bb80 <_ZN2cv8fastFreeEPv@plt>
   6dc00: dc 77 00 94  	bl	0x8bb70 <_ZN2cv3Mat10deallocateEv@plt>
   6dd00: a0 77 00 94  	bl	0x8bb80 <_ZN2cv8fastFreeEPv@plt>
   6dd28: 92 77 00 94  	bl	0x8bb70 <_ZN2cv3Mat10deallocateEv@plt>
   6de28: 56 77 00 94  	bl	0x8bb80 <_ZN2cv8fastFreeEPv@plt>
   6de50: 48 77 00 94  	bl	0x8bb70 <_ZN2cv3Mat10deallocateEv@plt>
   6df50: 0c 77 00 94  	bl	0x8bb80 <_ZN2cv8fastFreeEPv@plt>
   6dfb8: 7e 76 00 94  	bl	0x8b9b0 <_ZdlPv@plt>
   6e020: 64 76 00 94  	bl	0x8b9b0 <_ZdlPv@plt>
   6e118: 9a 76 00 94  	bl	0x8bb80 <_ZN2cv8fastFreeEPv@plt>
   6e180: 80 76 00 94  	bl	0x8bb80 <_ZN2cv8fastFreeEPv@plt>
   6e1cc: 7d 76 00 94  	bl	0x8bbc0 <_ZN2cv3MatC1ERKS0_RKNS_5Rect_IiEE@plt>
   6e1f4: 5f 76 00 94  	bl	0x8bb70 <_ZN2cv3Mat10deallocateEv@plt>
   6e308: 1e 76 00 94  	bl	0x8bb80 <_ZN2cv8fastFreeEPv@plt>
   6e37c: 01 76 00 94  	bl	0x8bb80 <_ZN2cv8fastFreeEPv@plt>
   6e3bc: 35 76 00 94  	bl	0x8bc90 <_ZN2cv12getTickCountEv@plt>
   6e3f0: 28 76 00 94  	bl	0x8bc90 <_ZN2cv12getTickCountEv@plt>
   6e43c: e5 75 00 94  	bl	0x8bbd0 <_ZNK2cv3Mat6copyToERKNS_12_OutputArrayE@plt>
   6e458: de 75 00 94  	bl	0x8bbd0 <_ZNK2cv3Mat6copyToERKNS_12_OutputArrayE@plt>
   6e46c: 09 76 00 94  	bl	0x8bc90 <_ZN2cv12getTickCountEv@plt>
   6e480: d0 75 00 94  	bl	0x8bbc0 <_ZN2cv3MatC1ERKS0_RKNS_5Rect_IiEE@plt>
   6e4ac: b1 75 00 94  	bl	0x8bb70 <_ZN2cv3Mat10deallocateEv@plt>
   6e524: 03 75 00 94  	bl	0x8b930 <_Znwm@plt>
   6e52c: 05 75 00 94  	bl	0x8b940 <_ZNSt3__115__thread_structC1Ev@plt>
   6e538: fe 74 00 94  	bl	0x8b930 <_Znwm@plt>
   6e5cc: ad 75 00 94  	bl	0x8bc80 <_ZN2cv3Mat8copySizeERKS0_@plt>
   6e694: 3b 75 00 94  	bl	0x8bb80 <_ZN2cv8fastFreeEPv@plt>
   6e6d8: a2 74 00 94  	bl	0x8b960 <_ZNSt3__16threadD1Ev@plt>
   6e700: 64 75 00 94  	bl	0x8bc90 <_ZN2cv12getTickCountEv@plt>
   6e728: 1a 76 00 94  	bl	0x8bf90 <_ZN2cv3Mat5zerosENS_5Size_IiEEi@plt>
   6e790: f8 74 00 94  	bl	0x8bb70 <_ZN2cv3Mat10deallocateEv@plt>
   6e8a8: b6 74 00 94  	bl	0x8bb80 <_ZN2cv8fastFreeEPv@plt>
   6e910: 9c 74 00 94  	bl	0x8bb80 <_ZN2cv8fastFreeEPv@plt>
   6e95c: 99 74 00 94  	bl	0x8bbc0 <_ZN2cv3MatC1ERKS0_RKNS_5Rect_IiEE@plt>
   6e984: 7b 74 00 94  	bl	0x8bb70 <_ZN2cv3Mat10deallocateEv@plt>
   6ea9c: 39 74 00 94  	bl	0x8bb80 <_ZN2cv8fastFreeEPv@plt>
   6eb0c: 1d 74 00 94  	bl	0x8bb80 <_ZN2cv8fastFreeEPv@plt>
   6ebe0: f8 73 00 94  	bl	0x8bbc0 <_ZN2cv3MatC1ERKS0_RKNS_5Rect_IiEE@plt>
   6f2cc: b9 71 00 94  	bl	0x8b9b0 <_ZdlPv@plt>
   6f4c4: bb 71 00 94  	bl	0x8bbb0 <_ZN2cv3Mat6createEiPKii@plt>
   6f4ec: 25 72 00 94  	bl	0x8bd80 <_ZN2cv3MataSERKNS_7Scalar_IdEE@plt>
   6f678: 42 71 00 94  	bl	0x8bb80 <_ZN2cv8fastFreeEPv@plt>
   6f6a4: 33 71 00 94  	bl	0x8bb70 <_ZN2cv3Mat10deallocateEv@plt>
   6f7a4: f7 70 00 94  	bl	0x8bb80 <_ZN2cv8fastFreeEPv@plt>
   6f7cc: e9 70 00 94  	bl	0x8bb70 <_ZN2cv3Mat10deallocateEv@plt>
   6f8cc: ad 70 00 94  	bl	0x8bb80 <_ZN2cv8fastFreeEPv@plt>
   6f990: d4 70 00 94  	bl	0x8bce0 <_ZN2cv12countNonZeroERKNS_11_InputArrayE@plt>
   6f9f0: 80 70 00 94  	bl	0x8bbf0 <_ZN2cv7noArrayEv@plt>
   6fa04: 6b 71 00 94  	bl	0x8bfb0 <_ZN2cv10bitwise_orERKNS_11_InputArrayES2_RKNS_12_OutputArrayES2_@plt>
   6fa98: 4a 71 00 94  	bl	0x8bfc0 <_ZN2cv7inRangeERKNS_11_InputArrayES2_S2_RKNS_12_OutputArrayE@plt>
   6fc68: aa 70 00 94  	bl	0x8bf10 <_ZNK2cv12_OutputArray6createENS_5Size_IiEEiibNS0_9DepthMaskE@plt>
   6fc70: a0 70 00 94  	bl	0x8bef0 <_ZNK2cv11_InputArray4kindEv@plt>
   6fd10: 7c 70 00 94  	bl	0x8bf00 <_ZNK2cv11_InputArray7getMat_Ei@plt>
   6ff94: 0f 70 00 94  	bl	0x8bfd0 <_ZN2cvplERKNS_3MatERKNS_7Scalar_IdEE@plt>
   6fffc: dd 6e 00 94  	bl	0x8bb70 <_ZN2cv3Mat10deallocateEv@plt>
   70070: 04 6f 00 94  	bl	0x8bc80 <_ZN2cv3Mat8copySizeERKS0_@plt>
   70098: b6 6e 00 94  	bl	0x8bb70 <_ZN2cv3Mat10deallocateEv@plt>
   7014c: cd 6e 00 94  	bl	0x8bc80 <_ZN2cv3Mat8copySizeERKS0_@plt>
   701fc: a1 6e 00 94  	bl	0x8bc80 <_ZN2cv3Mat8copySizeERKS0_@plt>
   70284: 57 6f 00 94  	bl	0x8bfe0 <_ZN2cv12findContoursERKNS_11_InputArrayERKNS_12_OutputArrayES5_iiNS_6Point_IiEE@plt>
   702c8: 9a 6d 00 94  	bl	0x8b930 <_Znwm@plt>
   7062c: 71 6e 00 94  	bl	0x8bff0 <_ZN2cv12approxPolyDPERKNS_11_InputArrayERKNS_12_OutputArrayEdb@plt>
   70654: 47 6d 00 94  	bl	0x8bb70 <_ZN2cv3Mat10deallocateEv@plt>
   70748: 0e 6d 00 94  	bl	0x8bb80 <_ZN2cv8fastFreeEPv@plt>
   707e0: 08 6e 00 94  	bl	0x8c000 <_ZN2cv12boundingRectERKNS_11_InputArrayE@plt>
   70830: d0 6c 00 94  	bl	0x8bb70 <_ZN2cv3Mat10deallocateEv@plt>
   70924: 97 6c 00 94  	bl	0x8bb80 <_ZN2cv8fastFreeEPv@plt>
   70d44: 9f 6b 00 94  	bl	0x8bbc0 <_ZN2cv3MatC1ERKS0_RKNS_5Rect_IiEE@plt>
   70d6c: 95 6b 00 94  	bl	0x8bbc0 <_ZN2cv3MatC1ERKS0_RKNS_5Rect_IiEE@plt>
   70d90: 8c 6b 00 94  	bl	0x8bbc0 <_ZN2cv3MatC1ERKS0_RKNS_5Rect_IiEE@plt>
   70db4: 83 6b 00 94  	bl	0x8bbc0 <_ZN2cv3MatC1ERKS0_RKNS_5Rect_IiEE@plt>
   70df8: 6e 6b 00 94  	bl	0x8bbb0 <_ZN2cv3Mat6createEiPKii@plt>
   70ec4: 43 6c 00 94  	bl	0x8bfd0 <_ZN2cvplERKNS_3MatERKNS_7Scalar_IdEE@plt>
   70f24: 13 6b 00 94  	bl	0x8bb70 <_ZN2cv3Mat10deallocateEv@plt>
   710cc: ad 6a 00 94  	bl	0x8bb80 <_ZN2cv8fastFreeEPv@plt>
   710f4: 9f 6a 00 94  	bl	0x8bb70 <_ZN2cv3Mat10deallocateEv@plt>
   711f0: 64 6a 00 94  	bl	0x8bb80 <_ZN2cv8fastFreeEPv@plt>
   71218: 56 6a 00 94  	bl	0x8bb70 <_ZN2cv3Mat10deallocateEv@plt>
   71314: 1b 6a 00 94  	bl	0x8bb80 <_ZN2cv8fastFreeEPv@plt>
   713d0: e8 69 00 94  	bl	0x8bb70 <_ZN2cv3Mat10deallocateEv@plt>
   714c4: af 69 00 94  	bl	0x8bb80 <_ZN2cv8fastFreeEPv@plt>
   714ec: a1 69 00 94  	bl	0x8bb70 <_ZN2cv3Mat10deallocateEv@plt>
   715e8: 66 69 00 94  	bl	0x8bb80 <_ZN2cv8fastFreeEPv@plt>
   71610: 58 69 00 94  	bl	0x8bb70 <_ZN2cv3Mat10deallocateEv@plt>
   71710: 1c 69 00 94  	bl	0x8bb80 <_ZN2cv8fastFreeEPv@plt>
   71738: 0e 69 00 94  	bl	0x8bb70 <_ZN2cv3Mat10deallocateEv@plt>
   71834: d3 68 00 94  	bl	0x8bb80 <_ZN2cv8fastFreeEPv@plt>
   7185c: c5 68 00 94  	bl	0x8bb70 <_ZN2cv3Mat10deallocateEv@plt>
   7195c: 89 68 00 94  	bl	0x8bb80 <_ZN2cv8fastFreeEPv@plt>
   719b8: 7e 68 00 94  	bl	0x8bbb0 <_ZN2cv3Mat6createEiPKii@plt>
   71a94: 4f 69 00 94  	bl	0x8bfd0 <_ZN2cvplERKNS_3MatERKNS_7Scalar_IdEE@plt>
   71af8: 1e 68 00 94  	bl	0x8bb70 <_ZN2cv3Mat10deallocateEv@plt>
   71c0c: dd 67 00 94  	bl	0x8bb80 <_ZN2cv8fastFreeEPv@plt>
   71c80: c0 67 00 94  	bl	0x8bb80 <_ZN2cv8fastFreeEPv@plt>
   71d4c: 71 68 00 94  	bl	0x8bf10 <_ZNK2cv12_OutputArray6createENS_5Size_IiEEiibNS0_9DepthMaskE@plt>
   71d54: 67 68 00 94  	bl	0x8bef0 <_ZNK2cv11_InputArray4kindEv@plt>
   71e00: 40 68 00 94  	bl	0x8bf00 <_ZNK2cv11_InputArray7getMat_Ei@plt>
   71e10: 9c 67 00 94  	bl	0x8bc80 <_ZN2cv3Mat8copySizeERKS0_@plt>
   71e3c: 4d 67 00 94  	bl	0x8bb70 <_ZN2cv3Mat10deallocateEv@plt>
   71f50: 0c 67 00 94  	bl	0x8bb80 <_ZN2cv8fastFreeEPv@plt>
   71fb8: f2 66 00 94  	bl	0x8bb80 <_ZN2cv8fastFreeEPv@plt>
   72018: 46 66 00 94  	bl	0x8b930 <_Znwm@plt>
   72178: c2 66 00 94  	bl	0x8bc80 <_ZN2cv3Mat8copySizeERKS0_@plt>
   72224: 97 66 00 94  	bl	0x8bc80 <_ZN2cv3Mat8copySizeERKS0_@plt>
   72328: 22 66 00 94  	bl	0x8bbb0 <_ZN2cv3Mat6createEiPKii@plt>
   723c4: fb 65 00 94  	bl	0x8bbb0 <_ZN2cv3Mat6createEiPKii@plt>
   723f8: de 65 00 94  	bl	0x8bb70 <_ZN2cv3Mat10deallocateEv@plt>
   724e4: a7 65 00 94  	bl	0x8bb80 <_ZN2cv8fastFreeEPv@plt>
   72568: 92 65 00 94  	bl	0x8bbb0 <_ZN2cv3Mat6createEiPKii@plt>
   725cc: 79 65 00 94  	bl	0x8bbb0 <_ZN2cv3Mat6createEiPKii@plt>
   7262c: c1 64 00 94  	bl	0x8b930 <_Znwm@plt>
   72684: cb 64 00 94  	bl	0x8b9b0 <_ZdlPv@plt>
   72978: 6a 64 00 94  	bl	0x8bb20 <_ZNSt3__119__shared_weak_count14__release_weakEv@plt>
   729a4: 5f 64 00 94  	bl	0x8bb20 <_ZNSt3__119__shared_weak_count14__release_weakEv@plt>
   729dc: 65 64 00 94  	bl	0x8bb70 <_ZN2cv3Mat10deallocateEv@plt>
   72ae0: 28 64 00 94  	bl	0x8bb80 <_ZN2cv8fastFreeEPv@plt>
   72b0c: 19 64 00 94  	bl	0x8bb70 <_ZN2cv3Mat10deallocateEv@plt>
   72c0c: dd 63 00 94  	bl	0x8bb80 <_ZN2cv8fastFreeEPv@plt>
   72c74: 4f 63 00 94  	bl	0x8b9b0 <_ZdlPv@plt>
   72ce0: 34 63 00 94  	bl	0x8b9b0 <_ZdlPv@plt>
   72d48: 1a 63 00 94  	bl	0x8b9b0 <_ZdlPv@plt>
   72d4c: d1 63 00 94  	bl	0x8bc90 <_ZN2cv12getTickCountEv@plt>
   72d60: 38 63 00 94  	bl	0x8ba40 <_ZNSt3__16thread4joinEv@plt>
   72da0: 9c 64 00 94  	bl	0x8c010 <_ZN2cvmiERKNS_3MatES2_@plt>
   72dac: 9d 64 00 94  	bl	0x8c020 <_ZN2cv3absERKNS_7MatExprE@plt>
   72e68: 72 64 00 94  	bl	0x8c030 <_ZN2cvgeERKNS_3MatEd@plt>
   72ecc: 29 63 00 94  	bl	0x8bb70 <_ZN2cv3Mat10deallocateEv@plt>
   730ac: b5 62 00 94  	bl	0x8bb80 <_ZN2cv8fastFreeEPv@plt>
   730dc: a5 62 00 94  	bl	0x8bb70 <_ZN2cv3Mat10deallocateEv@plt>
   731e0: 68 62 00 94  	bl	0x8bb80 <_ZN2cv8fastFreeEPv@plt>
   73208: 5a 62 00 94  	bl	0x8bb70 <_ZN2cv3Mat10deallocateEv@plt>
   73308: 1e 62 00 94  	bl	0x8bb80 <_ZN2cv8fastFreeEPv@plt>
   73330: 10 62 00 94  	bl	0x8bb70 <_ZN2cv3Mat10deallocateEv@plt>
   7342c: d5 61 00 94  	bl	0x8bb80 <_ZN2cv8fastFreeEPv@plt>
   73458: c6 61 00 94  	bl	0x8bb70 <_ZN2cv3Mat10deallocateEv@plt>
   73558: 8a 61 00 94  	bl	0x8bb80 <_ZN2cv8fastFreeEPv@plt>
   73580: 7c 61 00 94  	bl	0x8bb70 <_ZN2cv3Mat10deallocateEv@plt>
   73684: 3f 61 00 94  	bl	0x8bb80 <_ZN2cv8fastFreeEPv@plt>
   736b0: 30 61 00 94  	bl	0x8bb70 <_ZN2cv3Mat10deallocateEv@plt>
   737b0: f4 60 00 94  	bl	0x8bb80 <_ZN2cv8fastFreeEPv@plt>
   737dc: e5 60 00 94  	bl	0x8bb70 <_ZN2cv3Mat10deallocateEv@plt>
   738e0: a8 60 00 94  	bl	0x8bb80 <_ZN2cv8fastFreeEPv@plt>
   7390c: 99 60 00 94  	bl	0x8bb70 <_ZN2cv3Mat10deallocateEv@plt>
   73a10: 5c 60 00 94  	bl	0x8bb80 <_ZN2cv8fastFreeEPv@plt>
   73a3c: 4d 60 00 94  	bl	0x8bb70 <_ZN2cv3Mat10deallocateEv@plt>
   73b3c: 11 60 00 94  	bl	0x8bb80 <_ZN2cv8fastFreeEPv@plt>
   73b50: 3c 61 00 94  	bl	0x8c040 <_ZN2cvmlERKNS_3MatEd@plt>
   73b60: 38 61 00 94  	bl	0x8c040 <_ZN2cvmlERKNS_3MatEd@plt>
   73b70: 38 61 00 94  	bl	0x8c050 <_ZN2cvplERKNS_7MatExprES2_@plt>
   73bd8: e6 5f 00 94  	bl	0x8bb70 <_ZN2cv3Mat10deallocateEv@plt>
   73cd8: aa 5f 00 94  	bl	0x8bb80 <_ZN2cv8fastFreeEPv@plt>
   73d04: 9b 5f 00 94  	bl	0x8bb70 <_ZN2cv3Mat10deallocateEv@plt>
   73e04: 5f 5f 00 94  	bl	0x8bb80 <_ZN2cv8fastFreeEPv@plt>
   73e30: 50 5f 00 94  	bl	0x8bb70 <_ZN2cv3Mat10deallocateEv@plt>
   73f30: 14 5f 00 94  	bl	0x8bb80 <_ZN2cv8fastFreeEPv@plt>
   73f5c: 05 5f 00 94  	bl	0x8bb70 <_ZN2cv3Mat10deallocateEv@plt>
   74068: c6 5e 00 94  	bl	0x8bb80 <_ZN2cv8fastFreeEPv@plt>
   74098: b6 5e 00 94  	bl	0x8bb70 <_ZN2cv3Mat10deallocateEv@plt>
   74198: 7a 5e 00 94  	bl	0x8bb80 <_ZN2cv8fastFreeEPv@plt>
   741c4: 6b 5e 00 94  	bl	0x8bb70 <_ZN2cv3Mat10deallocateEv@plt>
   742c8: 2e 5e 00 94  	bl	0x8bb80 <_ZN2cv8fastFreeEPv@plt>
   742f4: 1f 5e 00 94  	bl	0x8bb70 <_ZN2cv3Mat10deallocateEv@plt>
   743f8: e2 5d 00 94  	bl	0x8bb80 <_ZN2cv8fastFreeEPv@plt>
   74420: d4 5d 00 94  	bl	0x8bb70 <_ZN2cv3Mat10deallocateEv@plt>
   74524: 97 5d 00 94  	bl	0x8bb80 <_ZN2cv8fastFreeEPv@plt>
   74554: 87 5d 00 94  	bl	0x8bb70 <_ZN2cv3Mat10deallocateEv@plt>
   7465c: 49 5d 00 94  	bl	0x8bb80 <_ZN2cv8fastFreeEPv@plt>
   74690: 74 5e 00 94  	bl	0x8c060 <_ZNK2cv3Mat6copyToERKNS_12_OutputArrayERKNS_11_InputArrayE@plt>
   746cc: 95 5d 00 94  	bl	0x8bd20 <_ZN2cv3Mat5zerosEiii@plt>
   74770: 00 5d 00 94  	bl	0x8bb70 <_ZN2cv3Mat10deallocateEv@plt>
   74880: c0 5c 00 94  	bl	0x8bb80 <_ZN2cv8fastFreeEPv@plt>
   748ac: b1 5c 00 94  	bl	0x8bb70 <_ZN2cv3Mat10deallocateEv@plt>
   749ac: 75 5c 00 94  	bl	0x8bb80 <_ZN2cv8fastFreeEPv@plt>
   749d8: 66 5c 00 94  	bl	0x8bb70 <_ZN2cv3Mat10deallocateEv@plt>
   74ad8: 2a 5c 00 94  	bl	0x8bb80 <_ZN2cv8fastFreeEPv@plt>
   74d24: d3 5c 00 94  	bl	0x8c070 <_ZNSt3__16__sortIRNS_6__lessIffEEPfEEvT0_S5_T_@plt>
   74d5c: 15 5b 00 94  	bl	0x8b9b0 <_ZdlPv@plt>
   74d84: 7b 5b 00 94  	bl	0x8bb70 <_ZN2cv3Mat10deallocateEv@plt>
   74e84: 3f 5b 00 94  	bl	0x8bb80 <_ZN2cv8fastFreeEPv@plt>
   74eb4: 77 5b 00 94  	bl	0x8bc90 <_ZN2cv12getTickCountEv@plt>
   74ed4: 97 5a 00 94  	bl	0x8b930 <_Znwm@plt>
   75c88: ca 57 00 94  	bl	0x8bbb0 <_ZN2cv3Mat6createEiPKii@plt>
   75cb0: 20 57 00 94  	bl	0x8b930 <_Znwm@plt>
   75d00: 0c 57 00 94  	bl	0x8b930 <_Znwm@plt>
   75d50: f8 56 00 94  	bl	0x8b930 <_Znwm@plt>
   75e34: 5f 57 00 94  	bl	0x8bbb0 <_ZN2cv3Mat6createEiPKii@plt>
   76ff4: 6f 52 00 94  	bl	0x8b9b0 <_ZdlPv@plt>
   7701c: 65 52 00 94  	bl	0x8b9b0 <_ZdlPv@plt>
   77040: 5c 52 00 94  	bl	0x8b9b0 <_ZdlPv@plt>
   77050: 58 52 00 94  	bl	0x8b9b0 <_ZdlPv@plt>
   77060: 54 52 00 94  	bl	0x8b9b0 <_ZdlPv@plt>
   77070: 50 52 00 94  	bl	0x8b9b0 <_ZdlPv@plt>
   77098: b6 52 00 94  	bl	0x8bb70 <_ZN2cv3Mat10deallocateEv@plt>
   771a8: 76 52 00 94  	bl	0x8bb80 <_ZN2cv8fastFreeEPv@plt>
   771d0: f8 51 00 94  	bl	0x8b9b0 <_ZdlPv@plt>
   771d8: f6 51 00 94  	bl	0x8b9b0 <_ZdlPv@plt>
   77208: a2 52 00 94  	bl	0x8bc90 <_ZN2cv12getTickCountEv@plt>
   772ac: 35 52 00 94  	bl	0x8bb80 <_ZN2cv8fastFreeEPv@plt>
   772d8: 26 52 00 94  	bl	0x8bb70 <_ZN2cv3Mat10deallocateEv@plt>
   773d8: ea 51 00 94  	bl	0x8bb80 <_ZN2cv8fastFreeEPv@plt>
   77400: dc 51 00 94  	bl	0x8bb70 <_ZN2cv3Mat10deallocateEv@plt>
   77500: a0 51 00 94  	bl	0x8bb80 <_ZN2cv8fastFreeEPv@plt>
   77634: cb 50 00 94  	bl	0x8b960 <_ZNSt3__16threadD1Ev@plt>
   77688: b6 50 00 94  	bl	0x8b960 <_ZNSt3__16threadD1Ev@plt>
   776dc: a1 50 00 94  	bl	0x8b960 <_ZNSt3__16threadD1Ev@plt>
   77730: 8c 50 00 94  	bl	0x8b960 <_ZNSt3__16threadD1Ev@plt>
   77784: 77 50 00 94  	bl	0x8b960 <_ZNSt3__16threadD1Ev@plt>
   777d8: 62 50 00 94  	bl	0x8b960 <_ZNSt3__16threadD1Ev@plt>
   77830: 4c 50 00 94  	bl	0x8b960 <_ZNSt3__16threadD1Ev@plt>
   7788c: 35 50 00 94  	bl	0x8b960 <_ZNSt3__16threadD1Ev@plt>
   77910: 14 50 00 94  	bl	0x8b960 <_ZNSt3__16threadD1Ev@plt>
   77964: ff 4f 00 94  	bl	0x8b960 <_ZNSt3__16threadD1Ev@plt>
   779b8: ea 4f 00 94  	bl	0x8b960 <_ZNSt3__16threadD1Ev@plt>
   77a0c: d5 4f 00 94  	bl	0x8b960 <_ZNSt3__16threadD1Ev@plt>
   77a60: c0 4f 00 94  	bl	0x8b960 <_ZNSt3__16threadD1Ev@plt>
   77ab4: ab 4f 00 94  	bl	0x8b960 <_ZNSt3__16threadD1Ev@plt>
   77b0c: 95 4f 00 94  	bl	0x8b960 <_ZNSt3__16threadD1Ev@plt>
   77b68: 7e 4f 00 94  	bl	0x8b960 <_ZNSt3__16threadD1Ev@plt>
   77bb0: a4 4f 00 94  	bl	0x8ba40 <_ZNSt3__16thread4joinEv@plt>
   77bd4: 63 4f 00 94  	bl	0x8b960 <_ZNSt3__16threadD1Ev@plt>
   77c00: 6c 4f 00 94  	bl	0x8b9b0 <_ZdlPv@plt>
   77c40: cc 4f 00 94  	bl	0x8bb70 <_ZN2cv3Mat10deallocateEv@plt>
   77d38: 92 4f 00 94  	bl	0x8bb80 <_ZN2cv8fastFreeEPv@plt>
   77dd8: 6a 4f 00 94  	bl	0x8bb80 <_ZN2cv8fastFreeEPv@plt>
   77e08: 5a 4f 00 94  	bl	0x8bb70 <_ZN2cv3Mat10deallocateEv@plt>
   77f10: 1c 4f 00 94  	bl	0x8bb80 <_ZN2cv8fastFreeEPv@plt>
   77f38: 0e 4f 00 94  	bl	0x8bb70 <_ZN2cv3Mat10deallocateEv@plt>
   78040: d0 4e 00 94  	bl	0x8bb80 <_ZN2cv8fastFreeEPv@plt>
   78100: 9c 4e 00 94  	bl	0x8bb70 <_ZN2cv3Mat10deallocateEv@plt>
   781f8: 62 4e 00 94  	bl	0x8bb80 <_ZN2cv8fastFreeEPv@plt>
   7824c: 59 4e 00 94  	bl	0x8bbb0 <_ZN2cv3Mat6createEiPKii@plt>
   78278: c2 4e 00 94  	bl	0x8bd80 <_ZN2cv3MataSERKNS_7Scalar_IdEE@plt>
   78374: ff 4d 00 94  	bl	0x8bb70 <_ZN2cv3Mat10deallocateEv@plt>
   7846c: c5 4d 00 94  	bl	0x8bb80 <_ZN2cv8fastFreeEPv@plt>
   78490: 48 4d 00 94  	bl	0x8b9b0 <_ZdlPv@plt>
   784b4: 3f 4d 00 94  	bl	0x8b9b0 <_ZdlPv@plt>
   784dc: 35 4d 00 94  	bl	0x8b9b0 <_ZdlPv@plt>
   78508: 2a 4d 00 94  	bl	0x8b9b0 <_ZdlPv@plt>
   78538: 8e 4d 00 94  	bl	0x8bb70 <_ZN2cv3Mat10deallocateEv@plt>
   78638: 52 4d 00 94  	bl	0x8bb80 <_ZN2cv8fastFreeEPv@plt>
   78660: 44 4d 00 94  	bl	0x8bb70 <_ZN2cv3Mat10deallocateEv@plt>
   78768: 06 4d 00 94  	bl	0x8bb80 <_ZN2cv8fastFreeEPv@plt>
   78788: 3e 4e 00 94  	bl	0x8c080 <_ZN2cvanERKNS_3MatES2_@plt>
   7882c: d1 4c 00 94  	bl	0x8bb70 <_ZN2cv3Mat10deallocateEv@plt>
   78930: 94 4c 00 94  	bl	0x8bb80 <_ZN2cv8fastFreeEPv@plt>
   78960: 84 4c 00 94  	bl	0x8bb70 <_ZN2cv3Mat10deallocateEv@plt>
   78a64: 47 4c 00 94  	bl	0x8bb80 <_ZN2cv8fastFreeEPv@plt>
   78a8c: 39 4c 00 94  	bl	0x8bb70 <_ZN2cv3Mat10deallocateEv@plt>
   78b8c: fd 4b 00 94  	bl	0x8bb80 <_ZN2cv8fastFreeEPv@plt>
   78ba8: 3a 4d 00 94  	bl	0x8c090 <_ZN2cvcoERKNS_3MatE@plt>
   78c48: ca 4b 00 94  	bl	0x8bb70 <_ZN2cv3Mat10deallocateEv@plt>
   78d4c: 8d 4b 00 94  	bl	0x8bb80 <_ZN2cv8fastFreeEPv@plt>
   78d78: 7e 4b 00 94  	bl	0x8bb70 <_ZN2cv3Mat10deallocateEv@plt>
   78e78: 42 4b 00 94  	bl	0x8bb80 <_ZN2cv8fastFreeEPv@plt>
   78ea0: 34 4b 00 94  	bl	0x8bb70 <_ZN2cv3Mat10deallocateEv@plt>
   78fa0: f8 4a 00 94  	bl	0x8bb80 <_ZN2cv8fastFreeEPv@plt>
   78fb0: 3c 4c 00 94  	bl	0x8c0a0 <_ZN2cvorERKNS_3MatES2_@plt>
   7901c: d5 4a 00 94  	bl	0x8bb70 <_ZN2cv3Mat10deallocateEv@plt>
   7911c: 99 4a 00 94  	bl	0x8bb80 <_ZN2cv8fastFreeEPv@plt>
   79148: 8a 4a 00 94  	bl	0x8bb70 <_ZN2cv3Mat10deallocateEv@plt>
   7924c: 4d 4a 00 94  	bl	0x8bb80 <_ZN2cv8fastFreeEPv@plt>
   79278: 3e 4a 00 94  	bl	0x8bb70 <_ZN2cv3Mat10deallocateEv@plt>
   79378: 02 4a 00 94  	bl	0x8bb80 <_ZN2cv8fastFreeEPv@plt>
   79440: 48 49 00 94  	bl	0x8b960 <_ZNSt3__16threadD1Ev@plt>
   794b8: 2a 49 00 94  	bl	0x8b960 <_ZNSt3__16threadD1Ev@plt>
   79530: 0c 49 00 94  	bl	0x8b960 <_ZNSt3__16threadD1Ev@plt>
   795a8: ee 48 00 94  	bl	0x8b960 <_ZNSt3__16threadD1Ev@plt>
   79620: d0 48 00 94  	bl	0x8b960 <_ZNSt3__16threadD1Ev@plt>
   79698: b2 48 00 94  	bl	0x8b960 <_ZNSt3__16threadD1Ev@plt>
   79714: 93 48 00 94  	bl	0x8b960 <_ZNSt3__16threadD1Ev@plt>
   79794: 73 48 00 94  	bl	0x8b960 <_ZNSt3__16threadD1Ev@plt>
   79838: 4a 48 00 94  	bl	0x8b960 <_ZNSt3__16threadD1Ev@plt>
   798b0: 2c 48 00 94  	bl	0x8b960 <_ZNSt3__16threadD1Ev@plt>
   79928: 0e 48 00 94  	bl	0x8b960 <_ZNSt3__16threadD1Ev@plt>
   799a0: f0 47 00 94  	bl	0x8b960 <_ZNSt3__16threadD1Ev@plt>
   79a18: d2 47 00 94  	bl	0x8b960 <_ZNSt3__16threadD1Ev@plt>
   79a90: b4 47 00 94  	bl	0x8b960 <_ZNSt3__16threadD1Ev@plt>
   79b0c: 95 47 00 94  	bl	0x8b960 <_ZNSt3__16threadD1Ev@plt>
   79b8c: 75 47 00 94  	bl	0x8b960 <_ZNSt3__16threadD1Ev@plt>
   79bd4: 9b 47 00 94  	bl	0x8ba40 <_ZNSt3__16thread4joinEv@plt>
   79bf8: 5a 47 00 94  	bl	0x8b960 <_ZNSt3__16threadD1Ev@plt>
   79c24: 63 47 00 94  	bl	0x8b9b0 <_ZdlPv@plt>
   79c4c: c9 47 00 94  	bl	0x8bb70 <_ZN2cv3Mat10deallocateEv@plt>
   79d44: 8f 47 00 94  	bl	0x8bb80 <_ZN2cv8fastFreeEPv@plt>
   79d6c: 81 47 00 94  	bl	0x8bb70 <_ZN2cv3Mat10deallocateEv@plt>
   79e68: 46 47 00 94  	bl	0x8bb80 <_ZN2cv8fastFreeEPv@plt>
   79ed0: b8 46 00 94  	bl	0x8b9b0 <_ZdlPv@plt>
   79ee0: b4 46 00 94  	bl	0x8b9b0 <_ZdlPv@plt>
   79f08: 1a 47 00 94  	bl	0x8bb70 <_ZN2cv3Mat10deallocateEv@plt>
   7a008: de 46 00 94  	bl	0x8bb80 <_ZN2cv8fastFreeEPv@plt>
   7a030: d0 46 00 94  	bl	0x8bb70 <_ZN2cv3Mat10deallocateEv@plt>
   7a134: 93 46 00 94  	bl	0x8bb80 <_ZN2cv8fastFreeEPv@plt>
   7a15c: 85 46 00 94  	bl	0x8bb70 <_ZN2cv3Mat10deallocateEv@plt>
   7a260: 48 46 00 94  	bl	0x8bb80 <_ZN2cv8fastFreeEPv@plt>
   7a288: 3a 46 00 94  	bl	0x8bb70 <_ZN2cv3Mat10deallocateEv@plt>
   7a388: fe 45 00 94  	bl	0x8bb80 <_ZN2cv8fastFreeEPv@plt>
   7a3b0: f0 45 00 94  	bl	0x8bb70 <_ZN2cv3Mat10deallocateEv@plt>
   7a4b0: b4 45 00 94  	bl	0x8bb80 <_ZN2cv8fastFreeEPv@plt>
   7a4bc: f5 45 00 94  	bl	0x8bc90 <_ZN2cv12getTickCountEv@plt>
   7a4d4: 07 46 00 94  	bl	0x8bcf0 <_ZN2cv16getTickFrequencyEv@plt>
   7a520: f4 45 00 94  	bl	0x8bcf0 <_ZN2cv16getTickFrequencyEv@plt>
   7a568: e2 45 00 94  	bl	0x8bcf0 <_ZN2cv16getTickFrequencyEv@plt>
   7a5b4: cf 45 00 94  	bl	0x8bcf0 <_ZN2cv16getTickFrequencyEv@plt>
   7a600: bc 45 00 94  	bl	0x8bcf0 <_ZN2cv16getTickFrequencyEv@plt>
   7a648: aa 45 00 94  	bl	0x8bcf0 <_ZN2cv16getTickFrequencyEv@plt>
   7a690: 98 45 00 94  	bl	0x8bcf0 <_ZN2cv16getTickFrequencyEv@plt>
   7a73c: 91 44 00 94  	bl	0x8b980 <_ZNSt3__120__throw_system_errorEiPKc@plt>
   7a740: c8 44 00 94  	bl	0x8ba60 <_ZSt9terminatev@plt>
   7a74c: d5 44 00 94  	bl	0x8baa0 <_ZNKSt3__120__vector_base_commonILb1EE20__throw_length_errorEv@plt>
   7a754: d3 44 00 94  	bl	0x8baa0 <_ZNKSt3__120__vector_base_commonILb1EE20__throw_length_errorEv@plt>
   7a75c: d1 44 00 94  	bl	0x8baa0 <_ZNKSt3__120__vector_base_commonILb1EE20__throw_length_errorEv@plt>
   7a764: cf 44 00 94  	bl	0x8baa0 <_ZNKSt3__120__vector_base_commonILb1EE20__throw_length_errorEv@plt>
   7a7a8: f2 44 00 94  	bl	0x8bb70 <_ZN2cv3Mat10deallocateEv@plt>
   7a8ac: b5 44 00 94  	bl	0x8bb80 <_ZN2cv8fastFreeEPv@plt>
   7a8d8: a6 44 00 94  	bl	0x8bb70 <_ZN2cv3Mat10deallocateEv@plt>
   7a9dc: 69 44 00 94  	bl	0x8bb80 <_ZN2cv8fastFreeEPv@plt>
   7aa04: 5b 44 00 94  	bl	0x8bb70 <_ZN2cv3Mat10deallocateEv@plt>
   7ab08: 1e 44 00 94  	bl	0x8bb80 <_ZN2cv8fastFreeEPv@plt>
   7ab4c: 09 44 00 94  	bl	0x8bb70 <_ZN2cv3Mat10deallocateEv@plt>
   7ac44: cf 43 00 94  	bl	0x8bb80 <_ZN2cv8fastFreeEPv@plt>
   7acd0: 38 43 00 94  	bl	0x8b9b0 <_ZdlPv@plt>
   7ad18: 96 43 00 94  	bl	0x8bb70 <_ZN2cv3Mat10deallocateEv@plt>
   7ae1c: 59 43 00 94  	bl	0x8bb80 <_ZN2cv8fastFreeEPv@plt>
   7ae48: 4a 43 00 94  	bl	0x8bb70 <_ZN2cv3Mat10deallocateEv@plt>
   7af4c: 0d 43 00 94  	bl	0x8bb80 <_ZN2cv8fastFreeEPv@plt>
   7af74: ff 42 00 94  	bl	0x8bb70 <_ZN2cv3Mat10deallocateEv@plt>
   7b078: c2 42 00 94  	bl	0x8bb80 <_ZN2cv8fastFreeEPv@plt>
   7b0d0: 38 42 00 94  	bl	0x8b9b0 <_ZdlPv@plt>
   7b100: 2c 42 00 94  	bl	0x8b9b0 <_ZdlPv@plt>
   7b11c: 25 42 00 94  	bl	0x8b9b0 <_ZdlPv@plt>
   7b12c: 21 42 00 94  	bl	0x8b9b0 <_ZdlPv@plt>
   7b13c: 1d 42 00 94  	bl	0x8b9b0 <_ZdlPv@plt>
   7b164: 83 42 00 94  	bl	0x8bb70 <_ZN2cv3Mat10deallocateEv@plt>
   7b260: 48 42 00 94  	bl	0x8bb80 <_ZN2cv8fastFreeEPv@plt>
   7b290: c8 41 00 94  	bl	0x8b9b0 <_ZdlPv@plt>
   7b2a0: c4 41 00 94  	bl	0x8b9b0 <_ZdlPv@plt>
   7b320: 14 42 00 94  	bl	0x8bb70 <_ZN2cv3Mat10deallocateEv@plt>
   7b424: d7 41 00 94  	bl	0x8bb80 <_ZN2cv8fastFreeEPv@plt>
   7b450: c8 41 00 94  	bl	0x8bb70 <_ZN2cv3Mat10deallocateEv@plt>
   7b554: 8b 41 00 94  	bl	0x8bb80 <_ZN2cv8fastFreeEPv@plt>
   7b57c: 7d 41 00 94  	bl	0x8bb70 <_ZN2cv3Mat10deallocateEv@plt>
   7b680: 40 41 00 94  	bl	0x8bb80 <_ZN2cv8fastFreeEPv@plt>
   7b6c4: 2b 41 00 94  	bl	0x8bb70 <_ZN2cv3Mat10deallocateEv@plt>
   7b7bc: f1 40 00 94  	bl	0x8bb80 <_ZN2cv8fastFreeEPv@plt>
   7b7e8: e2 40 00 94  	bl	0x8bb70 <_ZN2cv3Mat10deallocateEv@plt>
   7b8ec: a5 40 00 94  	bl	0x8bb80 <_ZN2cv8fastFreeEPv@plt>
   7b914: 97 40 00 94  	bl	0x8bb70 <_ZN2cv3Mat10deallocateEv@plt>
   7ba18: 5a 40 00 94  	bl	0x8bb80 <_ZN2cv8fastFreeEPv@plt>
   7ba44: 4b 40 00 94  	bl	0x8bb70 <_ZN2cv3Mat10deallocateEv@plt>
   7bb48: 0e 40 00 94  	bl	0x8bb80 <_ZN2cv8fastFreeEPv@plt>
   7bb90: f8 3f 00 94  	bl	0x8bb70 <_ZN2cv3Mat10deallocateEv@plt>
   7bc8c: bd 3f 00 94  	bl	0x8bb80 <_ZN2cv8fastFreeEPv@plt>
   7bcb8: ae 3f 00 94  	bl	0x8bb70 <_ZN2cv3Mat10deallocateEv@plt>
   7bdbc: 71 3f 00 94  	bl	0x8bb80 <_ZN2cv8fastFreeEPv@plt>
   7bde4: 63 3f 00 94  	bl	0x8bb70 <_ZN2cv3Mat10deallocateEv@plt>
   7bee8: 26 3f 00 94  	bl	0x8bb80 <_ZN2cv8fastFreeEPv@plt>
   7bf14: 17 3f 00 94  	bl	0x8bb70 <_ZN2cv3Mat10deallocateEv@plt>
   7c018: da 3e 00 94  	bl	0x8bb80 <_ZN2cv8fastFreeEPv@plt>
   7c060: c4 3e 00 94  	bl	0x8bb70 <_ZN2cv3Mat10deallocateEv@plt>
   7c158: 8a 3e 00 94  	bl	0x8bb80 <_ZN2cv8fastFreeEPv@plt>
   7c21c: 55 3e 00 94  	bl	0x8bb70 <_ZN2cv3Mat10deallocateEv@plt>
   7c314: 1b 3e 00 94  	bl	0x8bb80 <_ZN2cv8fastFreeEPv@plt>
   7c340: 0c 3e 00 94  	bl	0x8bb70 <_ZN2cv3Mat10deallocateEv@plt>
   7c444: cf 3d 00 94  	bl	0x8bb80 <_ZN2cv8fastFreeEPv@plt>
   7c46c: c1 3d 00 94  	bl	0x8bb70 <_ZN2cv3Mat10deallocateEv@plt>
   7c570: 84 3d 00 94  	bl	0x8bb80 <_ZN2cv8fastFreeEPv@plt>
   7c59c: 75 3d 00 94  	bl	0x8bb70 <_ZN2cv3Mat10deallocateEv@plt>
   7c6a0: 38 3d 00 94  	bl	0x8bb80 <_ZN2cv8fastFreeEPv@plt>
   7c6e4: 23 3d 00 94  	bl	0x8bb70 <_ZN2cv3Mat10deallocateEv@plt>
   7c7e8: e6 3c 00 94  	bl	0x8bb80 <_ZN2cv8fastFreeEPv@plt>
   7c814: d7 3c 00 94  	bl	0x8bb70 <_ZN2cv3Mat10deallocateEv@plt>
   7c918: 9a 3c 00 94  	bl	0x8bb80 <_ZN2cv8fastFreeEPv@plt>
   7c940: 8c 3c 00 94  	bl	0x8bb70 <_ZN2cv3Mat10deallocateEv@plt>
   7ca44: 4f 3c 00 94  	bl	0x8bb80 <_ZN2cv8fastFreeEPv@plt>
   7ca84: 3b 3c 00 94  	bl	0x8bb70 <_ZN2cv3Mat10deallocateEv@plt>
   7cb88: fe 3b 00 94  	bl	0x8bb80 <_ZN2cv8fastFreeEPv@plt>
   7cbb0: f0 3b 00 94  	bl	0x8bb70 <_ZN2cv3Mat10deallocateEv@plt>
   7ccb4: b3 3b 00 94  	bl	0x8bb80 <_ZN2cv8fastFreeEPv@plt>
   7cce0: a4 3b 00 94  	bl	0x8bb70 <_ZN2cv3Mat10deallocateEv@plt>
   7cde4: 67 3b 00 94  	bl	0x8bb80 <_ZN2cv8fastFreeEPv@plt>
   7ce24: 53 3b 00 94  	bl	0x8bb70 <_ZN2cv3Mat10deallocateEv@plt>
   7cf28: 16 3b 00 94  	bl	0x8bb80 <_ZN2cv8fastFreeEPv@plt>
   7cf50: 08 3b 00 94  	bl	0x8bb70 <_ZN2cv3Mat10deallocateEv@plt>
   7d054: cb 3a 00 94  	bl	0x8bb80 <_ZN2cv8fastFreeEPv@plt>
   7d080: bc 3a 00 94  	bl	0x8bb70 <_ZN2cv3Mat10deallocateEv@plt>
   7d184: 7f 3a 00 94  	bl	0x8bb80 <_ZN2cv8fastFreeEPv@plt>
   7d1c4: 6b 3a 00 94  	bl	0x8bb70 <_ZN2cv3Mat10deallocateEv@plt>
   7d2c8: 2e 3a 00 94  	bl	0x8bb80 <_ZN2cv8fastFreeEPv@plt>
   7d2f4: 1f 3a 00 94  	bl	0x8bb70 <_ZN2cv3Mat10deallocateEv@plt>
   7d3f8: e2 39 00 94  	bl	0x8bb80 <_ZN2cv8fastFreeEPv@plt>
   7d420: d4 39 00 94  	bl	0x8bb70 <_ZN2cv3Mat10deallocateEv@plt>
   7d524: 97 39 00 94  	bl	0x8bb80 <_ZN2cv8fastFreeEPv@plt>
   7d560: 84 39 00 94  	bl	0x8bb70 <_ZN2cv3Mat10deallocateEv@plt>
   7d658: 4a 39 00 94  	bl	0x8bb80 <_ZN2cv8fastFreeEPv@plt>
   7d68c: 39 39 00 94  	bl	0x8bb70 <_ZN2cv3Mat10deallocateEv@plt>
   7d784: ff 38 00 94  	bl	0x8bb80 <_ZN2cv8fastFreeEPv@plt>
   7d7b0: f0 38 00 94  	bl	0x8bb70 <_ZN2cv3Mat10deallocateEv@plt>
   7d8b4: b3 38 00 94  	bl	0x8bb80 <_ZN2cv8fastFreeEPv@plt>
   7d8dc: a5 38 00 94  	bl	0x8bb70 <_ZN2cv3Mat10deallocateEv@plt>
   7d9e0: 68 38 00 94  	bl	0x8bb80 <_ZN2cv8fastFreeEPv@plt>
   7da0c: 59 38 00 94  	bl	0x8bb70 <_ZN2cv3Mat10deallocateEv@plt>
   7db10: 1c 38 00 94  	bl	0x8bb80 <_ZN2cv8fastFreeEPv@plt>
   7db54: 07 38 00 94  	bl	0x8bb70 <_ZN2cv3Mat10deallocateEv@plt>
   7dc58: ca 37 00 94  	bl	0x8bb80 <_ZN2cv8fastFreeEPv@plt>
   7dc80: bc 37 00 94  	bl	0x8bb70 <_ZN2cv3Mat10deallocateEv@plt>
   7dd84: 7f 37 00 94  	bl	0x8bb80 <_ZN2cv8fastFreeEPv@plt>
   7ddb0: 70 37 00 94  	bl	0x8bb70 <_ZN2cv3Mat10deallocateEv@plt>
   7deb4: 33 37 00 94  	bl	0x8bb80 <_ZN2cv8fastFreeEPv@plt>
   7def8: 1e 37 00 94  	bl	0x8bb70 <_ZN2cv3Mat10deallocateEv@plt>
   7dffc: e1 36 00 94  	bl	0x8bb80 <_ZN2cv8fastFreeEPv@plt>
   7e030: d0 36 00 94  	bl	0x8bb70 <_ZN2cv3Mat10deallocateEv@plt>
   7e134: 93 36 00 94  	bl	0x8bb80 <_ZN2cv8fastFreeEPv@plt>
   7e168: 12 36 00 94  	bl	0x8b9b0 <_ZdlPv@plt>
   7e1e4: 4f 36 00 94  	bl	0x8bb20 <_ZNSt3__119__shared_weak_count14__release_weakEv@plt>
   7e214: 43 36 00 94  	bl	0x8bb20 <_ZNSt3__119__shared_weak_count14__release_weakEv@plt>
   7e27c: 3d 36 00 94  	bl	0x8bb70 <_ZN2cv3Mat10deallocateEv@plt>
   7e380: 00 36 00 94  	bl	0x8bb80 <_ZN2cv8fastFreeEPv@plt>
   7e3ac: f1 35 00 94  	bl	0x8bb70 <_ZN2cv3Mat10deallocateEv@plt>
   7e4b0: b4 35 00 94  	bl	0x8bb80 <_ZN2cv8fastFreeEPv@plt>
   7e4d8: a6 35 00 94  	bl	0x8bb70 <_ZN2cv3Mat10deallocateEv@plt>
   7e5dc: 69 35 00 94  	bl	0x8bb80 <_ZN2cv8fastFreeEPv@plt>
   7e60c: e5 34 00 94  	bl	0x8b9a0 <_ZNSt3__115__thread_structD1Ev@plt>
   7e61c: e5 34 00 94  	bl	0x8b9b0 <_ZdlPv@plt>
   7e66c: d1 34 00 94  	bl	0x8b9b0 <_ZdlPv@plt>
   7e6c4: 2b 35 00 94  	bl	0x8bb70 <_ZN2cv3Mat10deallocateEv@plt>
   7e7c0: f0 34 00 94  	bl	0x8bb80 <_ZN2cv8fastFreeEPv@plt>
   7e7e8: e2 34 00 94  	bl	0x8bb70 <_ZN2cv3Mat10deallocateEv@plt>
   7e8e4: a7 34 00 94  	bl	0x8bb80 <_ZN2cv8fastFreeEPv@plt>
   7e90c: 99 34 00 94  	bl	0x8bb70 <_ZN2cv3Mat10deallocateEv@plt>
   7ea08: 5e 34 00 94  	bl	0x8bb80 <_ZN2cv8fastFreeEPv@plt>
   7ea48: 4a 34 00 94  	bl	0x8bb70 <_ZN2cv3Mat10deallocateEv@plt>
   7eb3c: 11 34 00 94  	bl	0x8bb80 <_ZN2cv8fastFreeEPv@plt>
   7eb68: 7e 33 00 94  	bl	0x8b960 <_ZNSt3__16threadD1Ev@plt>
   7eb84: 77 33 00 94  	bl	0x8b960 <_ZNSt3__16threadD1Ev@plt>
   7ebb8: ee 33 00 94  	bl	0x8bb70 <_ZN2cv3Mat10deallocateEv@plt>
   7ecbc: b1 33 00 94  	bl	0x8bb80 <_ZN2cv8fastFreeEPv@plt>
   7ecf0: a0 33 00 94  	bl	0x8bb70 <_ZN2cv3Mat10deallocateEv@plt>
   7edf4: 63 33 00 94  	bl	0x8bb80 <_ZN2cv8fastFreeEPv@plt>
   7ee18: e6 32 00 94  	bl	0x8b9b0 <_ZdlPv@plt>
   7ee28: e2 32 00 94  	bl	0x8b9b0 <_ZdlPv@plt>
   7ee50: 48 33 00 94  	bl	0x8bb70 <_ZN2cv3Mat10deallocateEv@plt>
   7ef50: 0c 33 00 94  	bl	0x8bb80 <_ZN2cv8fastFreeEPv@plt>
   7ef78: fe 32 00 94  	bl	0x8bb70 <_ZN2cv3Mat10deallocateEv@plt>
   7f078: c2 32 00 94  	bl	0x8bb80 <_ZN2cv8fastFreeEPv@plt>
   7f0a0: b4 32 00 94  	bl	0x8bb70 <_ZN2cv3Mat10deallocateEv@plt>
   7f1a0: 78 32 00 94  	bl	0x8bb80 <_ZN2cv8fastFreeEPv@plt>
   7f1c8: 6a 32 00 94  	bl	0x8bb70 <_ZN2cv3Mat10deallocateEv@plt>
   7f2c8: 2e 32 00 94  	bl	0x8bb80 <_ZN2cv8fastFreeEPv@plt>
   7f348: 0a 32 00 94  	bl	0x8bb70 <_ZN2cv3Mat10deallocateEv@plt>
   7f444: cf 31 00 94  	bl	0x8bb80 <_ZN2cv8fastFreeEPv@plt>
   7f46c: c1 31 00 94  	bl	0x8bb70 <_ZN2cv3Mat10deallocateEv@plt>
   7f568: 86 31 00 94  	bl	0x8bb80 <_ZN2cv8fastFreeEPv@plt>
   7f590: 78 31 00 94  	bl	0x8bb70 <_ZN2cv3Mat10deallocateEv@plt>
   7f68c: 3d 31 00 94  	bl	0x8bb80 <_ZN2cv8fastFreeEPv@plt>
   7f6b4: 2f 31 00 94  	bl	0x8bb70 <_ZN2cv3Mat10deallocateEv@plt>
   7f7b0: f4 30 00 94  	bl	0x8bb80 <_ZN2cv8fastFreeEPv@plt>
   7f7f0: e0 30 00 94  	bl	0x8bb70 <_ZN2cv3Mat10deallocateEv@plt>
   7f8e4: a7 30 00 94  	bl	0x8bb80 <_ZN2cv8fastFreeEPv@plt>
   7f920: 94 30 00 94  	bl	0x8bb70 <_ZN2cv3Mat10deallocateEv@plt>
   7fa14: 5b 30 00 94  	bl	0x8bb80 <_ZN2cv8fastFreeEPv@plt>
   7fa38: de 2f 00 94  	bl	0x8b9b0 <_ZdlPv@plt>
   7fa5c: d5 2f 00 94  	bl	0x8b9b0 <_ZdlPv@plt>
   7fa80: cc 2f 00 94  	bl	0x8b9b0 <_ZdlPv@plt>
   7faac: c1 2f 00 94  	bl	0x8b9b0 <_ZdlPv@plt>
   7fadc: 25 30 00 94  	bl	0x8bb70 <_ZN2cv3Mat10deallocateEv@plt>
   7fbdc: e9 2f 00 94  	bl	0x8bb80 <_ZN2cv8fastFreeEPv@plt>
   7fc04: db 2f 00 94  	bl	0x8bb70 <_ZN2cv3Mat10deallocateEv@plt>
   7fd04: 9f 2f 00 94  	bl	0x8bb80 <_ZN2cv8fastFreeEPv@plt>
   7fd40: 08 2f 00 94  	bl	0x8b960 <_ZNSt3__16threadD1Ev@plt>
   7fd6c: 11 2f 00 94  	bl	0x8b9b0 <_ZdlPv@plt>
   7fd94: 77 2f 00 94  	bl	0x8bb70 <_ZN2cv3Mat10deallocateEv@plt>
   7fe8c: 3d 2f 00 94  	bl	0x8bb80 <_ZN2cv8fastFreeEPv@plt>
   7feb4: 2f 2f 00 94  	bl	0x8bb70 <_ZN2cv3Mat10deallocateEv@plt>
   7ffb0: f4 2e 00 94  	bl	0x8bb80 <_ZN2cv8fastFreeEPv@plt>
   7ffe8: 5e 2e 00 94  	bl	0x8b960 <_ZNSt3__16threadD1Ev@plt>
   80014: 67 2e 00 94  	bl	0x8b9b0 <_ZdlPv@plt>
   8003c: cd 2e 00 94  	bl	0x8bb70 <_ZN2cv3Mat10deallocateEv@plt>
   80134: 93 2e 00 94  	bl	0x8bb80 <_ZN2cv8fastFreeEPv@plt>
   80158: 16 2e 00 94  	bl	0x8b9b0 <_ZdlPv@plt>
   80168: 12 2e 00 94  	bl	0x8b9b0 <_ZdlPv@plt>
   80190: 78 2e 00 94  	bl	0x8bb70 <_ZN2cv3Mat10deallocateEv@plt>
   80290: 3c 2e 00 94  	bl	0x8bb80 <_ZN2cv8fastFreeEPv@plt>
   802b8: 2e 2e 00 94  	bl	0x8bb70 <_ZN2cv3Mat10deallocateEv@plt>
   803b8: f2 2d 00 94  	bl	0x8bb80 <_ZN2cv8fastFreeEPv@plt>
   803e0: e4 2d 00 94  	bl	0x8bb70 <_ZN2cv3Mat10deallocateEv@plt>
   804e0: a8 2d 00 94  	bl	0x8bb80 <_ZN2cv8fastFreeEPv@plt>
   80508: 9a 2d 00 94  	bl	0x8bb70 <_ZN2cv3Mat10deallocateEv@plt>
   80608: 5e 2d 00 94  	bl	0x8bb80 <_ZN2cv8fastFreeEPv@plt>
   80630: 50 2d 00 94  	bl	0x8bb70 <_ZN2cv3Mat10deallocateEv@plt>
   80734: 13 2d 00 94  	bl	0x8bb80 <_ZN2cv8fastFreeEPv@plt>
   8077c: fd 2c 00 94  	bl	0x8bb70 <_ZN2cv3Mat10deallocateEv@plt>
   80880: c0 2c 00 94  	bl	0x8bb80 <_ZN2cv8fastFreeEPv@plt>
   808b4: af 2c 00 94  	bl	0x8bb70 <_ZN2cv3Mat10deallocateEv@plt>
   809b8: 72 2c 00 94  	bl	0x8bb80 <_ZN2cv8fastFreeEPv@plt>
   809f4: ef 2b 00 94  	bl	0x8b9b0 <_ZdlPv@plt>
   80a1c: 55 2c 00 94  	bl	0x8bb70 <_ZN2cv3Mat10deallocateEv@plt>
   80b14: 1b 2c 00 94  	bl	0x8bb80 <_ZN2cv8fastFreeEPv@plt>
   80b90: f8 2b 00 94  	bl	0x8bb70 <_ZN2cv3Mat10deallocateEv@plt>
   80c7c: c1 2b 00 94  	bl	0x8bb80 <_ZN2cv8fastFreeEPv@plt>
   80cb4: af 2b 00 94  	bl	0x8bb70 <_ZN2cv3Mat10deallocateEv@plt>
   80dc0: 70 2b 00 94  	bl	0x8bb80 <_ZN2cv8fastFreeEPv@plt>
   80dec: 61 2b 00 94  	bl	0x8bb70 <_ZN2cv3Mat10deallocateEv@plt>
   80ef8: 22 2b 00 94  	bl	0x8bb80 <_ZN2cv8fastFreeEPv@plt>
   80f24: 13 2b 00 94  	bl	0x8bb70 <_ZN2cv3Mat10deallocateEv@plt>
   81030: d4 2a 00 94  	bl	0x8bb80 <_ZN2cv8fastFreeEPv@plt>
   8105c: c5 2a 00 94  	bl	0x8bb70 <_ZN2cv3Mat10deallocateEv@plt>
   8116c: 85 2a 00 94  	bl	0x8bb80 <_ZN2cv8fastFreeEPv@plt>
   81198: 76 2a 00 94  	bl	0x8bb70 <_ZN2cv3Mat10deallocateEv@plt>
   812a8: 36 2a 00 94  	bl	0x8bb80 <_ZN2cv8fastFreeEPv@plt>
   8131c: a5 29 00 94  	bl	0x8b9b0 <_ZdlPv@plt>
   81344: 9b 29 00 94  	bl	0x8b9b0 <_ZdlPv@plt>
   813b8: 7e 29 00 94  	bl	0x8b9b0 <_ZdlPv@plt>
   8142c: 61 29 00 94  	bl	0x8b9b0 <_ZdlPv@plt>
   814a0: 44 29 00 94  	bl	0x8b9b0 <_ZdlPv@plt>
   814bc: 45 29 00 94  	bl	0x8b9d0 <_ZNSt3__15mutexD1Ev@plt>
   814c8: e6 29 00 94  	bl	0x8bc60 <_ZNSt3__119__shared_weak_countD2Ev@plt>
   814d0: 38 29 00 94  	bl	0x8b9b0 <_ZdlPv@plt>
   81500: 9c 29 00 94  	bl	0x8bb70 <_ZN2cv3Mat10deallocateEv@plt>
   81600: 60 29 00 94  	bl	0x8bb80 <_ZN2cv8fastFreeEPv@plt>
   81628: 52 29 00 94  	bl	0x8bb70 <_ZN2cv3Mat10deallocateEv@plt>
   81728: 16 29 00 94  	bl	0x8bb80 <_ZN2cv8fastFreeEPv@plt>
   8178c: 89 28 00 94  	bl	0x8b9b0 <_ZdlPv@plt>
   817f0: 70 28 00 94  	bl	0x8b9b0 <_ZdlPv@plt>
   81854: 57 28 00 94  	bl	0x8b9b0 <_ZdlPv@plt>
   818a8: b2 28 00 94  	bl	0x8bb70 <_ZN2cv3Mat10deallocateEv@plt>
   81998: 7a 28 00 94  	bl	0x8bb80 <_ZN2cv8fastFreeEPv@plt>
   819cc: 69 28 00 94  	bl	0x8bb70 <_ZN2cv3Mat10deallocateEv@plt>
   81abc: 31 28 00 94  	bl	0x8bb80 <_ZN2cv8fastFreeEPv@plt>
   81adc: a1 27 00 94  	bl	0x8b960 <_ZNSt3__16threadD1Ev@plt>
   81b04: 1b 28 00 94  	bl	0x8bb70 <_ZN2cv3Mat10deallocateEv@plt>
   81c04: df 27 00 94  	bl	0x8bb80 <_ZN2cv8fastFreeEPv@plt>
   81c2c: d1 27 00 94  	bl	0x8bb70 <_ZN2cv3Mat10deallocateEv@plt>
   81d2c: 95 27 00 94  	bl	0x8bb80 <_ZN2cv8fastFreeEPv@plt>
   81d54: 87 27 00 94  	bl	0x8bb70 <_ZN2cv3Mat10deallocateEv@plt>
   81e54: 4b 27 00 94  	bl	0x8bb80 <_ZN2cv8fastFreeEPv@plt>
   81eb8: be 26 00 94  	bl	0x8b9b0 <_ZdlPv@plt>
   81ee0: 24 27 00 94  	bl	0x8bb70 <_ZN2cv3Mat10deallocateEv@plt>
   81fe0: e8 26 00 94  	bl	0x8bb80 <_ZN2cv8fastFreeEPv@plt>
   82008: da 26 00 94  	bl	0x8bb70 <_ZN2cv3Mat10deallocateEv@plt>
   82108: 9e 26 00 94  	bl	0x8bb80 <_ZN2cv8fastFreeEPv@plt>
   82130: 90 26 00 94  	bl	0x8bb70 <_ZN2cv3Mat10deallocateEv@plt>
   82230: 54 26 00 94  	bl	0x8bb80 <_ZN2cv8fastFreeEPv@plt>
   82258: 46 26 00 94  	bl	0x8bb70 <_ZN2cv3Mat10deallocateEv@plt>
   82358: 0a 26 00 94  	bl	0x8bb80 <_ZN2cv8fastFreeEPv@plt>
   82380: fc 25 00 94  	bl	0x8bb70 <_ZN2cv3Mat10deallocateEv@plt>
   82480: c0 25 00 94  	bl	0x8bb80 <_ZN2cv8fastFreeEPv@plt>
   824a8: b2 25 00 94  	bl	0x8bb70 <_ZN2cv3Mat10deallocateEv@plt>
   825a8: 76 25 00 94  	bl	0x8bb80 <_ZN2cv8fastFreeEPv@plt>
   825d0: 68 25 00 94  	bl	0x8bb70 <_ZN2cv3Mat10deallocateEv@plt>
   826d0: 2c 25 00 94  	bl	0x8bb80 <_ZN2cv8fastFreeEPv@plt>
   826f8: 1e 25 00 94  	bl	0x8bb70 <_ZN2cv3Mat10deallocateEv@plt>
   827f8: e2 24 00 94  	bl	0x8bb80 <_ZN2cv8fastFreeEPv@plt>
   82820: d4 24 00 94  	bl	0x8bb70 <_ZN2cv3Mat10deallocateEv@plt>
   82920: 98 24 00 94  	bl	0x8bb80 <_ZN2cv8fastFreeEPv@plt>
   82948: 8a 24 00 94  	bl	0x8bb70 <_ZN2cv3Mat10deallocateEv@plt>
   82a48: 4e 24 00 94  	bl	0x8bb80 <_ZN2cv8fastFreeEPv@plt>
   82a70: 40 24 00 94  	bl	0x8bb70 <_ZN2cv3Mat10deallocateEv@plt>
   82b70: 04 24 00 94  	bl	0x8bb80 <_ZN2cv8fastFreeEPv@plt>
   82bd4: 77 23 00 94  	bl	0x8b9b0 <_ZdlPv@plt>
   82c3c: 5d 23 00 94  	bl	0x8b9b0 <_ZdlPv@plt>
   82cd4: f7 24 00 94  	bl	0x8c0b0 <_ZN2cv12GaussianBlurERKNS_11_InputArrayERKNS_12_OutputArrayENS_5Size_IiEEddi@plt>
   82d7c: c5 23 00 94  	bl	0x8bc90 <_ZN2cv12getTickCountEv@plt>
   82dd8: ae 23 00 94  	bl	0x8bc90 <_ZN2cv12getTickCountEv@plt>
   82e98: 7a 23 00 94  	bl	0x8bc80 <_ZN2cv3Mat8copySizeERKS0_@plt>
   82ed8: 92 23 00 94  	bl	0x8bd20 <_ZN2cv3Mat5zerosEiii@plt>
   82f74: ff 22 00 94  	bl	0x8bb70 <_ZN2cv3Mat10deallocateEv@plt>
   83074: c3 22 00 94  	bl	0x8bb80 <_ZN2cv8fastFreeEPv@plt>
   830a0: b4 22 00 94  	bl	0x8bb70 <_ZN2cv3Mat10deallocateEv@plt>
   831a0: 78 22 00 94  	bl	0x8bb80 <_ZN2cv8fastFreeEPv@plt>
   831c8: 6a 22 00 94  	bl	0x8bb70 <_ZN2cv3Mat10deallocateEv@plt>
   832c8: 2e 22 00 94  	bl	0x8bb80 <_ZN2cv8fastFreeEPv@plt>
   834a4: b3 21 00 94  	bl	0x8bb70 <_ZN2cv3Mat10deallocateEv@plt>
   8359c: 79 21 00 94  	bl	0x8bb80 <_ZN2cv8fastFreeEPv@plt>
   835c4: 6b 21 00 94  	bl	0x8bb70 <_ZN2cv3Mat10deallocateEv@plt>
   836c4: 2f 21 00 94  	bl	0x8bb80 <_ZN2cv8fastFreeEPv@plt>
   836dc: 6d 21 00 94  	bl	0x8bc90 <_ZN2cv12getTickCountEv@plt>
   83728: 5a 21 00 94  	bl	0x8bc90 <_ZN2cv12getTickCountEv@plt>
   83740: 2c 21 00 94  	bl	0x8bbf0 <_ZN2cv7noArrayEv@plt>
   83750: 5c 22 00 94  	bl	0x8c0c0 <_ZN2cv4meanERKNS_11_InputArrayES2_@plt>
   838d0: 94 20 00 94  	bl	0x8bb20 <_ZNSt3__119__shared_weak_count14__release_weakEv@plt>
   839cc: 55 20 00 94  	bl	0x8bb20 <_ZNSt3__119__shared_weak_count14__release_weakEv@plt>
   83a44: 37 20 00 94  	bl	0x8bb20 <_ZNSt3__119__shared_weak_count14__release_weakEv@plt>
   83a7c: 29 20 00 94  	bl	0x8bb20 <_ZNSt3__119__shared_weak_count14__release_weakEv@plt>
   83b64: ef 1f 00 94  	bl	0x8bb20 <_ZNSt3__119__shared_weak_count14__release_weakEv@plt>
   83ba4: df 1f 00 94  	bl	0x8bb20 <_ZNSt3__119__shared_weak_count14__release_weakEv@plt>
   83bd8: e6 1f 00 94  	bl	0x8bb70 <_ZN2cv3Mat10deallocateEv@plt>
   83cd0: ac 1f 00 94  	bl	0x8bb80 <_ZN2cv8fastFreeEPv@plt>
   83ce0: 38 1f 00 94  	bl	0x8b9c0 <_ZNSt3__118condition_variableD1Ev@plt>
   83ce8: 3a 1f 00 94  	bl	0x8b9d0 <_ZNSt3__15mutexD1Ev@plt>
   83d48: 76 1f 00 94  	bl	0x8bb20 <_ZNSt3__119__shared_weak_count14__release_weakEv@plt>
   83d6c: 11 1f 00 94  	bl	0x8b9b0 <_ZdlPv@plt>
   83e0c: 69 1f 00 94  	bl	0x8bbb0 <_ZN2cv3Mat6createEiPKii@plt>
   83e28: d6 1f 00 94  	bl	0x8bd80 <_ZN2cv3MataSERKNS_7Scalar_IdEE@plt>
   83e84: 4b 1f 00 94  	bl	0x8bbb0 <_ZN2cv3Mat6createEiPKii@plt>
   83ea4: b7 1f 00 94  	bl	0x8bd80 <_ZN2cv3MataSERKNS_7Scalar_IdEE@plt>
   83edc: 95 1e 00 94  	bl	0x8b930 <_Znwm@plt>
   83f58: 26 1f 00 94  	bl	0x8bbf0 <_ZN2cv7noArrayEv@plt>
   83f68: 56 20 00 94  	bl	0x8c0c0 <_ZN2cv4meanERKNS_11_InputArrayES2_@plt>
   84034: 3f 1e 00 94  	bl	0x8b930 <_Znwm@plt>
   8408c: 49 1e 00 94  	bl	0x8b9b0 <_ZdlPv@plt>
   84140: ac 1e 00 94  	bl	0x8bbf0 <_ZN2cv7noArrayEv@plt>
   84150: dc 1f 00 94  	bl	0x8c0c0 <_ZN2cv4meanERKNS_11_InputArrayES2_@plt>
   8420c: c9 1d 00 94  	bl	0x8b930 <_Znwm@plt>
   84268: d2 1d 00 94  	bl	0x8b9b0 <_ZdlPv@plt>
   8431c: 25 1e 00 94  	bl	0x8bbb0 <_ZN2cv3Mat6createEiPKii@plt>
   84344: 2b 1e 00 94  	bl	0x8bbf0 <_ZN2cv7noArrayEv@plt>
   84354: 5f 1f 00 94  	bl	0x8c0d0 <_ZN2cv3Mat5setToERKNS_11_InputArrayES3_@plt>
   84368: 86 1e 00 94  	bl	0x8bd80 <_ZN2cv3MataSERKNS_7Scalar_IdEE@plt>
   844a4: bb 1e 00 94  	bl	0x8bf90 <_ZN2cv3Mat5zerosENS_5Size_IiEEi@plt>
   84548: 8a 1d 00 94  	bl	0x8bb70 <_ZN2cv3Mat10deallocateEv@plt>
   84648: 4e 1d 00 94  	bl	0x8bb80 <_ZN2cv8fastFreeEPv@plt>
   84674: 3f 1d 00 94  	bl	0x8bb70 <_ZN2cv3Mat10deallocateEv@plt>
   84774: 03 1d 00 94  	bl	0x8bb80 <_ZN2cv8fastFreeEPv@plt>
   8479c: f5 1c 00 94  	bl	0x8bb70 <_ZN2cv3Mat10deallocateEv@plt>
   8489c: b9 1c 00 94  	bl	0x8bb80 <_ZN2cv8fastFreeEPv@plt>
   848d8: ba 1c 00 94  	bl	0x8bbc0 <_ZN2cv3MatC1ERKS0_RKNS_5Rect_IiEE@plt>
   848fc: bd 1c 00 94  	bl	0x8bbf0 <_ZN2cv7noArrayEv@plt>
   8490c: f1 1d 00 94  	bl	0x8c0d0 <_ZN2cv3Mat5setToERKNS_11_InputArrayES3_@plt>
   84934: 8f 1c 00 94  	bl	0x8bb70 <_ZN2cv3Mat10deallocateEv@plt>
   84a38: 52 1c 00 94  	bl	0x8bb80 <_ZN2cv8fastFreeEPv@plt>
   84a6c: 61 1c 00 94  	bl	0x8bbf0 <_ZN2cv7noArrayEv@plt>
   84a80: 98 1d 00 94  	bl	0x8c0e0 <_ZN2cv11bitwise_andERKNS_11_InputArrayES2_RKNS_12_OutputArrayES2_@plt>
   84a94: 93 1c 00 94  	bl	0x8bce0 <_ZN2cv12countNonZeroERKNS_11_InputArrayE@plt>
   84afc: 65 1c 00 94  	bl	0x8bc90 <_ZN2cv12getTickCountEv@plt>
   84b0c: 79 1c 00 94  	bl	0x8bcf0 <_ZN2cv16getTickFrequencyEv@plt>
   84b6c: 01 1c 00 94  	bl	0x8bb70 <_ZN2cv3Mat10deallocateEv@plt>
   84c64: c7 1b 00 94  	bl	0x8bb80 <_ZN2cv8fastFreeEPv@plt>
   84c88: 4a 1b 00 94  	bl	0x8b9b0 <_ZdlPv@plt>
   84cb0: b0 1b 00 94  	bl	0x8bb70 <_ZN2cv3Mat10deallocateEv@plt>
   84db0: 74 1b 00 94  	bl	0x8bb80 <_ZN2cv8fastFreeEPv@plt>
   84dd8: 66 1b 00 94  	bl	0x8bb70 <_ZN2cv3Mat10deallocateEv@plt>
   84ed8: 2a 1b 00 94  	bl	0x8bb80 <_ZN2cv8fastFreeEPv@plt>
   84f00: 1c 1b 00 94  	bl	0x8bb70 <_ZN2cv3Mat10deallocateEv@plt>
   85000: e0 1a 00 94  	bl	0x8bb80 <_ZN2cv8fastFreeEPv@plt>
   85004: 23 1b 00 94  	bl	0x8bc90 <_ZN2cv12getTickCountEv@plt>
   8501c: 35 1b 00 94  	bl	0x8bcf0 <_ZN2cv16getTickFrequencyEv@plt>
   85064: 23 1b 00 94  	bl	0x8bcf0 <_ZN2cv16getTickFrequencyEv@plt>
   850ac: 11 1b 00 94  	bl	0x8bcf0 <_ZN2cv16getTickFrequencyEv@plt>
   8514c: 19 1a 00 94  	bl	0x8b9b0 <_ZdlPv@plt>
   852a4: ff 19 00 94  	bl	0x8baa0 <_ZNKSt3__120__vector_base_commonILb1EE20__throw_length_errorEv@plt>
   85320: 00 1a 00 94  	bl	0x8bb20 <_ZNSt3__119__shared_weak_count14__release_weakEv@plt>
   85358: f2 19 00 94  	bl	0x8bb20 <_ZNSt3__119__shared_weak_count14__release_weakEv@plt>
   8539c: e1 19 00 94  	bl	0x8bb20 <_ZNSt3__119__shared_weak_count14__release_weakEv@plt>
   853d4: d3 19 00 94  	bl	0x8bb20 <_ZNSt3__119__shared_weak_count14__release_weakEv@plt>
   85404: db 19 00 94  	bl	0x8bb70 <_ZN2cv3Mat10deallocateEv@plt>
   854fc: a1 19 00 94  	bl	0x8bb80 <_ZN2cv8fastFreeEPv@plt>
   85530: 90 19 00 94  	bl	0x8bb70 <_ZN2cv3Mat10deallocateEv@plt>
   85628: 56 19 00 94  	bl	0x8bb80 <_ZN2cv8fastFreeEPv@plt>
   85654: 47 19 00 94  	bl	0x8bb70 <_ZN2cv3Mat10deallocateEv@plt>
   85754: 0b 19 00 94  	bl	0x8bb80 <_ZN2cv8fastFreeEPv@plt>
   8577c: fd 18 00 94  	bl	0x8bb70 <_ZN2cv3Mat10deallocateEv@plt>
   8587c: c1 18 00 94  	bl	0x8bb80 <_ZN2cv8fastFreeEPv@plt>
   858a8: b2 18 00 94  	bl	0x8bb70 <_ZN2cv3Mat10deallocateEv@plt>
   859a8: 76 18 00 94  	bl	0x8bb80 <_ZN2cv8fastFreeEPv@plt>
   859f4: 5f 18 00 94  	bl	0x8bb70 <_ZN2cv3Mat10deallocateEv@plt>
   85aec: 25 18 00 94  	bl	0x8bb80 <_ZN2cv8fastFreeEPv@plt>
   85b14: 17 18 00 94  	bl	0x8bb70 <_ZN2cv3Mat10deallocateEv@plt>
   85c14: db 17 00 94  	bl	0x8bb80 <_ZN2cv8fastFreeEPv@plt>
   85c78: be 17 00 94  	bl	0x8bb70 <_ZN2cv3Mat10deallocateEv@plt>
   85d70: 84 17 00 94  	bl	0x8bb80 <_ZN2cv8fastFreeEPv@plt>
   85d9c: 75 17 00 94  	bl	0x8bb70 <_ZN2cv3Mat10deallocateEv@plt>
   85e9c: 39 17 00 94  	bl	0x8bb80 <_ZN2cv8fastFreeEPv@plt>
   85ec4: 2b 17 00 94  	bl	0x8bb70 <_ZN2cv3Mat10deallocateEv@plt>
   85fc4: ef 16 00 94  	bl	0x8bb80 <_ZN2cv8fastFreeEPv@plt>
   85ff0: e0 16 00 94  	bl	0x8bb70 <_ZN2cv3Mat10deallocateEv@plt>
   860f0: a4 16 00 94  	bl	0x8bb80 <_ZN2cv8fastFreeEPv@plt>
   8616c: 6d 16 00 94  	bl	0x8bb20 <_ZNSt3__119__shared_weak_count14__release_weakEv@plt>
   861a4: 5f 16 00 94  	bl	0x8bb20 <_ZNSt3__119__shared_weak_count14__release_weakEv@plt>
   861e0: 64 16 00 94  	bl	0x8bb70 <_ZN2cv3Mat10deallocateEv@plt>
   862e0: 28 16 00 94  	bl	0x8bb80 <_ZN2cv8fastFreeEPv@plt>
   862fc: b1 15 00 94  	bl	0x8b9c0 <_ZNSt3__118condition_variableD1Ev@plt>
   86304: b3 15 00 94  	bl	0x8b9d0 <_ZNSt3__15mutexD1Ev@plt>
   86358: f2 15 00 94  	bl	0x8bb20 <_ZNSt3__119__shared_weak_count14__release_weakEv@plt>
   86380: 8c 15 00 94  	bl	0x8b9b0 <_ZdlPv@plt>
   863bc: ed 15 00 94  	bl	0x8bb70 <_ZN2cv3Mat10deallocateEv@plt>
   864b4: b3 15 00 94  	bl	0x8bb80 <_ZN2cv8fastFreeEPv@plt>
   86504: 2b 15 00 94  	bl	0x8b9b0 <_ZdlPv@plt>
   8652c: 91 15 00 94  	bl	0x8bb70 <_ZN2cv3Mat10deallocateEv@plt>
   8662c: 55 15 00 94  	bl	0x8bb80 <_ZN2cv8fastFreeEPv@plt>
   86654: 47 15 00 94  	bl	0x8bb70 <_ZN2cv3Mat10deallocateEv@plt>
   86754: 0b 15 00 94  	bl	0x8bb80 <_ZN2cv8fastFreeEPv@plt>
   8677c: fd 14 00 94  	bl	0x8bb70 <_ZN2cv3Mat10deallocateEv@plt>
   8687c: c1 14 00 94  	bl	0x8bb80 <_ZN2cv8fastFreeEPv@plt>
   868e4: 33 14 00 94  	bl	0x8b9b0 <_ZdlPv@plt>
   86d20: 04 13 00 94  	bl	0x8b930 <_Znwm@plt>
   86d28: 06 13 00 94  	bl	0x8b940 <_ZNSt3__115__thread_structC1Ev@plt>
   86d30: 00 13 00 94  	bl	0x8b930 <_Znwm@plt>
   86dc4: ef 12 00 94  	bl	0x8b980 <_ZNSt3__120__throw_system_errorEiPKc@plt>
   86de4: ef 12 00 94  	bl	0x8b9a0 <_ZNSt3__115__thread_structD1Ev@plt>
   86dec: f1 12 00 94  	bl	0x8b9b0 <_ZdlPv@plt>
   86e00: e8 12 00 94  	bl	0x8b9a0 <_ZNSt3__115__thread_structD1Ev@plt>
   86e10: e8 12 00 94  	bl	0x8b9b0 <_ZdlPv@plt>
   870e0: 84 12 00 94  	bl	0x8baf0 <_ZNSt3__119__thread_local_dataEv@plt>
   87144: 17 12 00 94  	bl	0x8b9a0 <_ZNSt3__115__thread_structD1Ev@plt>
   8714c: 19 12 00 94  	bl	0x8b9b0 <_ZdlPv@plt>
   87154: 17 12 00 94  	bl	0x8b9b0 <_ZdlPv@plt>
   871b4: fb 11 00 94  	bl	0x8b9a0 <_ZNSt3__115__thread_structD1Ev@plt>
   871bc: fd 11 00 94  	bl	0x8b9b0 <_ZdlPv@plt>
   871c4: fb 11 00 94  	bl	0x8b9b0 <_ZdlPv@plt>
   871fc: cd 11 00 94  	bl	0x8b930 <_Znwm@plt>
   87238: 1a 12 00 94  	bl	0x8baa0 <_ZNKSt3__120__vector_base_commonILb1EE20__throw_length_errorEv@plt>
   87268: d2 11 00 94  	bl	0x8b9b0 <_ZdlPv@plt>
   8732c: 81 11 00 94  	bl	0x8b930 <_Znwm@plt>
   87378: 5e 13 00 94  	bl	0x8c0f0 <_ZN2cv5errorEiRKNSt3__112basic_stringIcNS0_11char_traitsIcEENS0_9allocatorIcEEEEPKcSA_i@plt>
   873a4: 57 13 00 94  	bl	0x8c100 <_ZN2cv3Mat20updateContinuityFlagEv@plt>
   873d0: 58 11 00 94  	bl	0x8b930 <_Znwm@plt>
   8741c: 35 13 00 94  	bl	0x8c0f0 <_ZN2cv5errorEiRKNSt3__112basic_stringIcNS0_11char_traitsIcEENS0_9allocatorIcEEEEPKcSA_i@plt>
   87444: 5b 11 00 94  	bl	0x8b9b0 <_ZdlPv@plt>
   876c0: 9c 10 00 94  	bl	0x8b930 <_Znwm@plt>
   876c8: 9e 10 00 94  	bl	0x8b940 <_ZNSt3__115__thread_structC1Ev@plt>
   876d0: 98 10 00 94  	bl	0x8b930 <_Znwm@plt>
   87740: 90 10 00 94  	bl	0x8b980 <_ZNSt3__120__throw_system_errorEiPKc@plt>
   87760: 90 10 00 94  	bl	0x8b9a0 <_ZNSt3__115__thread_structD1Ev@plt>
   87768: 92 10 00 94  	bl	0x8b9b0 <_ZdlPv@plt>
   8777c: 89 10 00 94  	bl	0x8b9a0 <_ZNSt3__115__thread_structD1Ev@plt>
   8778c: 89 10 00 94  	bl	0x8b9b0 <_ZdlPv@plt>
   87ac4: 0b 10 00 94  	bl	0x8baf0 <_ZNSt3__119__thread_local_dataEv@plt>
   87b14: a3 0f 00 94  	bl	0x8b9a0 <_ZNSt3__115__thread_structD1Ev@plt>
   87b1c: a5 0f 00 94  	bl	0x8b9b0 <_ZdlPv@plt>
   87b24: a3 0f 00 94  	bl	0x8b9b0 <_ZdlPv@plt>
   87b78: 8a 0f 00 94  	bl	0x8b9a0 <_ZNSt3__115__thread_structD1Ev@plt>
   87b80: 8c 0f 00 94  	bl	0x8b9b0 <_ZdlPv@plt>
   87b88: 8a 0f 00 94  	bl	0x8b9b0 <_ZdlPv@plt>
   87cb4: ef 10 00 94  	bl	0x8c070 <_ZNSt3__16__sortIRNS_6__lessIffEEPfEEvT0_S5_T_@plt>
   87ce8: 32 0f 00 94  	bl	0x8b9b0 <_ZdlPv@plt>
   87d54: 17 0f 00 94  	bl	0x8b9b0 <_ZdlPv@plt>
   87d84: 5b 0f 00 94  	bl	0x8baf0 <_ZNSt3__119__thread_local_dataEv@plt>
   87e64: 43 0f 00 94  	bl	0x8bb70 <_ZN2cv3Mat10deallocateEv@plt>
   87f64: 07 0f 00 94  	bl	0x8bb80 <_ZN2cv8fastFreeEPv@plt>
   87f78: 8a 0e 00 94  	bl	0x8b9a0 <_ZNSt3__115__thread_structD1Ev@plt>
   87f80: 8c 0e 00 94  	bl	0x8b9b0 <_ZdlPv@plt>
   87f90: 88 0e 00 14  	b	0x8b9b0 <_ZdlPv@plt>
   87fa0: 3c 0f 00 94  	bl	0x8bc90 <_ZN2cv12getTickCountEv@plt>
   88444: cb 0d 00 94  	bl	0x8bb70 <_ZN2cv3Mat10deallocateEv@plt>
   88544: 8f 0d 00 94  	bl	0x8bb80 <_ZN2cv8fastFreeEPv@plt>
   8856c: 81 0d 00 94  	bl	0x8bb70 <_ZN2cv3Mat10deallocateEv@plt>
   8866c: 45 0d 00 94  	bl	0x8bb80 <_ZN2cv8fastFreeEPv@plt>
   88694: 37 0d 00 94  	bl	0x8bb70 <_ZN2cv3Mat10deallocateEv@plt>
   88794: fb 0c 00 94  	bl	0x8bb80 <_ZN2cv8fastFreeEPv@plt>
   887bc: ed 0c 00 94  	bl	0x8bb70 <_ZN2cv3Mat10deallocateEv@plt>
   888bc: b1 0c 00 94  	bl	0x8bb80 <_ZN2cv8fastFreeEPv@plt>
   888e4: a3 0c 00 94  	bl	0x8bb70 <_ZN2cv3Mat10deallocateEv@plt>
   889e4: 67 0c 00 94  	bl	0x8bb80 <_ZN2cv8fastFreeEPv@plt>
   88a98: 36 0c 00 94  	bl	0x8bb70 <_ZN2cv3Mat10deallocateEv@plt>
   88b98: fa 0b 00 94  	bl	0x8bb80 <_ZN2cv8fastFreeEPv@plt>
   88bc0: ec 0b 00 94  	bl	0x8bb70 <_ZN2cv3Mat10deallocateEv@plt>
   88cc0: b0 0b 00 94  	bl	0x8bb80 <_ZN2cv8fastFreeEPv@plt>
   88ce8: a2 0b 00 94  	bl	0x8bb70 <_ZN2cv3Mat10deallocateEv@plt>
   88de8: 66 0b 00 94  	bl	0x8bb80 <_ZN2cv8fastFreeEPv@plt>
   88e10: 58 0b 00 94  	bl	0x8bb70 <_ZN2cv3Mat10deallocateEv@plt>
   88f10: 1c 0b 00 94  	bl	0x8bb80 <_ZN2cv8fastFreeEPv@plt>
   88f38: 0e 0b 00 94  	bl	0x8bb70 <_ZN2cv3Mat10deallocateEv@plt>
   89038: d2 0a 00 94  	bl	0x8bb80 <_ZN2cv8fastFreeEPv@plt>
   890c4: f3 0a 00 94  	bl	0x8bc90 <_ZN2cv12getTickCountEv@plt>
   892cc: 29 0a 00 94  	bl	0x8bb70 <_ZN2cv3Mat10deallocateEv@plt>
   893c0: f0 09 00 94  	bl	0x8bb80 <_ZN2cv8fastFreeEPv@plt>
   89410: d8 09 00 94  	bl	0x8bb70 <_ZN2cv3Mat10deallocateEv@plt>
   89504: 9f 09 00 94  	bl	0x8bb80 <_ZN2cv8fastFreeEPv@plt>
   89528: da 09 00 94  	bl	0x8bc90 <_ZN2cv12getTickCountEv@plt>
   89588: 7a 09 00 94  	bl	0x8bb70 <_ZN2cv3Mat10deallocateEv@plt>
   89688: 3e 09 00 94  	bl	0x8bb80 <_ZN2cv8fastFreeEPv@plt>
   896b0: 30 09 00 94  	bl	0x8bb70 <_ZN2cv3Mat10deallocateEv@plt>
   897b0: f4 08 00 94  	bl	0x8bb80 <_ZN2cv8fastFreeEPv@plt>
   897d4: 77 08 00 94  	bl	0x8b9b0 <_ZdlPv@plt>
   8983c: 5d 08 00 94  	bl	0x8b9b0 <_ZdlPv@plt>
   898a4: 43 08 00 94  	bl	0x8b9b0 <_ZdlPv@plt>
   8996c: c9 08 00 94  	bl	0x8bc90 <_ZN2cv12getTickCountEv@plt>
   89978: de 08 00 94  	bl	0x8bcf0 <_ZN2cv16getTickFrequencyEv@plt>
   89a28: 52 08 00 94  	bl	0x8bb70 <_ZN2cv3Mat10deallocateEv@plt>
   89b1c: 19 08 00 94  	bl	0x8bb80 <_ZN2cv8fastFreeEPv@plt>
   89b54: 07 08 00 94  	bl	0x8bb70 <_ZN2cv3Mat10deallocateEv@plt>
   89c48: ce 07 00 94  	bl	0x8bb80 <_ZN2cv8fastFreeEPv@plt>
   89c7c: bd 07 00 94  	bl	0x8bb70 <_ZN2cv3Mat10deallocateEv@plt>
   89d7c: 81 07 00 94  	bl	0x8bb80 <_ZN2cv8fastFreeEPv@plt>
   89da4: 73 07 00 94  	bl	0x8bb70 <_ZN2cv3Mat10deallocateEv@plt>
   89ea4: 37 07 00 94  	bl	0x8bb80 <_ZN2cv8fastFreeEPv@plt>
   89ec8: ba 06 00 94  	bl	0x8b9b0 <_ZdlPv@plt>
   89f2c: a1 06 00 94  	bl	0x8b9b0 <_ZdlPv@plt>
   89f94: 87 06 00 94  	bl	0x8b9b0 <_ZdlPv@plt>
   8a050: 38 06 00 94  	bl	0x8b930 <_Znwm@plt>
   8a158: 16 06 00 14  	b	0x8b9b0 <_ZdlPv@plt>
   8a284: 07 06 00 94  	bl	0x8baa0 <_ZNKSt3__120__vector_base_commonILb1EE20__throw_length_errorEv@plt>
   8a2cc: 99 05 00 94  	bl	0x8b930 <_Znwm@plt>
   8a318: ae 05 00 94  	bl	0x8b9d0 <_ZNSt3__15mutexD1Ev@plt>
   8a320: a4 05 00 94  	bl	0x8b9b0 <_ZdlPv@plt>
   8a38c: 69 07 00 94  	bl	0x8c130 <_ZNSt3__111this_thread9sleep_forERKNS_6chrono8durationIxNS_5ratioILl1ELl1000000000EEEEE@plt>
   8a51c: 05 05 00 94  	bl	0x8b930 <_Znwm@plt>
   8a568: f2 04 00 94  	bl	0x8b930 <_Znwm@plt>
   8a570: f4 04 00 94  	bl	0x8b940 <_ZNSt3__115__thread_structC1Ev@plt>
   8a578: ee 04 00 94  	bl	0x8b930 <_Znwm@plt>
   8a5c0: e8 04 00 94  	bl	0x8b960 <_ZNSt3__16threadD1Ev@plt>
   8a610: 0c 05 00 94  	bl	0x8ba40 <_ZNSt3__16thread4joinEv@plt>
   8a628: e2 04 00 94  	bl	0x8b9b0 <_ZdlPv@plt>
   8a64c: c5 04 00 94  	bl	0x8b960 <_ZNSt3__16threadD1Ev@plt>
   8a680: cc 04 00 94  	bl	0x8b9b0 <_ZdlPv@plt>
   8a730: 80 04 00 94  	bl	0x8b930 <_Znwm@plt>
   8a788: 8a 04 00 94  	bl	0x8b9b0 <_ZdlPv@plt>
   8a7b4: ef 04 00 94  	bl	0x8bb70 <_ZN2cv3Mat10deallocateEv@plt>
   8a8b0: b4 04 00 94  	bl	0x8bb80 <_ZN2cv8fastFreeEPv@plt>
   8a9a0: 04 04 00 94  	bl	0x8b9b0 <_ZdlPv@plt>
   8a9f0: e4 03 00 94  	bl	0x8b980 <_ZNSt3__120__throw_system_errorEiPKc@plt>
   8a9f8: 2a 04 00 94  	bl	0x8baa0 <_ZNKSt3__120__vector_base_commonILb1EE20__throw_length_errorEv@plt>
   8aa2c: cd 03 00 94  	bl	0x8b960 <_ZNSt3__16threadD1Ev@plt>
   8aa54: d3 03 00 94  	bl	0x8b9a0 <_ZNSt3__115__thread_structD1Ev@plt>
   8aa5c: d5 03 00 94  	bl	0x8b9b0 <_ZdlPv@plt>
   8aa64: d3 03 00 94  	bl	0x8b9b0 <_ZdlPv@plt>
   8aa74: cb 03 00 94  	bl	0x8b9a0 <_ZNSt3__115__thread_structD1Ev@plt>
   8aa7c: cd 03 00 94  	bl	0x8b9b0 <_ZdlPv@plt>
   8aa8c: c9 03 00 94  	bl	0x8b9b0 <_ZdlPv@plt>
   8aab4: ab 03 00 94  	bl	0x8b960 <_ZNSt3__16threadD1Ev@plt>
   8aae0: b4 03 00 94  	bl	0x8b9b0 <_ZdlPv@plt>
   8ab08: 1a 04 00 94  	bl	0x8bb70 <_ZN2cv3Mat10deallocateEv@plt>
   8ac04: df 03 00 94  	bl	0x8bb80 <_ZN2cv8fastFreeEPv@plt>
   8ac2c: 61 03 00 94  	bl	0x8b9b0 <_ZdlPv@plt>
000000000008b930 <_Znwm@plt>:
   8b930: 10 00 00 f0  	adrp	x16, 0x8e000 <_Znwm@plt+0xc>
000000000008b940 <_ZNSt3__115__thread_structC1Ev@plt>:
   8b940: 10 00 00 f0  	adrp	x16, 0x8e000 <_ZNSt3__115__thread_structC1Ev@plt+0xc>
000000000008b960 <_ZNSt3__16threadD1Ev@plt>:
   8b960: 10 00 00 f0  	adrp	x16, 0x8e000 <_ZNSt3__16threadD1Ev@plt+0xc>
000000000008b980 <_ZNSt3__120__throw_system_errorEiPKc@plt>:
   8b980: 10 00 00 f0  	adrp	x16, 0x8e000 <_ZNSt3__120__throw_system_errorEiPKc@plt+0xc>
000000000008b9a0 <_ZNSt3__115__thread_structD1Ev@plt>:
   8b9a0: 10 00 00 f0  	adrp	x16, 0x8e000 <_ZNSt3__115__thread_structD1Ev@plt+0xc>
000000000008b9b0 <_ZdlPv@plt>:
   8b9b0: 10 00 00 f0  	adrp	x16, 0x8e000 <_ZdlPv@plt+0xc>
000000000008b9c0 <_ZNSt3__118condition_variableD1Ev@plt>:
   8b9c0: 10 00 00 f0  	adrp	x16, 0x8e000 <_ZNSt3__118condition_variableD1Ev@plt+0xc>
000000000008b9d0 <_ZNSt3__15mutexD1Ev@plt>:
   8b9d0: 10 00 00 f0  	adrp	x16, 0x8e000 <_ZNSt3__15mutexD1Ev@plt+0xc>
000000000008ba00 <_ZNSt3__15mutex4lockEv@plt>:
   8ba00: 10 00 00 f0  	adrp	x16, 0x8e000 <_ZNSt3__15mutex4lockEv@plt+0xc>
000000000008ba10 <_ZNSt3__118condition_variable10notify_allEv@plt>:
   8ba10: 10 00 00 f0  	adrp	x16, 0x8e000 <_ZNSt3__118condition_variable10notify_allEv@plt+0xc>
000000000008ba20 <_ZNSt3__118condition_variable4waitERNS_11unique_lockINS_5mutexEEE@plt>:
   8ba20: 10 00 00 f0  	adrp	x16, 0x8e000 <_ZNSt3__118condition_variable4waitERNS_11unique_lockINS_5mutexEEE@plt+0xc>
000000000008ba30 <_ZNSt3__15mutex6unlockEv@plt>:
   8ba30: 10 00 00 f0  	adrp	x16, 0x8e000 <_ZNSt3__15mutex6unlockEv@plt+0xc>
000000000008ba40 <_ZNSt3__16thread4joinEv@plt>:
   8ba40: 10 00 00 f0  	adrp	x16, 0x8e000 <_ZNSt3__16thread4joinEv@plt+0xc>
000000000008ba60 <_ZSt9terminatev@plt>:
   8ba60: 10 00 00 f0  	adrp	x16, 0x8e000 <_ZSt9terminatev@plt+0xc>
000000000008baa0 <_ZNKSt3__120__vector_base_commonILb1EE20__throw_length_errorEv@plt>:
   8baa0: 10 00 00 f0  	adrp	x16, 0x8e000 <_ZNKSt3__120__vector_base_commonILb1EE20__throw_length_errorEv@plt+0xc>
000000000008bae0 <_ZNSt11logic_errorC2EPKc@plt>:
   8bae0: 10 00 00 f0  	adrp	x16, 0x8e000 <_ZNSt11logic_errorC2EPKc@plt+0xc>
000000000008baf0 <_ZNSt3__119__thread_local_dataEv@plt>:
   8baf0: 10 00 00 f0  	adrp	x16, 0x8e000 <_ZNSt3__119__thread_local_dataEv@plt+0xc>
000000000008bb10 <_ZNSt9exceptionD2Ev@plt>:
   8bb10: 10 00 00 f0  	adrp	x16, 0x8e000 <_ZNSt9exceptionD2Ev@plt+0xc>
000000000008bb20 <_ZNSt3__119__shared_weak_count14__release_weakEv@plt>:
   8bb20: 10 00 00 f0  	adrp	x16, 0x8e000 <_ZNSt3__119__shared_weak_count14__release_weakEv@plt+0xc>
000000000008bb70 <_ZN2cv3Mat10deallocateEv@plt>:
   8bb70: 10 00 00 f0  	adrp	x16, 0x8e000 <_ZN2cv3Mat10deallocateEv@plt+0xc>
000000000008bb80 <_ZN2cv8fastFreeEPv@plt>:
   8bb80: 10 00 00 f0  	adrp	x16, 0x8e000 <_ZN2cv8fastFreeEPv@plt+0xc>
000000000008bbb0 <_ZN2cv3Mat6createEiPKii@plt>:
   8bbb0: 10 00 00 f0  	adrp	x16, 0x8e000 <_ZN2cv3Mat6createEiPKii@plt+0xc>
000000000008bbc0 <_ZN2cv3MatC1ERKS0_RKNS_5Rect_IiEE@plt>:
   8bbc0: 10 00 00 f0  	adrp	x16, 0x8e000 <_ZN2cv3MatC1ERKS0_RKNS_5Rect_IiEE@plt+0xc>
000000000008bbd0 <_ZNK2cv3Mat6copyToERKNS_12_OutputArrayE@plt>:
   8bbd0: 10 00 00 f0  	adrp	x16, 0x8e000 <_ZNK2cv3Mat6copyToERKNS_12_OutputArrayE@plt+0xc>
000000000008bbf0 <_ZN2cv7noArrayEv@plt>:
   8bbf0: 10 00 00 f0  	adrp	x16, 0x8e000 <_ZN2cv7noArrayEv@plt+0xc>
000000000008bc00 <_ZN2cv13matchTemplateERKNS_11_InputArrayES2_RKNS_12_OutputArrayEiS2_@plt>:
   8bc00: 10 00 00 f0  	adrp	x16, 0x8e000 <_ZN2cv13matchTemplateERKNS_11_InputArrayES2_RKNS_12_OutputArrayEiS2_@plt+0xc>
000000000008bc10 <_ZN2cv9minMaxLocERKNS_11_InputArrayEPdS3_PNS_6Point_IiEES6_S2_@plt>:
   8bc10: 10 00 00 f0  	adrp	x16, 0x8e000 <_ZN2cv9minMaxLocERKNS_11_InputArrayEPdS3_PNS_6Point_IiEES6_S2_@plt+0xc>
000000000008bc50 <_ZNSt3__15mutex8try_lockEv@plt>:
   8bc50: 10 00 00 f0  	adrp	x16, 0x8e000 <_ZNSt3__15mutex8try_lockEv@plt+0xc>
000000000008bc60 <_ZNSt3__119__shared_weak_countD2Ev@plt>:
   8bc60: 10 00 00 f0  	adrp	x16, 0x8e000 <_ZNSt3__119__shared_weak_countD2Ev@plt+0xc>
000000000008bc80 <_ZN2cv3Mat8copySizeERKS0_@plt>:
   8bc80: 10 00 00 f0  	adrp	x16, 0x8e000 <_ZN2cv3Mat8copySizeERKS0_@plt+0xc>
000000000008bc90 <_ZN2cv12getTickCountEv@plt>:
   8bc90: 10 00 00 f0  	adrp	x16, 0x8e000 <_ZN2cv12getTickCountEv@plt+0xc>
000000000008bca0 <_ZN2cv3ORB6createEifiiiiNS0_9ScoreTypeEii@plt>:
   8bca0: 10 00 00 f0  	adrp	x16, 0x8e000 <_ZN2cv3ORB6createEifiiiiNS0_9ScoreTypeEii@plt+0xc>
000000000008bcb0 <_ZN2cv17DescriptorMatcher6createERKNSt3__112basic_stringIcNS1_11char_traitsIcEENS1_9allocatorIcEEEE@plt>:
   8bcb0: 10 00 00 f0  	adrp	x16, 0x8e000 <_ZN2cv17DescriptorMatcher6createERKNSt3__112basic_stringIcNS1_11char_traitsIcEENS1_9allocatorIcEEEE@plt+0xc>
000000000008bcc0 <_ZNK2cv17DescriptorMatcher5matchERKNS_11_InputArrayES3_RNSt3__16vectorINS_6DMatchENS4_9allocatorIS6_EEEES3_@plt>:
   8bcc0: 10 00 00 f0  	adrp	x16, 0x8e000 <_ZNK2cv17DescriptorMatcher5matchERKNS_11_InputArrayES3_RNSt3__16vectorINS_6DMatchENS4_9allocatorIS6_EEEES3_@plt+0xc>
000000000008bce0 <_ZN2cv12countNonZeroERKNS_11_InputArrayE@plt>:
   8bce0: 10 00 00 f0  	adrp	x16, 0x8e000 <_ZN2cv12countNonZeroERKNS_11_InputArrayE@plt+0xc>
000000000008bcf0 <_ZN2cv16getTickFrequencyEv@plt>:
   8bcf0: 10 00 00 f0  	adrp	x16, 0x8e000 <_ZN2cv16getTickFrequencyEv@plt+0xc>
000000000008bd20 <_ZN2cv3Mat5zerosEiii@plt>:
   8bd20: 10 00 00 f0  	adrp	x16, 0x8e000 <_ZN2cv3Mat5zerosEiii@plt+0xc>
000000000008bd30 <_ZNK2cv3Mat9convertToERKNS_12_OutputArrayEidd@plt>:
   8bd30: 10 00 00 f0  	adrp	x16, 0x8e000 <_ZNK2cv3Mat9convertToERKNS_12_OutputArrayEidd@plt+0xc>
000000000008bd40 <_ZN2cv3Mat3eyeEiii@plt>:
   8bd40: 10 00 00 f0  	adrp	x16, 0x8e000 <_ZN2cv3Mat3eyeEiii@plt+0xc>
000000000008bd50 <_ZN2cv12equalizeHistERKNS_11_InputArrayERKNS_12_OutputArrayE@plt>:
   8bd50: 10 00 00 f0  	adrp	x16, 0x8e000 <_ZN2cv12equalizeHistERKNS_11_InputArrayERKNS_12_OutputArrayE@plt+0xc>
000000000008bd60 <_ZN2cv22estimateRigidTransformERKNS_11_InputArrayES2_b@plt>:
   8bd60: 10 00 00 f0  	adrp	x16, 0x8e000 <_ZN2cv22estimateRigidTransformERKNS_11_InputArrayES2_b@plt+0xc>
000000000008bd80 <_ZN2cv3MataSERKNS_7Scalar_IdEE@plt>:
   8bd80: 10 00 00 f0  	adrp	x16, 0x8e000 <_ZN2cv3MataSERKNS_7Scalar_IdEE@plt+0xc>
000000000008bd90 <_ZN2cv20perspectiveTransformERKNS_11_InputArrayERKNS_12_OutputArrayES2_@plt>:
   8bd90: 10 00 00 f0  	adrp	x16, 0x8e000 <_ZN2cv20perspectiveTransformERKNS_11_InputArrayERKNS_12_OutputArrayES2_@plt+0xc>
000000000008bda0 <_ZNSt3__113basic_istreamIcNS_11char_traitsIcEEED2Ev@plt>:
   8bda0: 10 00 00 f0  	adrp	x16, 0x8e000 <_ZNSt3__113basic_istreamIcNS_11char_traitsIcEEED2Ev@plt+0xc>
000000000008bdb0 <_ZNSt3__19basic_iosIcNS_11char_traitsIcEEED2Ev@plt>:
   8bdb0: 10 00 00 f0  	adrp	x16, 0x8e000 <_ZNSt3__19basic_iosIcNS_11char_traitsIcEEED2Ev@plt+0xc>
000000000008bdd0 <_ZdaPv@plt>:
   8bdd0: 10 00 00 f0  	adrp	x16, 0x8e000 <_ZdaPv@plt+0xc>
000000000008bde0 <_ZNSt3__115basic_streambufIcNS_11char_traitsIcEEED2Ev@plt>:
   8bde0: 10 00 00 f0  	adrp	x16, 0x8e000 <_ZNSt3__115basic_streambufIcNS_11char_traitsIcEEED2Ev@plt+0xc>
000000000008bdf0 <_ZNKSt3__16locale9use_facetERNS0_2idE@plt>:
   8bdf0: 10 00 00 f0  	adrp	x16, 0x8e000 <_ZNKSt3__16locale9use_facetERNS0_2idE@plt+0xc>
000000000008be00 <_Znam@plt>:
   8be00: 10 00 00 f0  	adrp	x16, 0x8e000 <_Znam@plt+0xc>
000000000008be70 <_ZNSt8bad_castC1Ev@plt>:
   8be70: 10 00 00 f0  	adrp	x16, 0x8e000 <_ZNSt8bad_castC1Ev@plt+0xc>
000000000008be80 <_ZN2cv6resizeERKNS_11_InputArrayERKNS_12_OutputArrayENS_5Size_IiEEddi@plt>:
   8be80: 10 00 00 f0  	adrp	x16, 0x8e000 <_ZN2cv6resizeERKNS_11_InputArrayERKNS_12_OutputArrayENS_5Size_IiEEddi@plt+0xc>
000000000008be90 <_ZN2cv7absdiffERKNS_11_InputArrayES2_RKNS_12_OutputArrayE@plt>:
   8be90: 10 00 00 f0  	adrp	x16, 0x8e000 <_ZN2cv7absdiffERKNS_11_InputArrayES2_RKNS_12_OutputArrayE@plt+0xc>
000000000008bea0 <_ZN2cv4normERKNS_11_InputArrayEiS2_@plt>:
   8bea0: 10 00 00 f0  	adrp	x16, 0x8e000 <_ZN2cv4normERKNS_11_InputArrayEiS2_@plt+0xc>
000000000008bec0 <_ZN2cv8subtractERKNS_11_InputArrayES2_RKNS_12_OutputArrayES2_i@plt>:
   8bec0: 10 00 00 f0  	adrp	x16, 0x8e000 <_ZN2cv8subtractERKNS_11_InputArrayES2_RKNS_12_OutputArrayES2_i@plt+0xc>
000000000008bed0 <_ZN2cv8integralERKNS_11_InputArrayERKNS_12_OutputArrayES5_ii@plt>:
   8bed0: 10 00 00 f0  	adrp	x16, 0x8e000 <_ZN2cv8integralERKNS_11_InputArrayERKNS_12_OutputArrayES5_ii@plt+0xc>
000000000008bef0 <_ZNK2cv11_InputArray4kindEv@plt>:
   8bef0: 10 00 00 f0  	adrp	x16, 0x8e000 <_ZNK2cv11_InputArray4kindEv@plt+0xc>
000000000008bf00 <_ZNK2cv11_InputArray7getMat_Ei@plt>:
   8bf00: 10 00 00 f0  	adrp	x16, 0x8e000 <_ZNK2cv11_InputArray7getMat_Ei@plt+0xc>
000000000008bf10 <_ZNK2cv12_OutputArray6createENS_5Size_IiEEiibNS0_9DepthMaskE@plt>:
   8bf10: 10 00 00 f0  	adrp	x16, 0x8e000 <_ZNK2cv12_OutputArray6createENS_5Size_IiEEiibNS0_9DepthMaskE@plt+0xc>
000000000008bf20 <_ZNK2cv11_InputArray5emptyEv@plt>:
   8bf20: 10 00 00 f0  	adrp	x16, 0x8e000 <_ZNK2cv11_InputArray5emptyEv@plt+0xc>
000000000008bf50 <_ZNK2cv3Mat9locateROIERNS_5Size_IiEERNS_6Point_IiEE@plt>:
   8bf50: 10 00 00 f0  	adrp	x16, 0x8e000 <_ZNK2cv3Mat9locateROIERNS_5Size_IiEERNS_6Point_IiEE@plt+0xc>
000000000008bf60 <_ZN2cv3Mat9adjustROIEiiii@plt>:
   8bf60: 10 00 00 f0  	adrp	x16, 0x8e000 <_ZN2cv3Mat9adjustROIEiiii@plt+0xc>
000000000008bf70 <_ZNK2cv11_InputArray4sizeEi@plt>:
   8bf70: 10 00 00 f0  	adrp	x16, 0x8e000 <_ZNK2cv11_InputArray4sizeEi@plt+0xc>
000000000008bf80 <_ZN2cv6invertERKNS_11_InputArrayERKNS_12_OutputArrayEi@plt>:
   8bf80: 10 00 00 f0  	adrp	x16, 0x8e000 <_ZN2cv6invertERKNS_11_InputArrayERKNS_12_OutputArrayEi@plt+0xc>
000000000008bf90 <_ZN2cv3Mat5zerosENS_5Size_IiEEi@plt>:
   8bf90: 10 00 00 f0  	adrp	x16, 0x8e000 <_ZN2cv3Mat5zerosENS_5Size_IiEEi@plt+0xc>
000000000008bfb0 <_ZN2cv10bitwise_orERKNS_11_InputArrayES2_RKNS_12_OutputArrayES2_@plt>:
   8bfb0: 10 00 00 f0  	adrp	x16, 0x8e000 <_ZN2cv10bitwise_orERKNS_11_InputArrayES2_RKNS_12_OutputArrayES2_@plt+0xc>
000000000008bfc0 <_ZN2cv7inRangeERKNS_11_InputArrayES2_S2_RKNS_12_OutputArrayE@plt>:
   8bfc0: 10 00 00 f0  	adrp	x16, 0x8e000 <_ZN2cv7inRangeERKNS_11_InputArrayES2_S2_RKNS_12_OutputArrayE@plt+0xc>
000000000008bfd0 <_ZN2cvplERKNS_3MatERKNS_7Scalar_IdEE@plt>:
   8bfd0: 10 00 00 f0  	adrp	x16, 0x8e000 <_ZN2cvplERKNS_3MatERKNS_7Scalar_IdEE@plt+0xc>
000000000008bfe0 <_ZN2cv12findContoursERKNS_11_InputArrayERKNS_12_OutputArrayES5_iiNS_6Point_IiEE@plt>:
   8bfe0: 10 00 00 f0  	adrp	x16, 0x8e000 <_ZN2cv12findContoursERKNS_11_InputArrayERKNS_12_OutputArrayES5_iiNS_6Point_IiEE@plt+0xc>
000000000008bff0 <_ZN2cv12approxPolyDPERKNS_11_InputArrayERKNS_12_OutputArrayEdb@plt>:
   8bff0: 10 00 00 f0  	adrp	x16, 0x8e000 <_ZN2cv12approxPolyDPERKNS_11_InputArrayERKNS_12_OutputArrayEdb@plt+0xc>
000000000008c000 <_ZN2cv12boundingRectERKNS_11_InputArrayE@plt>:
   8c000: 10 00 00 d0  	adrp	x16, 0x8e000 <_ZN2cv12boundingRectERKNS_11_InputArrayE@plt+0x8>
000000000008c010 <_ZN2cvmiERKNS_3MatES2_@plt>:
   8c010: 10 00 00 d0  	adrp	x16, 0x8e000 <_ZN2cvmiERKNS_3MatES2_@plt+0x8>
000000000008c020 <_ZN2cv3absERKNS_7MatExprE@plt>:
   8c020: 10 00 00 d0  	adrp	x16, 0x8e000 <_ZN2cv3absERKNS_7MatExprE@plt+0x8>
000000000008c030 <_ZN2cvgeERKNS_3MatEd@plt>:
   8c030: 10 00 00 d0  	adrp	x16, 0x8e000 <_ZN2cvgeERKNS_3MatEd@plt+0x8>
000000000008c040 <_ZN2cvmlERKNS_3MatEd@plt>:
   8c040: 10 00 00 d0  	adrp	x16, 0x8e000 <_ZN2cvmlERKNS_3MatEd@plt+0x8>
000000000008c050 <_ZN2cvplERKNS_7MatExprES2_@plt>:
   8c050: 10 00 00 d0  	adrp	x16, 0x8e000 <_ZN2cvplERKNS_7MatExprES2_@plt+0x8>
000000000008c060 <_ZNK2cv3Mat6copyToERKNS_12_OutputArrayERKNS_11_InputArrayE@plt>:
   8c060: 10 00 00 d0  	adrp	x16, 0x8e000 <_ZNK2cv3Mat6copyToERKNS_12_OutputArrayERKNS_11_InputArrayE@plt+0x8>
000000000008c070 <_ZNSt3__16__sortIRNS_6__lessIffEEPfEEvT0_S5_T_@plt>:
   8c070: 10 00 00 d0  	adrp	x16, 0x8e000 <_ZNSt3__16__sortIRNS_6__lessIffEEPfEEvT0_S5_T_@plt+0x8>
000000000008c080 <_ZN2cvanERKNS_3MatES2_@plt>:
   8c080: 10 00 00 d0  	adrp	x16, 0x8e000 <_ZN2cvanERKNS_3MatES2_@plt+0x8>
000000000008c090 <_ZN2cvcoERKNS_3MatE@plt>:
   8c090: 10 00 00 d0  	adrp	x16, 0x8e000 <_ZN2cvcoERKNS_3MatE@plt+0x8>
000000000008c0a0 <_ZN2cvorERKNS_3MatES2_@plt>:
   8c0a0: 10 00 00 d0  	adrp	x16, 0x8e000 <_ZN2cvorERKNS_3MatES2_@plt+0x8>
000000000008c0b0 <_ZN2cv12GaussianBlurERKNS_11_InputArrayERKNS_12_OutputArrayENS_5Size_IiEEddi@plt>:
   8c0b0: 10 00 00 d0  	adrp	x16, 0x8e000 <_ZN2cv12GaussianBlurERKNS_11_InputArrayERKNS_12_OutputArrayENS_5Size_IiEEddi@plt+0x8>
000000000008c0c0 <_ZN2cv4meanERKNS_11_InputArrayES2_@plt>:
   8c0c0: 10 00 00 d0  	adrp	x16, 0x8e000 <_ZN2cv4meanERKNS_11_InputArrayES2_@plt+0x8>
000000000008c0d0 <_ZN2cv3Mat5setToERKNS_11_InputArrayES3_@plt>:
   8c0d0: 10 00 00 d0  	adrp	x16, 0x8e000 <_ZN2cv3Mat5setToERKNS_11_InputArrayES3_@plt+0x8>
000000000008c0e0 <_ZN2cv11bitwise_andERKNS_11_InputArrayES2_RKNS_12_OutputArrayES2_@plt>:
   8c0e0: 10 00 00 d0  	adrp	x16, 0x8e000 <_ZN2cv11bitwise_andERKNS_11_InputArrayES2_RKNS_12_OutputArrayES2_@plt+0x8>
000000000008c0f0 <_ZN2cv5errorEiRKNSt3__112basic_stringIcNS0_11char_traitsIcEENS0_9allocatorIcEEEEPKcSA_i@plt>:
   8c0f0: 10 00 00 d0  	adrp	x16, 0x8e000 <_ZN2cv5errorEiRKNSt3__112basic_stringIcNS0_11char_traitsIcEENS0_9allocatorIcEEEEPKcSA_i@plt+0x8>
000000000008c100 <_ZN2cv3Mat20updateContinuityFlagEv@plt>:
   8c100: 10 00 00 d0  	adrp	x16, 0x8e000 <_ZN2cv3Mat20updateContinuityFlagEv@plt+0x8>
000000000008c130 <_ZNSt3__111this_thread9sleep_forERKNS_6chrono8durationIxNS_5ratioILl1ELl1000000000EEEEE@plt>:
   8c130: 10 00 00 d0  	adrp	x16, 0x8e000 <_ZNSt3__111this_thread9sleep_forERKNS_6chrono8durationIxNS_5ratioILl1ELl1000000000EEEEE@plt+0x8>
000000000008d008 <_ZTISt12length_error>:
000000000008d020 <_ZTISt11logic_error>:
000000000008d038 <_ZTISt9exception>:
000000000008d048 <_ZTINSt3__117bad_function_callE>:
000000000008d060 <_ZTTNSt3__114basic_ifstreamIcNS_11char_traitsIcEEEE>:
000000000008d080 <_ZTISt8bad_cast>:
000000000008d098 <_ZTVNSt3__113basic_filebufIcNS_11char_traitsIcEEEE>:
000000000008d118 <_ZTVNSt3__114basic_ifstreamIcNS_11char_traitsIcEEEE>:
000000000008d178 <_ZTCNSt3__114basic_ifstreamIcNS_11char_traitsIcEEEE0_NS_13basic_istreamIcS2_EE>:
     9ec: 13 1b 46 58  	ldr	x19, 0x8cd4c <_ZNSt3__111this_thread9sleep_forERKNS_6chrono8durationIxNS_5ratioILl1ELl1000000000EEEEE@plt+0xc1c>
    176c: 4b 0b 46 34  	cbz	w11, 0x8d8d4 <_ZTCNSt3__114basic_ifstreamIcNS_11char_traitsIcEEEE0_NS_13basic_istreamIcS2_EE+0x75c>
